;*******************************************************************************
;* TMS320C55x C/C++ Codegen                                          PC v4.4.1 *
;* Date/Time created: Sat Sep 22 03:36:32 2018                                 *
;*******************************************************************************
	.compiler_opts --hll_source=on --mem_model:code=flat --mem_model:data=large --object_format=coff --silicon_core_3_3 --symdebug:dwarf 
	.mmregs
	.cpl_on
	.arms_on
	.c54cm_off
	.asg AR6, FP
	.asg XAR6, XFP
	.asg DPH, MDP
	.model call=c55_std
	.model mem=large
	.noremark 5002  ; code respects overwrite rules
;*******************************************************************************
;* GLOBAL FILE PARAMETERS                                                      *
;*                                                                             *
;*   Architecture       : TMS320C55x                                           *
;*   Optimizing for     : Speed                                                *
;*   Memory             : Large Model (23-Bit Data Pointers)                   *
;*   Calls              : Normal Library ASM calls                             *
;*   Debug Info         : Standard TI Debug Information                        *
;*******************************************************************************

$C$DW$CU	.dwtag  DW_TAG_compile_unit
	.dwattr $C$DW$CU, DW_AT_name("../c5535_bsl_revc/ezdsp5535_v1/c55xx_csl/src/csl_msc.c")
	.dwattr $C$DW$CU, DW_AT_producer("TMS320C55x C/C++ Codegen PC v4.4.1 Copyright (c) 1996-2012 Texas Instruments Incorporated")
	.dwattr $C$DW$CU, DW_AT_TI_version(0x01)
	.dwattr $C$DW$CU, DW_AT_comp_dir("F:\eZdsp_DBG\eZDSP_5535_Files\ccsws2\test\Debug")

$C$DW$1	.dwtag  DW_TAG_subprogram, DW_AT_name("memcpy")
	.dwattr $C$DW$1, DW_AT_TI_symbol_name("_memcpy")
	.dwattr $C$DW$1, DW_AT_type(*$C$DW$T$3)
	.dwattr $C$DW$1, DW_AT_declaration
	.dwattr $C$DW$1, DW_AT_external
$C$DW$2	.dwtag  DW_TAG_formal_parameter
	.dwattr $C$DW$2, DW_AT_type(*$C$DW$T$3)
$C$DW$3	.dwtag  DW_TAG_formal_parameter
	.dwattr $C$DW$3, DW_AT_type(*$C$DW$T$111)
$C$DW$4	.dwtag  DW_TAG_formal_parameter
	.dwattr $C$DW$4, DW_AT_type(*$C$DW$T$112)
	.dwendtag $C$DW$1


$C$DW$5	.dwtag  DW_TAG_subprogram, DW_AT_name("strlen")
	.dwattr $C$DW$5, DW_AT_TI_symbol_name("_strlen")
	.dwattr $C$DW$5, DW_AT_type(*$C$DW$T$112)
	.dwattr $C$DW$5, DW_AT_declaration
	.dwattr $C$DW$5, DW_AT_external
$C$DW$6	.dwtag  DW_TAG_formal_parameter
	.dwattr $C$DW$6, DW_AT_type(*$C$DW$T$171)
	.dwendtag $C$DW$5


$C$DW$7	.dwtag  DW_TAG_subprogram, DW_AT_name("USB_initEndptObj")
	.dwattr $C$DW$7, DW_AT_TI_symbol_name("_USB_initEndptObj")
	.dwattr $C$DW$7, DW_AT_type(*$C$DW$T$89)
	.dwattr $C$DW$7, DW_AT_declaration
	.dwattr $C$DW$7, DW_AT_external
$C$DW$8	.dwtag  DW_TAG_formal_parameter
	.dwattr $C$DW$8, DW_AT_type(*$C$DW$T$24)
$C$DW$9	.dwtag  DW_TAG_formal_parameter
	.dwattr $C$DW$9, DW_AT_type(*$C$DW$T$27)
$C$DW$10	.dwtag  DW_TAG_formal_parameter
	.dwattr $C$DW$10, DW_AT_type(*$C$DW$T$79)
$C$DW$11	.dwtag  DW_TAG_formal_parameter
	.dwattr $C$DW$11, DW_AT_type(*$C$DW$T$81)
$C$DW$12	.dwtag  DW_TAG_formal_parameter
	.dwattr $C$DW$12, DW_AT_type(*$C$DW$T$25)
$C$DW$13	.dwtag  DW_TAG_formal_parameter
	.dwattr $C$DW$13, DW_AT_type(*$C$DW$T$25)
$C$DW$14	.dwtag  DW_TAG_formal_parameter
	.dwattr $C$DW$14, DW_AT_type(*$C$DW$T$82)
	.dwendtag $C$DW$7


$C$DW$15	.dwtag  DW_TAG_subprogram, DW_AT_name("USB_getEvents")
	.dwattr $C$DW$15, DW_AT_TI_symbol_name("_USB_getEvents")
	.dwattr $C$DW$15, DW_AT_type(*$C$DW$T$150)
	.dwattr $C$DW$15, DW_AT_declaration
	.dwattr $C$DW$15, DW_AT_external
$C$DW$16	.dwtag  DW_TAG_formal_parameter
	.dwattr $C$DW$16, DW_AT_type(*$C$DW$T$27)
$C$DW$17	.dwtag  DW_TAG_formal_parameter
	.dwattr $C$DW$17, DW_AT_type(*$C$DW$T$90)
	.dwendtag $C$DW$15


$C$DW$18	.dwtag  DW_TAG_subprogram, DW_AT_name("USB_getSetupPacket")
	.dwattr $C$DW$18, DW_AT_TI_symbol_name("_USB_getSetupPacket")
	.dwattr $C$DW$18, DW_AT_type(*$C$DW$T$89)
	.dwattr $C$DW$18, DW_AT_declaration
	.dwattr $C$DW$18, DW_AT_external
$C$DW$19	.dwtag  DW_TAG_formal_parameter
	.dwattr $C$DW$19, DW_AT_type(*$C$DW$T$24)
$C$DW$20	.dwtag  DW_TAG_formal_parameter
	.dwattr $C$DW$20, DW_AT_type(*$C$DW$T$43)
$C$DW$21	.dwtag  DW_TAG_formal_parameter
	.dwattr $C$DW$21, DW_AT_type(*$C$DW$T$46)
	.dwendtag $C$DW$18


$C$DW$22	.dwtag  DW_TAG_subprogram, DW_AT_name("USB_postTransaction")
	.dwattr $C$DW$22, DW_AT_TI_symbol_name("_USB_postTransaction")
	.dwattr $C$DW$22, DW_AT_type(*$C$DW$T$89)
	.dwattr $C$DW$22, DW_AT_declaration
	.dwattr $C$DW$22, DW_AT_external
$C$DW$23	.dwtag  DW_TAG_formal_parameter
	.dwattr $C$DW$23, DW_AT_type(*$C$DW$T$27)
$C$DW$24	.dwtag  DW_TAG_formal_parameter
	.dwattr $C$DW$24, DW_AT_type(*$C$DW$T$25)
$C$DW$25	.dwtag  DW_TAG_formal_parameter
	.dwattr $C$DW$25, DW_AT_type(*$C$DW$T$3)
$C$DW$26	.dwtag  DW_TAG_formal_parameter
	.dwattr $C$DW$26, DW_AT_type(*$C$DW$T$122)
	.dwendtag $C$DW$22


$C$DW$27	.dwtag  DW_TAG_subprogram, DW_AT_name("USB_isTransactionDone")
	.dwattr $C$DW$27, DW_AT_TI_symbol_name("_USB_isTransactionDone")
	.dwattr $C$DW$27, DW_AT_type(*$C$DW$T$87)
	.dwattr $C$DW$27, DW_AT_declaration
	.dwattr $C$DW$27, DW_AT_external
$C$DW$28	.dwtag  DW_TAG_formal_parameter
	.dwattr $C$DW$28, DW_AT_type(*$C$DW$T$27)
$C$DW$29	.dwtag  DW_TAG_formal_parameter
	.dwattr $C$DW$29, DW_AT_type(*$C$DW$T$90)
	.dwendtag $C$DW$27


$C$DW$30	.dwtag  DW_TAG_subprogram, DW_AT_name("USB_stallEndpt")
	.dwattr $C$DW$30, DW_AT_TI_symbol_name("_USB_stallEndpt")
	.dwattr $C$DW$30, DW_AT_type(*$C$DW$T$89)
	.dwattr $C$DW$30, DW_AT_declaration
	.dwattr $C$DW$30, DW_AT_external
$C$DW$31	.dwtag  DW_TAG_formal_parameter
	.dwattr $C$DW$31, DW_AT_type(*$C$DW$T$27)
	.dwendtag $C$DW$30


$C$DW$32	.dwtag  DW_TAG_subprogram, DW_AT_name("USB_abortTransaction")
	.dwattr $C$DW$32, DW_AT_TI_symbol_name("_USB_abortTransaction")
	.dwattr $C$DW$32, DW_AT_type(*$C$DW$T$89)
	.dwattr $C$DW$32, DW_AT_declaration
	.dwattr $C$DW$32, DW_AT_external
$C$DW$33	.dwtag  DW_TAG_formal_parameter
	.dwattr $C$DW$33, DW_AT_type(*$C$DW$T$27)
	.dwendtag $C$DW$32


$C$DW$34	.dwtag  DW_TAG_subprogram, DW_AT_name("USB_abortAllTransaction")
	.dwattr $C$DW$34, DW_AT_TI_symbol_name("_USB_abortAllTransaction")
	.dwattr $C$DW$34, DW_AT_type(*$C$DW$T$89)
	.dwattr $C$DW$34, DW_AT_declaration
	.dwattr $C$DW$34, DW_AT_external
$C$DW$35	.dwtag  DW_TAG_formal_parameter
	.dwattr $C$DW$35, DW_AT_type(*$C$DW$T$24)
	.dwendtag $C$DW$34


$C$DW$36	.dwtag  DW_TAG_subprogram, DW_AT_name("USB_connectDev")
	.dwattr $C$DW$36, DW_AT_TI_symbol_name("_USB_connectDev")
	.dwattr $C$DW$36, DW_AT_type(*$C$DW$T$89)
	.dwattr $C$DW$36, DW_AT_declaration
	.dwattr $C$DW$36, DW_AT_external
$C$DW$37	.dwtag  DW_TAG_formal_parameter
	.dwattr $C$DW$37, DW_AT_type(*$C$DW$T$24)
	.dwendtag $C$DW$36


$C$DW$38	.dwtag  DW_TAG_subprogram, DW_AT_name("USB_disconnectDev")
	.dwattr $C$DW$38, DW_AT_TI_symbol_name("_USB_disconnectDev")
	.dwattr $C$DW$38, DW_AT_type(*$C$DW$T$89)
	.dwattr $C$DW$38, DW_AT_declaration
	.dwattr $C$DW$38, DW_AT_external
$C$DW$39	.dwtag  DW_TAG_formal_parameter
	.dwattr $C$DW$39, DW_AT_type(*$C$DW$T$24)
	.dwendtag $C$DW$38


$C$DW$40	.dwtag  DW_TAG_subprogram, DW_AT_name("USB_setParams")
	.dwattr $C$DW$40, DW_AT_TI_symbol_name("_USB_setParams")
	.dwattr $C$DW$40, DW_AT_type(*$C$DW$T$89)
	.dwattr $C$DW$40, DW_AT_declaration
	.dwattr $C$DW$40, DW_AT_external
$C$DW$41	.dwtag  DW_TAG_formal_parameter
	.dwattr $C$DW$41, DW_AT_type(*$C$DW$T$24)
$C$DW$42	.dwtag  DW_TAG_formal_parameter
	.dwattr $C$DW$42, DW_AT_type(*$C$DW$T$108)
$C$DW$43	.dwtag  DW_TAG_formal_parameter
	.dwattr $C$DW$43, DW_AT_type(*$C$DW$T$25)
	.dwendtag $C$DW$40


$C$DW$44	.dwtag  DW_TAG_subprogram, DW_AT_name("USB_getMaxPower")
	.dwattr $C$DW$44, DW_AT_TI_symbol_name("_USB_getMaxPower")
	.dwattr $C$DW$44, DW_AT_type(*$C$DW$T$74)
	.dwattr $C$DW$44, DW_AT_declaration
	.dwattr $C$DW$44, DW_AT_external
$C$DW$45	.dwtag  DW_TAG_formal_parameter
	.dwattr $C$DW$45, DW_AT_type(*$C$DW$T$24)
	.dwendtag $C$DW$44


$C$DW$46	.dwtag  DW_TAG_subprogram, DW_AT_name("USB_setFullSpeedMode")
	.dwattr $C$DW$46, DW_AT_TI_symbol_name("_USB_setFullSpeedMode")
	.dwattr $C$DW$46, DW_AT_declaration
	.dwattr $C$DW$46, DW_AT_external
$C$DW$47	.dwtag  DW_TAG_formal_parameter
	.dwattr $C$DW$47, DW_AT_type(*$C$DW$T$25)
	.dwendtag $C$DW$46


$C$DW$48	.dwtag  DW_TAG_subprogram, DW_AT_name("USB_getDataCountReadFromFifo")
	.dwattr $C$DW$48, DW_AT_TI_symbol_name("_USB_getDataCountReadFromFifo")
	.dwattr $C$DW$48, DW_AT_type(*$C$DW$T$25)
	.dwattr $C$DW$48, DW_AT_declaration
	.dwattr $C$DW$48, DW_AT_external
$C$DW$49	.dwtag  DW_TAG_formal_parameter
	.dwattr $C$DW$49, DW_AT_type(*$C$DW$T$27)
	.dwendtag $C$DW$48

;	F:\ti\ccs8p1\ccsv8\tools\compiler\alt-install-ti-cgt-c55x_4.4.1\bin\acp55.exe -@f:\\AppData\\Local\\Temp\\2191212 
	.sect	".text"
	.align 4

$C$DW$50	.dwtag  DW_TAG_subprogram, DW_AT_name("MSC_SetSenseKeys")
	.dwattr $C$DW$50, DW_AT_low_pc(_MSC_SetSenseKeys)
	.dwattr $C$DW$50, DW_AT_high_pc(0x00)
	.dwattr $C$DW$50, DW_AT_TI_symbol_name("_MSC_SetSenseKeys")
	.dwattr $C$DW$50, DW_AT_TI_begin_file("F:/eZdsp_DBG/eZDSP_5535_Files/ccsws2/test/c5535_bsl_revc/ezdsp5535_v1/c55xx_csl/inc/csl_mscAux.h")
	.dwattr $C$DW$50, DW_AT_TI_begin_line(0x58)
	.dwattr $C$DW$50, DW_AT_TI_begin_column(0x06)
	.dwattr $C$DW$50, DW_AT_TI_max_frame_size(0x06)
	.dwpsn	file "F:/eZdsp_DBG/eZDSP_5535_Files/ccsws2/test/c5535_bsl_revc/ezdsp5535_v1/c55xx_csl/inc/csl_mscAux.h",line 91,column 1,is_stmt,address _MSC_SetSenseKeys

	.dwfde $C$DW$CIE, _MSC_SetSenseKeys
$C$DW$51	.dwtag  DW_TAG_formal_parameter, DW_AT_name("senseData")
	.dwattr $C$DW$51, DW_AT_TI_symbol_name("_senseData")
	.dwattr $C$DW$51, DW_AT_type(*$C$DW$T$47)
	.dwattr $C$DW$51, DW_AT_location[DW_OP_reg17]
$C$DW$52	.dwtag  DW_TAG_formal_parameter, DW_AT_name("senseKey")
	.dwattr $C$DW$52, DW_AT_TI_symbol_name("_senseKey")
	.dwattr $C$DW$52, DW_AT_type(*$C$DW$T$25)
	.dwattr $C$DW$52, DW_AT_location[DW_OP_reg12]
$C$DW$53	.dwtag  DW_TAG_formal_parameter, DW_AT_name("addSenseKey")
	.dwattr $C$DW$53, DW_AT_TI_symbol_name("_addSenseKey")
	.dwattr $C$DW$53, DW_AT_type(*$C$DW$T$25)
	.dwattr $C$DW$53, DW_AT_location[DW_OP_reg13]
;*******************************************************************************
;* FUNCTION NAME: MSC_SetSenseKeys                                             *
;*                                                                             *
;*   Function Uses Regs : T0,T1,AR0,XAR0,AR1,AR3,XAR3,SP,M40,SATA,SATD,RDM,    *
;*                        FRCT,SMUL                                            *
;*   Stack Frame        : Compact (No Frame Pointer, w/ debug)                 *
;*   Total Frame Size   : 6 words                                              *
;*                        (2 return address/alignment)                         *
;*                        (4 local values)                                     *
;*   Min System Stack   : 1 word                                               *
;*******************************************************************************
_MSC_SetSenseKeys:
	.dwcfi	cfa_offset, 1
	.dwcfi	save_reg_to_mem, 91, -1
        AADD #-5, SP
	.dwcfi	cfa_offset, 6
$C$DW$54	.dwtag  DW_TAG_variable, DW_AT_name("senseData")
	.dwattr $C$DW$54, DW_AT_TI_symbol_name("_senseData")
	.dwattr $C$DW$54, DW_AT_type(*$C$DW$T$47)
	.dwattr $C$DW$54, DW_AT_location[DW_OP_bregx 0x24 0]
$C$DW$55	.dwtag  DW_TAG_variable, DW_AT_name("senseKey")
	.dwattr $C$DW$55, DW_AT_TI_symbol_name("_senseKey")
	.dwattr $C$DW$55, DW_AT_type(*$C$DW$T$25)
	.dwattr $C$DW$55, DW_AT_location[DW_OP_bregx 0x24 2]
$C$DW$56	.dwtag  DW_TAG_variable, DW_AT_name("addSenseKey")
	.dwattr $C$DW$56, DW_AT_TI_symbol_name("_addSenseKey")
	.dwattr $C$DW$56, DW_AT_type(*$C$DW$T$25)
	.dwattr $C$DW$56, DW_AT_location[DW_OP_bregx 0x24 3]
        MOV T1, *SP(#3) ; |91| 
        MOV T0, *SP(#2) ; |91| 
        MOV XAR0, dbl(*SP(#0))
	.dwpsn	file "F:/eZdsp_DBG/eZDSP_5535_Files/ccsws2/test/c5535_bsl_revc/ezdsp5535_v1/c55xx_csl/inc/csl_mscAux.h",line 92,column 4,is_stmt
        MOV dbl(*SP(#0)), XAR3
        MOV *SP(#2), AR1 ; |92| 
        MOV AR1, *AR3(short(#3)) ; |92| 
	.dwpsn	file "F:/eZdsp_DBG/eZDSP_5535_Files/ccsws2/test/c5535_bsl_revc/ezdsp5535_v1/c55xx_csl/inc/csl_mscAux.h",line 93,column 4,is_stmt
        MOV dbl(*SP(#0)), XAR3
        MOV *SP(#3), AR1 ; |93| 
        MOV AR1, *AR3(#8) ; |93| 
	.dwpsn	file "F:/eZdsp_DBG/eZDSP_5535_Files/ccsws2/test/c5535_bsl_revc/ezdsp5535_v1/c55xx_csl/inc/csl_mscAux.h",line 94,column 1,is_stmt
        AADD #5, SP
	.dwcfi	cfa_offset, 1
$C$DW$57	.dwtag  DW_TAG_TI_branch
	.dwattr $C$DW$57, DW_AT_low_pc(0x00)
	.dwattr $C$DW$57, DW_AT_TI_return
        RET
                                        ; return occurs
	.dwattr $C$DW$50, DW_AT_TI_end_file("F:/eZdsp_DBG/eZDSP_5535_Files/ccsws2/test/c5535_bsl_revc/ezdsp5535_v1/c55xx_csl/inc/csl_mscAux.h")
	.dwattr $C$DW$50, DW_AT_TI_end_line(0x5e)
	.dwattr $C$DW$50, DW_AT_TI_end_column(0x01)
	.dwendentry
	.dwendtag $C$DW$50

	.sect	".text"
	.align 4

$C$DW$58	.dwtag  DW_TAG_subprogram, DW_AT_name("MSC_HandleStateReset")
	.dwattr $C$DW$58, DW_AT_low_pc(_MSC_HandleStateReset)
	.dwattr $C$DW$58, DW_AT_high_pc(0x00)
	.dwattr $C$DW$58, DW_AT_TI_symbol_name("_MSC_HandleStateReset")
	.dwattr $C$DW$58, DW_AT_type(*$C$DW$T$89)
	.dwattr $C$DW$58, DW_AT_TI_begin_file("F:/eZdsp_DBG/eZDSP_5535_Files/ccsws2/test/c5535_bsl_revc/ezdsp5535_v1/c55xx_csl/inc/csl_mscAux.h")
	.dwattr $C$DW$58, DW_AT_TI_begin_line(0x8c)
	.dwattr $C$DW$58, DW_AT_TI_begin_column(0x0c)
	.dwattr $C$DW$58, DW_AT_TI_max_frame_size(0x06)
	.dwpsn	file "F:/eZdsp_DBG/eZDSP_5535_Files/ccsws2/test/c5535_bsl_revc/ezdsp5535_v1/c55xx_csl/inc/csl_mscAux.h",line 142,column 1,is_stmt,address _MSC_HandleStateReset

	.dwfde $C$DW$CIE, _MSC_HandleStateReset
$C$DW$59	.dwtag  DW_TAG_formal_parameter, DW_AT_name("pMscHandle")
	.dwattr $C$DW$59, DW_AT_TI_symbol_name("_pMscHandle")
	.dwattr $C$DW$59, DW_AT_type(*$C$DW$T$107)
	.dwattr $C$DW$59, DW_AT_location[DW_OP_reg17]
$C$DW$60	.dwtag  DW_TAG_formal_parameter, DW_AT_name("hUsbOutEp")
	.dwattr $C$DW$60, DW_AT_TI_symbol_name("_hUsbOutEp")
	.dwattr $C$DW$60, DW_AT_type(*$C$DW$T$27)
	.dwattr $C$DW$60, DW_AT_location[DW_OP_reg19]
;*******************************************************************************
;* FUNCTION NAME: MSC_HandleStateReset                                         *
;*                                                                             *
;*   Function Uses Regs : T0,T1,AR0,XAR0,AR1,XAR1,AR3,XAR3,SP,M40,SATA,SATD,   *
;*                        RDM,FRCT,SMUL                                        *
;*   Stack Frame        : Compact (No Frame Pointer, w/ debug)                 *
;*   Total Frame Size   : 6 words                                              *
;*                        (1 return address/alignment)                         *
;*                        (5 local values)                                     *
;*   Min System Stack   : 1 word                                               *
;*******************************************************************************
_MSC_HandleStateReset:
	.dwcfi	cfa_offset, 1
	.dwcfi	save_reg_to_mem, 91, -1
        AADD #-5, SP
	.dwcfi	cfa_offset, 6
$C$DW$61	.dwtag  DW_TAG_variable, DW_AT_name("pMscHandle")
	.dwattr $C$DW$61, DW_AT_TI_symbol_name("_pMscHandle")
	.dwattr $C$DW$61, DW_AT_type(*$C$DW$T$107)
	.dwattr $C$DW$61, DW_AT_location[DW_OP_bregx 0x24 0]
$C$DW$62	.dwtag  DW_TAG_variable, DW_AT_name("hUsbOutEp")
	.dwattr $C$DW$62, DW_AT_TI_symbol_name("_hUsbOutEp")
	.dwattr $C$DW$62, DW_AT_type(*$C$DW$T$27)
	.dwattr $C$DW$62, DW_AT_location[DW_OP_bregx 0x24 2]
$C$DW$63	.dwtag  DW_TAG_variable, DW_AT_name("status")
	.dwattr $C$DW$63, DW_AT_TI_symbol_name("_status")
	.dwattr $C$DW$63, DW_AT_type(*$C$DW$T$89)
	.dwattr $C$DW$63, DW_AT_location[DW_OP_bregx 0x24 4]
        MOV XAR1, dbl(*SP(#2))
        MOV XAR0, dbl(*SP(#0))
	.dwpsn	file "F:/eZdsp_DBG/eZDSP_5535_Files/ccsws2/test/c5535_bsl_revc/ezdsp5535_v1/c55xx_csl/inc/csl_mscAux.h",line 145,column 2,is_stmt
        MOV dbl(*SP(#2)), XAR0
$C$DW$64	.dwtag  DW_TAG_TI_branch
	.dwattr $C$DW$64, DW_AT_low_pc(0x00)
	.dwattr $C$DW$64, DW_AT_name("_USB_abortTransaction")
	.dwattr $C$DW$64, DW_AT_TI_call
        CALL #_USB_abortTransaction ; |145| 
                                        ; call occurs [#_USB_abortTransaction] ; |145| 
        MOV T0, *SP(#4) ; |145| 
	.dwpsn	file "F:/eZdsp_DBG/eZDSP_5535_Files/ccsws2/test/c5535_bsl_revc/ezdsp5535_v1/c55xx_csl/inc/csl_mscAux.h",line 146,column 2,is_stmt
        MOV dbl(*SP(#0)), XAR1
        MOV #31, T0 ; |146| 
        MOV dbl(*SP(#2)), XAR0
        AMAR *+AR1(#296) ; |146| 
$C$DW$65	.dwtag  DW_TAG_TI_branch
	.dwattr $C$DW$65, DW_AT_low_pc(0x00)
	.dwattr $C$DW$65, DW_AT_name("_USB_postTransaction")
	.dwattr $C$DW$65, DW_AT_TI_call

        CALL #_USB_postTransaction ; |146| 
||      MOV #0, T1

                                        ; call occurs [#_USB_postTransaction] ; |146| 
        MOV T0, *SP(#4) ; |146| 
	.dwpsn	file "F:/eZdsp_DBG/eZDSP_5535_Files/ccsws2/test/c5535_bsl_revc/ezdsp5535_v1/c55xx_csl/inc/csl_mscAux.h",line 148,column 2,is_stmt
        MOV dbl(*SP(#0)), XAR3
        MOV #1, *AR3(#355) ; |148| 
	.dwpsn	file "F:/eZdsp_DBG/eZDSP_5535_Files/ccsws2/test/c5535_bsl_revc/ezdsp5535_v1/c55xx_csl/inc/csl_mscAux.h",line 150,column 2,is_stmt
        MOV *SP(#4), T0 ; |150| 
	.dwpsn	file "F:/eZdsp_DBG/eZDSP_5535_Files/ccsws2/test/c5535_bsl_revc/ezdsp5535_v1/c55xx_csl/inc/csl_mscAux.h",line 151,column 1,is_stmt
        AADD #5, SP
	.dwcfi	cfa_offset, 1
$C$DW$66	.dwtag  DW_TAG_TI_branch
	.dwattr $C$DW$66, DW_AT_low_pc(0x00)
	.dwattr $C$DW$66, DW_AT_TI_return
        RET
                                        ; return occurs
	.dwattr $C$DW$58, DW_AT_TI_end_file("F:/eZdsp_DBG/eZDSP_5535_Files/ccsws2/test/c5535_bsl_revc/ezdsp5535_v1/c55xx_csl/inc/csl_mscAux.h")
	.dwattr $C$DW$58, DW_AT_TI_end_line(0x97)
	.dwattr $C$DW$58, DW_AT_TI_end_column(0x01)
	.dwendentry
	.dwendtag $C$DW$58

	.sect	".text"
	.align 4

$C$DW$67	.dwtag  DW_TAG_subprogram, DW_AT_name("MSC_HandleStartStopUnit")
	.dwattr $C$DW$67, DW_AT_low_pc(_MSC_HandleStartStopUnit)
	.dwattr $C$DW$67, DW_AT_high_pc(0x00)
	.dwattr $C$DW$67, DW_AT_TI_symbol_name("_MSC_HandleStartStopUnit")
	.dwattr $C$DW$67, DW_AT_type(*$C$DW$T$89)
	.dwattr $C$DW$67, DW_AT_TI_begin_file("F:/eZdsp_DBG/eZDSP_5535_Files/ccsws2/test/c5535_bsl_revc/ezdsp5535_v1/c55xx_csl/inc/csl_mscAux.h")
	.dwattr $C$DW$67, DW_AT_TI_begin_line(0xc7)
	.dwattr $C$DW$67, DW_AT_TI_begin_column(0x0c)
	.dwattr $C$DW$67, DW_AT_TI_max_frame_size(0x0a)
	.dwpsn	file "F:/eZdsp_DBG/eZDSP_5535_Files/ccsws2/test/c5535_bsl_revc/ezdsp5535_v1/c55xx_csl/inc/csl_mscAux.h",line 202,column 1,is_stmt,address _MSC_HandleStartStopUnit

	.dwfde $C$DW$CIE, _MSC_HandleStartStopUnit
$C$DW$68	.dwtag  DW_TAG_formal_parameter, DW_AT_name("pMscHandle")
	.dwattr $C$DW$68, DW_AT_TI_symbol_name("_pMscHandle")
	.dwattr $C$DW$68, DW_AT_type(*$C$DW$T$107)
	.dwattr $C$DW$68, DW_AT_location[DW_OP_reg17]
$C$DW$69	.dwtag  DW_TAG_formal_parameter, DW_AT_name("hUsbInEp")
	.dwattr $C$DW$69, DW_AT_TI_symbol_name("_hUsbInEp")
	.dwattr $C$DW$69, DW_AT_type(*$C$DW$T$27)
	.dwattr $C$DW$69, DW_AT_location[DW_OP_reg19]
$C$DW$70	.dwtag  DW_TAG_formal_parameter, DW_AT_name("lunNum")
	.dwattr $C$DW$70, DW_AT_TI_symbol_name("_lunNum")
	.dwattr $C$DW$70, DW_AT_type(*$C$DW$T$25)
	.dwattr $C$DW$70, DW_AT_location[DW_OP_reg12]
;*******************************************************************************
;* FUNCTION NAME: MSC_HandleStartStopUnit                                      *
;*                                                                             *
;*   Function Uses Regs : AC0,AC0,T0,T1,AR0,XAR0,AR1,XAR1,AR3,XAR3,SP,TC1,M40, *
;*                        SATA,SATD,RDM,FRCT,SMUL                              *
;*   Stack Frame        : Compact (No Frame Pointer, w/ debug)                 *
;*   Total Frame Size   : 10 words                                             *
;*                        (2 return address/alignment)                         *
;*                        (8 local values)                                     *
;*   Min System Stack   : 1 word                                               *
;*******************************************************************************
_MSC_HandleStartStopUnit:
	.dwcfi	cfa_offset, 1
	.dwcfi	save_reg_to_mem, 91, -1
        AADD #-9, SP
	.dwcfi	cfa_offset, 10
$C$DW$71	.dwtag  DW_TAG_variable, DW_AT_name("pMscHandle")
	.dwattr $C$DW$71, DW_AT_TI_symbol_name("_pMscHandle")
	.dwattr $C$DW$71, DW_AT_type(*$C$DW$T$107)
	.dwattr $C$DW$71, DW_AT_location[DW_OP_bregx 0x24 0]
$C$DW$72	.dwtag  DW_TAG_variable, DW_AT_name("hUsbInEp")
	.dwattr $C$DW$72, DW_AT_TI_symbol_name("_hUsbInEp")
	.dwattr $C$DW$72, DW_AT_type(*$C$DW$T$27)
	.dwattr $C$DW$72, DW_AT_location[DW_OP_bregx 0x24 2]
$C$DW$73	.dwtag  DW_TAG_variable, DW_AT_name("lunNum")
	.dwattr $C$DW$73, DW_AT_TI_symbol_name("_lunNum")
	.dwattr $C$DW$73, DW_AT_type(*$C$DW$T$25)
	.dwattr $C$DW$73, DW_AT_location[DW_OP_bregx 0x24 4]
$C$DW$74	.dwtag  DW_TAG_variable, DW_AT_name("mediaEjectStat")
	.dwattr $C$DW$74, DW_AT_TI_symbol_name("_mediaEjectStat")
	.dwattr $C$DW$74, DW_AT_type(*$C$DW$T$52)
	.dwattr $C$DW$74, DW_AT_location[DW_OP_bregx 0x24 5]
$C$DW$75	.dwtag  DW_TAG_variable, DW_AT_name("status")
	.dwattr $C$DW$75, DW_AT_TI_symbol_name("_status")
	.dwattr $C$DW$75, DW_AT_type(*$C$DW$T$89)
	.dwattr $C$DW$75, DW_AT_location[DW_OP_bregx 0x24 6]
$C$DW$76	.dwtag  DW_TAG_variable, DW_AT_name("loadEject")
	.dwattr $C$DW$76, DW_AT_TI_symbol_name("_loadEject")
	.dwattr $C$DW$76, DW_AT_type(*$C$DW$T$25)
	.dwattr $C$DW$76, DW_AT_location[DW_OP_bregx 0x24 7]
        MOV T0, *SP(#4) ; |202| 
        MOV XAR1, dbl(*SP(#2))
        MOV XAR0, dbl(*SP(#0))
	.dwpsn	file "F:/eZdsp_DBG/eZDSP_5535_Files/ccsws2/test/c5535_bsl_revc/ezdsp5535_v1/c55xx_csl/inc/csl_mscAux.h",line 207,column 2,is_stmt
        MOV dbl(*SP(#0)), XAR3
        MOV dbl(*AR3(#16)), AC0 ; |207| 
        BCC $C$L1,AC0 == #0 ; |207| 
                                        ; branchcc occurs ; |207| 
	.dwpsn	file "F:/eZdsp_DBG/eZDSP_5535_Files/ccsws2/test/c5535_bsl_revc/ezdsp5535_v1/c55xx_csl/inc/csl_mscAux.h",line 210,column 3,is_stmt
        MOV #2, *AR3(#355) ; |210| 
	.dwpsn	file "F:/eZdsp_DBG/eZDSP_5535_Files/ccsws2/test/c5535_bsl_revc/ezdsp5535_v1/c55xx_csl/inc/csl_mscAux.h",line 211,column 3,is_stmt
        MOV dbl(*SP(#0)), XAR0
        AMAR *+AR0(#334) ; |211| 
$C$DW$77	.dwtag  DW_TAG_TI_branch
	.dwattr $C$DW$77, DW_AT_low_pc(0x00)
	.dwattr $C$DW$77, DW_AT_name("_USB_stallEndpt")
	.dwattr $C$DW$77, DW_AT_TI_call
        CALL #_USB_stallEndpt ; |211| 
                                        ; call occurs [#_USB_stallEndpt] ; |211| 
        MOV T0, *SP(#6) ; |211| 
	.dwpsn	file "F:/eZdsp_DBG/eZDSP_5535_Files/ccsws2/test/c5535_bsl_revc/ezdsp5535_v1/c55xx_csl/inc/csl_mscAux.h",line 212,column 3,is_stmt
        MOV dbl(*SP(#0)), XAR0
        AMAR *+AR0(#314) ; |212| 
$C$DW$78	.dwtag  DW_TAG_TI_branch
	.dwattr $C$DW$78, DW_AT_low_pc(0x00)
	.dwattr $C$DW$78, DW_AT_name("_USB_stallEndpt")
	.dwattr $C$DW$78, DW_AT_TI_call
        CALL #_USB_stallEndpt ; |212| 
                                        ; call occurs [#_USB_stallEndpt] ; |212| 
        MOV T0, *SP(#6) ; |212| 
	.dwpsn	file "F:/eZdsp_DBG/eZDSP_5535_Files/ccsws2/test/c5535_bsl_revc/ezdsp5535_v1/c55xx_csl/inc/csl_mscAux.h",line 216,column 3,is_stmt
        MOV dbl(*SP(#0)), XAR0
        MOV dbl(*SP(#0)), XAR3
        MOV #32, T1 ; |216| 
        AMAR *+AR0(#314) ; |216| 
        MOV dbl(*AR3(#14)), XAR1
$C$DW$79	.dwtag  DW_TAG_TI_branch
	.dwattr $C$DW$79, DW_AT_low_pc(0x00)
	.dwattr $C$DW$79, DW_AT_name("_USB_postTransaction")
	.dwattr $C$DW$79, DW_AT_TI_call

        CALL #_USB_postTransaction ; |216| 
||      MOV #0, T0

                                        ; call occurs [#_USB_postTransaction] ; |216| 
        OR *SP(#6), T0, AR1 ; |216| 
        MOV AR1, *SP(#6) ; |216| 
	.dwpsn	file "F:/eZdsp_DBG/eZDSP_5535_Files/ccsws2/test/c5535_bsl_revc/ezdsp5535_v1/c55xx_csl/inc/csl_mscAux.h",line 221,column 3,is_stmt
        MOV AR1, T0
        B $C$L6   ; |221| 
                                        ; branch occurs ; |221| 
$C$L1:    
	.dwpsn	file "F:/eZdsp_DBG/eZDSP_5535_Files/ccsws2/test/c5535_bsl_revc/ezdsp5535_v1/c55xx_csl/inc/csl_mscAux.h",line 224,column 5,is_stmt
        MOV uns(high_byte(*AR3(#306))), AR1 ; |224| 
        MOV AR1, *SP(#7) ; |224| 
	.dwpsn	file "F:/eZdsp_DBG/eZDSP_5535_Files/ccsws2/test/c5535_bsl_revc/ezdsp5535_v1/c55xx_csl/inc/csl_mscAux.h",line 225,column 5,is_stmt
        MOV dbl(*SP(#0)), XAR3
        MOV #0, *AR3(#289) ; |225| 
	.dwpsn	file "F:/eZdsp_DBG/eZDSP_5535_Files/ccsws2/test/c5535_bsl_revc/ezdsp5535_v1/c55xx_csl/inc/csl_mscAux.h",line 227,column 5,is_stmt
        MOV dbl(*SP(#0)), XAR3
        MOV #4, *AR3(#355) ; |227| 
	.dwpsn	file "F:/eZdsp_DBG/eZDSP_5535_Files/ccsws2/test/c5535_bsl_revc/ezdsp5535_v1/c55xx_csl/inc/csl_mscAux.h",line 229,column 5,is_stmt
        CMP *SP(#7) == #2, TC1 ; |229| 
        BCC $C$L4,!TC1 ; |229| 
                                        ; branchcc occurs ; |229| 
	.dwpsn	file "F:/eZdsp_DBG/eZDSP_5535_Files/ccsws2/test/c5535_bsl_revc/ezdsp5535_v1/c55xx_csl/inc/csl_mscAux.h",line 231,column 9,is_stmt
        MOV dbl(*SP(#0)), XAR3
        MPYMK *SP(#4), #62, AC0 ; |231| 
        MOV AC0, AR1 ; |231| 
        AADD AR1, AR3 ; |231| 
        BTST #1, *AR3(#75), TC1 ; |231| 
        BCC $C$L2,!TC1 ; |231| 
                                        ; branchcc occurs ; |231| 
	.dwpsn	file "F:/eZdsp_DBG/eZDSP_5535_Files/ccsws2/test/c5535_bsl_revc/ezdsp5535_v1/c55xx_csl/inc/csl_mscAux.h",line 233,column 13,is_stmt
        MOV dbl(*SP(#0)), XAR0
        MOV #595, T1 ; |233| 
        AMAR *+AR0(#266) ; |233| 
$C$DW$80	.dwtag  DW_TAG_TI_branch
	.dwattr $C$DW$80, DW_AT_low_pc(0x00)
	.dwattr $C$DW$80, DW_AT_name("_MSC_SetSenseKeys")
	.dwattr $C$DW$80, DW_AT_TI_call

        CALL #_MSC_SetSenseKeys ; |233| 
||      MOV #6, T0

                                        ; call occurs [#_MSC_SetSenseKeys] ; |233| 
	.dwpsn	file "F:/eZdsp_DBG/eZDSP_5535_Files/ccsws2/test/c5535_bsl_revc/ezdsp5535_v1/c55xx_csl/inc/csl_mscAux.h",line 236,column 13,is_stmt
        MOV dbl(*SP(#0)), XAR3
        MOV #1, *AR3(#289) ; |236| 
	.dwpsn	file "F:/eZdsp_DBG/eZDSP_5535_Files/ccsws2/test/c5535_bsl_revc/ezdsp5535_v1/c55xx_csl/inc/csl_mscAux.h",line 237,column 9,is_stmt
        B $C$L5   ; |237| 
                                        ; branch occurs ; |237| 
$C$L2:    
	.dwpsn	file "F:/eZdsp_DBG/eZDSP_5535_Files/ccsws2/test/c5535_bsl_revc/ezdsp5535_v1/c55xx_csl/inc/csl_mscAux.h",line 240,column 13,is_stmt
        MOV dbl(*SP(#0)), XAR3
        MOV *SP(#4), T0 ; |240| 
        MOV dbl(*AR3(#8)), AC0 ; |240| 
$C$DW$81	.dwtag  DW_TAG_TI_branch
	.dwattr $C$DW$81, DW_AT_low_pc(0x00)
	.dwattr $C$DW$81, DW_AT_TI_call
	.dwattr $C$DW$81, DW_AT_TI_indirect
        CALL AC0  ; |240| 
                                        ; call occurs [AC0] ; |240| 
        MOV T0, *SP(#5) ; |240| 
	.dwpsn	file "F:/eZdsp_DBG/eZDSP_5535_Files/ccsws2/test/c5535_bsl_revc/ezdsp5535_v1/c55xx_csl/inc/csl_mscAux.h",line 241,column 13,is_stmt
        CMP *SP(#5) == #1, TC1 ; |241| 
        BCC $C$L3,!TC1 ; |241| 
                                        ; branchcc occurs ; |241| 
	.dwpsn	file "F:/eZdsp_DBG/eZDSP_5535_Files/ccsws2/test/c5535_bsl_revc/ezdsp5535_v1/c55xx_csl/inc/csl_mscAux.h",line 244,column 17,is_stmt
        MOV dbl(*SP(#0)), XAR3
        MPYMK *SP(#4), #62, AC0 ; |244| 
        MOV AC0, AR1 ; |244| 
        AADD AR1, AR3 ; |244| 
        AADD #18, AR3 ; |244| 
        AND #0xfff6, *AR3(#57) ; |244| 
	.dwpsn	file "F:/eZdsp_DBG/eZDSP_5535_Files/ccsws2/test/c5535_bsl_revc/ezdsp5535_v1/c55xx_csl/inc/csl_mscAux.h",line 245,column 17,is_stmt
        MOV dbl(*SP(#0)), XAR0
        MOV #0, T0
        AMAR *+AR0(#266) ; |245| 
$C$DW$82	.dwtag  DW_TAG_TI_branch
	.dwattr $C$DW$82, DW_AT_low_pc(0x00)
	.dwattr $C$DW$82, DW_AT_name("_MSC_SetSenseKeys")
	.dwattr $C$DW$82, DW_AT_TI_call

        CALL #_MSC_SetSenseKeys ; |245| 
||      MOV #0, T1

                                        ; call occurs [#_MSC_SetSenseKeys] ; |245| 
	.dwpsn	file "F:/eZdsp_DBG/eZDSP_5535_Files/ccsws2/test/c5535_bsl_revc/ezdsp5535_v1/c55xx_csl/inc/csl_mscAux.h",line 248,column 13,is_stmt
        B $C$L5   ; |248| 
                                        ; branch occurs ; |248| 
$C$L3:    
	.dwpsn	file "F:/eZdsp_DBG/eZDSP_5535_Files/ccsws2/test/c5535_bsl_revc/ezdsp5535_v1/c55xx_csl/inc/csl_mscAux.h",line 251,column 17,is_stmt
        MOV dbl(*SP(#0)), XAR3
        MOV #1, *AR3(#289) ; |251| 
	.dwpsn	file "F:/eZdsp_DBG/eZDSP_5535_Files/ccsws2/test/c5535_bsl_revc/ezdsp5535_v1/c55xx_csl/inc/csl_mscAux.h",line 252,column 17,is_stmt
        MOV dbl(*SP(#0)), XAR0
        MOV #32, T1 ; |252| 
        AMAR *+AR0(#266) ; |252| 
$C$DW$83	.dwtag  DW_TAG_TI_branch
	.dwattr $C$DW$83, DW_AT_low_pc(0x00)
	.dwattr $C$DW$83, DW_AT_name("_MSC_SetSenseKeys")
	.dwattr $C$DW$83, DW_AT_TI_call

        CALL #_MSC_SetSenseKeys ; |252| 
||      MOV #5, T0

                                        ; call occurs [#_MSC_SetSenseKeys] ; |252| 
	.dwpsn	file "F:/eZdsp_DBG/eZDSP_5535_Files/ccsws2/test/c5535_bsl_revc/ezdsp5535_v1/c55xx_csl/inc/csl_mscAux.h",line 257,column 5,is_stmt
        B $C$L5   ; |257| 
                                        ; branch occurs ; |257| 
$C$L4:    
	.dwpsn	file "F:/eZdsp_DBG/eZDSP_5535_Files/ccsws2/test/c5535_bsl_revc/ezdsp5535_v1/c55xx_csl/inc/csl_mscAux.h",line 260,column 9,is_stmt
        MOV dbl(*SP(#0)), XAR0
        MOV #0, T0
        AMAR *+AR0(#266) ; |260| 
$C$DW$84	.dwtag  DW_TAG_TI_branch
	.dwattr $C$DW$84, DW_AT_low_pc(0x00)
	.dwattr $C$DW$84, DW_AT_name("_MSC_SetSenseKeys")
	.dwattr $C$DW$84, DW_AT_TI_call

        CALL #_MSC_SetSenseKeys ; |260| 
||      MOV #0, T1

                                        ; call occurs [#_MSC_SetSenseKeys] ; |260| 
	.dwpsn	file "F:/eZdsp_DBG/eZDSP_5535_Files/ccsws2/test/c5535_bsl_revc/ezdsp5535_v1/c55xx_csl/inc/csl_mscAux.h",line 264,column 9,is_stmt
        MPYMK *SP(#4), #62, AC0 ; |264| 
        MOV AC0, AR1 ; |264| 
        MOV dbl(*SP(#0)), XAR3
        AADD AR1, AR3 ; |264| 
        AADD #18, AR3 ; |264| 
        AND #0xfff6, *AR3(#57) ; |264| 
$C$L5:    
	.dwpsn	file "F:/eZdsp_DBG/eZDSP_5535_Files/ccsws2/test/c5535_bsl_revc/ezdsp5535_v1/c55xx_csl/inc/csl_mscAux.h",line 267,column 5,is_stmt
        MOV dbl(*SP(#0)), XAR1
        MOV dbl(*SP(#2)), XAR0
        MOV #13, T0
        AMAR *+AR1(#282) ; |267| 
$C$DW$85	.dwtag  DW_TAG_TI_branch
	.dwattr $C$DW$85, DW_AT_low_pc(0x00)
	.dwattr $C$DW$85, DW_AT_name("_USB_postTransaction")
	.dwattr $C$DW$85, DW_AT_TI_call

        CALL #_USB_postTransaction ; |267| 
||      MOV #0, T1

                                        ; call occurs [#_USB_postTransaction] ; |267| 
        MOV T0, *SP(#6) ; |267| 
	.dwpsn	file "F:/eZdsp_DBG/eZDSP_5535_Files/ccsws2/test/c5535_bsl_revc/ezdsp5535_v1/c55xx_csl/inc/csl_mscAux.h",line 269,column 5,is_stmt
$C$L6:    
	.dwpsn	file "F:/eZdsp_DBG/eZDSP_5535_Files/ccsws2/test/c5535_bsl_revc/ezdsp5535_v1/c55xx_csl/inc/csl_mscAux.h",line 270,column 1,is_stmt
        AADD #9, SP
	.dwcfi	cfa_offset, 1
$C$DW$86	.dwtag  DW_TAG_TI_branch
	.dwattr $C$DW$86, DW_AT_low_pc(0x00)
	.dwattr $C$DW$86, DW_AT_TI_return
        RET
                                        ; return occurs
	.dwattr $C$DW$67, DW_AT_TI_end_file("F:/eZdsp_DBG/eZDSP_5535_Files/ccsws2/test/c5535_bsl_revc/ezdsp5535_v1/c55xx_csl/inc/csl_mscAux.h")
	.dwattr $C$DW$67, DW_AT_TI_end_line(0x10e)
	.dwattr $C$DW$67, DW_AT_TI_end_column(0x01)
	.dwendentry
	.dwendtag $C$DW$67

	.sect	".text"
	.align 4

$C$DW$87	.dwtag  DW_TAG_subprogram, DW_AT_name("MSC_HandleStateSendCSW")
	.dwattr $C$DW$87, DW_AT_low_pc(_MSC_HandleStateSendCSW)
	.dwattr $C$DW$87, DW_AT_high_pc(0x00)
	.dwattr $C$DW$87, DW_AT_TI_symbol_name("_MSC_HandleStateSendCSW")
	.dwattr $C$DW$87, DW_AT_type(*$C$DW$T$89)
	.dwattr $C$DW$87, DW_AT_TI_begin_file("F:/eZdsp_DBG/eZDSP_5535_Files/ccsws2/test/c5535_bsl_revc/ezdsp5535_v1/c55xx_csl/inc/csl_mscAux.h")
	.dwattr $C$DW$87, DW_AT_TI_begin_line(0x13e)
	.dwattr $C$DW$87, DW_AT_TI_begin_column(0x0c)
	.dwattr $C$DW$87, DW_AT_TI_max_frame_size(0x08)
	.dwpsn	file "F:/eZdsp_DBG/eZDSP_5535_Files/ccsws2/test/c5535_bsl_revc/ezdsp5535_v1/c55xx_csl/inc/csl_mscAux.h",line 321,column 1,is_stmt,address _MSC_HandleStateSendCSW

	.dwfde $C$DW$CIE, _MSC_HandleStateSendCSW
$C$DW$88	.dwtag  DW_TAG_formal_parameter, DW_AT_name("pMscHandle")
	.dwattr $C$DW$88, DW_AT_TI_symbol_name("_pMscHandle")
	.dwattr $C$DW$88, DW_AT_type(*$C$DW$T$107)
	.dwattr $C$DW$88, DW_AT_location[DW_OP_reg17]
$C$DW$89	.dwtag  DW_TAG_formal_parameter, DW_AT_name("hUsbOutEp")
	.dwattr $C$DW$89, DW_AT_TI_symbol_name("_hUsbOutEp")
	.dwattr $C$DW$89, DW_AT_type(*$C$DW$T$27)
	.dwattr $C$DW$89, DW_AT_location[DW_OP_reg19]
$C$DW$90	.dwtag  DW_TAG_formal_parameter, DW_AT_name("hUsbInEp")
	.dwattr $C$DW$90, DW_AT_TI_symbol_name("_hUsbInEp")
	.dwattr $C$DW$90, DW_AT_type(*$C$DW$T$27)
	.dwattr $C$DW$90, DW_AT_location[DW_OP_reg21]
;*******************************************************************************
;* FUNCTION NAME: MSC_HandleStateSendCSW                                       *
;*                                                                             *
;*   Function Uses Regs : T0,T1,AR0,XAR0,AR1,XAR1,AR2,XAR2,AR3,XAR3,SP,M40,    *
;*                        SATA,SATD,RDM,FRCT,SMUL                              *
;*   Stack Frame        : Compact (No Frame Pointer, w/ debug)                 *
;*   Total Frame Size   : 8 words                                              *
;*                        (1 return address/alignment)                         *
;*                        (7 local values)                                     *
;*   Min System Stack   : 1 word                                               *
;*******************************************************************************
_MSC_HandleStateSendCSW:
	.dwcfi	cfa_offset, 1
	.dwcfi	save_reg_to_mem, 91, -1
        AADD #-7, SP
	.dwcfi	cfa_offset, 8
$C$DW$91	.dwtag  DW_TAG_variable, DW_AT_name("pMscHandle")
	.dwattr $C$DW$91, DW_AT_TI_symbol_name("_pMscHandle")
	.dwattr $C$DW$91, DW_AT_type(*$C$DW$T$107)
	.dwattr $C$DW$91, DW_AT_location[DW_OP_bregx 0x24 0]
$C$DW$92	.dwtag  DW_TAG_variable, DW_AT_name("hUsbOutEp")
	.dwattr $C$DW$92, DW_AT_TI_symbol_name("_hUsbOutEp")
	.dwattr $C$DW$92, DW_AT_type(*$C$DW$T$27)
	.dwattr $C$DW$92, DW_AT_location[DW_OP_bregx 0x24 2]
$C$DW$93	.dwtag  DW_TAG_variable, DW_AT_name("hUsbInEp")
	.dwattr $C$DW$93, DW_AT_TI_symbol_name("_hUsbInEp")
	.dwattr $C$DW$93, DW_AT_type(*$C$DW$T$27)
	.dwattr $C$DW$93, DW_AT_location[DW_OP_bregx 0x24 4]
$C$DW$94	.dwtag  DW_TAG_variable, DW_AT_name("status")
	.dwattr $C$DW$94, DW_AT_TI_symbol_name("_status")
	.dwattr $C$DW$94, DW_AT_type(*$C$DW$T$89)
	.dwattr $C$DW$94, DW_AT_location[DW_OP_bregx 0x24 6]
        MOV XAR2, dbl(*SP(#4))
        MOV XAR1, dbl(*SP(#2))
        MOV XAR0, dbl(*SP(#0))
	.dwpsn	file "F:/eZdsp_DBG/eZDSP_5535_Files/ccsws2/test/c5535_bsl_revc/ezdsp5535_v1/c55xx_csl/inc/csl_mscAux.h",line 324,column 2,is_stmt
        MOV dbl(*SP(#4)), XAR0
        AMAR *SP(#6), XAR1
$C$DW$95	.dwtag  DW_TAG_TI_branch
	.dwattr $C$DW$95, DW_AT_low_pc(0x00)
	.dwattr $C$DW$95, DW_AT_name("_USB_isTransactionDone")
	.dwattr $C$DW$95, DW_AT_TI_call
        CALL #_USB_isTransactionDone ; |324| 
                                        ; call occurs [#_USB_isTransactionDone] ; |324| 
        BCC $C$L7,T0 == #0 ; |324| 
                                        ; branchcc occurs ; |324| 
	.dwpsn	file "F:/eZdsp_DBG/eZDSP_5535_Files/ccsws2/test/c5535_bsl_revc/ezdsp5535_v1/c55xx_csl/inc/csl_mscAux.h",line 326,column 3,is_stmt
        MOV dbl(*SP(#0)), XAR3
        MOV #0, *AR3(#281) ; |326| 
	.dwpsn	file "F:/eZdsp_DBG/eZDSP_5535_Files/ccsws2/test/c5535_bsl_revc/ezdsp5535_v1/c55xx_csl/inc/csl_mscAux.h",line 327,column 3,is_stmt
        MOV dbl(*SP(#0)), XAR3
        MOV #1, *AR3(#355) ; |327| 
	.dwpsn	file "F:/eZdsp_DBG/eZDSP_5535_Files/ccsws2/test/c5535_bsl_revc/ezdsp5535_v1/c55xx_csl/inc/csl_mscAux.h",line 328,column 3,is_stmt
        MOV dbl(*SP(#0)), XAR1
        MOV #31, T0 ; |328| 
        MOV dbl(*SP(#2)), XAR0
        AMAR *+AR1(#296) ; |328| 
$C$DW$96	.dwtag  DW_TAG_TI_branch
	.dwattr $C$DW$96, DW_AT_low_pc(0x00)
	.dwattr $C$DW$96, DW_AT_name("_USB_postTransaction")
	.dwattr $C$DW$96, DW_AT_TI_call

        CALL #_USB_postTransaction ; |328| 
||      MOV #0, T1

                                        ; call occurs [#_USB_postTransaction] ; |328| 
        OR *SP(#6), T0, AR1 ; |328| 
        MOV AR1, *SP(#6) ; |328| 
$C$L7:    
	.dwpsn	file "F:/eZdsp_DBG/eZDSP_5535_Files/ccsws2/test/c5535_bsl_revc/ezdsp5535_v1/c55xx_csl/inc/csl_mscAux.h",line 332,column 2,is_stmt
        MOV *SP(#6), T0 ; |332| 
	.dwpsn	file "F:/eZdsp_DBG/eZDSP_5535_Files/ccsws2/test/c5535_bsl_revc/ezdsp5535_v1/c55xx_csl/inc/csl_mscAux.h",line 333,column 1,is_stmt
        AADD #7, SP
	.dwcfi	cfa_offset, 1
$C$DW$97	.dwtag  DW_TAG_TI_branch
	.dwattr $C$DW$97, DW_AT_low_pc(0x00)
	.dwattr $C$DW$97, DW_AT_TI_return
        RET
                                        ; return occurs
	.dwattr $C$DW$87, DW_AT_TI_end_file("F:/eZdsp_DBG/eZDSP_5535_Files/ccsws2/test/c5535_bsl_revc/ezdsp5535_v1/c55xx_csl/inc/csl_mscAux.h")
	.dwattr $C$DW$87, DW_AT_TI_end_line(0x14d)
	.dwattr $C$DW$87, DW_AT_TI_end_column(0x01)
	.dwendentry
	.dwendtag $C$DW$87

	.sect	".text"
	.align 4

$C$DW$98	.dwtag  DW_TAG_subprogram, DW_AT_name("MSC_HandleStateSendData")
	.dwattr $C$DW$98, DW_AT_low_pc(_MSC_HandleStateSendData)
	.dwattr $C$DW$98, DW_AT_high_pc(0x00)
	.dwattr $C$DW$98, DW_AT_TI_symbol_name("_MSC_HandleStateSendData")
	.dwattr $C$DW$98, DW_AT_type(*$C$DW$T$89)
	.dwattr $C$DW$98, DW_AT_TI_begin_file("F:/eZdsp_DBG/eZDSP_5535_Files/ccsws2/test/c5535_bsl_revc/ezdsp5535_v1/c55xx_csl/inc/csl_mscAux.h")
	.dwattr $C$DW$98, DW_AT_TI_begin_line(0x17c)
	.dwattr $C$DW$98, DW_AT_TI_begin_column(0x0c)
	.dwattr $C$DW$98, DW_AT_TI_max_frame_size(0x06)
	.dwpsn	file "F:/eZdsp_DBG/eZDSP_5535_Files/ccsws2/test/c5535_bsl_revc/ezdsp5535_v1/c55xx_csl/inc/csl_mscAux.h",line 382,column 1,is_stmt,address _MSC_HandleStateSendData

	.dwfde $C$DW$CIE, _MSC_HandleStateSendData
$C$DW$99	.dwtag  DW_TAG_formal_parameter, DW_AT_name("pMscHandle")
	.dwattr $C$DW$99, DW_AT_TI_symbol_name("_pMscHandle")
	.dwattr $C$DW$99, DW_AT_type(*$C$DW$T$107)
	.dwattr $C$DW$99, DW_AT_location[DW_OP_reg17]
$C$DW$100	.dwtag  DW_TAG_formal_parameter, DW_AT_name("hUsbInEp")
	.dwattr $C$DW$100, DW_AT_TI_symbol_name("_hUsbInEp")
	.dwattr $C$DW$100, DW_AT_type(*$C$DW$T$27)
	.dwattr $C$DW$100, DW_AT_location[DW_OP_reg19]
;*******************************************************************************
;* FUNCTION NAME: MSC_HandleStateSendData                                      *
;*                                                                             *
;*   Function Uses Regs : T0,T1,AR0,XAR0,AR1,XAR1,AR3,XAR3,SP,M40,SATA,SATD,   *
;*                        RDM,FRCT,SMUL                                        *
;*   Stack Frame        : Compact (No Frame Pointer, w/ debug)                 *
;*   Total Frame Size   : 6 words                                              *
;*                        (1 return address/alignment)                         *
;*                        (5 local values)                                     *
;*   Min System Stack   : 1 word                                               *
;*******************************************************************************
_MSC_HandleStateSendData:
	.dwcfi	cfa_offset, 1
	.dwcfi	save_reg_to_mem, 91, -1
        AADD #-5, SP
	.dwcfi	cfa_offset, 6
$C$DW$101	.dwtag  DW_TAG_variable, DW_AT_name("pMscHandle")
	.dwattr $C$DW$101, DW_AT_TI_symbol_name("_pMscHandle")
	.dwattr $C$DW$101, DW_AT_type(*$C$DW$T$107)
	.dwattr $C$DW$101, DW_AT_location[DW_OP_bregx 0x24 0]
$C$DW$102	.dwtag  DW_TAG_variable, DW_AT_name("hUsbInEp")
	.dwattr $C$DW$102, DW_AT_TI_symbol_name("_hUsbInEp")
	.dwattr $C$DW$102, DW_AT_type(*$C$DW$T$27)
	.dwattr $C$DW$102, DW_AT_location[DW_OP_bregx 0x24 2]
$C$DW$103	.dwtag  DW_TAG_variable, DW_AT_name("status")
	.dwattr $C$DW$103, DW_AT_TI_symbol_name("_status")
	.dwattr $C$DW$103, DW_AT_type(*$C$DW$T$89)
	.dwattr $C$DW$103, DW_AT_location[DW_OP_bregx 0x24 4]
        MOV XAR1, dbl(*SP(#2))
        MOV XAR0, dbl(*SP(#0))
	.dwpsn	file "F:/eZdsp_DBG/eZDSP_5535_Files/ccsws2/test/c5535_bsl_revc/ezdsp5535_v1/c55xx_csl/inc/csl_mscAux.h",line 385,column 5,is_stmt
        MOV dbl(*SP(#2)), XAR0
        AMAR *SP(#4), XAR1
$C$DW$104	.dwtag  DW_TAG_TI_branch
	.dwattr $C$DW$104, DW_AT_low_pc(0x00)
	.dwattr $C$DW$104, DW_AT_name("_USB_isTransactionDone")
	.dwattr $C$DW$104, DW_AT_TI_call
        CALL #_USB_isTransactionDone ; |385| 
                                        ; call occurs [#_USB_isTransactionDone] ; |385| 
        BCC $C$L8,T0 == #0 ; |385| 
                                        ; branchcc occurs ; |385| 
	.dwpsn	file "F:/eZdsp_DBG/eZDSP_5535_Files/ccsws2/test/c5535_bsl_revc/ezdsp5535_v1/c55xx_csl/inc/csl_mscAux.h",line 387,column 9,is_stmt
        MOV dbl(*SP(#0)), XAR1
        MOV dbl(*SP(#2)), XAR0
        MOV #13, T0
        AMAR *+AR1(#282) ; |387| 
$C$DW$105	.dwtag  DW_TAG_TI_branch
	.dwattr $C$DW$105, DW_AT_low_pc(0x00)
	.dwattr $C$DW$105, DW_AT_name("_USB_postTransaction")
	.dwattr $C$DW$105, DW_AT_TI_call

        CALL #_USB_postTransaction ; |387| 
||      MOV #0, T1

                                        ; call occurs [#_USB_postTransaction] ; |387| 
        OR *SP(#4), T0, AR1 ; |387| 
        MOV AR1, *SP(#4) ; |387| 
	.dwpsn	file "F:/eZdsp_DBG/eZDSP_5535_Files/ccsws2/test/c5535_bsl_revc/ezdsp5535_v1/c55xx_csl/inc/csl_mscAux.h",line 389,column 9,is_stmt
        MOV dbl(*SP(#0)), XAR3
        MOV #4, *AR3(#355) ; |389| 
$C$L8:    
	.dwpsn	file "F:/eZdsp_DBG/eZDSP_5535_Files/ccsws2/test/c5535_bsl_revc/ezdsp5535_v1/c55xx_csl/inc/csl_mscAux.h",line 392,column 5,is_stmt
        MOV *SP(#4), T0 ; |392| 
	.dwpsn	file "F:/eZdsp_DBG/eZDSP_5535_Files/ccsws2/test/c5535_bsl_revc/ezdsp5535_v1/c55xx_csl/inc/csl_mscAux.h",line 393,column 1,is_stmt
        AADD #5, SP
	.dwcfi	cfa_offset, 1
$C$DW$106	.dwtag  DW_TAG_TI_branch
	.dwattr $C$DW$106, DW_AT_low_pc(0x00)
	.dwattr $C$DW$106, DW_AT_TI_return
        RET
                                        ; return occurs
	.dwattr $C$DW$98, DW_AT_TI_end_file("F:/eZdsp_DBG/eZDSP_5535_Files/ccsws2/test/c5535_bsl_revc/ezdsp5535_v1/c55xx_csl/inc/csl_mscAux.h")
	.dwattr $C$DW$98, DW_AT_TI_end_line(0x189)
	.dwattr $C$DW$98, DW_AT_TI_end_column(0x01)
	.dwendentry
	.dwendtag $C$DW$98

	.sect	".text"
	.align 4

$C$DW$107	.dwtag  DW_TAG_subprogram, DW_AT_name("MSC_HandleStateSendStall")
	.dwattr $C$DW$107, DW_AT_low_pc(_MSC_HandleStateSendStall)
	.dwattr $C$DW$107, DW_AT_high_pc(0x00)
	.dwattr $C$DW$107, DW_AT_TI_symbol_name("_MSC_HandleStateSendStall")
	.dwattr $C$DW$107, DW_AT_type(*$C$DW$T$89)
	.dwattr $C$DW$107, DW_AT_TI_begin_file("F:/eZdsp_DBG/eZDSP_5535_Files/ccsws2/test/c5535_bsl_revc/ezdsp5535_v1/c55xx_csl/inc/csl_mscAux.h")
	.dwattr $C$DW$107, DW_AT_TI_begin_line(0x1b8)
	.dwattr $C$DW$107, DW_AT_TI_begin_column(0x0c)
	.dwattr $C$DW$107, DW_AT_TI_max_frame_size(0x06)
	.dwpsn	file "F:/eZdsp_DBG/eZDSP_5535_Files/ccsws2/test/c5535_bsl_revc/ezdsp5535_v1/c55xx_csl/inc/csl_mscAux.h",line 442,column 1,is_stmt,address _MSC_HandleStateSendStall

	.dwfde $C$DW$CIE, _MSC_HandleStateSendStall
$C$DW$108	.dwtag  DW_TAG_formal_parameter, DW_AT_name("pMscHandle")
	.dwattr $C$DW$108, DW_AT_TI_symbol_name("_pMscHandle")
	.dwattr $C$DW$108, DW_AT_type(*$C$DW$T$107)
	.dwattr $C$DW$108, DW_AT_location[DW_OP_reg17]
$C$DW$109	.dwtag  DW_TAG_formal_parameter, DW_AT_name("hUsbInEp")
	.dwattr $C$DW$109, DW_AT_TI_symbol_name("_hUsbInEp")
	.dwattr $C$DW$109, DW_AT_type(*$C$DW$T$27)
	.dwattr $C$DW$109, DW_AT_location[DW_OP_reg19]
;*******************************************************************************
;* FUNCTION NAME: MSC_HandleStateSendStall                                     *
;*                                                                             *
;*   Function Uses Regs : T0,T1,AR0,XAR0,AR1,XAR1,AR3,XAR3,SP,M40,SATA,SATD,   *
;*                        RDM,FRCT,SMUL                                        *
;*   Stack Frame        : Compact (No Frame Pointer, w/ debug)                 *
;*   Total Frame Size   : 6 words                                              *
;*                        (1 return address/alignment)                         *
;*                        (5 local values)                                     *
;*   Min System Stack   : 1 word                                               *
;*******************************************************************************
_MSC_HandleStateSendStall:
	.dwcfi	cfa_offset, 1
	.dwcfi	save_reg_to_mem, 91, -1
        AADD #-5, SP
	.dwcfi	cfa_offset, 6
$C$DW$110	.dwtag  DW_TAG_variable, DW_AT_name("pMscHandle")
	.dwattr $C$DW$110, DW_AT_TI_symbol_name("_pMscHandle")
	.dwattr $C$DW$110, DW_AT_type(*$C$DW$T$107)
	.dwattr $C$DW$110, DW_AT_location[DW_OP_bregx 0x24 0]
$C$DW$111	.dwtag  DW_TAG_variable, DW_AT_name("hUsbInEp")
	.dwattr $C$DW$111, DW_AT_TI_symbol_name("_hUsbInEp")
	.dwattr $C$DW$111, DW_AT_type(*$C$DW$T$27)
	.dwattr $C$DW$111, DW_AT_location[DW_OP_bregx 0x24 2]
$C$DW$112	.dwtag  DW_TAG_variable, DW_AT_name("status")
	.dwattr $C$DW$112, DW_AT_TI_symbol_name("_status")
	.dwattr $C$DW$112, DW_AT_type(*$C$DW$T$89)
	.dwattr $C$DW$112, DW_AT_location[DW_OP_bregx 0x24 4]
        MOV XAR1, dbl(*SP(#2))
        MOV XAR0, dbl(*SP(#0))
	.dwpsn	file "F:/eZdsp_DBG/eZDSP_5535_Files/ccsws2/test/c5535_bsl_revc/ezdsp5535_v1/c55xx_csl/inc/csl_mscAux.h",line 445,column 5,is_stmt
        MOV dbl(*SP(#2)), XAR0
        AMAR *SP(#4), XAR1
$C$DW$113	.dwtag  DW_TAG_TI_branch
	.dwattr $C$DW$113, DW_AT_low_pc(0x00)
	.dwattr $C$DW$113, DW_AT_name("_USB_isTransactionDone")
	.dwattr $C$DW$113, DW_AT_TI_call
        CALL #_USB_isTransactionDone ; |445| 
                                        ; call occurs [#_USB_isTransactionDone] ; |445| 
        BCC $C$L9,T0 == #0 ; |445| 
                                        ; branchcc occurs ; |445| 
	.dwpsn	file "F:/eZdsp_DBG/eZDSP_5535_Files/ccsws2/test/c5535_bsl_revc/ezdsp5535_v1/c55xx_csl/inc/csl_mscAux.h",line 447,column 9,is_stmt
        MOV dbl(*SP(#0)), XAR1
        MOV dbl(*SP(#2)), XAR0
        MOV #13, T0
        AMAR *+AR1(#282) ; |447| 
$C$DW$114	.dwtag  DW_TAG_TI_branch
	.dwattr $C$DW$114, DW_AT_low_pc(0x00)
	.dwattr $C$DW$114, DW_AT_name("_USB_postTransaction")
	.dwattr $C$DW$114, DW_AT_TI_call

        CALL #_USB_postTransaction ; |447| 
||      MOV #0, T1

                                        ; call occurs [#_USB_postTransaction] ; |447| 
        OR *SP(#4), T0, AR1 ; |447| 
        MOV AR1, *SP(#4) ; |447| 
	.dwpsn	file "F:/eZdsp_DBG/eZDSP_5535_Files/ccsws2/test/c5535_bsl_revc/ezdsp5535_v1/c55xx_csl/inc/csl_mscAux.h",line 449,column 9,is_stmt
        MOV dbl(*SP(#0)), XAR3
        MOV #4, *AR3(#355) ; |449| 
$C$L9:    
	.dwpsn	file "F:/eZdsp_DBG/eZDSP_5535_Files/ccsws2/test/c5535_bsl_revc/ezdsp5535_v1/c55xx_csl/inc/csl_mscAux.h",line 452,column 5,is_stmt
        MOV *SP(#4), T0 ; |452| 
	.dwpsn	file "F:/eZdsp_DBG/eZDSP_5535_Files/ccsws2/test/c5535_bsl_revc/ezdsp5535_v1/c55xx_csl/inc/csl_mscAux.h",line 453,column 1,is_stmt
        AADD #5, SP
	.dwcfi	cfa_offset, 1
$C$DW$115	.dwtag  DW_TAG_TI_branch
	.dwattr $C$DW$115, DW_AT_low_pc(0x00)
	.dwattr $C$DW$115, DW_AT_TI_return
        RET
                                        ; return occurs
	.dwattr $C$DW$107, DW_AT_TI_end_file("F:/eZdsp_DBG/eZDSP_5535_Files/ccsws2/test/c5535_bsl_revc/ezdsp5535_v1/c55xx_csl/inc/csl_mscAux.h")
	.dwattr $C$DW$107, DW_AT_TI_end_line(0x1c5)
	.dwattr $C$DW$107, DW_AT_TI_end_column(0x01)
	.dwendentry
	.dwendtag $C$DW$107

	.sect	".text"
	.align 4

$C$DW$116	.dwtag  DW_TAG_subprogram, DW_AT_name("MSC_HandleStateSendingShortPkt")
	.dwattr $C$DW$116, DW_AT_low_pc(_MSC_HandleStateSendingShortPkt)
	.dwattr $C$DW$116, DW_AT_high_pc(0x00)
	.dwattr $C$DW$116, DW_AT_TI_symbol_name("_MSC_HandleStateSendingShortPkt")
	.dwattr $C$DW$116, DW_AT_type(*$C$DW$T$89)
	.dwattr $C$DW$116, DW_AT_TI_begin_file("F:/eZdsp_DBG/eZDSP_5535_Files/ccsws2/test/c5535_bsl_revc/ezdsp5535_v1/c55xx_csl/inc/csl_mscAux.h")
	.dwattr $C$DW$116, DW_AT_TI_begin_line(0x1f4)
	.dwattr $C$DW$116, DW_AT_TI_begin_column(0x0c)
	.dwattr $C$DW$116, DW_AT_TI_max_frame_size(0x06)
	.dwpsn	file "F:/eZdsp_DBG/eZDSP_5535_Files/ccsws2/test/c5535_bsl_revc/ezdsp5535_v1/c55xx_csl/inc/csl_mscAux.h",line 502,column 1,is_stmt,address _MSC_HandleStateSendingShortPkt

	.dwfde $C$DW$CIE, _MSC_HandleStateSendingShortPkt
$C$DW$117	.dwtag  DW_TAG_formal_parameter, DW_AT_name("pMscHandle")
	.dwattr $C$DW$117, DW_AT_TI_symbol_name("_pMscHandle")
	.dwattr $C$DW$117, DW_AT_type(*$C$DW$T$107)
	.dwattr $C$DW$117, DW_AT_location[DW_OP_reg17]
$C$DW$118	.dwtag  DW_TAG_formal_parameter, DW_AT_name("hUsbInEp")
	.dwattr $C$DW$118, DW_AT_TI_symbol_name("_hUsbInEp")
	.dwattr $C$DW$118, DW_AT_type(*$C$DW$T$27)
	.dwattr $C$DW$118, DW_AT_location[DW_OP_reg19]
;*******************************************************************************
;* FUNCTION NAME: MSC_HandleStateSendingShortPkt                               *
;*                                                                             *
;*   Function Uses Regs : T0,T1,AR0,XAR0,AR1,XAR1,AR3,XAR3,SP,M40,SATA,SATD,   *
;*                        RDM,FRCT,SMUL                                        *
;*   Stack Frame        : Compact (No Frame Pointer, w/ debug)                 *
;*   Total Frame Size   : 6 words                                              *
;*                        (1 return address/alignment)                         *
;*                        (5 local values)                                     *
;*   Min System Stack   : 1 word                                               *
;*******************************************************************************
_MSC_HandleStateSendingShortPkt:
	.dwcfi	cfa_offset, 1
	.dwcfi	save_reg_to_mem, 91, -1
        AADD #-5, SP
	.dwcfi	cfa_offset, 6
$C$DW$119	.dwtag  DW_TAG_variable, DW_AT_name("pMscHandle")
	.dwattr $C$DW$119, DW_AT_TI_symbol_name("_pMscHandle")
	.dwattr $C$DW$119, DW_AT_type(*$C$DW$T$107)
	.dwattr $C$DW$119, DW_AT_location[DW_OP_bregx 0x24 0]
$C$DW$120	.dwtag  DW_TAG_variable, DW_AT_name("hUsbInEp")
	.dwattr $C$DW$120, DW_AT_TI_symbol_name("_hUsbInEp")
	.dwattr $C$DW$120, DW_AT_type(*$C$DW$T$27)
	.dwattr $C$DW$120, DW_AT_location[DW_OP_bregx 0x24 2]
$C$DW$121	.dwtag  DW_TAG_variable, DW_AT_name("status")
	.dwattr $C$DW$121, DW_AT_TI_symbol_name("_status")
	.dwattr $C$DW$121, DW_AT_type(*$C$DW$T$89)
	.dwattr $C$DW$121, DW_AT_location[DW_OP_bregx 0x24 4]
        MOV XAR1, dbl(*SP(#2))
        MOV XAR0, dbl(*SP(#0))
	.dwpsn	file "F:/eZdsp_DBG/eZDSP_5535_Files/ccsws2/test/c5535_bsl_revc/ezdsp5535_v1/c55xx_csl/inc/csl_mscAux.h",line 505,column 2,is_stmt
        MOV dbl(*SP(#0)), XAR3
        MOV #2, *AR3(#355) ; |505| 
	.dwpsn	file "F:/eZdsp_DBG/eZDSP_5535_Files/ccsws2/test/c5535_bsl_revc/ezdsp5535_v1/c55xx_csl/inc/csl_mscAux.h",line 507,column 2,is_stmt
        MOV dbl(*SP(#2)), XAR0
$C$DW$122	.dwtag  DW_TAG_TI_branch
	.dwattr $C$DW$122, DW_AT_low_pc(0x00)
	.dwattr $C$DW$122, DW_AT_name("_USB_stallEndpt")
	.dwattr $C$DW$122, DW_AT_TI_call
        CALL #_USB_stallEndpt ; |507| 
                                        ; call occurs [#_USB_stallEndpt] ; |507| 
        MOV T0, *SP(#4) ; |507| 
	.dwpsn	file "F:/eZdsp_DBG/eZDSP_5535_Files/ccsws2/test/c5535_bsl_revc/ezdsp5535_v1/c55xx_csl/inc/csl_mscAux.h",line 510,column 2,is_stmt
        MOV dbl(*SP(#0)), XAR1
        MOV #32, T1 ; |510| 
        MOV dbl(*SP(#2)), XAR0
        AMAR *+AR1(#282) ; |510| 
$C$DW$123	.dwtag  DW_TAG_TI_branch
	.dwattr $C$DW$123, DW_AT_low_pc(0x00)
	.dwattr $C$DW$123, DW_AT_name("_USB_postTransaction")
	.dwattr $C$DW$123, DW_AT_TI_call

        CALL #_USB_postTransaction ; |510| 
||      MOV #0, T0

                                        ; call occurs [#_USB_postTransaction] ; |510| 
        OR *SP(#4), T0, AR1 ; |510| 
        MOV AR1, *SP(#4) ; |510| 
	.dwpsn	file "F:/eZdsp_DBG/eZDSP_5535_Files/ccsws2/test/c5535_bsl_revc/ezdsp5535_v1/c55xx_csl/inc/csl_mscAux.h",line 514,column 2,is_stmt
        MOV AR1, T0
	.dwpsn	file "F:/eZdsp_DBG/eZDSP_5535_Files/ccsws2/test/c5535_bsl_revc/ezdsp5535_v1/c55xx_csl/inc/csl_mscAux.h",line 515,column 1,is_stmt
        AADD #5, SP
	.dwcfi	cfa_offset, 1
$C$DW$124	.dwtag  DW_TAG_TI_branch
	.dwattr $C$DW$124, DW_AT_low_pc(0x00)
	.dwattr $C$DW$124, DW_AT_TI_return
        RET
                                        ; return occurs
	.dwattr $C$DW$116, DW_AT_TI_end_file("F:/eZdsp_DBG/eZDSP_5535_Files/ccsws2/test/c5535_bsl_revc/ezdsp5535_v1/c55xx_csl/inc/csl_mscAux.h")
	.dwattr $C$DW$116, DW_AT_TI_end_line(0x203)
	.dwattr $C$DW$116, DW_AT_TI_end_column(0x01)
	.dwendentry
	.dwendtag $C$DW$116

	.sect	".text"
	.align 4

$C$DW$125	.dwtag  DW_TAG_subprogram, DW_AT_name("MSC_HandleModeSense6")
	.dwattr $C$DW$125, DW_AT_low_pc(_MSC_HandleModeSense6)
	.dwattr $C$DW$125, DW_AT_high_pc(0x00)
	.dwattr $C$DW$125, DW_AT_TI_symbol_name("_MSC_HandleModeSense6")
	.dwattr $C$DW$125, DW_AT_type(*$C$DW$T$89)
	.dwattr $C$DW$125, DW_AT_TI_begin_file("F:/eZdsp_DBG/eZDSP_5535_Files/ccsws2/test/c5535_bsl_revc/ezdsp5535_v1/c55xx_csl/inc/csl_mscAux.h")
	.dwattr $C$DW$125, DW_AT_TI_begin_line(0x233)
	.dwattr $C$DW$125, DW_AT_TI_begin_column(0x0c)
	.dwattr $C$DW$125, DW_AT_TI_max_frame_size(0x0a)
	.dwpsn	file "F:/eZdsp_DBG/eZDSP_5535_Files/ccsws2/test/c5535_bsl_revc/ezdsp5535_v1/c55xx_csl/inc/csl_mscAux.h",line 566,column 1,is_stmt,address _MSC_HandleModeSense6

	.dwfde $C$DW$CIE, _MSC_HandleModeSense6
$C$DW$126	.dwtag  DW_TAG_formal_parameter, DW_AT_name("pMscHandle")
	.dwattr $C$DW$126, DW_AT_TI_symbol_name("_pMscHandle")
	.dwattr $C$DW$126, DW_AT_type(*$C$DW$T$107)
	.dwattr $C$DW$126, DW_AT_location[DW_OP_reg17]
$C$DW$127	.dwtag  DW_TAG_formal_parameter, DW_AT_name("hUsbInEp")
	.dwattr $C$DW$127, DW_AT_TI_symbol_name("_hUsbInEp")
	.dwattr $C$DW$127, DW_AT_type(*$C$DW$T$27)
	.dwattr $C$DW$127, DW_AT_location[DW_OP_reg19]
$C$DW$128	.dwtag  DW_TAG_formal_parameter, DW_AT_name("logicalUnit")
	.dwattr $C$DW$128, DW_AT_TI_symbol_name("_logicalUnit")
	.dwattr $C$DW$128, DW_AT_type(*$C$DW$T$25)
	.dwattr $C$DW$128, DW_AT_location[DW_OP_reg12]
;*******************************************************************************
;* FUNCTION NAME: MSC_HandleModeSense6                                         *
;*                                                                             *
;*   Function Uses Regs : AC0,AC0,AC1,AC1,T0,T1,AR0,XAR0,AR1,XAR1,AR2,AR3,XAR3,*
;*                        SP,CARRY,TC1,M40,SATA,SATD,RDM,FRCT,SMUL             *
;*   Stack Frame        : Compact (No Frame Pointer, w/ debug)                 *
;*   Total Frame Size   : 10 words                                             *
;*                        (2 return address/alignment)                         *
;*                        (8 local values)                                     *
;*   Min System Stack   : 1 word                                               *
;*******************************************************************************
_MSC_HandleModeSense6:
	.dwcfi	cfa_offset, 1
	.dwcfi	save_reg_to_mem, 91, -1
        AADD #-9, SP
	.dwcfi	cfa_offset, 10
$C$DW$129	.dwtag  DW_TAG_variable, DW_AT_name("pMscHandle")
	.dwattr $C$DW$129, DW_AT_TI_symbol_name("_pMscHandle")
	.dwattr $C$DW$129, DW_AT_type(*$C$DW$T$107)
	.dwattr $C$DW$129, DW_AT_location[DW_OP_bregx 0x24 0]
$C$DW$130	.dwtag  DW_TAG_variable, DW_AT_name("hUsbInEp")
	.dwattr $C$DW$130, DW_AT_TI_symbol_name("_hUsbInEp")
	.dwattr $C$DW$130, DW_AT_type(*$C$DW$T$27)
	.dwattr $C$DW$130, DW_AT_location[DW_OP_bregx 0x24 2]
$C$DW$131	.dwtag  DW_TAG_variable, DW_AT_name("logicalUnit")
	.dwattr $C$DW$131, DW_AT_TI_symbol_name("_logicalUnit")
	.dwattr $C$DW$131, DW_AT_type(*$C$DW$T$25)
	.dwattr $C$DW$131, DW_AT_location[DW_OP_bregx 0x24 4]
$C$DW$132	.dwtag  DW_TAG_variable, DW_AT_name("status")
	.dwattr $C$DW$132, DW_AT_TI_symbol_name("_status")
	.dwattr $C$DW$132, DW_AT_type(*$C$DW$T$89)
	.dwattr $C$DW$132, DW_AT_location[DW_OP_bregx 0x24 5]
$C$DW$133	.dwtag  DW_TAG_variable, DW_AT_name("modeSenseLen")
	.dwattr $C$DW$133, DW_AT_TI_symbol_name("_modeSenseLen")
	.dwattr $C$DW$133, DW_AT_type(*$C$DW$T$25)
	.dwattr $C$DW$133, DW_AT_location[DW_OP_bregx 0x24 6]
$C$DW$134	.dwtag  DW_TAG_variable, DW_AT_name("smallerLen")
	.dwattr $C$DW$134, DW_AT_TI_symbol_name("_smallerLen")
	.dwattr $C$DW$134, DW_AT_type(*$C$DW$T$25)
	.dwattr $C$DW$134, DW_AT_location[DW_OP_bregx 0x24 7]
        MOV T0, *SP(#4) ; |566| 
        MOV XAR1, dbl(*SP(#2))
        MOV XAR0, dbl(*SP(#0))
	.dwpsn	file "F:/eZdsp_DBG/eZDSP_5535_Files/ccsws2/test/c5535_bsl_revc/ezdsp5535_v1/c55xx_csl/inc/csl_mscAux.h",line 572,column 2,is_stmt
        MOV dbl(*SP(#0)), XAR3
        MOV *AR3(#303), AR1 ; |572| 

        AND #0x0080, AR1, AR1 ; |572| 
||      MOV #128, AR2 ; |572| 

        CMPU AR1 == AR2, TC1 ; |572| 
        BCC $C$L10,TC1 ; |572| 
                                        ; branchcc occurs ; |572| 
        MOV dbl(*AR3(#16)), AC0 ; |572| 
        BCC $C$L10,AC0 == #0 ; |572| 
                                        ; branchcc occurs ; |572| 
	.dwpsn	file "F:/eZdsp_DBG/eZDSP_5535_Files/ccsws2/test/c5535_bsl_revc/ezdsp5535_v1/c55xx_csl/inc/csl_mscAux.h",line 576,column 3,is_stmt
        MOV #2, *AR3(#289) ; |576| 
	.dwpsn	file "F:/eZdsp_DBG/eZDSP_5535_Files/ccsws2/test/c5535_bsl_revc/ezdsp5535_v1/c55xx_csl/inc/csl_mscAux.h",line 579,column 3,is_stmt
        MOV dbl(*SP(#0)), XAR3
        MOV #2, *AR3(#355) ; |579| 
	.dwpsn	file "F:/eZdsp_DBG/eZDSP_5535_Files/ccsws2/test/c5535_bsl_revc/ezdsp5535_v1/c55xx_csl/inc/csl_mscAux.h",line 580,column 3,is_stmt
        MOV dbl(*SP(#0)), XAR0
        AMAR *+AR0(#314) ; |580| 
$C$DW$135	.dwtag  DW_TAG_TI_branch
	.dwattr $C$DW$135, DW_AT_low_pc(0x00)
	.dwattr $C$DW$135, DW_AT_name("_USB_stallEndpt")
	.dwattr $C$DW$135, DW_AT_TI_call
        CALL #_USB_stallEndpt ; |580| 
                                        ; call occurs [#_USB_stallEndpt] ; |580| 
        MOV T0, *SP(#5) ; |580| 
	.dwpsn	file "F:/eZdsp_DBG/eZDSP_5535_Files/ccsws2/test/c5535_bsl_revc/ezdsp5535_v1/c55xx_csl/inc/csl_mscAux.h",line 581,column 3,is_stmt
        MOV dbl(*SP(#0)), XAR0
        AMAR *+AR0(#334) ; |581| 
$C$DW$136	.dwtag  DW_TAG_TI_branch
	.dwattr $C$DW$136, DW_AT_low_pc(0x00)
	.dwattr $C$DW$136, DW_AT_name("_USB_stallEndpt")
	.dwattr $C$DW$136, DW_AT_TI_call
        CALL #_USB_stallEndpt ; |581| 
                                        ; call occurs [#_USB_stallEndpt] ; |581| 
        MOV T0, *SP(#5) ; |581| 
	.dwpsn	file "F:/eZdsp_DBG/eZDSP_5535_Files/ccsws2/test/c5535_bsl_revc/ezdsp5535_v1/c55xx_csl/inc/csl_mscAux.h",line 584,column 3,is_stmt
        MOV dbl(*SP(#0)), XAR0
        MOV dbl(*SP(#0)), XAR3
        MOV #32, T1 ; |584| 
        AMAR *+AR0(#314) ; |584| 
        MOV dbl(*AR3(#14)), XAR1
$C$DW$137	.dwtag  DW_TAG_TI_branch
	.dwattr $C$DW$137, DW_AT_low_pc(0x00)
	.dwattr $C$DW$137, DW_AT_name("_USB_postTransaction")
	.dwattr $C$DW$137, DW_AT_TI_call

        CALL #_USB_postTransaction ; |584| 
||      MOV #0, T0

                                        ; call occurs [#_USB_postTransaction] ; |584| 
        MOV T0, *SP(#5) ; |584| 
	.dwpsn	file "F:/eZdsp_DBG/eZDSP_5535_Files/ccsws2/test/c5535_bsl_revc/ezdsp5535_v1/c55xx_csl/inc/csl_mscAux.h",line 588,column 3,is_stmt
        B $C$L15  ; |588| 
                                        ; branch occurs ; |588| 
$C$L10:    
	.dwpsn	file "F:/eZdsp_DBG/eZDSP_5535_Files/ccsws2/test/c5535_bsl_revc/ezdsp5535_v1/c55xx_csl/inc/csl_mscAux.h",line 591,column 2,is_stmt
        MOV dbl(*AR3(#16)), AC0 ; |591| 
        BCC $C$L13,AC0 == #0 ; |591| 
                                        ; branchcc occurs ; |591| 
	.dwpsn	file "F:/eZdsp_DBG/eZDSP_5535_Files/ccsws2/test/c5535_bsl_revc/ezdsp5535_v1/c55xx_csl/inc/csl_mscAux.h",line 593,column 3,is_stmt
        MOV *AR3(#356), AR1 ; |593| 
        MOV AR1, *SP(#6) ; |593| 
	.dwpsn	file "F:/eZdsp_DBG/eZDSP_5535_Files/ccsws2/test/c5535_bsl_revc/ezdsp5535_v1/c55xx_csl/inc/csl_mscAux.h",line 596,column 3,is_stmt
        MOV dbl(*SP(#0)), XAR3
        MOV uns(*SP(#6)), AC1 ; |596| 
        MOV dbl(*AR3(#16)), AC0 ; |596| 
        CMPU AC1 >= AC0, TC1 ; |596| 
        BCC $C$L11,TC1 ; |596| 
                                        ; branchcc occurs ; |596| 
	.dwpsn	file "F:/eZdsp_DBG/eZDSP_5535_Files/ccsws2/test/c5535_bsl_revc/ezdsp5535_v1/c55xx_csl/inc/csl_mscAux.h",line 598,column 4,is_stmt
        MOV AR1, *SP(#7) ; |598| 
	.dwpsn	file "F:/eZdsp_DBG/eZDSP_5535_Files/ccsws2/test/c5535_bsl_revc/ezdsp5535_v1/c55xx_csl/inc/csl_mscAux.h",line 599,column 3,is_stmt
        B $C$L12  ; |599| 
                                        ; branch occurs ; |599| 
$C$L11:    
	.dwpsn	file "F:/eZdsp_DBG/eZDSP_5535_Files/ccsws2/test/c5535_bsl_revc/ezdsp5535_v1/c55xx_csl/inc/csl_mscAux.h",line 602,column 4,is_stmt
        MOV dbl(*AR3(#16)), AC0 ; |602| 
        AND #0xffff, AC0, AC0 ; |602| 
        MOV AC0, *SP(#7) ; |602| 
$C$L12:    
	.dwpsn	file "F:/eZdsp_DBG/eZDSP_5535_Files/ccsws2/test/c5535_bsl_revc/ezdsp5535_v1/c55xx_csl/inc/csl_mscAux.h",line 607,column 3,is_stmt
        MOV dbl(*SP(#0)), XAR3
        MOV uns(*SP(#7)), AC0 ; |607| 
        SUB AC0, dbl(*AR3(#16)), AC0 ; |607| 
        MOV AC0, dbl(*AR3(#16)) ; |607| 
	.dwpsn	file "F:/eZdsp_DBG/eZDSP_5535_Files/ccsws2/test/c5535_bsl_revc/ezdsp5535_v1/c55xx_csl/inc/csl_mscAux.h",line 608,column 3,is_stmt
        MOV dbl(*SP(#0)), XAR3
        MOV dbl(*AR3(#16)), AC0 ; |608| 
        AND #0xffff, AC0, AC0 ; |608| 
        MOV AC0, *AR3(#287) ; |608| 
	.dwpsn	file "F:/eZdsp_DBG/eZDSP_5535_Files/ccsws2/test/c5535_bsl_revc/ezdsp5535_v1/c55xx_csl/inc/csl_mscAux.h",line 610,column 3,is_stmt
        MOV dbl(*SP(#0)), XAR3
        MOV dbl(*AR3(#16)), AC0 ; |610| 
        MOV HI(AC0), *AR3(#288) ; |610| 
	.dwpsn	file "F:/eZdsp_DBG/eZDSP_5535_Files/ccsws2/test/c5535_bsl_revc/ezdsp5535_v1/c55xx_csl/inc/csl_mscAux.h",line 612,column 3,is_stmt
        MOV dbl(*SP(#0)), XAR3
        MOV #0, *AR3(#289) ; |612| 
	.dwpsn	file "F:/eZdsp_DBG/eZDSP_5535_Files/ccsws2/test/c5535_bsl_revc/ezdsp5535_v1/c55xx_csl/inc/csl_mscAux.h",line 613,column 3,is_stmt
        MOV dbl(*SP(#0)), XAR1
        MOV dbl(*SP(#2)), XAR0
        MOV *SP(#7), T0 ; |613| 
        AMAR *+AR1(#357) ; |613| 
$C$DW$138	.dwtag  DW_TAG_TI_branch
	.dwattr $C$DW$138, DW_AT_low_pc(0x00)
	.dwattr $C$DW$138, DW_AT_name("_USB_postTransaction")
	.dwattr $C$DW$138, DW_AT_TI_call

        CALL #_USB_postTransaction ; |613| 
||      MOV #1, T1

                                        ; call occurs [#_USB_postTransaction] ; |613| 
        MOV T0, *SP(#5) ; |613| 
	.dwpsn	file "F:/eZdsp_DBG/eZDSP_5535_Files/ccsws2/test/c5535_bsl_revc/ezdsp5535_v1/c55xx_csl/inc/csl_mscAux.h",line 617,column 3,is_stmt
        MOV dbl(*SP(#0)), XAR3
        MOV #3, *AR3(#355) ; |617| 
	.dwpsn	file "F:/eZdsp_DBG/eZDSP_5535_Files/ccsws2/test/c5535_bsl_revc/ezdsp5535_v1/c55xx_csl/inc/csl_mscAux.h",line 618,column 2,is_stmt
        B $C$L14  ; |618| 
                                        ; branch occurs ; |618| 
$C$L13:    
	.dwpsn	file "F:/eZdsp_DBG/eZDSP_5535_Files/ccsws2/test/c5535_bsl_revc/ezdsp5535_v1/c55xx_csl/inc/csl_mscAux.h",line 621,column 3,is_stmt
        MOV dbl(*SP(#2)), XAR1
$C$DW$139	.dwtag  DW_TAG_TI_branch
	.dwattr $C$DW$139, DW_AT_low_pc(0x00)
	.dwattr $C$DW$139, DW_AT_name("_MSC_sendCswWithPhaseError")
	.dwattr $C$DW$139, DW_AT_TI_call
        CALL #_MSC_sendCswWithPhaseError ; |621| 
                                        ; call occurs [#_MSC_sendCswWithPhaseError] ; |621| 
        MOV T0, *SP(#5) ; |621| 
$C$L14:    
	.dwpsn	file "F:/eZdsp_DBG/eZDSP_5535_Files/ccsws2/test/c5535_bsl_revc/ezdsp5535_v1/c55xx_csl/inc/csl_mscAux.h",line 624,column 2,is_stmt
        MOV *SP(#5), T0 ; |624| 
$C$L15:    
	.dwpsn	file "F:/eZdsp_DBG/eZDSP_5535_Files/ccsws2/test/c5535_bsl_revc/ezdsp5535_v1/c55xx_csl/inc/csl_mscAux.h",line 625,column 1,is_stmt
        AADD #9, SP
	.dwcfi	cfa_offset, 1
$C$DW$140	.dwtag  DW_TAG_TI_branch
	.dwattr $C$DW$140, DW_AT_low_pc(0x00)
	.dwattr $C$DW$140, DW_AT_TI_return
        RET
                                        ; return occurs
	.dwattr $C$DW$125, DW_AT_TI_end_file("F:/eZdsp_DBG/eZDSP_5535_Files/ccsws2/test/c5535_bsl_revc/ezdsp5535_v1/c55xx_csl/inc/csl_mscAux.h")
	.dwattr $C$DW$125, DW_AT_TI_end_line(0x271)
	.dwattr $C$DW$125, DW_AT_TI_end_column(0x01)
	.dwendentry
	.dwendtag $C$DW$125

	.sect	".text"
	.align 4

$C$DW$141	.dwtag  DW_TAG_subprogram, DW_AT_name("MSC_HandleModeSense10")
	.dwattr $C$DW$141, DW_AT_low_pc(_MSC_HandleModeSense10)
	.dwattr $C$DW$141, DW_AT_high_pc(0x00)
	.dwattr $C$DW$141, DW_AT_TI_symbol_name("_MSC_HandleModeSense10")
	.dwattr $C$DW$141, DW_AT_type(*$C$DW$T$89)
	.dwattr $C$DW$141, DW_AT_TI_begin_file("F:/eZdsp_DBG/eZDSP_5535_Files/ccsws2/test/c5535_bsl_revc/ezdsp5535_v1/c55xx_csl/inc/csl_mscAux.h")
	.dwattr $C$DW$141, DW_AT_TI_begin_line(0x2a1)
	.dwattr $C$DW$141, DW_AT_TI_begin_column(0x0c)
	.dwattr $C$DW$141, DW_AT_TI_max_frame_size(0x0a)
	.dwpsn	file "F:/eZdsp_DBG/eZDSP_5535_Files/ccsws2/test/c5535_bsl_revc/ezdsp5535_v1/c55xx_csl/inc/csl_mscAux.h",line 676,column 1,is_stmt,address _MSC_HandleModeSense10

	.dwfde $C$DW$CIE, _MSC_HandleModeSense10
$C$DW$142	.dwtag  DW_TAG_formal_parameter, DW_AT_name("pMscHandle")
	.dwattr $C$DW$142, DW_AT_TI_symbol_name("_pMscHandle")
	.dwattr $C$DW$142, DW_AT_type(*$C$DW$T$107)
	.dwattr $C$DW$142, DW_AT_location[DW_OP_reg17]
$C$DW$143	.dwtag  DW_TAG_formal_parameter, DW_AT_name("hUsbInEp")
	.dwattr $C$DW$143, DW_AT_TI_symbol_name("_hUsbInEp")
	.dwattr $C$DW$143, DW_AT_type(*$C$DW$T$27)
	.dwattr $C$DW$143, DW_AT_location[DW_OP_reg19]
$C$DW$144	.dwtag  DW_TAG_formal_parameter, DW_AT_name("logicalUnit")
	.dwattr $C$DW$144, DW_AT_TI_symbol_name("_logicalUnit")
	.dwattr $C$DW$144, DW_AT_type(*$C$DW$T$25)
	.dwattr $C$DW$144, DW_AT_location[DW_OP_reg12]
;*******************************************************************************
;* FUNCTION NAME: MSC_HandleModeSense10                                        *
;*                                                                             *
;*   Function Uses Regs : AC0,AC0,AC1,AC1,T0,T1,AR0,XAR0,AR1,XAR1,AR2,AR3,XAR3,*
;*                        SP,CARRY,TC1,M40,SATA,SATD,RDM,FRCT,SMUL             *
;*   Stack Frame        : Compact (No Frame Pointer, w/ debug)                 *
;*   Total Frame Size   : 10 words                                             *
;*                        (2 return address/alignment)                         *
;*                        (8 local values)                                     *
;*   Min System Stack   : 1 word                                               *
;*******************************************************************************
_MSC_HandleModeSense10:
	.dwcfi	cfa_offset, 1
	.dwcfi	save_reg_to_mem, 91, -1
        AADD #-9, SP
	.dwcfi	cfa_offset, 10
$C$DW$145	.dwtag  DW_TAG_variable, DW_AT_name("pMscHandle")
	.dwattr $C$DW$145, DW_AT_TI_symbol_name("_pMscHandle")
	.dwattr $C$DW$145, DW_AT_type(*$C$DW$T$107)
	.dwattr $C$DW$145, DW_AT_location[DW_OP_bregx 0x24 0]
$C$DW$146	.dwtag  DW_TAG_variable, DW_AT_name("hUsbInEp")
	.dwattr $C$DW$146, DW_AT_TI_symbol_name("_hUsbInEp")
	.dwattr $C$DW$146, DW_AT_type(*$C$DW$T$27)
	.dwattr $C$DW$146, DW_AT_location[DW_OP_bregx 0x24 2]
$C$DW$147	.dwtag  DW_TAG_variable, DW_AT_name("logicalUnit")
	.dwattr $C$DW$147, DW_AT_TI_symbol_name("_logicalUnit")
	.dwattr $C$DW$147, DW_AT_type(*$C$DW$T$25)
	.dwattr $C$DW$147, DW_AT_location[DW_OP_bregx 0x24 4]
$C$DW$148	.dwtag  DW_TAG_variable, DW_AT_name("status")
	.dwattr $C$DW$148, DW_AT_TI_symbol_name("_status")
	.dwattr $C$DW$148, DW_AT_type(*$C$DW$T$89)
	.dwattr $C$DW$148, DW_AT_location[DW_OP_bregx 0x24 5]
$C$DW$149	.dwtag  DW_TAG_variable, DW_AT_name("modeSenseLen")
	.dwattr $C$DW$149, DW_AT_TI_symbol_name("_modeSenseLen")
	.dwattr $C$DW$149, DW_AT_type(*$C$DW$T$25)
	.dwattr $C$DW$149, DW_AT_location[DW_OP_bregx 0x24 6]
$C$DW$150	.dwtag  DW_TAG_variable, DW_AT_name("smallerLen")
	.dwattr $C$DW$150, DW_AT_TI_symbol_name("_smallerLen")
	.dwattr $C$DW$150, DW_AT_type(*$C$DW$T$25)
	.dwattr $C$DW$150, DW_AT_location[DW_OP_bregx 0x24 7]
        MOV T0, *SP(#4) ; |676| 
        MOV XAR1, dbl(*SP(#2))
        MOV XAR0, dbl(*SP(#0))
	.dwpsn	file "F:/eZdsp_DBG/eZDSP_5535_Files/ccsws2/test/c5535_bsl_revc/ezdsp5535_v1/c55xx_csl/inc/csl_mscAux.h",line 682,column 2,is_stmt
        MOV dbl(*SP(#0)), XAR3
        MOV *AR3(#303), AR1 ; |682| 

        AND #0x0080, AR1, AR1 ; |682| 
||      MOV #128, AR2 ; |682| 

        CMPU AR1 == AR2, TC1 ; |682| 
        BCC $C$L16,TC1 ; |682| 
                                        ; branchcc occurs ; |682| 
        MOV dbl(*AR3(#16)), AC0 ; |682| 
        BCC $C$L16,AC0 == #0 ; |682| 
                                        ; branchcc occurs ; |682| 
	.dwpsn	file "F:/eZdsp_DBG/eZDSP_5535_Files/ccsws2/test/c5535_bsl_revc/ezdsp5535_v1/c55xx_csl/inc/csl_mscAux.h",line 686,column 3,is_stmt
        MOV #2, *AR3(#289) ; |686| 
	.dwpsn	file "F:/eZdsp_DBG/eZDSP_5535_Files/ccsws2/test/c5535_bsl_revc/ezdsp5535_v1/c55xx_csl/inc/csl_mscAux.h",line 689,column 3,is_stmt
        MOV dbl(*SP(#0)), XAR3
        MOV #2, *AR3(#355) ; |689| 
	.dwpsn	file "F:/eZdsp_DBG/eZDSP_5535_Files/ccsws2/test/c5535_bsl_revc/ezdsp5535_v1/c55xx_csl/inc/csl_mscAux.h",line 690,column 3,is_stmt
        MOV dbl(*SP(#0)), XAR0
        AMAR *+AR0(#314) ; |690| 
$C$DW$151	.dwtag  DW_TAG_TI_branch
	.dwattr $C$DW$151, DW_AT_low_pc(0x00)
	.dwattr $C$DW$151, DW_AT_name("_USB_stallEndpt")
	.dwattr $C$DW$151, DW_AT_TI_call
        CALL #_USB_stallEndpt ; |690| 
                                        ; call occurs [#_USB_stallEndpt] ; |690| 
        MOV T0, *SP(#5) ; |690| 
	.dwpsn	file "F:/eZdsp_DBG/eZDSP_5535_Files/ccsws2/test/c5535_bsl_revc/ezdsp5535_v1/c55xx_csl/inc/csl_mscAux.h",line 691,column 3,is_stmt
        MOV dbl(*SP(#0)), XAR0
        AMAR *+AR0(#334) ; |691| 
$C$DW$152	.dwtag  DW_TAG_TI_branch
	.dwattr $C$DW$152, DW_AT_low_pc(0x00)
	.dwattr $C$DW$152, DW_AT_name("_USB_stallEndpt")
	.dwattr $C$DW$152, DW_AT_TI_call
        CALL #_USB_stallEndpt ; |691| 
                                        ; call occurs [#_USB_stallEndpt] ; |691| 
        MOV T0, *SP(#5) ; |691| 
	.dwpsn	file "F:/eZdsp_DBG/eZDSP_5535_Files/ccsws2/test/c5535_bsl_revc/ezdsp5535_v1/c55xx_csl/inc/csl_mscAux.h",line 694,column 3,is_stmt
        MOV dbl(*SP(#0)), XAR0
        MOV dbl(*SP(#0)), XAR3
        MOV #32, T1 ; |694| 
        AMAR *+AR0(#314) ; |694| 
        MOV dbl(*AR3(#14)), XAR1
$C$DW$153	.dwtag  DW_TAG_TI_branch
	.dwattr $C$DW$153, DW_AT_low_pc(0x00)
	.dwattr $C$DW$153, DW_AT_name("_USB_postTransaction")
	.dwattr $C$DW$153, DW_AT_TI_call

        CALL #_USB_postTransaction ; |694| 
||      MOV #0, T0

                                        ; call occurs [#_USB_postTransaction] ; |694| 
        MOV T0, *SP(#5) ; |694| 
	.dwpsn	file "F:/eZdsp_DBG/eZDSP_5535_Files/ccsws2/test/c5535_bsl_revc/ezdsp5535_v1/c55xx_csl/inc/csl_mscAux.h",line 698,column 3,is_stmt
        B $C$L21  ; |698| 
                                        ; branch occurs ; |698| 
$C$L16:    
	.dwpsn	file "F:/eZdsp_DBG/eZDSP_5535_Files/ccsws2/test/c5535_bsl_revc/ezdsp5535_v1/c55xx_csl/inc/csl_mscAux.h",line 701,column 2,is_stmt
        MOV dbl(*AR3(#16)), AC0 ; |701| 
        BCC $C$L19,AC0 == #0 ; |701| 
                                        ; branchcc occurs ; |701| 
	.dwpsn	file "F:/eZdsp_DBG/eZDSP_5535_Files/ccsws2/test/c5535_bsl_revc/ezdsp5535_v1/c55xx_csl/inc/csl_mscAux.h",line 703,column 3,is_stmt
        MOV *AR3(#356), AR1 ; |703| 
        MOV AR1, *SP(#6) ; |703| 
	.dwpsn	file "F:/eZdsp_DBG/eZDSP_5535_Files/ccsws2/test/c5535_bsl_revc/ezdsp5535_v1/c55xx_csl/inc/csl_mscAux.h",line 706,column 3,is_stmt
        MOV dbl(*SP(#0)), XAR3
        MOV uns(*SP(#6)), AC1 ; |706| 
        MOV dbl(*AR3(#16)), AC0 ; |706| 
        CMPU AC1 >= AC0, TC1 ; |706| 
        BCC $C$L17,TC1 ; |706| 
                                        ; branchcc occurs ; |706| 
	.dwpsn	file "F:/eZdsp_DBG/eZDSP_5535_Files/ccsws2/test/c5535_bsl_revc/ezdsp5535_v1/c55xx_csl/inc/csl_mscAux.h",line 708,column 4,is_stmt
        MOV AR1, *SP(#7) ; |708| 
	.dwpsn	file "F:/eZdsp_DBG/eZDSP_5535_Files/ccsws2/test/c5535_bsl_revc/ezdsp5535_v1/c55xx_csl/inc/csl_mscAux.h",line 709,column 3,is_stmt
        B $C$L18  ; |709| 
                                        ; branch occurs ; |709| 
$C$L17:    
	.dwpsn	file "F:/eZdsp_DBG/eZDSP_5535_Files/ccsws2/test/c5535_bsl_revc/ezdsp5535_v1/c55xx_csl/inc/csl_mscAux.h",line 712,column 4,is_stmt
        MOV dbl(*AR3(#16)), AC0 ; |712| 
        AND #0xffff, AC0, AC0 ; |712| 
        MOV AC0, *SP(#7) ; |712| 
$C$L18:    
	.dwpsn	file "F:/eZdsp_DBG/eZDSP_5535_Files/ccsws2/test/c5535_bsl_revc/ezdsp5535_v1/c55xx_csl/inc/csl_mscAux.h",line 717,column 3,is_stmt
        MOV dbl(*SP(#0)), XAR3
        MOV uns(*SP(#7)), AC0 ; |717| 
        SUB AC0, dbl(*AR3(#16)), AC0 ; |717| 
        MOV AC0, dbl(*AR3(#16)) ; |717| 
	.dwpsn	file "F:/eZdsp_DBG/eZDSP_5535_Files/ccsws2/test/c5535_bsl_revc/ezdsp5535_v1/c55xx_csl/inc/csl_mscAux.h",line 718,column 3,is_stmt
        MOV dbl(*SP(#0)), XAR3
        MOV dbl(*AR3(#16)), AC0 ; |718| 
        AND #0xffff, AC0, AC0 ; |718| 
        MOV AC0, *AR3(#287) ; |718| 
	.dwpsn	file "F:/eZdsp_DBG/eZDSP_5535_Files/ccsws2/test/c5535_bsl_revc/ezdsp5535_v1/c55xx_csl/inc/csl_mscAux.h",line 720,column 3,is_stmt
        MOV dbl(*SP(#0)), XAR3
        MOV dbl(*AR3(#16)), AC0 ; |720| 
        MOV HI(AC0), *AR3(#288) ; |720| 
	.dwpsn	file "F:/eZdsp_DBG/eZDSP_5535_Files/ccsws2/test/c5535_bsl_revc/ezdsp5535_v1/c55xx_csl/inc/csl_mscAux.h",line 722,column 3,is_stmt
        MOV dbl(*SP(#0)), XAR3
        MOV #0, *AR3(#289) ; |722| 
	.dwpsn	file "F:/eZdsp_DBG/eZDSP_5535_Files/ccsws2/test/c5535_bsl_revc/ezdsp5535_v1/c55xx_csl/inc/csl_mscAux.h",line 723,column 3,is_stmt
        MOV dbl(*SP(#0)), XAR1
        MOV dbl(*SP(#2)), XAR0
        MOV *SP(#7), T0 ; |723| 
        AMAR *+AR1(#357) ; |723| 
$C$DW$154	.dwtag  DW_TAG_TI_branch
	.dwattr $C$DW$154, DW_AT_low_pc(0x00)
	.dwattr $C$DW$154, DW_AT_name("_USB_postTransaction")
	.dwattr $C$DW$154, DW_AT_TI_call

        CALL #_USB_postTransaction ; |723| 
||      MOV #1, T1

                                        ; call occurs [#_USB_postTransaction] ; |723| 
        MOV T0, *SP(#5) ; |723| 
	.dwpsn	file "F:/eZdsp_DBG/eZDSP_5535_Files/ccsws2/test/c5535_bsl_revc/ezdsp5535_v1/c55xx_csl/inc/csl_mscAux.h",line 727,column 3,is_stmt
        MOV dbl(*SP(#0)), XAR3
        MOV #3, *AR3(#355) ; |727| 
	.dwpsn	file "F:/eZdsp_DBG/eZDSP_5535_Files/ccsws2/test/c5535_bsl_revc/ezdsp5535_v1/c55xx_csl/inc/csl_mscAux.h",line 728,column 2,is_stmt
        B $C$L20  ; |728| 
                                        ; branch occurs ; |728| 
$C$L19:    
	.dwpsn	file "F:/eZdsp_DBG/eZDSP_5535_Files/ccsws2/test/c5535_bsl_revc/ezdsp5535_v1/c55xx_csl/inc/csl_mscAux.h",line 731,column 3,is_stmt
        MOV dbl(*SP(#2)), XAR1
$C$DW$155	.dwtag  DW_TAG_TI_branch
	.dwattr $C$DW$155, DW_AT_low_pc(0x00)
	.dwattr $C$DW$155, DW_AT_name("_MSC_sendCswWithPhaseError")
	.dwattr $C$DW$155, DW_AT_TI_call
        CALL #_MSC_sendCswWithPhaseError ; |731| 
                                        ; call occurs [#_MSC_sendCswWithPhaseError] ; |731| 
        MOV T0, *SP(#5) ; |731| 
$C$L20:    
	.dwpsn	file "F:/eZdsp_DBG/eZDSP_5535_Files/ccsws2/test/c5535_bsl_revc/ezdsp5535_v1/c55xx_csl/inc/csl_mscAux.h",line 734,column 2,is_stmt
        MOV *SP(#5), T0 ; |734| 
$C$L21:    
	.dwpsn	file "F:/eZdsp_DBG/eZDSP_5535_Files/ccsws2/test/c5535_bsl_revc/ezdsp5535_v1/c55xx_csl/inc/csl_mscAux.h",line 735,column 1,is_stmt
        AADD #9, SP
	.dwcfi	cfa_offset, 1
$C$DW$156	.dwtag  DW_TAG_TI_branch
	.dwattr $C$DW$156, DW_AT_low_pc(0x00)
	.dwattr $C$DW$156, DW_AT_TI_return
        RET
                                        ; return occurs
	.dwattr $C$DW$141, DW_AT_TI_end_file("F:/eZdsp_DBG/eZDSP_5535_Files/ccsws2/test/c5535_bsl_revc/ezdsp5535_v1/c55xx_csl/inc/csl_mscAux.h")
	.dwattr $C$DW$141, DW_AT_TI_end_line(0x2df)
	.dwattr $C$DW$141, DW_AT_TI_end_column(0x01)
	.dwendentry
	.dwendtag $C$DW$141

	.sect	".text"
	.align 4

$C$DW$157	.dwtag  DW_TAG_subprogram, DW_AT_name("MSC_HandleInquiry")
	.dwattr $C$DW$157, DW_AT_low_pc(_MSC_HandleInquiry)
	.dwattr $C$DW$157, DW_AT_high_pc(0x00)
	.dwattr $C$DW$157, DW_AT_TI_symbol_name("_MSC_HandleInquiry")
	.dwattr $C$DW$157, DW_AT_type(*$C$DW$T$89)
	.dwattr $C$DW$157, DW_AT_TI_begin_file("F:/eZdsp_DBG/eZDSP_5535_Files/ccsws2/test/c5535_bsl_revc/ezdsp5535_v1/c55xx_csl/inc/csl_mscAux.h")
	.dwattr $C$DW$157, DW_AT_TI_begin_line(0x30f)
	.dwattr $C$DW$157, DW_AT_TI_begin_column(0x0c)
	.dwattr $C$DW$157, DW_AT_TI_max_frame_size(0x0a)
	.dwpsn	file "F:/eZdsp_DBG/eZDSP_5535_Files/ccsws2/test/c5535_bsl_revc/ezdsp5535_v1/c55xx_csl/inc/csl_mscAux.h",line 786,column 1,is_stmt,address _MSC_HandleInquiry

	.dwfde $C$DW$CIE, _MSC_HandleInquiry
$C$DW$158	.dwtag  DW_TAG_formal_parameter, DW_AT_name("pMscHandle")
	.dwattr $C$DW$158, DW_AT_TI_symbol_name("_pMscHandle")
	.dwattr $C$DW$158, DW_AT_type(*$C$DW$T$107)
	.dwattr $C$DW$158, DW_AT_location[DW_OP_reg17]
$C$DW$159	.dwtag  DW_TAG_formal_parameter, DW_AT_name("hUsbInEp")
	.dwattr $C$DW$159, DW_AT_TI_symbol_name("_hUsbInEp")
	.dwattr $C$DW$159, DW_AT_type(*$C$DW$T$27)
	.dwattr $C$DW$159, DW_AT_location[DW_OP_reg19]
$C$DW$160	.dwtag  DW_TAG_formal_parameter, DW_AT_name("logicalUnit")
	.dwattr $C$DW$160, DW_AT_TI_symbol_name("_logicalUnit")
	.dwattr $C$DW$160, DW_AT_type(*$C$DW$T$25)
	.dwattr $C$DW$160, DW_AT_location[DW_OP_reg12]
;*******************************************************************************
;* FUNCTION NAME: MSC_HandleInquiry                                            *
;*                                                                             *
;*   Function Uses Regs : AC0,AC0,AC1,AC1,T0,T1,AR0,XAR0,AR1,XAR1,AR2,AR3,XAR3,*
;*                        SP,CARRY,TC1,M40,SATA,SATD,RDM,FRCT,SMUL             *
;*   Stack Frame        : Compact (No Frame Pointer, w/ debug)                 *
;*   Total Frame Size   : 10 words                                             *
;*                        (2 return address/alignment)                         *
;*                        (8 local values)                                     *
;*   Min System Stack   : 1 word                                               *
;*******************************************************************************
_MSC_HandleInquiry:
	.dwcfi	cfa_offset, 1
	.dwcfi	save_reg_to_mem, 91, -1
        AADD #-9, SP
	.dwcfi	cfa_offset, 10
$C$DW$161	.dwtag  DW_TAG_variable, DW_AT_name("pMscHandle")
	.dwattr $C$DW$161, DW_AT_TI_symbol_name("_pMscHandle")
	.dwattr $C$DW$161, DW_AT_type(*$C$DW$T$107)
	.dwattr $C$DW$161, DW_AT_location[DW_OP_bregx 0x24 0]
$C$DW$162	.dwtag  DW_TAG_variable, DW_AT_name("hUsbInEp")
	.dwattr $C$DW$162, DW_AT_TI_symbol_name("_hUsbInEp")
	.dwattr $C$DW$162, DW_AT_type(*$C$DW$T$27)
	.dwattr $C$DW$162, DW_AT_location[DW_OP_bregx 0x24 2]
$C$DW$163	.dwtag  DW_TAG_variable, DW_AT_name("logicalUnit")
	.dwattr $C$DW$163, DW_AT_TI_symbol_name("_logicalUnit")
	.dwattr $C$DW$163, DW_AT_type(*$C$DW$T$25)
	.dwattr $C$DW$163, DW_AT_location[DW_OP_bregx 0x24 4]
$C$DW$164	.dwtag  DW_TAG_variable, DW_AT_name("status")
	.dwattr $C$DW$164, DW_AT_TI_symbol_name("_status")
	.dwattr $C$DW$164, DW_AT_type(*$C$DW$T$89)
	.dwattr $C$DW$164, DW_AT_location[DW_OP_bregx 0x24 5]
$C$DW$165	.dwtag  DW_TAG_variable, DW_AT_name("cbwRespLen")
	.dwattr $C$DW$165, DW_AT_TI_symbol_name("_cbwRespLen")
	.dwattr $C$DW$165, DW_AT_type(*$C$DW$T$25)
	.dwattr $C$DW$165, DW_AT_location[DW_OP_bregx 0x24 6]
$C$DW$166	.dwtag  DW_TAG_variable, DW_AT_name("smallerLen")
	.dwattr $C$DW$166, DW_AT_TI_symbol_name("_smallerLen")
	.dwattr $C$DW$166, DW_AT_type(*$C$DW$T$25)
	.dwattr $C$DW$166, DW_AT_location[DW_OP_bregx 0x24 7]
        MOV T0, *SP(#4) ; |786| 
        MOV XAR1, dbl(*SP(#2))
        MOV XAR0, dbl(*SP(#0))
	.dwpsn	file "F:/eZdsp_DBG/eZDSP_5535_Files/ccsws2/test/c5535_bsl_revc/ezdsp5535_v1/c55xx_csl/inc/csl_mscAux.h",line 792,column 2,is_stmt
        MOV dbl(*SP(#0)), XAR3
        MOV *AR3(#303), AR1 ; |792| 

        AND #0x0080, AR1, AR1 ; |792| 
||      MOV #128, AR2 ; |792| 

        CMPU AR1 == AR2, TC1 ; |792| 
        BCC $C$L22,TC1 ; |792| 
                                        ; branchcc occurs ; |792| 
        MOV dbl(*AR3(#16)), AC0 ; |792| 
        BCC $C$L22,AC0 == #0 ; |792| 
                                        ; branchcc occurs ; |792| 
	.dwpsn	file "F:/eZdsp_DBG/eZDSP_5535_Files/ccsws2/test/c5535_bsl_revc/ezdsp5535_v1/c55xx_csl/inc/csl_mscAux.h",line 796,column 3,is_stmt
        MOV #128, T0 ; |796| 
$C$DW$167	.dwtag  DW_TAG_TI_branch
	.dwattr $C$DW$167, DW_AT_low_pc(0x00)
	.dwattr $C$DW$167, DW_AT_name("_MSC_handleDataDirMisMatch")
	.dwattr $C$DW$167, DW_AT_TI_call
        CALL #_MSC_handleDataDirMisMatch ; |796| 
                                        ; call occurs [#_MSC_handleDataDirMisMatch] ; |796| 
        MOV T0, *SP(#5) ; |796| 
	.dwpsn	file "F:/eZdsp_DBG/eZDSP_5535_Files/ccsws2/test/c5535_bsl_revc/ezdsp5535_v1/c55xx_csl/inc/csl_mscAux.h",line 798,column 3,is_stmt
        B $C$L27  ; |798| 
                                        ; branch occurs ; |798| 
$C$L22:    
	.dwpsn	file "F:/eZdsp_DBG/eZDSP_5535_Files/ccsws2/test/c5535_bsl_revc/ezdsp5535_v1/c55xx_csl/inc/csl_mscAux.h",line 801,column 2,is_stmt
        MOV dbl(*AR3(#16)), AC0 ; |801| 
        BCC $C$L25,AC0 == #0 ; |801| 
                                        ; branchcc occurs ; |801| 
	.dwpsn	file "F:/eZdsp_DBG/eZDSP_5535_Files/ccsws2/test/c5535_bsl_revc/ezdsp5535_v1/c55xx_csl/inc/csl_mscAux.h",line 803,column 3,is_stmt
        MPYMK *SP(#4), #62, AC0 ; |803| 
        MOV AC0, AR1 ; |803| 
        AADD AR1, AR3 ; |803| 
        MOV *AR3(#18), AR1 ; |803| 
        MOV AR1, *SP(#6) ; |803| 
	.dwpsn	file "F:/eZdsp_DBG/eZDSP_5535_Files/ccsws2/test/c5535_bsl_revc/ezdsp5535_v1/c55xx_csl/inc/csl_mscAux.h",line 805,column 3,is_stmt
        MOV dbl(*SP(#0)), XAR3
        MOV uns(*SP(#6)), AC1 ; |805| 
        MOV dbl(*AR3(#16)), AC0 ; |805| 
        CMPU AC1 >= AC0, TC1 ; |805| 
        BCC $C$L23,TC1 ; |805| 
                                        ; branchcc occurs ; |805| 
	.dwpsn	file "F:/eZdsp_DBG/eZDSP_5535_Files/ccsws2/test/c5535_bsl_revc/ezdsp5535_v1/c55xx_csl/inc/csl_mscAux.h",line 807,column 4,is_stmt
        MOV AR1, *SP(#7) ; |807| 
	.dwpsn	file "F:/eZdsp_DBG/eZDSP_5535_Files/ccsws2/test/c5535_bsl_revc/ezdsp5535_v1/c55xx_csl/inc/csl_mscAux.h",line 808,column 4,is_stmt
        MOV dbl(*SP(#0)), XAR3
        MOV #7, *AR3(#355) ; |808| 
	.dwpsn	file "F:/eZdsp_DBG/eZDSP_5535_Files/ccsws2/test/c5535_bsl_revc/ezdsp5535_v1/c55xx_csl/inc/csl_mscAux.h",line 809,column 3,is_stmt
        B $C$L24  ; |809| 
                                        ; branch occurs ; |809| 
$C$L23:    
	.dwpsn	file "F:/eZdsp_DBG/eZDSP_5535_Files/ccsws2/test/c5535_bsl_revc/ezdsp5535_v1/c55xx_csl/inc/csl_mscAux.h",line 812,column 4,is_stmt
        MOV dbl(*AR3(#16)), AC0 ; |812| 
        AND #0xffff, AC0, AC0 ; |812| 
        MOV AC0, *SP(#7) ; |812| 
	.dwpsn	file "F:/eZdsp_DBG/eZDSP_5535_Files/ccsws2/test/c5535_bsl_revc/ezdsp5535_v1/c55xx_csl/inc/csl_mscAux.h",line 814,column 4,is_stmt
        MOV dbl(*SP(#0)), XAR3
        MOV #3, *AR3(#355) ; |814| 
$C$L24:    
	.dwpsn	file "F:/eZdsp_DBG/eZDSP_5535_Files/ccsws2/test/c5535_bsl_revc/ezdsp5535_v1/c55xx_csl/inc/csl_mscAux.h",line 818,column 3,is_stmt
        MOV dbl(*SP(#0)), XAR3
        MOV uns(*SP(#7)), AC0 ; |818| 
        SUB AC0, dbl(*AR3(#16)), AC0 ; |818| 
        MOV AC0, dbl(*AR3(#16)) ; |818| 
	.dwpsn	file "F:/eZdsp_DBG/eZDSP_5535_Files/ccsws2/test/c5535_bsl_revc/ezdsp5535_v1/c55xx_csl/inc/csl_mscAux.h",line 819,column 3,is_stmt
        MOV dbl(*SP(#0)), XAR3
        MOV dbl(*AR3(#16)), AC0 ; |819| 
        AND #0xffff, AC0, AC0 ; |819| 
        MOV AC0, *AR3(#287) ; |819| 
	.dwpsn	file "F:/eZdsp_DBG/eZDSP_5535_Files/ccsws2/test/c5535_bsl_revc/ezdsp5535_v1/c55xx_csl/inc/csl_mscAux.h",line 821,column 3,is_stmt
        MOV dbl(*SP(#0)), XAR3
        MOV dbl(*AR3(#16)), AC0 ; |821| 
        MOV HI(AC0), *AR3(#288) ; |821| 
	.dwpsn	file "F:/eZdsp_DBG/eZDSP_5535_Files/ccsws2/test/c5535_bsl_revc/ezdsp5535_v1/c55xx_csl/inc/csl_mscAux.h",line 823,column 3,is_stmt
        MOV dbl(*SP(#0)), XAR3
        MOV #0, *AR3(#289) ; |823| 
	.dwpsn	file "F:/eZdsp_DBG/eZDSP_5535_Files/ccsws2/test/c5535_bsl_revc/ezdsp5535_v1/c55xx_csl/inc/csl_mscAux.h",line 825,column 3,is_stmt
        MOV dbl(*SP(#0)), XAR1
        MPYMK *SP(#4), #62, AC0 ; |825| 
        MOV AC0, AR2 ; |825| 
        MOV dbl(*SP(#2)), XAR0
        AADD AR2, AR1 ; |825| 

        AADD #19, AR1 ; |825| 
||      MOV *SP(#7), T0 ; |825| 

$C$DW$168	.dwtag  DW_TAG_TI_branch
	.dwattr $C$DW$168, DW_AT_low_pc(0x00)
	.dwattr $C$DW$168, DW_AT_name("_USB_postTransaction")
	.dwattr $C$DW$168, DW_AT_TI_call

        CALL #_USB_postTransaction ; |825| 
||      MOV #1, T1

                                        ; call occurs [#_USB_postTransaction] ; |825| 
        MOV T0, *SP(#5) ; |825| 
	.dwpsn	file "F:/eZdsp_DBG/eZDSP_5535_Files/ccsws2/test/c5535_bsl_revc/ezdsp5535_v1/c55xx_csl/inc/csl_mscAux.h",line 828,column 2,is_stmt
        B $C$L26  ; |828| 
                                        ; branch occurs ; |828| 
$C$L25:    
	.dwpsn	file "F:/eZdsp_DBG/eZDSP_5535_Files/ccsws2/test/c5535_bsl_revc/ezdsp5535_v1/c55xx_csl/inc/csl_mscAux.h",line 831,column 3,is_stmt
        MOV dbl(*SP(#2)), XAR1
$C$DW$169	.dwtag  DW_TAG_TI_branch
	.dwattr $C$DW$169, DW_AT_low_pc(0x00)
	.dwattr $C$DW$169, DW_AT_name("_MSC_sendCswWithPhaseError")
	.dwattr $C$DW$169, DW_AT_TI_call
        CALL #_MSC_sendCswWithPhaseError ; |831| 
                                        ; call occurs [#_MSC_sendCswWithPhaseError] ; |831| 
        MOV T0, *SP(#5) ; |831| 
$C$L26:    
	.dwpsn	file "F:/eZdsp_DBG/eZDSP_5535_Files/ccsws2/test/c5535_bsl_revc/ezdsp5535_v1/c55xx_csl/inc/csl_mscAux.h",line 834,column 2,is_stmt
$C$L27:    
	.dwpsn	file "F:/eZdsp_DBG/eZDSP_5535_Files/ccsws2/test/c5535_bsl_revc/ezdsp5535_v1/c55xx_csl/inc/csl_mscAux.h",line 835,column 1,is_stmt
        AADD #9, SP
	.dwcfi	cfa_offset, 1
$C$DW$170	.dwtag  DW_TAG_TI_branch
	.dwattr $C$DW$170, DW_AT_low_pc(0x00)
	.dwattr $C$DW$170, DW_AT_TI_return
        RET
                                        ; return occurs
	.dwattr $C$DW$157, DW_AT_TI_end_file("F:/eZdsp_DBG/eZDSP_5535_Files/ccsws2/test/c5535_bsl_revc/ezdsp5535_v1/c55xx_csl/inc/csl_mscAux.h")
	.dwattr $C$DW$157, DW_AT_TI_end_line(0x343)
	.dwattr $C$DW$157, DW_AT_TI_end_column(0x01)
	.dwendentry
	.dwendtag $C$DW$157

	.sect	".text"
	.align 4

$C$DW$171	.dwtag  DW_TAG_subprogram, DW_AT_name("MSC_HandleRequestSense")
	.dwattr $C$DW$171, DW_AT_low_pc(_MSC_HandleRequestSense)
	.dwattr $C$DW$171, DW_AT_high_pc(0x00)
	.dwattr $C$DW$171, DW_AT_TI_symbol_name("_MSC_HandleRequestSense")
	.dwattr $C$DW$171, DW_AT_type(*$C$DW$T$89)
	.dwattr $C$DW$171, DW_AT_TI_begin_file("F:/eZdsp_DBG/eZDSP_5535_Files/ccsws2/test/c5535_bsl_revc/ezdsp5535_v1/c55xx_csl/inc/csl_mscAux.h")
	.dwattr $C$DW$171, DW_AT_TI_begin_line(0x372)
	.dwattr $C$DW$171, DW_AT_TI_begin_column(0x0c)
	.dwattr $C$DW$171, DW_AT_TI_max_frame_size(0x08)
	.dwpsn	file "F:/eZdsp_DBG/eZDSP_5535_Files/ccsws2/test/c5535_bsl_revc/ezdsp5535_v1/c55xx_csl/inc/csl_mscAux.h",line 884,column 1,is_stmt,address _MSC_HandleRequestSense

	.dwfde $C$DW$CIE, _MSC_HandleRequestSense
$C$DW$172	.dwtag  DW_TAG_formal_parameter, DW_AT_name("pMscHandle")
	.dwattr $C$DW$172, DW_AT_TI_symbol_name("_pMscHandle")
	.dwattr $C$DW$172, DW_AT_type(*$C$DW$T$107)
	.dwattr $C$DW$172, DW_AT_location[DW_OP_reg17]
$C$DW$173	.dwtag  DW_TAG_formal_parameter, DW_AT_name("hUsbInEp")
	.dwattr $C$DW$173, DW_AT_TI_symbol_name("_hUsbInEp")
	.dwattr $C$DW$173, DW_AT_type(*$C$DW$T$27)
	.dwattr $C$DW$173, DW_AT_location[DW_OP_reg19]
;*******************************************************************************
;* FUNCTION NAME: MSC_HandleRequestSense                                       *
;*                                                                             *
;*   Function Uses Regs : AC0,AC0,AC1,AC1,T0,T1,AR0,XAR0,AR1,XAR1,AR2,AR3,XAR3,*
;*                        SP,CARRY,TC1,M40,SATA,SATD,RDM,FRCT,SMUL             *
;*   Stack Frame        : Compact (No Frame Pointer, w/ debug)                 *
;*   Total Frame Size   : 8 words                                              *
;*                        (1 return address/alignment)                         *
;*                        (7 local values)                                     *
;*   Min System Stack   : 1 word                                               *
;*******************************************************************************
_MSC_HandleRequestSense:
	.dwcfi	cfa_offset, 1
	.dwcfi	save_reg_to_mem, 91, -1
        AADD #-7, SP
	.dwcfi	cfa_offset, 8
$C$DW$174	.dwtag  DW_TAG_variable, DW_AT_name("pMscHandle")
	.dwattr $C$DW$174, DW_AT_TI_symbol_name("_pMscHandle")
	.dwattr $C$DW$174, DW_AT_type(*$C$DW$T$107)
	.dwattr $C$DW$174, DW_AT_location[DW_OP_bregx 0x24 0]
$C$DW$175	.dwtag  DW_TAG_variable, DW_AT_name("hUsbInEp")
	.dwattr $C$DW$175, DW_AT_TI_symbol_name("_hUsbInEp")
	.dwattr $C$DW$175, DW_AT_type(*$C$DW$T$27)
	.dwattr $C$DW$175, DW_AT_location[DW_OP_bregx 0x24 2]
$C$DW$176	.dwtag  DW_TAG_variable, DW_AT_name("status")
	.dwattr $C$DW$176, DW_AT_TI_symbol_name("_status")
	.dwattr $C$DW$176, DW_AT_type(*$C$DW$T$89)
	.dwattr $C$DW$176, DW_AT_location[DW_OP_bregx 0x24 4]
$C$DW$177	.dwtag  DW_TAG_variable, DW_AT_name("cbwRespLen")
	.dwattr $C$DW$177, DW_AT_TI_symbol_name("_cbwRespLen")
	.dwattr $C$DW$177, DW_AT_type(*$C$DW$T$25)
	.dwattr $C$DW$177, DW_AT_location[DW_OP_bregx 0x24 5]
$C$DW$178	.dwtag  DW_TAG_variable, DW_AT_name("smallerLen")
	.dwattr $C$DW$178, DW_AT_TI_symbol_name("_smallerLen")
	.dwattr $C$DW$178, DW_AT_type(*$C$DW$T$25)
	.dwattr $C$DW$178, DW_AT_location[DW_OP_bregx 0x24 6]
        MOV XAR1, dbl(*SP(#2))
        MOV XAR0, dbl(*SP(#0))
	.dwpsn	file "F:/eZdsp_DBG/eZDSP_5535_Files/ccsws2/test/c5535_bsl_revc/ezdsp5535_v1/c55xx_csl/inc/csl_mscAux.h",line 890,column 2,is_stmt
        MOV dbl(*SP(#0)), XAR3
        MOV *AR3(#303), AR1 ; |890| 

        AND #0x0080, AR1, AR1 ; |890| 
||      MOV #128, AR2 ; |890| 

        CMPU AR1 == AR2, TC1 ; |890| 
        BCC $C$L28,TC1 ; |890| 
                                        ; branchcc occurs ; |890| 
        MOV dbl(*AR3(#16)), AC0 ; |890| 
        BCC $C$L28,AC0 == #0 ; |890| 
                                        ; branchcc occurs ; |890| 
	.dwpsn	file "F:/eZdsp_DBG/eZDSP_5535_Files/ccsws2/test/c5535_bsl_revc/ezdsp5535_v1/c55xx_csl/inc/csl_mscAux.h",line 894,column 3,is_stmt
        MOV #128, T0 ; |894| 
$C$DW$179	.dwtag  DW_TAG_TI_branch
	.dwattr $C$DW$179, DW_AT_low_pc(0x00)
	.dwattr $C$DW$179, DW_AT_name("_MSC_handleDataDirMisMatch")
	.dwattr $C$DW$179, DW_AT_TI_call
        CALL #_MSC_handleDataDirMisMatch ; |894| 
                                        ; call occurs [#_MSC_handleDataDirMisMatch] ; |894| 
        MOV T0, *SP(#4) ; |894| 
	.dwpsn	file "F:/eZdsp_DBG/eZDSP_5535_Files/ccsws2/test/c5535_bsl_revc/ezdsp5535_v1/c55xx_csl/inc/csl_mscAux.h",line 896,column 3,is_stmt
        B $C$L33  ; |896| 
                                        ; branch occurs ; |896| 
$C$L28:    
	.dwpsn	file "F:/eZdsp_DBG/eZDSP_5535_Files/ccsws2/test/c5535_bsl_revc/ezdsp5535_v1/c55xx_csl/inc/csl_mscAux.h",line 899,column 2,is_stmt
        MOV dbl(*AR3(#16)), AC0 ; |899| 
        BCC $C$L31,AC0 == #0 ; |899| 
                                        ; branchcc occurs ; |899| 
	.dwpsn	file "F:/eZdsp_DBG/eZDSP_5535_Files/ccsws2/test/c5535_bsl_revc/ezdsp5535_v1/c55xx_csl/inc/csl_mscAux.h",line 901,column 3,is_stmt
        MOV *AR3(#266), AR1 ; |901| 
        MOV AR1, *SP(#5) ; |901| 
	.dwpsn	file "F:/eZdsp_DBG/eZDSP_5535_Files/ccsws2/test/c5535_bsl_revc/ezdsp5535_v1/c55xx_csl/inc/csl_mscAux.h",line 904,column 3,is_stmt
        MOV dbl(*SP(#0)), XAR3
        MOV uns(*SP(#5)), AC1 ; |904| 
        MOV dbl(*AR3(#16)), AC0 ; |904| 
        CMPU AC1 >= AC0, TC1 ; |904| 
        BCC $C$L29,TC1 ; |904| 
                                        ; branchcc occurs ; |904| 
	.dwpsn	file "F:/eZdsp_DBG/eZDSP_5535_Files/ccsws2/test/c5535_bsl_revc/ezdsp5535_v1/c55xx_csl/inc/csl_mscAux.h",line 906,column 4,is_stmt
        MOV #7, *AR3(#355) ; |906| 
	.dwpsn	file "F:/eZdsp_DBG/eZDSP_5535_Files/ccsws2/test/c5535_bsl_revc/ezdsp5535_v1/c55xx_csl/inc/csl_mscAux.h",line 907,column 4,is_stmt
        MOV *SP(#5), AR1 ; |907| 
        MOV AR1, *SP(#6) ; |907| 
	.dwpsn	file "F:/eZdsp_DBG/eZDSP_5535_Files/ccsws2/test/c5535_bsl_revc/ezdsp5535_v1/c55xx_csl/inc/csl_mscAux.h",line 908,column 3,is_stmt
        B $C$L30  ; |908| 
                                        ; branch occurs ; |908| 
$C$L29:    
	.dwpsn	file "F:/eZdsp_DBG/eZDSP_5535_Files/ccsws2/test/c5535_bsl_revc/ezdsp5535_v1/c55xx_csl/inc/csl_mscAux.h",line 911,column 4,is_stmt
        MOV #3, *AR3(#355) ; |911| 
	.dwpsn	file "F:/eZdsp_DBG/eZDSP_5535_Files/ccsws2/test/c5535_bsl_revc/ezdsp5535_v1/c55xx_csl/inc/csl_mscAux.h",line 913,column 4,is_stmt
        MOV dbl(*SP(#0)), XAR3
        MOV dbl(*AR3(#16)), AC0 ; |913| 
        AND #0xffff, AC0, AC0 ; |913| 
        MOV AC0, *SP(#6) ; |913| 
$C$L30:    
	.dwpsn	file "F:/eZdsp_DBG/eZDSP_5535_Files/ccsws2/test/c5535_bsl_revc/ezdsp5535_v1/c55xx_csl/inc/csl_mscAux.h",line 918,column 3,is_stmt
        MOV dbl(*SP(#0)), XAR3
        MOV uns(*SP(#6)), AC0 ; |918| 
        SUB AC0, dbl(*AR3(#16)), AC0 ; |918| 
        MOV AC0, dbl(*AR3(#16)) ; |918| 
	.dwpsn	file "F:/eZdsp_DBG/eZDSP_5535_Files/ccsws2/test/c5535_bsl_revc/ezdsp5535_v1/c55xx_csl/inc/csl_mscAux.h",line 919,column 3,is_stmt
        MOV dbl(*SP(#0)), XAR3
        MOV dbl(*AR3(#16)), AC0 ; |919| 
        AND #0x0010, AC0, AC0 ; |919| 
        MOV AC0, *AR3(#287) ; |919| 
	.dwpsn	file "F:/eZdsp_DBG/eZDSP_5535_Files/ccsws2/test/c5535_bsl_revc/ezdsp5535_v1/c55xx_csl/inc/csl_mscAux.h",line 921,column 3,is_stmt
        MOV dbl(*SP(#0)), XAR3
        MOV dbl(*AR3(#16)), AC0 ; |921| 
        MOV HI(AC0), *AR3(#288) ; |921| 
	.dwpsn	file "F:/eZdsp_DBG/eZDSP_5535_Files/ccsws2/test/c5535_bsl_revc/ezdsp5535_v1/c55xx_csl/inc/csl_mscAux.h",line 923,column 3,is_stmt
        MOV dbl(*SP(#0)), XAR3
        MOV #0, *AR3(#289) ; |923| 
	.dwpsn	file "F:/eZdsp_DBG/eZDSP_5535_Files/ccsws2/test/c5535_bsl_revc/ezdsp5535_v1/c55xx_csl/inc/csl_mscAux.h",line 924,column 3,is_stmt
        MOV dbl(*SP(#0)), XAR1
        MOV dbl(*SP(#2)), XAR0
        MOV *SP(#6), T0 ; |924| 
        AMAR *+AR1(#267) ; |924| 
$C$DW$180	.dwtag  DW_TAG_TI_branch
	.dwattr $C$DW$180, DW_AT_low_pc(0x00)
	.dwattr $C$DW$180, DW_AT_name("_USB_postTransaction")
	.dwattr $C$DW$180, DW_AT_TI_call

        CALL #_USB_postTransaction ; |924| 
||      MOV #1, T1

                                        ; call occurs [#_USB_postTransaction] ; |924| 
        MOV T0, *SP(#4) ; |924| 
	.dwpsn	file "F:/eZdsp_DBG/eZDSP_5535_Files/ccsws2/test/c5535_bsl_revc/ezdsp5535_v1/c55xx_csl/inc/csl_mscAux.h",line 927,column 2,is_stmt
        B $C$L32  ; |927| 
                                        ; branch occurs ; |927| 
$C$L31:    
	.dwpsn	file "F:/eZdsp_DBG/eZDSP_5535_Files/ccsws2/test/c5535_bsl_revc/ezdsp5535_v1/c55xx_csl/inc/csl_mscAux.h",line 930,column 3,is_stmt
        MOV dbl(*SP(#2)), XAR1
$C$DW$181	.dwtag  DW_TAG_TI_branch
	.dwattr $C$DW$181, DW_AT_low_pc(0x00)
	.dwattr $C$DW$181, DW_AT_name("_MSC_sendCswWithPhaseError")
	.dwattr $C$DW$181, DW_AT_TI_call
        CALL #_MSC_sendCswWithPhaseError ; |930| 
                                        ; call occurs [#_MSC_sendCswWithPhaseError] ; |930| 
        MOV T0, *SP(#4) ; |930| 
$C$L32:    
	.dwpsn	file "F:/eZdsp_DBG/eZDSP_5535_Files/ccsws2/test/c5535_bsl_revc/ezdsp5535_v1/c55xx_csl/inc/csl_mscAux.h",line 933,column 2,is_stmt
$C$L33:    
	.dwpsn	file "F:/eZdsp_DBG/eZDSP_5535_Files/ccsws2/test/c5535_bsl_revc/ezdsp5535_v1/c55xx_csl/inc/csl_mscAux.h",line 934,column 1,is_stmt
        AADD #7, SP
	.dwcfi	cfa_offset, 1
$C$DW$182	.dwtag  DW_TAG_TI_branch
	.dwattr $C$DW$182, DW_AT_low_pc(0x00)
	.dwattr $C$DW$182, DW_AT_TI_return
        RET
                                        ; return occurs
	.dwattr $C$DW$171, DW_AT_TI_end_file("F:/eZdsp_DBG/eZDSP_5535_Files/ccsws2/test/c5535_bsl_revc/ezdsp5535_v1/c55xx_csl/inc/csl_mscAux.h")
	.dwattr $C$DW$171, DW_AT_TI_end_line(0x3a6)
	.dwattr $C$DW$171, DW_AT_TI_end_column(0x01)
	.dwendentry
	.dwendtag $C$DW$171

	.sect	".text"
	.align 4

$C$DW$183	.dwtag  DW_TAG_subprogram, DW_AT_name("MSC_HandleVerify10")
	.dwattr $C$DW$183, DW_AT_low_pc(_MSC_HandleVerify10)
	.dwattr $C$DW$183, DW_AT_high_pc(0x00)
	.dwattr $C$DW$183, DW_AT_TI_symbol_name("_MSC_HandleVerify10")
	.dwattr $C$DW$183, DW_AT_type(*$C$DW$T$89)
	.dwattr $C$DW$183, DW_AT_TI_begin_file("F:/eZdsp_DBG/eZDSP_5535_Files/ccsws2/test/c5535_bsl_revc/ezdsp5535_v1/c55xx_csl/inc/csl_mscAux.h")
	.dwattr $C$DW$183, DW_AT_TI_begin_line(0x3d6)
	.dwattr $C$DW$183, DW_AT_TI_begin_column(0x0c)
	.dwattr $C$DW$183, DW_AT_TI_max_frame_size(0x08)
	.dwpsn	file "F:/eZdsp_DBG/eZDSP_5535_Files/ccsws2/test/c5535_bsl_revc/ezdsp5535_v1/c55xx_csl/inc/csl_mscAux.h",line 985,column 1,is_stmt,address _MSC_HandleVerify10

	.dwfde $C$DW$CIE, _MSC_HandleVerify10
$C$DW$184	.dwtag  DW_TAG_formal_parameter, DW_AT_name("pMscHandle")
	.dwattr $C$DW$184, DW_AT_TI_symbol_name("_pMscHandle")
	.dwattr $C$DW$184, DW_AT_type(*$C$DW$T$107)
	.dwattr $C$DW$184, DW_AT_location[DW_OP_reg17]
$C$DW$185	.dwtag  DW_TAG_formal_parameter, DW_AT_name("hUsbInEp")
	.dwattr $C$DW$185, DW_AT_TI_symbol_name("_hUsbInEp")
	.dwattr $C$DW$185, DW_AT_type(*$C$DW$T$27)
	.dwattr $C$DW$185, DW_AT_location[DW_OP_reg19]
$C$DW$186	.dwtag  DW_TAG_formal_parameter, DW_AT_name("logicalUnit")
	.dwattr $C$DW$186, DW_AT_TI_symbol_name("_logicalUnit")
	.dwattr $C$DW$186, DW_AT_type(*$C$DW$T$25)
	.dwattr $C$DW$186, DW_AT_location[DW_OP_reg12]
;*******************************************************************************
;* FUNCTION NAME: MSC_HandleVerify10                                           *
;*                                                                             *
;*   Function Uses Regs : AC0,AC0,AC1,T0,T1,AR0,XAR0,AR1,XAR1,AR3,XAR3,SP,M40, *
;*                        SATA,SATD,RDM,FRCT,SMUL                              *
;*   Stack Frame        : Compact (No Frame Pointer, w/ debug)                 *
;*   Total Frame Size   : 8 words                                              *
;*                        (1 return address/alignment)                         *
;*                        (7 local values)                                     *
;*   Min System Stack   : 1 word                                               *
;*******************************************************************************
_MSC_HandleVerify10:
	.dwcfi	cfa_offset, 1
	.dwcfi	save_reg_to_mem, 91, -1
        AADD #-7, SP
	.dwcfi	cfa_offset, 8
$C$DW$187	.dwtag  DW_TAG_variable, DW_AT_name("pMscHandle")
	.dwattr $C$DW$187, DW_AT_TI_symbol_name("_pMscHandle")
	.dwattr $C$DW$187, DW_AT_type(*$C$DW$T$107)
	.dwattr $C$DW$187, DW_AT_location[DW_OP_bregx 0x24 0]
$C$DW$188	.dwtag  DW_TAG_variable, DW_AT_name("hUsbInEp")
	.dwattr $C$DW$188, DW_AT_TI_symbol_name("_hUsbInEp")
	.dwattr $C$DW$188, DW_AT_type(*$C$DW$T$27)
	.dwattr $C$DW$188, DW_AT_location[DW_OP_bregx 0x24 2]
$C$DW$189	.dwtag  DW_TAG_variable, DW_AT_name("logicalUnit")
	.dwattr $C$DW$189, DW_AT_TI_symbol_name("_logicalUnit")
	.dwattr $C$DW$189, DW_AT_type(*$C$DW$T$25)
	.dwattr $C$DW$189, DW_AT_location[DW_OP_bregx 0x24 4]
$C$DW$190	.dwtag  DW_TAG_variable, DW_AT_name("status")
	.dwattr $C$DW$190, DW_AT_TI_symbol_name("_status")
	.dwattr $C$DW$190, DW_AT_type(*$C$DW$T$89)
	.dwattr $C$DW$190, DW_AT_location[DW_OP_bregx 0x24 5]
$C$DW$191	.dwtag  DW_TAG_variable, DW_AT_name("verifyLen")
	.dwattr $C$DW$191, DW_AT_TI_symbol_name("_verifyLen")
	.dwattr $C$DW$191, DW_AT_type(*$C$DW$T$25)
	.dwattr $C$DW$191, DW_AT_location[DW_OP_bregx 0x24 6]
        MOV T0, *SP(#4) ; |985| 
        MOV XAR1, dbl(*SP(#2))
        MOV XAR0, dbl(*SP(#0))
	.dwpsn	file "F:/eZdsp_DBG/eZDSP_5535_Files/ccsws2/test/c5535_bsl_revc/ezdsp5535_v1/c55xx_csl/inc/csl_mscAux.h",line 989,column 2,is_stmt
        MOV dbl(*SP(#0)), XAR3
        MOV dbl(*AR3(#16)), AC0 ; |989| 
        BCC $C$L34,AC0 == #0 ; |989| 
                                        ; branchcc occurs ; |989| 
	.dwpsn	file "F:/eZdsp_DBG/eZDSP_5535_Files/ccsws2/test/c5535_bsl_revc/ezdsp5535_v1/c55xx_csl/inc/csl_mscAux.h",line 992,column 3,is_stmt
        MOV #2, *AR3(#355) ; |992| 
	.dwpsn	file "F:/eZdsp_DBG/eZDSP_5535_Files/ccsws2/test/c5535_bsl_revc/ezdsp5535_v1/c55xx_csl/inc/csl_mscAux.h",line 993,column 3,is_stmt
        MOV dbl(*SP(#0)), XAR0
        AMAR *+AR0(#334) ; |993| 
$C$DW$192	.dwtag  DW_TAG_TI_branch
	.dwattr $C$DW$192, DW_AT_low_pc(0x00)
	.dwattr $C$DW$192, DW_AT_name("_USB_stallEndpt")
	.dwattr $C$DW$192, DW_AT_TI_call
        CALL #_USB_stallEndpt ; |993| 
                                        ; call occurs [#_USB_stallEndpt] ; |993| 
        MOV T0, *SP(#5) ; |993| 
	.dwpsn	file "F:/eZdsp_DBG/eZDSP_5535_Files/ccsws2/test/c5535_bsl_revc/ezdsp5535_v1/c55xx_csl/inc/csl_mscAux.h",line 994,column 3,is_stmt
        MOV dbl(*SP(#0)), XAR0
        AMAR *+AR0(#314) ; |994| 
$C$DW$193	.dwtag  DW_TAG_TI_branch
	.dwattr $C$DW$193, DW_AT_low_pc(0x00)
	.dwattr $C$DW$193, DW_AT_name("_USB_stallEndpt")
	.dwattr $C$DW$193, DW_AT_TI_call
        CALL #_USB_stallEndpt ; |994| 
                                        ; call occurs [#_USB_stallEndpt] ; |994| 
        MOV T0, *SP(#5) ; |994| 
	.dwpsn	file "F:/eZdsp_DBG/eZDSP_5535_Files/ccsws2/test/c5535_bsl_revc/ezdsp5535_v1/c55xx_csl/inc/csl_mscAux.h",line 998,column 3,is_stmt
        MOV dbl(*SP(#0)), XAR0
        MOV dbl(*SP(#0)), XAR3
        MOV #32, T1 ; |998| 
        AMAR *+AR0(#314) ; |998| 
        MOV dbl(*AR3(#14)), XAR1
$C$DW$194	.dwtag  DW_TAG_TI_branch
	.dwattr $C$DW$194, DW_AT_low_pc(0x00)
	.dwattr $C$DW$194, DW_AT_name("_USB_postTransaction")
	.dwattr $C$DW$194, DW_AT_TI_call

        CALL #_USB_postTransaction ; |998| 
||      MOV #0, T0

                                        ; call occurs [#_USB_postTransaction] ; |998| 
        OR *SP(#5), T0, AR1 ; |998| 
        MOV AR1, *SP(#5) ; |998| 
	.dwpsn	file "F:/eZdsp_DBG/eZDSP_5535_Files/ccsws2/test/c5535_bsl_revc/ezdsp5535_v1/c55xx_csl/inc/csl_mscAux.h",line 1003,column 3,is_stmt
        MOV AR1, T0
        B $C$L38  ; |1003| 
                                        ; branch occurs ; |1003| 
$C$L34:    
	.dwpsn	file "F:/eZdsp_DBG/eZDSP_5535_Files/ccsws2/test/c5535_bsl_revc/ezdsp5535_v1/c55xx_csl/inc/csl_mscAux.h",line 1006,column 5,is_stmt
        MOV *AR3(#308), AR1 ; |1006| 
        MOV *AR3(#308), AC1 ; |1006| 
        AND #0xff00, AR1, AC0 ; |1006| 
        BFXTR #0xff00, AC0, AC0 ; |1006| 
        OR AC1 << #8, AC0 ; |1006| 
        MOV AC0, *SP(#6) ; |1006| 
	.dwpsn	file "F:/eZdsp_DBG/eZDSP_5535_Files/ccsws2/test/c5535_bsl_revc/ezdsp5535_v1/c55xx_csl/inc/csl_mscAux.h",line 1010,column 5,is_stmt
        MOV dbl(*SP(#0)), XAR3
        MPYMK *SP(#4), #62, AC0 ; |1010| 
        MOV AC0, AR1 ; |1010| 
        AADD AR1, AR3 ; |1010| 
        MOV *AR3(#78), AR1 ; |1010| 
        BCC $C$L35,AR1 == #0 ; |1010| 
                                        ; branchcc occurs ; |1010| 
        MOV *SP(#6), AR1 ; |1010| 
        BCC $C$L36,AR1 != #0 ; |1010| 
                                        ; branchcc occurs ; |1010| 
$C$L35:    
	.dwpsn	file "F:/eZdsp_DBG/eZDSP_5535_Files/ccsws2/test/c5535_bsl_revc/ezdsp5535_v1/c55xx_csl/inc/csl_mscAux.h",line 1013,column 9,is_stmt
        MOV dbl(*SP(#0)), XAR3
        MOV #0, *AR3(#289) ; |1013| 
	.dwpsn	file "F:/eZdsp_DBG/eZDSP_5535_Files/ccsws2/test/c5535_bsl_revc/ezdsp5535_v1/c55xx_csl/inc/csl_mscAux.h",line 1014,column 5,is_stmt
        B $C$L37  ; |1014| 
                                        ; branch occurs ; |1014| 
$C$L36:    
	.dwpsn	file "F:/eZdsp_DBG/eZDSP_5535_Files/ccsws2/test/c5535_bsl_revc/ezdsp5535_v1/c55xx_csl/inc/csl_mscAux.h",line 1017,column 9,is_stmt
        MOV dbl(*SP(#0)), XAR3
        MOV #1, *AR3(#289) ; |1017| 
	.dwpsn	file "F:/eZdsp_DBG/eZDSP_5535_Files/ccsws2/test/c5535_bsl_revc/ezdsp5535_v1/c55xx_csl/inc/csl_mscAux.h",line 1018,column 9,is_stmt
        MOV dbl(*SP(#0)), XAR0
        MOV #29, T1 ; |1018| 
        AMAR *+AR0(#266) ; |1018| 
$C$DW$195	.dwtag  DW_TAG_TI_branch
	.dwattr $C$DW$195, DW_AT_low_pc(0x00)
	.dwattr $C$DW$195, DW_AT_name("_MSC_SetSenseKeys")
	.dwattr $C$DW$195, DW_AT_TI_call

        CALL #_MSC_SetSenseKeys ; |1018| 
||      MOV #14, T0

                                        ; call occurs [#_MSC_SetSenseKeys] ; |1018| 
$C$L37:    
	.dwpsn	file "F:/eZdsp_DBG/eZDSP_5535_Files/ccsws2/test/c5535_bsl_revc/ezdsp5535_v1/c55xx_csl/inc/csl_mscAux.h",line 1023,column 5,is_stmt
        MOV dbl(*SP(#0)), XAR3
        MOV #4, *AR3(#355) ; |1023| 
	.dwpsn	file "F:/eZdsp_DBG/eZDSP_5535_Files/ccsws2/test/c5535_bsl_revc/ezdsp5535_v1/c55xx_csl/inc/csl_mscAux.h",line 1024,column 5,is_stmt
        MOV dbl(*SP(#0)), XAR1
        MOV #13, T0
        MOV dbl(*SP(#2)), XAR0
        AMAR *+AR1(#282) ; |1024| 
$C$DW$196	.dwtag  DW_TAG_TI_branch
	.dwattr $C$DW$196, DW_AT_low_pc(0x00)
	.dwattr $C$DW$196, DW_AT_name("_USB_postTransaction")
	.dwattr $C$DW$196, DW_AT_TI_call

        CALL #_USB_postTransaction ; |1024| 
||      MOV #1, T1

                                        ; call occurs [#_USB_postTransaction] ; |1024| 
        MOV T0, *SP(#5) ; |1024| 
	.dwpsn	file "F:/eZdsp_DBG/eZDSP_5535_Files/ccsws2/test/c5535_bsl_revc/ezdsp5535_v1/c55xx_csl/inc/csl_mscAux.h",line 1027,column 2,is_stmt
$C$L38:    
	.dwpsn	file "F:/eZdsp_DBG/eZDSP_5535_Files/ccsws2/test/c5535_bsl_revc/ezdsp5535_v1/c55xx_csl/inc/csl_mscAux.h",line 1028,column 1,is_stmt
        AADD #7, SP
	.dwcfi	cfa_offset, 1
$C$DW$197	.dwtag  DW_TAG_TI_branch
	.dwattr $C$DW$197, DW_AT_low_pc(0x00)
	.dwattr $C$DW$197, DW_AT_TI_return
        RET
                                        ; return occurs
	.dwattr $C$DW$183, DW_AT_TI_end_file("F:/eZdsp_DBG/eZDSP_5535_Files/ccsws2/test/c5535_bsl_revc/ezdsp5535_v1/c55xx_csl/inc/csl_mscAux.h")
	.dwattr $C$DW$183, DW_AT_TI_end_line(0x404)
	.dwattr $C$DW$183, DW_AT_TI_end_column(0x01)
	.dwendentry
	.dwendtag $C$DW$183

	.sect	".text"
	.align 4

$C$DW$198	.dwtag  DW_TAG_subprogram, DW_AT_name("MSC_reqUnknown")
	.dwattr $C$DW$198, DW_AT_low_pc(_MSC_reqUnknown)
	.dwattr $C$DW$198, DW_AT_high_pc(0x00)
	.dwattr $C$DW$198, DW_AT_TI_symbol_name("_MSC_reqUnknown")
	.dwattr $C$DW$198, DW_AT_type(*$C$DW$T$42)
	.dwattr $C$DW$198, DW_AT_TI_begin_file("F:/eZdsp_DBG/eZDSP_5535_Files/ccsws2/test/c5535_bsl_revc/ezdsp5535_v1/c55xx_csl/inc/csl_mscAux.h")
	.dwattr $C$DW$198, DW_AT_TI_begin_line(0x43d)
	.dwattr $C$DW$198, DW_AT_TI_begin_column(0x13)
	.dwattr $C$DW$198, DW_AT_TI_max_frame_size(0x0c)
	.dwpsn	file "F:/eZdsp_DBG/eZDSP_5535_Files/ccsws2/test/c5535_bsl_revc/ezdsp5535_v1/c55xx_csl/inc/csl_mscAux.h",line 1090,column 1,is_stmt,address _MSC_reqUnknown

	.dwfde $C$DW$CIE, _MSC_reqUnknown
$C$DW$199	.dwtag  DW_TAG_formal_parameter, DW_AT_name("devNum")
	.dwattr $C$DW$199, DW_AT_TI_symbol_name("_devNum")
	.dwattr $C$DW$199, DW_AT_type(*$C$DW$T$24)
	.dwattr $C$DW$199, DW_AT_location[DW_OP_reg12]
$C$DW$200	.dwtag  DW_TAG_formal_parameter, DW_AT_name("usbSetup")
	.dwattr $C$DW$200, DW_AT_TI_symbol_name("_usbSetup")
	.dwattr $C$DW$200, DW_AT_type(*$C$DW$T$43)
	.dwattr $C$DW$200, DW_AT_location[DW_OP_reg17]
$C$DW$201	.dwtag  DW_TAG_formal_parameter, DW_AT_name("hInEp")
	.dwattr $C$DW$201, DW_AT_TI_symbol_name("_hInEp")
	.dwattr $C$DW$201, DW_AT_type(*$C$DW$T$27)
	.dwattr $C$DW$201, DW_AT_location[DW_OP_reg19]
$C$DW$202	.dwtag  DW_TAG_formal_parameter, DW_AT_name("hOutEp")
	.dwattr $C$DW$202, DW_AT_TI_symbol_name("_hOutEp")
	.dwattr $C$DW$202, DW_AT_type(*$C$DW$T$27)
	.dwattr $C$DW$202, DW_AT_location[DW_OP_reg21]
$C$DW$203	.dwtag  DW_TAG_formal_parameter, DW_AT_name("pMsc")
	.dwattr $C$DW$203, DW_AT_TI_symbol_name("_pMsc")
	.dwattr $C$DW$203, DW_AT_type(*$C$DW$T$3)
	.dwattr $C$DW$203, DW_AT_location[DW_OP_reg23]
;*******************************************************************************
;* FUNCTION NAME: MSC_reqUnknown                                               *
;*                                                                             *
;*   Function Uses Regs : T0,AR0,XAR0,AR1,XAR1,AR2,XAR2,AR3,XAR3,SP,M40,SATA,  *
;*                        SATD,RDM,FRCT,SMUL                                   *
;*   Stack Frame        : Compact (No Frame Pointer, w/ debug)                 *
;*   Total Frame Size   : 12 words                                             *
;*                        (1 return address/alignment)                         *
;*                        (11 local values)                                    *
;*   Min System Stack   : 1 word                                               *
;*******************************************************************************
_MSC_reqUnknown:
	.dwcfi	cfa_offset, 1
	.dwcfi	save_reg_to_mem, 91, -1
        AADD #-11, SP
	.dwcfi	cfa_offset, 12
$C$DW$204	.dwtag  DW_TAG_variable, DW_AT_name("devNum")
	.dwattr $C$DW$204, DW_AT_TI_symbol_name("_devNum")
	.dwattr $C$DW$204, DW_AT_type(*$C$DW$T$24)
	.dwattr $C$DW$204, DW_AT_location[DW_OP_bregx 0x24 0]
$C$DW$205	.dwtag  DW_TAG_variable, DW_AT_name("usbSetup")
	.dwattr $C$DW$205, DW_AT_TI_symbol_name("_usbSetup")
	.dwattr $C$DW$205, DW_AT_type(*$C$DW$T$43)
	.dwattr $C$DW$205, DW_AT_location[DW_OP_bregx 0x24 2]
$C$DW$206	.dwtag  DW_TAG_variable, DW_AT_name("hInEp")
	.dwattr $C$DW$206, DW_AT_TI_symbol_name("_hInEp")
	.dwattr $C$DW$206, DW_AT_type(*$C$DW$T$27)
	.dwattr $C$DW$206, DW_AT_location[DW_OP_bregx 0x24 4]
$C$DW$207	.dwtag  DW_TAG_variable, DW_AT_name("hOutEp")
	.dwattr $C$DW$207, DW_AT_TI_symbol_name("_hOutEp")
	.dwattr $C$DW$207, DW_AT_type(*$C$DW$T$27)
	.dwattr $C$DW$207, DW_AT_location[DW_OP_bregx 0x24 6]
$C$DW$208	.dwtag  DW_TAG_variable, DW_AT_name("pMsc")
	.dwattr $C$DW$208, DW_AT_TI_symbol_name("_pMsc")
	.dwattr $C$DW$208, DW_AT_type(*$C$DW$T$3)
	.dwattr $C$DW$208, DW_AT_location[DW_OP_bregx 0x24 8]
$C$DW$209	.dwtag  DW_TAG_variable, DW_AT_name("retStat")
	.dwattr $C$DW$209, DW_AT_TI_symbol_name("_retStat")
	.dwattr $C$DW$209, DW_AT_type(*$C$DW$T$42)
	.dwattr $C$DW$209, DW_AT_location[DW_OP_bregx 0x24 10]
        MOV XAR3, dbl(*SP(#8))
        MOV XAR2, dbl(*SP(#6))
        MOV XAR1, dbl(*SP(#4))
        MOV XAR0, dbl(*SP(#2))
        MOV T0, *SP(#0) ; |1090| 
	.dwpsn	file "F:/eZdsp_DBG/eZDSP_5535_Files/ccsws2/test/c5535_bsl_revc/ezdsp5535_v1/c55xx_csl/inc/csl_mscAux.h",line 1094,column 2,is_stmt
        MOV #1, *SP(#10) ; |1094| 
	.dwpsn	file "F:/eZdsp_DBG/eZDSP_5535_Files/ccsws2/test/c5535_bsl_revc/ezdsp5535_v1/c55xx_csl/inc/csl_mscAux.h",line 1096,column 2,is_stmt
        MOV *SP(#10), T0 ; |1096| 
	.dwpsn	file "F:/eZdsp_DBG/eZDSP_5535_Files/ccsws2/test/c5535_bsl_revc/ezdsp5535_v1/c55xx_csl/inc/csl_mscAux.h",line 1097,column 1,is_stmt
        AADD #11, SP
	.dwcfi	cfa_offset, 1
$C$DW$210	.dwtag  DW_TAG_TI_branch
	.dwattr $C$DW$210, DW_AT_low_pc(0x00)
	.dwattr $C$DW$210, DW_AT_TI_return
        RET
                                        ; return occurs
	.dwattr $C$DW$198, DW_AT_TI_end_file("F:/eZdsp_DBG/eZDSP_5535_Files/ccsws2/test/c5535_bsl_revc/ezdsp5535_v1/c55xx_csl/inc/csl_mscAux.h")
	.dwattr $C$DW$198, DW_AT_TI_end_line(0x449)
	.dwattr $C$DW$198, DW_AT_TI_end_column(0x01)
	.dwendentry
	.dwendtag $C$DW$198

	.sect	".text"
	.align 4

$C$DW$211	.dwtag  DW_TAG_subprogram, DW_AT_name("MSC_lookupReqHandler")
	.dwattr $C$DW$211, DW_AT_low_pc(_MSC_lookupReqHandler)
	.dwattr $C$DW$211, DW_AT_high_pc(0x00)
	.dwattr $C$DW$211, DW_AT_TI_symbol_name("_MSC_lookupReqHandler")
	.dwattr $C$DW$211, DW_AT_type(*$C$DW$T$93)
	.dwattr $C$DW$211, DW_AT_TI_begin_file("F:/eZdsp_DBG/eZDSP_5535_Files/ccsws2/test/c5535_bsl_revc/ezdsp5535_v1/c55xx_csl/inc/csl_mscAux.h")
	.dwattr $C$DW$211, DW_AT_TI_begin_line(0x47e)
	.dwattr $C$DW$211, DW_AT_TI_begin_column(0x13)
	.dwattr $C$DW$211, DW_AT_TI_max_frame_size(0x06)
	.dwpsn	file "F:/eZdsp_DBG/eZDSP_5535_Files/ccsws2/test/c5535_bsl_revc/ezdsp5535_v1/c55xx_csl/inc/csl_mscAux.h",line 1152,column 1,is_stmt,address _MSC_lookupReqHandler

	.dwfde $C$DW$CIE, _MSC_lookupReqHandler
$C$DW$212	.dwtag  DW_TAG_formal_parameter, DW_AT_name("request")
	.dwattr $C$DW$212, DW_AT_TI_symbol_name("_request")
	.dwattr $C$DW$212, DW_AT_type(*$C$DW$T$25)
	.dwattr $C$DW$212, DW_AT_location[DW_OP_reg12]
$C$DW$213	.dwtag  DW_TAG_formal_parameter, DW_AT_name("pUSB_ReqTable")
	.dwattr $C$DW$213, DW_AT_TI_symbol_name("_pUSB_ReqTable")
	.dwattr $C$DW$213, DW_AT_type(*$C$DW$T$40)
	.dwattr $C$DW$213, DW_AT_location[DW_OP_reg17]
;*******************************************************************************
;* FUNCTION NAME: MSC_lookupReqHandler                                         *
;*                                                                             *
;*   Function Uses Regs : AC0,AC0,T0,AR0,XAR0,AR1,AR2,AR3,XAR3,SP,CARRY,TC1,   *
;*                        M40,SATA,SATD,RDM,FRCT,SMUL                          *
;*   Stack Frame        : Compact (No Frame Pointer, w/ debug)                 *
;*   Total Frame Size   : 6 words                                              *
;*                        (1 return address/alignment)                         *
;*                        (5 local values)                                     *
;*   Min System Stack   : 1 word                                               *
;*******************************************************************************
_MSC_lookupReqHandler:
	.dwcfi	cfa_offset, 1
	.dwcfi	save_reg_to_mem, 91, -1
        AADD #-5, SP
	.dwcfi	cfa_offset, 6
$C$DW$214	.dwtag  DW_TAG_variable, DW_AT_name("request")
	.dwattr $C$DW$214, DW_AT_TI_symbol_name("_request")
	.dwattr $C$DW$214, DW_AT_type(*$C$DW$T$25)
	.dwattr $C$DW$214, DW_AT_location[DW_OP_bregx 0x24 0]
$C$DW$215	.dwtag  DW_TAG_variable, DW_AT_name("pUSB_ReqTable")
	.dwattr $C$DW$215, DW_AT_TI_symbol_name("_pUSB_ReqTable")
	.dwattr $C$DW$215, DW_AT_type(*$C$DW$T$40)
	.dwattr $C$DW$215, DW_AT_location[DW_OP_bregx 0x24 2]
$C$DW$216	.dwtag  DW_TAG_variable, DW_AT_name("index")
	.dwattr $C$DW$216, DW_AT_TI_symbol_name("_index")
	.dwattr $C$DW$216, DW_AT_type(*$C$DW$T$25)
	.dwattr $C$DW$216, DW_AT_location[DW_OP_bregx 0x24 4]
        MOV XAR0, dbl(*SP(#2))
        MOV T0, *SP(#0) ; |1152| 
	.dwpsn	file "F:/eZdsp_DBG/eZDSP_5535_Files/ccsws2/test/c5535_bsl_revc/ezdsp5535_v1/c55xx_csl/inc/csl_mscAux.h",line 1156,column 6,is_stmt
        MOV #0, *SP(#4) ; |1156| 
	.dwpsn	file "F:/eZdsp_DBG/eZDSP_5535_Files/ccsws2/test/c5535_bsl_revc/ezdsp5535_v1/c55xx_csl/inc/csl_mscAux.h",line 1156,column 17,is_stmt
        MOV dbl(*SP(#2)), XAR3
        MOV *SP(#4) << #2, AC0 ; |1156| 
        MOV AC0, AR1 ; |1156| 
        AADD AR1, AR3 ; |1156| 
        MOV dbl(*AR3(short(#2))), AC0 ; |1156| 
        BCC $C$L41,AC0 == #0 ; |1156| 
                                        ; branchcc occurs ; |1156| 
$C$L39:    
$C$DW$L$_MSC_lookupReqHandler$2$B:
	.dwpsn	file "F:/eZdsp_DBG/eZDSP_5535_Files/ccsws2/test/c5535_bsl_revc/ezdsp5535_v1/c55xx_csl/inc/csl_mscAux.h",line 1159,column 3,is_stmt
        MOV dbl(*SP(#2)), XAR3
        MOV *SP(#4) << #2, AC0 ; |1159| 
        MOV AC0, T0 ; |1159| 
        MOV *SP(#0), AR1 ; |1159| 
        MOV *AR3(T0), AR2 ; |1159| 
        CMPU AR2 != AR1, TC1 ; |1159| 
        BCC $C$L40,TC1 ; |1159| 
                                        ; branchcc occurs ; |1159| 
$C$DW$L$_MSC_lookupReqHandler$2$E:
	.dwpsn	file "F:/eZdsp_DBG/eZDSP_5535_Files/ccsws2/test/c5535_bsl_revc/ezdsp5535_v1/c55xx_csl/inc/csl_mscAux.h",line 1161,column 4,is_stmt
        MOV *SP(#4) << #2, AC0 ; |1161| 
        MOV AC0, AR1 ; |1161| 
        AADD AR1, AR3 ; |1161| 
        MOV dbl(*AR3(short(#2))), AC0 ; |1161| 
        B $C$L42  ; |1161| 
                                        ; branch occurs ; |1161| 
$C$L40:    
$C$DW$L$_MSC_lookupReqHandler$4$B:
	.dwpsn	file "F:/eZdsp_DBG/eZDSP_5535_Files/ccsws2/test/c5535_bsl_revc/ezdsp5535_v1/c55xx_csl/inc/csl_mscAux.h",line 1156,column 64,is_stmt
        ADD #1, *SP(#4) ; |1156| 
	.dwpsn	file "F:/eZdsp_DBG/eZDSP_5535_Files/ccsws2/test/c5535_bsl_revc/ezdsp5535_v1/c55xx_csl/inc/csl_mscAux.h",line 1156,column 17,is_stmt
        MOV dbl(*SP(#2)), XAR3
        MOV *SP(#4) << #2, AC0 ; |1156| 
        MOV AC0, AR1 ; |1156| 
        AADD AR1, AR3 ; |1156| 
        MOV dbl(*AR3(short(#2))), AC0 ; |1156| 
        BCC $C$L39,AC0 != #0 ; |1156| 
                                        ; branchcc occurs ; |1156| 
$C$DW$L$_MSC_lookupReqHandler$4$E:
$C$L41:    
	.dwpsn	file "F:/eZdsp_DBG/eZDSP_5535_Files/ccsws2/test/c5535_bsl_revc/ezdsp5535_v1/c55xx_csl/inc/csl_mscAux.h",line 1167,column 2,is_stmt
        MOV #(_MSC_reqUnknown >> 16) << #16, AC0 ; |1167| 
        OR #(_MSC_reqUnknown & 0xffff), AC0, AC0 ; |1167| 
$C$L42:    
	.dwpsn	file "F:/eZdsp_DBG/eZDSP_5535_Files/ccsws2/test/c5535_bsl_revc/ezdsp5535_v1/c55xx_csl/inc/csl_mscAux.h",line 1168,column 1,is_stmt
        AADD #5, SP
	.dwcfi	cfa_offset, 1
$C$DW$217	.dwtag  DW_TAG_TI_branch
	.dwattr $C$DW$217, DW_AT_low_pc(0x00)
	.dwattr $C$DW$217, DW_AT_TI_return
        RET
                                        ; return occurs

$C$DW$218	.dwtag  DW_TAG_TI_loop
	.dwattr $C$DW$218, DW_AT_name("F:\eZdsp_DBG\eZDSP_5535_Files\ccsws2\test\Debug\csl_msc.asm:$C$L39:1:1537612592")
	.dwattr $C$DW$218, DW_AT_TI_begin_file("F:/eZdsp_DBG/eZDSP_5535_Files/ccsws2/test/c5535_bsl_revc/ezdsp5535_v1/c55xx_csl/inc/csl_mscAux.h")
	.dwattr $C$DW$218, DW_AT_TI_begin_line(0x484)
	.dwattr $C$DW$218, DW_AT_TI_end_line(0x48b)
$C$DW$219	.dwtag  DW_TAG_TI_loop_range
	.dwattr $C$DW$219, DW_AT_low_pc($C$DW$L$_MSC_lookupReqHandler$2$B)
	.dwattr $C$DW$219, DW_AT_high_pc($C$DW$L$_MSC_lookupReqHandler$2$E)
$C$DW$220	.dwtag  DW_TAG_TI_loop_range
	.dwattr $C$DW$220, DW_AT_low_pc($C$DW$L$_MSC_lookupReqHandler$4$B)
	.dwattr $C$DW$220, DW_AT_high_pc($C$DW$L$_MSC_lookupReqHandler$4$E)
	.dwendtag $C$DW$218

	.dwattr $C$DW$211, DW_AT_TI_end_file("F:/eZdsp_DBG/eZDSP_5535_Files/ccsws2/test/c5535_bsl_revc/ezdsp5535_v1/c55xx_csl/inc/csl_mscAux.h")
	.dwattr $C$DW$211, DW_AT_TI_end_line(0x490)
	.dwattr $C$DW$211, DW_AT_TI_end_column(0x01)
	.dwendentry
	.dwendtag $C$DW$211

	.sect	".text"
	.align 4

$C$DW$221	.dwtag  DW_TAG_subprogram, DW_AT_name("MSC_verifyCBW")
	.dwattr $C$DW$221, DW_AT_low_pc(_MSC_verifyCBW)
	.dwattr $C$DW$221, DW_AT_high_pc(0x00)
	.dwattr $C$DW$221, DW_AT_TI_symbol_name("_MSC_verifyCBW")
	.dwattr $C$DW$221, DW_AT_type(*$C$DW$T$89)
	.dwattr $C$DW$221, DW_AT_TI_begin_file("F:/eZdsp_DBG/eZDSP_5535_Files/ccsws2/test/c5535_bsl_revc/ezdsp5535_v1/c55xx_csl/inc/csl_mscAux.h")
	.dwattr $C$DW$221, DW_AT_TI_begin_line(0x7ca)
	.dwattr $C$DW$221, DW_AT_TI_begin_column(0x0d)
	.dwattr $C$DW$221, DW_AT_TI_max_frame_size(0x0c)
	.dwpsn	file "F:/eZdsp_DBG/eZDSP_5535_Files/ccsws2/test/c5535_bsl_revc/ezdsp5535_v1/c55xx_csl/inc/csl_mscAux.h",line 1997,column 1,is_stmt,address _MSC_verifyCBW

	.dwfde $C$DW$CIE, _MSC_verifyCBW
$C$DW$222	.dwtag  DW_TAG_formal_parameter, DW_AT_name("pMscHandle")
	.dwattr $C$DW$222, DW_AT_TI_symbol_name("_pMscHandle")
	.dwattr $C$DW$222, DW_AT_type(*$C$DW$T$107)
	.dwattr $C$DW$222, DW_AT_location[DW_OP_reg17]
$C$DW$223	.dwtag  DW_TAG_formal_parameter, DW_AT_name("hUsbOutEp")
	.dwattr $C$DW$223, DW_AT_TI_symbol_name("_hUsbOutEp")
	.dwattr $C$DW$223, DW_AT_type(*$C$DW$T$27)
	.dwattr $C$DW$223, DW_AT_location[DW_OP_reg19]
$C$DW$224	.dwtag  DW_TAG_formal_parameter, DW_AT_name("hUsbInEp")
	.dwattr $C$DW$224, DW_AT_TI_symbol_name("_hUsbInEp")
	.dwattr $C$DW$224, DW_AT_type(*$C$DW$T$27)
	.dwattr $C$DW$224, DW_AT_location[DW_OP_reg21]
;*******************************************************************************
;* FUNCTION NAME: MSC_verifyCBW                                                *
;*                                                                             *
;*   Function Uses Regs : AC0,AC0,AC1,AC1,T0,AR0,XAR0,AR1,XAR1,AR2,XAR2,AR3,   *
;*                        XAR3,SP,TC1,M40,SATA,SATD,RDM,FRCT,SMUL              *
;*   Stack Frame        : Compact (No Frame Pointer, w/ debug)                 *
;*   Total Frame Size   : 12 words                                             *
;*                        (1 return address/alignment)                         *
;*                        (11 local values)                                    *
;*   Min System Stack   : 1 word                                               *
;*******************************************************************************
_MSC_verifyCBW:
	.dwcfi	cfa_offset, 1
	.dwcfi	save_reg_to_mem, 91, -1
        AADD #-11, SP
	.dwcfi	cfa_offset, 12
$C$DW$225	.dwtag  DW_TAG_variable, DW_AT_name("pMscHandle")
	.dwattr $C$DW$225, DW_AT_TI_symbol_name("_pMscHandle")
	.dwattr $C$DW$225, DW_AT_type(*$C$DW$T$107)
	.dwattr $C$DW$225, DW_AT_location[DW_OP_bregx 0x24 0]
$C$DW$226	.dwtag  DW_TAG_variable, DW_AT_name("hUsbOutEp")
	.dwattr $C$DW$226, DW_AT_TI_symbol_name("_hUsbOutEp")
	.dwattr $C$DW$226, DW_AT_type(*$C$DW$T$27)
	.dwattr $C$DW$226, DW_AT_location[DW_OP_bregx 0x24 2]
$C$DW$227	.dwtag  DW_TAG_variable, DW_AT_name("hUsbInEp")
	.dwattr $C$DW$227, DW_AT_TI_symbol_name("_hUsbInEp")
	.dwattr $C$DW$227, DW_AT_type(*$C$DW$T$27)
	.dwattr $C$DW$227, DW_AT_location[DW_OP_bregx 0x24 4]
$C$DW$228	.dwtag  DW_TAG_variable, DW_AT_name("cbwSignature")
	.dwattr $C$DW$228, DW_AT_TI_symbol_name("_cbwSignature")
	.dwattr $C$DW$228, DW_AT_type(*$C$DW$T$53)
	.dwattr $C$DW$228, DW_AT_location[DW_OP_bregx 0x24 6]
$C$DW$229	.dwtag  DW_TAG_variable, DW_AT_name("status")
	.dwattr $C$DW$229, DW_AT_TI_symbol_name("_status")
	.dwattr $C$DW$229, DW_AT_type(*$C$DW$T$89)
	.dwattr $C$DW$229, DW_AT_location[DW_OP_bregx 0x24 8]
$C$DW$230	.dwtag  DW_TAG_variable, DW_AT_name("cbwSize")
	.dwattr $C$DW$230, DW_AT_TI_symbol_name("_cbwSize")
	.dwattr $C$DW$230, DW_AT_type(*$C$DW$T$25)
	.dwattr $C$DW$230, DW_AT_location[DW_OP_bregx 0x24 9]
$C$DW$231	.dwtag  DW_TAG_variable, DW_AT_name("logicalUnit")
	.dwattr $C$DW$231, DW_AT_TI_symbol_name("_logicalUnit")
	.dwattr $C$DW$231, DW_AT_type(*$C$DW$T$25)
	.dwattr $C$DW$231, DW_AT_location[DW_OP_bregx 0x24 10]
        MOV XAR2, dbl(*SP(#4))
        MOV XAR1, dbl(*SP(#2))
        MOV XAR0, dbl(*SP(#0))
	.dwpsn	file "F:/eZdsp_DBG/eZDSP_5535_Files/ccsws2/test/c5535_bsl_revc/ezdsp5535_v1/c55xx_csl/inc/csl_mscAux.h",line 2003,column 2,is_stmt
        MOV #0, AC0 ; |2003| 
        MOV AC0, dbl(*SP(#6)) ; |2003| 
	.dwpsn	file "F:/eZdsp_DBG/eZDSP_5535_Files/ccsws2/test/c5535_bsl_revc/ezdsp5535_v1/c55xx_csl/inc/csl_mscAux.h",line 2004,column 2,is_stmt
        MOV #0, *SP(#8) ; |2004| 
	.dwpsn	file "F:/eZdsp_DBG/eZDSP_5535_Files/ccsws2/test/c5535_bsl_revc/ezdsp5535_v1/c55xx_csl/inc/csl_mscAux.h",line 2005,column 2,is_stmt
        MOV #0, *SP(#9) ; |2005| 
	.dwpsn	file "F:/eZdsp_DBG/eZDSP_5535_Files/ccsws2/test/c5535_bsl_revc/ezdsp5535_v1/c55xx_csl/inc/csl_mscAux.h",line 2006,column 2,is_stmt
        MOV #0, *SP(#10) ; |2006| 
	.dwpsn	file "F:/eZdsp_DBG/eZDSP_5535_Files/ccsws2/test/c5535_bsl_revc/ezdsp5535_v1/c55xx_csl/inc/csl_mscAux.h",line 2008,column 2,is_stmt
        MOV dbl(*SP(#0)), XAR3
        MOV XAR3, AC0
        BCC $C$L45,AC0 == #0 ; |2008| 
                                        ; branchcc occurs ; |2008| 
        MOV dbl(*SP(#2)), XAR3
        MOV XAR3, AC0
        BCC $C$L45,AC0 == #0 ; |2008| 
                                        ; branchcc occurs ; |2008| 
        MOV dbl(*SP(#4)), XAR3
        MOV XAR3, AC0
        BCC $C$L45,AC0 == #0 ; |2008| 
                                        ; branchcc occurs ; |2008| 
	.dwpsn	file "F:/eZdsp_DBG/eZDSP_5535_Files/ccsws2/test/c5535_bsl_revc/ezdsp5535_v1/c55xx_csl/inc/csl_mscAux.h",line 2010,column 3,is_stmt
        MOV dbl(*SP(#0)), XAR2
        MOV dbl(*SP(#0)), XAR3
        MOV *AR2(#298), AR1 ; |2010| 
        MOV AR1, HI(AC0) ; |2010| 
        OR *AR3(#297), AC0, AC0 ; |2010| 
        MOV AC0, dbl(*SP(#6)) ; |2010| 
	.dwpsn	file "F:/eZdsp_DBG/eZDSP_5535_Files/ccsws2/test/c5535_bsl_revc/ezdsp5535_v1/c55xx_csl/inc/csl_mscAux.h",line 2014,column 3,is_stmt
        MOV dbl(*SP(#6)), AC1 ; |2014| 
        MOV #17218 << #16, AC0 ; |2014| 
        OR #0x5355, AC0, AC0 ; |2014| 
        CMPU AC1 == AC0, TC1 ; |2014| 
        BCC $C$L43,TC1 ; |2014| 
                                        ; branchcc occurs ; |2014| 
	.dwpsn	file "F:/eZdsp_DBG/eZDSP_5535_Files/ccsws2/test/c5535_bsl_revc/ezdsp5535_v1/c55xx_csl/inc/csl_mscAux.h",line 2016,column 4,is_stmt
        MOV #-1, *SP(#8) ; |2016| 
	.dwpsn	file "F:/eZdsp_DBG/eZDSP_5535_Files/ccsws2/test/c5535_bsl_revc/ezdsp5535_v1/c55xx_csl/inc/csl_mscAux.h",line 2017,column 3,is_stmt
        B $C$L46  ; |2017| 
                                        ; branch occurs ; |2017| 
$C$L43:    
	.dwpsn	file "F:/eZdsp_DBG/eZDSP_5535_Files/ccsws2/test/c5535_bsl_revc/ezdsp5535_v1/c55xx_csl/inc/csl_mscAux.h",line 2020,column 4,is_stmt
        MOV dbl(*SP(#2)), XAR0
$C$DW$232	.dwtag  DW_TAG_TI_branch
	.dwattr $C$DW$232, DW_AT_low_pc(0x00)
	.dwattr $C$DW$232, DW_AT_name("_USB_getDataCountReadFromFifo")
	.dwattr $C$DW$232, DW_AT_TI_call
        CALL #_USB_getDataCountReadFromFifo ; |2020| 
                                        ; call occurs [#_USB_getDataCountReadFromFifo] ; |2020| 
        MOV T0, *SP(#9) ; |2020| 
	.dwpsn	file "F:/eZdsp_DBG/eZDSP_5535_Files/ccsws2/test/c5535_bsl_revc/ezdsp5535_v1/c55xx_csl/inc/csl_mscAux.h",line 2021,column 4,is_stmt
        CMP *SP(#9) == #31, TC1 ; |2021| 
        BCC $C$L44,TC1 ; |2021| 
                                        ; branchcc occurs ; |2021| 
	.dwpsn	file "F:/eZdsp_DBG/eZDSP_5535_Files/ccsws2/test/c5535_bsl_revc/ezdsp5535_v1/c55xx_csl/inc/csl_mscAux.h",line 2023,column 5,is_stmt
        MOV #-1, *SP(#8) ; |2023| 
	.dwpsn	file "F:/eZdsp_DBG/eZDSP_5535_Files/ccsws2/test/c5535_bsl_revc/ezdsp5535_v1/c55xx_csl/inc/csl_mscAux.h",line 2024,column 4,is_stmt
        B $C$L46  ; |2024| 
                                        ; branch occurs ; |2024| 
$C$L44:    
	.dwpsn	file "F:/eZdsp_DBG/eZDSP_5535_Files/ccsws2/test/c5535_bsl_revc/ezdsp5535_v1/c55xx_csl/inc/csl_mscAux.h",line 2028,column 5,is_stmt
        MOV dbl(*SP(#0)), XAR3
        MOV uns(high_byte(*AR3(#303))), AR1 ; |2028| 
        MOV AR1, *SP(#10) ; |2028| 
	.dwpsn	file "F:/eZdsp_DBG/eZDSP_5535_Files/ccsws2/test/c5535_bsl_revc/ezdsp5535_v1/c55xx_csl/inc/csl_mscAux.h",line 2030,column 5,is_stmt
        MOV dbl(*SP(#0)), XAR3
        MOV *SP(#10), AR2 ; |2030| 
        MOV *AR3(#354), AR1 ; |2030| 
        CMPU AR2 <= AR1, TC1 ; |2030| 
        BCC $C$L46,TC1 ; |2030| 
                                        ; branchcc occurs ; |2030| 
	.dwpsn	file "F:/eZdsp_DBG/eZDSP_5535_Files/ccsws2/test/c5535_bsl_revc/ezdsp5535_v1/c55xx_csl/inc/csl_mscAux.h",line 2032,column 6,is_stmt
        MOV #-1, *SP(#8) ; |2032| 
	.dwpsn	file "F:/eZdsp_DBG/eZDSP_5535_Files/ccsws2/test/c5535_bsl_revc/ezdsp5535_v1/c55xx_csl/inc/csl_mscAux.h",line 2036,column 2,is_stmt
        B $C$L46  ; |2036| 
                                        ; branch occurs ; |2036| 
$C$L45:    
	.dwpsn	file "F:/eZdsp_DBG/eZDSP_5535_Files/ccsws2/test/c5535_bsl_revc/ezdsp5535_v1/c55xx_csl/inc/csl_mscAux.h",line 2039,column 3,is_stmt
        MOV #-1, *SP(#8) ; |2039| 
$C$L46:    
	.dwpsn	file "F:/eZdsp_DBG/eZDSP_5535_Files/ccsws2/test/c5535_bsl_revc/ezdsp5535_v1/c55xx_csl/inc/csl_mscAux.h",line 2042,column 2,is_stmt
        MOV *SP(#8), T0 ; |2042| 
	.dwpsn	file "F:/eZdsp_DBG/eZDSP_5535_Files/ccsws2/test/c5535_bsl_revc/ezdsp5535_v1/c55xx_csl/inc/csl_mscAux.h",line 2043,column 1,is_stmt
        AADD #11, SP
	.dwcfi	cfa_offset, 1
$C$DW$233	.dwtag  DW_TAG_TI_branch
	.dwattr $C$DW$233, DW_AT_low_pc(0x00)
	.dwattr $C$DW$233, DW_AT_TI_return
        RET
                                        ; return occurs
	.dwattr $C$DW$221, DW_AT_TI_end_file("F:/eZdsp_DBG/eZDSP_5535_Files/ccsws2/test/c5535_bsl_revc/ezdsp5535_v1/c55xx_csl/inc/csl_mscAux.h")
	.dwattr $C$DW$221, DW_AT_TI_end_line(0x7fb)
	.dwattr $C$DW$221, DW_AT_TI_end_column(0x01)
	.dwendentry
	.dwendtag $C$DW$221

	.sect	".text"
	.align 4
	.global	_MSC_Open

$C$DW$234	.dwtag  DW_TAG_subprogram, DW_AT_name("MSC_Open")
	.dwattr $C$DW$234, DW_AT_low_pc(_MSC_Open)
	.dwattr $C$DW$234, DW_AT_high_pc(0x00)
	.dwattr $C$DW$234, DW_AT_TI_symbol_name("_MSC_Open")
	.dwattr $C$DW$234, DW_AT_external
	.dwattr $C$DW$234, DW_AT_type(*$C$DW$T$89)
	.dwattr $C$DW$234, DW_AT_TI_begin_file("../c5535_bsl_revc/ezdsp5535_v1/c55xx_csl/src/csl_msc.c")
	.dwattr $C$DW$234, DW_AT_TI_begin_line(0x4d)
	.dwattr $C$DW$234, DW_AT_TI_begin_column(0x0c)
	.dwattr $C$DW$234, DW_AT_TI_max_frame_size(0x04)
	.dwpsn	file "../c5535_bsl_revc/ezdsp5535_v1/c55xx_csl/src/csl_msc.c",line 78,column 1,is_stmt,address _MSC_Open

	.dwfde $C$DW$CIE, _MSC_Open
$C$DW$235	.dwtag  DW_TAG_formal_parameter, DW_AT_name("pAppClassHandle")
	.dwattr $C$DW$235, DW_AT_TI_symbol_name("_pAppClassHandle")
	.dwattr $C$DW$235, DW_AT_type(*$C$DW$T$102)
	.dwattr $C$DW$235, DW_AT_location[DW_OP_reg17]
;*******************************************************************************
;* FUNCTION NAME: MSC_Open                                                     *
;*                                                                             *
;*   Function Uses Regs : AC0,AC0,T0,AR0,XAR0,AR3,XAR3,SP,M40,SATA,SATD,RDM,   *
;*                        FRCT,SMUL                                            *
;*   Stack Frame        : Compact (No Frame Pointer, w/ debug)                 *
;*   Total Frame Size   : 4 words                                              *
;*                        (1 return address/alignment)                         *
;*                        (3 local values)                                     *
;*   Min System Stack   : 1 word                                               *
;*******************************************************************************
_MSC_Open:
	.dwcfi	cfa_offset, 1
	.dwcfi	save_reg_to_mem, 91, -1
        AADD #-3, SP
	.dwcfi	cfa_offset, 4
$C$DW$236	.dwtag  DW_TAG_variable, DW_AT_name("pAppClassHandle")
	.dwattr $C$DW$236, DW_AT_TI_symbol_name("_pAppClassHandle")
	.dwattr $C$DW$236, DW_AT_type(*$C$DW$T$102)
	.dwattr $C$DW$236, DW_AT_location[DW_OP_bregx 0x24 0]
$C$DW$237	.dwtag  DW_TAG_variable, DW_AT_name("status")
	.dwattr $C$DW$237, DW_AT_TI_symbol_name("_status")
	.dwattr $C$DW$237, DW_AT_type(*$C$DW$T$89)
	.dwattr $C$DW$237, DW_AT_location[DW_OP_bregx 0x24 2]
        MOV XAR0, dbl(*SP(#0))
	.dwpsn	file "../c5535_bsl_revc/ezdsp5535_v1/c55xx_csl/src/csl_msc.c",line 81,column 2,is_stmt
        MOV #0, *SP(#2) ; |81| 
	.dwpsn	file "../c5535_bsl_revc/ezdsp5535_v1/c55xx_csl/src/csl_msc.c",line 83,column 2,is_stmt
        MOV dbl(*SP(#0)), XAR3
        MOV XAR3, AC0
        BCC $C$L47,AC0 == #0 ; |83| 
                                        ; branchcc occurs ; |83| 
	.dwpsn	file "../c5535_bsl_revc/ezdsp5535_v1/c55xx_csl/src/csl_msc.c",line 85,column 3,is_stmt
        MOV dbl(*SP(#0)), XAR0
$C$DW$238	.dwtag  DW_TAG_TI_branch
	.dwattr $C$DW$238, DW_AT_low_pc(0x00)
	.dwattr $C$DW$238, DW_AT_name("_MSC_Setup")
	.dwattr $C$DW$238, DW_AT_TI_call

        CALL #_MSC_Setup ; |85| 
||      MOV #1, T0

                                        ; call occurs [#_MSC_Setup] ; |85| 
        MOV T0, *SP(#2) ; |85| 
	.dwpsn	file "../c5535_bsl_revc/ezdsp5535_v1/c55xx_csl/src/csl_msc.c",line 86,column 2,is_stmt
        B $C$L48  ; |86| 
                                        ; branch occurs ; |86| 
$C$L47:    
	.dwpsn	file "../c5535_bsl_revc/ezdsp5535_v1/c55xx_csl/src/csl_msc.c",line 89,column 3,is_stmt
        MOV #-5, *SP(#2) ; |89| 
$C$L48:    
	.dwpsn	file "../c5535_bsl_revc/ezdsp5535_v1/c55xx_csl/src/csl_msc.c",line 92,column 2,is_stmt
        MOV *SP(#2), T0 ; |92| 
	.dwpsn	file "../c5535_bsl_revc/ezdsp5535_v1/c55xx_csl/src/csl_msc.c",line 93,column 1,is_stmt
        AADD #3, SP
	.dwcfi	cfa_offset, 1
$C$DW$239	.dwtag  DW_TAG_TI_branch
	.dwattr $C$DW$239, DW_AT_low_pc(0x00)
	.dwattr $C$DW$239, DW_AT_TI_return
        RET
                                        ; return occurs
	.dwattr $C$DW$234, DW_AT_TI_end_file("../c5535_bsl_revc/ezdsp5535_v1/c55xx_csl/src/csl_msc.c")
	.dwattr $C$DW$234, DW_AT_TI_end_line(0x5d)
	.dwattr $C$DW$234, DW_AT_TI_end_column(0x01)
	.dwendentry
	.dwendtag $C$DW$234

	.sect	".text"
	.align 4
	.global	_MSC_OpenFullspeed

$C$DW$240	.dwtag  DW_TAG_subprogram, DW_AT_name("MSC_OpenFullspeed")
	.dwattr $C$DW$240, DW_AT_low_pc(_MSC_OpenFullspeed)
	.dwattr $C$DW$240, DW_AT_high_pc(0x00)
	.dwattr $C$DW$240, DW_AT_TI_symbol_name("_MSC_OpenFullspeed")
	.dwattr $C$DW$240, DW_AT_external
	.dwattr $C$DW$240, DW_AT_type(*$C$DW$T$89)
	.dwattr $C$DW$240, DW_AT_TI_begin_file("../c5535_bsl_revc/ezdsp5535_v1/c55xx_csl/src/csl_msc.c")
	.dwattr $C$DW$240, DW_AT_TI_begin_line(0x8d)
	.dwattr $C$DW$240, DW_AT_TI_begin_column(0x0c)
	.dwattr $C$DW$240, DW_AT_TI_max_frame_size(0x04)
	.dwpsn	file "../c5535_bsl_revc/ezdsp5535_v1/c55xx_csl/src/csl_msc.c",line 142,column 1,is_stmt,address _MSC_OpenFullspeed

	.dwfde $C$DW$CIE, _MSC_OpenFullspeed
$C$DW$241	.dwtag  DW_TAG_formal_parameter, DW_AT_name("pAppClassHandle")
	.dwattr $C$DW$241, DW_AT_TI_symbol_name("_pAppClassHandle")
	.dwattr $C$DW$241, DW_AT_type(*$C$DW$T$102)
	.dwattr $C$DW$241, DW_AT_location[DW_OP_reg17]
;*******************************************************************************
;* FUNCTION NAME: MSC_OpenFullspeed                                            *
;*                                                                             *
;*   Function Uses Regs : AC0,AC0,T0,AR0,XAR0,AR3,XAR3,SP,M40,SATA,SATD,RDM,   *
;*                        FRCT,SMUL                                            *
;*   Stack Frame        : Compact (No Frame Pointer, w/ debug)                 *
;*   Total Frame Size   : 4 words                                              *
;*                        (1 return address/alignment)                         *
;*                        (3 local values)                                     *
;*   Min System Stack   : 1 word                                               *
;*******************************************************************************
_MSC_OpenFullspeed:
	.dwcfi	cfa_offset, 1
	.dwcfi	save_reg_to_mem, 91, -1
        AADD #-3, SP
	.dwcfi	cfa_offset, 4
$C$DW$242	.dwtag  DW_TAG_variable, DW_AT_name("pAppClassHandle")
	.dwattr $C$DW$242, DW_AT_TI_symbol_name("_pAppClassHandle")
	.dwattr $C$DW$242, DW_AT_type(*$C$DW$T$102)
	.dwattr $C$DW$242, DW_AT_location[DW_OP_bregx 0x24 0]
$C$DW$243	.dwtag  DW_TAG_variable, DW_AT_name("status")
	.dwattr $C$DW$243, DW_AT_TI_symbol_name("_status")
	.dwattr $C$DW$243, DW_AT_type(*$C$DW$T$89)
	.dwattr $C$DW$243, DW_AT_location[DW_OP_bregx 0x24 2]
        MOV XAR0, dbl(*SP(#0))
	.dwpsn	file "../c5535_bsl_revc/ezdsp5535_v1/c55xx_csl/src/csl_msc.c",line 145,column 2,is_stmt
        MOV #0, *SP(#2) ; |145| 
	.dwpsn	file "../c5535_bsl_revc/ezdsp5535_v1/c55xx_csl/src/csl_msc.c",line 147,column 2,is_stmt
        MOV dbl(*SP(#0)), XAR3
        MOV XAR3, AC0
        BCC $C$L49,AC0 == #0 ; |147| 
                                        ; branchcc occurs ; |147| 
	.dwpsn	file "../c5535_bsl_revc/ezdsp5535_v1/c55xx_csl/src/csl_msc.c",line 149,column 3,is_stmt
        MOV dbl(*SP(#0)), XAR0
$C$DW$244	.dwtag  DW_TAG_TI_branch
	.dwattr $C$DW$244, DW_AT_low_pc(0x00)
	.dwattr $C$DW$244, DW_AT_name("_MSC_Setup")
	.dwattr $C$DW$244, DW_AT_TI_call

        CALL #_MSC_Setup ; |149| 
||      MOV #0, T0

                                        ; call occurs [#_MSC_Setup] ; |149| 
        MOV T0, *SP(#2) ; |149| 
	.dwpsn	file "../c5535_bsl_revc/ezdsp5535_v1/c55xx_csl/src/csl_msc.c",line 150,column 3,is_stmt
        MOV #64, T0 ; |150| 
$C$DW$245	.dwtag  DW_TAG_TI_branch
	.dwattr $C$DW$245, DW_AT_low_pc(0x00)
	.dwattr $C$DW$245, DW_AT_name("_USB_setFullSpeedMode")
	.dwattr $C$DW$245, DW_AT_TI_call
        CALL #_USB_setFullSpeedMode ; |150| 
                                        ; call occurs [#_USB_setFullSpeedMode] ; |150| 
	.dwpsn	file "../c5535_bsl_revc/ezdsp5535_v1/c55xx_csl/src/csl_msc.c",line 151,column 2,is_stmt
        B $C$L50  ; |151| 
                                        ; branch occurs ; |151| 
$C$L49:    
	.dwpsn	file "../c5535_bsl_revc/ezdsp5535_v1/c55xx_csl/src/csl_msc.c",line 154,column 3,is_stmt
        MOV #-5, *SP(#2) ; |154| 
$C$L50:    
	.dwpsn	file "../c5535_bsl_revc/ezdsp5535_v1/c55xx_csl/src/csl_msc.c",line 157,column 2,is_stmt
        MOV *SP(#2), T0 ; |157| 
	.dwpsn	file "../c5535_bsl_revc/ezdsp5535_v1/c55xx_csl/src/csl_msc.c",line 158,column 1,is_stmt
        AADD #3, SP
	.dwcfi	cfa_offset, 1
$C$DW$246	.dwtag  DW_TAG_TI_branch
	.dwattr $C$DW$246, DW_AT_low_pc(0x00)
	.dwattr $C$DW$246, DW_AT_TI_return
        RET
                                        ; return occurs
	.dwattr $C$DW$240, DW_AT_TI_end_file("../c5535_bsl_revc/ezdsp5535_v1/c55xx_csl/src/csl_msc.c")
	.dwattr $C$DW$240, DW_AT_TI_end_line(0x9e)
	.dwattr $C$DW$240, DW_AT_TI_end_column(0x01)
	.dwendentry
	.dwendtag $C$DW$240

	.sect	".text"
	.align 4

$C$DW$247	.dwtag  DW_TAG_subprogram, DW_AT_name("MSC_Setup")
	.dwattr $C$DW$247, DW_AT_low_pc(_MSC_Setup)
	.dwattr $C$DW$247, DW_AT_high_pc(0x00)
	.dwattr $C$DW$247, DW_AT_TI_symbol_name("_MSC_Setup")
	.dwattr $C$DW$247, DW_AT_type(*$C$DW$T$89)
	.dwattr $C$DW$247, DW_AT_TI_begin_file("../c5535_bsl_revc/ezdsp5535_v1/c55xx_csl/src/csl_msc.c")
	.dwattr $C$DW$247, DW_AT_TI_begin_line(0xd0)
	.dwattr $C$DW$247, DW_AT_TI_begin_column(0x13)
	.dwattr $C$DW$247, DW_AT_TI_max_frame_size(0x0c)
	.dwpsn	file "../c5535_bsl_revc/ezdsp5535_v1/c55xx_csl/src/csl_msc.c",line 210,column 1,is_stmt,address _MSC_Setup

	.dwfde $C$DW$CIE, _MSC_Setup
$C$DW$248	.dwtag  DW_TAG_formal_parameter, DW_AT_name("pAppClassHandle")
	.dwattr $C$DW$248, DW_AT_TI_symbol_name("_pAppClassHandle")
	.dwattr $C$DW$248, DW_AT_type(*$C$DW$T$102)
	.dwattr $C$DW$248, DW_AT_location[DW_OP_reg17]
$C$DW$249	.dwtag  DW_TAG_formal_parameter, DW_AT_name("usbSpeedCfg")
	.dwattr $C$DW$249, DW_AT_TI_symbol_name("_usbSpeedCfg")
	.dwattr $C$DW$249, DW_AT_type(*$C$DW$T$46)
	.dwattr $C$DW$249, DW_AT_location[DW_OP_reg12]
;*******************************************************************************
;* FUNCTION NAME: MSC_Setup                                                    *
;*                                                                             *
;*   Function Uses Regs : AC0,AC0,AC1,AC1,T0,T1,AR0,XAR0,AR1,AR2,XAR2,AR3,XAR3,*
;*                        SP,CARRY,TC1,M40,SATA,SATD,RDM,FRCT,SMUL             *
;*   Stack Frame        : Compact (No Frame Pointer, w/ debug)                 *
;*   Total Frame Size   : 12 words                                             *
;*                        (1 return address/alignment)                         *
;*                        (11 local values)                                    *
;*   Min System Stack   : 1 word                                               *
;*******************************************************************************
_MSC_Setup:
	.dwcfi	cfa_offset, 1
	.dwcfi	save_reg_to_mem, 91, -1
        AADD #-11, SP
	.dwcfi	cfa_offset, 12
$C$DW$250	.dwtag  DW_TAG_variable, DW_AT_name("pAppClassHandle")
	.dwattr $C$DW$250, DW_AT_TI_symbol_name("_pAppClassHandle")
	.dwattr $C$DW$250, DW_AT_type(*$C$DW$T$102)
	.dwattr $C$DW$250, DW_AT_location[DW_OP_bregx 0x24 0]
$C$DW$251	.dwtag  DW_TAG_variable, DW_AT_name("usbSpeedCfg")
	.dwattr $C$DW$251, DW_AT_TI_symbol_name("_usbSpeedCfg")
	.dwattr $C$DW$251, DW_AT_type(*$C$DW$T$46)
	.dwattr $C$DW$251, DW_AT_location[DW_OP_bregx 0x24 2]
$C$DW$252	.dwtag  DW_TAG_variable, DW_AT_name("pHandle")
	.dwattr $C$DW$252, DW_AT_TI_symbol_name("_pHandle")
	.dwattr $C$DW$252, DW_AT_type(*$C$DW$T$98)
	.dwattr $C$DW$252, DW_AT_location[DW_OP_bregx 0x24 4]
$C$DW$253	.dwtag  DW_TAG_variable, DW_AT_name("mediaStatus")
	.dwattr $C$DW$253, DW_AT_TI_symbol_name("_mediaStatus")
	.dwattr $C$DW$253, DW_AT_type(*$C$DW$T$52)
	.dwattr $C$DW$253, DW_AT_location[DW_OP_bregx 0x24 6]
$C$DW$254	.dwtag  DW_TAG_variable, DW_AT_name("status")
	.dwattr $C$DW$254, DW_AT_TI_symbol_name("_status")
	.dwattr $C$DW$254, DW_AT_type(*$C$DW$T$89)
	.dwattr $C$DW$254, DW_AT_location[DW_OP_bregx 0x24 7]
$C$DW$255	.dwtag  DW_TAG_variable, DW_AT_name("initLun")
	.dwattr $C$DW$255, DW_AT_TI_symbol_name("_initLun")
	.dwattr $C$DW$255, DW_AT_type(*$C$DW$T$25)
	.dwattr $C$DW$255, DW_AT_location[DW_OP_bregx 0x24 8]
$C$DW$256	.dwtag  DW_TAG_variable, DW_AT_name("eventMask")
	.dwattr $C$DW$256, DW_AT_TI_symbol_name("_eventMask")
	.dwattr $C$DW$256, DW_AT_type(*$C$DW$T$25)
	.dwattr $C$DW$256, DW_AT_location[DW_OP_bregx 0x24 9]
$C$DW$257	.dwtag  DW_TAG_variable, DW_AT_name("maxPktSize")
	.dwattr $C$DW$257, DW_AT_TI_symbol_name("_maxPktSize")
	.dwattr $C$DW$257, DW_AT_type(*$C$DW$T$25)
	.dwattr $C$DW$257, DW_AT_location[DW_OP_bregx 0x24 10]
        MOV T0, *SP(#2) ; |210| 
        MOV XAR0, dbl(*SP(#0))
	.dwpsn	file "../c5535_bsl_revc/ezdsp5535_v1/c55xx_csl/src/csl_msc.c",line 218,column 2,is_stmt
        MOV #0, *SP(#7) ; |218| 
	.dwpsn	file "../c5535_bsl_revc/ezdsp5535_v1/c55xx_csl/src/csl_msc.c",line 219,column 2,is_stmt
        MOV dbl(*SP(#0)), XAR3
        MOV dbl(*AR3), XAR3
        MOV XAR3, dbl(*SP(#4))
	.dwpsn	file "../c5535_bsl_revc/ezdsp5535_v1/c55xx_csl/src/csl_msc.c",line 221,column 2,is_stmt
        MOV dbl(*SP(#0)), XAR3
        MOV XAR3, AC0
        BCC $C$L60,AC0 == #0 ; |221| 
                                        ; branchcc occurs ; |221| 
	.dwpsn	file "../c5535_bsl_revc/ezdsp5535_v1/c55xx_csl/src/csl_msc.c",line 224,column 3,is_stmt
        MOV *AR3(short(#4)), AR1 ; |224| 
        BCC $C$L51,AR1 == #0 ; |224| 
                                        ; branchcc occurs ; |224| 
	.dwpsn	file "../c5535_bsl_revc/ezdsp5535_v1/c55xx_csl/src/csl_msc.c",line 226,column 4,is_stmt
        MOV *AR3(short(#4)), AR1 ; |226| 
        MOV dbl(*SP(#4)), XAR3
        SUB #1, AR1 ; |226| 
        MOV AR1, *AR3(#536) ; |226| 
$C$L51:    
	.dwpsn	file "../c5535_bsl_revc/ezdsp5535_v1/c55xx_csl/src/csl_msc.c",line 228,column 3,is_stmt
        MOV dbl(*SP(#4)), XAR3
        MOV #0, *AR3(#20) ; |228| 
	.dwpsn	file "../c5535_bsl_revc/ezdsp5535_v1/c55xx_csl/src/csl_msc.c",line 231,column 3,is_stmt
        MOV dbl(*SP(#4)), XAR3
        MOV #0, *AR3(#42) ; |231| 
	.dwpsn	file "../c5535_bsl_revc/ezdsp5535_v1/c55xx_csl/src/csl_msc.c",line 232,column 3,is_stmt
        MOV dbl(*SP(#4)), XAR3
        MOV #0, *AR3(#150) ; |232| 
	.dwpsn	file "../c5535_bsl_revc/ezdsp5535_v1/c55xx_csl/src/csl_msc.c",line 235,column 3,is_stmt
        MOV dbl(*SP(#4)), XAR3
        MOV dbl(*SP(#4)), XAR2
        AADD #22, AR3 ; |235| 
        MOV XAR3, dbl(*AR2(#44))
	.dwpsn	file "../c5535_bsl_revc/ezdsp5535_v1/c55xx_csl/src/csl_msc.c",line 236,column 3,is_stmt
        MOV dbl(*SP(#4)), XAR2
        MOV dbl(*SP(#4)), XAR3
        MOV XAR3, dbl(*AR2(#46))
	.dwpsn	file "../c5535_bsl_revc/ezdsp5535_v1/c55xx_csl/src/csl_msc.c",line 237,column 3,is_stmt
        MOV dbl(*SP(#4)), XAR3
        MOV dbl(*SP(#4)), XAR2
        AMAR *+AR3(#516) ; |237| 
        MOV XAR3, dbl(*AR2(#48))
	.dwpsn	file "../c5535_bsl_revc/ezdsp5535_v1/c55xx_csl/src/csl_msc.c",line 238,column 3,is_stmt
        MOV dbl(*SP(#4)), XAR3
        MOV dbl(*SP(#4)), XAR2
        AMAR *+AR3(#496) ; |238| 
        MOV XAR3, dbl(*AR2(#50))
	.dwpsn	file "../c5535_bsl_revc/ezdsp5535_v1/c55xx_csl/src/csl_msc.c",line 239,column 3,is_stmt
        MOV dbl(*SP(#4)), XAR3
        MOV #0, AC0 ; |239| 
        MOV AC0, dbl(*AR3(#52))
	.dwpsn	file "../c5535_bsl_revc/ezdsp5535_v1/c55xx_csl/src/csl_msc.c",line 242,column 3,is_stmt
        MOV dbl(*SP(#0)), XAR3
        MOV dbl(*SP(#4)), XAR2
        MOV dbl(*AR3(short(#6))), XAR3
        AMAR *+AR2(#146) ; |242| 
        MOV XAR2, dbl(*AR3)
	.dwpsn	file "../c5535_bsl_revc/ezdsp5535_v1/c55xx_csl/src/csl_msc.c",line 245,column 3,is_stmt
        MOV dbl(*SP(#0)), XAR3
        MOV dbl(*SP(#4)), XAR2
        MOV dbl(*AR3(short(#6))), XAR3
        MOV XAR3, dbl(*AR2(#170))
	.dwpsn	file "../c5535_bsl_revc/ezdsp5535_v1/c55xx_csl/src/csl_msc.c",line 246,column 3,is_stmt
        MOV dbl(*SP(#0)), XAR3
        MOV dbl(*SP(#4)), XAR2
        MOV dbl(*AR3(#10)), XAR3
        MOV XAR3, dbl(*AR2(#172))
	.dwpsn	file "../c5535_bsl_revc/ezdsp5535_v1/c55xx_csl/src/csl_msc.c",line 247,column 3,is_stmt
        MOV dbl(*SP(#4)), XAR3
        MOV *SP(#2), AR1 ; |247| 
        MOV AR1, *AR3(#176) ; |247| 
	.dwpsn	file "../c5535_bsl_revc/ezdsp5535_v1/c55xx_csl/src/csl_msc.c",line 250,column 3,is_stmt
        MOV dbl(*SP(#4)), XAR0
$C$DW$258	.dwtag  DW_TAG_TI_branch
	.dwattr $C$DW$258, DW_AT_low_pc(0x00)
	.dwattr $C$DW$258, DW_AT_name("_MSC_initCtrlDesc")
	.dwattr $C$DW$258, DW_AT_TI_call
        CALL #_MSC_initCtrlDesc ; |250| 
                                        ; call occurs [#_MSC_initCtrlDesc] ; |250| 
        MOV T0, *SP(#7) ; |250| 
	.dwpsn	file "../c5535_bsl_revc/ezdsp5535_v1/c55xx_csl/src/csl_msc.c",line 251,column 3,is_stmt
        MOV T0, AR1
        BCC $C$L62,AR1 != #0 ; |251| 
                                        ; branchcc occurs ; |251| 
	.dwpsn	file "../c5535_bsl_revc/ezdsp5535_v1/c55xx_csl/src/csl_msc.c",line 253,column 4,is_stmt
	.dwpsn	file "../c5535_bsl_revc/ezdsp5535_v1/c55xx_csl/src/csl_msc.c",line 257,column 3,is_stmt
        MOV dbl(*SP(#0)), XAR3
        MOV *AR3(short(#3)), AR1 ; |257| 
        MOV dbl(*SP(#4)), XAR3
        MOV AR1, *AR3(#99) ; |257| 
	.dwpsn	file "../c5535_bsl_revc/ezdsp5535_v1/c55xx_csl/src/csl_msc.c",line 258,column 3,is_stmt
        MOV dbl(*SP(#0)), XAR3
        MOV *AR3(short(#2)), AR1 ; |258| 
        MOV dbl(*SP(#4)), XAR3
        MOV AR1, *AR3(#100) ; |258| 
	.dwpsn	file "../c5535_bsl_revc/ezdsp5535_v1/c55xx_csl/src/csl_msc.c",line 261,column 3,is_stmt
        MOV dbl(*SP(#0)), XAR3
        MOV dbl(*SP(#4)), XAR2
        MOV dbl(*AR3(#8)), XAR3
        MOV XAR3, dbl(*AR2(#196))
	.dwpsn	file "../c5535_bsl_revc/ezdsp5535_v1/c55xx_csl/src/csl_msc.c",line 262,column 3,is_stmt
        MOV dbl(*SP(#0)), XAR3
        MOV #182, T0 ; |262| 
        MOV dbl(*SP(#4)), XAR2
        AADD #16, AR3 ; |262| 
        MOV dbl(*AR3), dbl(*AR2(T0)) ; |262| 
	.dwpsn	file "../c5535_bsl_revc/ezdsp5535_v1/c55xx_csl/src/csl_msc.c",line 263,column 3,is_stmt
        MOV dbl(*SP(#0)), XAR3
        MOV #184, T0 ; |263| 
        MOV dbl(*SP(#4)), XAR2
        AADD #18, AR3 ; |263| 
        MOV dbl(*AR3), dbl(*AR2(T0)) ; |263| 
	.dwpsn	file "../c5535_bsl_revc/ezdsp5535_v1/c55xx_csl/src/csl_msc.c",line 264,column 3,is_stmt
        MOV dbl(*SP(#0)), XAR3
        MOV #186, T0 ; |264| 
        MOV dbl(*SP(#4)), XAR2
        AADD #20, AR3 ; |264| 
        MOV dbl(*AR3), dbl(*AR2(T0)) ; |264| 
	.dwpsn	file "../c5535_bsl_revc/ezdsp5535_v1/c55xx_csl/src/csl_msc.c",line 266,column 3,is_stmt
        MOV dbl(*SP(#0)), XAR3
        MOV #188, T0 ; |266| 
        MOV dbl(*SP(#4)), XAR2
        AADD #22, AR3 ; |266| 
        MOV dbl(*AR3), dbl(*AR2(T0)) ; |266| 
	.dwpsn	file "../c5535_bsl_revc/ezdsp5535_v1/c55xx_csl/src/csl_msc.c",line 267,column 3,is_stmt
        MOV dbl(*SP(#0)), XAR3
        MOV #190, T0 ; |267| 
        MOV dbl(*SP(#4)), XAR2
        AADD #24, AR3 ; |267| 
        MOV dbl(*AR3), dbl(*AR2(T0)) ; |267| 
	.dwpsn	file "../c5535_bsl_revc/ezdsp5535_v1/c55xx_csl/src/csl_msc.c",line 268,column 3,is_stmt
        MOV dbl(*SP(#0)), XAR3
        MOV #192, T0 ; |268| 
        MOV dbl(*SP(#4)), XAR2
        AADD #26, AR3 ; |268| 
        MOV dbl(*AR3), dbl(*AR2(T0)) ; |268| 
	.dwpsn	file "../c5535_bsl_revc/ezdsp5535_v1/c55xx_csl/src/csl_msc.c",line 269,column 3,is_stmt
        MOV dbl(*SP(#0)), XAR3
        MOV #194, T0 ; |269| 
        MOV dbl(*SP(#4)), XAR2
        AADD #28, AR3 ; |269| 
        MOV dbl(*AR3), dbl(*AR2(T0)) ; |269| 
	.dwpsn	file "../c5535_bsl_revc/ezdsp5535_v1/c55xx_csl/src/csl_msc.c",line 272,column 3,is_stmt
        MOV dbl(*SP(#4)), XAR0
        AMAR *+AR0(#182) ; |272| 
$C$DW$259	.dwtag  DW_TAG_TI_branch
	.dwattr $C$DW$259, DW_AT_low_pc(0x00)
	.dwattr $C$DW$259, DW_AT_name("_MSC_initMscVal")
	.dwattr $C$DW$259, DW_AT_TI_call
        CALL #_MSC_initMscVal ; |272| 
                                        ; call occurs [#_MSC_initMscVal] ; |272| 
        MOV T0, *SP(#7) ; |272| 
	.dwpsn	file "../c5535_bsl_revc/ezdsp5535_v1/c55xx_csl/src/csl_msc.c",line 273,column 3,is_stmt
        MOV T0, AR1
        BCC $C$L62,AR1 != #0 ; |273| 
                                        ; branchcc occurs ; |273| 
	.dwpsn	file "../c5535_bsl_revc/ezdsp5535_v1/c55xx_csl/src/csl_msc.c",line 275,column 4,is_stmt
	.dwpsn	file "../c5535_bsl_revc/ezdsp5535_v1/c55xx_csl/src/csl_msc.c",line 279,column 3,is_stmt
        MOV #61, *SP(#9) ; |279| 
	.dwpsn	file "../c5535_bsl_revc/ezdsp5535_v1/c55xx_csl/src/csl_msc.c",line 283,column 3,is_stmt
        CMP *SP(#2) == #1, TC1 ; |283| 
        BCC $C$L52,!TC1 ; |283| 
                                        ; branchcc occurs ; |283| 
	.dwpsn	file "../c5535_bsl_revc/ezdsp5535_v1/c55xx_csl/src/csl_msc.c",line 285,column 4,is_stmt
        MOV #512, *SP(#10) ; |285| 
	.dwpsn	file "../c5535_bsl_revc/ezdsp5535_v1/c55xx_csl/src/csl_msc.c",line 286,column 3,is_stmt
        B $C$L53  ; |286| 
                                        ; branch occurs ; |286| 
$C$L52:    
	.dwpsn	file "../c5535_bsl_revc/ezdsp5535_v1/c55xx_csl/src/csl_msc.c",line 289,column 4,is_stmt
        MOV #64, *SP(#10) ; |289| 
$C$L53:    
	.dwpsn	file "../c5535_bsl_revc/ezdsp5535_v1/c55xx_csl/src/csl_msc.c",line 292,column 3,is_stmt
        MOV dbl(*SP(#4)), XAR3
        MOV *AR3(#20), T0 ; |292| 
        MOV dbl(*SP(#0)), XAR3
        MOV dbl(*SP(#4)), XAR0

        MOV #0, T1
||      MOV #64, AR2 ; |292| 

        MOV dbl(*AR3(#14)), AC0 ; |292| 

        MOV *SP(#9), AR3 ; |292| 
||      AADD #22, AR0 ; |292| 

$C$DW$260	.dwtag  DW_TAG_TI_branch
	.dwattr $C$DW$260, DW_AT_low_pc(0x00)
	.dwattr $C$DW$260, DW_AT_name("_USB_initEndptObj")
	.dwattr $C$DW$260, DW_AT_TI_call

        CALL #_USB_initEndptObj ; |292| 
||      MOV #0, AR1

                                        ; call occurs [#_USB_initEndptObj] ; |292| 
        MOV T0, *SP(#7) ; |292| 
	.dwpsn	file "../c5535_bsl_revc/ezdsp5535_v1/c55xx_csl/src/csl_msc.c",line 299,column 3,is_stmt
        MOV T0, AR1
        BCC $C$L62,AR1 != #0 ; |299| 
                                        ; branchcc occurs ; |299| 
	.dwpsn	file "../c5535_bsl_revc/ezdsp5535_v1/c55xx_csl/src/csl_msc.c",line 301,column 4,is_stmt
	.dwpsn	file "../c5535_bsl_revc/ezdsp5535_v1/c55xx_csl/src/csl_msc.c",line 305,column 3,is_stmt
        MOV dbl(*SP(#4)), XAR3
        MOV *AR3(#20), T0 ; |305| 
        MOV dbl(*SP(#0)), XAR3
        MOV dbl(*SP(#4)), XAR0
        MOV #64, AR2 ; |305| 
        MOV dbl(*AR3(#14)), AC0 ; |305| 

        MOV #32, AR3 ; |305| 
||      MOV #8, T1

$C$DW$261	.dwtag  DW_TAG_TI_branch
	.dwattr $C$DW$261, DW_AT_low_pc(0x00)
	.dwattr $C$DW$261, DW_AT_name("_USB_initEndptObj")
	.dwattr $C$DW$261, DW_AT_TI_call

        CALL #_USB_initEndptObj ; |305| 
||      MOV #0, AR1

                                        ; call occurs [#_USB_initEndptObj] ; |305| 
        MOV T0, *SP(#7) ; |305| 
	.dwpsn	file "../c5535_bsl_revc/ezdsp5535_v1/c55xx_csl/src/csl_msc.c",line 312,column 3,is_stmt
        MOV T0, AR1
        BCC $C$L62,AR1 != #0 ; |312| 
                                        ; branchcc occurs ; |312| 
	.dwpsn	file "../c5535_bsl_revc/ezdsp5535_v1/c55xx_csl/src/csl_msc.c",line 314,column 4,is_stmt
	.dwpsn	file "../c5535_bsl_revc/ezdsp5535_v1/c55xx_csl/src/csl_msc.c",line 318,column 3,is_stmt
        MOV #33, *SP(#9) ; |318| 
	.dwpsn	file "../c5535_bsl_revc/ezdsp5535_v1/c55xx_csl/src/csl_msc.c",line 319,column 3,is_stmt
        MOV dbl(*SP(#4)), XAR3
        MOV dbl(*SP(#4)), XAR0
        MOV *AR3(#20), T0 ; |319| 
        MOV dbl(*SP(#0)), XAR3
        MOV *SP(#10), AR2 ; |319| 
        AMAR *+AR0(#496) ; |319| 
        MOV dbl(*AR3(#12)), AC0 ; |319| 

        MOV *SP(#9), AR3 ; |319| 
||      MOV #9, T1

$C$DW$262	.dwtag  DW_TAG_TI_branch
	.dwattr $C$DW$262, DW_AT_low_pc(0x00)
	.dwattr $C$DW$262, DW_AT_name("_USB_initEndptObj")
	.dwattr $C$DW$262, DW_AT_TI_call

        CALL #_USB_initEndptObj ; |319| 
||      MOV #1, AR1

                                        ; call occurs [#_USB_initEndptObj] ; |319| 
        MOV T0, *SP(#7) ; |319| 
	.dwpsn	file "../c5535_bsl_revc/ezdsp5535_v1/c55xx_csl/src/csl_msc.c",line 326,column 3,is_stmt
        MOV T0, AR1
        BCC $C$L62,AR1 != #0 ; |326| 
                                        ; branchcc occurs ; |326| 
	.dwpsn	file "../c5535_bsl_revc/ezdsp5535_v1/c55xx_csl/src/csl_msc.c",line 328,column 4,is_stmt
	.dwpsn	file "../c5535_bsl_revc/ezdsp5535_v1/c55xx_csl/src/csl_msc.c",line 332,column 3,is_stmt
        MOV dbl(*SP(#4)), XAR3
        MOV dbl(*SP(#4)), XAR0
        MOV *AR3(#20), T0 ; |332| 
        MOV dbl(*SP(#0)), XAR3
        MOV *SP(#10), AR2 ; |332| 
        AMAR *+AR0(#516) ; |332| 
        MOV dbl(*AR3(#12)), AC0 ; |332| 

        MOV #32, AR3 ; |332| 
||      MOV #2, T1

$C$DW$263	.dwtag  DW_TAG_TI_branch
	.dwattr $C$DW$263, DW_AT_low_pc(0x00)
	.dwattr $C$DW$263, DW_AT_name("_USB_initEndptObj")
	.dwattr $C$DW$263, DW_AT_TI_call

        CALL #_USB_initEndptObj ; |332| 
||      MOV #1, AR1

                                        ; call occurs [#_USB_initEndptObj] ; |332| 
        MOV T0, *SP(#7) ; |332| 
	.dwpsn	file "../c5535_bsl_revc/ezdsp5535_v1/c55xx_csl/src/csl_msc.c",line 339,column 3,is_stmt
        MOV T0, AR1
        BCC $C$L62,AR1 != #0 ; |339| 
                                        ; branchcc occurs ; |339| 
	.dwpsn	file "../c5535_bsl_revc/ezdsp5535_v1/c55xx_csl/src/csl_msc.c",line 341,column 4,is_stmt
	.dwpsn	file "../c5535_bsl_revc/ezdsp5535_v1/c55xx_csl/src/csl_msc.c",line 345,column 3,is_stmt
        MOV dbl(*SP(#4)), XAR0

        AADD #44, AR0 ; |345| 
||      MOV #0, T0

$C$DW$264	.dwtag  DW_TAG_TI_branch
	.dwattr $C$DW$264, DW_AT_low_pc(0x00)
	.dwattr $C$DW$264, DW_AT_name("_USB_setParams")
	.dwattr $C$DW$264, DW_AT_TI_call

        CALL #_USB_setParams ; |345| 
||      MOV #0, T1

                                        ; call occurs [#_USB_setParams] ; |345| 
        MOV T0, *SP(#7) ; |345| 
	.dwpsn	file "../c5535_bsl_revc/ezdsp5535_v1/c55xx_csl/src/csl_msc.c",line 346,column 3,is_stmt
        MOV T0, AR1
        BCC $C$L62,AR1 != #0 ; |346| 
                                        ; branchcc occurs ; |346| 
	.dwpsn	file "../c5535_bsl_revc/ezdsp5535_v1/c55xx_csl/src/csl_msc.c",line 348,column 4,is_stmt
	.dwpsn	file "../c5535_bsl_revc/ezdsp5535_v1/c55xx_csl/src/csl_msc.c",line 352,column 7,is_stmt
        MOV #0, *SP(#8) ; |352| 
	.dwpsn	file "../c5535_bsl_revc/ezdsp5535_v1/c55xx_csl/src/csl_msc.c",line 352,column 20,is_stmt
        MOV dbl(*SP(#4)), XAR3
        MOV *SP(#8), AR2 ; |352| 
        MOV *AR3(#536), AR1 ; |352| 
        CMPU AR2 > AR1, TC1 ; |352| 
        BCC $C$L59,TC1 ; |352| 
                                        ; branchcc occurs ; |352| 
$C$L54:    
$C$DW$L$_MSC_Setup$15$B:
	.dwpsn	file "../c5535_bsl_revc/ezdsp5535_v1/c55xx_csl/src/csl_msc.c",line 354,column 7,is_stmt
        MOV dbl(*AR3(#188)), AC0 ; |354| 
$C$DW$265	.dwtag  DW_TAG_TI_branch
	.dwattr $C$DW$265, DW_AT_low_pc(0x00)
	.dwattr $C$DW$265, DW_AT_TI_call
	.dwattr $C$DW$265, DW_AT_TI_indirect

        CALL AC0  ; |354| 
||      MOV AR2, T0 ; |354| 

                                        ; call occurs [AC0] ; |354| 
        MOV T0, *SP(#6) ; |354| 
	.dwpsn	file "../c5535_bsl_revc/ezdsp5535_v1/c55xx_csl/src/csl_msc.c",line 356,column 7,is_stmt
        MOV dbl(*SP(#4)), XAR3
        MOV *SP(#8), T0 ; |356| 
        MOV dbl(*AR3(#194)), AC0 ; |356| 
$C$DW$266	.dwtag  DW_TAG_TI_branch
	.dwattr $C$DW$266, DW_AT_low_pc(0x00)
	.dwattr $C$DW$266, DW_AT_TI_call
	.dwattr $C$DW$266, DW_AT_TI_indirect
        CALL AC0  ; |356| 
                                        ; call occurs [AC0] ; |356| 
        MOV dbl(*SP(#4)), XAR3
        SUB #1, AC0, AC1 ; |356| 
        MPYMK *SP(#8), #62, AC0 ; |356| 
        MOV AC0, AR1 ; |356| 
        AADD AR1, AR3 ; |356| 
        MOV AC1, dbl(*AR3(#250)) ; |356| 
	.dwpsn	file "../c5535_bsl_revc/ezdsp5535_v1/c55xx_csl/src/csl_msc.c",line 358,column 7,is_stmt
        CMP *SP(#6) == #1, TC1 ; |358| 
        BCC $C$L55,!TC1 ; |358| 
                                        ; branchcc occurs ; |358| 
$C$DW$L$_MSC_Setup$15$E:
$C$DW$L$_MSC_Setup$16$B:
	.dwpsn	file "../c5535_bsl_revc/ezdsp5535_v1/c55xx_csl/src/csl_msc.c",line 360,column 5,is_stmt
        MOV dbl(*SP(#4)), XAR3
        MPYMK *SP(#8), #62, AC0 ; |360| 
        MOV AC0, AR1 ; |360| 
        AADD AR1, AR3 ; |360| 
        MOV #1, *AR3(#257) ; |360| 
	.dwpsn	file "../c5535_bsl_revc/ezdsp5535_v1/c55xx_csl/src/csl_msc.c",line 362,column 4,is_stmt
        B $C$L58  ; |362| 
                                        ; branch occurs ; |362| 
$C$DW$L$_MSC_Setup$16$E:
$C$L55:    
$C$DW$L$_MSC_Setup$17$B:
	.dwpsn	file "../c5535_bsl_revc/ezdsp5535_v1/c55xx_csl/src/csl_msc.c",line 363,column 12,is_stmt
        CMP *SP(#6) == #4, TC1 ; |363| 
        BCC $C$L56,!TC1 ; |363| 
                                        ; branchcc occurs ; |363| 
$C$DW$L$_MSC_Setup$17$E:
$C$DW$L$_MSC_Setup$18$B:
	.dwpsn	file "../c5535_bsl_revc/ezdsp5535_v1/c55xx_csl/src/csl_msc.c",line 365,column 5,is_stmt
        MOV dbl(*SP(#4)), XAR3
        MPYMK *SP(#8), #62, AC0 ; |365| 
        MOV AC0, AR1 ; |365| 
        AADD AR1, AR3 ; |365| 
        MOV #8, *AR3(#257) ; |365| 
	.dwpsn	file "../c5535_bsl_revc/ezdsp5535_v1/c55xx_csl/src/csl_msc.c",line 366,column 5,is_stmt
        MOV #-11, *SP(#7) ; |366| 
	.dwpsn	file "../c5535_bsl_revc/ezdsp5535_v1/c55xx_csl/src/csl_msc.c",line 367,column 4,is_stmt
        B $C$L58  ; |367| 
                                        ; branch occurs ; |367| 
$C$DW$L$_MSC_Setup$18$E:
$C$L56:    
$C$DW$L$_MSC_Setup$19$B:
	.dwpsn	file "../c5535_bsl_revc/ezdsp5535_v1/c55xx_csl/src/csl_msc.c",line 368,column 12,is_stmt
        CMP *SP(#6) == #2, TC1 ; |368| 
        BCC $C$L57,!TC1 ; |368| 
                                        ; branchcc occurs ; |368| 
$C$DW$L$_MSC_Setup$19$E:
$C$DW$L$_MSC_Setup$20$B:
	.dwpsn	file "../c5535_bsl_revc/ezdsp5535_v1/c55xx_csl/src/csl_msc.c",line 370,column 8,is_stmt
        MOV dbl(*SP(#4)), XAR3
        MPYMK *SP(#8), #62, AC0 ; |370| 
        MOV AC0, AR1 ; |370| 
        AADD AR1, AR3 ; |370| 
        MOV #0, *AR3(#257) ; |370| 
	.dwpsn	file "../c5535_bsl_revc/ezdsp5535_v1/c55xx_csl/src/csl_msc.c",line 371,column 5,is_stmt
        MOV #-12, *SP(#7) ; |371| 
	.dwpsn	file "../c5535_bsl_revc/ezdsp5535_v1/c55xx_csl/src/csl_msc.c",line 372,column 4,is_stmt
        B $C$L58  ; |372| 
                                        ; branch occurs ; |372| 
$C$DW$L$_MSC_Setup$20$E:
$C$L57:    
$C$DW$L$_MSC_Setup$21$B:
	.dwpsn	file "../c5535_bsl_revc/ezdsp5535_v1/c55xx_csl/src/csl_msc.c",line 377,column 8,is_stmt
        MOV dbl(*SP(#4)), XAR3
        MPYMK *SP(#8), #62, AC0 ; |377| 
        MOV AC0, AR1 ; |377| 
        AADD AR1, AR3 ; |377| 
        MOV #0, *AR3(#257) ; |377| 
$C$DW$L$_MSC_Setup$21$E:
$C$L58:    
$C$DW$L$_MSC_Setup$22$B:
	.dwpsn	file "../c5535_bsl_revc/ezdsp5535_v1/c55xx_csl/src/csl_msc.c",line 352,column 59,is_stmt
        ADD #1, *SP(#8) ; |352| 
	.dwpsn	file "../c5535_bsl_revc/ezdsp5535_v1/c55xx_csl/src/csl_msc.c",line 352,column 20,is_stmt
        MOV dbl(*SP(#4)), XAR3
        MOV *SP(#8), AR2 ; |352| 
        MOV *AR3(#536), AR1 ; |352| 
        CMPU AR2 <= AR1, TC1 ; |352| 
        BCC $C$L54,TC1 ; |352| 
                                        ; branchcc occurs ; |352| 
$C$DW$L$_MSC_Setup$22$E:
$C$L59:    
	.dwpsn	file "../c5535_bsl_revc/ezdsp5535_v1/c55xx_csl/src/csl_msc.c",line 381,column 3,is_stmt
        MOV *SP(#7), AR1 ; |381| 
        BCC $C$L61,AR1 != #0 ; |381| 
                                        ; branchcc occurs ; |381| 
	.dwpsn	file "../c5535_bsl_revc/ezdsp5535_v1/c55xx_csl/src/csl_msc.c",line 384,column 4,is_stmt
        MOV *AR3(#20), T0 ; |384| 
$C$DW$267	.dwtag  DW_TAG_TI_branch
	.dwattr $C$DW$267, DW_AT_low_pc(0x00)
	.dwattr $C$DW$267, DW_AT_name("_USB_connectDev")
	.dwattr $C$DW$267, DW_AT_TI_call
        CALL #_USB_connectDev ; |384| 
                                        ; call occurs [#_USB_connectDev] ; |384| 
	.dwpsn	file "../c5535_bsl_revc/ezdsp5535_v1/c55xx_csl/src/csl_msc.c",line 386,column 2,is_stmt
        B $C$L61  ; |386| 
                                        ; branch occurs ; |386| 
$C$L60:    
	.dwpsn	file "../c5535_bsl_revc/ezdsp5535_v1/c55xx_csl/src/csl_msc.c",line 389,column 3,is_stmt
        MOV #-5, *SP(#7) ; |389| 
$C$L61:    
	.dwpsn	file "../c5535_bsl_revc/ezdsp5535_v1/c55xx_csl/src/csl_msc.c",line 392,column 2,is_stmt
        MOV *SP(#7), T0 ; |392| 
$C$L62:    
	.dwpsn	file "../c5535_bsl_revc/ezdsp5535_v1/c55xx_csl/src/csl_msc.c",line 393,column 1,is_stmt
        AADD #11, SP
	.dwcfi	cfa_offset, 1
$C$DW$268	.dwtag  DW_TAG_TI_branch
	.dwattr $C$DW$268, DW_AT_low_pc(0x00)
	.dwattr $C$DW$268, DW_AT_TI_return
        RET
                                        ; return occurs

$C$DW$269	.dwtag  DW_TAG_TI_loop
	.dwattr $C$DW$269, DW_AT_name("F:\eZdsp_DBG\eZDSP_5535_Files\ccsws2\test\Debug\csl_msc.asm:$C$L54:1:1537612592")
	.dwattr $C$DW$269, DW_AT_TI_begin_file("../c5535_bsl_revc/ezdsp5535_v1/c55xx_csl/src/csl_msc.c")
	.dwattr $C$DW$269, DW_AT_TI_begin_line(0x160)
	.dwattr $C$DW$269, DW_AT_TI_end_line(0x17b)
$C$DW$270	.dwtag  DW_TAG_TI_loop_range
	.dwattr $C$DW$270, DW_AT_low_pc($C$DW$L$_MSC_Setup$15$B)
	.dwattr $C$DW$270, DW_AT_high_pc($C$DW$L$_MSC_Setup$15$E)
$C$DW$271	.dwtag  DW_TAG_TI_loop_range
	.dwattr $C$DW$271, DW_AT_low_pc($C$DW$L$_MSC_Setup$19$B)
	.dwattr $C$DW$271, DW_AT_high_pc($C$DW$L$_MSC_Setup$19$E)
$C$DW$272	.dwtag  DW_TAG_TI_loop_range
	.dwattr $C$DW$272, DW_AT_low_pc($C$DW$L$_MSC_Setup$17$B)
	.dwattr $C$DW$272, DW_AT_high_pc($C$DW$L$_MSC_Setup$17$E)
$C$DW$273	.dwtag  DW_TAG_TI_loop_range
	.dwattr $C$DW$273, DW_AT_low_pc($C$DW$L$_MSC_Setup$16$B)
	.dwattr $C$DW$273, DW_AT_high_pc($C$DW$L$_MSC_Setup$16$E)
$C$DW$274	.dwtag  DW_TAG_TI_loop_range
	.dwattr $C$DW$274, DW_AT_low_pc($C$DW$L$_MSC_Setup$18$B)
	.dwattr $C$DW$274, DW_AT_high_pc($C$DW$L$_MSC_Setup$18$E)
$C$DW$275	.dwtag  DW_TAG_TI_loop_range
	.dwattr $C$DW$275, DW_AT_low_pc($C$DW$L$_MSC_Setup$20$B)
	.dwattr $C$DW$275, DW_AT_high_pc($C$DW$L$_MSC_Setup$20$E)
$C$DW$276	.dwtag  DW_TAG_TI_loop_range
	.dwattr $C$DW$276, DW_AT_low_pc($C$DW$L$_MSC_Setup$21$B)
	.dwattr $C$DW$276, DW_AT_high_pc($C$DW$L$_MSC_Setup$21$E)
$C$DW$277	.dwtag  DW_TAG_TI_loop_range
	.dwattr $C$DW$277, DW_AT_low_pc($C$DW$L$_MSC_Setup$22$B)
	.dwattr $C$DW$277, DW_AT_high_pc($C$DW$L$_MSC_Setup$22$E)
	.dwendtag $C$DW$269

	.dwattr $C$DW$247, DW_AT_TI_end_file("../c5535_bsl_revc/ezdsp5535_v1/c55xx_csl/src/csl_msc.c")
	.dwattr $C$DW$247, DW_AT_TI_end_line(0x189)
	.dwattr $C$DW$247, DW_AT_TI_end_column(0x01)
	.dwendentry
	.dwendtag $C$DW$247

	.sect	".text"
	.align 4
	.global	_MSC_Close

$C$DW$278	.dwtag  DW_TAG_subprogram, DW_AT_name("MSC_Close")
	.dwattr $C$DW$278, DW_AT_low_pc(_MSC_Close)
	.dwattr $C$DW$278, DW_AT_high_pc(0x00)
	.dwattr $C$DW$278, DW_AT_TI_symbol_name("_MSC_Close")
	.dwattr $C$DW$278, DW_AT_external
	.dwattr $C$DW$278, DW_AT_type(*$C$DW$T$89)
	.dwattr $C$DW$278, DW_AT_TI_begin_file("../c5535_bsl_revc/ezdsp5535_v1/c55xx_csl/src/csl_msc.c")
	.dwattr $C$DW$278, DW_AT_TI_begin_line(0x1b7)
	.dwattr $C$DW$278, DW_AT_TI_begin_column(0x0c)
	.dwattr $C$DW$278, DW_AT_TI_max_frame_size(0x08)
	.dwpsn	file "../c5535_bsl_revc/ezdsp5535_v1/c55xx_csl/src/csl_msc.c",line 440,column 1,is_stmt,address _MSC_Close

	.dwfde $C$DW$CIE, _MSC_Close
$C$DW$279	.dwtag  DW_TAG_formal_parameter, DW_AT_name("pAppClassHandle")
	.dwattr $C$DW$279, DW_AT_TI_symbol_name("_pAppClassHandle")
	.dwattr $C$DW$279, DW_AT_type(*$C$DW$T$102)
	.dwattr $C$DW$279, DW_AT_location[DW_OP_reg17]
;*******************************************************************************
;* FUNCTION NAME: MSC_Close                                                    *
;*                                                                             *
;*   Function Uses Regs : AC0,AC0,T0,AR0,XAR0,AR3,XAR3,SP,M40,SATA,SATD,RDM,   *
;*                        FRCT,SMUL                                            *
;*   Stack Frame        : Compact (No Frame Pointer, w/ debug)                 *
;*   Total Frame Size   : 8 words                                              *
;*                        (1 return address/alignment)                         *
;*                        (7 local values)                                     *
;*   Min System Stack   : 1 word                                               *
;*******************************************************************************
_MSC_Close:
	.dwcfi	cfa_offset, 1
	.dwcfi	save_reg_to_mem, 91, -1
        AADD #-7, SP
	.dwcfi	cfa_offset, 8
$C$DW$280	.dwtag  DW_TAG_variable, DW_AT_name("pAppClassHandle")
	.dwattr $C$DW$280, DW_AT_TI_symbol_name("_pAppClassHandle")
	.dwattr $C$DW$280, DW_AT_type(*$C$DW$T$102)
	.dwattr $C$DW$280, DW_AT_location[DW_OP_bregx 0x24 0]
$C$DW$281	.dwtag  DW_TAG_variable, DW_AT_name("pMscClassHdl")
	.dwattr $C$DW$281, DW_AT_TI_symbol_name("_pMscClassHdl")
	.dwattr $C$DW$281, DW_AT_type(*$C$DW$T$98)
	.dwattr $C$DW$281, DW_AT_location[DW_OP_bregx 0x24 2]
$C$DW$282	.dwtag  DW_TAG_variable, DW_AT_name("pCtrlHandle")
	.dwattr $C$DW$282, DW_AT_TI_symbol_name("_pCtrlHandle")
	.dwattr $C$DW$282, DW_AT_type(*$C$DW$T$99)
	.dwattr $C$DW$282, DW_AT_location[DW_OP_bregx 0x24 4]
$C$DW$283	.dwtag  DW_TAG_variable, DW_AT_name("status")
	.dwattr $C$DW$283, DW_AT_TI_symbol_name("_status")
	.dwattr $C$DW$283, DW_AT_type(*$C$DW$T$89)
	.dwattr $C$DW$283, DW_AT_location[DW_OP_bregx 0x24 6]
        MOV XAR0, dbl(*SP(#0))
	.dwpsn	file "../c5535_bsl_revc/ezdsp5535_v1/c55xx_csl/src/csl_msc.c",line 445,column 2,is_stmt
        MOV dbl(*SP(#0)), XAR3
        MOV dbl(*AR3), XAR3
        MOV XAR3, dbl(*SP(#2))
	.dwpsn	file "../c5535_bsl_revc/ezdsp5535_v1/c55xx_csl/src/csl_msc.c",line 446,column 2,is_stmt
        MOV XAR3, dbl(*SP(#4))
	.dwpsn	file "../c5535_bsl_revc/ezdsp5535_v1/c55xx_csl/src/csl_msc.c",line 447,column 2,is_stmt
        MOV #0, *SP(#6) ; |447| 
	.dwpsn	file "../c5535_bsl_revc/ezdsp5535_v1/c55xx_csl/src/csl_msc.c",line 449,column 2,is_stmt
        MOV dbl(*SP(#0)), XAR3
        MOV XAR3, AC0
        BCC $C$L63,AC0 == #0 ; |449| 
                                        ; branchcc occurs ; |449| 
	.dwpsn	file "../c5535_bsl_revc/ezdsp5535_v1/c55xx_csl/src/csl_msc.c",line 451,column 3,is_stmt
        MOV dbl(*SP(#4)), XAR3
        MOV *AR3(#20), T0 ; |451| 
$C$DW$284	.dwtag  DW_TAG_TI_branch
	.dwattr $C$DW$284, DW_AT_low_pc(0x00)
	.dwattr $C$DW$284, DW_AT_name("_USB_disconnectDev")
	.dwattr $C$DW$284, DW_AT_TI_call
        CALL #_USB_disconnectDev ; |451| 
                                        ; call occurs [#_USB_disconnectDev] ; |451| 
        MOV T0, *SP(#6) ; |451| 
	.dwpsn	file "../c5535_bsl_revc/ezdsp5535_v1/c55xx_csl/src/csl_msc.c",line 452,column 3,is_stmt
        MOV dbl(*SP(#0)), XAR3
        MOV #0, AC0 ; |452| 
        MOV AC0, dbl(*AR3)
	.dwpsn	file "../c5535_bsl_revc/ezdsp5535_v1/c55xx_csl/src/csl_msc.c",line 453,column 2,is_stmt
        B $C$L64  ; |453| 
                                        ; branch occurs ; |453| 
$C$L63:    
	.dwpsn	file "../c5535_bsl_revc/ezdsp5535_v1/c55xx_csl/src/csl_msc.c",line 456,column 3,is_stmt
        MOV #-5, *SP(#6) ; |456| 
$C$L64:    
	.dwpsn	file "../c5535_bsl_revc/ezdsp5535_v1/c55xx_csl/src/csl_msc.c",line 459,column 2,is_stmt
        MOV *SP(#6), T0 ; |459| 
	.dwpsn	file "../c5535_bsl_revc/ezdsp5535_v1/c55xx_csl/src/csl_msc.c",line 460,column 1,is_stmt
        AADD #7, SP
	.dwcfi	cfa_offset, 1
$C$DW$285	.dwtag  DW_TAG_TI_branch
	.dwattr $C$DW$285, DW_AT_low_pc(0x00)
	.dwattr $C$DW$285, DW_AT_TI_return
        RET
                                        ; return occurs
	.dwattr $C$DW$278, DW_AT_TI_end_file("../c5535_bsl_revc/ezdsp5535_v1/c55xx_csl/src/csl_msc.c")
	.dwattr $C$DW$278, DW_AT_TI_end_line(0x1cc)
	.dwattr $C$DW$278, DW_AT_TI_end_column(0x01)
	.dwendentry
	.dwendtag $C$DW$278

	.sect	".text"
	.align 4
	.global	_MSC_SetLunAttr

$C$DW$286	.dwtag  DW_TAG_subprogram, DW_AT_name("MSC_SetLunAttr")
	.dwattr $C$DW$286, DW_AT_low_pc(_MSC_SetLunAttr)
	.dwattr $C$DW$286, DW_AT_high_pc(0x00)
	.dwattr $C$DW$286, DW_AT_TI_symbol_name("_MSC_SetLunAttr")
	.dwattr $C$DW$286, DW_AT_external
	.dwattr $C$DW$286, DW_AT_type(*$C$DW$T$89)
	.dwattr $C$DW$286, DW_AT_TI_begin_file("../c5535_bsl_revc/ezdsp5535_v1/c55xx_csl/src/csl_msc.c")
	.dwattr $C$DW$286, DW_AT_TI_begin_line(0x202)
	.dwattr $C$DW$286, DW_AT_TI_begin_column(0x0c)
	.dwattr $C$DW$286, DW_AT_TI_max_frame_size(0x0e)
	.dwpsn	file "../c5535_bsl_revc/ezdsp5535_v1/c55xx_csl/src/csl_msc.c",line 517,column 1,is_stmt,address _MSC_SetLunAttr

	.dwfde $C$DW$CIE, _MSC_SetLunAttr
$C$DW$287	.dwtag  DW_TAG_formal_parameter, DW_AT_name("pAppClassHandle")
	.dwattr $C$DW$287, DW_AT_TI_symbol_name("_pAppClassHandle")
	.dwattr $C$DW$287, DW_AT_type(*$C$DW$T$102)
	.dwattr $C$DW$287, DW_AT_location[DW_OP_reg17]
$C$DW$288	.dwtag  DW_TAG_formal_parameter, DW_AT_name("lunHandle")
	.dwattr $C$DW$288, DW_AT_TI_symbol_name("_lunHandle")
	.dwattr $C$DW$288, DW_AT_type(*$C$DW$T$106)
	.dwattr $C$DW$288, DW_AT_location[DW_OP_reg19]
$C$DW$289	.dwtag  DW_TAG_formal_parameter, DW_AT_name("lunNum")
	.dwattr $C$DW$289, DW_AT_TI_symbol_name("_lunNum")
	.dwattr $C$DW$289, DW_AT_type(*$C$DW$T$25)
	.dwattr $C$DW$289, DW_AT_location[DW_OP_reg12]
;*******************************************************************************
;* FUNCTION NAME: MSC_SetLunAttr                                               *
;*                                                                             *
;*   Function Uses Regs : AC0,AC0,T0,AR0,XAR0,AR1,XAR1,AR2,XAR2,AR3,XAR3,SP,   *
;*                        CARRY,TC1,M40,SATA,SATD,RDM,FRCT,SMUL                *
;*   Stack Frame        : Compact (No Frame Pointer, w/ debug)                 *
;*   Total Frame Size   : 14 words                                             *
;*                        (1 return address/alignment)                         *
;*                        (13 local values)                                    *
;*   Min System Stack   : 1 word                                               *
;*******************************************************************************
_MSC_SetLunAttr:
	.dwcfi	cfa_offset, 1
	.dwcfi	save_reg_to_mem, 91, -1
        AADD #-13, SP
	.dwcfi	cfa_offset, 14
$C$DW$290	.dwtag  DW_TAG_variable, DW_AT_name("pAppClassHandle")
	.dwattr $C$DW$290, DW_AT_TI_symbol_name("_pAppClassHandle")
	.dwattr $C$DW$290, DW_AT_type(*$C$DW$T$102)
	.dwattr $C$DW$290, DW_AT_location[DW_OP_bregx 0x24 0]
$C$DW$291	.dwtag  DW_TAG_variable, DW_AT_name("lunHandle")
	.dwattr $C$DW$291, DW_AT_TI_symbol_name("_lunHandle")
	.dwattr $C$DW$291, DW_AT_type(*$C$DW$T$106)
	.dwattr $C$DW$291, DW_AT_location[DW_OP_bregx 0x24 2]
$C$DW$292	.dwtag  DW_TAG_variable, DW_AT_name("lunNum")
	.dwattr $C$DW$292, DW_AT_TI_symbol_name("_lunNum")
	.dwattr $C$DW$292, DW_AT_type(*$C$DW$T$25)
	.dwattr $C$DW$292, DW_AT_location[DW_OP_bregx 0x24 4]
$C$DW$293	.dwtag  DW_TAG_variable, DW_AT_name("pHandle")
	.dwattr $C$DW$293, DW_AT_TI_symbol_name("_pHandle")
	.dwattr $C$DW$293, DW_AT_type(*$C$DW$T$98)
	.dwattr $C$DW$293, DW_AT_location[DW_OP_bregx 0x24 6]
$C$DW$294	.dwtag  DW_TAG_variable, DW_AT_name("pMscObj")
	.dwattr $C$DW$294, DW_AT_TI_symbol_name("_pMscObj")
	.dwattr $C$DW$294, DW_AT_type(*$C$DW$T$107)
	.dwattr $C$DW$294, DW_AT_location[DW_OP_bregx 0x24 8]
$C$DW$295	.dwtag  DW_TAG_variable, DW_AT_name("status")
	.dwattr $C$DW$295, DW_AT_TI_symbol_name("_status")
	.dwattr $C$DW$295, DW_AT_type(*$C$DW$T$89)
	.dwattr $C$DW$295, DW_AT_location[DW_OP_bregx 0x24 10]
$C$DW$296	.dwtag  DW_TAG_variable, DW_AT_name("copyCntdst")
	.dwattr $C$DW$296, DW_AT_TI_symbol_name("_copyCntdst")
	.dwattr $C$DW$296, DW_AT_type(*$C$DW$T$25)
	.dwattr $C$DW$296, DW_AT_location[DW_OP_bregx 0x24 11]
$C$DW$297	.dwtag  DW_TAG_variable, DW_AT_name("copyCntsrc")
	.dwattr $C$DW$297, DW_AT_TI_symbol_name("_copyCntsrc")
	.dwattr $C$DW$297, DW_AT_type(*$C$DW$T$25)
	.dwattr $C$DW$297, DW_AT_location[DW_OP_bregx 0x24 12]
        MOV T0, *SP(#4) ; |517| 
        MOV XAR1, dbl(*SP(#2))
        MOV XAR0, dbl(*SP(#0))
	.dwpsn	file "../c5535_bsl_revc/ezdsp5535_v1/c55xx_csl/src/csl_msc.c",line 524,column 2,is_stmt
        MOV dbl(*SP(#0)), XAR3
        MOV dbl(*AR3), XAR3
        MOV XAR3, dbl(*SP(#6))
	.dwpsn	file "../c5535_bsl_revc/ezdsp5535_v1/c55xx_csl/src/csl_msc.c",line 525,column 2,is_stmt
        AMAR *+AR3(#182) ; |525| 
        MOV XAR3, dbl(*SP(#8))
	.dwpsn	file "../c5535_bsl_revc/ezdsp5535_v1/c55xx_csl/src/csl_msc.c",line 526,column 2,is_stmt
        MOV #0, *SP(#10) ; |526| 
	.dwpsn	file "../c5535_bsl_revc/ezdsp5535_v1/c55xx_csl/src/csl_msc.c",line 528,column 2,is_stmt
        MOV dbl(*SP(#0)), XAR3
        MOV XAR3, AC0
        BCC $C$L71,AC0 == #0 ; |528| 
                                        ; branchcc occurs ; |528| 
        MOV dbl(*SP(#2)), XAR3
        MOV XAR3, AC0
        BCC $C$L71,AC0 == #0 ; |528| 
                                        ; branchcc occurs ; |528| 
	.dwpsn	file "../c5535_bsl_revc/ezdsp5535_v1/c55xx_csl/src/csl_msc.c",line 531,column 3,is_stmt
        MOV dbl(*SP(#8)), XAR3
        MOV dbl(*SP(#2)), XAR2
        MPYMK *SP(#4), #62, AC0 ; |531| 
        MOV AC0, AR1 ; |531| 

        MOV *AR2(short(#4)), AR1 ; |531| 
||      AADD AR1, AR3 ; |531| 

        MOV AR1, *AR3(#74) ; |531| 
	.dwpsn	file "../c5535_bsl_revc/ezdsp5535_v1/c55xx_csl/src/csl_msc.c",line 532,column 3,is_stmt
        MOV dbl(*SP(#8)), XAR3
        MPYMK *SP(#4), #62, AC0 ; |532| 
        MOV AC0, AR1 ; |532| 
        MOV dbl(*SP(#2)), XAR2
        AADD AR1, AR3 ; |532| 
        MOV *AR2(#30), AR1 ; |532| 
        MOV AR1, *AR3(#76) ; |532| 
	.dwpsn	file "../c5535_bsl_revc/ezdsp5535_v1/c55xx_csl/src/csl_msc.c",line 534,column 3,is_stmt
        MOV dbl(*SP(#2)), XAR2
        MOV dbl(*SP(#8)), XAR3
        MPYMK *SP(#4), #62, AC0 ; |534| 
        MOV AC0, AR1 ; |534| 
        MOV dbl(*AR2(short(#2))), AC0 ; |534| 

        SUB #1, AC0 ; |534| 
||      AADD AR1, AR3 ; |534| 

        MOV AC0, dbl(*AR3(#68)) ; |534| 
	.dwpsn	file "../c5535_bsl_revc/ezdsp5535_v1/c55xx_csl/src/csl_msc.c",line 535,column 3,is_stmt
        MOV dbl(*SP(#8)), XAR3
        MPYMK *SP(#4), #62, AC0 ; |535| 
        MOV AC0, AR1 ; |535| 
        AADD AR1, AR3 ; |535| 
        MOV #0, *AR3(#75) ; |535| 
	.dwpsn	file "../c5535_bsl_revc/ezdsp5535_v1/c55xx_csl/src/csl_msc.c",line 536,column 3,is_stmt
        MOV dbl(*SP(#8)), XAR3
        MPYMK *SP(#4), #62, AC0 ; |536| 
        MOV AC0, AR1 ; |536| 
        MOV dbl(*SP(#2)), XAR2
        AADD AR1, AR3 ; |536| 
        AADD #72, AR3 ; |536| 
        MOV dbl(*AR2), dbl(*AR3) ; |536| 
	.dwpsn	file "../c5535_bsl_revc/ezdsp5535_v1/c55xx_csl/src/csl_msc.c",line 539,column 3,is_stmt
        MOV dbl(*SP(#8)), XAR3
        MPYMK *SP(#4), #62, AC0 ; |539| 
        MOV AC0, AR1 ; |539| 
        AADD AR1, AR3 ; |539| 
        MOV #96, *AR3(#18) ; |539| 
	.dwpsn	file "../c5535_bsl_revc/ezdsp5535_v1/c55xx_csl/src/csl_msc.c",line 540,column 3,is_stmt
        MOV dbl(*SP(#8)), XAR3
        MPYMK *SP(#4), #62, AC0 ; |540| 
        MOV AC0, AR1 ; |540| 
        AADD AR1, AR3 ; |540| 
        MOV #0, *AR3(#19) ; |540| 
	.dwpsn	file "../c5535_bsl_revc/ezdsp5535_v1/c55xx_csl/src/csl_msc.c",line 541,column 3,is_stmt
        MOV dbl(*SP(#8)), XAR3
        MPYMK *SP(#4), #62, AC0 ; |541| 
        MOV AC0, AR1 ; |541| 
        AADD AR1, AR3 ; |541| 
        MOV #512, *AR3(#21) ; |541| 
	.dwpsn	file "../c5535_bsl_revc/ezdsp5535_v1/c55xx_csl/src/csl_msc.c",line 542,column 3,is_stmt
        MOV dbl(*SP(#8)), XAR3
        MPYMK *SP(#4), #62, AC0 ; |542| 
        MOV AC0, AR1 ; |542| 
        AADD AR1, AR3 ; |542| 
        MOV #92, *AR3(#22) ; |542| 
	.dwpsn	file "../c5535_bsl_revc/ezdsp5535_v1/c55xx_csl/src/csl_msc.c",line 543,column 3,is_stmt
        MOV dbl(*SP(#8)), XAR3
        MPYMK *SP(#4), #62, AC0 ; |543| 
        MOV AC0, AR1 ; |543| 
        AADD AR1, AR3 ; |543| 
        MOV #0, *AR3(#23) ; |543| 
	.dwpsn	file "../c5535_bsl_revc/ezdsp5535_v1/c55xx_csl/src/csl_msc.c",line 546,column 3,is_stmt
        MOV #0, *SP(#12) ; |546| 
	.dwpsn	file "../c5535_bsl_revc/ezdsp5535_v1/c55xx_csl/src/csl_msc.c",line 547,column 7,is_stmt
        MOV #6, *SP(#11) ; |547| 
	.dwpsn	file "../c5535_bsl_revc/ezdsp5535_v1/c55xx_csl/src/csl_msc.c",line 548,column 7,is_stmt
        MOV #30, AR2 ; |548| 
        MOV *SP(#11), AR1 ; |548| 
        CMPU AR1 >= AR2, TC1 ; |548| 
        BCC $C$L66,TC1 ; |548| 
                                        ; branchcc occurs ; |548| 
$C$L65:    
$C$DW$L$_MSC_SetLunAttr$4$B:
	.dwpsn	file "../c5535_bsl_revc/ezdsp5535_v1/c55xx_csl/src/csl_msc.c",line 550,column 4,is_stmt
        MOV dbl(*SP(#2)), XAR3
        MOV *SP(#12), AR1 ; |550| 
        MPYMK *SP(#4), #62, AC0 ; |550| 

        MOV AC0, AR1 ; |550| 
||      AADD AR1, AR3 ; |550| 

        MOV *AR3(short(#5)), AR2 ; |550| 
        MOV dbl(*SP(#8)), XAR3

        MOV *SP(#11), AR1 ; |550| 
||      AADD AR1, AR3 ; |550| 

        AADD AR1, AR3 ; |550| 
        MOV AR2, *AR3(#18) ; |550| 
	.dwpsn	file "../c5535_bsl_revc/ezdsp5535_v1/c55xx_csl/src/csl_msc.c",line 548,column 41,is_stmt
        ADD #1, *SP(#11) ; |548| 
        ADD #1, *SP(#12) ; |548| 
	.dwpsn	file "../c5535_bsl_revc/ezdsp5535_v1/c55xx_csl/src/csl_msc.c",line 548,column 7,is_stmt
        MOV #30, AR2 ; |548| 
        MOV *SP(#11), AR1 ; |548| 
        CMPU AR1 < AR2, TC1 ; |548| 
        BCC $C$L65,TC1 ; |548| 
                                        ; branchcc occurs ; |548| 
$C$DW$L$_MSC_SetLunAttr$4$E:
$C$L66:    
	.dwpsn	file "../c5535_bsl_revc/ezdsp5535_v1/c55xx_csl/src/csl_msc.c",line 555,column 3,is_stmt
        MOV dbl(*SP(#8)), XAR3
        MPYMK *SP(#4), #62, AC0 ; |555| 
        MOV AC0, AR1 ; |555| 
        AADD AR1, AR3 ; |555| 
        MOV #0, *AR3(#48) ; |555| 
	.dwpsn	file "../c5535_bsl_revc/ezdsp5535_v1/c55xx_csl/src/csl_msc.c",line 557,column 3,is_stmt
        MOV dbl(*SP(#8)), XAR3
        MPYMK *SP(#4), #62, AC0 ; |557| 
        MOV AC0, AR1 ; |557| 
        AADD AR1, AR3 ; |557| 
        MOV #8194, *AR3(#49) ; |557| 
	.dwpsn	file "../c5535_bsl_revc/ezdsp5535_v1/c55xx_csl/src/csl_msc.c",line 559,column 3,is_stmt
        MOV dbl(*SP(#8)), XAR3
        MPYMK *SP(#4), #62, AC0 ; |559| 
        MOV AC0, AR1 ; |559| 
        AADD AR1, AR3 ; |559| 
        MOV #14338, *AR3(#50) ; |559| 
	.dwpsn	file "../c5535_bsl_revc/ezdsp5535_v1/c55xx_csl/src/csl_msc.c",line 561,column 8,is_stmt
        MOV #33, *SP(#11) ; |561| 
	.dwpsn	file "../c5535_bsl_revc/ezdsp5535_v1/c55xx_csl/src/csl_msc.c",line 562,column 8,is_stmt
        MOV #50, AR2 ; |562| 
        MOV *SP(#11), AR1 ; |562| 
        CMPU AR1 >= AR2, TC1 ; |562| 
        BCC $C$L68,TC1 ; |562| 
                                        ; branchcc occurs ; |562| 
$C$L67:    
$C$DW$L$_MSC_SetLunAttr$6$B:
	.dwpsn	file "../c5535_bsl_revc/ezdsp5535_v1/c55xx_csl/src/csl_msc.c",line 564,column 4,is_stmt
        MOV dbl(*SP(#8)), XAR3
        MPYMK *SP(#4), #62, AC0 ; |564| 
        MOV AC0, AR1 ; |564| 

        MOV *SP(#11), AR1 ; |564| 
||      AADD AR1, AR3 ; |564| 

        AADD AR1, AR3 ; |564| 
        MOV #0, *AR3(#18) ; |564| 
	.dwpsn	file "../c5535_bsl_revc/ezdsp5535_v1/c55xx_csl/src/csl_msc.c",line 562,column 42,is_stmt
        ADD #1, *SP(#11) ; |562| 
	.dwpsn	file "../c5535_bsl_revc/ezdsp5535_v1/c55xx_csl/src/csl_msc.c",line 562,column 8,is_stmt
        MOV *SP(#11), AR1 ; |562| 
        CMPU AR1 < AR2, TC1 ; |562| 
        BCC $C$L67,TC1 ; |562| 
                                        ; branchcc occurs ; |562| 
$C$DW$L$_MSC_SetLunAttr$6$E:
$C$L68:    
	.dwpsn	file "../c5535_bsl_revc/ezdsp5535_v1/c55xx_csl/src/csl_msc.c",line 569,column 3,is_stmt
        MOV dbl(*SP(#8)), XAR3
        MPYMK *SP(#4), #62, AC0 ; |569| 
        MOV AC0, AR1 ; |569| 
        AADD AR1, AR3 ; |569| 
        MOV *AR3(#74), AR1 ; |569| 
        BCC $C$L69,AR1 == #0 ; |569| 
                                        ; branchcc occurs ; |569| 
	.dwpsn	file "../c5535_bsl_revc/ezdsp5535_v1/c55xx_csl/src/csl_msc.c",line 571,column 4,is_stmt
        MOV dbl(*SP(#8)), XAR3
        MPYMK *SP(#4), #62, AC0 ; |571| 
        MOV AC0, AR1 ; |571| 
        AADD AR1, AR3 ; |571| 
        MOV #32768, *AR3(#20) ; |571| 
	.dwpsn	file "../c5535_bsl_revc/ezdsp5535_v1/c55xx_csl/src/csl_msc.c",line 572,column 3,is_stmt
        B $C$L70  ; |572| 
                                        ; branch occurs ; |572| 
$C$L69:    
	.dwpsn	file "../c5535_bsl_revc/ezdsp5535_v1/c55xx_csl/src/csl_msc.c",line 575,column 4,is_stmt
        MOV dbl(*SP(#8)), XAR3
        MPYMK *SP(#4), #62, AC0 ; |575| 
        MOV AC0, AR1 ; |575| 
        AADD AR1, AR3 ; |575| 
        MOV #0, *AR3(#20) ; |575| 
$C$L70:    
	.dwpsn	file "../c5535_bsl_revc/ezdsp5535_v1/c55xx_csl/src/csl_msc.c",line 577,column 3,is_stmt
        MOV dbl(*SP(#8)), XAR3
        MPYMK *SP(#4), #62, AC0 ; |577| 
        MOV AC0, AR1 ; |577| 
        AADD AR1, AR3 ; |577| 
        MOV #0, *AR3(#78) ; |577| 
	.dwpsn	file "../c5535_bsl_revc/ezdsp5535_v1/c55xx_csl/src/csl_msc.c",line 578,column 2,is_stmt
        B $C$L72  ; |578| 
                                        ; branch occurs ; |578| 
$C$L71:    
	.dwpsn	file "../c5535_bsl_revc/ezdsp5535_v1/c55xx_csl/src/csl_msc.c",line 581,column 3,is_stmt
        MOV #-5, *SP(#10) ; |581| 
$C$L72:    
	.dwpsn	file "../c5535_bsl_revc/ezdsp5535_v1/c55xx_csl/src/csl_msc.c",line 584,column 2,is_stmt
        MOV *SP(#10), T0 ; |584| 
	.dwpsn	file "../c5535_bsl_revc/ezdsp5535_v1/c55xx_csl/src/csl_msc.c",line 585,column 1,is_stmt
        AADD #13, SP
	.dwcfi	cfa_offset, 1
$C$DW$298	.dwtag  DW_TAG_TI_branch
	.dwattr $C$DW$298, DW_AT_low_pc(0x00)
	.dwattr $C$DW$298, DW_AT_TI_return
        RET
                                        ; return occurs

$C$DW$299	.dwtag  DW_TAG_TI_loop
	.dwattr $C$DW$299, DW_AT_name("F:\eZdsp_DBG\eZDSP_5535_Files\ccsws2\test\Debug\csl_msc.asm:$C$L67:1:1537612592")
	.dwattr $C$DW$299, DW_AT_TI_begin_file("../c5535_bsl_revc/ezdsp5535_v1/c55xx_csl/src/csl_msc.c")
	.dwattr $C$DW$299, DW_AT_TI_begin_line(0x231)
	.dwattr $C$DW$299, DW_AT_TI_end_line(0x236)
$C$DW$300	.dwtag  DW_TAG_TI_loop_range
	.dwattr $C$DW$300, DW_AT_low_pc($C$DW$L$_MSC_SetLunAttr$6$B)
	.dwattr $C$DW$300, DW_AT_high_pc($C$DW$L$_MSC_SetLunAttr$6$E)
	.dwendtag $C$DW$299


$C$DW$301	.dwtag  DW_TAG_TI_loop
	.dwattr $C$DW$301, DW_AT_name("F:\eZdsp_DBG\eZDSP_5535_Files\ccsws2\test\Debug\csl_msc.asm:$C$L65:1:1537612592")
	.dwattr $C$DW$301, DW_AT_TI_begin_file("../c5535_bsl_revc/ezdsp5535_v1/c55xx_csl/src/csl_msc.c")
	.dwattr $C$DW$301, DW_AT_TI_begin_line(0x223)
	.dwattr $C$DW$301, DW_AT_TI_end_line(0x228)
$C$DW$302	.dwtag  DW_TAG_TI_loop_range
	.dwattr $C$DW$302, DW_AT_low_pc($C$DW$L$_MSC_SetLunAttr$4$B)
	.dwattr $C$DW$302, DW_AT_high_pc($C$DW$L$_MSC_SetLunAttr$4$E)
	.dwendtag $C$DW$301

	.dwattr $C$DW$286, DW_AT_TI_end_file("../c5535_bsl_revc/ezdsp5535_v1/c55xx_csl/src/csl_msc.c")
	.dwattr $C$DW$286, DW_AT_TI_end_line(0x249)
	.dwattr $C$DW$286, DW_AT_TI_end_column(0x01)
	.dwendentry
	.dwendtag $C$DW$286

	.sect	".text"
	.align 4
	.global	_MSC_Ctrl

$C$DW$303	.dwtag  DW_TAG_subprogram, DW_AT_name("MSC_Ctrl")
	.dwattr $C$DW$303, DW_AT_low_pc(_MSC_Ctrl)
	.dwattr $C$DW$303, DW_AT_high_pc(0x00)
	.dwattr $C$DW$303, DW_AT_TI_symbol_name("_MSC_Ctrl")
	.dwattr $C$DW$303, DW_AT_external
	.dwattr $C$DW$303, DW_AT_type(*$C$DW$T$89)
	.dwattr $C$DW$303, DW_AT_TI_begin_file("../c5535_bsl_revc/ezdsp5535_v1/c55xx_csl/src/csl_msc.c")
	.dwattr $C$DW$303, DW_AT_TI_begin_line(0x27a)
	.dwattr $C$DW$303, DW_AT_TI_begin_column(0x0c)
	.dwattr $C$DW$303, DW_AT_TI_max_frame_size(0x10)
	.dwpsn	file "../c5535_bsl_revc/ezdsp5535_v1/c55xx_csl/src/csl_msc.c",line 635,column 1,is_stmt,address _MSC_Ctrl

	.dwfde $C$DW$CIE, _MSC_Ctrl
$C$DW$304	.dwtag  DW_TAG_formal_parameter, DW_AT_name("pMSC")
	.dwattr $C$DW$304, DW_AT_TI_symbol_name("_pMSC")
	.dwattr $C$DW$304, DW_AT_type(*$C$DW$T$3)
	.dwattr $C$DW$304, DW_AT_location[DW_OP_reg17]
;*******************************************************************************
;* FUNCTION NAME: MSC_Ctrl                                                     *
;*                                                                             *
;*   Function Uses Regs : AC0,AC0,T0,T1,T2,AR0,XAR0,AR1,XAR1,AR2,XAR2,AR3,XAR3,*
;*                        SP,CARRY,TC1,M40,SATA,SATD,RDM,FRCT,SMUL             *
;*   Save On Entry Regs : T2                                                   *
;*   Stack Frame        : Compact (No Frame Pointer, w/ debug)                 *
;*   Total Frame Size   : 16 words                                             *
;*                        (1 return address/alignment)                         *
;*                        (14 local values)                                    *
;*                        (1 register save area)                               *
;*   Min System Stack   : 1 word                                               *
;*******************************************************************************
_MSC_Ctrl:
	.dwcfi	cfa_offset, 1
	.dwcfi	save_reg_to_mem, 91, -1
        PSH T2
	.dwcfi	cfa_offset, 2
	.dwcfi	save_reg_to_mem, 14, -2
        AADD #-14, SP
	.dwcfi	cfa_offset, 16
$C$DW$305	.dwtag  DW_TAG_variable, DW_AT_name("pMSC")
	.dwattr $C$DW$305, DW_AT_TI_symbol_name("_pMSC")
	.dwattr $C$DW$305, DW_AT_type(*$C$DW$T$3)
	.dwattr $C$DW$305, DW_AT_location[DW_OP_bregx 0x24 0]
$C$DW$306	.dwtag  DW_TAG_variable, DW_AT_name("pMscClassHdl")
	.dwattr $C$DW$306, DW_AT_TI_symbol_name("_pMscClassHdl")
	.dwattr $C$DW$306, DW_AT_type(*$C$DW$T$98)
	.dwattr $C$DW$306, DW_AT_location[DW_OP_bregx 0x24 2]
$C$DW$307	.dwtag  DW_TAG_variable, DW_AT_name("pCtrlHandle")
	.dwattr $C$DW$307, DW_AT_TI_symbol_name("_pCtrlHandle")
	.dwattr $C$DW$307, DW_AT_type(*$C$DW$T$99)
	.dwattr $C$DW$307, DW_AT_location[DW_OP_bregx 0x24 4]
$C$DW$308	.dwtag  DW_TAG_variable, DW_AT_name("reqHandlerRet")
	.dwattr $C$DW$308, DW_AT_TI_symbol_name("_reqHandlerRet")
	.dwattr $C$DW$308, DW_AT_type(*$C$DW$T$42)
	.dwattr $C$DW$308, DW_AT_location[DW_OP_bregx 0x24 6]
$C$DW$309	.dwtag  DW_TAG_variable, DW_AT_name("usbCtrlEvents")
	.dwattr $C$DW$309, DW_AT_TI_symbol_name("_usbCtrlEvents")
	.dwattr $C$DW$309, DW_AT_type(*$C$DW$T$150)
	.dwattr $C$DW$309, DW_AT_location[DW_OP_bregx 0x24 7]
$C$DW$310	.dwtag  DW_TAG_variable, DW_AT_name("hCtrlEpIn")
	.dwattr $C$DW$310, DW_AT_TI_symbol_name("_hCtrlEpIn")
	.dwattr $C$DW$310, DW_AT_type(*$C$DW$T$27)
	.dwattr $C$DW$310, DW_AT_location[DW_OP_bregx 0x24 8]
$C$DW$311	.dwtag  DW_TAG_variable, DW_AT_name("hCtrlEpOut")
	.dwattr $C$DW$311, DW_AT_TI_symbol_name("_hCtrlEpOut")
	.dwattr $C$DW$311, DW_AT_type(*$C$DW$T$27)
	.dwattr $C$DW$311, DW_AT_location[DW_OP_bregx 0x24 10]
$C$DW$312	.dwtag  DW_TAG_variable, DW_AT_name("status")
	.dwattr $C$DW$312, DW_AT_TI_symbol_name("_status")
	.dwattr $C$DW$312, DW_AT_type(*$C$DW$T$89)
	.dwattr $C$DW$312, DW_AT_location[DW_OP_bregx 0x24 12]
$C$DW$313	.dwtag  DW_TAG_variable, DW_AT_name("request")
	.dwattr $C$DW$313, DW_AT_TI_symbol_name("_request")
	.dwattr $C$DW$313, DW_AT_type(*$C$DW$T$25)
	.dwattr $C$DW$313, DW_AT_location[DW_OP_bregx 0x24 13]
        MOV XAR0, dbl(*SP(#0))
	.dwpsn	file "../c5535_bsl_revc/ezdsp5535_v1/c55xx_csl/src/csl_msc.c",line 645,column 5,is_stmt
        MOV dbl(*SP(#0)), XAR3
        MOV XAR3, AC0
        BCC $C$L73,AC0 != #0 ; |645| 
                                        ; branchcc occurs ; |645| 
	.dwpsn	file "../c5535_bsl_revc/ezdsp5535_v1/c55xx_csl/src/csl_msc.c",line 647,column 3,is_stmt
        MOV #-5, T0
        B $C$L86  ; |647| 
                                        ; branch occurs ; |647| 
$C$L73:    
	.dwpsn	file "../c5535_bsl_revc/ezdsp5535_v1/c55xx_csl/src/csl_msc.c",line 650,column 5,is_stmt
        MOV XAR3, dbl(*SP(#2))
	.dwpsn	file "../c5535_bsl_revc/ezdsp5535_v1/c55xx_csl/src/csl_msc.c",line 651,column 5,is_stmt
        MOV XAR3, dbl(*SP(#4))
	.dwpsn	file "../c5535_bsl_revc/ezdsp5535_v1/c55xx_csl/src/csl_msc.c",line 652,column 5,is_stmt
        MOV XAR3, dbl(*SP(#8))
	.dwpsn	file "../c5535_bsl_revc/ezdsp5535_v1/c55xx_csl/src/csl_msc.c",line 653,column 5,is_stmt
        MOV dbl(*SP(#4)), XAR3

        MOV XAR3, dbl(*SP(#10))
||      AADD #22, AR3 ; |653| 

	.dwpsn	file "../c5535_bsl_revc/ezdsp5535_v1/c55xx_csl/src/csl_msc.c",line 654,column 5,is_stmt
        MOV #0, *SP(#6) ; |654| 
	.dwpsn	file "../c5535_bsl_revc/ezdsp5535_v1/c55xx_csl/src/csl_msc.c",line 656,column 5,is_stmt
        MOV dbl(*SP(#4)), XAR3
        MOV #(_MSC_reqUnknown >> 16) << #16, AC0 ; |656| 
        OR #(_MSC_reqUnknown & 0xffff), AC0, AC0 ; |656| 
        MOV AC0, dbl(*AR3(#174)) ; |656| 
	.dwpsn	file "../c5535_bsl_revc/ezdsp5535_v1/c55xx_csl/src/csl_msc.c",line 658,column 5,is_stmt
        AMAR *SP(#12), XAR1
        MOV dbl(*SP(#10)), XAR0
$C$DW$314	.dwtag  DW_TAG_TI_branch
	.dwattr $C$DW$314, DW_AT_low_pc(0x00)
	.dwattr $C$DW$314, DW_AT_name("_USB_getEvents")
	.dwattr $C$DW$314, DW_AT_TI_call
        CALL #_USB_getEvents ; |658| 
                                        ; call occurs [#_USB_getEvents] ; |658| 
        AMAR *SP(#12), XAR1
        MOV dbl(*SP(#8)), XAR0
$C$DW$315	.dwtag  DW_TAG_TI_branch
	.dwattr $C$DW$315, DW_AT_low_pc(0x00)
	.dwattr $C$DW$315, DW_AT_name("_USB_getEvents")
	.dwattr $C$DW$315, DW_AT_TI_call

        CALL #_USB_getEvents ; |658| 
||      MOV T0, T2 ; |658| 

                                        ; call occurs [#_USB_getEvents] ; |658| 
        OR T2, T0 ; |658| 
        MOV T0, *SP(#7) ; |658| 
	.dwpsn	file "../c5535_bsl_revc/ezdsp5535_v1/c55xx_csl/src/csl_msc.c",line 663,column 2,is_stmt
        BTST #0, *SP(#7), TC1 ; |663| 
        BCC $C$L74,!TC1 ; |663| 
                                        ; branchcc occurs ; |663| 
	.dwpsn	file "../c5535_bsl_revc/ezdsp5535_v1/c55xx_csl/src/csl_msc.c",line 665,column 3,is_stmt
        MOV dbl(*SP(#4)), XAR3
        MOV #0, *AR3(#42) ; |665| 
	.dwpsn	file "../c5535_bsl_revc/ezdsp5535_v1/c55xx_csl/src/csl_msc.c",line 667,column 3,is_stmt
        MOV dbl(*SP(#4)), XAR3
        MOV *AR3(#20), T0 ; |667| 
$C$DW$316	.dwtag  DW_TAG_TI_branch
	.dwattr $C$DW$316, DW_AT_low_pc(0x00)
	.dwattr $C$DW$316, DW_AT_name("_USB_abortAllTransaction")
	.dwattr $C$DW$316, DW_AT_TI_call
        CALL #_USB_abortAllTransaction ; |667| 
                                        ; call occurs [#_USB_abortAllTransaction] ; |667| 
        OR *SP(#12), T0, AR1 ; |667| 
        MOV AR1, *SP(#12) ; |667| 
	.dwpsn	file "../c5535_bsl_revc/ezdsp5535_v1/c55xx_csl/src/csl_msc.c",line 669,column 3,is_stmt
        MOV dbl(*SP(#4)), XAR0
        MOV dbl(*SP(#4)), XAR3
        AADD #44, AR0 ; |669| 
        MOV *AR3(#20), T0 ; |669| 
$C$DW$317	.dwtag  DW_TAG_TI_branch
	.dwattr $C$DW$317, DW_AT_low_pc(0x00)
	.dwattr $C$DW$317, DW_AT_name("_USB_setParams")
	.dwattr $C$DW$317, DW_AT_TI_call

        CALL #_USB_setParams ; |669| 
||      MOV #0, T1

                                        ; call occurs [#_USB_setParams] ; |669| 
        OR *SP(#12), T0, AR1 ; |669| 
        MOV AR1, *SP(#12) ; |669| 
	.dwpsn	file "../c5535_bsl_revc/ezdsp5535_v1/c55xx_csl/src/csl_msc.c",line 672,column 3,is_stmt
        MOV dbl(*SP(#4)), XAR3
        MOV #0, *AR3(#150) ; |672| 
$C$L74:    
	.dwpsn	file "../c5535_bsl_revc/ezdsp5535_v1/c55xx_csl/src/csl_msc.c",line 675,column 2,is_stmt
        BTST #2, *SP(#7), TC1 ; |675| 
        BCC $C$L75,!TC1 ; |675| 
                                        ; branchcc occurs ; |675| 
	.dwpsn	file "../c5535_bsl_revc/ezdsp5535_v1/c55xx_csl/src/csl_msc.c",line 677,column 3,is_stmt
        MOV dbl(*SP(#4)), XAR3
        MOV #1, *AR3(#42) ; |677| 
$C$L75:    
	.dwpsn	file "../c5535_bsl_revc/ezdsp5535_v1/c55xx_csl/src/csl_msc.c",line 680,column 2,is_stmt
        BTST #3, *SP(#7), TC1 ; |680| 
        BCC $C$L76,!TC1 ; |680| 
                                        ; branchcc occurs ; |680| 
	.dwpsn	file "../c5535_bsl_revc/ezdsp5535_v1/c55xx_csl/src/csl_msc.c",line 682,column 3,is_stmt
        MOV dbl(*SP(#4)), XAR3
        MOV #0, *AR3(#42) ; |682| 
$C$L76:    
	.dwpsn	file "../c5535_bsl_revc/ezdsp5535_v1/c55xx_csl/src/csl_msc.c",line 687,column 3,is_stmt
        MOV *SP(#7), AR1 ; |687| 

        AND #0x0010, AR1, AR1 ; |687| 
||      MOV #16, AR2 ; |687| 

        CMPU AR1 != AR2, TC1 ; |687| 
        BCC $C$L85,TC1 ; |687| 
                                        ; branchcc occurs ; |687| 
	.dwpsn	file "../c5535_bsl_revc/ezdsp5535_v1/c55xx_csl/src/csl_msc.c",line 690,column 3,is_stmt
        MOV dbl(*SP(#4)), XAR3
        MOV dbl(*SP(#4)), XAR0
        MOV *AR3(#20), T0 ; |690| 
        AADD #54, AR0 ; |690| 
$C$DW$318	.dwtag  DW_TAG_TI_branch
	.dwattr $C$DW$318, DW_AT_low_pc(0x00)
	.dwattr $C$DW$318, DW_AT_name("_USB_getSetupPacket")
	.dwattr $C$DW$318, DW_AT_TI_call

        CALL #_USB_getSetupPacket ; |690| 
||      MOV #0, T1

                                        ; call occurs [#_USB_getSetupPacket] ; |690| 
        OR *SP(#12), T0, AR1 ; |690| 
        MOV AR1, *SP(#12) ; |690| 
	.dwpsn	file "../c5535_bsl_revc/ezdsp5535_v1/c55xx_csl/src/csl_msc.c",line 692,column 3,is_stmt
        MOV dbl(*SP(#4)), XAR2
        MOV dbl(*SP(#4)), XAR3
        MOV *AR2(#55), AC0 ; |692| 
        SFTL AC0, #8, AC0 ; |692| 
        AND #0xf000, AC0, AR1 ; |692| 
        OR *AR3(#56), AR1, AR1 ; |692| 
        MOV AR1, *SP(#13) ; |692| 
	.dwpsn	file "../c5535_bsl_revc/ezdsp5535_v1/c55xx_csl/src/csl_msc.c",line 696,column 3,is_stmt
        MOV dbl(*SP(#4)), XAR3
        MOV dbl(*AR3(#172)), XAR0
$C$DW$319	.dwtag  DW_TAG_TI_branch
	.dwattr $C$DW$319, DW_AT_low_pc(0x00)
	.dwattr $C$DW$319, DW_AT_name("_MSC_lookupReqHandler")
	.dwattr $C$DW$319, DW_AT_TI_call

        CALL #_MSC_lookupReqHandler ; |696| 
||      MOV AR1, T0

                                        ; call occurs [#_MSC_lookupReqHandler] ; |696| 
        MOV dbl(*SP(#4)), XAR3
        MOV AC0, dbl(*AR3(#174)) ; |696| 
	.dwpsn	file "../c5535_bsl_revc/ezdsp5535_v1/c55xx_csl/src/csl_msc.c",line 699,column 6,is_stmt
        MOV *SP(#6), AR1 ; |699| 
        BCC $C$L82,AR1 != #0 ; |699| 
                                        ; branchcc occurs ; |699| 
	.dwpsn	file "../c5535_bsl_revc/ezdsp5535_v1/c55xx_csl/src/csl_msc.c",line 701,column 4,is_stmt
        MOV dbl(*SP(#4)), XAR3
        MOV dbl(*SP(#4)), XAR0
        MOV dbl(*SP(#8)), XAR1
        MOV dbl(*SP(#10)), XAR2
        MOV dbl(*AR3(#174)), AC0 ; |701| 
        MOV *AR3(#20), T0 ; |701| 
        AADD #54, AR0 ; |701| 
        MOV dbl(*SP(#0)), XAR3
$C$DW$320	.dwtag  DW_TAG_TI_branch
	.dwattr $C$DW$320, DW_AT_low_pc(0x00)
	.dwattr $C$DW$320, DW_AT_TI_call
	.dwattr $C$DW$320, DW_AT_TI_indirect
        CALL AC0  ; |701| 
                                        ; call occurs [AC0] ; |701| 
        MOV T0, *SP(#6) ; |701| 
	.dwpsn	file "../c5535_bsl_revc/ezdsp5535_v1/c55xx_csl/src/csl_msc.c",line 705,column 3,is_stmt
        B $C$L82  ; |705| 
                                        ; branch occurs ; |705| 
$C$L77:    
	.dwpsn	file "../c5535_bsl_revc/ezdsp5535_v1/c55xx_csl/src/csl_msc.c",line 710,column 5,is_stmt
        MOV dbl(*SP(#8)), XAR0
        AMOV #0, XAR1 ; |710| 
        MOV #0, T0
$C$DW$321	.dwtag  DW_TAG_TI_branch
	.dwattr $C$DW$321, DW_AT_low_pc(0x00)
	.dwattr $C$DW$321, DW_AT_name("_USB_postTransaction")
	.dwattr $C$DW$321, DW_AT_TI_call

        CALL #_USB_postTransaction ; |710| 
||      MOV #0, T1

                                        ; call occurs [#_USB_postTransaction] ; |710| 
        OR *SP(#12), T0, AR1 ; |710| 
        MOV AR1, *SP(#12) ; |710| 
	.dwpsn	file "../c5535_bsl_revc/ezdsp5535_v1/c55xx_csl/src/csl_msc.c",line 712,column 5,is_stmt
        MOV dbl(*SP(#4)), XAR3
        MOV #(_MSC_reqUnknown >> 16) << #16, AC0 ; |712| 
        OR #(_MSC_reqUnknown & 0xffff), AC0, AC0 ; |712| 
        MOV AC0, dbl(*AR3(#174)) ; |712| 
	.dwpsn	file "../c5535_bsl_revc/ezdsp5535_v1/c55xx_csl/src/csl_msc.c",line 713,column 10,is_stmt
        B $C$L84  ; |713| 
                                        ; branch occurs ; |713| 
$C$L78:    
	.dwpsn	file "../c5535_bsl_revc/ezdsp5535_v1/c55xx_csl/src/csl_msc.c",line 722,column 5,is_stmt
        MOV dbl(*SP(#10)), XAR0
        AMOV #0, XAR1 ; |722| 
        MOV #0, T0
$C$DW$322	.dwtag  DW_TAG_TI_branch
	.dwattr $C$DW$322, DW_AT_low_pc(0x00)
	.dwattr $C$DW$322, DW_AT_name("_USB_postTransaction")
	.dwattr $C$DW$322, DW_AT_TI_call

        CALL #_USB_postTransaction ; |722| 
||      MOV #0, T1

                                        ; call occurs [#_USB_postTransaction] ; |722| 
        OR *SP(#12), T0, AR1 ; |722| 
        MOV AR1, *SP(#12) ; |722| 
	.dwpsn	file "../c5535_bsl_revc/ezdsp5535_v1/c55xx_csl/src/csl_msc.c",line 724,column 5,is_stmt
        MOV dbl(*SP(#4)), XAR3
        MOV #(_MSC_reqUnknown >> 16) << #16, AC0 ; |724| 
        OR #(_MSC_reqUnknown & 0xffff), AC0, AC0 ; |724| 
        MOV AC0, dbl(*AR3(#174)) ; |724| 
	.dwpsn	file "../c5535_bsl_revc/ezdsp5535_v1/c55xx_csl/src/csl_msc.c",line 725,column 10,is_stmt
        B $C$L84  ; |725| 
                                        ; branch occurs ; |725| 
$C$L79:    
	.dwpsn	file "../c5535_bsl_revc/ezdsp5535_v1/c55xx_csl/src/csl_msc.c",line 734,column 5,is_stmt
        MOV dbl(*SP(#10)), XAR0
$C$DW$323	.dwtag  DW_TAG_TI_branch
	.dwattr $C$DW$323, DW_AT_low_pc(0x00)
	.dwattr $C$DW$323, DW_AT_name("_USB_stallEndpt")
	.dwattr $C$DW$323, DW_AT_TI_call
        CALL #_USB_stallEndpt ; |734| 
                                        ; call occurs [#_USB_stallEndpt] ; |734| 
        OR *SP(#12), T0, AR1 ; |734| 
        MOV AR1, *SP(#12) ; |734| 
	.dwpsn	file "../c5535_bsl_revc/ezdsp5535_v1/c55xx_csl/src/csl_msc.c",line 735,column 5,is_stmt
        MOV dbl(*SP(#8)), XAR0
$C$DW$324	.dwtag  DW_TAG_TI_branch
	.dwattr $C$DW$324, DW_AT_low_pc(0x00)
	.dwattr $C$DW$324, DW_AT_name("_USB_stallEndpt")
	.dwattr $C$DW$324, DW_AT_TI_call
        CALL #_USB_stallEndpt ; |735| 
                                        ; call occurs [#_USB_stallEndpt] ; |735| 
        OR *SP(#12), T0, AR1 ; |735| 
        MOV AR1, *SP(#12) ; |735| 
	.dwpsn	file "../c5535_bsl_revc/ezdsp5535_v1/c55xx_csl/src/csl_msc.c",line 736,column 10,is_stmt
        B $C$L84  ; |736| 
                                        ; branch occurs ; |736| 
$C$L80:    
	.dwpsn	file "../c5535_bsl_revc/ezdsp5535_v1/c55xx_csl/src/csl_msc.c",line 739,column 5,is_stmt
        MOV dbl(*SP(#4)), XAR3
        MOV #(_MSC_reqUnknown >> 16) << #16, AC0 ; |739| 
        OR #(_MSC_reqUnknown & 0xffff), AC0, AC0 ; |739| 
        MOV AC0, dbl(*AR3(#174)) ; |739| 
	.dwpsn	file "../c5535_bsl_revc/ezdsp5535_v1/c55xx_csl/src/csl_msc.c",line 740,column 10,is_stmt
        B $C$L84  ; |740| 
                                        ; branch occurs ; |740| 
$C$L81:    
	.dwpsn	file "../c5535_bsl_revc/ezdsp5535_v1/c55xx_csl/src/csl_msc.c",line 743,column 5,is_stmt
        MOV #-578, *SP(#12) ; |743| 
	.dwpsn	file "../c5535_bsl_revc/ezdsp5535_v1/c55xx_csl/src/csl_msc.c",line 744,column 10,is_stmt
        B $C$L84  ; |744| 
                                        ; branch occurs ; |744| 
$C$L82:    
	.dwpsn	file "../c5535_bsl_revc/ezdsp5535_v1/c55xx_csl/src/csl_msc.c",line 705,column 3,is_stmt

        MOV *SP(#6), AR1 ; |705| 
||      MOV #3, AR2

        CMP AR1 > AR2, TC1 ; |705| 
        BCC $C$L83,TC1 ; |705| 
                                        ; branchcc occurs ; |705| 
        CMP AR1 == AR2, TC1 ; |705| 
        BCC $C$L78,TC1 ; |705| 
                                        ; branchcc occurs ; |705| 
        BCC $C$L80,AR1 == #0 ; |705| 
                                        ; branchcc occurs ; |705| 
        MOV #1, AR2
        CMP AR1 == AR2, TC1 ; |705| 
        BCC $C$L79,TC1 ; |705| 
                                        ; branchcc occurs ; |705| 
        MOV #2, AR2
        CMP AR1 == AR2, TC1 ; |705| 
        BCC $C$L77,TC1 ; |705| 
                                        ; branchcc occurs ; |705| 
        B $C$L81  ; |705| 
                                        ; branch occurs ; |705| 
$C$L83:    
        MOV #4, AR2
        CMP AR1 == AR2, TC1 ; |705| 
        BCC $C$L84,TC1 ; |705| 
                                        ; branchcc occurs ; |705| 
        MOV #5, AR2
        CMP AR1 == AR2, TC1 ; |705| 
        BCC $C$L81,!TC1 ; |705| 
                                        ; branchcc occurs ; |705| 
$C$L84:    
	.dwpsn	file "../c5535_bsl_revc/ezdsp5535_v1/c55xx_csl/src/csl_msc.c",line 748,column 6,is_stmt
        MOV dbl(*SP(#4)), XAR3
        MOV *AR3(#54), AR1 ; |748| 
        BCC $C$L85,AR1 == #0 ; |748| 
                                        ; branchcc occurs ; |748| 
	.dwpsn	file "../c5535_bsl_revc/ezdsp5535_v1/c55xx_csl/src/csl_msc.c",line 750,column 4,is_stmt
        MOV #0, *AR3(#54) ; |750| 
$C$L85:    
	.dwpsn	file "../c5535_bsl_revc/ezdsp5535_v1/c55xx_csl/src/csl_msc.c",line 754,column 2,is_stmt
        MOV *SP(#12), T0 ; |754| 
$C$L86:    
	.dwpsn	file "../c5535_bsl_revc/ezdsp5535_v1/c55xx_csl/src/csl_msc.c",line 755,column 1,is_stmt
        AADD #14, SP
	.dwcfi	cfa_offset, 2
        POP T2
	.dwcfi	restore_reg, 14
	.dwcfi	cfa_offset, 1
$C$DW$325	.dwtag  DW_TAG_TI_branch
	.dwattr $C$DW$325, DW_AT_low_pc(0x00)
	.dwattr $C$DW$325, DW_AT_TI_return
        RET
                                        ; return occurs
	.dwattr $C$DW$303, DW_AT_TI_end_file("../c5535_bsl_revc/ezdsp5535_v1/c55xx_csl/src/csl_msc.c")
	.dwattr $C$DW$303, DW_AT_TI_end_line(0x2f3)
	.dwattr $C$DW$303, DW_AT_TI_end_column(0x01)
	.dwendentry
	.dwendtag $C$DW$303

	.sect	".text"
	.align 4
	.global	_MSC_Bulk

$C$DW$326	.dwtag  DW_TAG_subprogram, DW_AT_name("MSC_Bulk")
	.dwattr $C$DW$326, DW_AT_low_pc(_MSC_Bulk)
	.dwattr $C$DW$326, DW_AT_high_pc(0x00)
	.dwattr $C$DW$326, DW_AT_TI_symbol_name("_MSC_Bulk")
	.dwattr $C$DW$326, DW_AT_external
	.dwattr $C$DW$326, DW_AT_type(*$C$DW$T$89)
	.dwattr $C$DW$326, DW_AT_TI_begin_file("../c5535_bsl_revc/ezdsp5535_v1/c55xx_csl/src/csl_msc.c")
	.dwattr $C$DW$326, DW_AT_TI_begin_line(0x324)
	.dwattr $C$DW$326, DW_AT_TI_begin_column(0x0c)
	.dwattr $C$DW$326, DW_AT_TI_max_frame_size(0x0e)
	.dwpsn	file "../c5535_bsl_revc/ezdsp5535_v1/c55xx_csl/src/csl_msc.c",line 805,column 1,is_stmt,address _MSC_Bulk

	.dwfde $C$DW$CIE, _MSC_Bulk
$C$DW$327	.dwtag  DW_TAG_formal_parameter, DW_AT_name("pMSC")
	.dwattr $C$DW$327, DW_AT_TI_symbol_name("_pMSC")
	.dwattr $C$DW$327, DW_AT_type(*$C$DW$T$3)
	.dwattr $C$DW$327, DW_AT_location[DW_OP_reg17]
;*******************************************************************************
;* FUNCTION NAME: MSC_Bulk                                                     *
;*                                                                             *
;*   Function Uses Regs : AC0,AC0,AC1,AC1,T0,T1,AR0,XAR0,AR1,XAR1,AR2,XAR2,AR3,*
;*                        XAR3,SP,CARRY,TC1,M40,SATA,SATD,RDM,FRCT,SMUL        *
;*   Stack Frame        : Compact (No Frame Pointer, w/ debug)                 *
;*   Total Frame Size   : 14 words                                             *
;*                        (2 return address/alignment)                         *
;*                        (12 local values)                                    *
;*   Min System Stack   : 1 word                                               *
;*******************************************************************************
_MSC_Bulk:
	.dwcfi	cfa_offset, 1
	.dwcfi	save_reg_to_mem, 91, -1
        AADD #-13, SP
	.dwcfi	cfa_offset, 14
$C$DW$328	.dwtag  DW_TAG_variable, DW_AT_name("pMSC")
	.dwattr $C$DW$328, DW_AT_TI_symbol_name("_pMSC")
	.dwattr $C$DW$328, DW_AT_type(*$C$DW$T$3)
	.dwattr $C$DW$328, DW_AT_location[DW_OP_bregx 0x24 0]
$C$DW$329	.dwtag  DW_TAG_variable, DW_AT_name("pMscClassHdl")
	.dwattr $C$DW$329, DW_AT_TI_symbol_name("_pMscClassHdl")
	.dwattr $C$DW$329, DW_AT_type(*$C$DW$T$98)
	.dwattr $C$DW$329, DW_AT_location[DW_OP_bregx 0x24 2]
$C$DW$330	.dwtag  DW_TAG_variable, DW_AT_name("pMscHandle")
	.dwattr $C$DW$330, DW_AT_TI_symbol_name("_pMscHandle")
	.dwattr $C$DW$330, DW_AT_type(*$C$DW$T$107)
	.dwattr $C$DW$330, DW_AT_location[DW_OP_bregx 0x24 4]
$C$DW$331	.dwtag  DW_TAG_variable, DW_AT_name("hUsbInEp")
	.dwattr $C$DW$331, DW_AT_TI_symbol_name("_hUsbInEp")
	.dwattr $C$DW$331, DW_AT_type(*$C$DW$T$27)
	.dwattr $C$DW$331, DW_AT_location[DW_OP_bregx 0x24 6]
$C$DW$332	.dwtag  DW_TAG_variable, DW_AT_name("hUsbOutEp")
	.dwattr $C$DW$332, DW_AT_TI_symbol_name("_hUsbOutEp")
	.dwattr $C$DW$332, DW_AT_type(*$C$DW$T$27)
	.dwattr $C$DW$332, DW_AT_location[DW_OP_bregx 0x24 8]
$C$DW$333	.dwtag  DW_TAG_variable, DW_AT_name("status")
	.dwattr $C$DW$333, DW_AT_TI_symbol_name("_status")
	.dwattr $C$DW$333, DW_AT_type(*$C$DW$T$89)
	.dwattr $C$DW$333, DW_AT_location[DW_OP_bregx 0x24 10]
$C$DW$334	.dwtag  DW_TAG_variable, DW_AT_name("logicalUnit")
	.dwattr $C$DW$334, DW_AT_TI_symbol_name("_logicalUnit")
	.dwattr $C$DW$334, DW_AT_type(*$C$DW$T$25)
	.dwattr $C$DW$334, DW_AT_location[DW_OP_bregx 0x24 11]
        MOV XAR0, dbl(*SP(#0))
	.dwpsn	file "../c5535_bsl_revc/ezdsp5535_v1/c55xx_csl/src/csl_msc.c",line 813,column 2,is_stmt
        MOV #0, *SP(#10) ; |813| 
	.dwpsn	file "../c5535_bsl_revc/ezdsp5535_v1/c55xx_csl/src/csl_msc.c",line 815,column 2,is_stmt
        MOV dbl(*SP(#0)), XAR3
        MOV XAR3, AC0
        BCC $C$L98,AC0 == #0 ; |815| 
                                        ; branchcc occurs ; |815| 
	.dwpsn	file "../c5535_bsl_revc/ezdsp5535_v1/c55xx_csl/src/csl_msc.c",line 817,column 3,is_stmt
        MOV XAR3, dbl(*SP(#2))
	.dwpsn	file "../c5535_bsl_revc/ezdsp5535_v1/c55xx_csl/src/csl_msc.c",line 818,column 3,is_stmt
        AMAR *+AR3(#182) ; |818| 
        MOV XAR3, dbl(*SP(#4))
	.dwpsn	file "../c5535_bsl_revc/ezdsp5535_v1/c55xx_csl/src/csl_msc.c",line 819,column 3,is_stmt
        AMAR *+AR3(#314) ; |819| 
        MOV XAR3, dbl(*SP(#6))
	.dwpsn	file "../c5535_bsl_revc/ezdsp5535_v1/c55xx_csl/src/csl_msc.c",line 820,column 3,is_stmt
        MOV dbl(*SP(#4)), XAR3
        AMAR *+AR3(#334) ; |820| 
        MOV XAR3, dbl(*SP(#8))
	.dwpsn	file "../c5535_bsl_revc/ezdsp5535_v1/c55xx_csl/src/csl_msc.c",line 822,column 3,is_stmt
        AMAR *SP(#10), XAR1
        MOV dbl(*SP(#6)), XAR0
$C$DW$335	.dwtag  DW_TAG_TI_branch
	.dwattr $C$DW$335, DW_AT_low_pc(0x00)
	.dwattr $C$DW$335, DW_AT_name("_USB_getEvents")
	.dwattr $C$DW$335, DW_AT_TI_call
        CALL #_USB_getEvents ; |822| 
                                        ; call occurs [#_USB_getEvents] ; |822| 
        BTST @#0, T0, TC1 ; |822| 
        BCC $C$L87,!TC1 ; |822| 
                                        ; branchcc occurs ; |822| 
	.dwpsn	file "../c5535_bsl_revc/ezdsp5535_v1/c55xx_csl/src/csl_msc.c",line 824,column 7,is_stmt
        MOV dbl(*SP(#4)), XAR3
        MOV #0, *AR3(#355) ; |824| 
$C$L87:    
	.dwpsn	file "../c5535_bsl_revc/ezdsp5535_v1/c55xx_csl/src/csl_msc.c",line 827,column 3,is_stmt
        MOV dbl(*SP(#4)), XAR3
        MOV uns(high_byte(*AR3(#303))), AR1 ; |827| 
        MOV AR1, *SP(#11) ; |827| 
	.dwpsn	file "../c5535_bsl_revc/ezdsp5535_v1/c55xx_csl/src/csl_msc.c",line 830,column 3,is_stmt
        B $C$L97  ; |830| 
                                        ; branch occurs ; |830| 
$C$L88:    
	.dwpsn	file "../c5535_bsl_revc/ezdsp5535_v1/c55xx_csl/src/csl_msc.c",line 833,column 5,is_stmt
        MOV dbl(*SP(#4)), XAR0
        MOV dbl(*SP(#8)), XAR1
$C$DW$336	.dwtag  DW_TAG_TI_branch
	.dwattr $C$DW$336, DW_AT_low_pc(0x00)
	.dwattr $C$DW$336, DW_AT_name("_MSC_HandleStateReset")
	.dwattr $C$DW$336, DW_AT_TI_call
        CALL #_MSC_HandleStateReset ; |833| 
                                        ; call occurs [#_MSC_HandleStateReset] ; |833| 
        MOV T0, *SP(#10) ; |833| 
	.dwpsn	file "../c5535_bsl_revc/ezdsp5535_v1/c55xx_csl/src/csl_msc.c",line 834,column 10,is_stmt
        B $C$L99  ; |834| 
                                        ; branch occurs ; |834| 
$C$L89:    
	.dwpsn	file "../c5535_bsl_revc/ezdsp5535_v1/c55xx_csl/src/csl_msc.c",line 837,column 5,is_stmt
        MOV dbl(*SP(#4)), XAR0
        MOV dbl(*SP(#8)), XAR1
        MOV dbl(*SP(#6)), XAR2
$C$DW$337	.dwtag  DW_TAG_TI_branch
	.dwattr $C$DW$337, DW_AT_low_pc(0x00)
	.dwattr $C$DW$337, DW_AT_name("_MSC_HandleStateWaitForCBW")
	.dwattr $C$DW$337, DW_AT_TI_call
        CALL #_MSC_HandleStateWaitForCBW ; |837| 
                                        ; call occurs [#_MSC_HandleStateWaitForCBW] ; |837| 
        MOV T0, *SP(#10) ; |837| 
	.dwpsn	file "../c5535_bsl_revc/ezdsp5535_v1/c55xx_csl/src/csl_msc.c",line 838,column 10,is_stmt
        B $C$L99  ; |838| 
                                        ; branch occurs ; |838| 
$C$L90:    
	.dwpsn	file "../c5535_bsl_revc/ezdsp5535_v1/c55xx_csl/src/csl_msc.c",line 841,column 5,is_stmt
        MOV dbl(*SP(#4)), XAR0
        MOV dbl(*SP(#8)), XAR1
        MOV dbl(*SP(#6)), XAR2
$C$DW$338	.dwtag  DW_TAG_TI_branch
	.dwattr $C$DW$338, DW_AT_low_pc(0x00)
	.dwattr $C$DW$338, DW_AT_name("_MSC_HandleStateSendCSW")
	.dwattr $C$DW$338, DW_AT_TI_call
        CALL #_MSC_HandleStateSendCSW ; |841| 
                                        ; call occurs [#_MSC_HandleStateSendCSW] ; |841| 
        MOV T0, *SP(#10) ; |841| 
	.dwpsn	file "../c5535_bsl_revc/ezdsp5535_v1/c55xx_csl/src/csl_msc.c",line 842,column 10,is_stmt
        B $C$L99  ; |842| 
                                        ; branch occurs ; |842| 
$C$L91:    
	.dwpsn	file "../c5535_bsl_revc/ezdsp5535_v1/c55xx_csl/src/csl_msc.c",line 845,column 5,is_stmt
        MOV dbl(*SP(#4)), XAR0
        MOV dbl(*SP(#6)), XAR1
$C$DW$339	.dwtag  DW_TAG_TI_branch
	.dwattr $C$DW$339, DW_AT_low_pc(0x00)
	.dwattr $C$DW$339, DW_AT_name("_MSC_HandleStateSendData")
	.dwattr $C$DW$339, DW_AT_TI_call
        CALL #_MSC_HandleStateSendData ; |845| 
                                        ; call occurs [#_MSC_HandleStateSendData] ; |845| 
        MOV T0, *SP(#10) ; |845| 
	.dwpsn	file "../c5535_bsl_revc/ezdsp5535_v1/c55xx_csl/src/csl_msc.c",line 846,column 10,is_stmt
        B $C$L99  ; |846| 
                                        ; branch occurs ; |846| 
$C$L92:    
	.dwpsn	file "../c5535_bsl_revc/ezdsp5535_v1/c55xx_csl/src/csl_msc.c",line 849,column 5,is_stmt
        MOV dbl(*SP(#4)), XAR0
        MOV dbl(*SP(#6)), XAR1
$C$DW$340	.dwtag  DW_TAG_TI_branch
	.dwattr $C$DW$340, DW_AT_low_pc(0x00)
	.dwattr $C$DW$340, DW_AT_name("_MSC_HandleStateSendStall")
	.dwattr $C$DW$340, DW_AT_TI_call
        CALL #_MSC_HandleStateSendStall ; |849| 
                                        ; call occurs [#_MSC_HandleStateSendStall] ; |849| 
        MOV T0, *SP(#10) ; |849| 
	.dwpsn	file "../c5535_bsl_revc/ezdsp5535_v1/c55xx_csl/src/csl_msc.c",line 850,column 10,is_stmt
        B $C$L99  ; |850| 
                                        ; branch occurs ; |850| 
$C$L93:    
	.dwpsn	file "../c5535_bsl_revc/ezdsp5535_v1/c55xx_csl/src/csl_msc.c",line 853,column 5,is_stmt
        MOV dbl(*SP(#4)), XAR0
        MOV *SP(#11), T0 ; |853| 
$C$DW$341	.dwtag  DW_TAG_TI_branch
	.dwattr $C$DW$341, DW_AT_low_pc(0x00)
	.dwattr $C$DW$341, DW_AT_name("_MSC_ExecuteRead")
	.dwattr $C$DW$341, DW_AT_TI_call

        CALL #_MSC_ExecuteRead ; |853| 
||      MOV #0, T1

                                        ; call occurs [#_MSC_ExecuteRead] ; |853| 
        MOV T0, *SP(#10) ; |853| 
	.dwpsn	file "../c5535_bsl_revc/ezdsp5535_v1/c55xx_csl/src/csl_msc.c",line 854,column 10,is_stmt
        B $C$L99  ; |854| 
                                        ; branch occurs ; |854| 
$C$L94:    
	.dwpsn	file "../c5535_bsl_revc/ezdsp5535_v1/c55xx_csl/src/csl_msc.c",line 857,column 5,is_stmt
        MOV dbl(*SP(#4)), XAR0
        MOV *SP(#11), T0 ; |857| 
$C$DW$342	.dwtag  DW_TAG_TI_branch
	.dwattr $C$DW$342, DW_AT_low_pc(0x00)
	.dwattr $C$DW$342, DW_AT_name("_MSC_ExecuteWrite")
	.dwattr $C$DW$342, DW_AT_TI_call

        CALL #_MSC_ExecuteWrite ; |857| 
||      MOV #0, T1

                                        ; call occurs [#_MSC_ExecuteWrite] ; |857| 
        MOV T0, *SP(#10) ; |857| 
	.dwpsn	file "../c5535_bsl_revc/ezdsp5535_v1/c55xx_csl/src/csl_msc.c",line 858,column 10,is_stmt
        B $C$L99  ; |858| 
                                        ; branch occurs ; |858| 
$C$L95:    
	.dwpsn	file "../c5535_bsl_revc/ezdsp5535_v1/c55xx_csl/src/csl_msc.c",line 861,column 5,is_stmt
        MOV dbl(*SP(#4)), XAR0
        MOV dbl(*SP(#6)), XAR1
$C$DW$343	.dwtag  DW_TAG_TI_branch
	.dwattr $C$DW$343, DW_AT_low_pc(0x00)
	.dwattr $C$DW$343, DW_AT_name("_MSC_HandleStateSendingShortPkt")
	.dwattr $C$DW$343, DW_AT_TI_call
        CALL #_MSC_HandleStateSendingShortPkt ; |861| 
                                        ; call occurs [#_MSC_HandleStateSendingShortPkt] ; |861| 
        MOV T0, *SP(#10) ; |861| 
	.dwpsn	file "../c5535_bsl_revc/ezdsp5535_v1/c55xx_csl/src/csl_msc.c",line 862,column 10,is_stmt
        B $C$L99  ; |862| 
                                        ; branch occurs ; |862| 
$C$L96:    
	.dwpsn	file "../c5535_bsl_revc/ezdsp5535_v1/c55xx_csl/src/csl_msc.c",line 865,column 5,is_stmt
        MOV #-6, *SP(#10) ; |865| 
	.dwpsn	file "../c5535_bsl_revc/ezdsp5535_v1/c55xx_csl/src/csl_msc.c",line 866,column 13,is_stmt
        B $C$L99  ; |866| 
                                        ; branch occurs ; |866| 
$C$L97:    
	.dwpsn	file "../c5535_bsl_revc/ezdsp5535_v1/c55xx_csl/src/csl_msc.c",line 830,column 3,is_stmt
        MOV dbl(*SP(#4)), XAR3
        MOV *AR3(#355), AC0 ; |830| 

        MOV AC0, AR1 ; |830| 
||      MOV #7, AR2

        CMPU AR1 <= AR2, TC1 ; |830| 
        BCC $C$L96,!TC1 ; |830| 
                                        ; branchcc occurs ; |830| 
        SFTL AC0, #1, AC0 ; |830| 
        AND #0xffff, AC0, AC1 ; |830| 
        MOV #($C$SW1 >> 16) << #16, AC0 ; |830| 
        OR #($C$SW1 & 0xffff), AC0, AC0 ; |830| 
        ADD AC1, AC0 ; |830| 
        MOV AC0, XAR3
        MOV dbl(*AR3), AC0 ; |830| 
        B AC0     ; |830| 
                                        ; branch occurs ; |830| 
	.sect	".switch:_MSC_Bulk"
	.clink
$C$SW1:	.long	$C$L88	; 0
	.long	$C$L89	; 1
	.long	$C$L92	; 2
	.long	$C$L91	; 3
	.long	$C$L90	; 4
	.long	$C$L93	; 5
	.long	$C$L94	; 6
	.long	$C$L95	; 7
	.sect	".text"
$C$L98:    
	.dwpsn	file "../c5535_bsl_revc/ezdsp5535_v1/c55xx_csl/src/csl_msc.c",line 871,column 3,is_stmt
        MOV #-5, *SP(#10) ; |871| 
$C$L99:    
	.dwpsn	file "../c5535_bsl_revc/ezdsp5535_v1/c55xx_csl/src/csl_msc.c",line 874,column 2,is_stmt
        MOV *SP(#10), T0 ; |874| 
	.dwpsn	file "../c5535_bsl_revc/ezdsp5535_v1/c55xx_csl/src/csl_msc.c",line 875,column 1,is_stmt
        AADD #13, SP
	.dwcfi	cfa_offset, 1
$C$DW$344	.dwtag  DW_TAG_TI_branch
	.dwattr $C$DW$344, DW_AT_low_pc(0x00)
	.dwattr $C$DW$344, DW_AT_TI_return
        RET
                                        ; return occurs
	.dwattr $C$DW$326, DW_AT_TI_end_file("../c5535_bsl_revc/ezdsp5535_v1/c55xx_csl/src/csl_msc.c")
	.dwattr $C$DW$326, DW_AT_TI_end_line(0x36b)
	.dwattr $C$DW$326, DW_AT_TI_end_column(0x01)
	.dwendentry
	.dwendtag $C$DW$326

	.sect	".text"
	.align 4
	.global	_MSC_GetLunLockedStatus

$C$DW$345	.dwtag  DW_TAG_subprogram, DW_AT_name("MSC_GetLunLockedStatus")
	.dwattr $C$DW$345, DW_AT_low_pc(_MSC_GetLunLockedStatus)
	.dwattr $C$DW$345, DW_AT_high_pc(0x00)
	.dwattr $C$DW$345, DW_AT_TI_symbol_name("_MSC_GetLunLockedStatus")
	.dwattr $C$DW$345, DW_AT_external
	.dwattr $C$DW$345, DW_AT_type(*$C$DW$T$25)
	.dwattr $C$DW$345, DW_AT_TI_begin_file("../c5535_bsl_revc/ezdsp5535_v1/c55xx_csl/src/csl_msc.c")
	.dwattr $C$DW$345, DW_AT_TI_begin_line(0x39b)
	.dwattr $C$DW$345, DW_AT_TI_begin_column(0x08)
	.dwattr $C$DW$345, DW_AT_TI_max_frame_size(0x0a)
	.dwpsn	file "../c5535_bsl_revc/ezdsp5535_v1/c55xx_csl/src/csl_msc.c",line 925,column 1,is_stmt,address _MSC_GetLunLockedStatus

	.dwfde $C$DW$CIE, _MSC_GetLunLockedStatus
$C$DW$346	.dwtag  DW_TAG_formal_parameter, DW_AT_name("pMSC")
	.dwattr $C$DW$346, DW_AT_TI_symbol_name("_pMSC")
	.dwattr $C$DW$346, DW_AT_type(*$C$DW$T$3)
	.dwattr $C$DW$346, DW_AT_location[DW_OP_reg17]
$C$DW$347	.dwtag  DW_TAG_formal_parameter, DW_AT_name("lunNum")
	.dwattr $C$DW$347, DW_AT_TI_symbol_name("_lunNum")
	.dwattr $C$DW$347, DW_AT_type(*$C$DW$T$25)
	.dwattr $C$DW$347, DW_AT_location[DW_OP_reg12]
;*******************************************************************************
;* FUNCTION NAME: MSC_GetLunLockedStatus                                       *
;*                                                                             *
;*   Function Uses Regs : AC0,T0,AR0,XAR0,AR1,AR3,XAR3,SP,TC1,M40,SATA,SATD,   *
;*                        RDM,FRCT,SMUL                                        *
;*   Stack Frame        : Compact (No Frame Pointer, w/ debug)                 *
;*   Total Frame Size   : 10 words                                             *
;*                        (2 return address/alignment)                         *
;*                        (8 local values)                                     *
;*   Min System Stack   : 1 word                                               *
;*******************************************************************************
_MSC_GetLunLockedStatus:
	.dwcfi	cfa_offset, 1
	.dwcfi	save_reg_to_mem, 91, -1
        AADD #-9, SP
	.dwcfi	cfa_offset, 10
$C$DW$348	.dwtag  DW_TAG_variable, DW_AT_name("pMSC")
	.dwattr $C$DW$348, DW_AT_TI_symbol_name("_pMSC")
	.dwattr $C$DW$348, DW_AT_type(*$C$DW$T$3)
	.dwattr $C$DW$348, DW_AT_location[DW_OP_bregx 0x24 0]
$C$DW$349	.dwtag  DW_TAG_variable, DW_AT_name("lunNum")
	.dwattr $C$DW$349, DW_AT_TI_symbol_name("_lunNum")
	.dwattr $C$DW$349, DW_AT_type(*$C$DW$T$25)
	.dwattr $C$DW$349, DW_AT_location[DW_OP_bregx 0x24 2]
$C$DW$350	.dwtag  DW_TAG_variable, DW_AT_name("pMscClassHdl")
	.dwattr $C$DW$350, DW_AT_TI_symbol_name("_pMscClassHdl")
	.dwattr $C$DW$350, DW_AT_type(*$C$DW$T$98)
	.dwattr $C$DW$350, DW_AT_location[DW_OP_bregx 0x24 4]
$C$DW$351	.dwtag  DW_TAG_variable, DW_AT_name("pMscHandle")
	.dwattr $C$DW$351, DW_AT_TI_symbol_name("_pMscHandle")
	.dwattr $C$DW$351, DW_AT_type(*$C$DW$T$107)
	.dwattr $C$DW$351, DW_AT_location[DW_OP_bregx 0x24 6]
        MOV T0, *SP(#2) ; |925| 
        MOV XAR0, dbl(*SP(#0))
	.dwpsn	file "../c5535_bsl_revc/ezdsp5535_v1/c55xx_csl/src/csl_msc.c",line 929,column 4,is_stmt
        MOV dbl(*SP(#0)), XAR3
        MOV XAR3, dbl(*SP(#4))
	.dwpsn	file "../c5535_bsl_revc/ezdsp5535_v1/c55xx_csl/src/csl_msc.c",line 930,column 4,is_stmt
        AMAR *+AR3(#182) ; |930| 
        MOV XAR3, dbl(*SP(#6))
	.dwpsn	file "../c5535_bsl_revc/ezdsp5535_v1/c55xx_csl/src/csl_msc.c",line 932,column 4,is_stmt
        MPYMK *SP(#2), #62, AC0 ; |932| 
        MOV AC0, AR1 ; |932| 
        AADD AR1, AR3 ; |932| 
        BTST #1, *AR3(#75), TC1 ; |932| 
        BCC $C$L100,!TC1 ; |932| 
                                        ; branchcc occurs ; |932| 
	.dwpsn	file "../c5535_bsl_revc/ezdsp5535_v1/c55xx_csl/src/csl_msc.c",line 934,column 8,is_stmt
        MOV #1, T0
        B $C$L101 ; |934| 
                                        ; branch occurs ; |934| 
$C$L100:    
	.dwpsn	file "../c5535_bsl_revc/ezdsp5535_v1/c55xx_csl/src/csl_msc.c",line 938,column 8,is_stmt
        MOV #0, T0
$C$L101:    
	.dwpsn	file "../c5535_bsl_revc/ezdsp5535_v1/c55xx_csl/src/csl_msc.c",line 940,column 1,is_stmt
        AADD #9, SP
	.dwcfi	cfa_offset, 1
$C$DW$352	.dwtag  DW_TAG_TI_branch
	.dwattr $C$DW$352, DW_AT_low_pc(0x00)
	.dwattr $C$DW$352, DW_AT_TI_return
        RET
                                        ; return occurs
	.dwattr $C$DW$345, DW_AT_TI_end_file("../c5535_bsl_revc/ezdsp5535_v1/c55xx_csl/src/csl_msc.c")
	.dwattr $C$DW$345, DW_AT_TI_end_line(0x3ac)
	.dwattr $C$DW$345, DW_AT_TI_end_column(0x01)
	.dwendentry
	.dwendtag $C$DW$345

	.sect	".text"
	.align 4
	.global	_MSC_GetactivityFlagStatus

$C$DW$353	.dwtag  DW_TAG_subprogram, DW_AT_name("MSC_GetactivityFlagStatus")
	.dwattr $C$DW$353, DW_AT_low_pc(_MSC_GetactivityFlagStatus)
	.dwattr $C$DW$353, DW_AT_high_pc(0x00)
	.dwattr $C$DW$353, DW_AT_TI_symbol_name("_MSC_GetactivityFlagStatus")
	.dwattr $C$DW$353, DW_AT_external
	.dwattr $C$DW$353, DW_AT_type(*$C$DW$T$25)
	.dwattr $C$DW$353, DW_AT_TI_begin_file("../c5535_bsl_revc/ezdsp5535_v1/c55xx_csl/src/csl_msc.c")
	.dwattr $C$DW$353, DW_AT_TI_begin_line(0x3db)
	.dwattr $C$DW$353, DW_AT_TI_begin_column(0x08)
	.dwattr $C$DW$353, DW_AT_TI_max_frame_size(0x08)
	.dwpsn	file "../c5535_bsl_revc/ezdsp5535_v1/c55xx_csl/src/csl_msc.c",line 988,column 1,is_stmt,address _MSC_GetactivityFlagStatus

	.dwfde $C$DW$CIE, _MSC_GetactivityFlagStatus
$C$DW$354	.dwtag  DW_TAG_formal_parameter, DW_AT_name("pMSC")
	.dwattr $C$DW$354, DW_AT_TI_symbol_name("_pMSC")
	.dwattr $C$DW$354, DW_AT_type(*$C$DW$T$3)
	.dwattr $C$DW$354, DW_AT_location[DW_OP_reg17]
;*******************************************************************************
;* FUNCTION NAME: MSC_GetactivityFlagStatus                                    *
;*                                                                             *
;*   Function Uses Regs : T0,AR0,XAR0,AR3,XAR3,SP,M40,SATA,SATD,RDM,FRCT,SMUL  *
;*   Stack Frame        : Compact (No Frame Pointer, w/ debug)                 *
;*   Total Frame Size   : 8 words                                              *
;*                        (2 return address/alignment)                         *
;*                        (6 local values)                                     *
;*   Min System Stack   : 1 word                                               *
;*******************************************************************************
_MSC_GetactivityFlagStatus:
	.dwcfi	cfa_offset, 1
	.dwcfi	save_reg_to_mem, 91, -1
        AADD #-7, SP
	.dwcfi	cfa_offset, 8
$C$DW$355	.dwtag  DW_TAG_variable, DW_AT_name("pMSC")
	.dwattr $C$DW$355, DW_AT_TI_symbol_name("_pMSC")
	.dwattr $C$DW$355, DW_AT_type(*$C$DW$T$3)
	.dwattr $C$DW$355, DW_AT_location[DW_OP_bregx 0x24 0]
$C$DW$356	.dwtag  DW_TAG_variable, DW_AT_name("pMscClassHdl")
	.dwattr $C$DW$356, DW_AT_TI_symbol_name("_pMscClassHdl")
	.dwattr $C$DW$356, DW_AT_type(*$C$DW$T$98)
	.dwattr $C$DW$356, DW_AT_location[DW_OP_bregx 0x24 2]
$C$DW$357	.dwtag  DW_TAG_variable, DW_AT_name("pMscHandle")
	.dwattr $C$DW$357, DW_AT_TI_symbol_name("_pMscHandle")
	.dwattr $C$DW$357, DW_AT_type(*$C$DW$T$107)
	.dwattr $C$DW$357, DW_AT_location[DW_OP_bregx 0x24 4]
        MOV XAR0, dbl(*SP(#0))
	.dwpsn	file "../c5535_bsl_revc/ezdsp5535_v1/c55xx_csl/src/csl_msc.c",line 992,column 4,is_stmt
        MOV dbl(*SP(#0)), XAR3
        MOV XAR3, dbl(*SP(#2))
	.dwpsn	file "../c5535_bsl_revc/ezdsp5535_v1/c55xx_csl/src/csl_msc.c",line 993,column 4,is_stmt
        AMAR *+AR3(#182) ; |993| 
        MOV XAR3, dbl(*SP(#4))
	.dwpsn	file "../c5535_bsl_revc/ezdsp5535_v1/c55xx_csl/src/csl_msc.c",line 995,column 4,is_stmt
        MOV *AR3(#281), T0 ; |995| 
	.dwpsn	file "../c5535_bsl_revc/ezdsp5535_v1/c55xx_csl/src/csl_msc.c",line 996,column 1,is_stmt
        AADD #7, SP
	.dwcfi	cfa_offset, 1
$C$DW$358	.dwtag  DW_TAG_TI_branch
	.dwattr $C$DW$358, DW_AT_low_pc(0x00)
	.dwattr $C$DW$358, DW_AT_TI_return
        RET
                                        ; return occurs
	.dwattr $C$DW$353, DW_AT_TI_end_file("../c5535_bsl_revc/ezdsp5535_v1/c55xx_csl/src/csl_msc.c")
	.dwattr $C$DW$353, DW_AT_TI_end_line(0x3e4)
	.dwattr $C$DW$353, DW_AT_TI_end_column(0x01)
	.dwendentry
	.dwendtag $C$DW$353

	.sect	".text"
	.align 4
	.global	_MSC_GetsuspendFlagStatus

$C$DW$359	.dwtag  DW_TAG_subprogram, DW_AT_name("MSC_GetsuspendFlagStatus")
	.dwattr $C$DW$359, DW_AT_low_pc(_MSC_GetsuspendFlagStatus)
	.dwattr $C$DW$359, DW_AT_high_pc(0x00)
	.dwattr $C$DW$359, DW_AT_TI_symbol_name("_MSC_GetsuspendFlagStatus")
	.dwattr $C$DW$359, DW_AT_external
	.dwattr $C$DW$359, DW_AT_type(*$C$DW$T$25)
	.dwattr $C$DW$359, DW_AT_TI_begin_file("../c5535_bsl_revc/ezdsp5535_v1/c55xx_csl/src/csl_msc.c")
	.dwattr $C$DW$359, DW_AT_TI_begin_line(0x413)
	.dwattr $C$DW$359, DW_AT_TI_begin_column(0x08)
	.dwattr $C$DW$359, DW_AT_TI_max_frame_size(0x08)
	.dwpsn	file "../c5535_bsl_revc/ezdsp5535_v1/c55xx_csl/src/csl_msc.c",line 1044,column 1,is_stmt,address _MSC_GetsuspendFlagStatus

	.dwfde $C$DW$CIE, _MSC_GetsuspendFlagStatus
$C$DW$360	.dwtag  DW_TAG_formal_parameter, DW_AT_name("pMSC")
	.dwattr $C$DW$360, DW_AT_TI_symbol_name("_pMSC")
	.dwattr $C$DW$360, DW_AT_type(*$C$DW$T$3)
	.dwattr $C$DW$360, DW_AT_location[DW_OP_reg17]
;*******************************************************************************
;* FUNCTION NAME: MSC_GetsuspendFlagStatus                                     *
;*                                                                             *
;*   Function Uses Regs : T0,AR0,XAR0,AR3,XAR3,SP,M40,SATA,SATD,RDM,FRCT,SMUL  *
;*   Stack Frame        : Compact (No Frame Pointer, w/ debug)                 *
;*   Total Frame Size   : 8 words                                              *
;*                        (2 return address/alignment)                         *
;*                        (6 local values)                                     *
;*   Min System Stack   : 1 word                                               *
;*******************************************************************************
_MSC_GetsuspendFlagStatus:
	.dwcfi	cfa_offset, 1
	.dwcfi	save_reg_to_mem, 91, -1
        AADD #-7, SP
	.dwcfi	cfa_offset, 8
$C$DW$361	.dwtag  DW_TAG_variable, DW_AT_name("pMSC")
	.dwattr $C$DW$361, DW_AT_TI_symbol_name("_pMSC")
	.dwattr $C$DW$361, DW_AT_type(*$C$DW$T$3)
	.dwattr $C$DW$361, DW_AT_location[DW_OP_bregx 0x24 0]
$C$DW$362	.dwtag  DW_TAG_variable, DW_AT_name("pMscClassHdl")
	.dwattr $C$DW$362, DW_AT_TI_symbol_name("_pMscClassHdl")
	.dwattr $C$DW$362, DW_AT_type(*$C$DW$T$98)
	.dwattr $C$DW$362, DW_AT_location[DW_OP_bregx 0x24 2]
$C$DW$363	.dwtag  DW_TAG_variable, DW_AT_name("pCtrlHandle")
	.dwattr $C$DW$363, DW_AT_TI_symbol_name("_pCtrlHandle")
	.dwattr $C$DW$363, DW_AT_type(*$C$DW$T$99)
	.dwattr $C$DW$363, DW_AT_location[DW_OP_bregx 0x24 4]
        MOV XAR0, dbl(*SP(#0))
	.dwpsn	file "../c5535_bsl_revc/ezdsp5535_v1/c55xx_csl/src/csl_msc.c",line 1048,column 4,is_stmt
        MOV dbl(*SP(#0)), XAR3
        MOV XAR3, dbl(*SP(#2))
	.dwpsn	file "../c5535_bsl_revc/ezdsp5535_v1/c55xx_csl/src/csl_msc.c",line 1049,column 4,is_stmt
        MOV XAR3, dbl(*SP(#4))
	.dwpsn	file "../c5535_bsl_revc/ezdsp5535_v1/c55xx_csl/src/csl_msc.c",line 1051,column 4,is_stmt
        MOV *AR3(#42), T0 ; |1051| 
	.dwpsn	file "../c5535_bsl_revc/ezdsp5535_v1/c55xx_csl/src/csl_msc.c",line 1052,column 1,is_stmt
        AADD #7, SP
	.dwcfi	cfa_offset, 1
$C$DW$364	.dwtag  DW_TAG_TI_branch
	.dwattr $C$DW$364, DW_AT_low_pc(0x00)
	.dwattr $C$DW$364, DW_AT_TI_return
        RET
                                        ; return occurs
	.dwattr $C$DW$359, DW_AT_TI_end_file("../c5535_bsl_revc/ezdsp5535_v1/c55xx_csl/src/csl_msc.c")
	.dwattr $C$DW$359, DW_AT_TI_end_line(0x41c)
	.dwattr $C$DW$359, DW_AT_TI_end_column(0x01)
	.dwendentry
	.dwendtag $C$DW$359

	.sect	".text"
	.align 4

$C$DW$365	.dwtag  DW_TAG_subprogram, DW_AT_name("MSC_initCtrlDesc")
	.dwattr $C$DW$365, DW_AT_low_pc(_MSC_initCtrlDesc)
	.dwattr $C$DW$365, DW_AT_high_pc(0x00)
	.dwattr $C$DW$365, DW_AT_TI_symbol_name("_MSC_initCtrlDesc")
	.dwattr $C$DW$365, DW_AT_type(*$C$DW$T$89)
	.dwattr $C$DW$365, DW_AT_TI_begin_file("../c5535_bsl_revc/ezdsp5535_v1/c55xx_csl/src/csl_msc.c")
	.dwattr $C$DW$365, DW_AT_TI_begin_line(0x440)
	.dwattr $C$DW$365, DW_AT_TI_begin_column(0x13)
	.dwattr $C$DW$365, DW_AT_TI_max_frame_size(0x04)
	.dwpsn	file "../c5535_bsl_revc/ezdsp5535_v1/c55xx_csl/src/csl_msc.c",line 1089,column 1,is_stmt,address _MSC_initCtrlDesc

	.dwfde $C$DW$CIE, _MSC_initCtrlDesc
$C$DW$366	.dwtag  DW_TAG_formal_parameter, DW_AT_name("pCtrlHandle")
	.dwattr $C$DW$366, DW_AT_TI_symbol_name("_pCtrlHandle")
	.dwattr $C$DW$366, DW_AT_type(*$C$DW$T$99)
	.dwattr $C$DW$366, DW_AT_location[DW_OP_reg17]
;*******************************************************************************
;* FUNCTION NAME: MSC_initCtrlDesc                                             *
;*                                                                             *
;*   Function Uses Regs : AC0,AC0,T0,AR0,XAR0,AR1,AR2,XAR2,AR3,XAR3,SP,TC1,M40,*
;*                        SATA,SATD,RDM,FRCT,SMUL                              *
;*   Stack Frame        : Compact (No Frame Pointer, w/ debug)                 *
;*   Total Frame Size   : 4 words                                              *
;*                        (1 return address/alignment)                         *
;*                        (3 local values)                                     *
;*   Min System Stack   : 1 word                                               *
;*******************************************************************************
_MSC_initCtrlDesc:
	.dwcfi	cfa_offset, 1
	.dwcfi	save_reg_to_mem, 91, -1
        AADD #-3, SP
	.dwcfi	cfa_offset, 4
$C$DW$367	.dwtag  DW_TAG_variable, DW_AT_name("pCtrlHandle")
	.dwattr $C$DW$367, DW_AT_TI_symbol_name("_pCtrlHandle")
	.dwattr $C$DW$367, DW_AT_type(*$C$DW$T$99)
	.dwattr $C$DW$367, DW_AT_location[DW_OP_bregx 0x24 0]
$C$DW$368	.dwtag  DW_TAG_variable, DW_AT_name("status")
	.dwattr $C$DW$368, DW_AT_TI_symbol_name("_status")
	.dwattr $C$DW$368, DW_AT_type(*$C$DW$T$89)
	.dwattr $C$DW$368, DW_AT_location[DW_OP_bregx 0x24 2]
        MOV XAR0, dbl(*SP(#0))
	.dwpsn	file "../c5535_bsl_revc/ezdsp5535_v1/c55xx_csl/src/csl_msc.c",line 1092,column 2,is_stmt
        MOV #0, *SP(#2) ; |1092| 
	.dwpsn	file "../c5535_bsl_revc/ezdsp5535_v1/c55xx_csl/src/csl_msc.c",line 1094,column 2,is_stmt
        MOV dbl(*SP(#0)), XAR3
        MOV XAR3, AC0
        BCC $C$L104,AC0 == #0 ; |1094| 
                                        ; branchcc occurs ; |1094| 
	.dwpsn	file "../c5535_bsl_revc/ezdsp5535_v1/c55xx_csl/src/csl_msc.c",line 1102,column 3,is_stmt
        MOV #0, *AR3(#94) ; |1102| 
	.dwpsn	file "../c5535_bsl_revc/ezdsp5535_v1/c55xx_csl/src/csl_msc.c",line 1104,column 3,is_stmt
        MOV dbl(*SP(#0)), XAR3
        MOV #274, *AR3(#95) ; |1104| 
	.dwpsn	file "../c5535_bsl_revc/ezdsp5535_v1/c55xx_csl/src/csl_msc.c",line 1108,column 3,is_stmt
        MOV dbl(*SP(#0)), XAR3
        MOV #512, *AR3(#96) ; |1108| 
	.dwpsn	file "../c5535_bsl_revc/ezdsp5535_v1/c55xx_csl/src/csl_msc.c",line 1110,column 3,is_stmt
        MOV dbl(*SP(#0)), XAR3
        MOV #0, *AR3(#97) ; |1110| 
	.dwpsn	file "../c5535_bsl_revc/ezdsp5535_v1/c55xx_csl/src/csl_msc.c",line 1112,column 3,is_stmt
        MOV dbl(*SP(#0)), XAR3
        MOV #16384, *AR3(#98) ; |1112| 
	.dwpsn	file "../c5535_bsl_revc/ezdsp5535_v1/c55xx_csl/src/csl_msc.c",line 1114,column 3,is_stmt
        MOV dbl(*SP(#0)), XAR3
        MOV #1105, *AR3(#99) ; |1114| 
	.dwpsn	file "../c5535_bsl_revc/ezdsp5535_v1/c55xx_csl/src/csl_msc.c",line 1116,column 3,is_stmt
        MOV dbl(*SP(#0)), XAR3
        MOV #36880, *AR3(#100) ; |1116| 
	.dwpsn	file "../c5535_bsl_revc/ezdsp5535_v1/c55xx_csl/src/csl_msc.c",line 1118,column 3,is_stmt
        MOV dbl(*SP(#0)), XAR3
        MOV #1, *AR3(#101) ; |1118| 
	.dwpsn	file "../c5535_bsl_revc/ezdsp5535_v1/c55xx_csl/src/csl_msc.c",line 1120,column 3,is_stmt
        MOV dbl(*SP(#0)), XAR3
        MOV #513, *AR3(#102) ; |1120| 
	.dwpsn	file "../c5535_bsl_revc/ezdsp5535_v1/c55xx_csl/src/csl_msc.c",line 1122,column 3,is_stmt
        MOV dbl(*SP(#0)), XAR3
        MOV #259, *AR3(#103) ; |1122| 
	.dwpsn	file "../c5535_bsl_revc/ezdsp5535_v1/c55xx_csl/src/csl_msc.c",line 1125,column 3,is_stmt
        MOV dbl(*SP(#0)), XAR3
        MOV #0, *AR3(#104) ; |1125| 
	.dwpsn	file "../c5535_bsl_revc/ezdsp5535_v1/c55xx_csl/src/csl_msc.c",line 1127,column 3,is_stmt
        MOV dbl(*SP(#0)), XAR3
        MOV #1546, *AR3(#105) ; |1127| 
	.dwpsn	file "../c5535_bsl_revc/ezdsp5535_v1/c55xx_csl/src/csl_msc.c",line 1131,column 3,is_stmt
        MOV dbl(*SP(#0)), XAR3
        MOV #512, *AR3(#106) ; |1131| 
	.dwpsn	file "../c5535_bsl_revc/ezdsp5535_v1/c55xx_csl/src/csl_msc.c",line 1133,column 3,is_stmt
        MOV dbl(*SP(#0)), XAR3
        MOV #0, *AR3(#107) ; |1133| 
	.dwpsn	file "../c5535_bsl_revc/ezdsp5535_v1/c55xx_csl/src/csl_msc.c",line 1135,column 3,is_stmt
        MOV dbl(*SP(#0)), XAR3
        MOV #16384, *AR3(#108) ; |1135| 
	.dwpsn	file "../c5535_bsl_revc/ezdsp5535_v1/c55xx_csl/src/csl_msc.c",line 1137,column 3,is_stmt
        MOV dbl(*SP(#0)), XAR3
        MOV #1, *AR3(#109) ; |1137| 
	.dwpsn	file "../c5535_bsl_revc/ezdsp5535_v1/c55xx_csl/src/csl_msc.c",line 1140,column 3,is_stmt
        MOV dbl(*SP(#0)), XAR3
        MOV #0, *AR3(#110) ; |1140| 
	.dwpsn	file "../c5535_bsl_revc/ezdsp5535_v1/c55xx_csl/src/csl_msc.c",line 1142,column 3,is_stmt
        MOV dbl(*SP(#0)), XAR3
        MOV #521, *AR3(#111) ; |1142| 
	.dwpsn	file "../c5535_bsl_revc/ezdsp5535_v1/c55xx_csl/src/csl_msc.c",line 1146,column 3,is_stmt
        MOV dbl(*SP(#0)), XAR3
        MOV #32, *AR3(#112) ; |1146| 
	.dwpsn	file "../c5535_bsl_revc/ezdsp5535_v1/c55xx_csl/src/csl_msc.c",line 1148,column 3,is_stmt
        MOV dbl(*SP(#0)), XAR3
        MOV #257, *AR3(#113) ; |1148| 
	.dwpsn	file "../c5535_bsl_revc/ezdsp5535_v1/c55xx_csl/src/csl_msc.c",line 1150,column 3,is_stmt
        MOV dbl(*SP(#0)), XAR3
        MOV #49156, *AR3(#114) ; |1150| 
	.dwpsn	file "../c5535_bsl_revc/ezdsp5535_v1/c55xx_csl/src/csl_msc.c",line 1152,column 3,is_stmt
$C$DW$369	.dwtag  DW_TAG_TI_branch
	.dwattr $C$DW$369, DW_AT_low_pc(0x00)
	.dwattr $C$DW$369, DW_AT_name("_USB_getMaxPower")
	.dwattr $C$DW$369, DW_AT_TI_call

        CALL #_USB_getMaxPower ; |1152| 
||      MOV #0, T0

                                        ; call occurs [#_USB_getMaxPower] ; |1152| 
        MOV dbl(*SP(#0)), XAR3
        MOV T0, *AR3(#115) ; |1152| 
	.dwpsn	file "../c5535_bsl_revc/ezdsp5535_v1/c55xx_csl/src/csl_msc.c",line 1155,column 3,is_stmt
        MOV dbl(*SP(#0)), XAR3
        MOV #0, *AR3(#116) ; |1155| 
	.dwpsn	file "../c5535_bsl_revc/ezdsp5535_v1/c55xx_csl/src/csl_msc.c",line 1157,column 3,is_stmt
        MOV dbl(*SP(#0)), XAR3
        MOV #1033, *AR3(#117) ; |1157| 
	.dwpsn	file "../c5535_bsl_revc/ezdsp5535_v1/c55xx_csl/src/csl_msc.c",line 1161,column 3,is_stmt
        MOV dbl(*SP(#0)), XAR3
        MOV #0, *AR3(#118) ; |1161| 
	.dwpsn	file "../c5535_bsl_revc/ezdsp5535_v1/c55xx_csl/src/csl_msc.c",line 1163,column 3,is_stmt
        MOV dbl(*SP(#0)), XAR3
        MOV #2050, *AR3(#119) ; |1163| 
	.dwpsn	file "../c5535_bsl_revc/ezdsp5535_v1/c55xx_csl/src/csl_msc.c",line 1165,column 3,is_stmt
        MOV dbl(*SP(#0)), XAR3
        MOV #20486, *AR3(#120) ; |1165| 
	.dwpsn	file "../c5535_bsl_revc/ezdsp5535_v1/c55xx_csl/src/csl_msc.c",line 1167,column 3,is_stmt
        MOV dbl(*SP(#0)), XAR3
        MOV #5, *AR3(#121) ; |1167| 
	.dwpsn	file "../c5535_bsl_revc/ezdsp5535_v1/c55xx_csl/src/csl_msc.c",line 1170,column 3,is_stmt
        MOV dbl(*SP(#0)), XAR3
        MOV #0, *AR3(#122) ; |1170| 
	.dwpsn	file "../c5535_bsl_revc/ezdsp5535_v1/c55xx_csl/src/csl_msc.c",line 1173,column 3,is_stmt
        MOV dbl(*SP(#0)), XAR3
        MOV #1287, *AR3(#123) ; |1173| 
	.dwpsn	file "../c5535_bsl_revc/ezdsp5535_v1/c55xx_csl/src/csl_msc.c",line 1177,column 3,is_stmt
        MOV dbl(*SP(#0)), XAR3
        MOV #514, *AR3(#124) ; |1177| 
	.dwpsn	file "../c5535_bsl_revc/ezdsp5535_v1/c55xx_csl/src/csl_msc.c",line 1180,column 3,is_stmt
        MOV dbl(*SP(#0)), XAR3
        MOV #64, *AR3(#125) ; |1180| 
	.dwpsn	file "../c5535_bsl_revc/ezdsp5535_v1/c55xx_csl/src/csl_msc.c",line 1183,column 3,is_stmt
        MOV dbl(*SP(#0)), XAR3
        MOV #0, *AR3(#126) ; |1183| 
	.dwpsn	file "../c5535_bsl_revc/ezdsp5535_v1/c55xx_csl/src/csl_msc.c",line 1187,column 3,is_stmt
        MOV dbl(*SP(#0)), XAR3
        MOV #0, *AR3(#134) ; |1187| 
	.dwpsn	file "../c5535_bsl_revc/ezdsp5535_v1/c55xx_csl/src/csl_msc.c",line 1190,column 3,is_stmt
        MOV dbl(*SP(#0)), XAR3
        MOV #1287, *AR3(#135) ; |1190| 
	.dwpsn	file "../c5535_bsl_revc/ezdsp5535_v1/c55xx_csl/src/csl_msc.c",line 1194,column 3,is_stmt
        MOV dbl(*SP(#0)), XAR3
        MOV #642, *AR3(#136) ; |1194| 
	.dwpsn	file "../c5535_bsl_revc/ezdsp5535_v1/c55xx_csl/src/csl_msc.c",line 1197,column 3,is_stmt
        MOV dbl(*SP(#0)), XAR3
        MOV #64, *AR3(#137) ; |1197| 
	.dwpsn	file "../c5535_bsl_revc/ezdsp5535_v1/c55xx_csl/src/csl_msc.c",line 1200,column 3,is_stmt
        MOV dbl(*SP(#0)), XAR3
        MOV #0, *AR3(#138) ; |1200| 
	.dwpsn	file "../c5535_bsl_revc/ezdsp5535_v1/c55xx_csl/src/csl_msc.c",line 1214,column 3,is_stmt
        MOV dbl(*SP(#0)), XAR3
        MOV #0, *AR3(#60) ; |1214| 
	.dwpsn	file "../c5535_bsl_revc/ezdsp5535_v1/c55xx_csl/src/csl_msc.c",line 1218,column 3,is_stmt
        MOV dbl(*SP(#0)), XAR3
        MOV #521, *AR3(#61) ; |1218| 
	.dwpsn	file "../c5535_bsl_revc/ezdsp5535_v1/c55xx_csl/src/csl_msc.c",line 1222,column 3,is_stmt
        MOV dbl(*SP(#0)), XAR3
        MOV #32, *AR3(#62) ; |1222| 
	.dwpsn	file "../c5535_bsl_revc/ezdsp5535_v1/c55xx_csl/src/csl_msc.c",line 1224,column 3,is_stmt
        MOV dbl(*SP(#0)), XAR3
        MOV #257, *AR3(#63) ; |1224| 
	.dwpsn	file "../c5535_bsl_revc/ezdsp5535_v1/c55xx_csl/src/csl_msc.c",line 1226,column 3,is_stmt
        MOV dbl(*SP(#0)), XAR3
        MOV #49156, *AR3(#64) ; |1226| 
	.dwpsn	file "../c5535_bsl_revc/ezdsp5535_v1/c55xx_csl/src/csl_msc.c",line 1228,column 3,is_stmt
$C$DW$370	.dwtag  DW_TAG_TI_branch
	.dwattr $C$DW$370, DW_AT_low_pc(0x00)
	.dwattr $C$DW$370, DW_AT_name("_USB_getMaxPower")
	.dwattr $C$DW$370, DW_AT_TI_call

        CALL #_USB_getMaxPower ; |1228| 
||      MOV #0, T0

                                        ; call occurs [#_USB_getMaxPower] ; |1228| 
        MOV dbl(*SP(#0)), XAR3
        AND #0x00ff, T0, AR1 ; |1228| 
        OR #0x0900, AR1, AR1 ; |1228| 
        MOV AR1, *AR3(#65) ; |1228| 
	.dwpsn	file "../c5535_bsl_revc/ezdsp5535_v1/c55xx_csl/src/csl_msc.c",line 1233,column 3,is_stmt
        MOV dbl(*SP(#0)), XAR3
        MOV #4, *AR3(#66) ; |1233| 
	.dwpsn	file "../c5535_bsl_revc/ezdsp5535_v1/c55xx_csl/src/csl_msc.c",line 1235,column 3,is_stmt
        MOV dbl(*SP(#0)), XAR3
        MOV #512, *AR3(#67) ; |1235| 
	.dwpsn	file "../c5535_bsl_revc/ezdsp5535_v1/c55xx_csl/src/csl_msc.c",line 1237,column 3,is_stmt
        MOV dbl(*SP(#0)), XAR3
        MOV #1544, *AR3(#68) ; |1237| 
	.dwpsn	file "../c5535_bsl_revc/ezdsp5535_v1/c55xx_csl/src/csl_msc.c",line 1238,column 3,is_stmt
        MOV dbl(*SP(#0)), XAR3
        MOV #1360, *AR3(#69) ; |1238| 
	.dwpsn	file "../c5535_bsl_revc/ezdsp5535_v1/c55xx_csl/src/csl_msc.c",line 1244,column 3,is_stmt
        MOV dbl(*SP(#0)), XAR3
        MOV #1287, *AR3(#70) ; |1244| 
	.dwpsn	file "../c5535_bsl_revc/ezdsp5535_v1/c55xx_csl/src/csl_msc.c",line 1246,column 3,is_stmt
        MOV dbl(*SP(#0)), XAR3
        MOV #514, *AR3(#71) ; |1246| 
	.dwpsn	file "../c5535_bsl_revc/ezdsp5535_v1/c55xx_csl/src/csl_msc.c",line 1248,column 3,is_stmt
        MOV dbl(*SP(#0)), XAR3
        MOV #512, *AR3(#72) ; |1248| 
	.dwpsn	file "../c5535_bsl_revc/ezdsp5535_v1/c55xx_csl/src/csl_msc.c",line 1250,column 3,is_stmt
        MOV dbl(*SP(#0)), XAR3
        MOV #1792, *AR3(#73) ; |1250| 
	.dwpsn	file "../c5535_bsl_revc/ezdsp5535_v1/c55xx_csl/src/csl_msc.c",line 1252,column 3,is_stmt
        MOV dbl(*SP(#0)), XAR3
        MOV #33029, *AR3(#74) ; |1252| 
	.dwpsn	file "../c5535_bsl_revc/ezdsp5535_v1/c55xx_csl/src/csl_msc.c",line 1254,column 3,is_stmt
        MOV dbl(*SP(#0)), XAR3
        MOV #2, *AR3(#75) ; |1254| 
	.dwpsn	file "../c5535_bsl_revc/ezdsp5535_v1/c55xx_csl/src/csl_msc.c",line 1256,column 3,is_stmt
        MOV dbl(*SP(#0)), XAR3
        MOV #2, *AR3(#76) ; |1256| 
	.dwpsn	file "../c5535_bsl_revc/ezdsp5535_v1/c55xx_csl/src/csl_msc.c",line 1269,column 3,is_stmt
        MOV dbl(*SP(#0)), XAR3
        MOV #0, *AR3(#77) ; |1269| 
	.dwpsn	file "../c5535_bsl_revc/ezdsp5535_v1/c55xx_csl/src/csl_msc.c",line 1273,column 3,is_stmt
        MOV dbl(*SP(#0)), XAR3
        MOV #521, *AR3(#78) ; |1273| 
	.dwpsn	file "../c5535_bsl_revc/ezdsp5535_v1/c55xx_csl/src/csl_msc.c",line 1277,column 3,is_stmt
        MOV dbl(*SP(#0)), XAR3
        MOV #32, *AR3(#79) ; |1277| 
	.dwpsn	file "../c5535_bsl_revc/ezdsp5535_v1/c55xx_csl/src/csl_msc.c",line 1279,column 3,is_stmt
        MOV dbl(*SP(#0)), XAR3
        MOV #257, *AR3(#80) ; |1279| 
	.dwpsn	file "../c5535_bsl_revc/ezdsp5535_v1/c55xx_csl/src/csl_msc.c",line 1281,column 3,is_stmt
        MOV dbl(*SP(#0)), XAR3
        MOV #49156, *AR3(#81) ; |1281| 
	.dwpsn	file "../c5535_bsl_revc/ezdsp5535_v1/c55xx_csl/src/csl_msc.c",line 1283,column 3,is_stmt
$C$DW$371	.dwtag  DW_TAG_TI_branch
	.dwattr $C$DW$371, DW_AT_low_pc(0x00)
	.dwattr $C$DW$371, DW_AT_name("_USB_getMaxPower")
	.dwattr $C$DW$371, DW_AT_TI_call

        CALL #_USB_getMaxPower ; |1283| 
||      MOV #0, T0

                                        ; call occurs [#_USB_getMaxPower] ; |1283| 
        MOV dbl(*SP(#0)), XAR3
        AND #0x00ff, T0, AR1 ; |1283| 
        OR #0x0900, AR1, AR1 ; |1283| 
        MOV AR1, *AR3(#82) ; |1283| 
	.dwpsn	file "../c5535_bsl_revc/ezdsp5535_v1/c55xx_csl/src/csl_msc.c",line 1288,column 3,is_stmt
        MOV dbl(*SP(#0)), XAR3
        MOV #4, *AR3(#83) ; |1288| 
	.dwpsn	file "../c5535_bsl_revc/ezdsp5535_v1/c55xx_csl/src/csl_msc.c",line 1290,column 3,is_stmt
        MOV dbl(*SP(#0)), XAR3
        MOV #512, *AR3(#84) ; |1290| 
	.dwpsn	file "../c5535_bsl_revc/ezdsp5535_v1/c55xx_csl/src/csl_msc.c",line 1292,column 3,is_stmt
        MOV dbl(*SP(#0)), XAR3
        MOV #1544, *AR3(#85) ; |1292| 
	.dwpsn	file "../c5535_bsl_revc/ezdsp5535_v1/c55xx_csl/src/csl_msc.c",line 1294,column 3,is_stmt
        MOV dbl(*SP(#0)), XAR3
        MOV #1360, *AR3(#86) ; |1294| 
	.dwpsn	file "../c5535_bsl_revc/ezdsp5535_v1/c55xx_csl/src/csl_msc.c",line 1299,column 3,is_stmt
        MOV dbl(*SP(#0)), XAR3
        MOV #1287, *AR3(#87) ; |1299| 
	.dwpsn	file "../c5535_bsl_revc/ezdsp5535_v1/c55xx_csl/src/csl_msc.c",line 1301,column 3,is_stmt
        MOV dbl(*SP(#0)), XAR3
        MOV #514, *AR3(#88) ; |1301| 
	.dwpsn	file "../c5535_bsl_revc/ezdsp5535_v1/c55xx_csl/src/csl_msc.c",line 1303,column 3,is_stmt
        MOV dbl(*SP(#0)), XAR3
        MOV #64, *AR3(#89) ; |1303| 
	.dwpsn	file "../c5535_bsl_revc/ezdsp5535_v1/c55xx_csl/src/csl_msc.c",line 1305,column 3,is_stmt
        MOV dbl(*SP(#0)), XAR3
        MOV #1792, *AR3(#90) ; |1305| 
	.dwpsn	file "../c5535_bsl_revc/ezdsp5535_v1/c55xx_csl/src/csl_msc.c",line 1309,column 3,is_stmt
        MOV dbl(*SP(#0)), XAR3
        MOV #33029, *AR3(#91) ; |1309| 
	.dwpsn	file "../c5535_bsl_revc/ezdsp5535_v1/c55xx_csl/src/csl_msc.c",line 1311,column 3,is_stmt
        MOV dbl(*SP(#0)), XAR3
        MOV #16386, *AR3(#92) ; |1311| 
	.dwpsn	file "../c5535_bsl_revc/ezdsp5535_v1/c55xx_csl/src/csl_msc.c",line 1313,column 3,is_stmt
        MOV dbl(*SP(#0)), XAR3
        MOV #0, *AR3(#93) ; |1313| 
	.dwpsn	file "../c5535_bsl_revc/ezdsp5535_v1/c55xx_csl/src/csl_msc.c",line 1318,column 3,is_stmt
        MOV dbl(*SP(#0)), XAR3
        MOV #7, *AR3(#152) ; |1318| 
	.dwpsn	file "../c5535_bsl_revc/ezdsp5535_v1/c55xx_csl/src/csl_msc.c",line 1320,column 3,is_stmt
        MOV dbl(*SP(#0)), XAR3
        MOV dbl(*SP(#0)), XAR2
        AMAR *+AR3(#134) ; |1320| 
        MOV XAR3, dbl(*AR2(#154))
	.dwpsn	file "../c5535_bsl_revc/ezdsp5535_v1/c55xx_csl/src/csl_msc.c",line 1323,column 3,is_stmt
        MOV dbl(*SP(#0)), XAR3
        MOV #0, AC0 ; |1323| 
        MOV AC0, dbl(*AR3(#156))
	.dwpsn	file "../c5535_bsl_revc/ezdsp5535_v1/c55xx_csl/src/csl_msc.c",line 1327,column 3,is_stmt
        MOV dbl(*SP(#0)), XAR3
        MOV #7, *AR3(#140) ; |1327| 
	.dwpsn	file "../c5535_bsl_revc/ezdsp5535_v1/c55xx_csl/src/csl_msc.c",line 1329,column 3,is_stmt
        MOV dbl(*SP(#0)), XAR3
        MOV dbl(*SP(#0)), XAR2
        AADD #122, AR3 ; |1329| 
        MOV XAR3, dbl(*AR2(#142))
	.dwpsn	file "../c5535_bsl_revc/ezdsp5535_v1/c55xx_csl/src/csl_msc.c",line 1332,column 3,is_stmt
        MOV dbl(*SP(#0)), XAR3
        MOV dbl(*SP(#0)), XAR2
        AMAR *+AR3(#152) ; |1332| 
        MOV XAR3, dbl(*AR2(#144))
	.dwpsn	file "../c5535_bsl_revc/ezdsp5535_v1/c55xx_csl/src/csl_msc.c",line 1337,column 3,is_stmt
        MOV dbl(*SP(#0)), XAR3
        MOV #9, *AR3(#128) ; |1337| 
	.dwpsn	file "../c5535_bsl_revc/ezdsp5535_v1/c55xx_csl/src/csl_msc.c",line 1340,column 3,is_stmt
        MOV dbl(*SP(#0)), XAR3
        MOV dbl(*SP(#0)), XAR2
        AADD #116, AR3 ; |1340| 
        MOV XAR3, dbl(*AR2(#130))
	.dwpsn	file "../c5535_bsl_revc/ezdsp5535_v1/c55xx_csl/src/csl_msc.c",line 1343,column 3,is_stmt
        MOV dbl(*SP(#0)), XAR3
        MOV dbl(*SP(#0)), XAR2
        AMAR *+AR3(#140) ; |1343| 
        MOV XAR3, dbl(*AR2(#132))
	.dwpsn	file "../c5535_bsl_revc/ezdsp5535_v1/c55xx_csl/src/csl_msc.c",line 1349,column 3,is_stmt
        MOV dbl(*SP(#0)), XAR3
        MOV #9, *AR3(#164) ; |1349| 
	.dwpsn	file "../c5535_bsl_revc/ezdsp5535_v1/c55xx_csl/src/csl_msc.c",line 1351,column 3,is_stmt
        MOV dbl(*SP(#0)), XAR3
        MOV dbl(*SP(#0)), XAR2
        AADD #110, AR3 ; |1351| 
        MOV XAR3, dbl(*AR2(#166))
	.dwpsn	file "../c5535_bsl_revc/ezdsp5535_v1/c55xx_csl/src/csl_msc.c",line 1354,column 3,is_stmt
        MOV dbl(*SP(#0)), XAR3
        MOV dbl(*SP(#0)), XAR2
        AMAR *+AR3(#128) ; |1354| 
        MOV XAR3, dbl(*AR2(#168))
	.dwpsn	file "../c5535_bsl_revc/ezdsp5535_v1/c55xx_csl/src/csl_msc.c",line 1360,column 3,is_stmt
        MOV dbl(*SP(#0)), XAR3
        MOV #0, *AR3(#146) ; |1360| 
	.dwpsn	file "../c5535_bsl_revc/ezdsp5535_v1/c55xx_csl/src/csl_msc.c",line 1362,column 3,is_stmt
        MOV dbl(*SP(#0)), XAR3
        MOV #772, *AR3(#147) ; |1362| 
	.dwpsn	file "../c5535_bsl_revc/ezdsp5535_v1/c55xx_csl/src/csl_msc.c",line 1366,column 3,is_stmt
        MOV dbl(*SP(#0)), XAR3
        MOV #1033, *AR3(#148) ; |1366| 
	.dwpsn	file "../c5535_bsl_revc/ezdsp5535_v1/c55xx_csl/src/csl_msc.c",line 1367,column 3,is_stmt
        MOV dbl(*SP(#0)), XAR3
        MOV #0, *AR3(#149) ; |1367| 
	.dwpsn	file "../c5535_bsl_revc/ezdsp5535_v1/c55xx_csl/src/csl_msc.c",line 1376,column 3,is_stmt
        MOV dbl(*SP(#0)), XAR3
        CMP *AR3(#176) == #1, TC1 ; |1376| 
        BCC $C$L102,!TC1 ; |1376| 
                                        ; branchcc occurs ; |1376| 
	.dwpsn	file "../c5535_bsl_revc/ezdsp5535_v1/c55xx_csl/src/csl_msc.c",line 1379,column 4,is_stmt
        MOV dbl(*SP(#0)), XAR2
        AADD #60, AR3 ; |1379| 
        MOV XAR3, dbl(*AR2(#178))
	.dwpsn	file "../c5535_bsl_revc/ezdsp5535_v1/c55xx_csl/src/csl_msc.c",line 1380,column 4,is_stmt
        MOV dbl(*SP(#0)), XAR3
        MOV dbl(*SP(#0)), XAR2
        AADD #77, AR3 ; |1380| 
        MOV XAR3, dbl(*AR2(#180))
	.dwpsn	file "../c5535_bsl_revc/ezdsp5535_v1/c55xx_csl/src/csl_msc.c",line 1381,column 3,is_stmt
        B $C$L103 ; |1381| 
                                        ; branch occurs ; |1381| 
$C$L102:    
	.dwpsn	file "../c5535_bsl_revc/ezdsp5535_v1/c55xx_csl/src/csl_msc.c",line 1385,column 4,is_stmt
        MOV dbl(*SP(#0)), XAR2
        AADD #77, AR3 ; |1385| 
        MOV XAR3, dbl(*AR2(#178))
	.dwpsn	file "../c5535_bsl_revc/ezdsp5535_v1/c55xx_csl/src/csl_msc.c",line 1386,column 4,is_stmt
        MOV dbl(*SP(#0)), XAR3
        MOV dbl(*SP(#0)), XAR2
        AADD #60, AR3 ; |1386| 
        MOV XAR3, dbl(*AR2(#180))
$C$L103:    
	.dwpsn	file "../c5535_bsl_revc/ezdsp5535_v1/c55xx_csl/src/csl_msc.c",line 1390,column 3,is_stmt
        MOV dbl(*SP(#0)), XAR3
        MOV dbl(*AR3(#180)), XAR3
        MOV #1801, *AR3(short(#1)) ; |1390| 
	.dwpsn	file "../c5535_bsl_revc/ezdsp5535_v1/c55xx_csl/src/csl_msc.c",line 1393,column 2,is_stmt
        B $C$L105 ; |1393| 
                                        ; branch occurs ; |1393| 
$C$L104:    
	.dwpsn	file "../c5535_bsl_revc/ezdsp5535_v1/c55xx_csl/src/csl_msc.c",line 1396,column 3,is_stmt
        MOV #-5, *SP(#2) ; |1396| 
$C$L105:    
	.dwpsn	file "../c5535_bsl_revc/ezdsp5535_v1/c55xx_csl/src/csl_msc.c",line 1399,column 2,is_stmt
        MOV *SP(#2), T0 ; |1399| 
	.dwpsn	file "../c5535_bsl_revc/ezdsp5535_v1/c55xx_csl/src/csl_msc.c",line 1400,column 1,is_stmt
        AADD #3, SP
	.dwcfi	cfa_offset, 1
$C$DW$372	.dwtag  DW_TAG_TI_branch
	.dwattr $C$DW$372, DW_AT_low_pc(0x00)
	.dwattr $C$DW$372, DW_AT_TI_return
        RET
                                        ; return occurs
	.dwattr $C$DW$365, DW_AT_TI_end_file("../c5535_bsl_revc/ezdsp5535_v1/c55xx_csl/src/csl_msc.c")
	.dwattr $C$DW$365, DW_AT_TI_end_line(0x578)
	.dwattr $C$DW$365, DW_AT_TI_end_column(0x01)
	.dwendentry
	.dwendtag $C$DW$365

	.sect	".text"
	.align 4

$C$DW$373	.dwtag  DW_TAG_subprogram, DW_AT_name("MSC_initMscVal")
	.dwattr $C$DW$373, DW_AT_low_pc(_MSC_initMscVal)
	.dwattr $C$DW$373, DW_AT_high_pc(0x00)
	.dwattr $C$DW$373, DW_AT_TI_symbol_name("_MSC_initMscVal")
	.dwattr $C$DW$373, DW_AT_type(*$C$DW$T$89)
	.dwattr $C$DW$373, DW_AT_TI_begin_file("../c5535_bsl_revc/ezdsp5535_v1/c55xx_csl/src/csl_msc.c")
	.dwattr $C$DW$373, DW_AT_TI_begin_line(0x59c)
	.dwattr $C$DW$373, DW_AT_TI_begin_column(0x13)
	.dwattr $C$DW$373, DW_AT_TI_max_frame_size(0x06)
	.dwpsn	file "../c5535_bsl_revc/ezdsp5535_v1/c55xx_csl/src/csl_msc.c",line 1437,column 1,is_stmt,address _MSC_initMscVal

	.dwfde $C$DW$CIE, _MSC_initMscVal
$C$DW$374	.dwtag  DW_TAG_formal_parameter, DW_AT_name("pMscHandle")
	.dwattr $C$DW$374, DW_AT_TI_symbol_name("_pMscHandle")
	.dwattr $C$DW$374, DW_AT_type(*$C$DW$T$107)
	.dwattr $C$DW$374, DW_AT_location[DW_OP_reg17]
;*******************************************************************************
;* FUNCTION NAME: MSC_initMscVal                                               *
;*                                                                             *
;*   Function Uses Regs : AC0,AC0,T0,AR0,XAR0,AR1,AR2,AR3,XAR3,SP,CARRY,TC1,   *
;*                        M40,SATA,SATD,RDM,FRCT,SMUL                          *
;*   Stack Frame        : Compact (No Frame Pointer, w/ debug)                 *
;*   Total Frame Size   : 6 words                                              *
;*                        (2 return address/alignment)                         *
;*                        (4 local values)                                     *
