;*******************************************************************************
;* TMS320C55x C/C++ Codegen                                          PC v4.4.1 *
;* Date/Time created: Fri Sep 14 23:31:46 2018                                 *
;*******************************************************************************
	.compiler_opts --hll_source=on --mem_model:code=flat --mem_model:data=large --object_format=coff --silicon_core_3_3 --symdebug:dwarf 
	.mmregs
	.cpl_on
	.arms_on
	.c54cm_off
	.asg AR6, FP
	.asg XAR6, XFP
	.asg DPH, MDP
	.model call=c55_std
	.model mem=large
	.noremark 5002  ; code respects overwrite rules
;*******************************************************************************
;* GLOBAL FILE PARAMETERS                                                      *
;*                                                                             *
;*   Architecture       : TMS320C55x                                           *
;*   Optimizing for     : Speed                                                *
;*   Memory             : Large Model (23-Bit Data Pointers)                   *
;*   Calls              : Normal Library ASM calls                             *
;*   Debug Info         : Standard TI Debug Information                        *
;*******************************************************************************

$C$DW$CU	.dwtag  DW_TAG_compile_unit
	.dwattr $C$DW$CU, DW_AT_name("../c5535_bsl_revc/ezdsp5535_v1/c55xx_csl/src/csl_mmcsd.c")
	.dwattr $C$DW$CU, DW_AT_producer("TMS320C55x C/C++ Codegen PC v4.4.1 Copyright (c) 1996-2012 Texas Instruments Incorporated")
	.dwattr $C$DW$CU, DW_AT_TI_version(0x01)
	.dwattr $C$DW$CU, DW_AT_comp_dir("F:\eZdsp_DBG\eZDSP_5535_Files\ccsws2\test\Debug")

$C$DW$1	.dwtag  DW_TAG_subprogram, DW_AT_name("DMA_close")
	.dwattr $C$DW$1, DW_AT_TI_symbol_name("_DMA_close")
	.dwattr $C$DW$1, DW_AT_type(*$C$DW$T$116)
	.dwattr $C$DW$1, DW_AT_declaration
	.dwattr $C$DW$1, DW_AT_external
$C$DW$2	.dwtag  DW_TAG_formal_parameter
	.dwattr $C$DW$2, DW_AT_type(*$C$DW$T$89)
	.dwendtag $C$DW$1


$C$DW$3	.dwtag  DW_TAG_subprogram, DW_AT_name("DMA_config")
	.dwattr $C$DW$3, DW_AT_TI_symbol_name("_DMA_config")
	.dwattr $C$DW$3, DW_AT_type(*$C$DW$T$116)
	.dwattr $C$DW$3, DW_AT_declaration
	.dwattr $C$DW$3, DW_AT_external
$C$DW$4	.dwtag  DW_TAG_formal_parameter
	.dwattr $C$DW$4, DW_AT_type(*$C$DW$T$89)
$C$DW$5	.dwtag  DW_TAG_formal_parameter
	.dwattr $C$DW$5, DW_AT_type(*$C$DW$T$111)
	.dwendtag $C$DW$3


$C$DW$6	.dwtag  DW_TAG_subprogram, DW_AT_name("DMA_start")
	.dwattr $C$DW$6, DW_AT_TI_symbol_name("_DMA_start")
	.dwattr $C$DW$6, DW_AT_type(*$C$DW$T$116)
	.dwattr $C$DW$6, DW_AT_declaration
	.dwattr $C$DW$6, DW_AT_external
$C$DW$7	.dwtag  DW_TAG_formal_parameter
	.dwattr $C$DW$7, DW_AT_type(*$C$DW$T$89)
	.dwendtag $C$DW$6


$C$DW$8	.dwtag  DW_TAG_subprogram, DW_AT_name("DMA_stop")
	.dwattr $C$DW$8, DW_AT_TI_symbol_name("_DMA_stop")
	.dwattr $C$DW$8, DW_AT_type(*$C$DW$T$116)
	.dwattr $C$DW$8, DW_AT_declaration
	.dwattr $C$DW$8, DW_AT_external
$C$DW$9	.dwtag  DW_TAG_formal_parameter
	.dwattr $C$DW$9, DW_AT_type(*$C$DW$T$89)
	.dwendtag $C$DW$8


$C$DW$10	.dwtag  DW_TAG_subprogram, DW_AT_name("DMA_swapWords")
	.dwattr $C$DW$10, DW_AT_TI_symbol_name("_DMA_swapWords")
	.dwattr $C$DW$10, DW_AT_type(*$C$DW$T$116)
	.dwattr $C$DW$10, DW_AT_declaration
	.dwattr $C$DW$10, DW_AT_external
$C$DW$11	.dwtag  DW_TAG_formal_parameter
	.dwattr $C$DW$11, DW_AT_type(*$C$DW$T$141)
$C$DW$12	.dwtag  DW_TAG_formal_parameter
	.dwattr $C$DW$12, DW_AT_type(*$C$DW$T$49)
	.dwendtag $C$DW$10


$C$DW$13	.dwtag  DW_TAG_subprogram, DW_AT_name("IRQ_globalDisable")
	.dwattr $C$DW$13, DW_AT_TI_symbol_name("_IRQ_globalDisable")
	.dwattr $C$DW$13, DW_AT_type(*$C$DW$T$31)
	.dwattr $C$DW$13, DW_AT_declaration
	.dwattr $C$DW$13, DW_AT_external

$C$DW$14	.dwtag  DW_TAG_subprogram, DW_AT_name("IRQ_globalRestore")
	.dwattr $C$DW$14, DW_AT_TI_symbol_name("_IRQ_globalRestore")
	.dwattr $C$DW$14, DW_AT_declaration
	.dwattr $C$DW$14, DW_AT_external
$C$DW$15	.dwtag  DW_TAG_formal_parameter
	.dwattr $C$DW$15, DW_AT_type(*$C$DW$T$31)
	.dwendtag $C$DW$14

;	F:\ti\ccs8p1\ccsv8\tools\compiler\alt-install-ti-cgt-c55x_4.4.1\bin\acp55.exe -@f:\\AppData\\Local\\Temp\\1292812 
	.sect	".text"
	.align 4
	.global	_MMC_init

$C$DW$16	.dwtag  DW_TAG_subprogram, DW_AT_name("MMC_init")
	.dwattr $C$DW$16, DW_AT_low_pc(_MMC_init)
	.dwattr $C$DW$16, DW_AT_high_pc(0x00)
	.dwattr $C$DW$16, DW_AT_TI_symbol_name("_MMC_init")
	.dwattr $C$DW$16, DW_AT_external
	.dwattr $C$DW$16, DW_AT_type(*$C$DW$T$116)
	.dwattr $C$DW$16, DW_AT_TI_begin_file("../c5535_bsl_revc/ezdsp5535_v1/c55xx_csl/src/csl_mmcsd.c")
	.dwattr $C$DW$16, DW_AT_TI_begin_line(0x8e)
	.dwattr $C$DW$16, DW_AT_TI_begin_column(0x0c)
	.dwattr $C$DW$16, DW_AT_TI_max_frame_size(0x01)
	.dwpsn	file "../c5535_bsl_revc/ezdsp5535_v1/c55xx_csl/src/csl_mmcsd.c",line 143,column 1,is_stmt,address _MMC_init

	.dwfde $C$DW$CIE, _MMC_init
;*******************************************************************************
;* FUNCTION NAME: MMC_init                                                     *
;*                                                                             *
;*   Function Uses Regs : AC0,AC0,T0,AR1,SP,M40,SATA,SATD,RDM,FRCT,SMUL        *
;*   Stack Frame        : Compact (No Frame Pointer, w/ debug)                 *
;*   Total Frame Size   : 1 word                                               *
;*                        (1 return address/alignment)                         *
;*   Min System Stack   : 1 word                                               *
;*******************************************************************************
_MMC_init:
	.dwcfi	cfa_offset, 1
	.dwcfi	save_reg_to_mem, 91, -1
	.dwpsn	file "../c5535_bsl_revc/ezdsp5535_v1/c55xx_csl/src/csl_mmcsd.c",line 145,column 2,is_stmt
        AND #0xffef, *port(#7170) ; |145| 
	.dwpsn	file "../c5535_bsl_revc/ezdsp5535_v1/c55xx_csl/src/csl_mmcsd.c",line 146,column 2,is_stmt
        AND #0xff7f, *port(#7171) ; |146| 
	.dwpsn	file "../c5535_bsl_revc/ezdsp5535_v1/c55xx_csl/src/csl_mmcsd.c",line 149,column 2,is_stmt
        MOV #0, AC0 ; |149| 
        MOV *port(#7172), AR1 ; |149| 
        BSET @#5, AC0 ; |149| 
        MOV AC0, *port(#7172) ; |149| 
	.dwpsn	file "../c5535_bsl_revc/ezdsp5535_v1/c55xx_csl/src/csl_mmcsd.c",line 150,column 2,is_stmt
        MOV *port(#7173), AR1 ; |150| 
        BCLR @#5, AR1 ; |150| 
        BSET @#5, AR1 ; |150| 
        MOV AR1, *port(#7173) ; |150| 
	.dwpsn	file "../c5535_bsl_revc/ezdsp5535_v1/c55xx_csl/src/csl_mmcsd.c",line 153,column 2,is_stmt
        AND #0xfcff, *port(#7168) ; |153| 
	.dwpsn	file "../c5535_bsl_revc/ezdsp5535_v1/c55xx_csl/src/csl_mmcsd.c",line 155,column 2,is_stmt
        AND #0xf3ff, *port(#7168) ; |155| 
	.dwpsn	file "../c5535_bsl_revc/ezdsp5535_v1/c55xx_csl/src/csl_mmcsd.c",line 157,column 5,is_stmt
        MOV #0, T0
	.dwpsn	file "../c5535_bsl_revc/ezdsp5535_v1/c55xx_csl/src/csl_mmcsd.c",line 158,column 1,is_stmt
$C$DW$17	.dwtag  DW_TAG_TI_branch
	.dwattr $C$DW$17, DW_AT_low_pc(0x00)
	.dwattr $C$DW$17, DW_AT_TI_return
        RET
                                        ; return occurs
	.dwattr $C$DW$16, DW_AT_TI_end_file("../c5535_bsl_revc/ezdsp5535_v1/c55xx_csl/src/csl_mmcsd.c")
	.dwattr $C$DW$16, DW_AT_TI_end_line(0x9e)
	.dwattr $C$DW$16, DW_AT_TI_end_column(0x01)
	.dwendentry
	.dwendtag $C$DW$16

	.sect	".text"
	.align 4
	.global	_MMC_open

$C$DW$18	.dwtag  DW_TAG_subprogram, DW_AT_name("MMC_open")
	.dwattr $C$DW$18, DW_AT_low_pc(_MMC_open)
	.dwattr $C$DW$18, DW_AT_high_pc(0x00)
	.dwattr $C$DW$18, DW_AT_TI_symbol_name("_MMC_open")
	.dwattr $C$DW$18, DW_AT_external
	.dwattr $C$DW$18, DW_AT_type(*$C$DW$T$114)
	.dwattr $C$DW$18, DW_AT_TI_begin_file("../c5535_bsl_revc/ezdsp5535_v1/c55xx_csl/src/csl_mmcsd.c")
	.dwattr $C$DW$18, DW_AT_TI_begin_line(0xd5)
	.dwattr $C$DW$18, DW_AT_TI_begin_column(0x11)
	.dwattr $C$DW$18, DW_AT_TI_max_frame_size(0x0a)
	.dwpsn	file "../c5535_bsl_revc/ezdsp5535_v1/c55xx_csl/src/csl_mmcsd.c",line 217,column 1,is_stmt,address _MMC_open

	.dwfde $C$DW$CIE, _MMC_open
$C$DW$19	.dwtag  DW_TAG_formal_parameter, DW_AT_name("pMmcsdContObj")
	.dwattr $C$DW$19, DW_AT_TI_symbol_name("_pMmcsdContObj")
	.dwattr $C$DW$19, DW_AT_type(*$C$DW$T$113)
	.dwattr $C$DW$19, DW_AT_location[DW_OP_reg17]
$C$DW$20	.dwtag  DW_TAG_formal_parameter, DW_AT_name("instId")
	.dwattr $C$DW$20, DW_AT_TI_symbol_name("_instId")
	.dwattr $C$DW$20, DW_AT_type(*$C$DW$T$108)
	.dwattr $C$DW$20, DW_AT_location[DW_OP_reg12]
$C$DW$21	.dwtag  DW_TAG_formal_parameter, DW_AT_name("opMode")
	.dwattr $C$DW$21, DW_AT_TI_symbol_name("_opMode")
	.dwattr $C$DW$21, DW_AT_type(*$C$DW$T$86)
	.dwattr $C$DW$21, DW_AT_location[DW_OP_reg13]
$C$DW$22	.dwtag  DW_TAG_formal_parameter, DW_AT_name("status")
	.dwattr $C$DW$22, DW_AT_TI_symbol_name("_status")
	.dwattr $C$DW$22, DW_AT_type(*$C$DW$T$117)
	.dwattr $C$DW$22, DW_AT_location[DW_OP_reg19]
;*******************************************************************************
;* FUNCTION NAME: MMC_open                                                     *
;*                                                                             *
;*   Function Uses Regs : AC0,AC0,T0,T1,AR0,XAR0,AR1,XAR1,AR2,AR3,XAR3,SP,TC1, *
;*                        M40,SATA,SATD,RDM,FRCT,SMUL                          *
;*   Stack Frame        : Compact (No Frame Pointer, w/ debug)                 *
;*   Total Frame Size   : 10 words                                             *
;*                        (2 return address/alignment)                         *
;*                        (8 local values)                                     *
;*   Min System Stack   : 1 word                                               *
;*******************************************************************************
_MMC_open:
	.dwcfi	cfa_offset, 1
	.dwcfi	save_reg_to_mem, 91, -1
        AADD #-9, SP
	.dwcfi	cfa_offset, 10
$C$DW$23	.dwtag  DW_TAG_variable, DW_AT_name("pMmcsdContObj")
	.dwattr $C$DW$23, DW_AT_TI_symbol_name("_pMmcsdContObj")
	.dwattr $C$DW$23, DW_AT_type(*$C$DW$T$113)
	.dwattr $C$DW$23, DW_AT_location[DW_OP_bregx 0x24 0]
$C$DW$24	.dwtag  DW_TAG_variable, DW_AT_name("instId")
	.dwattr $C$DW$24, DW_AT_TI_symbol_name("_instId")
	.dwattr $C$DW$24, DW_AT_type(*$C$DW$T$108)
	.dwattr $C$DW$24, DW_AT_location[DW_OP_bregx 0x24 2]
$C$DW$25	.dwtag  DW_TAG_variable, DW_AT_name("opMode")
	.dwattr $C$DW$25, DW_AT_TI_symbol_name("_opMode")
	.dwattr $C$DW$25, DW_AT_type(*$C$DW$T$86)
	.dwattr $C$DW$25, DW_AT_location[DW_OP_bregx 0x24 3]
$C$DW$26	.dwtag  DW_TAG_variable, DW_AT_name("status")
	.dwattr $C$DW$26, DW_AT_TI_symbol_name("_status")
	.dwattr $C$DW$26, DW_AT_type(*$C$DW$T$117)
	.dwattr $C$DW$26, DW_AT_location[DW_OP_bregx 0x24 4]
$C$DW$27	.dwtag  DW_TAG_variable, DW_AT_name("hMmcsd")
	.dwattr $C$DW$27, DW_AT_TI_symbol_name("_hMmcsd")
	.dwattr $C$DW$27, DW_AT_type(*$C$DW$T$114)
	.dwattr $C$DW$27, DW_AT_location[DW_OP_bregx 0x24 6]
        MOV XAR1, dbl(*SP(#4))
        MOV T1, *SP(#3) ; |217| 
        MOV T0, *SP(#2) ; |217| 
        MOV XAR0, dbl(*SP(#0))
	.dwpsn	file "../c5535_bsl_revc/ezdsp5535_v1/c55xx_csl/src/csl_mmcsd.c",line 220,column 5,is_stmt
        MOV dbl(*SP(#0)), XAR3
        MOV XAR3, AC0
        BCC $C$L1,AC0 == #0 ; |220| 
                                        ; branchcc occurs ; |220| 
        MOV *SP(#3), AR1 ; |220| 
        BCC $C$L3,AR1 == #0 ; |220| 
                                        ; branchcc occurs ; |220| 
        CMP *SP(#3) == #1, TC1 ; |220| 
        BCC $C$L3,TC1 ; |220| 
                                        ; branchcc occurs ; |220| 
        CMP *SP(#3) == #2, TC1 ; |220| 
        BCC $C$L3,TC1 ; |220| 
                                        ; branchcc occurs ; |220| 
$C$L1:    
	.dwpsn	file "../c5535_bsl_revc/ezdsp5535_v1/c55xx_csl/src/csl_mmcsd.c",line 225,column 3,is_stmt
        MOV dbl(*SP(#4)), XAR3
        MOV XAR3, AC0
        BCC $C$L2,AC0 == #0 ; |225| 
                                        ; branchcc occurs ; |225| 
	.dwpsn	file "../c5535_bsl_revc/ezdsp5535_v1/c55xx_csl/src/csl_mmcsd.c",line 227,column 10,is_stmt
        MOV #-6, *AR3 ; |227| 
$C$L2:    
	.dwpsn	file "../c5535_bsl_revc/ezdsp5535_v1/c55xx_csl/src/csl_mmcsd.c",line 229,column 9,is_stmt
        MOV #0, AC0 ; |229| 
        MOV AC0, dbl(*SP(#6))
	.dwpsn	file "../c5535_bsl_revc/ezdsp5535_v1/c55xx_csl/src/csl_mmcsd.c",line 230,column 2,is_stmt
        B $C$L10  ; |230| 
                                        ; branch occurs ; |230| 
$C$L3:    
	.dwpsn	file "../c5535_bsl_revc/ezdsp5535_v1/c55xx_csl/src/csl_mmcsd.c",line 231,column 7,is_stmt
        MOV dbl(*SP(#4)), XAR3
        MOV XAR3, AC0
        BCC $C$L7,AC0 != #0 ; |231| 
                                        ; branchcc occurs ; |231| 
	.dwpsn	file "../c5535_bsl_revc/ezdsp5535_v1/c55xx_csl/src/csl_mmcsd.c",line 233,column 3,is_stmt
        MOV #0, AC0 ; |233| 
        MOV AC0, dbl(*SP(#6))
	.dwpsn	file "../c5535_bsl_revc/ezdsp5535_v1/c55xx_csl/src/csl_mmcsd.c",line 234,column 2,is_stmt
        B $C$L10  ; |234| 
                                        ; branch occurs ; |234| 
$C$L4:    
	.dwpsn	file "../c5535_bsl_revc/ezdsp5535_v1/c55xx_csl/src/csl_mmcsd.c",line 240,column 5,is_stmt
        MOV #0, *AR3 ; |240| 
	.dwpsn	file "../c5535_bsl_revc/ezdsp5535_v1/c55xx_csl/src/csl_mmcsd.c",line 241,column 5,is_stmt
        MOV dbl(*SP(#0)), XAR3
        MOV #14848, *AR3 ; |241| 
	.dwpsn	file "../c5535_bsl_revc/ezdsp5535_v1/c55xx_csl/src/csl_mmcsd.c",line 242,column 5,is_stmt
        MOV dbl(*SP(#0)), XAR3
        MOV XAR3, dbl(*SP(#6))
	.dwpsn	file "../c5535_bsl_revc/ezdsp5535_v1/c55xx_csl/src/csl_mmcsd.c",line 243,column 10,is_stmt
        B $C$L8   ; |243| 
                                        ; branch occurs ; |243| 
$C$L5:    
	.dwpsn	file "../c5535_bsl_revc/ezdsp5535_v1/c55xx_csl/src/csl_mmcsd.c",line 246,column 5,is_stmt
        MOV #0, *AR3 ; |246| 
	.dwpsn	file "../c5535_bsl_revc/ezdsp5535_v1/c55xx_csl/src/csl_mmcsd.c",line 247,column 5,is_stmt
        MOV dbl(*SP(#0)), XAR3
        MOV #15104, *AR3 ; |247| 
	.dwpsn	file "../c5535_bsl_revc/ezdsp5535_v1/c55xx_csl/src/csl_mmcsd.c",line 248,column 5,is_stmt
        MOV dbl(*SP(#0)), XAR3
        MOV XAR3, dbl(*SP(#6))
	.dwpsn	file "../c5535_bsl_revc/ezdsp5535_v1/c55xx_csl/src/csl_mmcsd.c",line 249,column 10,is_stmt
        B $C$L8   ; |249| 
                                        ; branch occurs ; |249| 
$C$L6:    
	.dwpsn	file "../c5535_bsl_revc/ezdsp5535_v1/c55xx_csl/src/csl_mmcsd.c",line 252,column 5,is_stmt
        MOV #-6, *AR3 ; |252| 
	.dwpsn	file "../c5535_bsl_revc/ezdsp5535_v1/c55xx_csl/src/csl_mmcsd.c",line 253,column 5,is_stmt
        MOV dbl(*SP(#0)), XAR3
        MOV #0, *AR3 ; |253| 
	.dwpsn	file "../c5535_bsl_revc/ezdsp5535_v1/c55xx_csl/src/csl_mmcsd.c",line 254,column 5,is_stmt
        MOV #0, AC0 ; |254| 
        MOV AC0, dbl(*SP(#6))
	.dwpsn	file "../c5535_bsl_revc/ezdsp5535_v1/c55xx_csl/src/csl_mmcsd.c",line 255,column 10,is_stmt
        B $C$L8   ; |255| 
                                        ; branch occurs ; |255| 
$C$L7:    
	.dwpsn	file "../c5535_bsl_revc/ezdsp5535_v1/c55xx_csl/src/csl_mmcsd.c",line 237,column 6,is_stmt
        MOV *SP(#2), AR1 ; |237| 
        BCC $C$L4,AR1 == #0 ; |237| 
                                        ; branchcc occurs ; |237| 
        MOV #1, AR2
        CMP AR1 == AR2, TC1 ; |237| 
        BCC $C$L5,TC1 ; |237| 
                                        ; branchcc occurs ; |237| 
        B $C$L6   ; |237| 
                                        ; branch occurs ; |237| 
$C$L8:    
	.dwpsn	file "../c5535_bsl_revc/ezdsp5535_v1/c55xx_csl/src/csl_mmcsd.c",line 258,column 3,is_stmt
        MOV dbl(*SP(#6)), XAR3
        MOV *SP(#3), AR1 ; |258| 
        MOV AR1, *AR3(#8) ; |258| 
	.dwpsn	file "../c5535_bsl_revc/ezdsp5535_v1/c55xx_csl/src/csl_mmcsd.c",line 260,column 3,is_stmt
        MOV dbl(*SP(#6)), XAR3
        MOV #0, *AR3(#61) ; |260| 
	.dwpsn	file "../c5535_bsl_revc/ezdsp5535_v1/c55xx_csl/src/csl_mmcsd.c",line 261,column 3,is_stmt
        MOV dbl(*SP(#6)), XAR3
        MOV #0, *AR3(#62) ; |261| 
	.dwpsn	file "../c5535_bsl_revc/ezdsp5535_v1/c55xx_csl/src/csl_mmcsd.c",line 262,column 3,is_stmt
        MOV dbl(*SP(#6)), XAR3
        MOV #0, *AR3(#44) ; |262| 
	.dwpsn	file "../c5535_bsl_revc/ezdsp5535_v1/c55xx_csl/src/csl_mmcsd.c",line 263,column 3,is_stmt
        MOV dbl(*SP(#6)), XAR3
        MOV #0, *AR3(#63) ; |263| 
	.dwpsn	file "../c5535_bsl_revc/ezdsp5535_v1/c55xx_csl/src/csl_mmcsd.c",line 266,column 3,is_stmt
        MOV dbl(*SP(#6)), XAR3
        MOV *AR3, AR3 ; |266| 
        MOV port(*AR3), AR1 ; |266| 
        MOV dbl(*SP(#6)), XAR3
        MOV *AR3(#62) << #10, AC0 ; |266| 
        MOV *AR3, AR3 ; |266| 
        BCLR @#10, AR1 ; |266| 
        AND #0x0400, AC0, AR2 ; |266| 
        OR AR1, AR2 ; |266| 
        MOV AR2, port(*AR3) ; |266| 
	.dwpsn	file "../c5535_bsl_revc/ezdsp5535_v1/c55xx_csl/src/csl_mmcsd.c",line 270,column 3,is_stmt
        MOV dbl(*SP(#6)), XAR3
        MOV *AR3, AR3 ; |270| 
        MOV port(*AR3), AR1 ; |270| 
        MOV dbl(*SP(#6)), XAR3
        MOV *AR3(#61) << #9, AC0 ; |270| 
        MOV *AR3, AR3 ; |270| 
        BCLR @#9, AR1 ; |270| 
        AND #0x0200, AC0, AR2 ; |270| 
        OR AR1, AR2 ; |270| 
        MOV AR2, port(*AR3) ; |270| 
	.dwpsn	file "../c5535_bsl_revc/ezdsp5535_v1/c55xx_csl/src/csl_mmcsd.c",line 273,column 3,is_stmt
        MOV dbl(*SP(#4)), XAR3

        MOV *AR3, AR1 ; |273| 
||      MOV #0, AR2

        CMP AR2 != AR1, TC1 ; |273| 
        BCC $C$L10,TC1 ; |273| 
                                        ; branchcc occurs ; |273| 
        MOV dbl(*SP(#6)), XAR3
        MOV #2, AR2
        MOV *AR3(#8), AR1 ; |273| 
        CMP AR2 != AR1, TC1 ; |273| 
        BCC $C$L10,TC1 ; |273| 
                                        ; branchcc occurs ; |273| 
	.dwpsn	file "../c5535_bsl_revc/ezdsp5535_v1/c55xx_csl/src/csl_mmcsd.c",line 275,column 4,is_stmt
        MOV #0, AC0 ; |275| 
        MOV AC0, dbl(*AR3(#10))
	.dwpsn	file "../c5535_bsl_revc/ezdsp5535_v1/c55xx_csl/src/csl_mmcsd.c",line 276,column 4,is_stmt
        MOV dbl(*SP(#6)), XAR3
        MOV AC0, dbl(*AR3(#12))
	.dwpsn	file "../c5535_bsl_revc/ezdsp5535_v1/c55xx_csl/src/csl_mmcsd.c",line 280,column 7,is_stmt
        MOV dbl(*SP(#6)), XAR3
        MOV #0, *AR3(#14) ; |280| 
	.dwpsn	file "../c5535_bsl_revc/ezdsp5535_v1/c55xx_csl/src/csl_mmcsd.c",line 282,column 4,is_stmt
        MOV dbl(*SP(#6)), XAR3
        MOV #0, *AR3(#15) ; |282| 
	.dwpsn	file "../c5535_bsl_revc/ezdsp5535_v1/c55xx_csl/src/csl_mmcsd.c",line 283,column 4,is_stmt
        MOV dbl(*SP(#6)), XAR3
        MOV #3, *AR3(#16) ; |283| 
	.dwpsn	file "../c5535_bsl_revc/ezdsp5535_v1/c55xx_csl/src/csl_mmcsd.c",line 284,column 4,is_stmt
        MOV dbl(*SP(#6)), XAR3
        MOV #1, *AR3(#20) ; |284| 
	.dwpsn	file "../c5535_bsl_revc/ezdsp5535_v1/c55xx_csl/src/csl_mmcsd.c",line 285,column 4,is_stmt
        MOV dbl(*SP(#6)), XAR3
        MOV #0, *AR3(#19) ; |285| 
	.dwpsn	file "../c5535_bsl_revc/ezdsp5535_v1/c55xx_csl/src/csl_mmcsd.c",line 286,column 4,is_stmt
        MOV dbl(*SP(#6)), XAR3
        MOV #0, *AR3(#21) ; |286| 
	.dwpsn	file "../c5535_bsl_revc/ezdsp5535_v1/c55xx_csl/src/csl_mmcsd.c",line 287,column 4,is_stmt
        MOV dbl(*SP(#6)), XAR3
        MOV #1, *AR3(#17) ; |287| 
	.dwpsn	file "../c5535_bsl_revc/ezdsp5535_v1/c55xx_csl/src/csl_mmcsd.c",line 288,column 4,is_stmt
        MOV dbl(*SP(#6)), XAR3
        MOV AC0, dbl(*AR3(#24)) ; |288| 
	.dwpsn	file "../c5535_bsl_revc/ezdsp5535_v1/c55xx_csl/src/csl_mmcsd.c",line 289,column 4,is_stmt
        MOV dbl(*SP(#6)), XAR3
        MOV #0, *AR3(#22) ; |289| 
	.dwpsn	file "../c5535_bsl_revc/ezdsp5535_v1/c55xx_csl/src/csl_mmcsd.c",line 290,column 4,is_stmt
        MOV dbl(*SP(#0)), XAR3
        MOV uns(*AR3), AC0 ; |290| 
        MOV AC0, XAR3
        AADD #44, AR3 ; |290| 
        MOV XAR3, AC0
        MOV dbl(*SP(#6)), XAR3
        MOV AC0, dbl(*AR3(#26)) ; |290| 
	.dwpsn	file "../c5535_bsl_revc/ezdsp5535_v1/c55xx_csl/src/csl_mmcsd.c",line 294,column 7,is_stmt
        MOV dbl(*SP(#6)), XAR3
        MOV #0, *AR3(#28) ; |294| 
	.dwpsn	file "../c5535_bsl_revc/ezdsp5535_v1/c55xx_csl/src/csl_mmcsd.c",line 296,column 4,is_stmt
        MOV dbl(*SP(#6)), XAR3
        MOV #0, *AR3(#29) ; |296| 
	.dwpsn	file "../c5535_bsl_revc/ezdsp5535_v1/c55xx_csl/src/csl_mmcsd.c",line 297,column 4,is_stmt
        MOV dbl(*SP(#6)), XAR3
        MOV #3, *AR3(#30) ; |297| 
	.dwpsn	file "../c5535_bsl_revc/ezdsp5535_v1/c55xx_csl/src/csl_mmcsd.c",line 298,column 4,is_stmt
        MOV dbl(*SP(#6)), XAR3
        MOV #0, *AR3(#34) ; |298| 
	.dwpsn	file "../c5535_bsl_revc/ezdsp5535_v1/c55xx_csl/src/csl_mmcsd.c",line 299,column 4,is_stmt
        MOV dbl(*SP(#6)), XAR3
        MOV #0, *AR3(#33) ; |299| 
	.dwpsn	file "../c5535_bsl_revc/ezdsp5535_v1/c55xx_csl/src/csl_mmcsd.c",line 300,column 4,is_stmt
        MOV dbl(*SP(#6)), XAR3
        MOV #0, *AR3(#35) ; |300| 
	.dwpsn	file "../c5535_bsl_revc/ezdsp5535_v1/c55xx_csl/src/csl_mmcsd.c",line 301,column 4,is_stmt
        MOV dbl(*SP(#6)), XAR3
        MOV #1, *AR3(#31) ; |301| 
	.dwpsn	file "../c5535_bsl_revc/ezdsp5535_v1/c55xx_csl/src/csl_mmcsd.c",line 302,column 4,is_stmt
        MOV dbl(*SP(#6)), XAR3
        MOV #0, AC0 ; |302| 
        MOV AC0, dbl(*AR3(#40)) ; |302| 
	.dwpsn	file "../c5535_bsl_revc/ezdsp5535_v1/c55xx_csl/src/csl_mmcsd.c",line 303,column 4,is_stmt
        MOV dbl(*SP(#6)), XAR3
        MOV #0, *AR3(#36) ; |303| 
	.dwpsn	file "../c5535_bsl_revc/ezdsp5535_v1/c55xx_csl/src/csl_mmcsd.c",line 304,column 4,is_stmt
        MOV dbl(*SP(#0)), XAR3
        MOV uns(*AR3), AC0 ; |304| 
        MOV AC0, XAR3
        AADD #40, AR3 ; |304| 
        MOV XAR3, AC0
        MOV dbl(*SP(#6)), XAR3
        MOV AC0, dbl(*AR3(#38)) ; |304| 
	.dwpsn	file "../c5535_bsl_revc/ezdsp5535_v1/c55xx_csl/src/csl_mmcsd.c",line 307,column 4,is_stmt

        MOV *SP(#2), AR1 ; |307| 
||      MOV #0, AR2

        CMP AR2 != AR1, TC1 ; |307| 
        BCC $C$L9,TC1 ; |307| 
                                        ; branchcc occurs ; |307| 
	.dwpsn	file "../c5535_bsl_revc/ezdsp5535_v1/c55xx_csl/src/csl_mmcsd.c",line 309,column 5,is_stmt
        MOV dbl(*SP(#6)), XAR3
        MOV #5, *AR3(#18) ; |309| 
	.dwpsn	file "../c5535_bsl_revc/ezdsp5535_v1/c55xx_csl/src/csl_mmcsd.c",line 310,column 5,is_stmt
        MOV dbl(*SP(#6)), XAR3
        MOV #6, *AR3(#32) ; |310| 
	.dwpsn	file "../c5535_bsl_revc/ezdsp5535_v1/c55xx_csl/src/csl_mmcsd.c",line 311,column 4,is_stmt
        B $C$L10  ; |311| 
                                        ; branch occurs ; |311| 
$C$L9:    
	.dwpsn	file "../c5535_bsl_revc/ezdsp5535_v1/c55xx_csl/src/csl_mmcsd.c",line 314,column 5,is_stmt
        MOV dbl(*SP(#6)), XAR3
        MOV #7, *AR3(#18) ; |314| 
	.dwpsn	file "../c5535_bsl_revc/ezdsp5535_v1/c55xx_csl/src/csl_mmcsd.c",line 315,column 5,is_stmt
        MOV dbl(*SP(#6)), XAR3
        MOV #8, *AR3(#32) ; |315| 
$C$L10:    
	.dwpsn	file "../c5535_bsl_revc/ezdsp5535_v1/c55xx_csl/src/csl_mmcsd.c",line 320,column 5,is_stmt
        MOV dbl(*SP(#6)), XAR0
	.dwpsn	file "../c5535_bsl_revc/ezdsp5535_v1/c55xx_csl/src/csl_mmcsd.c",line 321,column 1,is_stmt
        AADD #9, SP
	.dwcfi	cfa_offset, 1
$C$DW$28	.dwtag  DW_TAG_TI_branch
	.dwattr $C$DW$28, DW_AT_low_pc(0x00)
	.dwattr $C$DW$28, DW_AT_TI_return
        RET
                                        ; return occurs
	.dwattr $C$DW$18, DW_AT_TI_end_file("../c5535_bsl_revc/ezdsp5535_v1/c55xx_csl/src/csl_mmcsd.c")
	.dwattr $C$DW$18, DW_AT_TI_end_line(0x141)
	.dwattr $C$DW$18, DW_AT_TI_end_column(0x01)
	.dwendentry
	.dwendtag $C$DW$18

	.sect	".text"
	.align 4
	.global	_MMC_close

$C$DW$29	.dwtag  DW_TAG_subprogram, DW_AT_name("MMC_close")
	.dwattr $C$DW$29, DW_AT_low_pc(_MMC_close)
	.dwattr $C$DW$29, DW_AT_high_pc(0x00)
	.dwattr $C$DW$29, DW_AT_TI_symbol_name("_MMC_close")
	.dwattr $C$DW$29, DW_AT_external
	.dwattr $C$DW$29, DW_AT_type(*$C$DW$T$116)
	.dwattr $C$DW$29, DW_AT_TI_begin_file("../c5535_bsl_revc/ezdsp5535_v1/c55xx_csl/src/csl_mmcsd.c")
	.dwattr $C$DW$29, DW_AT_TI_begin_line(0x16b)
	.dwattr $C$DW$29, DW_AT_TI_begin_column(0x0c)
	.dwattr $C$DW$29, DW_AT_TI_max_frame_size(0x04)
	.dwpsn	file "../c5535_bsl_revc/ezdsp5535_v1/c55xx_csl/src/csl_mmcsd.c",line 364,column 1,is_stmt,address _MMC_close

	.dwfde $C$DW$CIE, _MMC_close
$C$DW$30	.dwtag  DW_TAG_formal_parameter, DW_AT_name("hMmcsd")
	.dwattr $C$DW$30, DW_AT_TI_symbol_name("_hMmcsd")
	.dwattr $C$DW$30, DW_AT_type(*$C$DW$T$114)
	.dwattr $C$DW$30, DW_AT_location[DW_OP_reg17]
;*******************************************************************************
;* FUNCTION NAME: MMC_close                                                    *
;*                                                                             *
;*   Function Uses Regs : AC0,AC0,AC1,AC1,T0,AR0,XAR0,AR3,XAR3,SP,TC1,M40,SATA,*
;*                        SATD,RDM,FRCT,SMUL                                   *
;*   Stack Frame        : Compact (No Frame Pointer, w/ debug)                 *
;*   Total Frame Size   : 4 words                                              *
;*                        (2 return address/alignment)                         *
;*                        (2 local values)                                     *
;*   Min System Stack   : 1 word                                               *
;*******************************************************************************
_MMC_close:
	.dwcfi	cfa_offset, 1
	.dwcfi	save_reg_to_mem, 91, -1
        AADD #-3, SP
	.dwcfi	cfa_offset, 4
$C$DW$31	.dwtag  DW_TAG_variable, DW_AT_name("hMmcsd")
	.dwattr $C$DW$31, DW_AT_TI_symbol_name("_hMmcsd")
	.dwattr $C$DW$31, DW_AT_type(*$C$DW$T$114)
	.dwattr $C$DW$31, DW_AT_location[DW_OP_bregx 0x24 0]
        MOV XAR0, dbl(*SP(#0))
	.dwpsn	file "../c5535_bsl_revc/ezdsp5535_v1/c55xx_csl/src/csl_mmcsd.c",line 365,column 5,is_stmt
        MOV dbl(*SP(#0)), XAR3

        MOV XAR3, AC0
||      MOV #0, AC1 ; |365| 

        CMPU AC1 != AC0, TC1 ; |365| 
        BCC $C$L11,TC1 ; |365| 
                                        ; branchcc occurs ; |365| 
	.dwpsn	file "../c5535_bsl_revc/ezdsp5535_v1/c55xx_csl/src/csl_mmcsd.c",line 367,column 9,is_stmt
        MOV #-5, T0
        B $C$L13  ; |367| 
                                        ; branch occurs ; |367| 
$C$L11:    
	.dwpsn	file "../c5535_bsl_revc/ezdsp5535_v1/c55xx_csl/src/csl_mmcsd.c",line 371,column 3,is_stmt
        CMP *AR3(#8) == #2, TC1 ; |371| 
        BCC $C$L12,!TC1 ; |371| 
                                        ; branchcc occurs ; |371| 
	.dwpsn	file "../c5535_bsl_revc/ezdsp5535_v1/c55xx_csl/src/csl_mmcsd.c",line 374,column 4,is_stmt
        MOV dbl(*AR3(#10)), XAR0
$C$DW$32	.dwtag  DW_TAG_TI_branch
	.dwattr $C$DW$32, DW_AT_low_pc(0x00)
	.dwattr $C$DW$32, DW_AT_name("_DMA_close")
	.dwattr $C$DW$32, DW_AT_TI_call
        CALL #_DMA_close ; |374| 
                                        ; call occurs [#_DMA_close] ; |374| 
	.dwpsn	file "../c5535_bsl_revc/ezdsp5535_v1/c55xx_csl/src/csl_mmcsd.c",line 375,column 4,is_stmt
        MOV dbl(*SP(#0)), XAR3
        MOV dbl(*AR3(#12)), XAR0
$C$DW$33	.dwtag  DW_TAG_TI_branch
	.dwattr $C$DW$33, DW_AT_low_pc(0x00)
	.dwattr $C$DW$33, DW_AT_name("_DMA_close")
	.dwattr $C$DW$33, DW_AT_TI_call
        CALL #_DMA_close ; |375| 
                                        ; call occurs [#_DMA_close] ; |375| 
$C$L12:    
	.dwpsn	file "../c5535_bsl_revc/ezdsp5535_v1/c55xx_csl/src/csl_mmcsd.c",line 378,column 9,is_stmt
        MOV dbl(*SP(#0)), XAR3
        MOV #0, *AR3 ; |378| 
	.dwpsn	file "../c5535_bsl_revc/ezdsp5535_v1/c55xx_csl/src/csl_mmcsd.c",line 380,column 9,is_stmt
        MOV #0, T0
$C$L13:    
	.dwpsn	file "../c5535_bsl_revc/ezdsp5535_v1/c55xx_csl/src/csl_mmcsd.c",line 382,column 1,is_stmt
        AADD #3, SP
	.dwcfi	cfa_offset, 1
$C$DW$34	.dwtag  DW_TAG_TI_branch
	.dwattr $C$DW$34, DW_AT_low_pc(0x00)
	.dwattr $C$DW$34, DW_AT_TI_return
        RET
                                        ; return occurs
	.dwattr $C$DW$29, DW_AT_TI_end_file("../c5535_bsl_revc/ezdsp5535_v1/c55xx_csl/src/csl_mmcsd.c")
	.dwattr $C$DW$29, DW_AT_TI_end_line(0x17e)
	.dwattr $C$DW$29, DW_AT_TI_end_column(0x01)
	.dwendentry
	.dwendtag $C$DW$29

	.sect	".text"
	.align 4
	.global	_MMC_setCardType

$C$DW$35	.dwtag  DW_TAG_subprogram, DW_AT_name("MMC_setCardType")
	.dwattr $C$DW$35, DW_AT_low_pc(_MMC_setCardType)
	.dwattr $C$DW$35, DW_AT_high_pc(0x00)
	.dwattr $C$DW$35, DW_AT_TI_symbol_name("_MMC_setCardType")
	.dwattr $C$DW$35, DW_AT_external
	.dwattr $C$DW$35, DW_AT_type(*$C$DW$T$116)
	.dwattr $C$DW$35, DW_AT_TI_begin_file("../c5535_bsl_revc/ezdsp5535_v1/c55xx_csl/src/csl_mmcsd.c")
	.dwattr $C$DW$35, DW_AT_TI_begin_line(0x1a6)
	.dwattr $C$DW$35, DW_AT_TI_begin_column(0x0c)
	.dwattr $C$DW$35, DW_AT_TI_max_frame_size(0x04)
	.dwpsn	file "../c5535_bsl_revc/ezdsp5535_v1/c55xx_csl/src/csl_mmcsd.c",line 424,column 1,is_stmt,address _MMC_setCardType

	.dwfde $C$DW$CIE, _MMC_setCardType
$C$DW$36	.dwtag  DW_TAG_formal_parameter, DW_AT_name("pCardObj")
	.dwattr $C$DW$36, DW_AT_TI_symbol_name("_pCardObj")
	.dwattr $C$DW$36, DW_AT_type(*$C$DW$T$82)
	.dwattr $C$DW$36, DW_AT_location[DW_OP_reg17]
$C$DW$37	.dwtag  DW_TAG_formal_parameter, DW_AT_name("cardType")
	.dwattr $C$DW$37, DW_AT_TI_symbol_name("_cardType")
	.dwattr $C$DW$37, DW_AT_type(*$C$DW$T$62)
	.dwattr $C$DW$37, DW_AT_location[DW_OP_reg12]
;*******************************************************************************
;* FUNCTION NAME: MMC_setCardType                                              *
;*                                                                             *
;*   Function Uses Regs : AC0,AC0,AC1,AC1,T0,AR0,XAR0,AR1,AR3,XAR3,SP,TC1,M40, *
;*                        SATA,SATD,RDM,FRCT,SMUL                              *
;*   Stack Frame        : Compact (No Frame Pointer, w/ debug)                 *
;*   Total Frame Size   : 4 words                                              *
;*                        (1 return address/alignment)                         *
;*                        (3 local values)                                     *
;*   Min System Stack   : 1 word                                               *
;*******************************************************************************
_MMC_setCardType:
	.dwcfi	cfa_offset, 1
	.dwcfi	save_reg_to_mem, 91, -1
        AADD #-3, SP
	.dwcfi	cfa_offset, 4
$C$DW$38	.dwtag  DW_TAG_variable, DW_AT_name("pCardObj")
	.dwattr $C$DW$38, DW_AT_TI_symbol_name("_pCardObj")
	.dwattr $C$DW$38, DW_AT_type(*$C$DW$T$82)
	.dwattr $C$DW$38, DW_AT_location[DW_OP_bregx 0x24 0]
$C$DW$39	.dwtag  DW_TAG_variable, DW_AT_name("cardType")
	.dwattr $C$DW$39, DW_AT_TI_symbol_name("_cardType")
	.dwattr $C$DW$39, DW_AT_type(*$C$DW$T$62)
	.dwattr $C$DW$39, DW_AT_location[DW_OP_bregx 0x24 2]
        MOV T0, *SP(#2) ; |424| 
        MOV XAR0, dbl(*SP(#0))
	.dwpsn	file "../c5535_bsl_revc/ezdsp5535_v1/c55xx_csl/src/csl_mmcsd.c",line 425,column 5,is_stmt
        MOV dbl(*SP(#0)), XAR3

        MOV XAR3, AC0
||      MOV #0, AC1 ; |425| 

        CMPU AC1 != AC0, TC1 ; |425| 
        BCC $C$L14,TC1 ; |425| 
                                        ; branchcc occurs ; |425| 
	.dwpsn	file "../c5535_bsl_revc/ezdsp5535_v1/c55xx_csl/src/csl_mmcsd.c",line 427,column 9,is_stmt
        MOV #-6, T0
        B $C$L17  ; |427| 
                                        ; branch occurs ; |427| 
$C$L14:    
	.dwpsn	file "../c5535_bsl_revc/ezdsp5535_v1/c55xx_csl/src/csl_mmcsd.c",line 431,column 3,is_stmt
        CMP *SP(#2) == #1, TC1 ; |431| 
        BCC $C$L15,TC1 ; |431| 
                                        ; branchcc occurs ; |431| 
        CMP *SP(#2) == #2, TC1 ; |431| 
        BCC $C$L16,!TC1 ; |431| 
                                        ; branchcc occurs ; |431| 
$C$L15:    
	.dwpsn	file "../c5535_bsl_revc/ezdsp5535_v1/c55xx_csl/src/csl_mmcsd.c",line 433,column 10,is_stmt
        MOV *SP(#2), AR1 ; |433| 
        MOV AR1, *AR3(#18) ; |433| 
	.dwpsn	file "../c5535_bsl_revc/ezdsp5535_v1/c55xx_csl/src/csl_mmcsd.c",line 434,column 10,is_stmt
        MOV #0, T0
        B $C$L17  ; |434| 
                                        ; branch occurs ; |434| 
$C$L16:    
	.dwpsn	file "../c5535_bsl_revc/ezdsp5535_v1/c55xx_csl/src/csl_mmcsd.c",line 438,column 4,is_stmt
        MOV #-6, T0
$C$L17:    
	.dwpsn	file "../c5535_bsl_revc/ezdsp5535_v1/c55xx_csl/src/csl_mmcsd.c",line 441,column 1,is_stmt
        AADD #3, SP
	.dwcfi	cfa_offset, 1
$C$DW$40	.dwtag  DW_TAG_TI_branch
	.dwattr $C$DW$40, DW_AT_low_pc(0x00)
	.dwattr $C$DW$40, DW_AT_TI_return
        RET
                                        ; return occurs
	.dwattr $C$DW$35, DW_AT_TI_end_file("../c5535_bsl_revc/ezdsp5535_v1/c55xx_csl/src/csl_mmcsd.c")
	.dwattr $C$DW$35, DW_AT_TI_end_line(0x1b9)
	.dwattr $C$DW$35, DW_AT_TI_end_column(0x01)
	.dwendentry
	.dwendtag $C$DW$35

	.sect	".text"
	.align 4
	.global	_MMC_setCardPtr

$C$DW$41	.dwtag  DW_TAG_subprogram, DW_AT_name("MMC_setCardPtr")
	.dwattr $C$DW$41, DW_AT_low_pc(_MMC_setCardPtr)
	.dwattr $C$DW$41, DW_AT_high_pc(0x00)
	.dwattr $C$DW$41, DW_AT_TI_symbol_name("_MMC_setCardPtr")
	.dwattr $C$DW$41, DW_AT_external
	.dwattr $C$DW$41, DW_AT_type(*$C$DW$T$116)
	.dwattr $C$DW$41, DW_AT_TI_begin_file("../c5535_bsl_revc/ezdsp5535_v1/c55xx_csl/src/csl_mmcsd.c")
	.dwattr $C$DW$41, DW_AT_TI_begin_line(0x1e7)
	.dwattr $C$DW$41, DW_AT_TI_begin_column(0x0c)
	.dwattr $C$DW$41, DW_AT_TI_max_frame_size(0x06)
	.dwpsn	file "../c5535_bsl_revc/ezdsp5535_v1/c55xx_csl/src/csl_mmcsd.c",line 489,column 1,is_stmt,address _MMC_setCardPtr

	.dwfde $C$DW$CIE, _MMC_setCardPtr
$C$DW$42	.dwtag  DW_TAG_formal_parameter, DW_AT_name("hMmcsd")
	.dwattr $C$DW$42, DW_AT_TI_symbol_name("_hMmcsd")
	.dwattr $C$DW$42, DW_AT_type(*$C$DW$T$114)
	.dwattr $C$DW$42, DW_AT_location[DW_OP_reg17]
$C$DW$43	.dwtag  DW_TAG_formal_parameter, DW_AT_name("pMmcCardObj")
	.dwattr $C$DW$43, DW_AT_TI_symbol_name("_pMmcCardObj")
	.dwattr $C$DW$43, DW_AT_type(*$C$DW$T$82)
	.dwattr $C$DW$43, DW_AT_location[DW_OP_reg19]
;*******************************************************************************
;* FUNCTION NAME: MMC_setCardPtr                                               *
;*                                                                             *
;*   Function Uses Regs : AC0,AC0,AC1,AC1,T0,AR0,XAR0,AR1,XAR1,AR2,XAR2,AR3,   *
;*                        XAR3,SP,TC1,M40,SATA,SATD,RDM,FRCT,SMUL              *
;*   Stack Frame        : Compact (No Frame Pointer, w/ debug)                 *
;*   Total Frame Size   : 6 words                                              *
;*                        (2 return address/alignment)                         *
;*                        (4 local values)                                     *
;*   Min System Stack   : 1 word                                               *
;*******************************************************************************
_MMC_setCardPtr:
	.dwcfi	cfa_offset, 1
	.dwcfi	save_reg_to_mem, 91, -1
        AADD #-5, SP
	.dwcfi	cfa_offset, 6
$C$DW$44	.dwtag  DW_TAG_variable, DW_AT_name("hMmcsd")
	.dwattr $C$DW$44, DW_AT_TI_symbol_name("_hMmcsd")
	.dwattr $C$DW$44, DW_AT_type(*$C$DW$T$114)
	.dwattr $C$DW$44, DW_AT_location[DW_OP_bregx 0x24 0]
$C$DW$45	.dwtag  DW_TAG_variable, DW_AT_name("pMmcCardObj")
	.dwattr $C$DW$45, DW_AT_TI_symbol_name("_pMmcCardObj")
	.dwattr $C$DW$45, DW_AT_type(*$C$DW$T$82)
	.dwattr $C$DW$45, DW_AT_location[DW_OP_bregx 0x24 2]
        MOV XAR1, dbl(*SP(#2))
        MOV XAR0, dbl(*SP(#0))
	.dwpsn	file "../c5535_bsl_revc/ezdsp5535_v1/c55xx_csl/src/csl_mmcsd.c",line 490,column 5,is_stmt
        MOV dbl(*SP(#0)), XAR3
        MOV XAR3, AC0
        BCC $C$L18,AC0 != #0 ; |490| 
                                        ; branchcc occurs ; |490| 
	.dwpsn	file "../c5535_bsl_revc/ezdsp5535_v1/c55xx_csl/src/csl_mmcsd.c",line 492,column 9,is_stmt
        MOV #-5, T0
        B $C$L20  ; |492| 
                                        ; branch occurs ; |492| 
$C$L18:    
	.dwpsn	file "../c5535_bsl_revc/ezdsp5535_v1/c55xx_csl/src/csl_mmcsd.c",line 496,column 9,is_stmt
        MOV dbl(*SP(#2)), XAR3

        MOV XAR3, AC0
||      MOV #0, AC1 ; |496| 

        CMPU AC1 != AC0, TC1 ; |496| 
        BCC $C$L19,TC1 ; |496| 
                                        ; branchcc occurs ; |496| 
	.dwpsn	file "../c5535_bsl_revc/ezdsp5535_v1/c55xx_csl/src/csl_mmcsd.c",line 498,column 13,is_stmt
        MOV #-6, T0
        B $C$L20  ; |498| 
                                        ; branch occurs ; |498| 
$C$L19:    
	.dwpsn	file "../c5535_bsl_revc/ezdsp5535_v1/c55xx_csl/src/csl_mmcsd.c",line 502,column 13,is_stmt
        MOV dbl(*SP(#0)), XAR3
        MOV dbl(*SP(#2)), XAR2
        MOV XAR2, dbl(*AR3(short(#2)))
	.dwpsn	file "../c5535_bsl_revc/ezdsp5535_v1/c55xx_csl/src/csl_mmcsd.c",line 503,column 13,is_stmt
        MOV #0, T0
$C$L20:    
	.dwpsn	file "../c5535_bsl_revc/ezdsp5535_v1/c55xx_csl/src/csl_mmcsd.c",line 506,column 1,is_stmt
        AADD #5, SP
	.dwcfi	cfa_offset, 1
$C$DW$46	.dwtag  DW_TAG_TI_branch
	.dwattr $C$DW$46, DW_AT_low_pc(0x00)
	.dwattr $C$DW$46, DW_AT_TI_return
        RET
                                        ; return occurs
	.dwattr $C$DW$41, DW_AT_TI_end_file("../c5535_bsl_revc/ezdsp5535_v1/c55xx_csl/src/csl_mmcsd.c")
	.dwattr $C$DW$41, DW_AT_TI_end_line(0x1fa)
	.dwattr $C$DW$41, DW_AT_TI_end_column(0x01)
	.dwendentry
	.dwendtag $C$DW$41

	.sect	".text"
	.align 4
	.global	_MMC_setCallBack

$C$DW$47	.dwtag  DW_TAG_subprogram, DW_AT_name("MMC_setCallBack")
	.dwattr $C$DW$47, DW_AT_low_pc(_MMC_setCallBack)
	.dwattr $C$DW$47, DW_AT_high_pc(0x00)
	.dwattr $C$DW$47, DW_AT_TI_symbol_name("_MMC_setCallBack")
	.dwattr $C$DW$47, DW_AT_external
	.dwattr $C$DW$47, DW_AT_type(*$C$DW$T$116)
	.dwattr $C$DW$47, DW_AT_TI_begin_file("../c5535_bsl_revc/ezdsp5535_v1/c55xx_csl/src/csl_mmcsd.c")
	.dwattr $C$DW$47, DW_AT_TI_begin_line(0x230)
	.dwattr $C$DW$47, DW_AT_TI_begin_column(0x0c)
	.dwattr $C$DW$47, DW_AT_TI_max_frame_size(0x06)
	.dwpsn	file "../c5535_bsl_revc/ezdsp5535_v1/c55xx_csl/src/csl_mmcsd.c",line 562,column 1,is_stmt,address _MMC_setCallBack

	.dwfde $C$DW$CIE, _MMC_setCallBack
$C$DW$48	.dwtag  DW_TAG_formal_parameter, DW_AT_name("hMmcsd")
	.dwattr $C$DW$48, DW_AT_TI_symbol_name("_hMmcsd")
	.dwattr $C$DW$48, DW_AT_type(*$C$DW$T$114)
	.dwattr $C$DW$48, DW_AT_location[DW_OP_reg17]
$C$DW$49	.dwtag  DW_TAG_formal_parameter, DW_AT_name("pFunction")
	.dwattr $C$DW$49, DW_AT_TI_symbol_name("_pFunction")
	.dwattr $C$DW$49, DW_AT_type(*$C$DW$T$84)
	.dwattr $C$DW$49, DW_AT_location[DW_OP_reg19]
;*******************************************************************************
;* FUNCTION NAME: MMC_setCallBack                                              *
;*                                                                             *
;*   Function Uses Regs : AC0,AC0,AC1,AC1,T0,AR0,XAR0,AR1,XAR1,AR2,XAR2,AR3,   *
;*                        XAR3,SP,TC1,M40,SATA,SATD,RDM,FRCT,SMUL              *
;*   Stack Frame        : Compact (No Frame Pointer, w/ debug)                 *
;*   Total Frame Size   : 6 words                                              *
;*                        (2 return address/alignment)                         *
;*                        (4 local values)                                     *
;*   Min System Stack   : 1 word                                               *
;*******************************************************************************
_MMC_setCallBack:
	.dwcfi	cfa_offset, 1
	.dwcfi	save_reg_to_mem, 91, -1
        AADD #-5, SP
	.dwcfi	cfa_offset, 6
$C$DW$50	.dwtag  DW_TAG_variable, DW_AT_name("hMmcsd")
	.dwattr $C$DW$50, DW_AT_TI_symbol_name("_hMmcsd")
	.dwattr $C$DW$50, DW_AT_type(*$C$DW$T$114)
	.dwattr $C$DW$50, DW_AT_location[DW_OP_bregx 0x24 0]
$C$DW$51	.dwtag  DW_TAG_variable, DW_AT_name("pFunction")
	.dwattr $C$DW$51, DW_AT_TI_symbol_name("_pFunction")
	.dwattr $C$DW$51, DW_AT_type(*$C$DW$T$84)
	.dwattr $C$DW$51, DW_AT_location[DW_OP_bregx 0x24 2]
        MOV XAR1, dbl(*SP(#2))
        MOV XAR0, dbl(*SP(#0))
	.dwpsn	file "../c5535_bsl_revc/ezdsp5535_v1/c55xx_csl/src/csl_mmcsd.c",line 563,column 5,is_stmt
        MOV dbl(*SP(#0)), XAR3

        MOV XAR3, AC0
||      MOV #0, AC1 ; |563| 

        CMPU AC1 == AC0, TC1 ; |563| 
        BCC $C$L21,TC1 ; |563| 
                                        ; branchcc occurs ; |563| 
        MOV dbl(*SP(#2)), XAR3
        MOV XAR3, AC0
        CMPU AC1 == AC0, TC1 ; |563| 
        BCC $C$L21,TC1 ; |563| 
                                        ; branchcc occurs ; |563| 
	.dwpsn	file "../c5535_bsl_revc/ezdsp5535_v1/c55xx_csl/src/csl_mmcsd.c",line 565,column 3,is_stmt
        MOV dbl(*SP(#0)), XAR3
        MOV dbl(*SP(#2)), XAR2
        MOV XAR2, dbl(*AR3(short(#6)))
	.dwpsn	file "../c5535_bsl_revc/ezdsp5535_v1/c55xx_csl/src/csl_mmcsd.c",line 566,column 3,is_stmt
        MOV #0, T0
        B $C$L23  ; |566| 
                                        ; branch occurs ; |566| 
$C$L21:    
	.dwpsn	file "../c5535_bsl_revc/ezdsp5535_v1/c55xx_csl/src/csl_mmcsd.c",line 570,column 9,is_stmt
        MOV dbl(*SP(#0)), XAR3
        MOV XAR3, AC0
        CMPU AC1 != AC0, TC1 ; |570| 
        BCC $C$L22,TC1 ; |570| 
                                        ; branchcc occurs ; |570| 
	.dwpsn	file "../c5535_bsl_revc/ezdsp5535_v1/c55xx_csl/src/csl_mmcsd.c",line 572,column 13,is_stmt
        MOV #-5, T0
        B $C$L23  ; |572| 
                                        ; branch occurs ; |572| 
$C$L22:    
	.dwpsn	file "../c5535_bsl_revc/ezdsp5535_v1/c55xx_csl/src/csl_mmcsd.c",line 576,column 13,is_stmt
        MOV #-6, T0
$C$L23:    
	.dwpsn	file "../c5535_bsl_revc/ezdsp5535_v1/c55xx_csl/src/csl_mmcsd.c",line 579,column 1,is_stmt
        AADD #5, SP
	.dwcfi	cfa_offset, 1
$C$DW$52	.dwtag  DW_TAG_TI_branch
	.dwattr $C$DW$52, DW_AT_low_pc(0x00)
	.dwattr $C$DW$52, DW_AT_TI_return
        RET
                                        ; return occurs
	.dwattr $C$DW$47, DW_AT_TI_end_file("../c5535_bsl_revc/ezdsp5535_v1/c55xx_csl/src/csl_mmcsd.c")
	.dwattr $C$DW$47, DW_AT_TI_end_line(0x243)
	.dwattr $C$DW$47, DW_AT_TI_end_column(0x01)
	.dwendentry
	.dwendtag $C$DW$47

	.sect	".text"
	.align 4
	.global	_MMC_getNumberOfCards

$C$DW$53	.dwtag  DW_TAG_subprogram, DW_AT_name("MMC_getNumberOfCards")
	.dwattr $C$DW$53, DW_AT_low_pc(_MMC_getNumberOfCards)
	.dwattr $C$DW$53, DW_AT_high_pc(0x00)
	.dwattr $C$DW$53, DW_AT_TI_symbol_name("_MMC_getNumberOfCards")
	.dwattr $C$DW$53, DW_AT_external
	.dwattr $C$DW$53, DW_AT_type(*$C$DW$T$116)
	.dwattr $C$DW$53, DW_AT_TI_begin_file("../c5535_bsl_revc/ezdsp5535_v1/c55xx_csl/src/csl_mmcsd.c")
	.dwattr $C$DW$53, DW_AT_TI_begin_line(0x270)
	.dwattr $C$DW$53, DW_AT_TI_begin_column(0x0c)
	.dwattr $C$DW$53, DW_AT_TI_max_frame_size(0x06)
	.dwpsn	file "../c5535_bsl_revc/ezdsp5535_v1/c55xx_csl/src/csl_mmcsd.c",line 626,column 1,is_stmt,address _MMC_getNumberOfCards

	.dwfde $C$DW$CIE, _MMC_getNumberOfCards
$C$DW$54	.dwtag  DW_TAG_formal_parameter, DW_AT_name("hMmcsd")
	.dwattr $C$DW$54, DW_AT_TI_symbol_name("_hMmcsd")
	.dwattr $C$DW$54, DW_AT_type(*$C$DW$T$114)
	.dwattr $C$DW$54, DW_AT_location[DW_OP_reg17]
$C$DW$55	.dwtag  DW_TAG_formal_parameter, DW_AT_name("pActiveNoCard")
	.dwattr $C$DW$55, DW_AT_TI_symbol_name("_pActiveNoCard")
	.dwattr $C$DW$55, DW_AT_type(*$C$DW$T$141)
	.dwattr $C$DW$55, DW_AT_location[DW_OP_reg19]
;*******************************************************************************
;* FUNCTION NAME: MMC_getNumberOfCards                                         *
;*                                                                             *
;*   Function Uses Regs : AC0,AC0,AC1,AC1,T0,AR0,XAR0,AR1,XAR1,AR3,XAR3,SP,TC1,*
;*                        M40,SATA,SATD,RDM,FRCT,SMUL                          *
;*   Stack Frame        : Compact (No Frame Pointer, w/ debug)                 *
;*   Total Frame Size   : 6 words                                              *
;*                        (2 return address/alignment)                         *
;*                        (4 local values)                                     *
;*   Min System Stack   : 1 word                                               *
;*******************************************************************************
_MMC_getNumberOfCards:
	.dwcfi	cfa_offset, 1
	.dwcfi	save_reg_to_mem, 91, -1
        AADD #-5, SP
	.dwcfi	cfa_offset, 6
$C$DW$56	.dwtag  DW_TAG_variable, DW_AT_name("hMmcsd")
	.dwattr $C$DW$56, DW_AT_TI_symbol_name("_hMmcsd")
	.dwattr $C$DW$56, DW_AT_type(*$C$DW$T$114)
	.dwattr $C$DW$56, DW_AT_location[DW_OP_bregx 0x24 0]
$C$DW$57	.dwtag  DW_TAG_variable, DW_AT_name("pActiveNoCard")
	.dwattr $C$DW$57, DW_AT_TI_symbol_name("_pActiveNoCard")
	.dwattr $C$DW$57, DW_AT_type(*$C$DW$T$141)
	.dwattr $C$DW$57, DW_AT_location[DW_OP_bregx 0x24 2]
        MOV XAR1, dbl(*SP(#2))
        MOV XAR0, dbl(*SP(#0))
	.dwpsn	file "../c5535_bsl_revc/ezdsp5535_v1/c55xx_csl/src/csl_mmcsd.c",line 627,column 5,is_stmt
        MOV dbl(*SP(#0)), XAR3

        MOV XAR3, AC0
||      MOV #0, AC1 ; |627| 

        CMPU AC1 != AC0, TC1 ; |627| 
        BCC $C$L24,TC1 ; |627| 
                                        ; branchcc occurs ; |627| 
	.dwpsn	file "../c5535_bsl_revc/ezdsp5535_v1/c55xx_csl/src/csl_mmcsd.c",line 629,column 3,is_stmt
        MOV #-5, T0
        B $C$L26  ; |629| 
                                        ; branch occurs ; |629| 
$C$L24:    
	.dwpsn	file "../c5535_bsl_revc/ezdsp5535_v1/c55xx_csl/src/csl_mmcsd.c",line 633,column 9,is_stmt
        MOV dbl(*SP(#2)), XAR3
        MOV XAR3, AC0
        CMPU AC1 != AC0, TC1 ; |633| 
        BCC $C$L25,TC1 ; |633| 
                                        ; branchcc occurs ; |633| 
	.dwpsn	file "../c5535_bsl_revc/ezdsp5535_v1/c55xx_csl/src/csl_mmcsd.c",line 635,column 13,is_stmt
        MOV #-6, T0
        B $C$L26  ; |635| 
                                        ; branch occurs ; |635| 
$C$L25:    
	.dwpsn	file "../c5535_bsl_revc/ezdsp5535_v1/c55xx_csl/src/csl_mmcsd.c",line 639,column 13,is_stmt
        MOV dbl(*SP(#0)), XAR3
        MOV *AR3(short(#4)), AR1 ; |639| 
        MOV dbl(*SP(#2)), XAR3
        MOV AR1, *AR3 ; |639| 
	.dwpsn	file "../c5535_bsl_revc/ezdsp5535_v1/c55xx_csl/src/csl_mmcsd.c",line 640,column 13,is_stmt
        MOV #0, T0
$C$L26:    
	.dwpsn	file "../c5535_bsl_revc/ezdsp5535_v1/c55xx_csl/src/csl_mmcsd.c",line 643,column 1,is_stmt
        AADD #5, SP
	.dwcfi	cfa_offset, 1
$C$DW$58	.dwtag  DW_TAG_TI_branch
	.dwattr $C$DW$58, DW_AT_low_pc(0x00)
	.dwattr $C$DW$58, DW_AT_TI_return
        RET
                                        ; return occurs
	.dwattr $C$DW$53, DW_AT_TI_end_file("../c5535_bsl_revc/ezdsp5535_v1/c55xx_csl/src/csl_mmcsd.c")
	.dwattr $C$DW$53, DW_AT_TI_end_line(0x283)
	.dwattr $C$DW$53, DW_AT_TI_end_column(0x01)
	.dwendentry
	.dwendtag $C$DW$53

	.sect	".text"
	.align 4
	.global	_MMC_clearResponse

$C$DW$59	.dwtag  DW_TAG_subprogram, DW_AT_name("MMC_clearResponse")
	.dwattr $C$DW$59, DW_AT_low_pc(_MMC_clearResponse)
	.dwattr $C$DW$59, DW_AT_high_pc(0x00)
	.dwattr $C$DW$59, DW_AT_TI_symbol_name("_MMC_clearResponse")
	.dwattr $C$DW$59, DW_AT_external
	.dwattr $C$DW$59, DW_AT_type(*$C$DW$T$116)
	.dwattr $C$DW$59, DW_AT_TI_begin_file("../c5535_bsl_revc/ezdsp5535_v1/c55xx_csl/src/csl_mmcsd.c")
	.dwattr $C$DW$59, DW_AT_TI_begin_line(0x2ad)
	.dwattr $C$DW$59, DW_AT_TI_begin_column(0x0c)
	.dwattr $C$DW$59, DW_AT_TI_max_frame_size(0x04)
	.dwpsn	file "../c5535_bsl_revc/ezdsp5535_v1/c55xx_csl/src/csl_mmcsd.c",line 686,column 1,is_stmt,address _MMC_clearResponse

	.dwfde $C$DW$CIE, _MMC_clearResponse
$C$DW$60	.dwtag  DW_TAG_formal_parameter, DW_AT_name("hMmcsd")
	.dwattr $C$DW$60, DW_AT_TI_symbol_name("_hMmcsd")
	.dwattr $C$DW$60, DW_AT_type(*$C$DW$T$114)
	.dwattr $C$DW$60, DW_AT_location[DW_OP_reg17]
;*******************************************************************************
;* FUNCTION NAME: MMC_clearResponse                                            *
;*                                                                             *
;*   Function Uses Regs : AC0,AC0,AC1,AC1,T0,AR0,XAR0,AR1,AR3,XAR3,SP,TC1,M40, *
;*                        SATA,SATD,RDM,FRCT,SMUL                              *
;*   Stack Frame        : Compact (No Frame Pointer, w/ debug)                 *
;*   Total Frame Size   : 4 words                                              *
;*                        (2 return address/alignment)                         *
;*                        (2 local values)                                     *
;*   Min System Stack   : 1 word                                               *
;*******************************************************************************
_MMC_clearResponse:
	.dwcfi	cfa_offset, 1
	.dwcfi	save_reg_to_mem, 91, -1
        AADD #-3, SP
	.dwcfi	cfa_offset, 4
$C$DW$61	.dwtag  DW_TAG_variable, DW_AT_name("hMmcsd")
	.dwattr $C$DW$61, DW_AT_TI_symbol_name("_hMmcsd")
	.dwattr $C$DW$61, DW_AT_type(*$C$DW$T$114)
	.dwattr $C$DW$61, DW_AT_location[DW_OP_bregx 0x24 0]
        MOV XAR0, dbl(*SP(#0))
	.dwpsn	file "../c5535_bsl_revc/ezdsp5535_v1/c55xx_csl/src/csl_mmcsd.c",line 687,column 5,is_stmt
        MOV dbl(*SP(#0)), XAR3

        MOV XAR3, AC0
||      MOV #0, AC1 ; |687| 

        CMPU AC1 != AC0, TC1 ; |687| 
        BCC $C$L27,TC1 ; |687| 
                                        ; branchcc occurs ; |687| 
	.dwpsn	file "../c5535_bsl_revc/ezdsp5535_v1/c55xx_csl/src/csl_mmcsd.c",line 689,column 9,is_stmt
        MOV #-5, T0
        B $C$L28  ; |689| 
                                        ; branch occurs ; |689| 
$C$L27:    
	.dwpsn	file "../c5535_bsl_revc/ezdsp5535_v1/c55xx_csl/src/csl_mmcsd.c",line 693,column 9,is_stmt
        MOV #56, T0 ; |693| 
        MOV *AR3, AR3 ; |693| 
        MOV port(*AR3(T0)), AR1 ; |693| 
        MOV dbl(*SP(#0)), XAR3
        MOV *AR3, AR3 ; |693| 
        MOV #0, port(*AR3(T0)) ; |693| 
	.dwpsn	file "../c5535_bsl_revc/ezdsp5535_v1/c55xx_csl/src/csl_mmcsd.c",line 695,column 9,is_stmt
        MOV dbl(*SP(#0)), XAR3
        MOV #57, T0 ; |695| 
        MOV *AR3, AR3 ; |695| 
        MOV port(*AR3(T0)), AR1 ; |695| 
        MOV dbl(*SP(#0)), XAR3
        MOV *AR3, AR3 ; |695| 
        MOV #0, port(*AR3(T0)) ; |695| 
	.dwpsn	file "../c5535_bsl_revc/ezdsp5535_v1/c55xx_csl/src/csl_mmcsd.c",line 697,column 9,is_stmt
        MOV dbl(*SP(#0)), XAR3
        MOV #60, T0 ; |697| 
        MOV *AR3, AR3 ; |697| 
        MOV port(*AR3(T0)), AR1 ; |697| 
        MOV dbl(*SP(#0)), XAR3
        MOV *AR3, AR3 ; |697| 
        MOV #0, port(*AR3(T0)) ; |697| 
	.dwpsn	file "../c5535_bsl_revc/ezdsp5535_v1/c55xx_csl/src/csl_mmcsd.c",line 699,column 9,is_stmt
        MOV dbl(*SP(#0)), XAR3
        MOV #61, T0 ; |699| 
        MOV *AR3, AR3 ; |699| 
        MOV port(*AR3(T0)), AR1 ; |699| 
        MOV dbl(*SP(#0)), XAR3
        MOV *AR3, AR3 ; |699| 
        MOV #0, port(*AR3(T0)) ; |699| 
	.dwpsn	file "../c5535_bsl_revc/ezdsp5535_v1/c55xx_csl/src/csl_mmcsd.c",line 701,column 9,is_stmt
        MOV dbl(*SP(#0)), XAR3
        MOV #64, T0 ; |701| 
        MOV *AR3, AR3 ; |701| 
        MOV port(*AR3(T0)), AR1 ; |701| 
        MOV dbl(*SP(#0)), XAR3
        MOV *AR3, AR3 ; |701| 
        MOV #0, port(*AR3(T0)) ; |701| 
	.dwpsn	file "../c5535_bsl_revc/ezdsp5535_v1/c55xx_csl/src/csl_mmcsd.c",line 703,column 9,is_stmt
        MOV dbl(*SP(#0)), XAR3
        MOV #65, T0 ; |703| 
        MOV *AR3, AR3 ; |703| 
        MOV port(*AR3(T0)), AR1 ; |703| 
        MOV dbl(*SP(#0)), XAR3
        MOV *AR3, AR3 ; |703| 
        MOV #0, port(*AR3(T0)) ; |703| 
	.dwpsn	file "../c5535_bsl_revc/ezdsp5535_v1/c55xx_csl/src/csl_mmcsd.c",line 705,column 9,is_stmt
        MOV dbl(*SP(#0)), XAR3
        MOV #68, T0 ; |705| 
        MOV *AR3, AR3 ; |705| 
        MOV port(*AR3(T0)), AR1 ; |705| 
        MOV dbl(*SP(#0)), XAR3
        MOV *AR3, AR3 ; |705| 
        MOV #0, port(*AR3(T0)) ; |705| 
	.dwpsn	file "../c5535_bsl_revc/ezdsp5535_v1/c55xx_csl/src/csl_mmcsd.c",line 707,column 9,is_stmt
        MOV dbl(*SP(#0)), XAR3
        MOV #69, T0 ; |707| 
        MOV *AR3, AR3 ; |707| 
        MOV port(*AR3(T0)), AR1 ; |707| 
        MOV dbl(*SP(#0)), XAR3
        MOV *AR3, AR3 ; |707| 
        MOV #0, port(*AR3(T0)) ; |707| 
	.dwpsn	file "../c5535_bsl_revc/ezdsp5535_v1/c55xx_csl/src/csl_mmcsd.c",line 711,column 9,is_stmt
        MOV dbl(*SP(#0)), XAR3
        MOV #80, T0 ; |711| 
        MOV *AR3, AR3 ; |711| 
        MOV port(*AR3(T0)), AR1 ; |711| 
        MOV dbl(*SP(#0)), XAR3
        MOV *AR3, AR3 ; |711| 
        AND #0xffc0, AR1, AC0 ; |711| 
        MOV AC0, port(*AR3(T0)) ; |711| 
	.dwpsn	file "../c5535_bsl_revc/ezdsp5535_v1/c55xx_csl/src/csl_mmcsd.c",line 713,column 9,is_stmt
        MOV #0, T0
$C$L28:    
	.dwpsn	file "../c5535_bsl_revc/ezdsp5535_v1/c55xx_csl/src/csl_mmcsd.c",line 715,column 1,is_stmt
        AADD #3, SP
	.dwcfi	cfa_offset, 1
$C$DW$62	.dwtag  DW_TAG_TI_branch
	.dwattr $C$DW$62, DW_AT_low_pc(0x00)
	.dwattr $C$DW$62, DW_AT_TI_return
        RET
                                        ; return occurs
	.dwattr $C$DW$59, DW_AT_TI_end_file("../c5535_bsl_revc/ezdsp5535_v1/c55xx_csl/src/csl_mmcsd.c")
	.dwattr $C$DW$59, DW_AT_TI_end_line(0x2cb)
	.dwattr $C$DW$59, DW_AT_TI_end_column(0x01)
	.dwendentry
	.dwendtag $C$DW$59

	.sect	".text"
	.align 4
	.global	_MMC_ierEnable

$C$DW$63	.dwtag  DW_TAG_subprogram, DW_AT_name("MMC_ierEnable")
	.dwattr $C$DW$63, DW_AT_low_pc(_MMC_ierEnable)
	.dwattr $C$DW$63, DW_AT_high_pc(0x00)
	.dwattr $C$DW$63, DW_AT_TI_symbol_name("_MMC_ierEnable")
	.dwattr $C$DW$63, DW_AT_external
	.dwattr $C$DW$63, DW_AT_type(*$C$DW$T$116)
	.dwattr $C$DW$63, DW_AT_TI_begin_file("../c5535_bsl_revc/ezdsp5535_v1/c55xx_csl/src/csl_mmcsd.c")
	.dwattr $C$DW$63, DW_AT_TI_begin_line(0x2f7)
	.dwattr $C$DW$63, DW_AT_TI_begin_column(0x0c)
	.dwattr $C$DW$63, DW_AT_TI_max_frame_size(0x04)
	.dwpsn	file "../c5535_bsl_revc/ezdsp5535_v1/c55xx_csl/src/csl_mmcsd.c",line 761,column 1,is_stmt,address _MMC_ierEnable

	.dwfde $C$DW$CIE, _MMC_ierEnable
$C$DW$64	.dwtag  DW_TAG_formal_parameter, DW_AT_name("hMmcsd")
	.dwattr $C$DW$64, DW_AT_TI_symbol_name("_hMmcsd")
	.dwattr $C$DW$64, DW_AT_type(*$C$DW$T$114)
	.dwattr $C$DW$64, DW_AT_location[DW_OP_reg17]
;*******************************************************************************
;* FUNCTION NAME: MMC_ierEnable                                                *
;*                                                                             *
;*   Function Uses Regs : AC0,AC0,AC1,AC1,T0,AR0,XAR0,AR1,AR3,XAR3,SP,TC1,M40, *
;*                        SATA,SATD,RDM,FRCT,SMUL                              *
;*   Stack Frame        : Compact (No Frame Pointer, w/ debug)                 *
;*   Total Frame Size   : 4 words                                              *
;*                        (2 return address/alignment)                         *
;*                        (2 local values)                                     *
;*   Min System Stack   : 1 word                                               *
;*******************************************************************************
_MMC_ierEnable:
	.dwcfi	cfa_offset, 1
	.dwcfi	save_reg_to_mem, 91, -1
        AADD #-3, SP
	.dwcfi	cfa_offset, 4
$C$DW$65	.dwtag  DW_TAG_variable, DW_AT_name("hMmcsd")
	.dwattr $C$DW$65, DW_AT_TI_symbol_name("_hMmcsd")
	.dwattr $C$DW$65, DW_AT_type(*$C$DW$T$114)
	.dwattr $C$DW$65, DW_AT_location[DW_OP_bregx 0x24 0]
        MOV XAR0, dbl(*SP(#0))
	.dwpsn	file "../c5535_bsl_revc/ezdsp5535_v1/c55xx_csl/src/csl_mmcsd.c",line 762,column 5,is_stmt
        MOV dbl(*SP(#0)), XAR3

        MOV XAR3, AC0
||      MOV #0, AC1 ; |762| 

        CMPU AC1 != AC0, TC1 ; |762| 
        BCC $C$L29,TC1 ; |762| 
                                        ; branchcc occurs ; |762| 
	.dwpsn	file "../c5535_bsl_revc/ezdsp5535_v1/c55xx_csl/src/csl_mmcsd.c",line 764,column 9,is_stmt
        MOV #-5, T0
        B $C$L32  ; |764| 
                                        ; branch occurs ; |764| 
$C$L29:    
	.dwpsn	file "../c5535_bsl_revc/ezdsp5535_v1/c55xx_csl/src/csl_mmcsd.c",line 768,column 9,is_stmt
        CMP *AR3 == #14848, TC1 ; |768| 
        BCC $C$L30,!TC1 ; |768| 
                                        ; branchcc occurs ; |768| 
	.dwpsn	file "../c5535_bsl_revc/ezdsp5535_v1/c55xx_csl/src/csl_mmcsd.c",line 770,column 4,is_stmt
        MOV *(#0), AR1 ; |770| 
        BCLR @#5, AR1 ; |770| 
        BSET @#5, AR1 ; |770| 
        MOV AR1, *(#0) ; |770| 
	.dwpsn	file "../c5535_bsl_revc/ezdsp5535_v1/c55xx_csl/src/csl_mmcsd.c",line 771,column 3,is_stmt
        B $C$L31  ; |771| 
                                        ; branch occurs ; |771| 
$C$L30:    
	.dwpsn	file "../c5535_bsl_revc/ezdsp5535_v1/c55xx_csl/src/csl_mmcsd.c",line 773,column 4,is_stmt
        MOV *(#0), AR1 ; |773| 
        BCLR @#9, AR1 ; |773| 
        BSET @#9, AR1 ; |773| 
        MOV AR1, *(#0) ; |773| 
$C$L31:    
	.dwpsn	file "../c5535_bsl_revc/ezdsp5535_v1/c55xx_csl/src/csl_mmcsd.c",line 775,column 9,is_stmt
        MOV #0, T0
$C$L32:    
	.dwpsn	file "../c5535_bsl_revc/ezdsp5535_v1/c55xx_csl/src/csl_mmcsd.c",line 777,column 1,is_stmt
        AADD #3, SP
	.dwcfi	cfa_offset, 1
$C$DW$66	.dwtag  DW_TAG_TI_branch
	.dwattr $C$DW$66, DW_AT_low_pc(0x00)
	.dwattr $C$DW$66, DW_AT_TI_return
        RET
                                        ; return occurs
	.dwattr $C$DW$63, DW_AT_TI_end_file("../c5535_bsl_revc/ezdsp5535_v1/c55xx_csl/src/csl_mmcsd.c")
	.dwattr $C$DW$63, DW_AT_TI_end_line(0x309)
	.dwattr $C$DW$63, DW_AT_TI_end_column(0x01)
	.dwendentry
	.dwendtag $C$DW$63

	.sect	".text"
	.align 4
	.global	_MMC_ierDisable

$C$DW$67	.dwtag  DW_TAG_subprogram, DW_AT_name("MMC_ierDisable")
	.dwattr $C$DW$67, DW_AT_low_pc(_MMC_ierDisable)
	.dwattr $C$DW$67, DW_AT_high_pc(0x00)
	.dwattr $C$DW$67, DW_AT_TI_symbol_name("_MMC_ierDisable")
	.dwattr $C$DW$67, DW_AT_external
	.dwattr $C$DW$67, DW_AT_type(*$C$DW$T$116)
	.dwattr $C$DW$67, DW_AT_TI_begin_file("../c5535_bsl_revc/ezdsp5535_v1/c55xx_csl/src/csl_mmcsd.c")
	.dwattr $C$DW$67, DW_AT_TI_begin_line(0x335)
	.dwattr $C$DW$67, DW_AT_TI_begin_column(0x0c)
	.dwattr $C$DW$67, DW_AT_TI_max_frame_size(0x04)
	.dwpsn	file "../c5535_bsl_revc/ezdsp5535_v1/c55xx_csl/src/csl_mmcsd.c",line 823,column 1,is_stmt,address _MMC_ierDisable

	.dwfde $C$DW$CIE, _MMC_ierDisable
$C$DW$68	.dwtag  DW_TAG_formal_parameter, DW_AT_name("hMmcsd")
	.dwattr $C$DW$68, DW_AT_TI_symbol_name("_hMmcsd")
	.dwattr $C$DW$68, DW_AT_type(*$C$DW$T$114)
	.dwattr $C$DW$68, DW_AT_location[DW_OP_reg17]
;*******************************************************************************
;* FUNCTION NAME: MMC_ierDisable                                               *
;*                                                                             *
;*   Function Uses Regs : AC0,AC0,AC1,AC1,T0,AR0,XAR0,AR3,XAR3,SP,TC1,M40,SATA,*
;*                        SATD,RDM,FRCT,SMUL                                   *
;*   Stack Frame        : Compact (No Frame Pointer, w/ debug)                 *
;*   Total Frame Size   : 4 words                                              *
;*                        (2 return address/alignment)                         *
;*                        (2 local values)                                     *
;*   Min System Stack   : 1 word                                               *
;*******************************************************************************
_MMC_ierDisable:
	.dwcfi	cfa_offset, 1
	.dwcfi	save_reg_to_mem, 91, -1
        AADD #-3, SP
	.dwcfi	cfa_offset, 4
$C$DW$69	.dwtag  DW_TAG_variable, DW_AT_name("hMmcsd")
	.dwattr $C$DW$69, DW_AT_TI_symbol_name("_hMmcsd")
	.dwattr $C$DW$69, DW_AT_type(*$C$DW$T$114)
	.dwattr $C$DW$69, DW_AT_location[DW_OP_bregx 0x24 0]
        MOV XAR0, dbl(*SP(#0))
	.dwpsn	file "../c5535_bsl_revc/ezdsp5535_v1/c55xx_csl/src/csl_mmcsd.c",line 824,column 5,is_stmt
        MOV dbl(*SP(#0)), XAR3

        MOV XAR3, AC0
||      MOV #0, AC1 ; |824| 

        CMPU AC1 != AC0, TC1 ; |824| 
        BCC $C$L33,TC1 ; |824| 
                                        ; branchcc occurs ; |824| 
	.dwpsn	file "../c5535_bsl_revc/ezdsp5535_v1/c55xx_csl/src/csl_mmcsd.c",line 826,column 9,is_stmt
        MOV #-5, T0
        B $C$L36  ; |826| 
                                        ; branch occurs ; |826| 
$C$L33:    
	.dwpsn	file "../c5535_bsl_revc/ezdsp5535_v1/c55xx_csl/src/csl_mmcsd.c",line 830,column 9,is_stmt
        CMP *AR3 == #14848, TC1 ; |830| 
        BCC $C$L34,!TC1 ; |830| 
                                        ; branchcc occurs ; |830| 
	.dwpsn	file "../c5535_bsl_revc/ezdsp5535_v1/c55xx_csl/src/csl_mmcsd.c",line 832,column 4,is_stmt
        AND #0xffdf, *(#0) ; |832| 
	.dwpsn	file "../c5535_bsl_revc/ezdsp5535_v1/c55xx_csl/src/csl_mmcsd.c",line 833,column 3,is_stmt
        B $C$L35  ; |833| 
                                        ; branch occurs ; |833| 
$C$L34:    
	.dwpsn	file "../c5535_bsl_revc/ezdsp5535_v1/c55xx_csl/src/csl_mmcsd.c",line 835,column 4,is_stmt
        AND #0xfdff, *(#0) ; |835| 
$C$L35:    
	.dwpsn	file "../c5535_bsl_revc/ezdsp5535_v1/c55xx_csl/src/csl_mmcsd.c",line 837,column 9,is_stmt
        MOV #0, T0
$C$L36:    
	.dwpsn	file "../c5535_bsl_revc/ezdsp5535_v1/c55xx_csl/src/csl_mmcsd.c",line 839,column 1,is_stmt
        AADD #3, SP
	.dwcfi	cfa_offset, 1
$C$DW$70	.dwtag  DW_TAG_TI_branch
	.dwattr $C$DW$70, DW_AT_low_pc(0x00)
	.dwattr $C$DW$70, DW_AT_TI_return
        RET
                                        ; return occurs
	.dwattr $C$DW$67, DW_AT_TI_end_file("../c5535_bsl_revc/ezdsp5535_v1/c55xx_csl/src/csl_mmcsd.c")
	.dwattr $C$DW$67, DW_AT_TI_end_line(0x347)
	.dwattr $C$DW$67, DW_AT_TI_end_column(0x01)
	.dwendentry
	.dwendtag $C$DW$67

	.sect	".text"
	.align 4
	.global	_MMC_intEnable

$C$DW$71	.dwtag  DW_TAG_subprogram, DW_AT_name("MMC_intEnable")
	.dwattr $C$DW$71, DW_AT_low_pc(_MMC_intEnable)
	.dwattr $C$DW$71, DW_AT_high_pc(0x00)
	.dwattr $C$DW$71, DW_AT_TI_symbol_name("_MMC_intEnable")
	.dwattr $C$DW$71, DW_AT_external
	.dwattr $C$DW$71, DW_AT_type(*$C$DW$T$116)
	.dwattr $C$DW$71, DW_AT_TI_begin_file("../c5535_bsl_revc/ezdsp5535_v1/c55xx_csl/src/csl_mmcsd.c")
	.dwattr $C$DW$71, DW_AT_TI_begin_line(0x37e)
	.dwattr $C$DW$71, DW_AT_TI_begin_column(0x0c)
	.dwattr $C$DW$71, DW_AT_TI_max_frame_size(0x04)
	.dwpsn	file "../c5535_bsl_revc/ezdsp5535_v1/c55xx_csl/src/csl_mmcsd.c",line 896,column 1,is_stmt,address _MMC_intEnable

	.dwfde $C$DW$CIE, _MMC_intEnable
$C$DW$72	.dwtag  DW_TAG_formal_parameter, DW_AT_name("hMmcsd")
	.dwattr $C$DW$72, DW_AT_TI_symbol_name("_hMmcsd")
	.dwattr $C$DW$72, DW_AT_type(*$C$DW$T$114)
	.dwattr $C$DW$72, DW_AT_location[DW_OP_reg17]
$C$DW$73	.dwtag  DW_TAG_formal_parameter, DW_AT_name("maskValue")
	.dwattr $C$DW$73, DW_AT_TI_symbol_name("_maskValue")
	.dwattr $C$DW$73, DW_AT_type(*$C$DW$T$19)
	.dwattr $C$DW$73, DW_AT_location[DW_OP_reg12]
;*******************************************************************************
;* FUNCTION NAME: MMC_intEnable                                                *
;*                                                                             *
;*   Function Uses Regs : AC0,AC0,AC1,AC1,T0,AR0,XAR0,AR1,AR3,XAR3,SP,TC1,M40, *
;*                        SATA,SATD,RDM,FRCT,SMUL                              *
;*   Stack Frame        : Compact (No Frame Pointer, w/ debug)                 *
;*   Total Frame Size   : 4 words                                              *
;*                        (1 return address/alignment)                         *
;*                        (3 local values)                                     *
;*   Min System Stack   : 1 word                                               *
;*******************************************************************************
_MMC_intEnable:
	.dwcfi	cfa_offset, 1
	.dwcfi	save_reg_to_mem, 91, -1
        AADD #-3, SP
	.dwcfi	cfa_offset, 4
$C$DW$74	.dwtag  DW_TAG_variable, DW_AT_name("hMmcsd")
	.dwattr $C$DW$74, DW_AT_TI_symbol_name("_hMmcsd")
	.dwattr $C$DW$74, DW_AT_type(*$C$DW$T$114)
	.dwattr $C$DW$74, DW_AT_location[DW_OP_bregx 0x24 0]
$C$DW$75	.dwtag  DW_TAG_variable, DW_AT_name("maskValue")
	.dwattr $C$DW$75, DW_AT_TI_symbol_name("_maskValue")
	.dwattr $C$DW$75, DW_AT_type(*$C$DW$T$19)
	.dwattr $C$DW$75, DW_AT_location[DW_OP_bregx 0x24 2]
        MOV T0, *SP(#2) ; |896| 
        MOV XAR0, dbl(*SP(#0))
	.dwpsn	file "../c5535_bsl_revc/ezdsp5535_v1/c55xx_csl/src/csl_mmcsd.c",line 897,column 5,is_stmt
        MOV dbl(*SP(#0)), XAR3

        MOV XAR3, AC0
||      MOV #0, AC1 ; |897| 

        CMPU AC1 != AC0, TC1 ; |897| 
        BCC $C$L37,TC1 ; |897| 
                                        ; branchcc occurs ; |897| 
	.dwpsn	file "../c5535_bsl_revc/ezdsp5535_v1/c55xx_csl/src/csl_mmcsd.c",line 899,column 9,is_stmt
        MOV #-5, T0
        B $C$L38  ; |899| 
                                        ; branch occurs ; |899| 
$C$L37:    
	.dwpsn	file "../c5535_bsl_revc/ezdsp5535_v1/c55xx_csl/src/csl_mmcsd.c",line 903,column 9,is_stmt
        MOV *AR3, AR3 ; |903| 
        MOV #16, T0 ; |903| 
        MOV *SP(#2), AR1 ; |903| 
        MOV AR1, port(*AR3(T0)) ; |903| 
	.dwpsn	file "../c5535_bsl_revc/ezdsp5535_v1/c55xx_csl/src/csl_mmcsd.c",line 904,column 9,is_stmt
        MOV #0, T0
$C$L38:    
	.dwpsn	file "../c5535_bsl_revc/ezdsp5535_v1/c55xx_csl/src/csl_mmcsd.c",line 906,column 1,is_stmt
        AADD #3, SP
	.dwcfi	cfa_offset, 1
$C$DW$76	.dwtag  DW_TAG_TI_branch
	.dwattr $C$DW$76, DW_AT_low_pc(0x00)
	.dwattr $C$DW$76, DW_AT_TI_return
        RET
                                        ; return occurs
	.dwattr $C$DW$71, DW_AT_TI_end_file("../c5535_bsl_revc/ezdsp5535_v1/c55xx_csl/src/csl_mmcsd.c")
	.dwattr $C$DW$71, DW_AT_TI_end_line(0x38a)
	.dwattr $C$DW$71, DW_AT_TI_end_column(0x01)
	.dwendentry
	.dwendtag $C$DW$71

	.sect	".text"
	.align 4
	.global	_MMC_eventEnable

$C$DW$77	.dwtag  DW_TAG_subprogram, DW_AT_name("MMC_eventEnable")
	.dwattr $C$DW$77, DW_AT_low_pc(_MMC_eventEnable)
	.dwattr $C$DW$77, DW_AT_high_pc(0x00)
	.dwattr $C$DW$77, DW_AT_TI_symbol_name("_MMC_eventEnable")
	.dwattr $C$DW$77, DW_AT_external
	.dwattr $C$DW$77, DW_AT_type(*$C$DW$T$116)
	.dwattr $C$DW$77, DW_AT_TI_begin_file("../c5535_bsl_revc/ezdsp5535_v1/c55xx_csl/src/csl_mmcsd.c")
	.dwattr $C$DW$77, DW_AT_TI_begin_line(0x3bc)
	.dwattr $C$DW$77, DW_AT_TI_begin_column(0x0c)
	.dwattr $C$DW$77, DW_AT_TI_max_frame_size(0x06)
	.dwpsn	file "../c5535_bsl_revc/ezdsp5535_v1/c55xx_csl/src/csl_mmcsd.c",line 958,column 1,is_stmt,address _MMC_eventEnable

	.dwfde $C$DW$CIE, _MMC_eventEnable
$C$DW$78	.dwtag  DW_TAG_formal_parameter, DW_AT_name("hMmcsd")
	.dwattr $C$DW$78, DW_AT_TI_symbol_name("_hMmcsd")
	.dwattr $C$DW$78, DW_AT_type(*$C$DW$T$114)
	.dwattr $C$DW$78, DW_AT_location[DW_OP_reg17]
$C$DW$79	.dwtag  DW_TAG_formal_parameter, DW_AT_name("mmcsdEvent")
	.dwattr $C$DW$79, DW_AT_TI_symbol_name("_mmcsdEvent")
	.dwattr $C$DW$79, DW_AT_type(*$C$DW$T$110)
	.dwattr $C$DW$79, DW_AT_location[DW_OP_reg12]
;*******************************************************************************
;* FUNCTION NAME: MMC_eventEnable                                              *
;*                                                                             *
;*   Function Uses Regs : AC0,AC0,AC1,AC1,T0,AR0,XAR0,AR1,AR2,AR3,XAR3,SP,TC1, *
;*                        M40,SATA,SATD,RDM,FRCT,SMUL                          *
;*   Stack Frame        : Compact (No Frame Pointer, w/ debug)                 *
;*   Total Frame Size   : 6 words                                              *
;*                        (2 return address/alignment)                         *
;*                        (4 local values)                                     *
;*   Min System Stack   : 1 word                                               *
;*******************************************************************************
_MMC_eventEnable:
	.dwcfi	cfa_offset, 1
	.dwcfi	save_reg_to_mem, 91, -1
        AADD #-5, SP
	.dwcfi	cfa_offset, 6
$C$DW$80	.dwtag  DW_TAG_variable, DW_AT_name("hMmcsd")
	.dwattr $C$DW$80, DW_AT_TI_symbol_name("_hMmcsd")
	.dwattr $C$DW$80, DW_AT_type(*$C$DW$T$114)
	.dwattr $C$DW$80, DW_AT_location[DW_OP_bregx 0x24 0]
$C$DW$81	.dwtag  DW_TAG_variable, DW_AT_name("mmcsdEvent")
	.dwattr $C$DW$81, DW_AT_TI_symbol_name("_mmcsdEvent")
	.dwattr $C$DW$81, DW_AT_type(*$C$DW$T$110)
	.dwattr $C$DW$81, DW_AT_location[DW_OP_bregx 0x24 2]
$C$DW$82	.dwtag  DW_TAG_variable, DW_AT_name("status")
	.dwattr $C$DW$82, DW_AT_TI_symbol_name("_status")
	.dwattr $C$DW$82, DW_AT_type(*$C$DW$T$116)
	.dwattr $C$DW$82, DW_AT_location[DW_OP_bregx 0x24 3]
        MOV T0, *SP(#2) ; |958| 
        MOV XAR0, dbl(*SP(#0))
	.dwpsn	file "../c5535_bsl_revc/ezdsp5535_v1/c55xx_csl/src/csl_mmcsd.c",line 961,column 2,is_stmt
        MOV #0, *SP(#3) ; |961| 
	.dwpsn	file "../c5535_bsl_revc/ezdsp5535_v1/c55xx_csl/src/csl_mmcsd.c",line 963,column 5,is_stmt
        MOV dbl(*SP(#0)), XAR3

        MOV XAR3, AC0
||      MOV #0, AC1 ; |963| 

        CMPU AC1 != AC0, TC1 ; |963| 
        BCC $C$L52,TC1 ; |963| 
                                        ; branchcc occurs ; |963| 
	.dwpsn	file "../c5535_bsl_revc/ezdsp5535_v1/c55xx_csl/src/csl_mmcsd.c",line 965,column 9,is_stmt
        MOV #-5, *SP(#3) ; |965| 
	.dwpsn	file "../c5535_bsl_revc/ezdsp5535_v1/c55xx_csl/src/csl_mmcsd.c",line 966,column 5,is_stmt
        B $C$L56  ; |966| 
                                        ; branch occurs ; |966| 
$C$L39:    
	.dwpsn	file "../c5535_bsl_revc/ezdsp5535_v1/c55xx_csl/src/csl_mmcsd.c",line 972,column 5,is_stmt
        MOV #16, T0 ; |972| 
        MOV *AR3, AR3 ; |972| 
        MOV port(*AR3(T0)), AR1 ; |972| 
        MOV dbl(*SP(#0)), XAR3
        MOV *AR3, AR3 ; |972| 
        BCLR @#12, AR1 ; |972| 
        BSET @#12, AR1 ; |972| 
        MOV AR1, port(*AR3(T0)) ; |972| 
	.dwpsn	file "../c5535_bsl_revc/ezdsp5535_v1/c55xx_csl/src/csl_mmcsd.c",line 973,column 10,is_stmt
        B $C$L56  ; |973| 
                                        ; branch occurs ; |973| 
$C$L40:    
	.dwpsn	file "../c5535_bsl_revc/ezdsp5535_v1/c55xx_csl/src/csl_mmcsd.c",line 976,column 5,is_stmt
        MOV #16, T0 ; |976| 
        MOV *AR3, AR3 ; |976| 
        MOV port(*AR3(T0)), AR1 ; |976| 
        MOV dbl(*SP(#0)), XAR3
        MOV *AR3, AR3 ; |976| 
        BCLR @#11, AR1 ; |976| 
        BSET @#11, AR1 ; |976| 
        MOV AR1, port(*AR3(T0)) ; |976| 
	.dwpsn	file "../c5535_bsl_revc/ezdsp5535_v1/c55xx_csl/src/csl_mmcsd.c",line 977,column 10,is_stmt
        B $C$L56  ; |977| 
                                        ; branch occurs ; |977| 
$C$L41:    
	.dwpsn	file "../c5535_bsl_revc/ezdsp5535_v1/c55xx_csl/src/csl_mmcsd.c",line 980,column 5,is_stmt
        MOV #16, T0 ; |980| 
        MOV *AR3, AR3 ; |980| 
        MOV port(*AR3(T0)), AR1 ; |980| 
        MOV dbl(*SP(#0)), XAR3
        MOV *AR3, AR3 ; |980| 
        BCLR @#10, AR1 ; |980| 
        BSET @#10, AR1 ; |980| 
        MOV AR1, port(*AR3(T0)) ; |980| 
	.dwpsn	file "../c5535_bsl_revc/ezdsp5535_v1/c55xx_csl/src/csl_mmcsd.c",line 981,column 10,is_stmt
        B $C$L56  ; |981| 
                                        ; branch occurs ; |981| 
$C$L42:    
	.dwpsn	file "../c5535_bsl_revc/ezdsp5535_v1/c55xx_csl/src/csl_mmcsd.c",line 984,column 5,is_stmt
        MOV #16, T0 ; |984| 
        MOV *AR3, AR3 ; |984| 
        MOV port(*AR3(T0)), AR1 ; |984| 
        MOV dbl(*SP(#0)), XAR3
        MOV *AR3, AR3 ; |984| 
        BCLR @#9, AR1 ; |984| 
        BSET @#9, AR1 ; |984| 
        MOV AR1, port(*AR3(T0)) ; |984| 
	.dwpsn	file "../c5535_bsl_revc/ezdsp5535_v1/c55xx_csl/src/csl_mmcsd.c",line 985,column 10,is_stmt
        B $C$L56  ; |985| 
                                        ; branch occurs ; |985| 
$C$L43:    
	.dwpsn	file "../c5535_bsl_revc/ezdsp5535_v1/c55xx_csl/src/csl_mmcsd.c",line 988,column 5,is_stmt
        MOV #16, T0 ; |988| 
        MOV *AR3, AR3 ; |988| 
        MOV port(*AR3(T0)), AR1 ; |988| 
        MOV dbl(*SP(#0)), XAR3
        MOV *AR3, AR3 ; |988| 
        BCLR @#7, AR1 ; |988| 
        BSET @#7, AR1 ; |988| 
        MOV AR1, port(*AR3(T0)) ; |988| 
	.dwpsn	file "../c5535_bsl_revc/ezdsp5535_v1/c55xx_csl/src/csl_mmcsd.c",line 989,column 10,is_stmt
        B $C$L56  ; |989| 
                                        ; branch occurs ; |989| 
$C$L44:    
	.dwpsn	file "../c5535_bsl_revc/ezdsp5535_v1/c55xx_csl/src/csl_mmcsd.c",line 992,column 5,is_stmt
        MOV #16, T0 ; |992| 
        MOV *AR3, AR3 ; |992| 
        MOV port(*AR3(T0)), AR1 ; |992| 
        MOV dbl(*SP(#0)), XAR3
        MOV *AR3, AR3 ; |992| 
        BCLR @#6, AR1 ; |992| 
        BSET @#6, AR1 ; |992| 
        MOV AR1, port(*AR3(T0)) ; |992| 
	.dwpsn	file "../c5535_bsl_revc/ezdsp5535_v1/c55xx_csl/src/csl_mmcsd.c",line 993,column 10,is_stmt
        B $C$L56  ; |993| 
                                        ; branch occurs ; |993| 
$C$L45:    
	.dwpsn	file "../c5535_bsl_revc/ezdsp5535_v1/c55xx_csl/src/csl_mmcsd.c",line 996,column 5,is_stmt
        MOV #16, T0 ; |996| 
        MOV *AR3, AR3 ; |996| 
        MOV port(*AR3(T0)), AR1 ; |996| 
        MOV dbl(*SP(#0)), XAR3
        MOV *AR3, AR3 ; |996| 
        BCLR @#5, AR1 ; |996| 
        BSET @#5, AR1 ; |996| 
        MOV AR1, port(*AR3(T0)) ; |996| 
	.dwpsn	file "../c5535_bsl_revc/ezdsp5535_v1/c55xx_csl/src/csl_mmcsd.c",line 997,column 10,is_stmt
        B $C$L56  ; |997| 
                                        ; branch occurs ; |997| 
$C$L46:    
	.dwpsn	file "../c5535_bsl_revc/ezdsp5535_v1/c55xx_csl/src/csl_mmcsd.c",line 1000,column 5,is_stmt
        MOV #16, T0 ; |1000| 
        MOV *AR3, AR3 ; |1000| 
        MOV port(*AR3(T0)), AR1 ; |1000| 
        MOV dbl(*SP(#0)), XAR3
        MOV *AR3, AR3 ; |1000| 
        BCLR @#4, AR1 ; |1000| 
        BSET @#4, AR1 ; |1000| 
        MOV AR1, port(*AR3(T0)) ; |1000| 
	.dwpsn	file "../c5535_bsl_revc/ezdsp5535_v1/c55xx_csl/src/csl_mmcsd.c",line 1001,column 10,is_stmt
        B $C$L56  ; |1001| 
                                        ; branch occurs ; |1001| 
$C$L47:    
	.dwpsn	file "../c5535_bsl_revc/ezdsp5535_v1/c55xx_csl/src/csl_mmcsd.c",line 1004,column 5,is_stmt
        MOV #16, T0 ; |1004| 
        MOV *AR3, AR3 ; |1004| 
        MOV port(*AR3(T0)), AR1 ; |1004| 
        MOV dbl(*SP(#0)), XAR3
        MOV *AR3, AR3 ; |1004| 
        BCLR @#3, AR1 ; |1004| 
        BSET @#3, AR1 ; |1004| 
        MOV AR1, port(*AR3(T0)) ; |1004| 
	.dwpsn	file "../c5535_bsl_revc/ezdsp5535_v1/c55xx_csl/src/csl_mmcsd.c",line 1005,column 10,is_stmt
        B $C$L56  ; |1005| 
                                        ; branch occurs ; |1005| 
$C$L48:    
	.dwpsn	file "../c5535_bsl_revc/ezdsp5535_v1/c55xx_csl/src/csl_mmcsd.c",line 1008,column 5,is_stmt
        MOV #16, T0 ; |1008| 
        MOV *AR3, AR3 ; |1008| 
        MOV port(*AR3(T0)), AR1 ; |1008| 
        MOV dbl(*SP(#0)), XAR3
        MOV *AR3, AR3 ; |1008| 
        BCLR @#2, AR1 ; |1008| 
        BSET @#2, AR1 ; |1008| 
        MOV AR1, port(*AR3(T0)) ; |1008| 
	.dwpsn	file "../c5535_bsl_revc/ezdsp5535_v1/c55xx_csl/src/csl_mmcsd.c",line 1009,column 10,is_stmt
        B $C$L56  ; |1009| 
                                        ; branch occurs ; |1009| 
$C$L49:    
	.dwpsn	file "../c5535_bsl_revc/ezdsp5535_v1/c55xx_csl/src/csl_mmcsd.c",line 1012,column 5,is_stmt
        MOV #16, T0 ; |1012| 
        MOV *AR3, AR3 ; |1012| 
        MOV port(*AR3(T0)), AR1 ; |1012| 
        MOV dbl(*SP(#0)), XAR3
        MOV *AR3, AR3 ; |1012| 
        BCLR @#1, AR1 ; |1012| 
        BSET @#1, AR1 ; |1012| 
        MOV AR1, port(*AR3(T0)) ; |1012| 
	.dwpsn	file "../c5535_bsl_revc/ezdsp5535_v1/c55xx_csl/src/csl_mmcsd.c",line 1013,column 10,is_stmt
        B $C$L56  ; |1013| 
                                        ; branch occurs ; |1013| 
$C$L50:    
	.dwpsn	file "../c5535_bsl_revc/ezdsp5535_v1/c55xx_csl/src/csl_mmcsd.c",line 1016,column 5,is_stmt
        MOV #16, T0 ; |1016| 
        MOV *AR3, AR3 ; |1016| 
        MOV port(*AR3(T0)), AR1 ; |1016| 
        MOV dbl(*SP(#0)), XAR3
        MOV *AR3, AR3 ; |1016| 
        BCLR @#0, AR1 ; |1016| 
        BSET @#0, AR1 ; |1016| 
        MOV AR1, port(*AR3(T0)) ; |1016| 
	.dwpsn	file "../c5535_bsl_revc/ezdsp5535_v1/c55xx_csl/src/csl_mmcsd.c",line 1017,column 10,is_stmt
        B $C$L56  ; |1017| 
                                        ; branch occurs ; |1017| 
$C$L51:    
	.dwpsn	file "../c5535_bsl_revc/ezdsp5535_v1/c55xx_csl/src/csl_mmcsd.c",line 1020,column 5,is_stmt
        MOV #-6, *SP(#3) ; |1020| 
	.dwpsn	file "../c5535_bsl_revc/ezdsp5535_v1/c55xx_csl/src/csl_mmcsd.c",line 1021,column 10,is_stmt
        B $C$L56  ; |1021| 
                                        ; branch occurs ; |1021| 
$C$L52:    
	.dwpsn	file "../c5535_bsl_revc/ezdsp5535_v1/c55xx_csl/src/csl_mmcsd.c",line 969,column 3,is_stmt
        MOV #64, AR2 ; |969| 
        MOV *SP(#2), AR1 ; |969| 
        CMP AR1 > AR2, TC1 ; |969| 
        BCC $C$L54,TC1 ; |969| 
                                        ; branchcc occurs ; |969| 
        CMP AR1 == AR2, TC1 ; |969| 
        BCC $C$L44,TC1 ; |969| 
                                        ; branchcc occurs ; |969| 
        MOV #8, AR2
        CMP AR1 > AR2, TC1 ; |969| 
        BCC $C$L53,TC1 ; |969| 
                                        ; branchcc occurs ; |969| 
        CMP AR1 == AR2, TC1 ; |969| 
        BCC $C$L47,TC1 ; |969| 
                                        ; branchcc occurs ; |969| 
        MOV #1, AR2
        CMP AR1 == AR2, TC1 ; |969| 
        BCC $C$L50,TC1 ; |969| 
                                        ; branchcc occurs ; |969| 
        MOV #2, AR2
        CMP AR1 == AR2, TC1 ; |969| 
        BCC $C$L49,TC1 ; |969| 
                                        ; branchcc occurs ; |969| 
        MOV #4, AR2
        CMP AR1 == AR2, TC1 ; |969| 
        BCC $C$L48,TC1 ; |969| 
                                        ; branchcc occurs ; |969| 
        B $C$L51  ; |969| 
                                        ; branch occurs ; |969| 
$C$L53:    
        MOV #16, AR2 ; |969| 
        CMP AR1 == AR2, TC1 ; |969| 
        BCC $C$L46,TC1 ; |969| 
                                        ; branchcc occurs ; |969| 
        MOV #32, AR2 ; |969| 
        CMP AR1 == AR2, TC1 ; |969| 
        BCC $C$L45,TC1 ; |969| 
                                        ; branchcc occurs ; |969| 
        B $C$L51  ; |969| 
                                        ; branch occurs ; |969| 
$C$L54:    
        MOV #1024, AR2 ; |969| 
        CMP AR1 > AR2, TC1 ; |969| 
        BCC $C$L55,TC1 ; |969| 
                                        ; branchcc occurs ; |969| 
        CMP AR1 == AR2, TC1 ; |969| 
        BCC $C$L41,TC1 ; |969| 
                                        ; branchcc occurs ; |969| 
        MOV #128, AR2 ; |969| 
        CMP AR1 == AR2, TC1 ; |969| 
        BCC $C$L43,TC1 ; |969| 
                                        ; branchcc occurs ; |969| 
        MOV #512, AR2 ; |969| 
        CMP AR1 == AR2, TC1 ; |969| 
        BCC $C$L42,TC1 ; |969| 
                                        ; branchcc occurs ; |969| 
        B $C$L51  ; |969| 
                                        ; branch occurs ; |969| 
$C$L55:    
        MOV #2048, AR2 ; |969| 
        CMP AR1 == AR2, TC1 ; |969| 
        BCC $C$L40,TC1 ; |969| 
                                        ; branchcc occurs ; |969| 
        MOV #4096, AR2 ; |969| 
        CMP AR1 == AR2, TC1 ; |969| 
        BCC $C$L39,TC1 ; |969| 
                                        ; branchcc occurs ; |969| 
        B $C$L51  ; |969| 
                                        ; branch occurs ; |969| 
$C$L56:    
	.dwpsn	file "../c5535_bsl_revc/ezdsp5535_v1/c55xx_csl/src/csl_mmcsd.c",line 1025,column 2,is_stmt
        MOV *SP(#3), T0 ; |1025| 
	.dwpsn	file "../c5535_bsl_revc/ezdsp5535_v1/c55xx_csl/src/csl_mmcsd.c",line 1026,column 1,is_stmt
        AADD #5, SP
	.dwcfi	cfa_offset, 1
$C$DW$83	.dwtag  DW_TAG_TI_branch
	.dwattr $C$DW$83, DW_AT_low_pc(0x00)
	.dwattr $C$DW$83, DW_AT_TI_return
        RET
                                        ; return occurs
	.dwattr $C$DW$77, DW_AT_TI_end_file("../c5535_bsl_revc/ezdsp5535_v1/c55xx_csl/src/csl_mmcsd.c")
	.dwattr $C$DW$77, DW_AT_TI_end_line(0x402)
	.dwattr $C$DW$77, DW_AT_TI_end_column(0x01)
	.dwendentry
	.dwendtag $C$DW$77

	.sect	".text"
	.align 4
	.global	_MMC_eventDisable

$C$DW$84	.dwtag  DW_TAG_subprogram, DW_AT_name("MMC_eventDisable")
	.dwattr $C$DW$84, DW_AT_low_pc(_MMC_eventDisable)
	.dwattr $C$DW$84, DW_AT_high_pc(0x00)
	.dwattr $C$DW$84, DW_AT_TI_symbol_name("_MMC_eventDisable")
	.dwattr $C$DW$84, DW_AT_external
	.dwattr $C$DW$84, DW_AT_type(*$C$DW$T$116)
	.dwattr $C$DW$84, DW_AT_TI_begin_file("../c5535_bsl_revc/ezdsp5535_v1/c55xx_csl/src/csl_mmcsd.c")
	.dwattr $C$DW$84, DW_AT_TI_begin_line(0x432)
	.dwattr $C$DW$84, DW_AT_TI_begin_column(0x0c)
	.dwattr $C$DW$84, DW_AT_TI_max_frame_size(0x06)
	.dwpsn	file "../c5535_bsl_revc/ezdsp5535_v1/c55xx_csl/src/csl_mmcsd.c",line 1076,column 1,is_stmt,address _MMC_eventDisable

	.dwfde $C$DW$CIE, _MMC_eventDisable
$C$DW$85	.dwtag  DW_TAG_formal_parameter, DW_AT_name("hMmcsd")
	.dwattr $C$DW$85, DW_AT_TI_symbol_name("_hMmcsd")
	.dwattr $C$DW$85, DW_AT_type(*$C$DW$T$114)
	.dwattr $C$DW$85, DW_AT_location[DW_OP_reg17]
$C$DW$86	.dwtag  DW_TAG_formal_parameter, DW_AT_name("mmcsdEvent")
	.dwattr $C$DW$86, DW_AT_TI_symbol_name("_mmcsdEvent")
	.dwattr $C$DW$86, DW_AT_type(*$C$DW$T$110)
	.dwattr $C$DW$86, DW_AT_location[DW_OP_reg12]
;*******************************************************************************
;* FUNCTION NAME: MMC_eventDisable                                             *
;*                                                                             *
;*   Function Uses Regs : AC0,AC0,AC1,AC1,T0,AR0,XAR0,AR1,AR2,AR3,XAR3,SP,TC1, *
;*                        M40,SATA,SATD,RDM,FRCT,SMUL                          *
;*   Stack Frame        : Compact (No Frame Pointer, w/ debug)                 *
;*   Total Frame Size   : 6 words                                              *
;*                        (2 return address/alignment)                         *
;*                        (4 local values)                                     *
;*   Min System Stack   : 1 word                                               *
;*******************************************************************************
_MMC_eventDisable:
	.dwcfi	cfa_offset, 1
	.dwcfi	save_reg_to_mem, 91, -1
        AADD #-5, SP
	.dwcfi	cfa_offset, 6
$C$DW$87	.dwtag  DW_TAG_variable, DW_AT_name("hMmcsd")
	.dwattr $C$DW$87, DW_AT_TI_symbol_name("_hMmcsd")
	.dwattr $C$DW$87, DW_AT_type(*$C$DW$T$114)
	.dwattr $C$DW$87, DW_AT_location[DW_OP_bregx 0x24 0]
$C$DW$88	.dwtag  DW_TAG_variable, DW_AT_name("mmcsdEvent")
	.dwattr $C$DW$88, DW_AT_TI_symbol_name("_mmcsdEvent")
	.dwattr $C$DW$88, DW_AT_type(*$C$DW$T$110)
	.dwattr $C$DW$88, DW_AT_location[DW_OP_bregx 0x24 2]
$C$DW$89	.dwtag  DW_TAG_variable, DW_AT_name("status")
	.dwattr $C$DW$89, DW_AT_TI_symbol_name("_status")
	.dwattr $C$DW$89, DW_AT_type(*$C$DW$T$116)
	.dwattr $C$DW$89, DW_AT_location[DW_OP_bregx 0x24 3]
        MOV T0, *SP(#2) ; |1076| 
        MOV XAR0, dbl(*SP(#0))
	.dwpsn	file "../c5535_bsl_revc/ezdsp5535_v1/c55xx_csl/src/csl_mmcsd.c",line 1079,column 2,is_stmt
        MOV #0, *SP(#3) ; |1079| 
	.dwpsn	file "../c5535_bsl_revc/ezdsp5535_v1/c55xx_csl/src/csl_mmcsd.c",line 1081,column 5,is_stmt
        MOV dbl(*SP(#0)), XAR3

        MOV XAR3, AC0
||      MOV #0, AC1 ; |1081| 

        CMPU AC1 != AC0, TC1 ; |1081| 
        BCC $C$L70,TC1 ; |1081| 
                                        ; branchcc occurs ; |1081| 
	.dwpsn	file "../c5535_bsl_revc/ezdsp5535_v1/c55xx_csl/src/csl_mmcsd.c",line 1083,column 3,is_stmt
        MOV #-5, *SP(#3) ; |1083| 
	.dwpsn	file "../c5535_bsl_revc/ezdsp5535_v1/c55xx_csl/src/csl_mmcsd.c",line 1084,column 5,is_stmt
        B $C$L74  ; |1084| 
                                        ; branch occurs ; |1084| 
$C$L57:    
	.dwpsn	file "../c5535_bsl_revc/ezdsp5535_v1/c55xx_csl/src/csl_mmcsd.c",line 1090,column 5,is_stmt
        MOV #16, T0 ; |1090| 
        MOV *AR3, AR3 ; |1090| 
        MOV port(*AR3(T0)), AR1 ; |1090| 
        MOV dbl(*SP(#0)), XAR3
        MOV *AR3, AR3 ; |1090| 
        BCLR @#12, AR1 ; |1090| 
        MOV AR1, port(*AR3(T0)) ; |1090| 
	.dwpsn	file "../c5535_bsl_revc/ezdsp5535_v1/c55xx_csl/src/csl_mmcsd.c",line 1091,column 10,is_stmt
        B $C$L74  ; |1091| 
                                        ; branch occurs ; |1091| 
$C$L58:    
	.dwpsn	file "../c5535_bsl_revc/ezdsp5535_v1/c55xx_csl/src/csl_mmcsd.c",line 1094,column 5,is_stmt
        MOV #16, T0 ; |1094| 
        MOV *AR3, AR3 ; |1094| 
        MOV port(*AR3(T0)), AR1 ; |1094| 
        MOV dbl(*SP(#0)), XAR3
        MOV *AR3, AR3 ; |1094| 
        BCLR @#11, AR1 ; |1094| 
        MOV AR1, port(*AR3(T0)) ; |1094| 
	.dwpsn	file "../c5535_bsl_revc/ezdsp5535_v1/c55xx_csl/src/csl_mmcsd.c",line 1095,column 10,is_stmt
        B $C$L74  ; |1095| 
                                        ; branch occurs ; |1095| 
$C$L59:    
	.dwpsn	file "../c5535_bsl_revc/ezdsp5535_v1/c55xx_csl/src/csl_mmcsd.c",line 1098,column 5,is_stmt
        MOV #16, T0 ; |1098| 
        MOV *AR3, AR3 ; |1098| 
        MOV port(*AR3(T0)), AR1 ; |1098| 
        MOV dbl(*SP(#0)), XAR3
        MOV *AR3, AR3 ; |1098| 
        BCLR @#10, AR1 ; |1098| 
        MOV AR1, port(*AR3(T0)) ; |1098| 
	.dwpsn	file "../c5535_bsl_revc/ezdsp5535_v1/c55xx_csl/src/csl_mmcsd.c",line 1099,column 10,is_stmt
        B $C$L74  ; |1099| 
                                        ; branch occurs ; |1099| 
$C$L60:    
	.dwpsn	file "../c5535_bsl_revc/ezdsp5535_v1/c55xx_csl/src/csl_mmcsd.c",line 1102,column 5,is_stmt
        MOV #16, T0 ; |1102| 
        MOV *AR3, AR3 ; |1102| 
        MOV port(*AR3(T0)), AR1 ; |1102| 
        MOV dbl(*SP(#0)), XAR3
        MOV *AR3, AR3 ; |1102| 
        BCLR @#9, AR1 ; |1102| 
        MOV AR1, port(*AR3(T0)) ; |1102| 
	.dwpsn	file "../c5535_bsl_revc/ezdsp5535_v1/c55xx_csl/src/csl_mmcsd.c",line 1103,column 10,is_stmt
        B $C$L74  ; |1103| 
                                        ; branch occurs ; |1103| 
$C$L61:    
	.dwpsn	file "../c5535_bsl_revc/ezdsp5535_v1/c55xx_csl/src/csl_mmcsd.c",line 1106,column 5,is_stmt
        MOV #16, T0 ; |1106| 
        MOV *AR3, AR3 ; |1106| 
        MOV port(*AR3(T0)), AR1 ; |1106| 
        MOV dbl(*SP(#0)), XAR3
        MOV *AR3, AR3 ; |1106| 
        BCLR @#7, AR1 ; |1106| 
        MOV AR1, port(*AR3(T0)) ; |1106| 
	.dwpsn	file "../c5535_bsl_revc/ezdsp5535_v1/c55xx_csl/src/csl_mmcsd.c",line 1107,column 10,is_stmt
        B $C$L74  ; |1107| 
                                        ; branch occurs ; |1107| 
$C$L62:    
	.dwpsn	file "../c5535_bsl_revc/ezdsp5535_v1/c55xx_csl/src/csl_mmcsd.c",line 1110,column 5,is_stmt
        MOV #16, T0 ; |1110| 
        MOV *AR3, AR3 ; |1110| 
        MOV port(*AR3(T0)), AR1 ; |1110| 
        MOV dbl(*SP(#0)), XAR3
        MOV *AR3, AR3 ; |1110| 
        BCLR @#6, AR1 ; |1110| 
        MOV AR1, port(*AR3(T0)) ; |1110| 
	.dwpsn	file "../c5535_bsl_revc/ezdsp5535_v1/c55xx_csl/src/csl_mmcsd.c",line 1111,column 10,is_stmt
        B $C$L74  ; |1111| 
                                        ; branch occurs ; |1111| 
$C$L63:    
	.dwpsn	file "../c5535_bsl_revc/ezdsp5535_v1/c55xx_csl/src/csl_mmcsd.c",line 1114,column 5,is_stmt
        MOV #16, T0 ; |1114| 
        MOV *AR3, AR3 ; |1114| 
        MOV port(*AR3(T0)), AR1 ; |1114| 
        MOV dbl(*SP(#0)), XAR3
        MOV *AR3, AR3 ; |1114| 
        BCLR @#5, AR1 ; |1114| 
        MOV AR1, port(*AR3(T0)) ; |1114| 
	.dwpsn	file "../c5535_bsl_revc/ezdsp5535_v1/c55xx_csl/src/csl_mmcsd.c",line 1115,column 10,is_stmt
        B $C$L74  ; |1115| 
                                        ; branch occurs ; |1115| 
$C$L64:    
	.dwpsn	file "../c5535_bsl_revc/ezdsp5535_v1/c55xx_csl/src/csl_mmcsd.c",line 1118,column 5,is_stmt
        MOV #16, T0 ; |1118| 
        MOV *AR3, AR3 ; |1118| 
        MOV port(*AR3(T0)), AR1 ; |1118| 
        MOV dbl(*SP(#0)), XAR3
        MOV *AR3, AR3 ; |1118| 
        BCLR @#4, AR1 ; |1118| 
        MOV AR1, port(*AR3(T0)) ; |1118| 
	.dwpsn	file "../c5535_bsl_revc/ezdsp5535_v1/c55xx_csl/src/csl_mmcsd.c",line 1119,column 10,is_stmt
        B $C$L74  ; |1119| 
                                        ; branch occurs ; |1119| 
$C$L65:    
	.dwpsn	file "../c5535_bsl_revc/ezdsp5535_v1/c55xx_csl/src/csl_mmcsd.c",line 1122,column 5,is_stmt
        MOV #16, T0 ; |1122| 
        MOV *AR3, AR3 ; |1122| 
        MOV port(*AR3(T0)), AR1 ; |1122| 
        MOV dbl(*SP(#0)), XAR3
        MOV *AR3, AR3 ; |1122| 
        BCLR @#3, AR1 ; |1122| 
        MOV AR1, port(*AR3(T0)) ; |1122| 
	.dwpsn	file "../c5535_bsl_revc/ezdsp5535_v1/c55xx_csl/src/csl_mmcsd.c",line 1123,column 10,is_stmt
        B $C$L74  ; |1123| 
                                        ; branch occurs ; |1123| 
$C$L66:    
	.dwpsn	file "../c5535_bsl_revc/ezdsp5535_v1/c55xx_csl/src/csl_mmcsd.c",line 1126,column 5,is_stmt
        MOV #16, T0 ; |1126| 
        MOV *AR3, AR3 ; |1126| 
        MOV port(*AR3(T0)), AR1 ; |1126| 
        MOV dbl(*SP(#0)), XAR3
        MOV *AR3, AR3 ; |1126| 
        BCLR @#2, AR1 ; |1126| 
        MOV AR1, port(*AR3(T0)) ; |1126| 
	.dwpsn	file "../c5535_bsl_revc/ezdsp5535_v1/c55xx_csl/src/csl_mmcsd.c",line 1127,column 10,is_stmt
        B $C$L74  ; |1127| 
                                        ; branch occurs ; |1127| 
$C$L67:    
	.dwpsn	file "../c5535_bsl_revc/ezdsp5535_v1/c55xx_csl/src/csl_mmcsd.c",line 1130,column 5,is_stmt
        MOV #16, T0 ; |1130| 
        MOV *AR3, AR3 ; |1130| 
        MOV port(*AR3(T0)), AR1 ; |1130| 
        MOV dbl(*SP(#0)), XAR3
        MOV *AR3, AR3 ; |1130| 
        BCLR @#1, AR1 ; |1130| 
        MOV AR1, port(*AR3(T0)) ; |1130| 
	.dwpsn	file "../c5535_bsl_revc/ezdsp5535_v1/c55xx_csl/src/csl_mmcsd.c",line 1131,column 10,is_stmt
        B $C$L74  ; |1131| 
                                        ; branch occurs ; |1131| 
$C$L68:    
	.dwpsn	file "../c5535_bsl_revc/ezdsp5535_v1/c55xx_csl/src/csl_mmcsd.c",line 1134,column 5,is_stmt
        MOV #16, T0 ; |1134| 
        MOV *AR3, AR3 ; |1134| 
        MOV port(*AR3(T0)), AR1 ; |1134| 
        MOV dbl(*SP(#0)), XAR3
        MOV *AR3, AR3 ; |1134| 
        BCLR @#0, AR1 ; |1134| 
        MOV AR1, port(*AR3(T0)) ; |1134| 
	.dwpsn	file "../c5535_bsl_revc/ezdsp5535_v1/c55xx_csl/src/csl_mmcsd.c",line 1135,column 10,is_stmt
        B $C$L74  ; |1135| 
                                        ; branch occurs ; |1135| 
$C$L69:    
	.dwpsn	file "../c5535_bsl_revc/ezdsp5535_v1/c55xx_csl/src/csl_mmcsd.c",line 1138,column 5,is_stmt
        MOV #-6, *SP(#3) ; |1138| 
	.dwpsn	file "../c5535_bsl_revc/ezdsp5535_v1/c55xx_csl/src/csl_mmcsd.c",line 1139,column 10,is_stmt
        B $C$L74  ; |1139| 
                                        ; branch occurs ; |1139| 
$C$L70:    
	.dwpsn	file "../c5535_bsl_revc/ezdsp5535_v1/c55xx_csl/src/csl_mmcsd.c",line 1087,column 3,is_stmt
        MOV #64, AR2 ; |1087| 
        MOV *SP(#2), AR1 ; |1087| 
        CMP AR1 > AR2, TC1 ; |1087| 
        BCC $C$L72,TC1 ; |1087| 
                                        ; branchcc occurs ; |1087| 
        CMP AR1 == AR2, TC1 ; |1087| 
        BCC $C$L62,TC1 ; |1087| 
                                        ; branchcc occurs ; |1087| 
        MOV #8, AR2
        CMP AR1 > AR2, TC1 ; |1087| 
        BCC $C$L71,TC1 ; |1087| 
                                        ; branchcc occurs ; |1087| 
        CMP AR1 == AR2, TC1 ; |1087| 
        BCC $C$L65,TC1 ; |1087| 
                                        ; branchcc occurs ; |1087| 
        MOV #1, AR2
        CMP AR1 == AR2, TC1 ; |1087| 
        BCC $C$L68,TC1 ; |1087| 
                                        ; branchcc occurs ; |1087| 
        MOV #2, AR2
        CMP AR1 == AR2, TC1 ; |1087| 
        BCC $C$L67,TC1 ; |1087| 
                                        ; branchcc occurs ; |1087| 
        MOV #4, AR2
        CMP AR1 == AR2, TC1 ; |1087| 
        BCC $C$L66,TC1 ; |1087| 
                                        ; branchcc occurs ; |1087| 
        B $C$L69  ; |1087| 
                                        ; branch occurs ; |1087| 
$C$L71:    
        MOV #16, AR2 ; |1087| 
        CMP AR1 == AR2, TC1 ; |1087| 
        BCC $C$L64,TC1 ; |1087| 
                                        ; branchcc occurs ; |1087| 
        MOV #32, AR2 ; |1087| 
        CMP AR1 == AR2, TC1 ; |1087| 
        BCC $C$L63,TC1 ; |1087| 
                                        ; branchcc occurs ; |1087| 
        B $C$L69  ; |1087| 
                                        ; branch occurs ; |1087| 
$C$L72:    
        MOV #1024, AR2 ; |1087| 
        CMP AR1 > AR2, TC1 ; |1087| 
        BCC $C$L73,TC1 ; |1087| 
                                        ; branchcc occurs ; |1087| 
        CMP AR1 == AR2, TC1 ; |1087| 
        BCC $C$L59,TC1 ; |1087| 
                                        ; branchcc occurs ; |1087| 
        MOV #128, AR2 ; |1087| 
        CMP AR1 == AR2, TC1 ; |1087| 
        BCC $C$L61,TC1 ; |1087| 
                                        ; branchcc occurs ; |1087| 
        MOV #512, AR2 ; |1087| 
        CMP AR1 == AR2, TC1 ; |1087| 
        BCC $C$L60,TC1 ; |1087| 
                                        ; branchcc occurs ; |1087| 
        B $C$L69  ; |1087| 
                                        ; branch occurs ; |1087| 
$C$L73:    
        MOV #2048, AR2 ; |1087| 
        CMP AR1 == AR2, TC1 ; |1087| 
        BCC $C$L58,TC1 ; |1087| 
                                        ; branchcc occurs ; |1087| 
        MOV #4096, AR2 ; |1087| 
        CMP AR1 == AR2, TC1 ; |1087| 
        BCC $C$L57,TC1 ; |1087| 
                                        ; branchcc occurs ; |1087| 
        B $C$L69  ; |1087| 
                                        ; branch occurs ; |1087| 
$C$L74:    
	.dwpsn	file "../c5535_bsl_revc/ezdsp5535_v1/c55xx_csl/src/csl_mmcsd.c",line 1143,column 2,is_stmt
        MOV *SP(#3), T0 ; |1143| 
	.dwpsn	file "../c5535_bsl_revc/ezdsp5535_v1/c55xx_csl/src/csl_mmcsd.c",line 1144,column 1,is_stmt
        AADD #5, SP
	.dwcfi	cfa_offset, 1
$C$DW$90	.dwtag  DW_TAG_TI_branch
	.dwattr $C$DW$90, DW_AT_low_pc(0x00)
	.dwattr $C$DW$90, DW_AT_TI_return
        RET
                                        ; return occurs
	.dwattr $C$DW$84, DW_AT_TI_end_file("../c5535_bsl_revc/ezdsp5535_v1/c55xx_csl/src/csl_mmcsd.c")
	.dwattr $C$DW$84, DW_AT_TI_end_line(0x478)
	.dwattr $C$DW$84, DW_AT_TI_end_column(0x01)
	.dwendentry
	.dwendtag $C$DW$84

	.sect	".text"
	.align 4
	.global	_MMC_drrdy

$C$DW$91	.dwtag  DW_TAG_subprogram, DW_AT_name("MMC_drrdy")
	.dwattr $C$DW$91, DW_AT_low_pc(_MMC_drrdy)
	.dwattr $C$DW$91, DW_AT_high_pc(0x00)
	.dwattr $C$DW$91, DW_AT_TI_symbol_name("_MMC_drrdy")
	.dwattr $C$DW$91, DW_AT_external
	.dwattr $C$DW$91, DW_AT_type(*$C$DW$T$31)
	.dwattr $C$DW$91, DW_AT_TI_begin_file("../c5535_bsl_revc/ezdsp5535_v1/c55xx_csl/src/csl_mmcsd.c")
	.dwattr $C$DW$91, DW_AT_TI_begin_line(0x4a6)
	.dwattr $C$DW$91, DW_AT_TI_begin_column(0x06)
	.dwattr $C$DW$91, DW_AT_TI_max_frame_size(0x06)
	.dwpsn	file "../c5535_bsl_revc/ezdsp5535_v1/c55xx_csl/src/csl_mmcsd.c",line 1192,column 1,is_stmt,address _MMC_drrdy

	.dwfde $C$DW$CIE, _MMC_drrdy
$C$DW$92	.dwtag  DW_TAG_formal_parameter, DW_AT_name("hMmcsd")
	.dwattr $C$DW$92, DW_AT_TI_symbol_name("_hMmcsd")
	.dwattr $C$DW$92, DW_AT_type(*$C$DW$T$114)
	.dwattr $C$DW$92, DW_AT_location[DW_OP_reg17]
$C$DW$93	.dwtag  DW_TAG_formal_parameter, DW_AT_name("pStatus")
	.dwattr $C$DW$93, DW_AT_TI_symbol_name("_pStatus")
	.dwattr $C$DW$93, DW_AT_type(*$C$DW$T$117)
	.dwattr $C$DW$93, DW_AT_location[DW_OP_reg19]
;*******************************************************************************
;* FUNCTION NAME: MMC_drrdy                                                    *
;*                                                                             *
;*   Function Uses Regs : AC0,AC0,AC1,AC1,T0,AR0,XAR0,AR1,XAR1,AR3,XAR3,SP,TC1,*
;*                        M40,SATA,SATD,RDM,FRCT,SMUL                          *
;*   Stack Frame        : Compact (No Frame Pointer, w/ debug)                 *
;*   Total Frame Size   : 6 words                                              *
;*                        (1 return address/alignment)                         *
;*                        (5 local values)                                     *
;*   Min System Stack   : 1 word                                               *
;*******************************************************************************
_MMC_drrdy:
	.dwcfi	cfa_offset, 1
	.dwcfi	save_reg_to_mem, 91, -1
        AADD #-5, SP
	.dwcfi	cfa_offset, 6
$C$DW$94	.dwtag  DW_TAG_variable, DW_AT_name("hMmcsd")
	.dwattr $C$DW$94, DW_AT_TI_symbol_name("_hMmcsd")
	.dwattr $C$DW$94, DW_AT_type(*$C$DW$T$114)
	.dwattr $C$DW$94, DW_AT_location[DW_OP_bregx 0x24 0]
$C$DW$95	.dwtag  DW_TAG_variable, DW_AT_name("pStatus")
	.dwattr $C$DW$95, DW_AT_TI_symbol_name("_pStatus")
	.dwattr $C$DW$95, DW_AT_type(*$C$DW$T$117)
	.dwattr $C$DW$95, DW_AT_location[DW_OP_bregx 0x24 2]
$C$DW$96	.dwtag  DW_TAG_variable, DW_AT_name("status")
	.dwattr $C$DW$96, DW_AT_TI_symbol_name("_status")
	.dwattr $C$DW$96, DW_AT_type(*$C$DW$T$31)
	.dwattr $C$DW$96, DW_AT_location[DW_OP_bregx 0x24 4]
        MOV XAR1, dbl(*SP(#2))
        MOV XAR0, dbl(*SP(#0))
	.dwpsn	file "../c5535_bsl_revc/ezdsp5535_v1/c55xx_csl/src/csl_mmcsd.c",line 1195,column 5,is_stmt
        MOV #0, *SP(#4) ; |1195| 
	.dwpsn	file "../c5535_bsl_revc/ezdsp5535_v1/c55xx_csl/src/csl_mmcsd.c",line 1197,column 5,is_stmt
        MOV dbl(*SP(#0)), XAR3

        MOV XAR3, AC0
||      MOV #0, AC1 ; |1197| 

        CMPU AC1 != AC0, TC1 ; |1197| 
        BCC $C$L75,TC1 ; |1197| 
                                        ; branchcc occurs ; |1197| 
	.dwpsn	file "../c5535_bsl_revc/ezdsp5535_v1/c55xx_csl/src/csl_mmcsd.c",line 1199,column 3,is_stmt
        MOV dbl(*SP(#2)), XAR3
        MOV XAR3, AC0
        BCC $C$L77,AC0 == #0 ; |1199| 
                                        ; branchcc occurs ; |1199| 
	.dwpsn	file "../c5535_bsl_revc/ezdsp5535_v1/c55xx_csl/src/csl_mmcsd.c",line 1201,column 10,is_stmt
        MOV #-5, *AR3 ; |1201| 
	.dwpsn	file "../c5535_bsl_revc/ezdsp5535_v1/c55xx_csl/src/csl_mmcsd.c",line 1203,column 5,is_stmt
        B $C$L77  ; |1203| 
                                        ; branch occurs ; |1203| 
$C$L75:    
	.dwpsn	file "../c5535_bsl_revc/ezdsp5535_v1/c55xx_csl/src/csl_mmcsd.c",line 1206,column 3,is_stmt
        MOV dbl(*SP(#2)), XAR3
        MOV XAR3, AC0
        BCC $C$L76,AC0 == #0 ; |1206| 
                                        ; branchcc occurs ; |1206| 
	.dwpsn	file "../c5535_bsl_revc/ezdsp5535_v1/c55xx_csl/src/csl_mmcsd.c",line 1208,column 10,is_stmt
        MOV #0, *AR3 ; |1208| 
$C$L76:    
	.dwpsn	file "../c5535_bsl_revc/ezdsp5535_v1/c55xx_csl/src/csl_mmcsd.c",line 1210,column 9,is_stmt
        MOV dbl(*SP(#0)), XAR3
        MOV *AR3, AR3 ; |1210| 
        AMOV #8, T0
        MOV port(*AR3(T0)), AR1 ; |1210| 
        AND #0x0400, AR1, AC0 ; |1210| 
        SFTS AC0, #-10, AC0 ; |1210| 
        MOV AC0, *SP(#4) ; |1210| 
$C$L77:    
	.dwpsn	file "../c5535_bsl_revc/ezdsp5535_v1/c55xx_csl/src/csl_mmcsd.c",line 1213,column 2,is_stmt
        MOV *SP(#4), T0 ; |1213| 
	.dwpsn	file "../c5535_bsl_revc/ezdsp5535_v1/c55xx_csl/src/csl_mmcsd.c",line 1214,column 1,is_stmt
        AADD #5, SP
	.dwcfi	cfa_offset, 1
$C$DW$97	.dwtag  DW_TAG_TI_branch
	.dwattr $C$DW$97, DW_AT_low_pc(0x00)
	.dwattr $C$DW$97, DW_AT_TI_return
        RET
                                        ; return occurs
	.dwattr $C$DW$91, DW_AT_TI_end_file("../c5535_bsl_revc/ezdsp5535_v1/c55xx_csl/src/csl_mmcsd.c")
	.dwattr $C$DW$91, DW_AT_TI_end_line(0x4be)
	.dwattr $C$DW$91, DW_AT_TI_end_column(0x01)
	.dwendentry
	.dwendtag $C$DW$91

	.sect	".text"
	.align 4
	.global	_MMC_dxrdy

$C$DW$98	.dwtag  DW_TAG_subprogram, DW_AT_name("MMC_dxrdy")
	.dwattr $C$DW$98, DW_AT_low_pc(_MMC_dxrdy)
	.dwattr $C$DW$98, DW_AT_high_pc(0x00)
	.dwattr $C$DW$98, DW_AT_TI_symbol_name("_MMC_dxrdy")
	.dwattr $C$DW$98, DW_AT_external
	.dwattr $C$DW$98, DW_AT_type(*$C$DW$T$31)
	.dwattr $C$DW$98, DW_AT_TI_begin_file("../c5535_bsl_revc/ezdsp5535_v1/c55xx_csl/src/csl_mmcsd.c")
	.dwattr $C$DW$98, DW_AT_TI_begin_line(0x4ec)
	.dwattr $C$DW$98, DW_AT_TI_begin_column(0x06)
	.dwattr $C$DW$98, DW_AT_TI_max_frame_size(0x06)
	.dwpsn	file "../c5535_bsl_revc/ezdsp5535_v1/c55xx_csl/src/csl_mmcsd.c",line 1262,column 1,is_stmt,address _MMC_dxrdy

	.dwfde $C$DW$CIE, _MMC_dxrdy
$C$DW$99	.dwtag  DW_TAG_formal_parameter, DW_AT_name("hMmcsd")
	.dwattr $C$DW$99, DW_AT_TI_symbol_name("_hMmcsd")
	.dwattr $C$DW$99, DW_AT_type(*$C$DW$T$114)
	.dwattr $C$DW$99, DW_AT_location[DW_OP_reg17]
$C$DW$100	.dwtag  DW_TAG_formal_parameter, DW_AT_name("pStatus")
	.dwattr $C$DW$100, DW_AT_TI_symbol_name("_pStatus")
	.dwattr $C$DW$100, DW_AT_type(*$C$DW$T$117)
	.dwattr $C$DW$100, DW_AT_location[DW_OP_reg19]
;*******************************************************************************
;* FUNCTION NAME: MMC_dxrdy                                                    *
;*                                                                             *
;*   Function Uses Regs : AC0,AC0,AC1,AC1,T0,AR0,XAR0,AR1,XAR1,AR3,XAR3,SP,TC1,*
;*                        M40,SATA,SATD,RDM,FRCT,SMUL                          *
;*   Stack Frame        : Compact (No Frame Pointer, w/ debug)                 *
;*   Total Frame Size   : 6 words                                              *
;*                        (1 return address/alignment)                         *
;*                        (5 local values)                                     *
;*   Min System Stack   : 1 word                                               *
;*******************************************************************************
_MMC_dxrdy:
	.dwcfi	cfa_offset, 1
	.dwcfi	save_reg_to_mem, 91, -1
        AADD #-5, SP
	.dwcfi	cfa_offset, 6
$C$DW$101	.dwtag  DW_TAG_variable, DW_AT_name("hMmcsd")
	.dwattr $C$DW$101, DW_AT_TI_symbol_name("_hMmcsd")
	.dwattr $C$DW$101, DW_AT_type(*$C$DW$T$114)
	.dwattr $C$DW$101, DW_AT_location[DW_OP_bregx 0x24 0]
$C$DW$102	.dwtag  DW_TAG_variable, DW_AT_name("pStatus")
	.dwattr $C$DW$102, DW_AT_TI_symbol_name("_pStatus")
	.dwattr $C$DW$102, DW_AT_type(*$C$DW$T$117)
	.dwattr $C$DW$102, DW_AT_location[DW_OP_bregx 0x24 2]
$C$DW$103	.dwtag  DW_TAG_variable, DW_AT_name("status")
	.dwattr $C$DW$103, DW_AT_TI_symbol_name("_status")
	.dwattr $C$DW$103, DW_AT_type(*$C$DW$T$31)
	.dwattr $C$DW$103, DW_AT_location[DW_OP_bregx 0x24 4]
        MOV XAR1, dbl(*SP(#2))
        MOV XAR0, dbl(*SP(#0))
	.dwpsn	file "../c5535_bsl_revc/ezdsp5535_v1/c55xx_csl/src/csl_mmcsd.c",line 1265,column 5,is_stmt
        MOV dbl(*SP(#0)), XAR3

        MOV XAR3, AC0
||      MOV #0, AC1 ; |1265| 

        CMPU AC1 != AC0, TC1 ; |1265| 
        BCC $C$L78,TC1 ; |1265| 
                                        ; branchcc occurs ; |1265| 
	.dwpsn	file "../c5535_bsl_revc/ezdsp5535_v1/c55xx_csl/src/csl_mmcsd.c",line 1267,column 3,is_stmt
        MOV dbl(*SP(#2)), XAR3
        MOV XAR3, AC0
        BCC $C$L80,AC0 == #0 ; |1267| 
                                        ; branchcc occurs ; |1267| 
	.dwpsn	file "../c5535_bsl_revc/ezdsp5535_v1/c55xx_csl/src/csl_mmcsd.c",line 1269,column 10,is_stmt
        MOV #-5, *AR3 ; |1269| 
	.dwpsn	file "../c5535_bsl_revc/ezdsp5535_v1/c55xx_csl/src/csl_mmcsd.c",line 1271,column 5,is_stmt
        B $C$L80  ; |1271| 
                                        ; branch occurs ; |1271| 
$C$L78:    
	.dwpsn	file "../c5535_bsl_revc/ezdsp5535_v1/c55xx_csl/src/csl_mmcsd.c",line 1274,column 3,is_stmt
        MOV dbl(*SP(#2)), XAR3
        MOV XAR3, AC0
        BCC $C$L79,AC0 == #0 ; |1274| 
                                        ; branchcc occurs ; |1274| 
	.dwpsn	file "../c5535_bsl_revc/ezdsp5535_v1/c55xx_csl/src/csl_mmcsd.c",line 1276,column 10,is_stmt
        MOV #0, *AR3 ; |1276| 
$C$L79:    
	.dwpsn	file "../c5535_bsl_revc/ezdsp5535_v1/c55xx_csl/src/csl_mmcsd.c",line 1278,column 9,is_stmt
        MOV dbl(*SP(#0)), XAR3
        MOV *AR3, AR3 ; |1278| 
        AMOV #8, T0
        MOV port(*AR3(T0)), AR1 ; |1278| 
        AND #0x0200, AR1, AC0 ; |1278| 
        SFTS AC0, #-9, AC0 ; |1278| 
        MOV AC0, *SP(#4) ; |1278| 
$C$L80:    
	.dwpsn	file "../c5535_bsl_revc/ezdsp5535_v1/c55xx_csl/src/csl_mmcsd.c",line 1281,column 2,is_stmt
        MOV *SP(#4), T0 ; |1281| 
	.dwpsn	file "../c5535_bsl_revc/ezdsp5535_v1/c55xx_csl/src/csl_mmcsd.c",line 1282,column 1,is_stmt
        AADD #5, SP
	.dwcfi	cfa_offset, 1
$C$DW$104	.dwtag  DW_TAG_TI_branch
	.dwattr $C$DW$104, DW_AT_low_pc(0x00)
	.dwattr $C$DW$104, DW_AT_TI_return
        RET
                                        ; return occurs
	.dwattr $C$DW$98, DW_AT_TI_end_file("../c5535_bsl_revc/ezdsp5535_v1/c55xx_csl/src/csl_mmcsd.c")
	.dwattr $C$DW$98, DW_AT_TI_end_line(0x502)
	.dwattr $C$DW$98, DW_AT_TI_end_column(0x01)
	.dwendentry
	.dwendtag $C$DW$98

	.sect	".text"
	.align 4
	.global	_MMC_saveStatus

$C$DW$105	.dwtag  DW_TAG_subprogram, DW_AT_name("MMC_saveStatus")
	.dwattr $C$DW$105, DW_AT_low_pc(_MMC_saveStatus)
	.dwattr $C$DW$105, DW_AT_high_pc(0x00)
	.dwattr $C$DW$105, DW_AT_TI_symbol_name("_MMC_saveStatus")
	.dwattr $C$DW$105, DW_AT_external
	.dwattr $C$DW$105, DW_AT_type(*$C$DW$T$116)
	.dwattr $C$DW$105, DW_AT_TI_begin_file("../c5535_bsl_revc/ezdsp5535_v1/c55xx_csl/src/csl_mmcsd.c")
	.dwattr $C$DW$105, DW_AT_TI_begin_line(0x52e)
	.dwattr $C$DW$105, DW_AT_TI_begin_column(0x0c)
	.dwattr $C$DW$105, DW_AT_TI_max_frame_size(0x04)
	.dwpsn	file "../c5535_bsl_revc/ezdsp5535_v1/c55xx_csl/src/csl_mmcsd.c",line 1327,column 1,is_stmt,address _MMC_saveStatus

	.dwfde $C$DW$CIE, _MMC_saveStatus
$C$DW$106	.dwtag  DW_TAG_formal_parameter, DW_AT_name("hMmcsd")
	.dwattr $C$DW$106, DW_AT_TI_symbol_name("_hMmcsd")
	.dwattr $C$DW$106, DW_AT_type(*$C$DW$T$114)
	.dwattr $C$DW$106, DW_AT_location[DW_OP_reg17]
;*******************************************************************************
;* FUNCTION NAME: MMC_saveStatus                                               *
;*                                                                             *
;*   Function Uses Regs : AC0,AC0,AC1,AC1,T0,AR0,XAR0,AR1,AR3,XAR3,SP,TC1,M40, *
;*                        SATA,SATD,RDM,FRCT,SMUL                              *
;*   Stack Frame        : Compact (No Frame Pointer, w/ debug)                 *
;*   Total Frame Size   : 4 words                                              *
;*                        (2 return address/alignment)                         *
;*                        (2 local values)                                     *
;*   Min System Stack   : 1 word                                               *
;*******************************************************************************
_MMC_saveStatus:
	.dwcfi	cfa_offset, 1
	.dwcfi	save_reg_to_mem, 91, -1
        AADD #-3, SP
	.dwcfi	cfa_offset, 4
$C$DW$107	.dwtag  DW_TAG_variable, DW_AT_name("hMmcsd")
	.dwattr $C$DW$107, DW_AT_TI_symbol_name("_hMmcsd")
	.dwattr $C$DW$107, DW_AT_type(*$C$DW$T$114)
	.dwattr $C$DW$107, DW_AT_location[DW_OP_bregx 0x24 0]
        MOV XAR0, dbl(*SP(#0))
	.dwpsn	file "../c5535_bsl_revc/ezdsp5535_v1/c55xx_csl/src/csl_mmcsd.c",line 1328,column 5,is_stmt
        MOV dbl(*SP(#0)), XAR3

        MOV XAR3, AC0
||      MOV #0, AC1 ; |1328| 

        CMPU AC1 != AC0, TC1 ; |1328| 
        BCC $C$L81,TC1 ; |1328| 
                                        ; branchcc occurs ; |1328| 
	.dwpsn	file "../c5535_bsl_revc/ezdsp5535_v1/c55xx_csl/src/csl_mmcsd.c",line 1330,column 9,is_stmt
        MOV #-5, T0
        B $C$L82  ; |1330| 
                                        ; branch occurs ; |1330| 
$C$L81:    
	.dwpsn	file "../c5535_bsl_revc/ezdsp5535_v1/c55xx_csl/src/csl_mmcsd.c",line 1334,column 9,is_stmt
        MOV *AR3, AR3 ; |1334| 
        AMOV #8, T0
        MOV port(*AR3(T0)), AR1 ; |1334| 
        MOV dbl(*SP(#0)), XAR3
        MOV dbl(*AR3(short(#2))), XAR3
        MOV AR1, *AR3(short(#1)) ; |1334| 
	.dwpsn	file "../c5535_bsl_revc/ezdsp5535_v1/c55xx_csl/src/csl_mmcsd.c",line 1335,column 9,is_stmt
        MOV dbl(*SP(#0)), XAR3
        MOV *AR3, AR3 ; |1335| 
        AMOV #12, T0
        MOV port(*AR3(T0)), AR1 ; |1335| 
        MOV dbl(*SP(#0)), XAR3
        MOV dbl(*AR3(short(#2))), XAR3
        MOV AR1, *AR3(short(#2)) ; |1335| 
	.dwpsn	file "../c5535_bsl_revc/ezdsp5535_v1/c55xx_csl/src/csl_mmcsd.c",line 1336,column 9,is_stmt
        MOV #0, T0
$C$L82:    
	.dwpsn	file "../c5535_bsl_revc/ezdsp5535_v1/c55xx_csl/src/csl_mmcsd.c",line 1338,column 1,is_stmt
        AADD #3, SP
	.dwcfi	cfa_offset, 1
$C$DW$108	.dwtag  DW_TAG_TI_branch
	.dwattr $C$DW$108, DW_AT_low_pc(0x00)
	.dwattr $C$DW$108, DW_AT_TI_return
        RET
                                        ; return occurs
	.dwattr $C$DW$105, DW_AT_TI_end_file("../c5535_bsl_revc/ezdsp5535_v1/c55xx_csl/src/csl_mmcsd.c")
	.dwattr $C$DW$105, DW_AT_TI_end_line(0x53a)
	.dwattr $C$DW$105, DW_AT_TI_end_column(0x01)
	.dwendentry
	.dwendtag $C$DW$105

	.sect	".text"
	.align 4
	.global	_MMC_getStatus

$C$DW$109	.dwtag  DW_TAG_subprogram, DW_AT_name("MMC_getStatus")
	.dwattr $C$DW$109, DW_AT_low_pc(_MMC_getStatus)
	.dwattr $C$DW$109, DW_AT_high_pc(0x00)
	.dwattr $C$DW$109, DW_AT_TI_symbol_name("_MMC_getStatus")
	.dwattr $C$DW$109, DW_AT_external
	.dwattr $C$DW$109, DW_AT_type(*$C$DW$T$49)
	.dwattr $C$DW$109, DW_AT_TI_begin_file("../c5535_bsl_revc/ezdsp5535_v1/c55xx_csl/src/csl_mmcsd.c")
	.dwattr $C$DW$109, DW_AT_TI_begin_line(0x56d)
	.dwattr $C$DW$109, DW_AT_TI_begin_column(0x08)
	.dwattr $C$DW$109, DW_AT_TI_max_frame_size(0x0a)
	.dwpsn	file "../c5535_bsl_revc/ezdsp5535_v1/c55xx_csl/src/csl_mmcsd.c",line 1392,column 1,is_stmt,address _MMC_getStatus

	.dwfde $C$DW$CIE, _MMC_getStatus
$C$DW$110	.dwtag  DW_TAG_formal_parameter, DW_AT_name("hMmcsd")
	.dwattr $C$DW$110, DW_AT_TI_symbol_name("_hMmcsd")
	.dwattr $C$DW$110, DW_AT_type(*$C$DW$T$114)
	.dwattr $C$DW$110, DW_AT_location[DW_OP_reg17]
$C$DW$111	.dwtag  DW_TAG_formal_parameter, DW_AT_name("maskValue")
	.dwattr $C$DW$111, DW_AT_TI_symbol_name("_maskValue")
	.dwattr $C$DW$111, DW_AT_type(*$C$DW$T$49)
	.dwattr $C$DW$111, DW_AT_location[DW_OP_reg0]
$C$DW$112	.dwtag  DW_TAG_formal_parameter, DW_AT_name("pStatus")
	.dwattr $C$DW$112, DW_AT_TI_symbol_name("_pStatus")
	.dwattr $C$DW$112, DW_AT_type(*$C$DW$T$117)
	.dwattr $C$DW$112, DW_AT_location[DW_OP_reg19]
;*******************************************************************************
;* FUNCTION NAME: MMC_getStatus                                                *
;*                                                                             *
;*   Function Uses Regs : AC0,AC0,AC1,AC1,T0,AR0,XAR0,AR1,XAR1,AR3,XAR3,SP,    *
;*                        CARRY,TC1,M40,SATA,SATD,RDM,FRCT,SMUL                *
;*   Stack Frame        : Compact (No Frame Pointer, w/ debug)                 *
;*   Total Frame Size   : 10 words                                             *
;*                        (2 return address/alignment)                         *
;*                        (8 local values)                                     *
;*   Min System Stack   : 1 word                                               *
;*******************************************************************************
_MMC_getStatus:
	.dwcfi	cfa_offset, 1
	.dwcfi	save_reg_to_mem, 91, -1
        AADD #-9, SP
	.dwcfi	cfa_offset, 10
$C$DW$113	.dwtag  DW_TAG_variable, DW_AT_name("hMmcsd")
	.dwattr $C$DW$113, DW_AT_TI_symbol_name("_hMmcsd")
	.dwattr $C$DW$113, DW_AT_type(*$C$DW$T$114)
	.dwattr $C$DW$113, DW_AT_location[DW_OP_bregx 0x24 0]
$C$DW$114	.dwtag  DW_TAG_variable, DW_AT_name("maskValue")
	.dwattr $C$DW$114, DW_AT_TI_symbol_name("_maskValue")
	.dwattr $C$DW$114, DW_AT_type(*$C$DW$T$49)
	.dwattr $C$DW$114, DW_AT_location[DW_OP_bregx 0x24 2]
$C$DW$115	.dwtag  DW_TAG_variable, DW_AT_name("pStatus")
	.dwattr $C$DW$115, DW_AT_TI_symbol_name("_pStatus")
	.dwattr $C$DW$115, DW_AT_type(*$C$DW$T$117)
	.dwattr $C$DW$115, DW_AT_location[DW_OP_bregx 0x24 4]
$C$DW$116	.dwtag  DW_TAG_variable, DW_AT_name("status")
	.dwattr $C$DW$116, DW_AT_TI_symbol_name("_status")
	.dwattr $C$DW$116, DW_AT_type(*$C$DW$T$49)
	.dwattr $C$DW$116, DW_AT_location[DW_OP_bregx 0x24 6]
        MOV XAR1, dbl(*SP(#4))
        MOV AC0, dbl(*SP(#2)) ; |1392| 
        MOV XAR0, dbl(*SP(#0))
	.dwpsn	file "../c5535_bsl_revc/ezdsp5535_v1/c55xx_csl/src/csl_mmcsd.c",line 1395,column 5,is_stmt
        MOV dbl(*SP(#0)), XAR3

        MOV XAR3, AC0
||      MOV #0, AC1 ; |1395| 

        CMPU AC1 != AC0, TC1 ; |1395| 
        BCC $C$L83,TC1 ; |1395| 
                                        ; branchcc occurs ; |1395| 
	.dwpsn	file "../c5535_bsl_revc/ezdsp5535_v1/c55xx_csl/src/csl_mmcsd.c",line 1397,column 9,is_stmt
        MOV dbl(*SP(#4)), XAR3
        MOV #-5, *AR3 ; |1397| 
	.dwpsn	file "../c5535_bsl_revc/ezdsp5535_v1/c55xx_csl/src/csl_mmcsd.c",line 1398,column 5,is_stmt
        B $C$L84  ; |1398| 
                                        ; branch occurs ; |1398| 
$C$L83:    
	.dwpsn	file "../c5535_bsl_revc/ezdsp5535_v1/c55xx_csl/src/csl_mmcsd.c",line 1401,column 9,is_stmt
        MOV dbl(*SP(#4)), XAR3
        MOV #0, *AR3 ; |1401| 
	.dwpsn	file "../c5535_bsl_revc/ezdsp5535_v1/c55xx_csl/src/csl_mmcsd.c",line 1402,column 9,is_stmt
        MOV dbl(*SP(#0)), XAR3
        MOV *AR3, AR3 ; |1402| 
        AMOV #12, T0
        MOV uns(port(*AR3(T0))), AC0 ; |1402| 
        MOV AC0, dbl(*SP(#6)) ; |1402| 
	.dwpsn	file "../c5535_bsl_revc/ezdsp5535_v1/c55xx_csl/src/csl_mmcsd.c",line 1403,column 9,is_stmt
        MOV dbl(*SP(#6)), AC0 ; |1403| 
        SFTL AC0, #16, AC0 ; |1403| 
        MOV AC0, dbl(*SP(#6)) ; |1403| 
	.dwpsn	file "../c5535_bsl_revc/ezdsp5535_v1/c55xx_csl/src/csl_mmcsd.c",line 1404,column 9,is_stmt
        MOV dbl(*SP(#0)), XAR3
        MOV *AR3, AR3 ; |1404| 

        MOV dbl(*SP(#6)), AC0 ; |1404| 
||      AMOV #8, T0

        OR port(*AR3(T0)), AC0, AC0 ; |1404| 
        MOV AC0, dbl(*SP(#6)) ; |1404| 
	.dwpsn	file "../c5535_bsl_revc/ezdsp5535_v1/c55xx_csl/src/csl_mmcsd.c",line 1405,column 9,is_stmt
        MOV dbl(*SP(#6)), AC1 ; |1405| 
        MOV dbl(*SP(#2)), AC0 ; |1405| 
        AND AC1, AC0 ; |1405| 
        MOV AC0, dbl(*SP(#6)) ; |1405| 
$C$L84:    
	.dwpsn	file "../c5535_bsl_revc/ezdsp5535_v1/c55xx_csl/src/csl_mmcsd.c",line 1408,column 2,is_stmt
        MOV dbl(*SP(#6)), AC0 ; |1408| 
	.dwpsn	file "../c5535_bsl_revc/ezdsp5535_v1/c55xx_csl/src/csl_mmcsd.c",line 1409,column 1,is_stmt
        AADD #9, SP
	.dwcfi	cfa_offset, 1
$C$DW$117	.dwtag  DW_TAG_TI_branch
	.dwattr $C$DW$117, DW_AT_low_pc(0x00)
	.dwattr $C$DW$117, DW_AT_TI_return
        RET
                                        ; return occurs
	.dwattr $C$DW$109, DW_AT_TI_end_file("../c5535_bsl_revc/ezdsp5535_v1/c55xx_csl/src/csl_mmcsd.c")
	.dwattr $C$DW$109, DW_AT_TI_end_line(0x581)
	.dwattr $C$DW$109, DW_AT_TI_end_column(0x01)
	.dwendentry
	.dwendtag $C$DW$109

	.sect	".text"
	.align 4
	.global	_MMC_setupNative

$C$DW$118	.dwtag  DW_TAG_subprogram, DW_AT_name("MMC_setupNative")
	.dwattr $C$DW$118, DW_AT_low_pc(_MMC_setupNative)
	.dwattr $C$DW$118, DW_AT_high_pc(0x00)
	.dwattr $C$DW$118, DW_AT_TI_symbol_name("_MMC_setupNative")
	.dwattr $C$DW$118, DW_AT_external
	.dwattr $C$DW$118, DW_AT_type(*$C$DW$T$116)
	.dwattr $C$DW$118, DW_AT_TI_begin_file("../c5535_bsl_revc/ezdsp5535_v1/c55xx_csl/src/csl_mmcsd.c")
	.dwattr $C$DW$118, DW_AT_TI_begin_line(0x5b6)
	.dwattr $C$DW$118, DW_AT_TI_begin_column(0x0c)
	.dwattr $C$DW$118, DW_AT_TI_max_frame_size(0x06)
	.dwpsn	file "../c5535_bsl_revc/ezdsp5535_v1/c55xx_csl/src/csl_mmcsd.c",line 1464,column 1,is_stmt,address _MMC_setupNative

	.dwfde $C$DW$CIE, _MMC_setupNative
$C$DW$119	.dwtag  DW_TAG_formal_parameter, DW_AT_name("hMmcsd")
	.dwattr $C$DW$119, DW_AT_TI_symbol_name("_hMmcsd")
	.dwattr $C$DW$119, DW_AT_type(*$C$DW$T$114)
	.dwattr $C$DW$119, DW_AT_location[DW_OP_reg17]
$C$DW$120	.dwtag  DW_TAG_formal_parameter, DW_AT_name("pMmcInit")
	.dwattr $C$DW$120, DW_AT_TI_symbol_name("_pMmcInit")
	.dwattr $C$DW$120, DW_AT_type(*$C$DW$T$120)
	.dwattr $C$DW$120, DW_AT_location[DW_OP_reg19]
;*******************************************************************************
;* FUNCTION NAME: MMC_setupNative                                              *
;*                                                                             *
;*   Function Uses Regs : AC0,AC0,AC1,AC1,T0,AR0,XAR0,AR1,XAR1,AR2,AR3,XAR3,SP,*
;*                        CARRY,TC1,M40,SATA,SATD,RDM,FRCT,SMUL                *
;*   Stack Frame        : Compact (No Frame Pointer, w/ debug)                 *
;*   Total Frame Size   : 6 words                                              *
;*                        (2 return address/alignment)                         *
;*                        (4 local values)                                     *
;*   Min System Stack   : 1 word                                               *
;*******************************************************************************
_MMC_setupNative:
	.dwcfi	cfa_offset, 1
	.dwcfi	save_reg_to_mem, 91, -1
        AADD #-5, SP
	.dwcfi	cfa_offset, 6
$C$DW$121	.dwtag  DW_TAG_variable, DW_AT_name("hMmcsd")
	.dwattr $C$DW$121, DW_AT_TI_symbol_name("_hMmcsd")
	.dwattr $C$DW$121, DW_AT_type(*$C$DW$T$114)
	.dwattr $C$DW$121, DW_AT_location[DW_OP_bregx 0x24 0]
$C$DW$122	.dwtag  DW_TAG_variable, DW_AT_name("pMmcInit")
	.dwattr $C$DW$122, DW_AT_TI_symbol_name("_pMmcInit")
	.dwattr $C$DW$122, DW_AT_type(*$C$DW$T$120)
	.dwattr $C$DW$122, DW_AT_location[DW_OP_bregx 0x24 2]
        MOV XAR1, dbl(*SP(#2))
        MOV XAR0, dbl(*SP(#0))
	.dwpsn	file "../c5535_bsl_revc/ezdsp5535_v1/c55xx_csl/src/csl_mmcsd.c",line 1467,column 5,is_stmt
        MOV dbl(*SP(#0)), XAR3

        MOV XAR3, AC0
||      MOV #0, AC1 ; |1467| 

        CMPU AC1 != AC0, TC1 ; |1467| 
        BCC $C$L85,TC1 ; |1467| 
                                        ; branchcc occurs ; |1467| 
	.dwpsn	file "../c5535_bsl_revc/ezdsp5535_v1/c55xx_csl/src/csl_mmcsd.c",line 1469,column 9,is_stmt
        MOV #-5, T0
        B $C$L87  ; |1469| 
                                        ; branch occurs ; |1469| 
$C$L85:    
	.dwpsn	file "../c5535_bsl_revc/ezdsp5535_v1/c55xx_csl/src/csl_mmcsd.c",line 1473,column 9,is_stmt
        MOV dbl(*SP(#2)), XAR3
        MOV XAR3, AC0
        CMPU AC1 != AC0, TC1 ; |1473| 
        BCC $C$L86,TC1 ; |1473| 
                                        ; branchcc occurs ; |1473| 
	.dwpsn	file "../c5535_bsl_revc/ezdsp5535_v1/c55xx_csl/src/csl_mmcsd.c",line 1475,column 13,is_stmt
        MOV #-6, T0
        B $C$L87  ; |1475| 
                                        ; branch occurs ; |1475| 
$C$L86:    
	.dwpsn	file "../c5535_bsl_revc/ezdsp5535_v1/c55xx_csl/src/csl_mmcsd.c",line 1484,column 13,is_stmt
        MOV dbl(*SP(#0)), XAR3
        MOV *AR3, AR3 ; |1484| 
        MOV port(*AR3(short(#4))), AR1 ; |1484| 
        MOV dbl(*SP(#0)), XAR3
        MOV *AR3, AR3 ; |1484| 
        BCLR @#8, AR1 ; |1484| 
        MOV AR1, port(*AR3(short(#4))) ; |1484| 
	.dwpsn	file "../c5535_bsl_revc/ezdsp5535_v1/c55xx_csl/src/csl_mmcsd.c",line 1485,column 13,is_stmt
        MOV dbl(*SP(#0)), XAR3
        MOV *AR3, AR3 ; |1485| 
        MOV port(*AR3(short(#4))), AR1 ; |1485| 
        MOV dbl(*SP(#2)), XAR3
        AND #0xff00, AR1, AR2 ; |1485| 
        MOV uns(low_byte(*AR3(short(#3)))), AR1 ; |1485| 
        MOV dbl(*SP(#0)), XAR3
        MOV *AR3, AR3 ; |1485| 
        OR AR2, AR1 ; |1485| 
        MOV AR1, port(*AR3(short(#4))) ; |1485| 
	.dwpsn	file "../c5535_bsl_revc/ezdsp5535_v1/c55xx_csl/src/csl_mmcsd.c",line 1487,column 13,is_stmt
        MOV dbl(*SP(#0)), XAR3
        MOV *AR3, AR3 ; |1487| 
        MOV port(*AR3(short(#4))), AR1 ; |1487| 
        MOV dbl(*SP(#2)), XAR3
        MOV *AR3(short(#1)), AC0 ; |1487| 
        MOV dbl(*SP(#0)), XAR3
        MOV *AR3, AR3 ; |1487| 

        AND #0xff3f, AR1, AR1 ; |1487| 
||      SFTL AC0, #6, AC0 ; |1487| 

        AND #0x00c0, AC0, AR2 ; |1487| 
        OR AR1, AR2 ; |1487| 
        MOV AR2, port(*AR3(short(#4))) ; |1487| 
	.dwpsn	file "../c5535_bsl_revc/ezdsp5535_v1/c55xx_csl/src/csl_mmcsd.c",line 1490,column 13,is_stmt
        MOV dbl(*SP(#2)), XAR3
        MOV *AR3(short(#4)), AR1 ; |1490| 
        MOV dbl(*SP(#0)), XAR3
        MOV #20, T0 ; |1490| 
        MOV *AR3, AR3 ; |1490| 
        MOV AR1, port(*AR3(T0)) ; |1490| 
	.dwpsn	file "../c5535_bsl_revc/ezdsp5535_v1/c55xx_csl/src/csl_mmcsd.c",line 1491,column 13,is_stmt
        MOV dbl(*SP(#2)), XAR3
        MOV *AR3(short(#5)), AR1 ; |1491| 
        MOV dbl(*SP(#0)), XAR3
        MOV #24, T0 ; |1491| 
        MOV *AR3, AR3 ; |1491| 
        MOV AR1, port(*AR3(T0)) ; |1491| 
	.dwpsn	file "../c5535_bsl_revc/ezdsp5535_v1/c55xx_csl/src/csl_mmcsd.c",line 1492,column 13,is_stmt
        MOV dbl(*SP(#2)), XAR3
        MOV *AR3(short(#6)), AR1 ; |1492| 
        MOV dbl(*SP(#0)), XAR3
        MOV #28, T0 ; |1492| 
        MOV *AR3, AR3 ; |1492| 
        MOV AR1, port(*AR3(T0)) ; |1492| 
	.dwpsn	file "../c5535_bsl_revc/ezdsp5535_v1/c55xx_csl/src/csl_mmcsd.c",line 1494,column 13,is_stmt
        MOV #0, T0
$C$L87:    
	.dwpsn	file "../c5535_bsl_revc/ezdsp5535_v1/c55xx_csl/src/csl_mmcsd.c",line 1497,column 1,is_stmt
        AADD #5, SP
	.dwcfi	cfa_offset, 1
$C$DW$123	.dwtag  DW_TAG_TI_branch
	.dwattr $C$DW$123, DW_AT_low_pc(0x00)
	.dwattr $C$DW$123, DW_AT_TI_return
        RET
                                        ; return occurs
	.dwattr $C$DW$118, DW_AT_TI_end_file("../c5535_bsl_revc/ezdsp5535_v1/c55xx_csl/src/csl_mmcsd.c")
	.dwattr $C$DW$118, DW_AT_TI_end_line(0x5d9)
	.dwattr $C$DW$118, DW_AT_TI_end_column(0x01)
	.dwendentry
	.dwendtag $C$DW$118

	.sect	".text"
	.align 4
	.global	_MMC_config

$C$DW$124	.dwtag  DW_TAG_subprogram, DW_AT_name("MMC_config")
	.dwattr $C$DW$124, DW_AT_low_pc(_MMC_config)
	.dwattr $C$DW$124, DW_AT_high_pc(0x00)
	.dwattr $C$DW$124, DW_AT_TI_symbol_name("_MMC_config")
	.dwattr $C$DW$124, DW_AT_external
	.dwattr $C$DW$124, DW_AT_type(*$C$DW$T$116)
	.dwattr $C$DW$124, DW_AT_TI_begin_file("../c5535_bsl_revc/ezdsp5535_v1/c55xx_csl/src/csl_mmcsd.c")
	.dwattr $C$DW$124, DW_AT_TI_begin_line(0x610)
	.dwattr $C$DW$124, DW_AT_TI_begin_column(0x0c)
	.dwattr $C$DW$124, DW_AT_TI_max_frame_size(0x06)
	.dwpsn	file "../c5535_bsl_revc/ezdsp5535_v1/c55xx_csl/src/csl_mmcsd.c",line 1554,column 1,is_stmt,address _MMC_config

	.dwfde $C$DW$CIE, _MMC_config
$C$DW$125	.dwtag  DW_TAG_formal_parameter, DW_AT_name("hMmcsd")
	.dwattr $C$DW$125, DW_AT_TI_symbol_name("_hMmcsd")
	.dwattr $C$DW$125, DW_AT_type(*$C$DW$T$114)
	.dwattr $C$DW$125, DW_AT_location[DW_OP_reg17]
$C$DW$126	.dwtag  DW_TAG_formal_parameter, DW_AT_name("pMmcConfig")
	.dwattr $C$DW$126, DW_AT_TI_symbol_name("_pMmcConfig")
	.dwattr $C$DW$126, DW_AT_type(*$C$DW$T$122)
	.dwattr $C$DW$126, DW_AT_location[DW_OP_reg19]
;*******************************************************************************
;* FUNCTION NAME: MMC_config                                                   *
;*                                                                             *
;*   Function Uses Regs : AC0,AC0,AC1,AC1,T0,AR0,XAR0,AR1,XAR1,AR3,XAR3,SP,TC1,*
;*                        M40,SATA,SATD,RDM,FRCT,SMUL                          *
;*   Stack Frame        : Compact (No Frame Pointer, w/ debug)                 *
;*   Total Frame Size   : 6 words                                              *
;*                        (2 return address/alignment)                         *
;*                        (4 local values)                                     *
;*   Min System Stack   : 1 word                                               *
;*******************************************************************************
_MMC_config:
	.dwcfi	cfa_offset, 1
	.dwcfi	save_reg_to_mem, 91, -1
        AADD #-5, SP
	.dwcfi	cfa_offset, 6
$C$DW$127	.dwtag  DW_TAG_variable, DW_AT_name("hMmcsd")
	.dwattr $C$DW$127, DW_AT_TI_symbol_name("_hMmcsd")
	.dwattr $C$DW$127, DW_AT_type(*$C$DW$T$114)
	.dwattr $C$DW$127, DW_AT_location[DW_OP_bregx 0x24 0]
$C$DW$128	.dwtag  DW_TAG_variable, DW_AT_name("pMmcConfig")
	.dwattr $C$DW$128, DW_AT_TI_symbol_name("_pMmcConfig")
	.dwattr $C$DW$128, DW_AT_type(*$C$DW$T$122)
	.dwattr $C$DW$128, DW_AT_location[DW_OP_bregx 0x24 2]
        MOV XAR1, dbl(*SP(#2))
        MOV XAR0, dbl(*SP(#0))
	.dwpsn	file "../c5535_bsl_revc/ezdsp5535_v1/c55xx_csl/src/csl_mmcsd.c",line 1555,column 5,is_stmt
        MOV dbl(*SP(#0)), XAR3

        MOV XAR3, AC0
||      MOV #0, AC1 ; |1555| 

        CMPU AC1 != AC0, TC1 ; |1555| 
        BCC $C$L88,TC1 ; |1555| 
                                        ; branchcc occurs ; |1555| 
	.dwpsn	file "../c5535_bsl_revc/ezdsp5535_v1/c55xx_csl/src/csl_mmcsd.c",line 1557,column 9,is_stmt
        MOV #-5, T0
        B $C$L90  ; |1557| 
                                        ; branch occurs ; |1557| 
$C$L88:    
	.dwpsn	file "../c5535_bsl_revc/ezdsp5535_v1/c55xx_csl/src/csl_mmcsd.c",line 1561,column 9,is_stmt
        MOV dbl(*SP(#2)), XAR3
        MOV XAR3, AC0
        CMPU AC1 != AC0, TC1 ; |1561| 
        BCC $C$L89,TC1 ; |1561| 
                                        ; branchcc occurs ; |1561| 
	.dwpsn	file "../c5535_bsl_revc/ezdsp5535_v1/c55xx_csl/src/csl_mmcsd.c",line 1563,column 13,is_stmt
        MOV #-6, T0
        B $C$L90  ; |1563| 
                                        ; branch occurs ; |1563| 
$C$L89:    
	.dwpsn	file "../c5535_bsl_revc/ezdsp5535_v1/c55xx_csl/src/csl_mmcsd.c",line 1567,column 13,is_stmt
        MOV *AR3, AR1 ; |1567| 
        MOV dbl(*SP(#0)), XAR3
        MOV *AR3, AR3 ; |1567| 
        MOV AR1, port(*AR3) ; |1567| 
	.dwpsn	file "../c5535_bsl_revc/ezdsp5535_v1/c55xx_csl/src/csl_mmcsd.c",line 1568,column 13,is_stmt
        MOV dbl(*SP(#2)), XAR3
        MOV *AR3(short(#1)), AR1 ; |1568| 
        MOV dbl(*SP(#0)), XAR3
        MOV *AR3, AR3 ; |1568| 
        MOV AR1, port(*AR3(short(#4))) ; |1568| 
	.dwpsn	file "../c5535_bsl_revc/ezdsp5535_v1/c55xx_csl/src/csl_mmcsd.c",line 1569,column 13,is_stmt
        MOV dbl(*SP(#2)), XAR3
        MOV *AR3(short(#2)), AR1 ; |1569| 
        MOV dbl(*SP(#0)), XAR3
        MOV #16, T0 ; |1569| 
        MOV *AR3, AR3 ; |1569| 
        MOV AR1, port(*AR3(T0)) ; |1569| 
	.dwpsn	file "../c5535_bsl_revc/ezdsp5535_v1/c55xx_csl/src/csl_mmcsd.c",line 1570,column 13,is_stmt
        MOV dbl(*SP(#2)), XAR3
        MOV *AR3(short(#3)), AR1 ; |1570| 
        MOV dbl(*SP(#0)), XAR3
        MOV #20, T0 ; |1570| 
        MOV *AR3, AR3 ; |1570| 
        MOV AR1, port(*AR3(T0)) ; |1570| 
	.dwpsn	file "../c5535_bsl_revc/ezdsp5535_v1/c55xx_csl/src/csl_mmcsd.c",line 1571,column 13,is_stmt
        MOV dbl(*SP(#2)), XAR3
        MOV *AR3(short(#4)), AR1 ; |1571| 
        MOV dbl(*SP(#0)), XAR3
        MOV #24, T0 ; |1571| 
        MOV *AR3, AR3 ; |1571| 
        MOV AR1, port(*AR3(T0)) ; |1571| 
	.dwpsn	file "../c5535_bsl_revc/ezdsp5535_v1/c55xx_csl/src/csl_mmcsd.c",line 1572,column 13,is_stmt
        MOV dbl(*SP(#2)), XAR3
        MOV *AR3(short(#5)), AR1 ; |1572| 
        MOV dbl(*SP(#0)), XAR3
        MOV #28, T0 ; |1572| 
        MOV *AR3, AR3 ; |1572| 
        MOV AR1, port(*AR3(T0)) ; |1572| 
	.dwpsn	file "../c5535_bsl_revc/ezdsp5535_v1/c55xx_csl/src/csl_mmcsd.c",line 1573,column 13,is_stmt
        MOV dbl(*SP(#2)), XAR3
        MOV *AR3(short(#6)), AR1 ; |1573| 
        MOV dbl(*SP(#0)), XAR3
        MOV #32, T0 ; |1573| 
        MOV *AR3, AR3 ; |1573| 
        MOV AR1, port(*AR3(T0)) ; |1573| 
	.dwpsn	file "../c5535_bsl_revc/ezdsp5535_v1/c55xx_csl/src/csl_mmcsd.c",line 1574,column 13,is_stmt
        MOV #0, T0
$C$L90:    
	.dwpsn	file "../c5535_bsl_revc/ezdsp5535_v1/c55xx_csl/src/csl_mmcsd.c",line 1577,column 1,is_stmt
        AADD #5, SP
	.dwcfi	cfa_offset, 1
$C$DW$129	.dwtag  DW_TAG_TI_branch
	.dwattr $C$DW$129, DW_AT_low_pc(0x00)
	.dwattr $C$DW$129, DW_AT_TI_return
        RET
                                        ; return occurs
	.dwattr $C$DW$124, DW_AT_TI_end_file("../c5535_bsl_revc/ezdsp5535_v1/c55xx_csl/src/csl_mmcsd.c")
	.dwattr $C$DW$124, DW_AT_TI_end_line(0x629)
	.dwattr $C$DW$124, DW_AT_TI_end_column(0x01)
	.dwendentry
	.dwendtag $C$DW$124

	.sect	".text"
	.align 4
	.global	_MMC_getConfig

$C$DW$130	.dwtag  DW_TAG_subprogram, DW_AT_name("MMC_getConfig")
	.dwattr $C$DW$130, DW_AT_low_pc(_MMC_getConfig)
	.dwattr $C$DW$130, DW_AT_high_pc(0x00)
	.dwattr $C$DW$130, DW_AT_TI_symbol_name("_MMC_getConfig")
	.dwattr $C$DW$130, DW_AT_external
	.dwattr $C$DW$130, DW_AT_type(*$C$DW$T$116)
	.dwattr $C$DW$130, DW_AT_TI_begin_file("../c5535_bsl_revc/ezdsp5535_v1/c55xx_csl/src/csl_mmcsd.c")
	.dwattr $C$DW$130, DW_AT_TI_begin_line(0x657)
	.dwattr $C$DW$130, DW_AT_TI_begin_column(0x0c)
	.dwattr $C$DW$130, DW_AT_TI_max_frame_size(0x06)
	.dwpsn	file "../c5535_bsl_revc/ezdsp5535_v1/c55xx_csl/src/csl_mmcsd.c",line 1625,column 1,is_stmt,address _MMC_getConfig

	.dwfde $C$DW$CIE, _MMC_getConfig
$C$DW$131	.dwtag  DW_TAG_formal_parameter, DW_AT_name("hMmcsd")
	.dwattr $C$DW$131, DW_AT_TI_symbol_name("_hMmcsd")
	.dwattr $C$DW$131, DW_AT_type(*$C$DW$T$114)
	.dwattr $C$DW$131, DW_AT_location[DW_OP_reg17]
$C$DW$132	.dwtag  DW_TAG_formal_parameter, DW_AT_name("pMmcConfig")
	.dwattr $C$DW$132, DW_AT_TI_symbol_name("_pMmcConfig")
	.dwattr $C$DW$132, DW_AT_type(*$C$DW$T$122)
	.dwattr $C$DW$132, DW_AT_location[DW_OP_reg19]
;*******************************************************************************
;* FUNCTION NAME: MMC_getConfig                                                *
;*                                                                             *
;*   Function Uses Regs : AC0,AC0,AC1,AC1,T0,AR0,XAR0,AR1,XAR1,AR3,XAR3,SP,TC1,*
;*                        M40,SATA,SATD,RDM,FRCT,SMUL                          *
;*   Stack Frame        : Compact (No Frame Pointer, w/ debug)                 *
;*   Total Frame Size   : 6 words                                              *
;*                        (2 return address/alignment)                         *
;*                        (4 local values)                                     *
;*   Min System Stack   : 1 word                                               *
;*******************************************************************************
_MMC_getConfig:
	.dwcfi	cfa_offset, 1
	.dwcfi	save_reg_to_mem, 91, -1
        AADD #-5, SP
	.dwcfi	cfa_offset, 6
$C$DW$133	.dwtag  DW_TAG_variable, DW_AT_name("hMmcsd")
	.dwattr $C$DW$133, DW_AT_TI_symbol_name("_hMmcsd")
	.dwattr $C$DW$133, DW_AT_type(*$C$DW$T$114)
	.dwattr $C$DW$133, DW_AT_location[DW_OP_bregx 0x24 0]
$C$DW$134	.dwtag  DW_TAG_variable, DW_AT_name("pMmcConfig")
	.dwattr $C$DW$134, DW_AT_TI_symbol_name("_pMmcConfig")
	.dwattr $C$DW$134, DW_AT_type(*$C$DW$T$122)
	.dwattr $C$DW$134, DW_AT_location[DW_OP_bregx 0x24 2]
        MOV XAR1, dbl(*SP(#2))
        MOV XAR0, dbl(*SP(#0))
	.dwpsn	file "../c5535_bsl_revc/ezdsp5535_v1/c55xx_csl/src/csl_mmcsd.c",line 1626,column 5,is_stmt
        MOV dbl(*SP(#0)), XAR3

        MOV XAR3, AC0
||      MOV #0, AC1 ; |1626| 

        CMPU AC1 != AC0, TC1 ; |1626| 
        BCC $C$L91,TC1 ; |1626| 
                                        ; branchcc occurs ; |1626| 
	.dwpsn	file "../c5535_bsl_revc/ezdsp5535_v1/c55xx_csl/src/csl_mmcsd.c",line 1628,column 9,is_stmt
        MOV #-5, T0
        B $C$L93  ; |1628| 
                                        ; branch occurs ; |1628| 
$C$L91:    
	.dwpsn	file "../c5535_bsl_revc/ezdsp5535_v1/c55xx_csl/src/csl_mmcsd.c",line 1632,column 9,is_stmt
        MOV dbl(*SP(#2)), XAR3
        MOV XAR3, AC0
        CMPU AC1 != AC0, TC1 ; |1632| 
        BCC $C$L92,TC1 ; |1632| 
                                        ; branchcc occurs ; |1632| 
	.dwpsn	file "../c5535_bsl_revc/ezdsp5535_v1/c55xx_csl/src/csl_mmcsd.c",line 1634,column 13,is_stmt
        MOV #-6, T0
        B $C$L93  ; |1634| 
                                        ; branch occurs ; |1634| 
$C$L92:    
	.dwpsn	file "../c5535_bsl_revc/ezdsp5535_v1/c55xx_csl/src/csl_mmcsd.c",line 1638,column 13,is_stmt
        MOV dbl(*SP(#0)), XAR3
        MOV *AR3, AR3 ; |1638| 
        MOV port(*AR3), AR1 ; |1638| 
        MOV dbl(*SP(#2)), XAR3
        MOV AR1, *AR3 ; |1638| 
	.dwpsn	file "../c5535_bsl_revc/ezdsp5535_v1/c55xx_csl/src/csl_mmcsd.c",line 1639,column 13,is_stmt
        MOV dbl(*SP(#0)), XAR3
        MOV *AR3, AR3 ; |1639| 
        MOV port(*AR3(short(#4))), AR1 ; |1639| 
        MOV dbl(*SP(#2)), XAR3
        MOV AR1, *AR3(short(#1)) ; |1639| 
	.dwpsn	file "../c5535_bsl_revc/ezdsp5535_v1/c55xx_csl/src/csl_mmcsd.c",line 1640,column 13,is_stmt
        MOV dbl(*SP(#0)), XAR3
        MOV #16, T0 ; |1640| 
        MOV *AR3, AR3 ; |1640| 
        MOV port(*AR3(T0)), AR1 ; |1640| 
        MOV dbl(*SP(#2)), XAR3
        MOV AR1, *AR3(short(#2)) ; |1640| 
	.dwpsn	file "../c5535_bsl_revc/ezdsp5535_v1/c55xx_csl/src/csl_mmcsd.c",line 1641,column 13,is_stmt
        MOV dbl(*SP(#0)), XAR3
        MOV #20, T0 ; |1641| 
        MOV *AR3, AR3 ; |1641| 
        MOV port(*AR3(T0)), AR1 ; |1641| 
        MOV dbl(*SP(#2)), XAR3
        MOV AR1, *AR3(short(#3)) ; |1641| 
	.dwpsn	file "../c5535_bsl_revc/ezdsp5535_v1/c55xx_csl/src/csl_mmcsd.c",line 1642,column 13,is_stmt
        MOV dbl(*SP(#0)), XAR3
        MOV #24, T0 ; |1642| 
        MOV *AR3, AR3 ; |1642| 
        MOV port(*AR3(T0)), AR1 ; |1642| 
        MOV dbl(*SP(#2)), XAR3
        MOV AR1, *AR3(short(#4)) ; |1642| 
	.dwpsn	file "../c5535_bsl_revc/ezdsp5535_v1/c55xx_csl/src/csl_mmcsd.c",line 1643,column 13,is_stmt
        MOV dbl(*SP(#0)), XAR3
        MOV #28, T0 ; |1643| 
        MOV *AR3, AR3 ; |1643| 
        MOV port(*AR3(T0)), AR1 ; |1643| 
        MOV dbl(*SP(#2)), XAR3
        MOV AR1, *AR3(short(#5)) ; |1643| 
	.dwpsn	file "../c5535_bsl_revc/ezdsp5535_v1/c55xx_csl/src/csl_mmcsd.c",line 1644,column 13,is_stmt
        MOV dbl(*SP(#0)), XAR3
        MOV #32, T0 ; |1644| 
        MOV *AR3, AR3 ; |1644| 
        MOV port(*AR3(T0)), AR1 ; |1644| 
        MOV dbl(*SP(#2)), XAR3
        MOV AR1, *AR3(short(#6)) ; |1644| 
	.dwpsn	file "../c5535_bsl_revc/ezdsp5535_v1/c55xx_csl/src/csl_mmcsd.c",line 1645,column 13,is_stmt
        MOV #0, T0
$C$L93:    
	.dwpsn	file "../c5535_bsl_revc/ezdsp5535_v1/c55xx_csl/src/csl_mmcsd.c",line 1648,column 1,is_stmt
        AADD #5, SP
	.dwcfi	cfa_offset, 1
$C$DW$135	.dwtag  DW_TAG_TI_branch
	.dwattr $C$DW$135, DW_AT_low_pc(0x00)
	.dwattr $C$DW$135, DW_AT_TI_return
        RET
                                        ; return occurs
	.dwattr $C$DW$130, DW_AT_TI_end_file("../c5535_bsl_revc/ezdsp5535_v1/c55xx_csl/src/csl_mmcsd.c")
	.dwattr $C$DW$130, DW_AT_TI_end_line(0x670)
	.dwattr $C$DW$130, DW_AT_TI_end_column(0x01)
	.dwendentry
	.dwendtag $C$DW$130

	.sect	".text"
	.align 4
	.global	_MMC_sendCmd

$C$DW$136	.dwtag  DW_TAG_subprogram, DW_AT_name("MMC_sendCmd")
	.dwattr $C$DW$136, DW_AT_low_pc(_MMC_sendCmd)
	.dwattr $C$DW$136, DW_AT_high_pc(0x00)
	.dwattr $C$DW$136, DW_AT_TI_symbol_name("_MMC_sendCmd")
	.dwattr $C$DW$136, DW_AT_external
	.dwattr $C$DW$136, DW_AT_type(*$C$DW$T$116)
	.dwattr $C$DW$136, DW_AT_TI_begin_file("../c5535_bsl_revc/ezdsp5535_v1/c55xx_csl/src/csl_mmcsd.c")
	.dwattr $C$DW$136, DW_AT_TI_begin_line(0x6ad)
	.dwattr $C$DW$136, DW_AT_TI_begin_column(0x0c)
	.dwattr $C$DW$136, DW_AT_TI_max_frame_size(0x0a)
	.dwpsn	file "../c5535_bsl_revc/ezdsp5535_v1/c55xx_csl/src/csl_mmcsd.c",line 1713,column 1,is_stmt,address _MMC_sendCmd

	.dwfde $C$DW$CIE, _MMC_sendCmd
$C$DW$137	.dwtag  DW_TAG_formal_parameter, DW_AT_name("hMmcsd")
	.dwattr $C$DW$137, DW_AT_TI_symbol_name("_hMmcsd")
	.dwattr $C$DW$137, DW_AT_type(*$C$DW$T$114)
	.dwattr $C$DW$137, DW_AT_location[DW_OP_reg17]
$C$DW$138	.dwtag  DW_TAG_formal_parameter, DW_AT_name("cmd")
	.dwattr $C$DW$138, DW_AT_TI_symbol_name("_cmd")
	.dwattr $C$DW$138, DW_AT_type(*$C$DW$T$49)
	.dwattr $C$DW$138, DW_AT_location[DW_OP_reg0]
$C$DW$139	.dwtag  DW_TAG_formal_parameter, DW_AT_name("arg")
	.dwattr $C$DW$139, DW_AT_TI_symbol_name("_arg")
	.dwattr $C$DW$139, DW_AT_type(*$C$DW$T$49)
	.dwattr $C$DW$139, DW_AT_location[DW_OP_reg3]
$C$DW$140	.dwtag  DW_TAG_formal_parameter, DW_AT_name("waitForRsp")
	.dwattr $C$DW$140, DW_AT_TI_symbol_name("_waitForRsp")
	.dwattr $C$DW$140, DW_AT_type(*$C$DW$T$19)
	.dwattr $C$DW$140, DW_AT_location[DW_OP_reg12]
;*******************************************************************************
;* FUNCTION NAME: MMC_sendCmd                                                  *
;*                                                                             *
;*   Function Uses Regs : AC0,AC0,AC1,AC1,T0,AR0,XAR0,AR1,AR3,XAR3,SP,CARRY,   *
;*                        TC1,M40,SATA,SATD,RDM,FRCT,SMUL                      *
;*   Stack Frame        : Compact (No Frame Pointer, w/ debug)                 *
;*   Total Frame Size   : 10 words                                             *
;*                        (2 return address/alignment)                         *
;*                        (8 local values)                                     *
;*   Min System Stack   : 1 word                                               *
;*******************************************************************************
_MMC_sendCmd:
	.dwcfi	cfa_offset, 1
	.dwcfi	save_reg_to_mem, 91, -1
        AADD #-9, SP
	.dwcfi	cfa_offset, 10
$C$DW$141	.dwtag  DW_TAG_variable, DW_AT_name("hMmcsd")
	.dwattr $C$DW$141, DW_AT_TI_symbol_name("_hMmcsd")
	.dwattr $C$DW$141, DW_AT_type(*$C$DW$T$114)
	.dwattr $C$DW$141, DW_AT_location[DW_OP_bregx 0x24 0]
$C$DW$142	.dwtag  DW_TAG_variable, DW_AT_name("cmd")
	.dwattr $C$DW$142, DW_AT_TI_symbol_name("_cmd")
	.dwattr $C$DW$142, DW_AT_type(*$C$DW$T$49)
	.dwattr $C$DW$142, DW_AT_location[DW_OP_bregx 0x24 2]
$C$DW$143	.dwtag  DW_TAG_variable, DW_AT_name("arg")
	.dwattr $C$DW$143, DW_AT_TI_symbol_name("_arg")
	.dwattr $C$DW$143, DW_AT_type(*$C$DW$T$49)
	.dwattr $C$DW$143, DW_AT_location[DW_OP_bregx 0x24 4]
$C$DW$144	.dwtag  DW_TAG_variable, DW_AT_name("waitForRsp")
	.dwattr $C$DW$144, DW_AT_TI_symbol_name("_waitForRsp")
	.dwattr $C$DW$144, DW_AT_type(*$C$DW$T$19)
	.dwattr $C$DW$144, DW_AT_location[DW_OP_bregx 0x24 6]
$C$DW$145	.dwtag  DW_TAG_variable, DW_AT_name("status")
	.dwattr $C$DW$145, DW_AT_TI_symbol_name("_status")
	.dwattr $C$DW$145, DW_AT_type(*$C$DW$T$20)
	.dwattr $C$DW$145, DW_AT_location[DW_OP_bregx 0x24 7]
        MOV T0, *SP(#6) ; |1713| 
        MOV AC1, dbl(*SP(#4)) ; |1713| 
        MOV AC0, dbl(*SP(#2)) ; |1713| 
        MOV XAR0, dbl(*SP(#0))
	.dwpsn	file "../c5535_bsl_revc/ezdsp5535_v1/c55xx_csl/src/csl_mmcsd.c",line 1716,column 5,is_stmt
        MOV dbl(*SP(#0)), XAR3

        MOV XAR3, AC0
||      MOV #0, AC1 ; |1716| 

        CMPU AC1 != AC0, TC1 ; |1716| 
        BCC $C$L94,TC1 ; |1716| 
                                        ; branchcc occurs ; |1716| 
	.dwpsn	file "../c5535_bsl_revc/ezdsp5535_v1/c55xx_csl/src/csl_mmcsd.c",line 1718,column 9,is_stmt
        MOV #-5, T0
        B $C$L98  ; |1718| 
                                        ; branch occurs ; |1718| 
$C$L94:    
	.dwpsn	file "../c5535_bsl_revc/ezdsp5535_v1/c55xx_csl/src/csl_mmcsd.c",line 1722,column 9,is_stmt
        MOV #52, T0 ; |1722| 
        MOV *AR3, AR3 ; |1722| 
        MOV port(*AR3(T0)), AR1 ; |1722| 
        MOV dbl(*SP(#0)), XAR3
        MOV *AR3, AR3 ; |1722| 
        MOV dbl(*SP(#4)), AC0 ; |1722| 
        AND #0xffff, AC0, AC0 ; |1722| 
        OR #0x0000, AC0, AC0 ; |1722| 
        MOV AC0, port(*AR3(T0)) ; |1722| 
	.dwpsn	file "../c5535_bsl_revc/ezdsp5535_v1/c55xx_csl/src/csl_mmcsd.c",line 1724,column 9,is_stmt
        MOV dbl(*SP(#0)), XAR3
        MOV #53, T0 ; |1724| 
        MOV *AR3, AR3 ; |1724| 
        MOV port(*AR3(T0)), AR1 ; |1724| 
        MOV dbl(*SP(#0)), XAR3
        MOV *AR3, AR3 ; |1724| 
        MOV dbl(*SP(#4)), AC0 ; |1724| 
        SFTL AC0, #-16, AC0 ; |1724| 
        AND #0xffff, AC0, AC0 ; |1724| 
        OR #0x0000, AC0, AC0 ; |1724| 
        MOV AC0, port(*AR3(T0)) ; |1724| 
	.dwpsn	file "../c5535_bsl_revc/ezdsp5535_v1/c55xx_csl/src/csl_mmcsd.c",line 1727,column 9,is_stmt
        MOV dbl(*SP(#0)), XAR3
        MOV #48, T0 ; |1727| 
        MOV *AR3, AR3 ; |1727| 
        MOV dbl(*SP(#2)), AC0 ; |1727| 
        AND #0xffff, AC0, AC0 ; |1727| 
        MOV AC0, port(*AR3(T0)) ; |1727| 
        MOV #8, T0
$C$L95:    
$C$DW$L$_MMC_sendCmd$5$B:
	.dwpsn	file "../c5535_bsl_revc/ezdsp5535_v1/c55xx_csl/src/csl_mmcsd.c",line 1731,column 13,is_stmt
        MOV dbl(*SP(#0)), XAR3
        MOV *AR3, AR3 ; |1731| 
        MOV port(*AR3(T0)), AR1 ; |1731| 
        MOV AR1, *SP(#7) ; |1731| 
        NOP
        NOP
        NOP
	.dwpsn	file "../c5535_bsl_revc/ezdsp5535_v1/c55xx_csl/src/csl_mmcsd.c",line 1732,column 4,is_stmt
        BAND *SP(#7), #144, TC1 ; |1732| 
        BCC $C$L97,!TC1 ; |1732| 
                                        ; branchcc occurs ; |1732| 
$C$DW$L$_MMC_sendCmd$5$E:
	.dwpsn	file "../c5535_bsl_revc/ezdsp5535_v1/c55xx_csl/src/csl_mmcsd.c",line 1734,column 5,is_stmt
        BTST #4, *SP(#7), TC1 ; |1734| 
        BCC $C$L96,!TC1 ; |1734| 
                                        ; branchcc occurs ; |1734| 
	.dwpsn	file "../c5535_bsl_revc/ezdsp5535_v1/c55xx_csl/src/csl_mmcsd.c",line 1736,column 6,is_stmt
        MOV #-10, T0
        B $C$L98  ; |1736| 
                                        ; branch occurs ; |1736| 
$C$L96:    
	.dwpsn	file "../c5535_bsl_revc/ezdsp5535_v1/c55xx_csl/src/csl_mmcsd.c",line 1740,column 6,is_stmt
        MOV #-15, T0
        B $C$L98  ; |1740| 
                                        ; branch occurs ; |1740| 
$C$L97:    
$C$DW$L$_MMC_sendCmd$10$B:
	.dwpsn	file "../c5535_bsl_revc/ezdsp5535_v1/c55xx_csl/src/csl_mmcsd.c",line 1743,column 17,is_stmt
        BTST #2, *SP(#7), TC1 ; |1743| 
        BCC $C$L95,!TC1 ; |1743| 
                                        ; branchcc occurs ; |1743| 
$C$DW$L$_MMC_sendCmd$10$E:
	.dwpsn	file "../c5535_bsl_revc/ezdsp5535_v1/c55xx_csl/src/csl_mmcsd.c",line 1750,column 3,is_stmt
        MOV dbl(*SP(#0)), XAR3
        MOV #49, T0 ; |1750| 
        MOV *AR3, AR3 ; |1750| 
        MOV dbl(*SP(#2)), AC0 ; |1750| 
        SFTL AC0, #-16, AC0 ; |1750| 
        AND #0xffff, AC0, AC0 ; |1750| 
        MOV AC0, port(*AR3(T0)) ; |1750| 
	.dwpsn	file "../c5535_bsl_revc/ezdsp5535_v1/c55xx_csl/src/csl_mmcsd.c",line 1753,column 9,is_stmt
        MOV #0, T0
$C$L98:    
	.dwpsn	file "../c5535_bsl_revc/ezdsp5535_v1/c55xx_csl/src/csl_mmcsd.c",line 1755,column 1,is_stmt
        AADD #9, SP
	.dwcfi	cfa_offset, 1
$C$DW$146	.dwtag  DW_TAG_TI_branch
	.dwattr $C$DW$146, DW_AT_low_pc(0x00)
	.dwattr $C$DW$146, DW_AT_TI_return
        RET
                                        ; return occurs

$C$DW$147	.dwtag  DW_TAG_TI_loop
	.dwattr $C$DW$147, DW_AT_name("F:\eZdsp_DBG\eZDSP_5535_Files\ccsws2\test\Debug\csl_mmcsd.asm:$C$L95:1:1536993106")
	.dwattr $C$DW$147, DW_AT_TI_begin_file("../c5535_bsl_revc/ezdsp5535_v1/c55xx_csl/src/csl_mmcsd.c")
	.dwattr $C$DW$147, DW_AT_TI_begin_line(0x6c1)
	.dwattr $C$DW$147, DW_AT_TI_end_line(0x6cf)
$C$DW$148	.dwtag  DW_TAG_TI_loop_range
	.dwattr $C$DW$148, DW_AT_low_pc($C$DW$L$_MMC_sendCmd$5$B)
	.dwattr $C$DW$148, DW_AT_high_pc($C$DW$L$_MMC_sendCmd$5$E)
$C$DW$149	.dwtag  DW_TAG_TI_loop_range
	.dwattr $C$DW$149, DW_AT_low_pc($C$DW$L$_MMC_sendCmd$10$B)
	.dwattr $C$DW$149, DW_AT_high_pc($C$DW$L$_MMC_sendCmd$10$E)
	.dwendtag $C$DW$147

	.dwattr $C$DW$136, DW_AT_TI_end_file("../c5535_bsl_revc/ezdsp5535_v1/c55xx_csl/src/csl_mmcsd.c")
	.dwattr $C$DW$136, DW_AT_TI_end_line(0x6db)
	.dwattr $C$DW$136, DW_AT_TI_end_column(0x01)
	.dwendentry
	.dwendtag $C$DW$136

	.sect	".text"
	.align 4
	.global	_MMC_sendGoIdle

$C$DW$150	.dwtag  DW_TAG_subprogram, DW_AT_name("MMC_sendGoIdle")
	.dwattr $C$DW$150, DW_AT_low_pc(_MMC_sendGoIdle)
	.dwattr $C$DW$150, DW_AT_high_pc(0x00)
	.dwattr $C$DW$150, DW_AT_TI_symbol_name("_MMC_sendGoIdle")
	.dwattr $C$DW$150, DW_AT_external
	.dwattr $C$DW$150, DW_AT_type(*$C$DW$T$116)
	.dwattr $C$DW$150, DW_AT_TI_begin_file("../c5535_bsl_revc/ezdsp5535_v1/c55xx_csl/src/csl_mmcsd.c")
	.dwattr $C$DW$150, DW_AT_TI_begin_line(0x706)
	.dwattr $C$DW$150, DW_AT_TI_begin_column(0x0c)
	.dwattr $C$DW$150, DW_AT_TI_max_frame_size(0x04)
	.dwpsn	file "../c5535_bsl_revc/ezdsp5535_v1/c55xx_csl/src/csl_mmcsd.c",line 1799,column 1,is_stmt,address _MMC_sendGoIdle

	.dwfde $C$DW$CIE, _MMC_sendGoIdle
$C$DW$151	.dwtag  DW_TAG_formal_parameter, DW_AT_name("hMmcsd")
	.dwattr $C$DW$151, DW_AT_TI_symbol_name("_hMmcsd")
	.dwattr $C$DW$151, DW_AT_type(*$C$DW$T$114)
	.dwattr $C$DW$151, DW_AT_location[DW_OP_reg17]
;*******************************************************************************
;* FUNCTION NAME: MMC_sendGoIdle                                               *
;*                                                                             *
;*   Function Uses Regs : AC0,AC0,AC1,AC1,T0,AR0,XAR0,AR1,AR3,XAR3,SP,TC1,M40, *
;*                        SATA,SATD,RDM,FRCT,SMUL                              *
;*   Stack Frame        : Compact (No Frame Pointer, w/ debug)                 *
;*   Total Frame Size   : 4 words                                              *
;*                        (1 return address/alignment)                         *
;*                        (3 local values)                                     *
;*   Min System Stack   : 1 word                                               *
;*******************************************************************************
_MMC_sendGoIdle:
	.dwcfi	cfa_offset, 1
	.dwcfi	save_reg_to_mem, 91, -1
        AADD #-3, SP
	.dwcfi	cfa_offset, 4
$C$DW$152	.dwtag  DW_TAG_variable, DW_AT_name("hMmcsd")
	.dwattr $C$DW$152, DW_AT_TI_symbol_name("_hMmcsd")
	.dwattr $C$DW$152, DW_AT_type(*$C$DW$T$114)
	.dwattr $C$DW$152, DW_AT_location[DW_OP_bregx 0x24 0]
$C$DW$153	.dwtag  DW_TAG_variable, DW_AT_name("goIdleCmd")
	.dwattr $C$DW$153, DW_AT_TI_symbol_name("_goIdleCmd")
	.dwattr $C$DW$153, DW_AT_type(*$C$DW$T$20)
	.dwattr $C$DW$153, DW_AT_location[DW_OP_bregx 0x24 2]
        MOV XAR0, dbl(*SP(#0))
	.dwpsn	file "../c5535_bsl_revc/ezdsp5535_v1/c55xx_csl/src/csl_mmcsd.c",line 1802,column 2,is_stmt
        MOV #0, *SP(#2) ; |1802| 
	.dwpsn	file "../c5535_bsl_revc/ezdsp5535_v1/c55xx_csl/src/csl_mmcsd.c",line 1804,column 5,is_stmt
        MOV dbl(*SP(#0)), XAR3

        MOV XAR3, AC0
||      MOV #0, AC1 ; |1804| 

        CMPU AC1 != AC0, TC1 ; |1804| 
        BCC $C$L99,TC1 ; |1804| 
                                        ; branchcc occurs ; |1804| 
	.dwpsn	file "../c5535_bsl_revc/ezdsp5535_v1/c55xx_csl/src/csl_mmcsd.c",line 1806,column 9,is_stmt
        MOV #-5, T0
        B $C$L100 ; |1806| 
                                        ; branch occurs ; |1806| 
$C$L99:    
	.dwpsn	file "../c5535_bsl_revc/ezdsp5535_v1/c55xx_csl/src/csl_mmcsd.c",line 1810,column 9,is_stmt
        MOV #52, T0 ; |1810| 
        MOV *AR3, AR3 ; |1810| 
        MOV port(*AR3(T0)), AR1 ; |1810| 
        MOV dbl(*SP(#0)), XAR3
        MOV *AR3, AR3 ; |1810| 
        MOV #0, port(*AR3(T0)) ; |1810| 
	.dwpsn	file "../c5535_bsl_revc/ezdsp5535_v1/c55xx_csl/src/csl_mmcsd.c",line 1812,column 9,is_stmt
        MOV dbl(*SP(#0)), XAR3
        MOV #53, T0 ; |1812| 
        MOV *AR3, AR3 ; |1812| 
        MOV port(*AR3(T0)), AR1 ; |1812| 
        MOV dbl(*SP(#0)), XAR3
        MOV *AR3, AR3 ; |1812| 
        MOV #0, port(*AR3(T0)) ; |1812| 
	.dwpsn	file "../c5535_bsl_revc/ezdsp5535_v1/c55xx_csl/src/csl_mmcsd.c",line 1816,column 9,is_stmt
        MOV *SP(#2), AR1 ; |1816| 
        BCLR @#15, AR1 ; |1816| 
        BSET @#15, AR1 ; |1816| 
        MOV AR1, *SP(#2) ; |1816| 
        NOP
        NOP
        NOP
	.dwpsn	file "../c5535_bsl_revc/ezdsp5535_v1/c55xx_csl/src/csl_mmcsd.c",line 1817,column 9,is_stmt
        MOV *SP(#2), AR1 ; |1817| 
        BCLR @#14, AR1 ; |1817| 
        BSET @#14, AR1 ; |1817| 
        MOV AR1, *SP(#2) ; |1817| 
	.dwpsn	file "../c5535_bsl_revc/ezdsp5535_v1/c55xx_csl/src/csl_mmcsd.c",line 1818,column 9,is_stmt
        AND #0xdfff, *SP(#2) ; |1818| 
	.dwpsn	file "../c5535_bsl_revc/ezdsp5535_v1/c55xx_csl/src/csl_mmcsd.c",line 1819,column 9,is_stmt
        AND #0xefff, *SP(#2) ; |1819| 
	.dwpsn	file "../c5535_bsl_revc/ezdsp5535_v1/c55xx_csl/src/csl_mmcsd.c",line 1820,column 9,is_stmt
        AND #0xf7ff, *SP(#2) ; |1820| 
	.dwpsn	file "../c5535_bsl_revc/ezdsp5535_v1/c55xx_csl/src/csl_mmcsd.c",line 1821,column 9,is_stmt
        AND #0xf9ff, *SP(#2) ; |1821| 
	.dwpsn	file "../c5535_bsl_revc/ezdsp5535_v1/c55xx_csl/src/csl_mmcsd.c",line 1822,column 9,is_stmt
        AND #0xfeff, *SP(#2) ; |1822| 
	.dwpsn	file "../c5535_bsl_revc/ezdsp5535_v1/c55xx_csl/src/csl_mmcsd.c",line 1823,column 9,is_stmt
        AND #0xff7f, *SP(#2) ; |1823| 
	.dwpsn	file "../c5535_bsl_revc/ezdsp5535_v1/c55xx_csl/src/csl_mmcsd.c",line 1824,column 9,is_stmt
        AND #0xffc0, *SP(#2) ; |1824| 
	.dwpsn	file "../c5535_bsl_revc/ezdsp5535_v1/c55xx_csl/src/csl_mmcsd.c",line 1826,column 3,is_stmt
        MOV dbl(*SP(#0)), XAR3
        MOV #48, T0 ; |1826| 
        MOV *AR3, AR3 ; |1826| 
        MOV *SP(#2), AR1 ; |1826| 
        MOV AR1, port(*AR3(T0)) ; |1826| 
	.dwpsn	file "../c5535_bsl_revc/ezdsp5535_v1/c55xx_csl/src/csl_mmcsd.c",line 1828,column 9,is_stmt
        MOV #0, T0
$C$L100:    
	.dwpsn	file "../c5535_bsl_revc/ezdsp5535_v1/c55xx_csl/src/csl_mmcsd.c",line 1830,column 1,is_stmt
        AADD #3, SP
	.dwcfi	cfa_offset, 1
$C$DW$154	.dwtag  DW_TAG_TI_branch
	.dwattr $C$DW$154, DW_AT_low_pc(0x00)
	.dwattr $C$DW$154, DW_AT_TI_return
        RET
                                        ; return occurs
	.dwattr $C$DW$150, DW_AT_TI_end_file("../c5535_bsl_revc/ezdsp5535_v1/c55xx_csl/src/csl_mmcsd.c")
	.dwattr $C$DW$150, DW_AT_TI_end_line(0x726)
	.dwattr $C$DW$150, DW_AT_TI_end_column(0x01)
	.dwendentry
	.dwendtag $C$DW$150

	.sect	".text"
	.align 4
	.global	_MMC_stop

$C$DW$155	.dwtag  DW_TAG_subprogram, DW_AT_name("MMC_stop")
	.dwattr $C$DW$155, DW_AT_low_pc(_MMC_stop)
	.dwattr $C$DW$155, DW_AT_high_pc(0x00)
	.dwattr $C$DW$155, DW_AT_TI_symbol_name("_MMC_stop")
	.dwattr $C$DW$155, DW_AT_external
	.dwattr $C$DW$155, DW_AT_type(*$C$DW$T$116)
	.dwattr $C$DW$155, DW_AT_TI_begin_file("../c5535_bsl_revc/ezdsp5535_v1/c55xx_csl/src/csl_mmcsd.c")
	.dwattr $C$DW$155, DW_AT_TI_begin_line(0x758)
	.dwattr $C$DW$155, DW_AT_TI_begin_column(0x0c)
	.dwattr $C$DW$155, DW_AT_TI_max_frame_size(0x06)
	.dwpsn	file "../c5535_bsl_revc/ezdsp5535_v1/c55xx_csl/src/csl_mmcsd.c",line 1881,column 1,is_stmt,address _MMC_stop

	.dwfde $C$DW$CIE, _MMC_stop
$C$DW$156	.dwtag  DW_TAG_formal_parameter, DW_AT_name("hMmcsd")
	.dwattr $C$DW$156, DW_AT_TI_symbol_name("_hMmcsd")
	.dwattr $C$DW$156, DW_AT_type(*$C$DW$T$114)
	.dwattr $C$DW$156, DW_AT_location[DW_OP_reg17]
;*******************************************************************************
;* FUNCTION NAME: MMC_stop                                                     *
;*                                                                             *
;*   Function Uses Regs : AC0,AC0,AC1,AC1,T0,AR0,XAR0,AR1,AR3,XAR3,SP,TC1,M40, *
;*                        SATA,SATD,RDM,FRCT,SMUL                              *
;*   Stack Frame        : Compact (No Frame Pointer, w/ debug)                 *
;*   Total Frame Size   : 6 words                                              *
;*                        (1 return address/alignment)                         *
;*                        (5 local values)                                     *
;*   Min System Stack   : 1 word                                               *
;*******************************************************************************
_MMC_stop:
	.dwcfi	cfa_offset, 1
	.dwcfi	save_reg_to_mem, 91, -1
        AADD #-5, SP
	.dwcfi	cfa_offset, 6
$C$DW$157	.dwtag  DW_TAG_variable, DW_AT_name("hMmcsd")
	.dwattr $C$DW$157, DW_AT_TI_symbol_name("_hMmcsd")
	.dwattr $C$DW$157, DW_AT_type(*$C$DW$T$114)
	.dwattr $C$DW$157, DW_AT_location[DW_OP_bregx 0x24 0]
$C$DW$158	.dwtag  DW_TAG_variable, DW_AT_name("stopCmd")
	.dwattr $C$DW$158, DW_AT_TI_symbol_name("_stopCmd")
	.dwattr $C$DW$158, DW_AT_type(*$C$DW$T$19)
	.dwattr $C$DW$158, DW_AT_location[DW_OP_bregx 0x24 2]
$C$DW$159	.dwtag  DW_TAG_variable, DW_AT_name("status")
	.dwattr $C$DW$159, DW_AT_TI_symbol_name("_status")
	.dwattr $C$DW$159, DW_AT_type(*$C$DW$T$20)
	.dwattr $C$DW$159, DW_AT_location[DW_OP_bregx 0x24 3]
$C$DW$160	.dwtag  DW_TAG_variable, DW_AT_name("mmcStatus")
	.dwattr $C$DW$160, DW_AT_TI_symbol_name("_mmcStatus")
	.dwattr $C$DW$160, DW_AT_type(*$C$DW$T$20)
	.dwattr $C$DW$160, DW_AT_location[DW_OP_bregx 0x24 4]
        MOV XAR0, dbl(*SP(#0))
	.dwpsn	file "../c5535_bsl_revc/ezdsp5535_v1/c55xx_csl/src/csl_mmcsd.c",line 1886,column 2,is_stmt
        MOV #0, *SP(#2) ; |1886| 
	.dwpsn	file "../c5535_bsl_revc/ezdsp5535_v1/c55xx_csl/src/csl_mmcsd.c",line 1888,column 5,is_stmt
        MOV dbl(*SP(#0)), XAR3

        MOV XAR3, AC0
||      MOV #0, AC1 ; |1888| 

        CMPU AC1 != AC0, TC1 ; |1888| 
        BCC $C$L101,TC1 ; |1888| 
                                        ; branchcc occurs ; |1888| 
	.dwpsn	file "../c5535_bsl_revc/ezdsp5535_v1/c55xx_csl/src/csl_mmcsd.c",line 1890,column 9,is_stmt
        MOV #-5, T0
        B $C$L105 ; |1890| 
                                        ; branch occurs ; |1890| 
$C$L101:    
	.dwpsn	file "../c5535_bsl_revc/ezdsp5535_v1/c55xx_csl/src/csl_mmcsd.c",line 1894,column 9,is_stmt
        MOV #52, T0 ; |1894| 
        MOV *AR3, AR3 ; |1894| 
        MOV port(*AR3(T0)), AR1 ; |1894| 
        MOV dbl(*SP(#0)), XAR3
        MOV *AR3, AR3 ; |1894| 
        MOV #0, port(*AR3(T0)) ; |1894| 
	.dwpsn	file "../c5535_bsl_revc/ezdsp5535_v1/c55xx_csl/src/csl_mmcsd.c",line 1896,column 9,is_stmt
        MOV dbl(*SP(#0)), XAR3
        MOV #53, T0 ; |1896| 
        MOV *AR3, AR3 ; |1896| 
        MOV port(*AR3(T0)), AR1 ; |1896| 
        MOV dbl(*SP(#0)), XAR3
        MOV *AR3, AR3 ; |1896| 
        MOV #0, port(*AR3(T0)) ; |1896| 
	.dwpsn	file "../c5535_bsl_revc/ezdsp5535_v1/c55xx_csl/src/csl_mmcsd.c",line 1900,column 9,is_stmt
        AND #0x7fff, *SP(#2) ; |1900| 
	.dwpsn	file "../c5535_bsl_revc/ezdsp5535_v1/c55xx_csl/src/csl_mmcsd.c",line 1901,column 9,is_stmt
        AND #0xbfff, *SP(#2) ; |1901| 
	.dwpsn	file "../c5535_bsl_revc/ezdsp5535_v1/c55xx_csl/src/csl_mmcsd.c",line 1902,column 9,is_stmt
        AND #0xdfff, *SP(#2) ; |1902| 
	.dwpsn	file "../c5535_bsl_revc/ezdsp5535_v1/c55xx_csl/src/csl_mmcsd.c",line 1903,column 9,is_stmt
        AND #0xefff, *SP(#2) ; |1903| 
	.dwpsn	file "../c5535_bsl_revc/ezdsp5535_v1/c55xx_csl/src/csl_mmcsd.c",line 1904,column 9,is_stmt
        AND #0xf7ff, *SP(#2) ; |1904| 
	.dwpsn	file "../c5535_bsl_revc/ezdsp5535_v1/c55xx_csl/src/csl_mmcsd.c",line 1906,column 9,is_stmt
        MOV *SP(#2), AR1 ; |1906| 
        AND #0xf9ff, AR1, AC0 ; |1906| 
        BSET @#9, AC0 ; |1906| 
        MOV AC0, *SP(#2) ; |1906| 
	.dwpsn	file "../c5535_bsl_revc/ezdsp5535_v1/c55xx_csl/src/csl_mmcsd.c",line 1907,column 9,is_stmt
        MOV AC0, AR1
        BCLR @#8, AR1 ; |1907| 
        BSET @#8, AR1 ; |1907| 
        MOV AR1, *SP(#2) ; |1907| 
	.dwpsn	file "../c5535_bsl_revc/ezdsp5535_v1/c55xx_csl/src/csl_mmcsd.c",line 1908,column 3,is_stmt
        AND #0xff7f, *SP(#2) ; |1908| 
	.dwpsn	file "../c5535_bsl_revc/ezdsp5535_v1/c55xx_csl/src/csl_mmcsd.c",line 1909,column 9,is_stmt
        MOV *SP(#2), AR1 ; |1909| 
        AND #0xffc0, AR1, AR1 ; |1909| 
        OR #0x000c, AR1, AR1 ; |1909| 
        MOV AR1, *SP(#2) ; |1909| 
	.dwpsn	file "../c5535_bsl_revc/ezdsp5535_v1/c55xx_csl/src/csl_mmcsd.c",line 1911,column 3,is_stmt
        MOV dbl(*SP(#0)), XAR3
        MOV #48, T0 ; |1911| 
        MOV *AR3, AR3 ; |1911| 
        MOV AR1, port(*AR3(T0)) ; |1911| 
	.dwpsn	file "../c5535_bsl_revc/ezdsp5535_v1/c55xx_csl/src/csl_mmcsd.c",line 1913,column 3,is_stmt
        MOV #8, T0
        MOV #0, *SP(#4) ; |1913| 
$C$L102:    
$C$DW$L$_MMC_stop$5$B:
	.dwpsn	file "../c5535_bsl_revc/ezdsp5535_v1/c55xx_csl/src/csl_mmcsd.c",line 1916,column 4,is_stmt
        MOV dbl(*SP(#0)), XAR3
        MOV *AR3, AR3 ; |1916| 
        MOV port(*AR3(T0)), AR1 ; |1916| 
        MOV AR1, *SP(#3) ; |1916| 
        NOP
        NOP
        NOP
	.dwpsn	file "../c5535_bsl_revc/ezdsp5535_v1/c55xx_csl/src/csl_mmcsd.c",line 1918,column 4,is_stmt
        MOV *SP(#3), AR1 ; |1918| 
        AND #0x0004, AR1, AR1 ; |1918| 
        OR *SP(#4), AR1, AR1 ; |1918| 
        MOV AR1, *SP(#4) ; |1918| 
        NOP
        NOP
        NOP
	.dwpsn	file "../c5535_bsl_revc/ezdsp5535_v1/c55xx_csl/src/csl_mmcsd.c",line 1919,column 4,is_stmt
        MOV *SP(#3), AR1 ; |1919| 
        AND #0x0002, AR1, AR1 ; |1919| 
        OR *SP(#4), AR1, AR1 ; |1919| 
        MOV AR1, *SP(#4) ; |1919| 
        NOP
        NOP
        NOP
	.dwpsn	file "../c5535_bsl_revc/ezdsp5535_v1/c55xx_csl/src/csl_mmcsd.c",line 1921,column 4,is_stmt
        BAND *SP(#3), #144, TC1 ; |1921| 
        BCC $C$L104,!TC1 ; |1921| 
                                        ; branchcc occurs ; |1921| 
$C$DW$L$_MMC_stop$5$E:
	.dwpsn	file "../c5535_bsl_revc/ezdsp5535_v1/c55xx_csl/src/csl_mmcsd.c",line 1923,column 5,is_stmt
        BTST #4, *SP(#3), TC1 ; |1923| 
        BCC $C$L103,!TC1 ; |1923| 
                                        ; branchcc occurs ; |1923| 
	.dwpsn	file "../c5535_bsl_revc/ezdsp5535_v1/c55xx_csl/src/csl_mmcsd.c",line 1925,column 6,is_stmt
        MOV #-10, T0
        B $C$L105 ; |1925| 
                                        ; branch occurs ; |1925| 
$C$L103:    
	.dwpsn	file "../c5535_bsl_revc/ezdsp5535_v1/c55xx_csl/src/csl_mmcsd.c",line 1929,column 6,is_stmt
        MOV #-15, T0
        B $C$L105 ; |1929| 
                                        ; branch occurs ; |1929| 
$C$L104:    
$C$DW$L$_MMC_stop$10$B:
	.dwpsn	file "../c5535_bsl_revc/ezdsp5535_v1/c55xx_csl/src/csl_mmcsd.c",line 1932,column 14,is_stmt
        BTST #2, *SP(#4), TC1 ; |1932| 
        BCC $C$L102,!TC1 ; |1932| 
                                        ; branchcc occurs ; |1932| 
$C$DW$L$_MMC_stop$10$E:
$C$DW$L$_MMC_stop$11$B:
        BTST #1, *SP(#4), TC1 ; |1932| 
        BCC $C$L102,!TC1 ; |1932| 
                                        ; branchcc occurs ; |1932| 
$C$DW$L$_MMC_stop$11$E:
	.dwpsn	file "../c5535_bsl_revc/ezdsp5535_v1/c55xx_csl/src/csl_mmcsd.c",line 1935,column 6,is_stmt
        MOV #0, T0
$C$L105:    
	.dwpsn	file "../c5535_bsl_revc/ezdsp5535_v1/c55xx_csl/src/csl_mmcsd.c",line 1937,column 1,is_stmt
        AADD #5, SP
	.dwcfi	cfa_offset, 1
$C$DW$161	.dwtag  DW_TAG_TI_branch
	.dwattr $C$DW$161, DW_AT_low_pc(0x00)
	.dwattr $C$DW$161, DW_AT_TI_return
        RET
                                        ; return occurs

$C$DW$162	.dwtag  DW_TAG_TI_loop
	.dwattr $C$DW$162, DW_AT_name("F:\eZdsp_DBG\eZDSP_5535_Files\ccsws2\test\Debug\csl_mmcsd.asm:$C$L102:1:1536993106")
	.dwattr $C$DW$162, DW_AT_TI_begin_file("../c5535_bsl_revc/ezdsp5535_v1/c55xx_csl/src/csl_mmcsd.c")
	.dwattr $C$DW$162, DW_AT_TI_begin_line(0x77a)
	.dwattr $C$DW$162, DW_AT_TI_end_line(0x78c)
$C$DW$163	.dwtag  DW_TAG_TI_loop_range
	.dwattr $C$DW$163, DW_AT_low_pc($C$DW$L$_MMC_stop$5$B)
	.dwattr $C$DW$163, DW_AT_high_pc($C$DW$L$_MMC_stop$5$E)
$C$DW$164	.dwtag  DW_TAG_TI_loop_range
	.dwattr $C$DW$164, DW_AT_low_pc($C$DW$L$_MMC_stop$11$B)
	.dwattr $C$DW$164, DW_AT_high_pc($C$DW$L$_MMC_stop$11$E)
$C$DW$165	.dwtag  DW_TAG_TI_loop_range
	.dwattr $C$DW$165, DW_AT_low_pc($C$DW$L$_MMC_stop$10$B)
	.dwattr $C$DW$165, DW_AT_high_pc($C$DW$L$_MMC_stop$10$E)
	.dwendtag $C$DW$162

	.dwattr $C$DW$155, DW_AT_TI_end_file("../c5535_bsl_revc/ezdsp5535_v1/c55xx_csl/src/csl_mmcsd.c")
	.dwattr $C$DW$155, DW_AT_TI_end_line(0x791)
	.dwattr $C$DW$155, DW_AT_TI_end_column(0x01)
	.dwendentry
	.dwendtag $C$DW$155

	.sect	".text"
	.align 4
	.global	_MMC_deselectCard

$C$DW$166	.dwtag  DW_TAG_subprogram, DW_AT_name("MMC_deselectCard")
	.dwattr $C$DW$166, DW_AT_low_pc(_MMC_deselectCard)
	.dwattr $C$DW$166, DW_AT_high_pc(0x00)
	.dwattr $C$DW$166, DW_AT_TI_symbol_name("_MMC_deselectCard")
	.dwattr $C$DW$166, DW_AT_external
	.dwattr $C$DW$166, DW_AT_type(*$C$DW$T$116)
	.dwattr $C$DW$166, DW_AT_TI_begin_file("../c5535_bsl_revc/ezdsp5535_v1/c55xx_csl/src/csl_mmcsd.c")
	.dwattr $C$DW$166, DW_AT_TI_begin_line(0x7c2)
	.dwattr $C$DW$166, DW_AT_TI_begin_column(0x0c)
	.dwattr $C$DW$166, DW_AT_TI_max_frame_size(0x08)
	.dwpsn	file "../c5535_bsl_revc/ezdsp5535_v1/c55xx_csl/src/csl_mmcsd.c",line 1988,column 1,is_stmt,address _MMC_deselectCard

	.dwfde $C$DW$CIE, _MMC_deselectCard
$C$DW$167	.dwtag  DW_TAG_formal_parameter, DW_AT_name("hMmcsd")
	.dwattr $C$DW$167, DW_AT_TI_symbol_name("_hMmcsd")
	.dwattr $C$DW$167, DW_AT_type(*$C$DW$T$114)
	.dwattr $C$DW$167, DW_AT_location[DW_OP_reg17]
$C$DW$168	.dwtag  DW_TAG_formal_parameter, DW_AT_name("pMmcCardObj")
	.dwattr $C$DW$168, DW_AT_TI_symbol_name("_pMmcCardObj")
	.dwattr $C$DW$168, DW_AT_type(*$C$DW$T$82)
	.dwattr $C$DW$168, DW_AT_location[DW_OP_reg19]
;*******************************************************************************
;* FUNCTION NAME: MMC_deselectCard                                             *
;*                                                                             *
;*   Function Uses Regs : AC0,AC0,AC1,AC1,T0,AR0,XAR0,AR1,XAR1,AR3,XAR3,SP,TC1,*
;*                        M40,SATA,SATD,RDM,FRCT,SMUL                          *
;*   Stack Frame        : Compact (No Frame Pointer, w/ debug)                 *
;*   Total Frame Size   : 8 words                                              *
;*                        (1 return address/alignment)                         *
;*                        (7 local values)                                     *
;*   Min System Stack   : 1 word                                               *
;*******************************************************************************
_MMC_deselectCard:
	.dwcfi	cfa_offset, 1
	.dwcfi	save_reg_to_mem, 91, -1
        AADD #-7, SP
	.dwcfi	cfa_offset, 8
$C$DW$169	.dwtag  DW_TAG_variable, DW_AT_name("hMmcsd")
	.dwattr $C$DW$169, DW_AT_TI_symbol_name("_hMmcsd")
	.dwattr $C$DW$169, DW_AT_type(*$C$DW$T$114)
	.dwattr $C$DW$169, DW_AT_location[DW_OP_bregx 0x24 0]
$C$DW$170	.dwtag  DW_TAG_variable, DW_AT_name("pMmcCardObj")
	.dwattr $C$DW$170, DW_AT_TI_symbol_name("_pMmcCardObj")
	.dwattr $C$DW$170, DW_AT_type(*$C$DW$T$82)
	.dwattr $C$DW$170, DW_AT_location[DW_OP_bregx 0x24 2]
$C$DW$171	.dwtag  DW_TAG_variable, DW_AT_name("deselectCmd")
	.dwattr $C$DW$171, DW_AT_TI_symbol_name("_deselectCmd")
	.dwattr $C$DW$171, DW_AT_type(*$C$DW$T$19)
	.dwattr $C$DW$171, DW_AT_location[DW_OP_bregx 0x24 4]
$C$DW$172	.dwtag  DW_TAG_variable, DW_AT_name("status")
	.dwattr $C$DW$172, DW_AT_TI_symbol_name("_status")
	.dwattr $C$DW$172, DW_AT_type(*$C$DW$T$20)
	.dwattr $C$DW$172, DW_AT_location[DW_OP_bregx 0x24 5]
$C$DW$173	.dwtag  DW_TAG_variable, DW_AT_name("rca")
	.dwattr $C$DW$173, DW_AT_TI_symbol_name("_rca")
	.dwattr $C$DW$173, DW_AT_type(*$C$DW$T$19)
	.dwattr $C$DW$173, DW_AT_location[DW_OP_bregx 0x24 6]
        MOV XAR1, dbl(*SP(#2))
        MOV XAR0, dbl(*SP(#0))
	.dwpsn	file "../c5535_bsl_revc/ezdsp5535_v1/c55xx_csl/src/csl_mmcsd.c",line 1993,column 2,is_stmt
        MOV #0, *SP(#4) ; |1993| 
	.dwpsn	file "../c5535_bsl_revc/ezdsp5535_v1/c55xx_csl/src/csl_mmcsd.c",line 1994,column 2,is_stmt
        MOV #0, *SP(#6) ; |1994| 
	.dwpsn	file "../c5535_bsl_revc/ezdsp5535_v1/c55xx_csl/src/csl_mmcsd.c",line 1996,column 5,is_stmt
        MOV dbl(*SP(#0)), XAR3

        MOV XAR3, AC0
||      MOV #0, AC1 ; |1996| 

        CMPU AC1 != AC0, TC1 ; |1996| 
        BCC $C$L106,TC1 ; |1996| 
                                        ; branchcc occurs ; |1996| 
	.dwpsn	file "../c5535_bsl_revc/ezdsp5535_v1/c55xx_csl/src/csl_mmcsd.c",line 1998,column 9,is_stmt
        MOV #-5, T0
        B $C$L111 ; |1998| 
                                        ; branch occurs ; |1998| 
$C$L106:    
	.dwpsn	file "../c5535_bsl_revc/ezdsp5535_v1/c55xx_csl/src/csl_mmcsd.c",line 2002,column 9,is_stmt
        MOV dbl(*SP(#2)), XAR3
        MOV XAR3, AC0
        CMPU AC1 != AC0, TC1 ; |2002| 
        BCC $C$L107,TC1 ; |2002| 
                                        ; branchcc occurs ; |2002| 
	.dwpsn	file "../c5535_bsl_revc/ezdsp5535_v1/c55xx_csl/src/csl_mmcsd.c",line 2004,column 13,is_stmt
        MOV #-6, T0
        B $C$L111 ; |2004| 
                                        ; branch occurs ; |2004| 
$C$L107:    
	.dwpsn	file "../c5535_bsl_revc/ezdsp5535_v1/c55xx_csl/src/csl_mmcsd.c",line 2008,column 10,is_stmt
        MOV dbl(*SP(#0)), XAR3
        MOV #52, T0 ; |2008| 
        MOV *AR3, AR3 ; |2008| 
        MOV port(*AR3(T0)), AR1 ; |2008| 
        MOV dbl(*SP(#0)), XAR3
        MOV *AR3, AR3 ; |2008| 
        MOV #0, port(*AR3(T0)) ; |2008| 
	.dwpsn	file "../c5535_bsl_revc/ezdsp5535_v1/c55xx_csl/src/csl_mmcsd.c",line 2010,column 10,is_stmt
        MOV dbl(*SP(#0)), XAR3
        MOV #53, T0 ; |2010| 
        MOV *AR3, AR3 ; |2010| 
        MOV port(*AR3(T0)), AR1 ; |2010| 
        MOV dbl(*SP(#0)), XAR3
        MOV *AR3, AR3 ; |2010| 
        MOV *SP(#6), AR1 ; |2010| 
        OR #0x0000, AR1, AR1 ; |2010| 
        MOV AR1, port(*AR3(T0)) ; |2010| 
	.dwpsn	file "../c5535_bsl_revc/ezdsp5535_v1/c55xx_csl/src/csl_mmcsd.c",line 2014,column 10,is_stmt
        AND #0x7fff, *SP(#4) ; |2014| 
	.dwpsn	file "../c5535_bsl_revc/ezdsp5535_v1/c55xx_csl/src/csl_mmcsd.c",line 2015,column 10,is_stmt
        AND #0xbfff, *SP(#4) ; |2015| 
	.dwpsn	file "../c5535_bsl_revc/ezdsp5535_v1/c55xx_csl/src/csl_mmcsd.c",line 2016,column 10,is_stmt
        AND #0xdfff, *SP(#4) ; |2016| 
	.dwpsn	file "../c5535_bsl_revc/ezdsp5535_v1/c55xx_csl/src/csl_mmcsd.c",line 2017,column 10,is_stmt
        AND #0xefff, *SP(#4) ; |2017| 
	.dwpsn	file "../c5535_bsl_revc/ezdsp5535_v1/c55xx_csl/src/csl_mmcsd.c",line 2018,column 10,is_stmt
        AND #0xf7ff, *SP(#4) ; |2018| 
	.dwpsn	file "../c5535_bsl_revc/ezdsp5535_v1/c55xx_csl/src/csl_mmcsd.c",line 2020,column 4,is_stmt
        AND #0xf9ff, *SP(#4) ; |2020| 
	.dwpsn	file "../c5535_bsl_revc/ezdsp5535_v1/c55xx_csl/src/csl_mmcsd.c",line 2021,column 10,is_stmt
        AND #0xfeff, *SP(#4) ; |2021| 
	.dwpsn	file "../c5535_bsl_revc/ezdsp5535_v1/c55xx_csl/src/csl_mmcsd.c",line 2022,column 10,is_stmt
        AND #0xff7f, *SP(#4) ; |2022| 
	.dwpsn	file "../c5535_bsl_revc/ezdsp5535_v1/c55xx_csl/src/csl_mmcsd.c",line 2023,column 10,is_stmt
        MOV *SP(#4), AR1 ; |2023| 
        AND #0xffc0, AR1, AR1 ; |2023| 
        OR #0x0007, AR1, AR1 ; |2023| 
        MOV AR1, *SP(#4) ; |2023| 
	.dwpsn	file "../c5535_bsl_revc/ezdsp5535_v1/c55xx_csl/src/csl_mmcsd.c",line 2025,column 4,is_stmt
        MOV dbl(*SP(#0)), XAR3
        MOV #48, T0 ; |2025| 
        MOV *AR3, AR3 ; |2025| 
        MOV AR1, port(*AR3(T0)) ; |2025| 
        MOV #8, T0
$C$L108:    
$C$DW$L$_MMC_deselectCard$8$B:
	.dwpsn	file "../c5535_bsl_revc/ezdsp5535_v1/c55xx_csl/src/csl_mmcsd.c",line 2029,column 11,is_stmt
        MOV dbl(*SP(#0)), XAR3
        MOV *AR3, AR3 ; |2029| 
        MOV port(*AR3(T0)), AR1 ; |2029| 
        MOV AR1, *SP(#5) ; |2029| 
        NOP
        NOP
        NOP
	.dwpsn	file "../c5535_bsl_revc/ezdsp5535_v1/c55xx_csl/src/csl_mmcsd.c",line 2030,column 5,is_stmt
        BAND *SP(#5), #144, TC1 ; |2030| 
        BCC $C$L110,!TC1 ; |2030| 
                                        ; branchcc occurs ; |2030| 
$C$DW$L$_MMC_deselectCard$8$E:
	.dwpsn	file "../c5535_bsl_revc/ezdsp5535_v1/c55xx_csl/src/csl_mmcsd.c",line 2032,column 6,is_stmt
        BTST #4, *SP(#5), TC1 ; |2032| 
        BCC $C$L109,!TC1 ; |2032| 
                                        ; branchcc occurs ; |2032| 
	.dwpsn	file "../c5535_bsl_revc/ezdsp5535_v1/c55xx_csl/src/csl_mmcsd.c",line 2034,column 7,is_stmt
        MOV #-10, T0
        B $C$L111 ; |2034| 
                                        ; branch occurs ; |2034| 
$C$L109:    
	.dwpsn	file "../c5535_bsl_revc/ezdsp5535_v1/c55xx_csl/src/csl_mmcsd.c",line 2038,column 7,is_stmt
        MOV #-15, T0
        B $C$L111 ; |2038| 
                                        ; branch occurs ; |2038| 
$C$L110:    
$C$DW$L$_MMC_deselectCard$13$B:
	.dwpsn	file "../c5535_bsl_revc/ezdsp5535_v1/c55xx_csl/src/csl_mmcsd.c",line 2041,column 18,is_stmt
        BTST #2, *SP(#5), TC1 ; |2041| 
        BCC $C$L108,!TC1 ; |2041| 
                                        ; branchcc occurs ; |2041| 
$C$DW$L$_MMC_deselectCard$13$E:
	.dwpsn	file "../c5535_bsl_revc/ezdsp5535_v1/c55xx_csl/src/csl_mmcsd.c",line 2043,column 13,is_stmt
        MOV dbl(*SP(#2)), XAR3
        MOV #0, *AR3(#18) ; |2043| 
	.dwpsn	file "../c5535_bsl_revc/ezdsp5535_v1/c55xx_csl/src/csl_mmcsd.c",line 2044,column 13,is_stmt
        MOV dbl(*SP(#0)), XAR3
        MOV #0, *AR3(short(#4)) ; |2044| 
	.dwpsn	file "../c5535_bsl_revc/ezdsp5535_v1/c55xx_csl/src/csl_mmcsd.c",line 2046,column 13,is_stmt
        MOV #0, T0
$C$L111:    
	.dwpsn	file "../c5535_bsl_revc/ezdsp5535_v1/c55xx_csl/src/csl_mmcsd.c",line 2049,column 1,is_stmt
        AADD #7, SP
	.dwcfi	cfa_offset, 1
$C$DW$174	.dwtag  DW_TAG_TI_branch
	.dwattr $C$DW$174, DW_AT_low_pc(0x00)
	.dwattr $C$DW$174, DW_AT_TI_return
        RET
                                        ; return occurs

$C$DW$175	.dwtag  DW_TAG_TI_loop
	.dwattr $C$DW$175, DW_AT_name("F:\eZdsp_DBG\eZDSP_5535_Files\ccsws2\test\Debug\csl_mmcsd.asm:$C$L108:1:1536993106")
	.dwattr $C$DW$175, DW_AT_TI_begin_file("../c5535_bsl_revc/ezdsp5535_v1/c55xx_csl/src/csl_mmcsd.c")
	.dwattr $C$DW$175, DW_AT_TI_begin_line(0x7eb)
	.dwattr $C$DW$175, DW_AT_TI_end_line(0x7f9)
$C$DW$176	.dwtag  DW_TAG_TI_loop_range
	.dwattr $C$DW$176, DW_AT_low_pc($C$DW$L$_MMC_deselectCard$8$B)
	.dwattr $C$DW$176, DW_AT_high_pc($C$DW$L$_MMC_deselectCard$8$E)
$C$DW$177	.dwtag  DW_TAG_TI_loop_range
	.dwattr $C$DW$177, DW_AT_low_pc($C$DW$L$_MMC_deselectCard$13$B)
	.dwattr $C$DW$177, DW_AT_high_pc($C$DW$L$_MMC_deselectCard$13$E)
	.dwendtag $C$DW$175

	.dwattr $C$DW$166, DW_AT_TI_end_file("../c5535_bsl_revc/ezdsp5535_v1/c55xx_csl/src/csl_mmcsd.c")
	.dwattr $C$DW$166, DW_AT_TI_end_line(0x801)
	.dwattr $C$DW$166, DW_AT_TI_end_column(0x01)
	.dwendentry
	.dwendtag $C$DW$166

	.sect	".text"
	.align 4
	.global	_MMC_selectCard

$C$DW$178	.dwtag  DW_TAG_subprogram, DW_AT_name("MMC_selectCard")
	.dwattr $C$DW$178, DW_AT_low_pc(_MMC_selectCard)
	.dwattr $C$DW$178, DW_AT_high_pc(0x00)
	.dwattr $C$DW$178, DW_AT_TI_symbol_name("_MMC_selectCard")
	.dwattr $C$DW$178, DW_AT_external
	.dwattr $C$DW$178, DW_AT_type(*$C$DW$T$116)
	.dwattr $C$DW$178, DW_AT_TI_begin_file("../c5535_bsl_revc/ezdsp5535_v1/c55xx_csl/src/csl_mmcsd.c")
	.dwattr $C$DW$178, DW_AT_TI_begin_line(0x836)
	.dwattr $C$DW$178, DW_AT_TI_begin_column(0x0c)
	.dwattr $C$DW$178, DW_AT_TI_max_frame_size(0x0c)
	.dwpsn	file "../c5535_bsl_revc/ezdsp5535_v1/c55xx_csl/src/csl_mmcsd.c",line 2104,column 1,is_stmt,address _MMC_selectCard

	.dwfde $C$DW$CIE, _MMC_selectCard
$C$DW$179	.dwtag  DW_TAG_formal_parameter, DW_AT_name("hMmcsd")
	.dwattr $C$DW$179, DW_AT_TI_symbol_name("_hMmcsd")
	.dwattr $C$DW$179, DW_AT_type(*$C$DW$T$114)
	.dwattr $C$DW$179, DW_AT_location[DW_OP_reg17]
$C$DW$180	.dwtag  DW_TAG_formal_parameter, DW_AT_name("pMmcCardObj")
	.dwattr $C$DW$180, DW_AT_TI_symbol_name("_pMmcCardObj")
	.dwattr $C$DW$180, DW_AT_type(*$C$DW$T$82)
	.dwattr $C$DW$180, DW_AT_location[DW_OP_reg19]
;*******************************************************************************
;* FUNCTION NAME: MMC_selectCard                                               *
;*                                                                             *
;*   Function Uses Regs : AC0,AC0,AC1,AC1,T0,AR0,XAR0,AR1,XAR1,AR2,XAR2,AR3,   *
;*                        XAR3,SP,CARRY,TC1,M40,SATA,SATD,RDM,FRCT,SMUL        *
;*   Stack Frame        : Compact (No Frame Pointer, w/ debug)                 *
;*   Total Frame Size   : 12 words                                             *
;*                        (1 return address/alignment)                         *
;*                        (11 local values)                                    *
;*   Min System Stack   : 1 word                                               *
;*******************************************************************************
_MMC_selectCard:
	.dwcfi	cfa_offset, 1
	.dwcfi	save_reg_to_mem, 91, -1
        AADD #-11, SP
	.dwcfi	cfa_offset, 12
$C$DW$181	.dwtag  DW_TAG_variable, DW_AT_name("hMmcsd")
	.dwattr $C$DW$181, DW_AT_TI_symbol_name("_hMmcsd")
	.dwattr $C$DW$181, DW_AT_type(*$C$DW$T$114)
	.dwattr $C$DW$181, DW_AT_location[DW_OP_bregx 0x24 0]
$C$DW$182	.dwtag  DW_TAG_variable, DW_AT_name("pMmcCardObj")
	.dwattr $C$DW$182, DW_AT_TI_symbol_name("_pMmcCardObj")
	.dwattr $C$DW$182, DW_AT_type(*$C$DW$T$82)
	.dwattr $C$DW$182, DW_AT_location[DW_OP_bregx 0x24 2]
$C$DW$183	.dwtag  DW_TAG_variable, DW_AT_name("argument")
	.dwattr $C$DW$183, DW_AT_TI_symbol_name("_argument")
	.dwattr $C$DW$183, DW_AT_type(*$C$DW$T$49)
	.dwattr $C$DW$183, DW_AT_location[DW_OP_bregx 0x24 4]
$C$DW$184	.dwtag  DW_TAG_variable, DW_AT_name("resp")
	.dwattr $C$DW$184, DW_AT_TI_symbol_name("_resp")
	.dwattr $C$DW$184, DW_AT_type(*$C$DW$T$49)
	.dwattr $C$DW$184, DW_AT_location[DW_OP_bregx 0x24 6]
$C$DW$185	.dwtag  DW_TAG_variable, DW_AT_name("status")
	.dwattr $C$DW$185, DW_AT_TI_symbol_name("_status")
	.dwattr $C$DW$185, DW_AT_type(*$C$DW$T$20)
	.dwattr $C$DW$185, DW_AT_location[DW_OP_bregx 0x24 8]
$C$DW$186	.dwtag  DW_TAG_variable, DW_AT_name("cardCheck")
	.dwattr $C$DW$186, DW_AT_TI_symbol_name("_cardCheck")
	.dwattr $C$DW$186, DW_AT_type(*$C$DW$T$19)
	.dwattr $C$DW$186, DW_AT_location[DW_OP_bregx 0x24 9]
$C$DW$187	.dwtag  DW_TAG_variable, DW_AT_name("cmdRetryCnt")
	.dwattr $C$DW$187, DW_AT_TI_symbol_name("_cmdRetryCnt")
	.dwattr $C$DW$187, DW_AT_type(*$C$DW$T$19)
	.dwattr $C$DW$187, DW_AT_location[DW_OP_bregx 0x24 10]
        MOV XAR1, dbl(*SP(#2))
        MOV XAR0, dbl(*SP(#0))
	.dwpsn	file "../c5535_bsl_revc/ezdsp5535_v1/c55xx_csl/src/csl_mmcsd.c",line 2112,column 2,is_stmt
        MOV #1000, *SP(#10) ; |2112| 
	.dwpsn	file "../c5535_bsl_revc/ezdsp5535_v1/c55xx_csl/src/csl_mmcsd.c",line 2114,column 5,is_stmt
        MOV dbl(*SP(#0)), XAR3
        MOV XAR3, AC0
        BCC $C$L112,AC0 == #0 ; |2114| 
                                        ; branchcc occurs ; |2114| 
        MOV dbl(*SP(#2)), XAR3
        MOV XAR3, AC0
        BCC $C$L114,AC0 != #0 ; |2114| 
                                        ; branchcc occurs ; |2114| 
	.dwpsn	file "../c5535_bsl_revc/ezdsp5535_v1/c55xx_csl/src/csl_mmcsd.c",line 2117,column 5,is_stmt
$C$L112:    
	.dwpsn	file "../c5535_bsl_revc/ezdsp5535_v1/c55xx_csl/src/csl_mmcsd.c",line 2120,column 9,is_stmt
        MOV dbl(*SP(#0)), XAR3

        MOV XAR3, AC0
||      MOV #0, AC1 ; |2120| 

        CMPU AC1 != AC0, TC1 ; |2120| 
        BCC $C$L113,TC1 ; |2120| 
                                        ; branchcc occurs ; |2120| 
	.dwpsn	file "../c5535_bsl_revc/ezdsp5535_v1/c55xx_csl/src/csl_mmcsd.c",line 2122,column 13,is_stmt
        MOV #-5, T0
        B $C$L142 ; |2122| 
                                        ; branch occurs ; |2122| 
$C$L113:    
	.dwpsn	file "../c5535_bsl_revc/ezdsp5535_v1/c55xx_csl/src/csl_mmcsd.c",line 2126,column 13,is_stmt
        MOV #-6, T0
        B $C$L142 ; |2126| 
                                        ; branch occurs ; |2126| 
$C$L114:    
	.dwpsn	file "../c5535_bsl_revc/ezdsp5535_v1/c55xx_csl/src/csl_mmcsd.c",line 2130,column 5,is_stmt
        MOV dbl(*SP(#0)), XAR3
        MOV dbl(*SP(#2)), XAR2
        MOV XAR2, dbl(*AR3(short(#2)))
	.dwpsn	file "../c5535_bsl_revc/ezdsp5535_v1/c55xx_csl/src/csl_mmcsd.c",line 2131,column 2,is_stmt
        MOV dbl(*SP(#2)), XAR3
        MOV #0, *AR3(#18) ; |2131| 
	.dwpsn	file "../c5535_bsl_revc/ezdsp5535_v1/c55xx_csl/src/csl_mmcsd.c",line 2134,column 5,is_stmt
        MOV dbl(*SP(#0)), XAR3
        MOV *AR3, AR3 ; |2134| 
        MOV port(*AR3), AR1 ; |2134| 
        MOV dbl(*SP(#0)), XAR3
        MOV *AR3, AR3 ; |2134| 
        BCLR @#1, AR1 ; |2134| 
        BSET @#1, AR1 ; |2134| 
        MOV AR1, port(*AR3) ; |2134| 
	.dwpsn	file "../c5535_bsl_revc/ezdsp5535_v1/c55xx_csl/src/csl_mmcsd.c",line 2135,column 5,is_stmt
        MOV dbl(*SP(#0)), XAR3
        MOV *AR3, AR3 ; |2135| 
        MOV port(*AR3), AR1 ; |2135| 
        MOV dbl(*SP(#0)), XAR3
        MOV *AR3, AR3 ; |2135| 
        BCLR @#0, AR1 ; |2135| 
        BSET @#0, AR1 ; |2135| 
        MOV AR1, port(*AR3) ; |2135| 
	.dwpsn	file "../c5535_bsl_revc/ezdsp5535_v1/c55xx_csl/src/csl_mmcsd.c",line 2138,column 5,is_stmt
        MOV dbl(*SP(#0)), XAR3
        MOV #20, T0 ; |2138| 
        MOV *AR3, AR3 ; |2138| 
        MOV #65535, port(*AR3(T0)) ; |2138| 
	.dwpsn	file "../c5535_bsl_revc/ezdsp5535_v1/c55xx_csl/src/csl_mmcsd.c",line 2139,column 5,is_stmt
        MOV dbl(*SP(#0)), XAR3
        MOV #24, T0 ; |2139| 
        MOV *AR3, AR3 ; |2139| 
        MOV #65535, port(*AR3(T0)) ; |2139| 
	.dwpsn	file "../c5535_bsl_revc/ezdsp5535_v1/c55xx_csl/src/csl_mmcsd.c",line 2147,column 5,is_stmt
        MOV dbl(*SP(#0)), XAR3
        MOV *AR3, AR3 ; |2147| 
        MOV port(*AR3(short(#4))), AR1 ; |2147| 
        MOV dbl(*SP(#0)), XAR3
        MOV *AR3, AR3 ; |2147| 
        BCLR @#8, AR1 ; |2147| 
        MOV AR1, port(*AR3(short(#4))) ; |2147| 
	.dwpsn	file "../c5535_bsl_revc/ezdsp5535_v1/c55xx_csl/src/csl_mmcsd.c",line 2148,column 5,is_stmt
        MOV dbl(*SP(#0)), XAR3
        MOV *AR3, AR3 ; |2148| 
        MOV port(*AR3(short(#4))), AR1 ; |2148| 
        MOV dbl(*SP(#0)), XAR3
        MOV *AR3, AR3 ; |2148| 
        AND #0xff00, AR1, AR1 ; |2148| 
        OR #0x007c, AR1, AR1 ; |2148| 
        MOV AR1, port(*AR3(short(#4))) ; |2148| 
	.dwpsn	file "../c5535_bsl_revc/ezdsp5535_v1/c55xx_csl/src/csl_mmcsd.c",line 2152,column 5,is_stmt
        MOV dbl(*SP(#0)), XAR3
        MOV *AR3, AR3 ; |2152| 
        MOV port(*AR3), AR1 ; |2152| 
        MOV dbl(*SP(#0)), XAR3
        MOV *AR3, AR3 ; |2152| 
        BCLR @#1, AR1 ; |2152| 
        MOV AR1, port(*AR3) ; |2152| 
	.dwpsn	file "../c5535_bsl_revc/ezdsp5535_v1/c55xx_csl/src/csl_mmcsd.c",line 2153,column 5,is_stmt
        MOV dbl(*SP(#0)), XAR3
        MOV *AR3, AR3 ; |2153| 
        MOV port(*AR3), AR1 ; |2153| 
        MOV dbl(*SP(#0)), XAR3
        MOV *AR3, AR3 ; |2153| 
        BCLR @#0, AR1 ; |2153| 
        MOV AR1, port(*AR3) ; |2153| 
	.dwpsn	file "../c5535_bsl_revc/ezdsp5535_v1/c55xx_csl/src/csl_mmcsd.c",line 2156,column 2,is_stmt
        MOV dbl(*SP(#0)), XAR3
        MOV #80, T0 ; |2156| 
        MOV *AR3, AR3 ; |2156| 
        MOV port(*AR3(T0)), AR1 ; |2156| 
        MOV dbl(*SP(#0)), XAR3
        MOV *AR3, AR3 ; |2156| 
        AND #0xffc0, AR1, AC0 ; |2156| 
        MOV AC0, port(*AR3(T0)) ; |2156| 
	.dwpsn	file "../c5535_bsl_revc/ezdsp5535_v1/c55xx_csl/src/csl_mmcsd.c",line 2157,column 2,is_stmt
        MOV dbl(*SP(#0)), XAR3
        MOV #52, T0 ; |2157| 
        MOV *AR3, AR3 ; |2157| 
        MOV port(*AR3(T0)), AR1 ; |2157| 
        MOV dbl(*SP(#0)), XAR3
        MOV *AR3, AR3 ; |2157| 
        MOV #0, port(*AR3(T0)) ; |2157| 
	.dwpsn	file "../c5535_bsl_revc/ezdsp5535_v1/c55xx_csl/src/csl_mmcsd.c",line 2159,column 2,is_stmt
        MOV dbl(*SP(#0)), XAR3
        MOV #53, T0 ; |2159| 
        MOV *AR3, AR3 ; |2159| 
        MOV port(*AR3(T0)), AR1 ; |2159| 
        MOV dbl(*SP(#0)), XAR3
        MOV *AR3, AR3 ; |2159| 
        MOV #0, port(*AR3(T0)) ; |2159| 
	.dwpsn	file "../c5535_bsl_revc/ezdsp5535_v1/c55xx_csl/src/csl_mmcsd.c",line 2161,column 2,is_stmt
        MOV dbl(*SP(#0)), XAR3
        MOV #48, T0 ; |2161| 
        MOV *AR3, AR3 ; |2161| 
        MOV #16384, port(*AR3(T0)) ; |2161| 
        MOV #8, T0
$C$L115:    
$C$DW$L$_MMC_selectCard$9$B:
	.dwpsn	file "../c5535_bsl_revc/ezdsp5535_v1/c55xx_csl/src/csl_mmcsd.c",line 2164,column 3,is_stmt
        MOV dbl(*SP(#0)), XAR3
        MOV *AR3, AR3 ; |2164| 
        MOV port(*AR3(T0)), AR1 ; |2164| 
        MOV AR1, *SP(#8) ; |2164| 
        NOP
        NOP
        NOP
	.dwpsn	file "../c5535_bsl_revc/ezdsp5535_v1/c55xx_csl/src/csl_mmcsd.c",line 2165,column 10,is_stmt
        BTST #2, *SP(#8), TC1 ; |2165| 
        BCC $C$L115,!TC1 ; |2165| 
                                        ; branchcc occurs ; |2165| 
$C$DW$L$_MMC_selectCard$9$E:
	.dwpsn	file "../c5535_bsl_revc/ezdsp5535_v1/c55xx_csl/src/csl_mmcsd.c",line 2171,column 6,is_stmt
        MOV #0, *SP(#9) ; |2171| 
	.dwpsn	file "../c5535_bsl_revc/ezdsp5535_v1/c55xx_csl/src/csl_mmcsd.c",line 2171,column 21,is_stmt

        MOV *SP(#9), AR1 ; |2171| 
||      MOV #3, AR2

        CMPU AR1 >= AR2, TC1 ; |2171| 
        BCC $C$L141,TC1 ; |2171| 
                                        ; branchcc occurs ; |2171| 
$C$L116:    
$C$DW$L$_MMC_selectCard$11$B:
	.dwpsn	file "../c5535_bsl_revc/ezdsp5535_v1/c55xx_csl/src/csl_mmcsd.c",line 2178,column 3,is_stmt
        MOV #0, AR2
        CMPU AR2 != AR1, TC1 ; |2178| 
        BCC $C$L122,TC1 ; |2178| 
                                        ; branchcc occurs ; |2178| 
$C$DW$L$_MMC_selectCard$11$E:
$C$DW$L$_MMC_selectCard$12$B:
	.dwpsn	file "../c5535_bsl_revc/ezdsp5535_v1/c55xx_csl/src/csl_mmcsd.c",line 2181,column 4,is_stmt
        MOV #426, AC0 ; |2181| 
        MOV AC0, dbl(*SP(#4)) ; |2181| 
	.dwpsn	file "../c5535_bsl_revc/ezdsp5535_v1/c55xx_csl/src/csl_mmcsd.c",line 2182,column 4,is_stmt
        MOV dbl(*SP(#0)), XAR3
        MOV #69, T0 ; |2182| 
        MOV *AR3, AR3 ; |2182| 
        MOV #0, port(*AR3(T0)) ; |2182| 
	.dwpsn	file "../c5535_bsl_revc/ezdsp5535_v1/c55xx_csl/src/csl_mmcsd.c",line 2183,column 4,is_stmt
        MOV dbl(*SP(#0)), XAR3
        MOV #80, T0 ; |2183| 
        MOV *AR3, AR3 ; |2183| 
        MOV port(*AR3(T0)), AR1 ; |2183| 
        MOV dbl(*SP(#0)), XAR3
        MOV *AR3, AR3 ; |2183| 
        AND #0xffc0, AR1, AC0 ; |2183| 
        MOV AC0, port(*AR3(T0)) ; |2183| 
	.dwpsn	file "../c5535_bsl_revc/ezdsp5535_v1/c55xx_csl/src/csl_mmcsd.c",line 2184,column 13,is_stmt
        MOV dbl(*SP(#0)), XAR3
        MOV #52, T0 ; |2184| 
        MOV *AR3, AR3 ; |2184| 
        MOV port(*AR3(T0)), AR1 ; |2184| 
        MOV dbl(*SP(#0)), XAR3
        MOV *AR3, AR3 ; |2184| 
        MOV dbl(*SP(#4)), AC0 ; |2184| 
        AND #0xffff, AC0, AC0 ; |2184| 
        OR #0x0000, AC0, AC0 ; |2184| 
        MOV AC0, port(*AR3(T0)) ; |2184| 
	.dwpsn	file "../c5535_bsl_revc/ezdsp5535_v1/c55xx_csl/src/csl_mmcsd.c",line 2186,column 13,is_stmt
        MOV dbl(*SP(#0)), XAR3
        MOV #53, T0 ; |2186| 
        MOV *AR3, AR3 ; |2186| 
        MOV port(*AR3(T0)), AR1 ; |2186| 
        MOV dbl(*SP(#0)), XAR3
        MOV *AR3, AR3 ; |2186| 
        MOV dbl(*SP(#4)), AC0 ; |2186| 
        SFTL AC0, #-16, AC0 ; |2186| 
        AND #0xffff, AC0, AC0 ; |2186| 
        OR #0x0000, AC0, AC0 ; |2186| 
        MOV AC0, port(*AR3(T0)) ; |2186| 
	.dwpsn	file "../c5535_bsl_revc/ezdsp5535_v1/c55xx_csl/src/csl_mmcsd.c",line 2189,column 13,is_stmt
        MOV dbl(*SP(#0)), XAR3
        MOV #48, T0 ; |2189| 
        MOV *AR3, AR3 ; |2189| 
        MOV #520, port(*AR3(T0)) ; |2189| 
        MOV #8, T0
$C$DW$L$_MMC_selectCard$12$E:
$C$L117:    
$C$DW$L$_MMC_selectCard$13$B:
	.dwpsn	file "../c5535_bsl_revc/ezdsp5535_v1/c55xx_csl/src/csl_mmcsd.c",line 2192,column 11,is_stmt
        MOV dbl(*SP(#0)), XAR3
        MOV *AR3, AR3 ; |2192| 
        MOV port(*AR3(T0)), AR1 ; |2192| 
        MOV AR1, *SP(#8) ; |2192| 
        NOP
        NOP
        NOP
	.dwpsn	file "../c5535_bsl_revc/ezdsp5535_v1/c55xx_csl/src/csl_mmcsd.c",line 2193,column 5,is_stmt
        BTST #7, *SP(#8), TC1 ; |2193| 
        BCC $C$L118,!TC1 ; |2193| 
                                        ; branchcc occurs ; |2193| 
$C$DW$L$_MMC_selectCard$13$E:
	.dwpsn	file "../c5535_bsl_revc/ezdsp5535_v1/c55xx_csl/src/csl_mmcsd.c",line 2195,column 6,is_stmt
        MOV #-15, T0
        B $C$L142 ; |2195| 
                                        ; branch occurs ; |2195| 
$C$L118:    
$C$DW$L$_MMC_selectCard$15$B:
	.dwpsn	file "../c5535_bsl_revc/ezdsp5535_v1/c55xx_csl/src/csl_mmcsd.c",line 2197,column 12,is_stmt
        BAND *SP(#8), #252, TC1 ; |2197| 
        BCC $C$L117,!TC1 ; |2197| 
                                        ; branchcc occurs ; |2197| 
$C$DW$L$_MMC_selectCard$15$E:
$C$DW$L$_MMC_selectCard$16$B:
	.dwpsn	file "../c5535_bsl_revc/ezdsp5535_v1/c55xx_csl/src/csl_mmcsd.c",line 2200,column 4,is_stmt
        BAND *SP(#8), #248, TC1 ; |2200| 
        BCC $C$L120,TC1 ; |2200| 
                                        ; branchcc occurs ; |2200| 
$C$DW$L$_MMC_selectCard$16$E:
$C$DW$L$_MMC_selectCard$17$B:
	.dwpsn	file "../c5535_bsl_revc/ezdsp5535_v1/c55xx_csl/src/csl_mmcsd.c",line 2202,column 5,is_stmt
        MOV dbl(*SP(#0)), XAR3
        MOV #68, T0 ; |2202| 
        MOV *AR3, AR3 ; |2202| 
        MOV #426, AR2 ; |2202| 
        MOV port(*AR3(T0)), AR1 ; |2202| 
        AND #0x01ff, AR1, AR1 ; |2202| 
        CMPU AR2 != AR1, TC1 ; |2202| 
        BCC $C$L119,TC1 ; |2202| 
                                        ; branchcc occurs ; |2202| 
$C$DW$L$_MMC_selectCard$17$E:
$C$DW$L$_MMC_selectCard$18$B:
	.dwpsn	file "../c5535_bsl_revc/ezdsp5535_v1/c55xx_csl/src/csl_mmcsd.c",line 2205,column 6,is_stmt
        MOV #16639 << #16, AC0 ; |2205| 
        OR #0x8000, AC0, AC0 ; |2205| 
        MOV AC0, dbl(*SP(#4)) ; |2205| 
	.dwpsn	file "../c5535_bsl_revc/ezdsp5535_v1/c55xx_csl/src/csl_mmcsd.c",line 2206,column 5,is_stmt
        B $C$L140 ; |2206| 
                                        ; branch occurs ; |2206| 
$C$DW$L$_MMC_selectCard$18$E:
$C$L119:    
	.dwpsn	file "../c5535_bsl_revc/ezdsp5535_v1/c55xx_csl/src/csl_mmcsd.c",line 2210,column 6,is_stmt
        MOV dbl(*SP(#2)), XAR3
        MOV #0, *AR3(#18) ; |2210| 
	.dwpsn	file "../c5535_bsl_revc/ezdsp5535_v1/c55xx_csl/src/csl_mmcsd.c",line 2211,column 6,is_stmt
        MOV dbl(*SP(#0)), XAR3
        MOV #0, *AR3(short(#4)) ; |2211| 
	.dwpsn	file "../c5535_bsl_revc/ezdsp5535_v1/c55xx_csl/src/csl_mmcsd.c",line 2212,column 6,is_stmt
        B $C$L141 ; |2212| 
                                        ; branch occurs ; |2212| 
$C$L120:    
$C$DW$L$_MMC_selectCard$21$B:
	.dwpsn	file "../c5535_bsl_revc/ezdsp5535_v1/c55xx_csl/src/csl_mmcsd.c",line 2217,column 5,is_stmt
        MOV #255 << #16, AC0 ; |2217| 
        OR #0x8000, AC0, AC0 ; |2217| 
        MOV AC0, dbl(*SP(#4)) ; |2217| 
	.dwpsn	file "../c5535_bsl_revc/ezdsp5535_v1/c55xx_csl/src/csl_mmcsd.c",line 2224,column 5,is_stmt
        MOV dbl(*SP(#0)), XAR3
        MOV #80, T0 ; |2224| 
        MOV *AR3, AR3 ; |2224| 
        MOV port(*AR3(T0)), AR1 ; |2224| 
        MOV dbl(*SP(#0)), XAR3
        MOV *AR3, AR3 ; |2224| 
        AND #0xffc0, AR1, AC0 ; |2224| 
        MOV AC0, port(*AR3(T0)) ; |2224| 
	.dwpsn	file "../c5535_bsl_revc/ezdsp5535_v1/c55xx_csl/src/csl_mmcsd.c",line 2225,column 5,is_stmt
        MOV dbl(*SP(#0)), XAR3
        MOV #52, T0 ; |2225| 
        MOV *AR3, AR3 ; |2225| 
        MOV port(*AR3(T0)), AR1 ; |2225| 
        MOV dbl(*SP(#0)), XAR3
        MOV *AR3, AR3 ; |2225| 
        MOV #0, port(*AR3(T0)) ; |2225| 
	.dwpsn	file "../c5535_bsl_revc/ezdsp5535_v1/c55xx_csl/src/csl_mmcsd.c",line 2226,column 5,is_stmt
        MOV dbl(*SP(#0)), XAR3
        MOV #53, T0 ; |2226| 
        MOV *AR3, AR3 ; |2226| 
        MOV port(*AR3(T0)), AR1 ; |2226| 
        MOV dbl(*SP(#0)), XAR3
        MOV *AR3, AR3 ; |2226| 
        MOV #0, port(*AR3(T0)) ; |2226| 
	.dwpsn	file "../c5535_bsl_revc/ezdsp5535_v1/c55xx_csl/src/csl_mmcsd.c",line 2227,column 5,is_stmt
        MOV dbl(*SP(#0)), XAR3
        MOV #48, T0 ; |2227| 
        MOV *AR3, AR3 ; |2227| 
        MOV #16384, port(*AR3(T0)) ; |2227| 
        MOV #8, T0
$C$DW$L$_MMC_selectCard$21$E:
$C$L121:    
$C$DW$L$_MMC_selectCard$22$B:
	.dwpsn	file "../c5535_bsl_revc/ezdsp5535_v1/c55xx_csl/src/csl_mmcsd.c",line 2230,column 6,is_stmt
        MOV dbl(*SP(#0)), XAR3
        MOV *AR3, AR3 ; |2230| 
        MOV port(*AR3(T0)), AR1 ; |2230| 
        MOV AR1, *SP(#8) ; |2230| 
        NOP
        NOP
        NOP
	.dwpsn	file "../c5535_bsl_revc/ezdsp5535_v1/c55xx_csl/src/csl_mmcsd.c",line 2231,column 13,is_stmt
        BTST #2, *SP(#8), TC1 ; |2231| 
        BCC $C$L121,!TC1 ; |2231| 
                                        ; branchcc occurs ; |2231| 
$C$DW$L$_MMC_selectCard$22$E:
$C$DW$L$_MMC_selectCard$23$B:
	.dwpsn	file "../c5535_bsl_revc/ezdsp5535_v1/c55xx_csl/src/csl_mmcsd.c",line 2234,column 3,is_stmt
        B $C$L140 ; |2234| 
                                        ; branch occurs ; |2234| 
$C$DW$L$_MMC_selectCard$23$E:
$C$L122:    
$C$DW$L$_MMC_selectCard$24$B:
	.dwpsn	file "../c5535_bsl_revc/ezdsp5535_v1/c55xx_csl/src/csl_mmcsd.c",line 2235,column 8,is_stmt
        MOV #1, AR2
        CMPU AR2 != AR1, TC1 ; |2235| 
        BCC $C$L133,TC1 ; |2235| 
                                        ; branchcc occurs ; |2235| 
$C$DW$L$_MMC_selectCard$24$E:
$C$L123:    
$C$DW$L$_MMC_selectCard$25$B:
	.dwpsn	file "../c5535_bsl_revc/ezdsp5535_v1/c55xx_csl/src/csl_mmcsd.c",line 2240,column 5,is_stmt
        MOV dbl(*SP(#0)), XAR3
        MOV #69, T0 ; |2240| 
        MOV *AR3, AR3 ; |2240| 
        MOV #0, port(*AR3(T0)) ; |2240| 
	.dwpsn	file "../c5535_bsl_revc/ezdsp5535_v1/c55xx_csl/src/csl_mmcsd.c",line 2241,column 5,is_stmt
        MOV dbl(*SP(#0)), XAR3
        MOV #80, T0 ; |2241| 
        MOV *AR3, AR3 ; |2241| 
        MOV port(*AR3(T0)), AR1 ; |2241| 
        MOV dbl(*SP(#0)), XAR3
        MOV *AR3, AR3 ; |2241| 
        AND #0xffc0, AR1, AC0 ; |2241| 
        MOV AC0, port(*AR3(T0)) ; |2241| 
	.dwpsn	file "../c5535_bsl_revc/ezdsp5535_v1/c55xx_csl/src/csl_mmcsd.c",line 2242,column 5,is_stmt
        MOV dbl(*SP(#0)), XAR3
        MOV #52, T0 ; |2242| 
        MOV *AR3, AR3 ; |2242| 
        MOV port(*AR3(T0)), AR1 ; |2242| 
        MOV dbl(*SP(#0)), XAR3
        MOV *AR3, AR3 ; |2242| 
        MOV #0, port(*AR3(T0)) ; |2242| 
	.dwpsn	file "../c5535_bsl_revc/ezdsp5535_v1/c55xx_csl/src/csl_mmcsd.c",line 2243,column 5,is_stmt
        MOV dbl(*SP(#0)), XAR3
        MOV #53, T0 ; |2243| 
        MOV *AR3, AR3 ; |2243| 
        MOV port(*AR3(T0)), AR1 ; |2243| 
        MOV dbl(*SP(#0)), XAR3
        MOV *AR3, AR3 ; |2243| 
        MOV #0, port(*AR3(T0)) ; |2243| 
	.dwpsn	file "../c5535_bsl_revc/ezdsp5535_v1/c55xx_csl/src/csl_mmcsd.c",line 2244,column 5,is_stmt
        MOV dbl(*SP(#0)), XAR3
        MOV #48, T0 ; |2244| 
        MOV *AR3, AR3 ; |2244| 
        MOV #567, port(*AR3(T0)) ; |2244| 
        MOV #8, T0
$C$DW$L$_MMC_selectCard$25$E:
$C$L124:    
$C$DW$L$_MMC_selectCard$26$B:
	.dwpsn	file "../c5535_bsl_revc/ezdsp5535_v1/c55xx_csl/src/csl_mmcsd.c",line 2247,column 6,is_stmt
        MOV dbl(*SP(#0)), XAR3
        MOV *AR3, AR3 ; |2247| 
        MOV port(*AR3(T0)), AR1 ; |2247| 
        MOV AR1, *SP(#8) ; |2247| 
        NOP
        NOP
        NOP
	.dwpsn	file "../c5535_bsl_revc/ezdsp5535_v1/c55xx_csl/src/csl_mmcsd.c",line 2248,column 6,is_stmt
        BTST #7, *SP(#8), TC1 ; |2248| 
        BCC $C$L125,!TC1 ; |2248| 
                                        ; branchcc occurs ; |2248| 
$C$DW$L$_MMC_selectCard$26$E:
	.dwpsn	file "../c5535_bsl_revc/ezdsp5535_v1/c55xx_csl/src/csl_mmcsd.c",line 2250,column 7,is_stmt
        MOV #-15, T0
        B $C$L142 ; |2250| 
                                        ; branch occurs ; |2250| 
$C$L125:    
$C$DW$L$_MMC_selectCard$28$B:
	.dwpsn	file "../c5535_bsl_revc/ezdsp5535_v1/c55xx_csl/src/csl_mmcsd.c",line 2252,column 14,is_stmt
        BAND *SP(#8), #252, TC1 ; |2252| 
        BCC $C$L124,!TC1 ; |2252| 
                                        ; branchcc occurs ; |2252| 
$C$DW$L$_MMC_selectCard$28$E:
$C$DW$L$_MMC_selectCard$29$B:
	.dwpsn	file "../c5535_bsl_revc/ezdsp5535_v1/c55xx_csl/src/csl_mmcsd.c",line 2256,column 5,is_stmt
        BTST #4, *SP(#8), TC1 ; |2256| 
        BCC $C$L126,!TC1 ; |2256| 
                                        ; branchcc occurs ; |2256| 
$C$DW$L$_MMC_selectCard$29$E:
$C$DW$L$_MMC_selectCard$30$B:
	.dwpsn	file "../c5535_bsl_revc/ezdsp5535_v1/c55xx_csl/src/csl_mmcsd.c",line 2258,column 6,is_stmt
        MOV #0, AC0 ; |2258| 
        MOV AC0, dbl(*SP(#6)) ; |2258| 
	.dwpsn	file "../c5535_bsl_revc/ezdsp5535_v1/c55xx_csl/src/csl_mmcsd.c",line 2259,column 6,is_stmt
        B $C$L130 ; |2259| 
                                        ; branch occurs ; |2259| 
$C$DW$L$_MMC_selectCard$30$E:
$C$L126:    
$C$DW$L$_MMC_selectCard$31$B:
	.dwpsn	file "../c5535_bsl_revc/ezdsp5535_v1/c55xx_csl/src/csl_mmcsd.c",line 2263,column 5,is_stmt
        MOV dbl(*SP(#0)), XAR3
        MOV #69, T0 ; |2263| 
        MOV *AR3, AR3 ; |2263| 
        MOV #0, port(*AR3(T0)) ; |2263| 
	.dwpsn	file "../c5535_bsl_revc/ezdsp5535_v1/c55xx_csl/src/csl_mmcsd.c",line 2264,column 5,is_stmt
        MOV dbl(*SP(#0)), XAR3
        MOV #80, T0 ; |2264| 
        MOV *AR3, AR3 ; |2264| 
        MOV port(*AR3(T0)), AR1 ; |2264| 
        MOV dbl(*SP(#0)), XAR3
        MOV *AR3, AR3 ; |2264| 
        AND #0xffc0, AR1, AC0 ; |2264| 
        MOV AC0, port(*AR3(T0)) ; |2264| 
	.dwpsn	file "../c5535_bsl_revc/ezdsp5535_v1/c55xx_csl/src/csl_mmcsd.c",line 2265,column 5,is_stmt
        MOV dbl(*SP(#0)), XAR3
        MOV #52, T0 ; |2265| 
        MOV *AR3, AR3 ; |2265| 
        MOV port(*AR3(T0)), AR1 ; |2265| 
        MOV dbl(*SP(#0)), XAR3
        MOV *AR3, AR3 ; |2265| 
        MOV dbl(*SP(#4)), AC0 ; |2265| 
        AND #0xffff, AC0, AC0 ; |2265| 
        OR #0x0000, AC0, AC0 ; |2265| 
        MOV AC0, port(*AR3(T0)) ; |2265| 
	.dwpsn	file "../c5535_bsl_revc/ezdsp5535_v1/c55xx_csl/src/csl_mmcsd.c",line 2267,column 5,is_stmt
        MOV dbl(*SP(#0)), XAR3
        MOV #53, T0 ; |2267| 
        MOV *AR3, AR3 ; |2267| 
        MOV port(*AR3(T0)), AR1 ; |2267| 
        MOV dbl(*SP(#0)), XAR3
        MOV *AR3, AR3 ; |2267| 
        MOV dbl(*SP(#4)), AC0 ; |2267| 
        SFTL AC0, #-16, AC0 ; |2267| 
        AND #0xffff, AC0, AC0 ; |2267| 
        OR #0x0000, AC0, AC0 ; |2267| 
        MOV AC0, port(*AR3(T0)) ; |2267| 
	.dwpsn	file "../c5535_bsl_revc/ezdsp5535_v1/c55xx_csl/src/csl_mmcsd.c",line 2270,column 5,is_stmt
        MOV dbl(*SP(#0)), XAR3
        MOV #48, T0 ; |2270| 
        MOV *AR3, AR3 ; |2270| 
        MOV #1577, port(*AR3(T0)) ; |2270| 
        MOV #8, T0
$C$DW$L$_MMC_selectCard$31$E:
$C$L127:    
$C$DW$L$_MMC_selectCard$32$B:
	.dwpsn	file "../c5535_bsl_revc/ezdsp5535_v1/c55xx_csl/src/csl_mmcsd.c",line 2274,column 6,is_stmt
        MOV dbl(*SP(#0)), XAR3
        MOV *AR3, AR3 ; |2274| 
        MOV port(*AR3(T0)), AR1 ; |2274| 
        MOV AR1, *SP(#8) ; |2274| 
        NOP
        NOP
        NOP
	.dwpsn	file "../c5535_bsl_revc/ezdsp5535_v1/c55xx_csl/src/csl_mmcsd.c",line 2275,column 14,is_stmt
        BAND *SP(#8), #252, TC1 ; |2275| 
        BCC $C$L127,!TC1 ; |2275| 
                                        ; branchcc occurs ; |2275| 
$C$DW$L$_MMC_selectCard$32$E:
$C$DW$L$_MMC_selectCard$33$B:
	.dwpsn	file "../c5535_bsl_revc/ezdsp5535_v1/c55xx_csl/src/csl_mmcsd.c",line 2279,column 5,is_stmt
        BTST #4, *SP(#8), TC1 ; |2279| 
        BCC $C$L128,!TC1 ; |2279| 
                                        ; branchcc occurs ; |2279| 
$C$DW$L$_MMC_selectCard$33$E:
$C$DW$L$_MMC_selectCard$34$B:
	.dwpsn	file "../c5535_bsl_revc/ezdsp5535_v1/c55xx_csl/src/csl_mmcsd.c",line 2281,column 6,is_stmt
        MOV #0, AC0 ; |2281| 
        MOV AC0, dbl(*SP(#6)) ; |2281| 
	.dwpsn	file "../c5535_bsl_revc/ezdsp5535_v1/c55xx_csl/src/csl_mmcsd.c",line 2282,column 6,is_stmt
        B $C$L130 ; |2282| 
                                        ; branch occurs ; |2282| 
$C$DW$L$_MMC_selectCard$34$E:
$C$L128:    
$C$DW$L$_MMC_selectCard$35$B:
	.dwpsn	file "../c5535_bsl_revc/ezdsp5535_v1/c55xx_csl/src/csl_mmcsd.c",line 2285,column 5,is_stmt
        MOV dbl(*SP(#0)), XAR3
        MOV #69, T0 ; |2285| 
        MOV *AR3, AR3 ; |2285| 
        MOV uns(port(*AR3(T0))), AC0 ; |2285| 
        MOV AC0, dbl(*SP(#6)) ; |2285| 
	.dwpsn	file "../c5535_bsl_revc/ezdsp5535_v1/c55xx_csl/src/csl_mmcsd.c",line 2286,column 5,is_stmt
        MOV dbl(*SP(#0)), XAR3
        MOV #68, T0 ; |2286| 
        MOV *AR3, AR3 ; |2286| 
        MOV dbl(*SP(#6)), AC1 ; |2286| 
        MOV uns(port(*AR3(T0))), AC0 ; |2286| 
        OR AC1 << #16, AC0 ; |2286| 
        MOV AC0, dbl(*SP(#6)) ; |2286| 
	.dwpsn	file "../c5535_bsl_revc/ezdsp5535_v1/c55xx_csl/src/csl_mmcsd.c",line 2289,column 5,is_stmt
        MOV dbl(*SP(#6)), AC0 ; |2289| 
        BCC $C$L130,AC0 == #0 ; |2289| 
                                        ; branchcc occurs ; |2289| 
$C$DW$L$_MMC_selectCard$35$E:
$C$DW$L$_MMC_selectCard$36$B:
	.dwpsn	file "../c5535_bsl_revc/ezdsp5535_v1/c55xx_csl/src/csl_mmcsd.c",line 2291,column 6,is_stmt
	.dwpsn	file "../c5535_bsl_revc/ezdsp5535_v1/c55xx_csl/src/csl_mmcsd.c",line 2294,column 5,is_stmt
        SUB #1, *SP(#10) ; |2294| 
	.dwpsn	file "../c5535_bsl_revc/ezdsp5535_v1/c55xx_csl/src/csl_mmcsd.c",line 2295,column 5,is_stmt
        MOV *SP(#10), AR1 ; |2295| 
        BCC $C$L129,AR1 != #0 ; |2295| 
                                        ; branchcc occurs ; |2295| 
$C$DW$L$_MMC_selectCard$36$E:
	.dwpsn	file "../c5535_bsl_revc/ezdsp5535_v1/c55xx_csl/src/csl_mmcsd.c",line 2297,column 6,is_stmt
        MOV #-10, T0
        B $C$L142 ; |2297| 
                                        ; branch occurs ; |2297| 
$C$L129:    
$C$DW$L$_MMC_selectCard$38$B:
	.dwpsn	file "../c5535_bsl_revc/ezdsp5535_v1/c55xx_csl/src/csl_mmcsd.c",line 2300,column 12,is_stmt
        MOV #-32513 << #16, AC0 ; |2300| 
        MOV dbl(*SP(#6)), AC1 ; |2300| 
        OR #0x8000, AC0, AC0 ; |2300| 

        MOV #-32513 << #16, AC1 ; |2300| 
||      AND AC1, AC0 ; |2300| 

        OR #0x8000, AC1, AC1 ; |2300| 
        CMPU AC0 != AC1, TC1 ; |2300| 
        BCC $C$L123,TC1 ; |2300| 
                                        ; branchcc occurs ; |2300| 
$C$DW$L$_MMC_selectCard$38$E:
$C$L130:    
$C$DW$L$_MMC_selectCard$39$B:
	.dwpsn	file "../c5535_bsl_revc/ezdsp5535_v1/c55xx_csl/src/csl_mmcsd.c",line 2302,column 4,is_stmt
        MOV dbl(*SP(#6)), AC0 ; |2302| 
        BCC $C$L140,AC0 == #0 ; |2302| 
                                        ; branchcc occurs ; |2302| 
$C$DW$L$_MMC_selectCard$39$E:
	.dwpsn	file "../c5535_bsl_revc/ezdsp5535_v1/c55xx_csl/src/csl_mmcsd.c",line 2305,column 5,is_stmt
        MOV dbl(*SP(#6)), AC1 ; |2305| 
        MOV #16384 << #16, AC0 ; |2305| 
        AND AC1, AC0 ; |2305| 
        BCC $C$L131,AC0 == #0 ; |2305| 
                                        ; branchcc occurs ; |2305| 
	.dwpsn	file "../c5535_bsl_revc/ezdsp5535_v1/c55xx_csl/src/csl_mmcsd.c",line 2307,column 6,is_stmt
        MOV dbl(*SP(#2)), XAR3
        MOV #1, *AR3(#26) ; |2307| 
	.dwpsn	file "../c5535_bsl_revc/ezdsp5535_v1/c55xx_csl/src/csl_mmcsd.c",line 2308,column 5,is_stmt
        B $C$L132 ; |2308| 
                                        ; branch occurs ; |2308| 
$C$L131:    
	.dwpsn	file "../c5535_bsl_revc/ezdsp5535_v1/c55xx_csl/src/csl_mmcsd.c",line 2311,column 6,is_stmt
        MOV dbl(*SP(#2)), XAR3
        MOV #0, *AR3(#26) ; |2311| 
$C$L132:    
	.dwpsn	file "../c5535_bsl_revc/ezdsp5535_v1/c55xx_csl/src/csl_mmcsd.c",line 2314,column 5,is_stmt
        MOV dbl(*SP(#2)), XAR3
        MOV #1, *AR3(#18) ; |2314| 
	.dwpsn	file "../c5535_bsl_revc/ezdsp5535_v1/c55xx_csl/src/csl_mmcsd.c",line 2315,column 5,is_stmt
        MOV dbl(*SP(#0)), XAR3
        MOV #1, *AR3(short(#4)) ; |2315| 
	.dwpsn	file "../c5535_bsl_revc/ezdsp5535_v1/c55xx_csl/src/csl_mmcsd.c",line 2316,column 5,is_stmt
        B $C$L141 ; |2316| 
                                        ; branch occurs ; |2316| 
$C$L133:    
$C$DW$L$_MMC_selectCard$45$B:
	.dwpsn	file "../c5535_bsl_revc/ezdsp5535_v1/c55xx_csl/src/csl_mmcsd.c",line 2323,column 4,is_stmt
        MOV #1000, *SP(#10) ; |2323| 
	.dwpsn	file "../c5535_bsl_revc/ezdsp5535_v1/c55xx_csl/src/csl_mmcsd.c",line 2324,column 4,is_stmt
        MOV #255 << #16, AC0 ; |2324| 
        OR #0x8000, AC0, AC0 ; |2324| 
        MOV AC0, dbl(*SP(#4)) ; |2324| 
$C$DW$L$_MMC_selectCard$45$E:
$C$L134:    
$C$DW$L$_MMC_selectCard$46$B:
	.dwpsn	file "../c5535_bsl_revc/ezdsp5535_v1/c55xx_csl/src/csl_mmcsd.c",line 2329,column 5,is_stmt
        MOV dbl(*SP(#0)), XAR3
        MOV #69, T0 ; |2329| 
        MOV *AR3, AR3 ; |2329| 
        MOV #0, port(*AR3(T0)) ; |2329| 
	.dwpsn	file "../c5535_bsl_revc/ezdsp5535_v1/c55xx_csl/src/csl_mmcsd.c",line 2330,column 5,is_stmt
        MOV dbl(*SP(#0)), XAR3
        MOV #80, T0 ; |2330| 
        MOV *AR3, AR3 ; |2330| 
        MOV port(*AR3(T0)), AR1 ; |2330| 
        MOV dbl(*SP(#0)), XAR3
        MOV *AR3, AR3 ; |2330| 
        AND #0xffc0, AR1, AC0 ; |2330| 
        MOV AC0, port(*AR3(T0)) ; |2330| 
	.dwpsn	file "../c5535_bsl_revc/ezdsp5535_v1/c55xx_csl/src/csl_mmcsd.c",line 2331,column 14,is_stmt
        MOV dbl(*SP(#0)), XAR3
        MOV #52, T0 ; |2331| 
        MOV *AR3, AR3 ; |2331| 
        MOV port(*AR3(T0)), AR1 ; |2331| 
        MOV dbl(*SP(#0)), XAR3
        MOV *AR3, AR3 ; |2331| 
        MOV dbl(*SP(#4)), AC0 ; |2331| 
        AND #0xffff, AC0, AC0 ; |2331| 
        OR #0x0000, AC0, AC0 ; |2331| 
        MOV AC0, port(*AR3(T0)) ; |2331| 
	.dwpsn	file "../c5535_bsl_revc/ezdsp5535_v1/c55xx_csl/src/csl_mmcsd.c",line 2333,column 14,is_stmt
        MOV dbl(*SP(#0)), XAR3
        MOV #53, T0 ; |2333| 
        MOV *AR3, AR3 ; |2333| 
        MOV port(*AR3(T0)), AR1 ; |2333| 
        MOV dbl(*SP(#0)), XAR3
        MOV *AR3, AR3 ; |2333| 
        MOV dbl(*SP(#4)), AC0 ; |2333| 
        SFTL AC0, #-16, AC0 ; |2333| 
        AND #0xffff, AC0, AC0 ; |2333| 
        OR #0x0000, AC0, AC0 ; |2333| 
        MOV AC0, port(*AR3(T0)) ; |2333| 
	.dwpsn	file "../c5535_bsl_revc/ezdsp5535_v1/c55xx_csl/src/csl_mmcsd.c",line 2336,column 14,is_stmt
        MOV dbl(*SP(#0)), XAR3
        MOV #48, T0 ; |2336| 
        MOV *AR3, AR3 ; |2336| 
        MOV #1537, port(*AR3(T0)) ; |2336| 
        AMOV #8, T0
$C$DW$L$_MMC_selectCard$46$E:
$C$L135:    
$C$DW$L$_MMC_selectCard$47$B:
	.dwpsn	file "../c5535_bsl_revc/ezdsp5535_v1/c55xx_csl/src/csl_mmcsd.c",line 2339,column 12,is_stmt
        MOV dbl(*SP(#0)), XAR3
        MOV *AR3, AR3 ; |2339| 
        MOV port(*AR3(T0)), AR1 ; |2339| 
        MOV AR1, *SP(#8) ; |2339| 
        NOP
        NOP
        NOP
	.dwpsn	file "../c5535_bsl_revc/ezdsp5535_v1/c55xx_csl/src/csl_mmcsd.c",line 2340,column 6,is_stmt
        BTST #4, *SP(#8), TC1 ; |2340| 
        BCC $C$L136,!TC1 ; |2340| 
                                        ; branchcc occurs ; |2340| 
$C$DW$L$_MMC_selectCard$47$E:
	.dwpsn	file "../c5535_bsl_revc/ezdsp5535_v1/c55xx_csl/src/csl_mmcsd.c",line 2342,column 13,is_stmt
        MOV #-10, T0
        B $C$L142 ; |2342| 
                                        ; branch occurs ; |2342| 
$C$L136:    
$C$DW$L$_MMC_selectCard$49$B:
	.dwpsn	file "../c5535_bsl_revc/ezdsp5535_v1/c55xx_csl/src/csl_mmcsd.c",line 2344,column 19,is_stmt
        BTST #2, *SP(#8), TC1 ; |2344| 
        BCC $C$L135,!TC1 ; |2344| 
                                        ; branchcc occurs ; |2344| 
$C$DW$L$_MMC_selectCard$49$E:
$C$DW$L$_MMC_selectCard$50$B:
	.dwpsn	file "../c5535_bsl_revc/ezdsp5535_v1/c55xx_csl/src/csl_mmcsd.c",line 2346,column 5,is_stmt
        MOV dbl(*SP(#0)), XAR3
        MOV #69, T0 ; |2346| 
        MOV *AR3, AR3 ; |2346| 
        MOV uns(port(*AR3(T0))), AC0 ; |2346| 
        MOV AC0, dbl(*SP(#6)) ; |2346| 
	.dwpsn	file "../c5535_bsl_revc/ezdsp5535_v1/c55xx_csl/src/csl_mmcsd.c",line 2347,column 5,is_stmt
        MOV dbl(*SP(#0)), XAR3
        MOV #68, T0 ; |2347| 
        MOV *AR3, AR3 ; |2347| 
        MOV dbl(*SP(#6)), AC1 ; |2347| 
        MOV uns(port(*AR3(T0))), AC0 ; |2347| 
        OR AC1 << #16, AC0 ; |2347| 
        MOV AC0, dbl(*SP(#6)) ; |2347| 
	.dwpsn	file "../c5535_bsl_revc/ezdsp5535_v1/c55xx_csl/src/csl_mmcsd.c",line 2348,column 5,is_stmt
        SUB #1, *SP(#10) ; |2348| 
	.dwpsn	file "../c5535_bsl_revc/ezdsp5535_v1/c55xx_csl/src/csl_mmcsd.c",line 2349,column 12,is_stmt
        MOV #-32513 << #16, AC0 ; |2349| 
        OR #0x8000, AC0, AC0 ; |2349| 
        MOV dbl(*SP(#6)), AC1 ; |2349| 

        MOV #-32513 << #16, AC1 ; |2349| 
||      AND AC1, AC0 ; |2349| 

        OR #0x8000, AC1, AC1 ; |2349| 
        CMPU AC0 != AC1, TC1 ; |2349| 
        BCC $C$L134,TC1 ; |2349| 
                                        ; branchcc occurs ; |2349| 
$C$DW$L$_MMC_selectCard$50$E:
$C$DW$L$_MMC_selectCard$51$B:
	.dwpsn	file "../c5535_bsl_revc/ezdsp5535_v1/c55xx_csl/src/csl_mmcsd.c",line 2351,column 4,is_stmt
        MOV *SP(#10), AR1 ; |2351| 
        BCC $C$L139,AR1 == #0 ; |2351| 
                                        ; branchcc occurs ; |2351| 
$C$DW$L$_MMC_selectCard$51$E:
$C$DW$L$_MMC_selectCard$52$B:
	.dwpsn	file "../c5535_bsl_revc/ezdsp5535_v1/c55xx_csl/src/csl_mmcsd.c",line 2354,column 5,is_stmt
        MOV dbl(*SP(#6)), AC1 ; |2354| 
        MOV #16384 << #16, AC0 ; |2354| 
        AND AC1, AC0 ; |2354| 
        BCC $C$L137,AC0 == #0 ; |2354| 
                                        ; branchcc occurs ; |2354| 
$C$DW$L$_MMC_selectCard$52$E:
$C$DW$L$_MMC_selectCard$53$B:
	.dwpsn	file "../c5535_bsl_revc/ezdsp5535_v1/c55xx_csl/src/csl_mmcsd.c",line 2356,column 6,is_stmt
        MOV dbl(*SP(#2)), XAR3
        MOV #1, *AR3(#26) ; |2356| 
	.dwpsn	file "../c5535_bsl_revc/ezdsp5535_v1/c55xx_csl/src/csl_mmcsd.c",line 2357,column 5,is_stmt
        B $C$L138 ; |2357| 
                                        ; branch occurs ; |2357| 
$C$DW$L$_MMC_selectCard$53$E:
$C$L137:    
$C$DW$L$_MMC_selectCard$54$B:
	.dwpsn	file "../c5535_bsl_revc/ezdsp5535_v1/c55xx_csl/src/csl_mmcsd.c",line 2360,column 6,is_stmt
        MOV dbl(*SP(#2)), XAR3
        MOV #0, *AR3(#26) ; |2360| 
$C$DW$L$_MMC_selectCard$54$E:
$C$L138:    
$C$DW$L$_MMC_selectCard$55$B:
	.dwpsn	file "../c5535_bsl_revc/ezdsp5535_v1/c55xx_csl/src/csl_mmcsd.c",line 2363,column 8,is_stmt
        MOV dbl(*SP(#2)), XAR3
        MOV #2, *AR3(#18) ; |2363| 
	.dwpsn	file "../c5535_bsl_revc/ezdsp5535_v1/c55xx_csl/src/csl_mmcsd.c",line 2364,column 8,is_stmt
        MOV dbl(*SP(#0)), XAR3
        MOV #1, *AR3(short(#4)) ; |2364| 
	.dwpsn	file "../c5535_bsl_revc/ezdsp5535_v1/c55xx_csl/src/csl_mmcsd.c",line 2365,column 4,is_stmt
        B $C$L140 ; |2365| 
                                        ; branch occurs ; |2365| 
$C$DW$L$_MMC_selectCard$55$E:
$C$L139:    
$C$DW$L$_MMC_selectCard$56$B:
	.dwpsn	file "../c5535_bsl_revc/ezdsp5535_v1/c55xx_csl/src/csl_mmcsd.c",line 2368,column 8,is_stmt
        MOV dbl(*SP(#2)), XAR3
        MOV #0, *AR3(#18) ; |2368| 
	.dwpsn	file "../c5535_bsl_revc/ezdsp5535_v1/c55xx_csl/src/csl_mmcsd.c",line 2369,column 8,is_stmt
        MOV dbl(*SP(#0)), XAR3
        MOV #0, *AR3(short(#4)) ; |2369| 
$C$DW$L$_MMC_selectCard$56$E:
$C$L140:    
$C$DW$L$_MMC_selectCard$57$B:
	.dwpsn	file "../c5535_bsl_revc/ezdsp5535_v1/c55xx_csl/src/csl_mmcsd.c",line 2171,column 36,is_stmt
        ADD #1, *SP(#9) ; |2171| 
	.dwpsn	file "../c5535_bsl_revc/ezdsp5535_v1/c55xx_csl/src/csl_mmcsd.c",line 2171,column 21,is_stmt

        MOV *SP(#9), AR1 ; |2171| 
||      MOV #3, AR2

        CMPU AR1 < AR2, TC1 ; |2171| 
        BCC $C$L116,TC1 ; |2171| 
                                        ; branchcc occurs ; |2171| 
$C$DW$L$_MMC_selectCard$57$E:
$C$L141:    
	.dwpsn	file "../c5535_bsl_revc/ezdsp5535_v1/c55xx_csl/src/csl_mmcsd.c",line 2374,column 2,is_stmt
        MOV #0, T0
$C$L142:    
	.dwpsn	file "../c5535_bsl_revc/ezdsp5535_v1/c55xx_csl/src/csl_mmcsd.c",line 2375,column 1,is_stmt
        AADD #11, SP
	.dwcfi	cfa_offset, 1
$C$DW$188	.dwtag  DW_TAG_TI_branch
	.dwattr $C$DW$188, DW_AT_low_pc(0x00)
	.dwattr $C$DW$188, DW_AT_TI_return
        RET
                                        ; return occurs

$C$DW$189	.dwtag  DW_TAG_TI_loop
	.dwattr $C$DW$189, DW_AT_name("F:\eZdsp_DBG\eZDSP_5535_Files\ccsws2\test\Debug\csl_mmcsd.asm:$C$L116:1:1536993106")
	.dwattr $C$DW$189, DW_AT_TI_begin_file("../c5535_bsl_revc/ezdsp5535_v1/c55xx_csl/src/csl_mmcsd.c")
	.dwattr $C$DW$189, DW_AT_TI_begin_line(0x87b)
	.dwattr $C$DW$189, DW_AT_TI_end_line(0x944)
$C$DW$190	.dwtag  DW_TAG_TI_loop_range
	.dwattr $C$DW$190, DW_AT_low_pc($C$DW$L$_MMC_selectCard$11$B)
	.dwattr $C$DW$190, DW_AT_high_pc($C$DW$L$_MMC_selectCard$11$E)
$C$DW$191	.dwtag  DW_TAG_TI_loop_range
	.dwattr $C$DW$191, DW_AT_low_pc($C$DW$L$_MMC_selectCard$45$B)
	.dwattr $C$DW$191, DW_AT_high_pc($C$DW$L$_MMC_selectCard$45$E)
$C$DW$192	.dwtag  DW_TAG_TI_loop_range
	.dwattr $C$DW$192, DW_AT_low_pc($C$DW$L$_MMC_selectCard$51$B)
	.dwattr $C$DW$192, DW_AT_high_pc($C$DW$L$_MMC_selectCard$51$E)
$C$DW$193	.dwtag  DW_TAG_TI_loop_range
	.dwattr $C$DW$193, DW_AT_low_pc($C$DW$L$_MMC_selectCard$52$B)
	.dwattr $C$DW$193, DW_AT_high_pc($C$DW$L$_MMC_selectCard$52$E)
$C$DW$194	.dwtag  DW_TAG_TI_loop_range
	.dwattr $C$DW$194, DW_AT_low_pc($C$DW$L$_MMC_selectCard$53$B)
	.dwattr $C$DW$194, DW_AT_high_pc($C$DW$L$_MMC_selectCard$53$E)
$C$DW$195	.dwtag  DW_TAG_TI_loop_range
	.dwattr $C$DW$195, DW_AT_low_pc($C$DW$L$_MMC_selectCard$54$B)
	.dwattr $C$DW$195, DW_AT_high_pc($C$DW$L$_MMC_selectCard$54$E)
$C$DW$196	.dwtag  DW_TAG_TI_loop_range
	.dwattr $C$DW$196, DW_AT_low_pc($C$DW$L$_MMC_selectCard$24$B)
	.dwattr $C$DW$196, DW_AT_high_pc($C$DW$L$_MMC_selectCard$24$E)
$C$DW$197	.dwtag  DW_TAG_TI_loop_range
	.dwattr $C$DW$197, DW_AT_low_pc($C$DW$L$_MMC_selectCard$30$B)
	.dwattr $C$DW$197, DW_AT_high_pc($C$DW$L$_MMC_selectCard$30$E)
$C$DW$198	.dwtag  DW_TAG_TI_loop_range
	.dwattr $C$DW$198, DW_AT_low_pc($C$DW$L$_MMC_selectCard$34$B)
	.dwattr $C$DW$198, DW_AT_high_pc($C$DW$L$_MMC_selectCard$34$E)
$C$DW$199	.dwtag  DW_TAG_TI_loop_range
	.dwattr $C$DW$199, DW_AT_low_pc($C$DW$L$_MMC_selectCard$21$B)
	.dwattr $C$DW$199, DW_AT_high_pc($C$DW$L$_MMC_selectCard$21$E)
$C$DW$200	.dwtag  DW_TAG_TI_loop_range
	.dwattr $C$DW$200, DW_AT_low_pc($C$DW$L$_MMC_selectCard$12$B)
	.dwattr $C$DW$200, DW_AT_high_pc($C$DW$L$_MMC_selectCard$12$E)
$C$DW$201	.dwtag  DW_TAG_TI_loop_range
	.dwattr $C$DW$201, DW_AT_low_pc($C$DW$L$_MMC_selectCard$16$B)
	.dwattr $C$DW$201, DW_AT_high_pc($C$DW$L$_MMC_selectCard$16$E)
$C$DW$202	.dwtag  DW_TAG_TI_loop_range
	.dwattr $C$DW$202, DW_AT_low_pc($C$DW$L$_MMC_selectCard$17$B)
	.dwattr $C$DW$202, DW_AT_high_pc($C$DW$L$_MMC_selectCard$17$E)
$C$DW$203	.dwtag  DW_TAG_TI_loop_range
	.dwattr $C$DW$203, DW_AT_low_pc($C$DW$L$_MMC_selectCard$18$B)
	.dwattr $C$DW$203, DW_AT_high_pc($C$DW$L$_MMC_selectCard$18$E)
$C$DW$204	.dwtag  DW_TAG_TI_loop_range
	.dwattr $C$DW$204, DW_AT_low_pc($C$DW$L$_MMC_selectCard$23$B)
	.dwattr $C$DW$204, DW_AT_high_pc($C$DW$L$_MMC_selectCard$23$E)
$C$DW$205	.dwtag  DW_TAG_TI_loop_range
	.dwattr $C$DW$205, DW_AT_low_pc($C$DW$L$_MMC_selectCard$39$B)
	.dwattr $C$DW$205, DW_AT_high_pc($C$DW$L$_MMC_selectCard$39$E)
$C$DW$206	.dwtag  DW_TAG_TI_loop_range
	.dwattr $C$DW$206, DW_AT_low_pc($C$DW$L$_MMC_selectCard$55$B)
	.dwattr $C$DW$206, DW_AT_high_pc($C$DW$L$_MMC_selectCard$55$E)
$C$DW$207	.dwtag  DW_TAG_TI_loop_range
	.dwattr $C$DW$207, DW_AT_low_pc($C$DW$L$_MMC_selectCard$56$B)
	.dwattr $C$DW$207, DW_AT_high_pc($C$DW$L$_MMC_selectCard$56$E)
$C$DW$208	.dwtag  DW_TAG_TI_loop_range
	.dwattr $C$DW$208, DW_AT_low_pc($C$DW$L$_MMC_selectCard$57$B)
	.dwattr $C$DW$208, DW_AT_high_pc($C$DW$L$_MMC_selectCard$57$E)

$C$DW$209	.dwtag  DW_TAG_TI_loop
	.dwattr $C$DW$209, DW_AT_name("F:\eZdsp_DBG\eZDSP_5535_Files\ccsws2\test\Debug\csl_mmcsd.asm:$C$L134:2:1536993106")
	.dwattr $C$DW$209, DW_AT_TI_begin_file("../c5535_bsl_revc/ezdsp5535_v1/c55xx_csl/src/csl_mmcsd.c")
	.dwattr $C$DW$209, DW_AT_TI_begin_line(0x916)
	.dwattr $C$DW$209, DW_AT_TI_end_line(0x92d)
$C$DW$210	.dwtag  DW_TAG_TI_loop_range
	.dwattr $C$DW$210, DW_AT_low_pc($C$DW$L$_MMC_selectCard$46$B)
	.dwattr $C$DW$210, DW_AT_high_pc($C$DW$L$_MMC_selectCard$46$E)
$C$DW$211	.dwtag  DW_TAG_TI_loop_range
	.dwattr $C$DW$211, DW_AT_low_pc($C$DW$L$_MMC_selectCard$50$B)
	.dwattr $C$DW$211, DW_AT_high_pc($C$DW$L$_MMC_selectCard$50$E)

$C$DW$212	.dwtag  DW_TAG_TI_loop
	.dwattr $C$DW$212, DW_AT_name("F:\eZdsp_DBG\eZDSP_5535_Files\ccsws2\test\Debug\csl_mmcsd.asm:$C$L135:3:1536993106")
	.dwattr $C$DW$212, DW_AT_TI_begin_file("../c5535_bsl_revc/ezdsp5535_v1/c55xx_csl/src/csl_mmcsd.c")
	.dwattr $C$DW$212, DW_AT_TI_begin_line(0x921)
	.dwattr $C$DW$212, DW_AT_TI_end_line(0x928)
$C$DW$213	.dwtag  DW_TAG_TI_loop_range
	.dwattr $C$DW$213, DW_AT_low_pc($C$DW$L$_MMC_selectCard$47$B)
	.dwattr $C$DW$213, DW_AT_high_pc($C$DW$L$_MMC_selectCard$47$E)
$C$DW$214	.dwtag  DW_TAG_TI_loop_range
	.dwattr $C$DW$214, DW_AT_low_pc($C$DW$L$_MMC_selectCard$49$B)
	.dwattr $C$DW$214, DW_AT_high_pc($C$DW$L$_MMC_selectCard$49$E)
	.dwendtag $C$DW$212

	.dwendtag $C$DW$209


$C$DW$215	.dwtag  DW_TAG_TI_loop
	.dwattr $C$DW$215, DW_AT_name("F:\eZdsp_DBG\eZDSP_5535_Files\ccsws2\test\Debug\csl_mmcsd.asm:$C$L123:2:1536993106")
	.dwattr $C$DW$215, DW_AT_TI_begin_file("../c5535_bsl_revc/ezdsp5535_v1/c55xx_csl/src/csl_mmcsd.c")
	.dwattr $C$DW$215, DW_AT_TI_begin_line(0x8be)
	.dwattr $C$DW$215, DW_AT_TI_end_line(0x8fc)
$C$DW$216	.dwtag  DW_TAG_TI_loop_range
	.dwattr $C$DW$216, DW_AT_low_pc($C$DW$L$_MMC_selectCard$25$B)
	.dwattr $C$DW$216, DW_AT_high_pc($C$DW$L$_MMC_selectCard$25$E)
$C$DW$217	.dwtag  DW_TAG_TI_loop_range
	.dwattr $C$DW$217, DW_AT_low_pc($C$DW$L$_MMC_selectCard$29$B)
	.dwattr $C$DW$217, DW_AT_high_pc($C$DW$L$_MMC_selectCard$29$E)
$C$DW$218	.dwtag  DW_TAG_TI_loop_range
	.dwattr $C$DW$218, DW_AT_low_pc($C$DW$L$_MMC_selectCard$31$B)
	.dwattr $C$DW$218, DW_AT_high_pc($C$DW$L$_MMC_selectCard$31$E)
$C$DW$219	.dwtag  DW_TAG_TI_loop_range
	.dwattr $C$DW$219, DW_AT_low_pc($C$DW$L$_MMC_selectCard$33$B)
	.dwattr $C$DW$219, DW_AT_high_pc($C$DW$L$_MMC_selectCard$33$E)
$C$DW$220	.dwtag  DW_TAG_TI_loop_range
	.dwattr $C$DW$220, DW_AT_low_pc($C$DW$L$_MMC_selectCard$35$B)
	.dwattr $C$DW$220, DW_AT_high_pc($C$DW$L$_MMC_selectCard$35$E)
$C$DW$221	.dwtag  DW_TAG_TI_loop_range
	.dwattr $C$DW$221, DW_AT_low_pc($C$DW$L$_MMC_selectCard$36$B)
	.dwattr $C$DW$221, DW_AT_high_pc($C$DW$L$_MMC_selectCard$36$E)
$C$DW$222	.dwtag  DW_TAG_TI_loop_range
	.dwattr $C$DW$222, DW_AT_low_pc($C$DW$L$_MMC_selectCard$38$B)
	.dwattr $C$DW$222, DW_AT_high_pc($C$DW$L$_MMC_selectCard$38$E)

$C$DW$223	.dwtag  DW_TAG_TI_loop
	.dwattr $C$DW$223, DW_AT_name("F:\eZdsp_DBG\eZDSP_5535_Files\ccsws2\test\Debug\csl_mmcsd.asm:$C$L124:3:1536993106")
	.dwattr $C$DW$223, DW_AT_TI_begin_file("../c5535_bsl_revc/ezdsp5535_v1/c55xx_csl/src/csl_mmcsd.c")
	.dwattr $C$DW$223, DW_AT_TI_begin_line(0x8c5)
	.dwattr $C$DW$223, DW_AT_TI_end_line(0x8cc)
$C$DW$224	.dwtag  DW_TAG_TI_loop_range
	.dwattr $C$DW$224, DW_AT_low_pc($C$DW$L$_MMC_selectCard$26$B)
	.dwattr $C$DW$224, DW_AT_high_pc($C$DW$L$_MMC_selectCard$26$E)
$C$DW$225	.dwtag  DW_TAG_TI_loop_range
	.dwattr $C$DW$225, DW_AT_low_pc($C$DW$L$_MMC_selectCard$28$B)
	.dwattr $C$DW$225, DW_AT_high_pc($C$DW$L$_MMC_selectCard$28$E)
	.dwendtag $C$DW$223


$C$DW$226	.dwtag  DW_TAG_TI_loop
	.dwattr $C$DW$226, DW_AT_name("F:\eZdsp_DBG\eZDSP_5535_Files\ccsws2\test\Debug\csl_mmcsd.asm:$C$L127:3:1536993106")
	.dwattr $C$DW$226, DW_AT_TI_begin_file("../c5535_bsl_revc/ezdsp5535_v1/c55xx_csl/src/csl_mmcsd.c")
	.dwattr $C$DW$226, DW_AT_TI_begin_line(0x8e0)
	.dwattr $C$DW$226, DW_AT_TI_end_line(0x8e3)
$C$DW$227	.dwtag  DW_TAG_TI_loop_range
	.dwattr $C$DW$227, DW_AT_low_pc($C$DW$L$_MMC_selectCard$32$B)
	.dwattr $C$DW$227, DW_AT_high_pc($C$DW$L$_MMC_selectCard$32$E)
	.dwendtag $C$DW$226

	.dwendtag $C$DW$215


$C$DW$228	.dwtag  DW_TAG_TI_loop
	.dwattr $C$DW$228, DW_AT_name("F:\eZdsp_DBG\eZDSP_5535_Files\ccsws2\test\Debug\csl_mmcsd.asm:$C$L121:2:1536993106")
	.dwattr $C$DW$228, DW_AT_TI_begin_file("../c5535_bsl_revc/ezdsp5535_v1/c55xx_csl/src/csl_mmcsd.c")
	.dwattr $C$DW$228, DW_AT_TI_begin_line(0x8b4)
	.dwattr $C$DW$228, DW_AT_TI_end_line(0x8b7)
$C$DW$229	.dwtag  DW_TAG_TI_loop_range
	.dwattr $C$DW$229, DW_AT_low_pc($C$DW$L$_MMC_selectCard$22$B)
	.dwattr $C$DW$229, DW_AT_high_pc($C$DW$L$_MMC_selectCard$22$E)
	.dwendtag $C$DW$228


$C$DW$230	.dwtag  DW_TAG_TI_loop
	.dwattr $C$DW$230, DW_AT_name("F:\eZdsp_DBG\eZDSP_5535_Files\ccsws2\test\Debug\csl_mmcsd.asm:$C$L117:2:1536993106")
	.dwattr $C$DW$230, DW_AT_TI_begin_file("../c5535_bsl_revc/ezdsp5535_v1/c55xx_csl/src/csl_mmcsd.c")
	.dwattr $C$DW$230, DW_AT_TI_begin_line(0x88e)
	.dwattr $C$DW$230, DW_AT_TI_end_line(0x895)
$C$DW$231	.dwtag  DW_TAG_TI_loop_range
	.dwattr $C$DW$231, DW_AT_low_pc($C$DW$L$_MMC_selectCard$13$B)
	.dwattr $C$DW$231, DW_AT_high_pc($C$DW$L$_MMC_selectCard$13$E)
$C$DW$232	.dwtag  DW_TAG_TI_loop_range
	.dwattr $C$DW$232, DW_AT_low_pc($C$DW$L$_MMC_selectCard$15$B)
	.dwattr $C$DW$232, DW_AT_high_pc($C$DW$L$_MMC_selectCard$15$E)
	.dwendtag $C$DW$230

	.dwendtag $C$DW$189


$C$DW$233	.dwtag  DW_TAG_TI_loop
	.dwattr $C$DW$233, DW_AT_name("F:\eZdsp_DBG\eZDSP_5535_Files\ccsws2\test\Debug\csl_mmcsd.asm:$C$L115:1:1536993106")
	.dwattr $C$DW$233, DW_AT_TI_begin_file("../c5535_bsl_revc/ezdsp5535_v1/c55xx_csl/src/csl_mmcsd.c")
	.dwattr $C$DW$233, DW_AT_TI_begin_line(0x872)
	.dwattr $C$DW$233, DW_AT_TI_end_line(0x875)
$C$DW$234	.dwtag  DW_TAG_TI_loop_range
	.dwattr $C$DW$234, DW_AT_low_pc($C$DW$L$_MMC_selectCard$9$B)
	.dwattr $C$DW$234, DW_AT_high_pc($C$DW$L$_MMC_selectCard$9$E)
	.dwendtag $C$DW$233

	.dwattr $C$DW$178, DW_AT_TI_end_file("../c5535_bsl_revc/ezdsp5535_v1/c55xx_csl/src/csl_mmcsd.c")
	.dwattr $C$DW$178, DW_AT_TI_end_line(0x947)
	.dwattr $C$DW$178, DW_AT_TI_end_column(0x01)
	.dwendentry
	.dwendtag $C$DW$178

	.sect	".text"
	.align 4
	.global	_MMC_sendOpCond

$C$DW$235	.dwtag  DW_TAG_subprogram, DW_AT_name("MMC_sendOpCond")
	.dwattr $C$DW$235, DW_AT_low_pc(_MMC_sendOpCond)
	.dwattr $C$DW$235, DW_AT_high_pc(0x00)
	.dwattr $C$DW$235, DW_AT_TI_symbol_name("_MMC_sendOpCond")
	.dwattr $C$DW$235, DW_AT_external
	.dwattr $C$DW$235, DW_AT_type(*$C$DW$T$116)
	.dwattr $C$DW$235, DW_AT_TI_begin_file("../c5535_bsl_revc/ezdsp5535_v1/c55xx_csl/src/csl_mmcsd.c")
	.dwattr $C$DW$235, DW_AT_TI_begin_line(0x97d)
	.dwattr $C$DW$235, DW_AT_TI_begin_column(0x0c)
	.dwattr $C$DW$235, DW_AT_TI_max_frame_size(0x04)
	.dwpsn	file "../c5535_bsl_revc/ezdsp5535_v1/c55xx_csl/src/csl_mmcsd.c",line 2431,column 1,is_stmt,address _MMC_sendOpCond

	.dwfde $C$DW$CIE, _MMC_sendOpCond
$C$DW$236	.dwtag  DW_TAG_formal_parameter, DW_AT_name("hMmcsd")
	.dwattr $C$DW$236, DW_AT_TI_symbol_name("_hMmcsd")
	.dwattr $C$DW$236, DW_AT_type(*$C$DW$T$114)
	.dwattr $C$DW$236, DW_AT_location[DW_OP_reg17]
$C$DW$237	.dwtag  DW_TAG_formal_parameter, DW_AT_name("clkDivValue")
	.dwattr $C$DW$237, DW_AT_TI_symbol_name("_clkDivValue")
	.dwattr $C$DW$237, DW_AT_type(*$C$DW$T$19)
	.dwattr $C$DW$237, DW_AT_location[DW_OP_reg12]
;*******************************************************************************
;* FUNCTION NAME: MMC_sendOpCond                                               *
;*                                                                             *
;*   Function Uses Regs : AC0,AC0,AC1,AC1,T0,AR0,XAR0,AR1,AR2,AR3,XAR3,SP,TC1, *
;*                        M40,SATA,SATD,RDM,FRCT,SMUL                          *
;*   Stack Frame        : Compact (No Frame Pointer, w/ debug)                 *
;*   Total Frame Size   : 4 words                                              *
;*                        (1 return address/alignment)                         *
;*                        (3 local values)                                     *
;*   Min System Stack   : 1 word                                               *
;*******************************************************************************
_MMC_sendOpCond:
	.dwcfi	cfa_offset, 1
	.dwcfi	save_reg_to_mem, 91, -1
        AADD #-3, SP
	.dwcfi	cfa_offset, 4
$C$DW$238	.dwtag  DW_TAG_variable, DW_AT_name("hMmcsd")
	.dwattr $C$DW$238, DW_AT_TI_symbol_name("_hMmcsd")
	.dwattr $C$DW$238, DW_AT_type(*$C$DW$T$114)
	.dwattr $C$DW$238, DW_AT_location[DW_OP_bregx 0x24 0]
$C$DW$239	.dwtag  DW_TAG_variable, DW_AT_name("clkDivValue")
	.dwattr $C$DW$239, DW_AT_TI_symbol_name("_clkDivValue")
	.dwattr $C$DW$239, DW_AT_type(*$C$DW$T$19)
	.dwattr $C$DW$239, DW_AT_location[DW_OP_bregx 0x24 2]
        MOV T0, *SP(#2) ; |2431| 
        MOV XAR0, dbl(*SP(#0))
	.dwpsn	file "../c5535_bsl_revc/ezdsp5535_v1/c55xx_csl/src/csl_mmcsd.c",line 2432,column 5,is_stmt
        MOV dbl(*SP(#0)), XAR3

        MOV XAR3, AC0
||      MOV #0, AC1 ; |2432| 

        CMPU AC1 != AC0, TC1 ; |2432| 
        BCC $C$L143,TC1 ; |2432| 
                                        ; branchcc occurs ; |2432| 
	.dwpsn	file "../c5535_bsl_revc/ezdsp5535_v1/c55xx_csl/src/csl_mmcsd.c",line 2434,column 9,is_stmt
        MOV #-5, T0
        B $C$L147 ; |2434| 
                                        ; branch occurs ; |2434| 
$C$L143:    
	.dwpsn	file "../c5535_bsl_revc/ezdsp5535_v1/c55xx_csl/src/csl_mmcsd.c",line 2438,column 3,is_stmt
        MOV #255, AR2 ; |2438| 
        MOV *SP(#2), AR1 ; |2438| 
        CMPU AR1 > AR2, TC1 ; |2438| 
        BCC $C$L146,TC1 ; |2438| 
                                        ; branchcc occurs ; |2438| 
	.dwpsn	file "../c5535_bsl_revc/ezdsp5535_v1/c55xx_csl/src/csl_mmcsd.c",line 2441,column 4,is_stmt
        MOV *AR3, AR3 ; |2441| 
        MOV port(*AR3(short(#4))), AR1 ; |2441| 
        MOV dbl(*SP(#0)), XAR3
        MOV *AR3, AR3 ; |2441| 
        BCLR @#8, AR1 ; |2441| 
        MOV AR1, port(*AR3(short(#4))) ; |2441| 
	.dwpsn	file "../c5535_bsl_revc/ezdsp5535_v1/c55xx_csl/src/csl_mmcsd.c",line 2442,column 4,is_stmt
        MOV dbl(*SP(#0)), XAR3
        MOV *AR3, AR3 ; |2442| 
        MOV port(*AR3(short(#4))), AR1 ; |2442| 
        MOV dbl(*SP(#0)), XAR3
        MOV *AR3, AR3 ; |2442| 
        AND #0xff00, AR1, AR2 ; |2442| 
        MOV uns(low_byte(*SP(#2))), AR1 ; |2442| 
        OR AR2, AR1 ; |2442| 
        MOV AR1, port(*AR3(short(#4))) ; |2442| 
	.dwpsn	file "../c5535_bsl_revc/ezdsp5535_v1/c55xx_csl/src/csl_mmcsd.c",line 2444,column 4,is_stmt
        MOV dbl(*SP(#0)), XAR3
        MOV dbl(*AR3(short(#2))), XAR3
        MOV #2, AR2
        MOV *AR3(#18), AR1 ; |2444| 
        CMP AR2 != AR1, TC1 ; |2444| 
        BCC $C$L144,TC1 ; |2444| 
                                        ; branchcc occurs ; |2444| 
	.dwpsn	file "../c5535_bsl_revc/ezdsp5535_v1/c55xx_csl/src/csl_mmcsd.c",line 2447,column 5,is_stmt
        MOV dbl(*SP(#0)), XAR3
        MOV *AR3, AR3 ; |2447| 
        MOV port(*AR3), AR1 ; |2447| 
        MOV dbl(*SP(#0)), XAR3
        MOV *AR3, AR3 ; |2447| 
        BCLR @#2, AR1 ; |2447| 
        MOV AR1, port(*AR3) ; |2447| 
$C$L144:    
	.dwpsn	file "../c5535_bsl_revc/ezdsp5535_v1/c55xx_csl/src/csl_mmcsd.c",line 2450,column 4,is_stmt
        MOV dbl(*SP(#0)), XAR3
        MOV dbl(*AR3(short(#2))), XAR3
        MOV #1, AR2
        MOV *AR3(#18), AR1 ; |2450| 
        CMP AR2 != AR1, TC1 ; |2450| 
        BCC $C$L145,TC1 ; |2450| 
                                        ; branchcc occurs ; |2450| 
	.dwpsn	file "../c5535_bsl_revc/ezdsp5535_v1/c55xx_csl/src/csl_mmcsd.c",line 2453,column 5,is_stmt
        MOV dbl(*SP(#0)), XAR3
        MOV *AR3, AR3 ; |2453| 
        MOV port(*AR3), AR1 ; |2453| 
        MOV dbl(*SP(#0)), XAR3
        MOV *AR3, AR3 ; |2453| 
        BCLR @#2, AR1 ; |2453| 
        BSET @#2, AR1 ; |2453| 
        MOV AR1, port(*AR3) ; |2453| 
$C$L145:    
	.dwpsn	file "../c5535_bsl_revc/ezdsp5535_v1/c55xx_csl/src/csl_mmcsd.c",line 2456,column 4,is_stmt
        MOV #0, T0
        B $C$L147 ; |2456| 
                                        ; branch occurs ; |2456| 
$C$L146:    
	.dwpsn	file "../c5535_bsl_revc/ezdsp5535_v1/c55xx_csl/src/csl_mmcsd.c",line 2460,column 4,is_stmt
        MOV #-6, T0
$C$L147:    
	.dwpsn	file "../c5535_bsl_revc/ezdsp5535_v1/c55xx_csl/src/csl_mmcsd.c",line 2463,column 1,is_stmt
        AADD #3, SP
	.dwcfi	cfa_offset, 1
$C$DW$240	.dwtag  DW_TAG_TI_branch
	.dwattr $C$DW$240, DW_AT_low_pc(0x00)
	.dwattr $C$DW$240, DW_AT_TI_return
        RET
                                        ; return occurs
	.dwattr $C$DW$235, DW_AT_TI_end_file("../c5535_bsl_revc/ezdsp5535_v1/c55xx_csl/src/csl_mmcsd.c")
	.dwattr $C$DW$235, DW_AT_TI_end_line(0x99f)
	.dwattr $C$DW$235, DW_AT_TI_end_column(0x01)
	.dwendentry
	.dwendtag $C$DW$235

	.sect	".text"
	.align 4
	.global	_MMC_setRca

$C$DW$241	.dwtag  DW_TAG_subprogram, DW_AT_name("MMC_setRca")
	.dwattr $C$DW$241, DW_AT_low_pc(_MMC_setRca)
	.dwattr $C$DW$241, DW_AT_high_pc(0x00)
	.dwattr $C$DW$241, DW_AT_TI_symbol_name("_MMC_setRca")
	.dwattr $C$DW$241, DW_AT_external
	.dwattr $C$DW$241, DW_AT_type(*$C$DW$T$116)
	.dwattr $C$DW$241, DW_AT_TI_begin_file("../c5535_bsl_revc/ezdsp5535_v1/c55xx_csl/src/csl_mmcsd.c")
	.dwattr $C$DW$241, DW_AT_TI_begin_line(0x9e5)
	.dwattr $C$DW$241, DW_AT_TI_begin_column(0x0c)
	.dwattr $C$DW$241, DW_AT_TI_max_frame_size(0x08)
	.dwpsn	file "../c5535_bsl_revc/ezdsp5535_v1/c55xx_csl/src/csl_mmcsd.c",line 2536,column 1,is_stmt,address _MMC_setRca

	.dwfde $C$DW$CIE, _MMC_setRca
$C$DW$242	.dwtag  DW_TAG_formal_parameter, DW_AT_name("hMmcsd")
	.dwattr $C$DW$242, DW_AT_TI_symbol_name("_hMmcsd")
	.dwattr $C$DW$242, DW_AT_type(*$C$DW$T$114)
	.dwattr $C$DW$242, DW_AT_location[DW_OP_reg17]
$C$DW$243	.dwtag  DW_TAG_formal_parameter, DW_AT_name("pMmcCardObj")
	.dwattr $C$DW$243, DW_AT_TI_symbol_name("_pMmcCardObj")
	.dwattr $C$DW$243, DW_AT_type(*$C$DW$T$82)
	.dwattr $C$DW$243, DW_AT_location[DW_OP_reg19]
$C$DW$244	.dwtag  DW_TAG_formal_parameter, DW_AT_name("rCardAddr")
	.dwattr $C$DW$244, DW_AT_TI_symbol_name("_rCardAddr")
	.dwattr $C$DW$244, DW_AT_type(*$C$DW$T$19)
	.dwattr $C$DW$244, DW_AT_location[DW_OP_reg12]
;*******************************************************************************
;* FUNCTION NAME: MMC_setRca                                                   *
;*                                                                             *
;*   Function Uses Regs : AC0,AC0,AC1,AC1,T0,AR0,XAR0,AR1,XAR1,AR2,XAR2,AR3,   *
;*                        XAR3,SP,TC1,M40,SATA,SATD,RDM,FRCT,SMUL              *
;*   Stack Frame        : Compact (No Frame Pointer, w/ debug)                 *
;*   Total Frame Size   : 8 words                                              *
;*                        (1 return address/alignment)                         *
;*                        (7 local values)                                     *
;*   Min System Stack   : 1 word                                               *
;*******************************************************************************
_MMC_setRca:
	.dwcfi	cfa_offset, 1
	.dwcfi	save_reg_to_mem, 91, -1
        AADD #-7, SP
	.dwcfi	cfa_offset, 8
$C$DW$245	.dwtag  DW_TAG_variable, DW_AT_name("hMmcsd")
	.dwattr $C$DW$245, DW_AT_TI_symbol_name("_hMmcsd")
	.dwattr $C$DW$245, DW_AT_type(*$C$DW$T$114)
	.dwattr $C$DW$245, DW_AT_location[DW_OP_bregx 0x24 0]
$C$DW$246	.dwtag  DW_TAG_variable, DW_AT_name("pMmcCardObj")
	.dwattr $C$DW$246, DW_AT_TI_symbol_name("_pMmcCardObj")
	.dwattr $C$DW$246, DW_AT_type(*$C$DW$T$82)
	.dwattr $C$DW$246, DW_AT_location[DW_OP_bregx 0x24 2]
$C$DW$247	.dwtag  DW_TAG_variable, DW_AT_name("rCardAddr")
	.dwattr $C$DW$247, DW_AT_TI_symbol_name("_rCardAddr")
	.dwattr $C$DW$247, DW_AT_type(*$C$DW$T$19)
	.dwattr $C$DW$247, DW_AT_location[DW_OP_bregx 0x24 4]
$C$DW$248	.dwtag  DW_TAG_variable, DW_AT_name("setRcaCmd")
	.dwattr $C$DW$248, DW_AT_TI_symbol_name("_setRcaCmd")
	.dwattr $C$DW$248, DW_AT_type(*$C$DW$T$19)
	.dwattr $C$DW$248, DW_AT_location[DW_OP_bregx 0x24 5]
$C$DW$249	.dwtag  DW_TAG_variable, DW_AT_name("status")
	.dwattr $C$DW$249, DW_AT_TI_symbol_name("_status")
	.dwattr $C$DW$249, DW_AT_type(*$C$DW$T$20)
	.dwattr $C$DW$249, DW_AT_location[DW_OP_bregx 0x24 6]
        MOV T0, *SP(#4) ; |2536| 
        MOV XAR1, dbl(*SP(#2))
        MOV XAR0, dbl(*SP(#0))
	.dwpsn	file "../c5535_bsl_revc/ezdsp5535_v1/c55xx_csl/src/csl_mmcsd.c",line 2540,column 5,is_stmt
        MOV #0, *SP(#5) ; |2540| 
	.dwpsn	file "../c5535_bsl_revc/ezdsp5535_v1/c55xx_csl/src/csl_mmcsd.c",line 2542,column 5,is_stmt
        MOV dbl(*SP(#0)), XAR3

        MOV XAR3, AC0
||      MOV #0, AC1 ; |2542| 

        CMPU AC1 != AC0, TC1 ; |2542| 
        BCC $C$L148,TC1 ; |2542| 
                                        ; branchcc occurs ; |2542| 
	.dwpsn	file "../c5535_bsl_revc/ezdsp5535_v1/c55xx_csl/src/csl_mmcsd.c",line 2544,column 9,is_stmt
        MOV #-5, T0
        B $C$L153 ; |2544| 
                                        ; branch occurs ; |2544| 
$C$L148:    
	.dwpsn	file "../c5535_bsl_revc/ezdsp5535_v1/c55xx_csl/src/csl_mmcsd.c",line 2548,column 9,is_stmt
        MOV dbl(*SP(#2)), XAR3
        MOV XAR3, AC0
        CMPU AC1 != AC0, TC1 ; |2548| 
        BCC $C$L149,TC1 ; |2548| 
                                        ; branchcc occurs ; |2548| 
	.dwpsn	file "../c5535_bsl_revc/ezdsp5535_v1/c55xx_csl/src/csl_mmcsd.c",line 2550,column 13,is_stmt
        MOV #-6, T0
        B $C$L153 ; |2550| 
                                        ; branch occurs ; |2550| 
$C$L149:    
	.dwpsn	file "../c5535_bsl_revc/ezdsp5535_v1/c55xx_csl/src/csl_mmcsd.c",line 2554,column 10,is_stmt
        MOV dbl(*SP(#0)), XAR3
        MOV #52, T0 ; |2554| 
        MOV *AR3, AR3 ; |2554| 
        MOV port(*AR3(T0)), AR1 ; |2554| 
        MOV dbl(*SP(#0)), XAR3
        MOV *AR3, AR3 ; |2554| 
        MOV #0, port(*AR3(T0)) ; |2554| 
	.dwpsn	file "../c5535_bsl_revc/ezdsp5535_v1/c55xx_csl/src/csl_mmcsd.c",line 2556,column 10,is_stmt
        MOV dbl(*SP(#0)), XAR3
        MOV #53, T0 ; |2556| 
        MOV *AR3, AR3 ; |2556| 
        MOV port(*AR3(T0)), AR1 ; |2556| 
        MOV dbl(*SP(#0)), XAR3
        MOV *AR3, AR3 ; |2556| 
        MOV *SP(#4), AR1 ; |2556| 
        OR #0x0000, AR1, AR1 ; |2556| 
        MOV AR1, port(*AR3(T0)) ; |2556| 
	.dwpsn	file "../c5535_bsl_revc/ezdsp5535_v1/c55xx_csl/src/csl_mmcsd.c",line 2560,column 10,is_stmt
        AND #0x7fff, *SP(#5) ; |2560| 
	.dwpsn	file "../c5535_bsl_revc/ezdsp5535_v1/c55xx_csl/src/csl_mmcsd.c",line 2561,column 10,is_stmt
        AND #0xbfff, *SP(#5) ; |2561| 
	.dwpsn	file "../c5535_bsl_revc/ezdsp5535_v1/c55xx_csl/src/csl_mmcsd.c",line 2562,column 10,is_stmt
        AND #0xdfff, *SP(#5) ; |2562| 
	.dwpsn	file "../c5535_bsl_revc/ezdsp5535_v1/c55xx_csl/src/csl_mmcsd.c",line 2563,column 10,is_stmt
        AND #0xefff, *SP(#5) ; |2563| 
	.dwpsn	file "../c5535_bsl_revc/ezdsp5535_v1/c55xx_csl/src/csl_mmcsd.c",line 2564,column 10,is_stmt
        AND #0xf7ff, *SP(#5) ; |2564| 
	.dwpsn	file "../c5535_bsl_revc/ezdsp5535_v1/c55xx_csl/src/csl_mmcsd.c",line 2566,column 10,is_stmt
        MOV *SP(#5), AR1 ; |2566| 
        AND #0xf9ff, AR1, AC0 ; |2566| 
        BSET @#9, AC0 ; |2566| 
        MOV AC0, *SP(#5) ; |2566| 
	.dwpsn	file "../c5535_bsl_revc/ezdsp5535_v1/c55xx_csl/src/csl_mmcsd.c",line 2567,column 10,is_stmt
        AND #0xfeff, *SP(#5) ; |2567| 
	.dwpsn	file "../c5535_bsl_revc/ezdsp5535_v1/c55xx_csl/src/csl_mmcsd.c",line 2568,column 13,is_stmt
        AND #0xff7f, *SP(#5) ; |2568| 
	.dwpsn	file "../c5535_bsl_revc/ezdsp5535_v1/c55xx_csl/src/csl_mmcsd.c",line 2569,column 10,is_stmt
        MOV *SP(#5), AR1 ; |2569| 
        AND #0xffc0, AR1, AR1 ; |2569| 
        OR #0x0003, AR1, AR1 ; |2569| 
        MOV AR1, *SP(#5) ; |2569| 
	.dwpsn	file "../c5535_bsl_revc/ezdsp5535_v1/c55xx_csl/src/csl_mmcsd.c",line 2570,column 4,is_stmt
        MOV dbl(*SP(#0)), XAR3
        MOV #48, T0 ; |2570| 
        MOV *AR3, AR3 ; |2570| 
        MOV AR1, port(*AR3(T0)) ; |2570| 
        MOV #8, T0
$C$L150:    
$C$DW$L$_MMC_setRca$8$B:
	.dwpsn	file "../c5535_bsl_revc/ezdsp5535_v1/c55xx_csl/src/csl_mmcsd.c",line 2574,column 17,is_stmt
        MOV dbl(*SP(#0)), XAR3
        MOV *AR3, AR3 ; |2574| 
        MOV port(*AR3(T0)), AR1 ; |2574| 
        MOV AR1, *SP(#6) ; |2574| 
        NOP
        NOP
        NOP
	.dwpsn	file "../c5535_bsl_revc/ezdsp5535_v1/c55xx_csl/src/csl_mmcsd.c",line 2575,column 5,is_stmt
        BAND *SP(#6), #144, TC1 ; |2575| 
        BCC $C$L152,!TC1 ; |2575| 
                                        ; branchcc occurs ; |2575| 
$C$DW$L$_MMC_setRca$8$E:
	.dwpsn	file "../c5535_bsl_revc/ezdsp5535_v1/c55xx_csl/src/csl_mmcsd.c",line 2577,column 6,is_stmt
        BTST #4, *SP(#6), TC1 ; |2577| 
        BCC $C$L151,!TC1 ; |2577| 
                                        ; branchcc occurs ; |2577| 
	.dwpsn	file "../c5535_bsl_revc/ezdsp5535_v1/c55xx_csl/src/csl_mmcsd.c",line 2579,column 7,is_stmt
        MOV #-10, T0
        B $C$L153 ; |2579| 
                                        ; branch occurs ; |2579| 
$C$L151:    
	.dwpsn	file "../c5535_bsl_revc/ezdsp5535_v1/c55xx_csl/src/csl_mmcsd.c",line 2583,column 7,is_stmt
        MOV #-15, T0
        B $C$L153 ; |2583| 
                                        ; branch occurs ; |2583| 
$C$L152:    
$C$DW$L$_MMC_setRca$13$B:
	.dwpsn	file "../c5535_bsl_revc/ezdsp5535_v1/c55xx_csl/src/csl_mmcsd.c",line 2586,column 18,is_stmt
        BTST #2, *SP(#6), TC1 ; |2586| 
        BCC $C$L150,!TC1 ; |2586| 
                                        ; branchcc occurs ; |2586| 
$C$DW$L$_MMC_setRca$13$E:
	.dwpsn	file "../c5535_bsl_revc/ezdsp5535_v1/c55xx_csl/src/csl_mmcsd.c",line 2588,column 4,is_stmt
        MOV dbl(*SP(#2)), XAR3
        MOV *SP(#4), AR1 ; |2588| 
        MOV AR1, *AR3 ; |2588| 
	.dwpsn	file "../c5535_bsl_revc/ezdsp5535_v1/c55xx_csl/src/csl_mmcsd.c",line 2589,column 4,is_stmt
        MOV dbl(*SP(#0)), XAR3
        MOV dbl(*SP(#2)), XAR2
        MOV XAR2, dbl(*AR3(short(#2)))
	.dwpsn	file "../c5535_bsl_revc/ezdsp5535_v1/c55xx_csl/src/csl_mmcsd.c",line 2591,column 4,is_stmt
        MOV #0, T0
$C$L153:    
	.dwpsn	file "../c5535_bsl_revc/ezdsp5535_v1/c55xx_csl/src/csl_mmcsd.c",line 2594,column 1,is_stmt
        AADD #7, SP
	.dwcfi	cfa_offset, 1
$C$DW$250	.dwtag  DW_TAG_TI_branch
	.dwattr $C$DW$250, DW_AT_low_pc(0x00)
	.dwattr $C$DW$250, DW_AT_TI_return
        RET
                                        ; return occurs

$C$DW$251	.dwtag  DW_TAG_TI_loop
	.dwattr $C$DW$251, DW_AT_name("F:\eZdsp_DBG\eZDSP_5535_Files\ccsws2\test\Debug\csl_mmcsd.asm:$C$L150:1:1536993106")
	.dwattr $C$DW$251, DW_AT_TI_begin_file("../c5535_bsl_revc/ezdsp5535_v1/c55xx_csl/src/csl_mmcsd.c")
	.dwattr $C$DW$251, DW_AT_TI_begin_line(0xa0c)
	.dwattr $C$DW$251, DW_AT_TI_end_line(0xa1a)
$C$DW$252	.dwtag  DW_TAG_TI_loop_range
	.dwattr $C$DW$252, DW_AT_low_pc($C$DW$L$_MMC_setRca$8$B)
	.dwattr $C$DW$252, DW_AT_high_pc($C$DW$L$_MMC_setRca$8$E)
$C$DW$253	.dwtag  DW_TAG_TI_loop_range
	.dwattr $C$DW$253, DW_AT_low_pc($C$DW$L$_MMC_setRca$13$B)
	.dwattr $C$DW$253, DW_AT_high_pc($C$DW$L$_MMC_setRca$13$E)
	.dwendtag $C$DW$251

	.dwattr $C$DW$241, DW_AT_TI_end_file("../c5535_bsl_revc/ezdsp5535_v1/c55xx_csl/src/csl_mmcsd.c")
	.dwattr $C$DW$241, DW_AT_TI_end_line(0xa22)
	.dwattr $C$DW$241, DW_AT_TI_end_column(0x01)
	.dwendentry
	.dwendtag $C$DW$241

	.sect	".text"
	.align 4
	.global	_SD_sendRca

$C$DW$254	.dwtag  DW_TAG_subprogram, DW_AT_name("SD_sendRca")
	.dwattr $C$DW$254, DW_AT_low_pc(_SD_sendRca)
	.dwattr $C$DW$254, DW_AT_high_pc(0x00)
	.dwattr $C$DW$254, DW_AT_TI_symbol_name("_SD_sendRca")
	.dwattr $C$DW$254, DW_AT_external
	.dwattr $C$DW$254, DW_AT_type(*$C$DW$T$116)
	.dwattr $C$DW$254, DW_AT_TI_begin_file("../c5535_bsl_revc/ezdsp5535_v1/c55xx_csl/src/csl_mmcsd.c")
	.dwattr $C$DW$254, DW_AT_TI_begin_line(0xa68)
	.dwattr $C$DW$254, DW_AT_TI_begin_column(0x0c)
	.dwattr $C$DW$254, DW_AT_TI_max_frame_size(0x0a)
	.dwpsn	file "../c5535_bsl_revc/ezdsp5535_v1/c55xx_csl/src/csl_mmcsd.c",line 2667,column 1,is_stmt,address _SD_sendRca

	.dwfde $C$DW$CIE, _SD_sendRca
$C$DW$255	.dwtag  DW_TAG_formal_parameter, DW_AT_name("hMmcsd")
	.dwattr $C$DW$255, DW_AT_TI_symbol_name("_hMmcsd")
	.dwattr $C$DW$255, DW_AT_type(*$C$DW$T$114)
	.dwattr $C$DW$255, DW_AT_location[DW_OP_reg17]
$C$DW$256	.dwtag  DW_TAG_formal_parameter, DW_AT_name("pSdCardObj")
	.dwattr $C$DW$256, DW_AT_TI_symbol_name("_pSdCardObj")
	.dwattr $C$DW$256, DW_AT_type(*$C$DW$T$82)
	.dwattr $C$DW$256, DW_AT_location[DW_OP_reg19]
$C$DW$257	.dwtag  DW_TAG_formal_parameter, DW_AT_name("pRCardAddr")
	.dwattr $C$DW$257, DW_AT_TI_symbol_name("_pRCardAddr")
	.dwattr $C$DW$257, DW_AT_type(*$C$DW$T$141)
	.dwattr $C$DW$257, DW_AT_location[DW_OP_reg21]
;*******************************************************************************
;* FUNCTION NAME: SD_sendRca                                                   *
;*                                                                             *
;*   Function Uses Regs : AC0,AC0,AC1,AC1,T0,AR0,XAR0,AR1,XAR1,AR2,XAR2,AR3,   *
;*                        XAR3,SP,TC1,M40,SATA,SATD,RDM,FRCT,SMUL              *
;*   Stack Frame        : Compact (No Frame Pointer, w/ debug)                 *
;*   Total Frame Size   : 10 words                                             *
;*                        (2 return address/alignment)                         *
;*                        (8 local values)                                     *
;*   Min System Stack   : 1 word                                               *
;*******************************************************************************
_SD_sendRca:
	.dwcfi	cfa_offset, 1
	.dwcfi	save_reg_to_mem, 91, -1
        AADD #-9, SP
	.dwcfi	cfa_offset, 10
$C$DW$258	.dwtag  DW_TAG_variable, DW_AT_name("hMmcsd")
	.dwattr $C$DW$258, DW_AT_TI_symbol_name("_hMmcsd")
	.dwattr $C$DW$258, DW_AT_type(*$C$DW$T$114)
	.dwattr $C$DW$258, DW_AT_location[DW_OP_bregx 0x24 0]
$C$DW$259	.dwtag  DW_TAG_variable, DW_AT_name("pSdCardObj")
	.dwattr $C$DW$259, DW_AT_TI_symbol_name("_pSdCardObj")
	.dwattr $C$DW$259, DW_AT_type(*$C$DW$T$82)
	.dwattr $C$DW$259, DW_AT_location[DW_OP_bregx 0x24 2]
$C$DW$260	.dwtag  DW_TAG_variable, DW_AT_name("pRCardAddr")
	.dwattr $C$DW$260, DW_AT_TI_symbol_name("_pRCardAddr")
	.dwattr $C$DW$260, DW_AT_type(*$C$DW$T$141)
	.dwattr $C$DW$260, DW_AT_location[DW_OP_bregx 0x24 4]
$C$DW$261	.dwtag  DW_TAG_variable, DW_AT_name("sendRcaCmd")
	.dwattr $C$DW$261, DW_AT_TI_symbol_name("_sendRcaCmd")
	.dwattr $C$DW$261, DW_AT_type(*$C$DW$T$20)
	.dwattr $C$DW$261, DW_AT_location[DW_OP_bregx 0x24 6]
$C$DW$262	.dwtag  DW_TAG_variable, DW_AT_name("status")
	.dwattr $C$DW$262, DW_AT_TI_symbol_name("_status")
	.dwattr $C$DW$262, DW_AT_type(*$C$DW$T$20)
	.dwattr $C$DW$262, DW_AT_location[DW_OP_bregx 0x24 7]
        MOV XAR2, dbl(*SP(#4))
        MOV XAR1, dbl(*SP(#2))
        MOV XAR0, dbl(*SP(#0))
	.dwpsn	file "../c5535_bsl_revc/ezdsp5535_v1/c55xx_csl/src/csl_mmcsd.c",line 2671,column 5,is_stmt
        MOV #0, *SP(#6) ; |2671| 
	.dwpsn	file "../c5535_bsl_revc/ezdsp5535_v1/c55xx_csl/src/csl_mmcsd.c",line 2673,column 5,is_stmt
        MOV dbl(*SP(#0)), XAR3

        MOV XAR3, AC0
||      MOV #0, AC1 ; |2673| 

        CMPU AC1 != AC0, TC1 ; |2673| 
        BCC $C$L154,TC1 ; |2673| 
                                        ; branchcc occurs ; |2673| 
	.dwpsn	file "../c5535_bsl_revc/ezdsp5535_v1/c55xx_csl/src/csl_mmcsd.c",line 2675,column 9,is_stmt
        MOV #-5, T0
        B $C$L160 ; |2675| 
                                        ; branch occurs ; |2675| 
$C$L154:    
	.dwpsn	file "../c5535_bsl_revc/ezdsp5535_v1/c55xx_csl/src/csl_mmcsd.c",line 2679,column 9,is_stmt
        MOV dbl(*SP(#2)), XAR3
        MOV XAR3, AC0
        CMPU AC1 == AC0, TC1 ; |2679| 
        BCC $C$L155,TC1 ; |2679| 
                                        ; branchcc occurs ; |2679| 
        MOV dbl(*SP(#4)), XAR3
        MOV XAR3, AC0
        CMPU AC1 != AC0, TC1 ; |2679| 
        BCC $C$L156,TC1 ; |2679| 
                                        ; branchcc occurs ; |2679| 
$C$L155:    
	.dwpsn	file "../c5535_bsl_revc/ezdsp5535_v1/c55xx_csl/src/csl_mmcsd.c",line 2681,column 13,is_stmt
        MOV #-6, T0
        B $C$L160 ; |2681| 
                                        ; branch occurs ; |2681| 
$C$L156:    
	.dwpsn	file "../c5535_bsl_revc/ezdsp5535_v1/c55xx_csl/src/csl_mmcsd.c",line 2685,column 10,is_stmt
        MOV dbl(*SP(#0)), XAR3
        MOV #52, T0 ; |2685| 
        MOV *AR3, AR3 ; |2685| 
        MOV port(*AR3(T0)), AR1 ; |2685| 
        MOV dbl(*SP(#0)), XAR3
        MOV *AR3, AR3 ; |2685| 
        MOV #0, port(*AR3(T0)) ; |2685| 
	.dwpsn	file "../c5535_bsl_revc/ezdsp5535_v1/c55xx_csl/src/csl_mmcsd.c",line 2687,column 10,is_stmt
        MOV dbl(*SP(#0)), XAR3
        MOV #53, T0 ; |2687| 
        MOV *AR3, AR3 ; |2687| 
        MOV port(*AR3(T0)), AR1 ; |2687| 
        MOV dbl(*SP(#0)), XAR3
        MOV *AR3, AR3 ; |2687| 
        MOV #0, port(*AR3(T0)) ; |2687| 
	.dwpsn	file "../c5535_bsl_revc/ezdsp5535_v1/c55xx_csl/src/csl_mmcsd.c",line 2691,column 10,is_stmt
        AND #0x7fff, *SP(#6) ; |2691| 
	.dwpsn	file "../c5535_bsl_revc/ezdsp5535_v1/c55xx_csl/src/csl_mmcsd.c",line 2692,column 10,is_stmt
        AND #0xbfff, *SP(#6) ; |2692| 
	.dwpsn	file "../c5535_bsl_revc/ezdsp5535_v1/c55xx_csl/src/csl_mmcsd.c",line 2693,column 10,is_stmt
        AND #0xdfff, *SP(#6) ; |2693| 
	.dwpsn	file "../c5535_bsl_revc/ezdsp5535_v1/c55xx_csl/src/csl_mmcsd.c",line 2694,column 10,is_stmt
        AND #0xefff, *SP(#6) ; |2694| 
	.dwpsn	file "../c5535_bsl_revc/ezdsp5535_v1/c55xx_csl/src/csl_mmcsd.c",line 2695,column 10,is_stmt
        AND #0xf7ff, *SP(#6) ; |2695| 
        NOP
        NOP
        NOP
	.dwpsn	file "../c5535_bsl_revc/ezdsp5535_v1/c55xx_csl/src/csl_mmcsd.c",line 2697,column 4,is_stmt
        MOV *SP(#6), AR1 ; |2697| 
        AND #0xf9ff, AR1, AC0 ; |2697| 
        BSET @#9, AC0 ; |2697| 
        MOV AC0, *SP(#6) ; |2697| 
	.dwpsn	file "../c5535_bsl_revc/ezdsp5535_v1/c55xx_csl/src/csl_mmcsd.c",line 2698,column 10,is_stmt
        AND #0xfeff, *SP(#6) ; |2698| 
	.dwpsn	file "../c5535_bsl_revc/ezdsp5535_v1/c55xx_csl/src/csl_mmcsd.c",line 2699,column 13,is_stmt
        AND #0xff7f, *SP(#6) ; |2699| 
        NOP
        NOP
        NOP
	.dwpsn	file "../c5535_bsl_revc/ezdsp5535_v1/c55xx_csl/src/csl_mmcsd.c",line 2700,column 10,is_stmt
        MOV *SP(#6), AR1 ; |2700| 
        AND #0xffc0, AR1, AR1 ; |2700| 
        OR #0x0003, AR1, AR1 ; |2700| 
        MOV AR1, *SP(#6) ; |2700| 
	.dwpsn	file "../c5535_bsl_revc/ezdsp5535_v1/c55xx_csl/src/csl_mmcsd.c",line 2701,column 4,is_stmt
        MOV dbl(*SP(#0)), XAR3
        MOV #48, T0 ; |2701| 
        MOV *AR3, AR3 ; |2701| 
        MOV *SP(#6), AR1 ; |2701| 
        MOV AR1, port(*AR3(T0)) ; |2701| 
        MOV #8, T0
$C$L157:    
$C$DW$L$_SD_sendRca$9$B:
	.dwpsn	file "../c5535_bsl_revc/ezdsp5535_v1/c55xx_csl/src/csl_mmcsd.c",line 2705,column 11,is_stmt
        MOV dbl(*SP(#0)), XAR3
        MOV *AR3, AR3 ; |2705| 
        MOV port(*AR3(T0)), AR1 ; |2705| 
        MOV AR1, *SP(#7) ; |2705| 
        NOP
        NOP
        NOP
	.dwpsn	file "../c5535_bsl_revc/ezdsp5535_v1/c55xx_csl/src/csl_mmcsd.c",line 2706,column 5,is_stmt
        BAND *SP(#7), #144, TC1 ; |2706| 
        BCC $C$L159,!TC1 ; |2706| 
                                        ; branchcc occurs ; |2706| 
$C$DW$L$_SD_sendRca$9$E:
	.dwpsn	file "../c5535_bsl_revc/ezdsp5535_v1/c55xx_csl/src/csl_mmcsd.c",line 2708,column 6,is_stmt
        BTST #4, *SP(#7), TC1 ; |2708| 
        BCC $C$L158,!TC1 ; |2708| 
                                        ; branchcc occurs ; |2708| 
	.dwpsn	file "../c5535_bsl_revc/ezdsp5535_v1/c55xx_csl/src/csl_mmcsd.c",line 2710,column 7,is_stmt
        MOV #-10, T0
        B $C$L160 ; |2710| 
                                        ; branch occurs ; |2710| 
$C$L158:    
	.dwpsn	file "../c5535_bsl_revc/ezdsp5535_v1/c55xx_csl/src/csl_mmcsd.c",line 2714,column 7,is_stmt
        MOV #-15, T0
        B $C$L160 ; |2714| 
                                        ; branch occurs ; |2714| 
$C$L159:    
$C$DW$L$_SD_sendRca$14$B:
	.dwpsn	file "../c5535_bsl_revc/ezdsp5535_v1/c55xx_csl/src/csl_mmcsd.c",line 2717,column 12,is_stmt
        BTST #2, *SP(#7), TC1 ; |2717| 
        BCC $C$L157,!TC1 ; |2717| 
                                        ; branchcc occurs ; |2717| 
$C$DW$L$_SD_sendRca$14$E:
	.dwpsn	file "../c5535_bsl_revc/ezdsp5535_v1/c55xx_csl/src/csl_mmcsd.c",line 2719,column 13,is_stmt
        MOV dbl(*SP(#0)), XAR3
        MOV #69, T0 ; |2719| 
        MOV *AR3, AR3 ; |2719| 
        MOV port(*AR3(T0)), AR1 ; |2719| 
        MOV dbl(*SP(#4)), XAR3
        MOV AR1, *AR3 ; |2719| 
	.dwpsn	file "../c5535_bsl_revc/ezdsp5535_v1/c55xx_csl/src/csl_mmcsd.c",line 2720,column 13,is_stmt
        MOV dbl(*SP(#2)), XAR2
        MOV dbl(*SP(#4)), XAR3
        MOV *AR3, *AR2 ; |2720| 
	.dwpsn	file "../c5535_bsl_revc/ezdsp5535_v1/c55xx_csl/src/csl_mmcsd.c",line 2721,column 13,is_stmt
        MOV dbl(*SP(#0)), XAR3
        MOV dbl(*SP(#2)), XAR2
        MOV XAR2, dbl(*AR3(short(#2)))
	.dwpsn	file "../c5535_bsl_revc/ezdsp5535_v1/c55xx_csl/src/csl_mmcsd.c",line 2723,column 13,is_stmt
        MOV #0, T0
$C$L160:    
	.dwpsn	file "../c5535_bsl_revc/ezdsp5535_v1/c55xx_csl/src/csl_mmcsd.c",line 2726,column 1,is_stmt
        AADD #9, SP
	.dwcfi	cfa_offset, 1
$C$DW$263	.dwtag  DW_TAG_TI_branch
	.dwattr $C$DW$263, DW_AT_low_pc(0x00)
	.dwattr $C$DW$263, DW_AT_TI_return
        RET
                                        ; return occurs

$C$DW$264	.dwtag  DW_TAG_TI_loop
	.dwattr $C$DW$264, DW_AT_name("F:\eZdsp_DBG\eZDSP_5535_Files\ccsws2\test\Debug\csl_mmcsd.asm:$C$L157:1:1536993106")
	.dwattr $C$DW$264, DW_AT_TI_begin_file("../c5535_bsl_revc/ezdsp5535_v1/c55xx_csl/src/csl_mmcsd.c")
	.dwattr $C$DW$264, DW_AT_TI_begin_line(0xa8f)
	.dwattr $C$DW$264, DW_AT_TI_end_line(0xa9d)
$C$DW$265	.dwtag  DW_TAG_TI_loop_range
	.dwattr $C$DW$265, DW_AT_low_pc($C$DW$L$_SD_sendRca$9$B)
	.dwattr $C$DW$265, DW_AT_high_pc($C$DW$L$_SD_sendRca$9$E)
$C$DW$266	.dwtag  DW_TAG_TI_loop_range
	.dwattr $C$DW$266, DW_AT_low_pc($C$DW$L$_SD_sendRca$14$B)
	.dwattr $C$DW$266, DW_AT_high_pc($C$DW$L$_SD_sendRca$14$E)
	.dwendtag $C$DW$264

	.dwattr $C$DW$254, DW_AT_TI_end_file("../c5535_bsl_revc/ezdsp5535_v1/c55xx_csl/src/csl_mmcsd.c")
	.dwattr $C$DW$254, DW_AT_TI_end_line(0xaa6)
	.dwattr $C$DW$254, DW_AT_TI_end_column(0x01)
	.dwendentry
	.dwendtag $C$DW$254

	.sect	".text"
	.align 4
	.global	_MMC_sendAllCID

$C$DW$267	.dwtag  DW_TAG_subprogram, DW_AT_name("MMC_sendAllCID")
	.dwattr $C$DW$267, DW_AT_low_pc(_MMC_sendAllCID)
	.dwattr $C$DW$267, DW_AT_high_pc(0x00)
	.dwattr $C$DW$267, DW_AT_TI_symbol_name("_MMC_sendAllCID")
	.dwattr $C$DW$267, DW_AT_external
	.dwattr $C$DW$267, DW_AT_type(*$C$DW$T$116)
	.dwattr $C$DW$267, DW_AT_TI_begin_file("../c5535_bsl_revc/ezdsp5535_v1/c55xx_csl/src/csl_mmcsd.c")
	.dwattr $C$DW$267, DW_AT_TI_begin_line(0xae5)
	.dwattr $C$DW$267, DW_AT_TI_begin_column(0x0c)
	.dwattr $C$DW$267, DW_AT_TI_max_frame_size(0x0e)
	.dwpsn	file "../c5535_bsl_revc/ezdsp5535_v1/c55xx_csl/src/csl_mmcsd.c",line 2791,column 1,is_stmt,address _MMC_sendAllCID

	.dwfde $C$DW$CIE, _MMC_sendAllCID
$C$DW$268	.dwtag  DW_TAG_formal_parameter, DW_AT_name("hMmcsd")
	.dwattr $C$DW$268, DW_AT_TI_symbol_name("_hMmcsd")
	.dwattr $C$DW$268, DW_AT_type(*$C$DW$T$114)
	.dwattr $C$DW$268, DW_AT_location[DW_OP_reg17]
$C$DW$269	.dwtag  DW_TAG_formal_parameter, DW_AT_name("pMmcCardIdObj")
	.dwattr $C$DW$269, DW_AT_TI_symbol_name("_pMmcCardIdObj")
	.dwattr $C$DW$269, DW_AT_type(*$C$DW$T$64)
	.dwattr $C$DW$269, DW_AT_location[DW_OP_reg19]
;*******************************************************************************
;* FUNCTION NAME: MMC_sendAllCID                                               *
;*                                                                             *
;*   Function Uses Regs : AC0,AC0,AC1,AC1,T0,AR0,XAR0,AR1,XAR1,AR2,XAR2,AR3,   *
;*                        XAR3,SP,CSR,RPTC,CARRY,TC1,M40,SATA,SATD,RDM,FRCT,   *
;*                        SMUL                                                 *
;*   Stack Frame        : Compact (No Frame Pointer, w/ debug)                 *
;*   Total Frame Size   : 14 words                                             *
;*                        (1 return address/alignment)                         *
;*                        (13 local values)                                    *
;*   Min System Stack   : 1 word                                               *
;*******************************************************************************
_MMC_sendAllCID:
	.dwcfi	cfa_offset, 1
	.dwcfi	save_reg_to_mem, 91, -1
        AADD #-13, SP
	.dwcfi	cfa_offset, 14
$C$DW$270	.dwtag  DW_TAG_variable, DW_AT_name("hMmcsd")
	.dwattr $C$DW$270, DW_AT_TI_symbol_name("_hMmcsd")
	.dwattr $C$DW$270, DW_AT_type(*$C$DW$T$114)
	.dwattr $C$DW$270, DW_AT_location[DW_OP_bregx 0x24 0]
$C$DW$271	.dwtag  DW_TAG_variable, DW_AT_name("pMmcCardIdObj")
	.dwattr $C$DW$271, DW_AT_TI_symbol_name("_pMmcCardIdObj")
	.dwattr $C$DW$271, DW_AT_type(*$C$DW$T$64)
	.dwattr $C$DW$271, DW_AT_location[DW_OP_bregx 0x24 2]
$C$DW$272	.dwtag  DW_TAG_variable, DW_AT_name("status")
	.dwattr $C$DW$272, DW_AT_TI_symbol_name("_status")
	.dwattr $C$DW$272, DW_AT_type(*$C$DW$T$20)
	.dwattr $C$DW$272, DW_AT_location[DW_OP_bregx 0x24 4]
$C$DW$273	.dwtag  DW_TAG_variable, DW_AT_name("mmcCid")
	.dwattr $C$DW$273, DW_AT_TI_symbol_name("_mmcCid")
	.dwattr $C$DW$273, DW_AT_type(*$C$DW$T$94)
	.dwattr $C$DW$273, DW_AT_location[DW_OP_bregx 0x24 5]
        MOV XAR1, dbl(*SP(#2))
        MOV XAR0, dbl(*SP(#0))
	.dwpsn	file "../c5535_bsl_revc/ezdsp5535_v1/c55xx_csl/src/csl_mmcsd.c",line 2795,column 5,is_stmt
        MOV dbl(*SP(#0)), XAR3
        MOV XAR3, AC0
        BCC $C$L161,AC0 == #0 ; |2795| 
                                        ; branchcc occurs ; |2795| 
        MOV dbl(*SP(#2)), XAR3
        MOV XAR3, AC0
        BCC $C$L163,AC0 != #0 ; |2795| 
                                        ; branchcc occurs ; |2795| 
	.dwpsn	file "../c5535_bsl_revc/ezdsp5535_v1/c55xx_csl/src/csl_mmcsd.c",line 2798,column 5,is_stmt
$C$L161:    
	.dwpsn	file "../c5535_bsl_revc/ezdsp5535_v1/c55xx_csl/src/csl_mmcsd.c",line 2801,column 9,is_stmt
        MOV dbl(*SP(#0)), XAR3

        MOV XAR3, AC0
||      MOV #0, AC1 ; |2801| 

        CMPU AC1 != AC0, TC1 ; |2801| 
        BCC $C$L162,TC1 ; |2801| 
                                        ; branchcc occurs ; |2801| 
	.dwpsn	file "../c5535_bsl_revc/ezdsp5535_v1/c55xx_csl/src/csl_mmcsd.c",line 2803,column 13,is_stmt
        MOV #-5, T0
        B $C$L169 ; |2803| 
                                        ; branch occurs ; |2803| 
$C$L162:    
	.dwpsn	file "../c5535_bsl_revc/ezdsp5535_v1/c55xx_csl/src/csl_mmcsd.c",line 2807,column 13,is_stmt
        MOV #-6, T0
        B $C$L169 ; |2807| 
                                        ; branch occurs ; |2807| 
$C$L163:    
	.dwpsn	file "../c5535_bsl_revc/ezdsp5535_v1/c55xx_csl/src/csl_mmcsd.c",line 2812,column 5,is_stmt
        MOV dbl(*SP(#0)), XAR3
        MOV #69, T0 ; |2812| 
        MOV *AR3, AR3 ; |2812| 
        MOV #0, port(*AR3(T0)) ; |2812| 
	.dwpsn	file "../c5535_bsl_revc/ezdsp5535_v1/c55xx_csl/src/csl_mmcsd.c",line 2813,column 5,is_stmt
        MOV dbl(*SP(#0)), XAR3
        MOV #80, T0 ; |2813| 
        MOV *AR3, AR3 ; |2813| 
        MOV port(*AR3(T0)), AR1 ; |2813| 
        MOV dbl(*SP(#0)), XAR3
        MOV *AR3, AR3 ; |2813| 
        AND #0xffc0, AR1, AC0 ; |2813| 
        MOV AC0, port(*AR3(T0)) ; |2813| 
	.dwpsn	file "../c5535_bsl_revc/ezdsp5535_v1/c55xx_csl/src/csl_mmcsd.c",line 2814,column 5,is_stmt
        MOV dbl(*SP(#0)), XAR3
        MOV #52, T0 ; |2814| 
        MOV *AR3, AR3 ; |2814| 
