;*******************************************************************************
;* TMS320C55x C/C++ Codegen                                          PC v4.4.1 *
;* Date/Time created: Sat Sep 22 03:36:56 2018                                 *
;*******************************************************************************
	.compiler_opts --hll_source=on --mem_model:code=flat --mem_model:data=large --object_format=coff --silicon_core_3_3 --symdebug:dwarf 
	.mmregs
	.cpl_on
	.arms_on
	.c54cm_off
	.asg AR6, FP
	.asg XAR6, XFP
	.asg DPH, MDP
	.model call=c55_std
	.model mem=large
	.noremark 5002  ; code respects overwrite rules
;*******************************************************************************
;* GLOBAL FILE PARAMETERS                                                      *
;*                                                                             *
;*   Architecture       : TMS320C55x                                           *
;*   Optimizing for     : Speed                                                *
;*   Memory             : Large Model (23-Bit Data Pointers)                   *
;*   Calls              : Normal Library ASM calls                             *
;*   Debug Info         : Standard TI Debug Information                        *
;*******************************************************************************

$C$DW$CU	.dwtag  DW_TAG_compile_unit
	.dwattr $C$DW$CU, DW_AT_name("../c5535_bsl_revc/ezdsp5535_v1/c55xx_csl/src/csl_usb.c")
	.dwattr $C$DW$CU, DW_AT_producer("TMS320C55x C/C++ Codegen PC v4.4.1 Copyright (c) 1996-2012 Texas Instruments Incorporated")
	.dwattr $C$DW$CU, DW_AT_TI_version(0x01)
	.dwattr $C$DW$CU, DW_AT_comp_dir("F:\eZdsp_DBG\eZDSP_5535_Files\ccsws2\test\Debug")
	.global	_usbRegisters
	.bss	_usbRegisters,1,0,0
$C$DW$1	.dwtag  DW_TAG_variable, DW_AT_name("usbRegisters")
	.dwattr $C$DW$1, DW_AT_TI_symbol_name("_usbRegisters")
	.dwattr $C$DW$1, DW_AT_location[DW_OP_addr _usbRegisters]
	.dwattr $C$DW$1, DW_AT_type(*$C$DW$T$133)
	.dwattr $C$DW$1, DW_AT_external
	.global	_sysCtrlRegs
	.bss	_sysCtrlRegs,1,0,0
$C$DW$2	.dwtag  DW_TAG_variable, DW_AT_name("sysCtrlRegs")
	.dwattr $C$DW$2, DW_AT_TI_symbol_name("_sysCtrlRegs")
	.dwattr $C$DW$2, DW_AT_location[DW_OP_addr _sysCtrlRegs]
	.dwattr $C$DW$2, DW_AT_type(*$C$DW$T$137)
	.dwattr $C$DW$2, DW_AT_external
	.global	_gUsbContext
	.bss	_gUsbContext,200,0,2
$C$DW$3	.dwtag  DW_TAG_variable, DW_AT_name("gUsbContext")
	.dwattr $C$DW$3, DW_AT_TI_symbol_name("_gUsbContext")
	.dwattr $C$DW$3, DW_AT_location[DW_OP_addr _gUsbContext]
	.dwattr $C$DW$3, DW_AT_type(*$C$DW$T$140)
	.dwattr $C$DW$3, DW_AT_external
	.global	_gCtrlTransfer
	.bss	_gCtrlTransfer,14,0,2
$C$DW$4	.dwtag  DW_TAG_variable, DW_AT_name("gCtrlTransfer")
	.dwattr $C$DW$4, DW_AT_TI_symbol_name("_gCtrlTransfer")
	.dwattr $C$DW$4, DW_AT_location[DW_OP_addr _gCtrlTransfer]
	.dwattr $C$DW$4, DW_AT_type(*$C$DW$T$117)
	.dwattr $C$DW$4, DW_AT_external
	.global	_gBulkInTransfer
	.bss	_gBulkInTransfer,14,0,2
$C$DW$5	.dwtag  DW_TAG_variable, DW_AT_name("gBulkInTransfer")
	.dwattr $C$DW$5, DW_AT_TI_symbol_name("_gBulkInTransfer")
	.dwattr $C$DW$5, DW_AT_location[DW_OP_addr _gBulkInTransfer]
	.dwattr $C$DW$5, DW_AT_type(*$C$DW$T$117)
	.dwattr $C$DW$5, DW_AT_external
	.global	_gBulkOutTransfer
	.bss	_gBulkOutTransfer,14,0,2
$C$DW$6	.dwtag  DW_TAG_variable, DW_AT_name("gBulkOutTransfer")
	.dwattr $C$DW$6, DW_AT_TI_symbol_name("_gBulkOutTransfer")
	.dwattr $C$DW$6, DW_AT_location[DW_OP_addr _gBulkOutTransfer]
	.dwattr $C$DW$6, DW_AT_type(*$C$DW$T$117)
	.dwattr $C$DW$6, DW_AT_external
	.global	_gIsoInTransfer
	.bss	_gIsoInTransfer,14,0,2
$C$DW$7	.dwtag  DW_TAG_variable, DW_AT_name("gIsoInTransfer")
	.dwattr $C$DW$7, DW_AT_TI_symbol_name("_gIsoInTransfer")
	.dwattr $C$DW$7, DW_AT_location[DW_OP_addr _gIsoInTransfer]
	.dwattr $C$DW$7, DW_AT_type(*$C$DW$T$117)
	.dwattr $C$DW$7, DW_AT_external
	.global	_gIsoOutTransfer
	.bss	_gIsoOutTransfer,14,0,2
$C$DW$8	.dwtag  DW_TAG_variable, DW_AT_name("gIsoOutTransfer")
	.dwattr $C$DW$8, DW_AT_TI_symbol_name("_gIsoOutTransfer")
	.dwattr $C$DW$8, DW_AT_location[DW_OP_addr _gIsoOutTransfer]
	.dwattr $C$DW$8, DW_AT_type(*$C$DW$T$117)
	.dwattr $C$DW$8, DW_AT_external
	.global	_gIntInTransfer
	.bss	_gIntInTransfer,14,0,2
$C$DW$9	.dwtag  DW_TAG_variable, DW_AT_name("gIntInTransfer")
	.dwattr $C$DW$9, DW_AT_TI_symbol_name("_gIntInTransfer")
	.dwattr $C$DW$9, DW_AT_location[DW_OP_addr _gIntInTransfer]
	.dwattr $C$DW$9, DW_AT_type(*$C$DW$T$117)
	.dwattr $C$DW$9, DW_AT_external
	.global	_gEpStatus
	.bss	_gEpStatus,144,0,2
$C$DW$10	.dwtag  DW_TAG_variable, DW_AT_name("gEpStatus")
	.dwattr $C$DW$10, DW_AT_TI_symbol_name("_gEpStatus")
	.dwattr $C$DW$10, DW_AT_location[DW_OP_addr _gEpStatus]
	.dwattr $C$DW$10, DW_AT_type(*$C$DW$T$148)
	.dwattr $C$DW$10, DW_AT_external
	.global	_gUsbEpHandle
	.bss	_gUsbEpHandle,16,0,2
$C$DW$11	.dwtag  DW_TAG_variable, DW_AT_name("gUsbEpHandle")
	.dwattr $C$DW$11, DW_AT_TI_symbol_name("_gUsbEpHandle")
	.dwattr $C$DW$11, DW_AT_location[DW_OP_addr _gUsbEpHandle]
	.dwattr $C$DW$11, DW_AT_type(*$C$DW$T$103)
	.dwattr $C$DW$11, DW_AT_external
;	F:\ti\ccs8p1\ccsv8\tools\compiler\alt-install-ti-cgt-c55x_4.4.1\bin\acp55.exe -@f:\\AppData\\Local\\Temp\\0916412 
	.sect	".text"
	.align 4

$C$DW$12	.dwtag  DW_TAG_subprogram, DW_AT_name("USB_checkSpeed")
	.dwattr $C$DW$12, DW_AT_low_pc(_USB_checkSpeed)
	.dwattr $C$DW$12, DW_AT_high_pc(0x00)
	.dwattr $C$DW$12, DW_AT_TI_symbol_name("_USB_checkSpeed")
	.dwattr $C$DW$12, DW_AT_type(*$C$DW$T$81)
	.dwattr $C$DW$12, DW_AT_TI_begin_file("F:/eZdsp_DBG/eZDSP_5535_Files/ccsws2/test/c5535_bsl_revc/ezdsp5535_v1/c55xx_csl/inc/csl_usbAux.h")
	.dwattr $C$DW$12, DW_AT_TI_begin_line(0x6b6)
	.dwattr $C$DW$12, DW_AT_TI_begin_column(0x06)
	.dwattr $C$DW$12, DW_AT_TI_max_frame_size(0x06)
	.dwpsn	file "F:/eZdsp_DBG/eZDSP_5535_Files/ccsws2/test/c5535_bsl_revc/ezdsp5535_v1/c55xx_csl/inc/csl_usbAux.h",line 1720,column 1,is_stmt,address _USB_checkSpeed

	.dwfde $C$DW$CIE, _USB_checkSpeed
$C$DW$13	.dwtag  DW_TAG_formal_parameter, DW_AT_name("pContext")
	.dwattr $C$DW$13, DW_AT_TI_symbol_name("_pContext")
	.dwattr $C$DW$13, DW_AT_type(*$C$DW$T$142)
	.dwattr $C$DW$13, DW_AT_location[DW_OP_reg17]
$C$DW$14	.dwtag  DW_TAG_formal_parameter, DW_AT_name("pBusSpeed")
	.dwattr $C$DW$14, DW_AT_TI_symbol_name("_pBusSpeed")
	.dwattr $C$DW$14, DW_AT_type(*$C$DW$T$129)
	.dwattr $C$DW$14, DW_AT_location[DW_OP_reg19]
;*******************************************************************************
;* FUNCTION NAME: USB_checkSpeed                                               *
;*                                                                             *
;*   Function Uses Regs : AC0,AC0,T0,AR0,XAR0,AR1,XAR1,AR3,XAR3,SP,TC1,M40,    *
;*                        SATA,SATD,RDM,FRCT,SMUL                              *
;*   Stack Frame        : Compact (No Frame Pointer, w/ debug)                 *
;*   Total Frame Size   : 6 words                                              *
;*                        (1 return address/alignment)                         *
;*                        (5 local values)                                     *
;*   Min System Stack   : 1 word                                               *
;*******************************************************************************
_USB_checkSpeed:
	.dwcfi	cfa_offset, 1
	.dwcfi	save_reg_to_mem, 91, -1
        AADD #-5, SP
	.dwcfi	cfa_offset, 6
$C$DW$15	.dwtag  DW_TAG_variable, DW_AT_name("pContext")
	.dwattr $C$DW$15, DW_AT_TI_symbol_name("_pContext")
	.dwattr $C$DW$15, DW_AT_type(*$C$DW$T$142)
	.dwattr $C$DW$15, DW_AT_location[DW_OP_bregx 0x24 0]
$C$DW$16	.dwtag  DW_TAG_variable, DW_AT_name("pBusSpeed")
	.dwattr $C$DW$16, DW_AT_TI_symbol_name("_pBusSpeed")
	.dwattr $C$DW$16, DW_AT_type(*$C$DW$T$129)
	.dwattr $C$DW$16, DW_AT_location[DW_OP_bregx 0x24 2]
$C$DW$17	.dwtag  DW_TAG_variable, DW_AT_name("wPower")
	.dwattr $C$DW$17, DW_AT_TI_symbol_name("_wPower")
	.dwattr $C$DW$17, DW_AT_type(*$C$DW$T$19)
	.dwattr $C$DW$17, DW_AT_location[DW_OP_bregx 0x24 4]
        MOV XAR1, dbl(*SP(#2))
        MOV XAR0, dbl(*SP(#0))
	.dwpsn	file "F:/eZdsp_DBG/eZDSP_5535_Files/ccsws2/test/c5535_bsl_revc/ezdsp5535_v1/c55xx_csl/inc/csl_usbAux.h",line 1723,column 2,is_stmt
        MOV #1025, T0 ; |1723| 
        MOV *(#_usbRegisters), AR3 ; |1723| 
        MOV port(*AR3(T0)), AR1 ; |1723| 
        MOV AR1, *SP(#4) ; |1723| 
	.dwpsn	file "F:/eZdsp_DBG/eZDSP_5535_Files/ccsws2/test/c5535_bsl_revc/ezdsp5535_v1/c55xx_csl/inc/csl_usbAux.h",line 1725,column 2,is_stmt
        BCC $C$L1,AR1 == #0 ; |1725| 
                                        ; branchcc occurs ; |1725| 
        MOV dbl(*SP(#2)), XAR3
        MOV XAR3, AC0
        BCC $C$L2,AC0 != #0 ; |1725| 
                                        ; branchcc occurs ; |1725| 
$C$L1:    
	.dwpsn	file "F:/eZdsp_DBG/eZDSP_5535_Files/ccsws2/test/c5535_bsl_revc/ezdsp5535_v1/c55xx_csl/inc/csl_usbAux.h",line 1727,column 3,is_stmt
        MOV #0, T0
        B $C$L5   ; |1727| 
                                        ; branch occurs ; |1727| 
$C$L2:    
	.dwpsn	file "F:/eZdsp_DBG/eZDSP_5535_Files/ccsws2/test/c5535_bsl_revc/ezdsp5535_v1/c55xx_csl/inc/csl_usbAux.h",line 1734,column 5,is_stmt
        MOV *(#_usbRegisters), AR3 ; |1734| 
        BTST #12, port(*AR3(T0)), TC1 ; |1734| 
        BCC $C$L3,!TC1 ; |1734| 
                                        ; branchcc occurs ; |1734| 
	.dwpsn	file "F:/eZdsp_DBG/eZDSP_5535_Files/ccsws2/test/c5535_bsl_revc/ezdsp5535_v1/c55xx_csl/inc/csl_usbAux.h",line 1736,column 9,is_stmt
        MOV dbl(*SP(#2)), XAR3
        MOV #4, *AR3 ; |1736| 
	.dwpsn	file "F:/eZdsp_DBG/eZDSP_5535_Files/ccsws2/test/c5535_bsl_revc/ezdsp5535_v1/c55xx_csl/inc/csl_usbAux.h",line 1737,column 2,is_stmt
        B $C$L4   ; |1737| 
                                        ; branch occurs ; |1737| 
$C$L3:    
	.dwpsn	file "F:/eZdsp_DBG/eZDSP_5535_Files/ccsws2/test/c5535_bsl_revc/ezdsp5535_v1/c55xx_csl/inc/csl_usbAux.h",line 1740,column 9,is_stmt
        MOV dbl(*SP(#2)), XAR3
        MOV #2, *AR3 ; |1740| 
$C$L4:    
	.dwpsn	file "F:/eZdsp_DBG/eZDSP_5535_Files/ccsws2/test/c5535_bsl_revc/ezdsp5535_v1/c55xx_csl/inc/csl_usbAux.h",line 1743,column 5,is_stmt
        MOV #1, T0
$C$L5:    
	.dwpsn	file "F:/eZdsp_DBG/eZDSP_5535_Files/ccsws2/test/c5535_bsl_revc/ezdsp5535_v1/c55xx_csl/inc/csl_usbAux.h",line 1744,column 1,is_stmt
        AADD #5, SP
	.dwcfi	cfa_offset, 1
$C$DW$18	.dwtag  DW_TAG_TI_branch
	.dwattr $C$DW$18, DW_AT_low_pc(0x00)
	.dwattr $C$DW$18, DW_AT_TI_return
        RET
                                        ; return occurs
	.dwattr $C$DW$12, DW_AT_TI_end_file("F:/eZdsp_DBG/eZDSP_5535_Files/ccsws2/test/c5535_bsl_revc/ezdsp5535_v1/c55xx_csl/inc/csl_usbAux.h")
	.dwattr $C$DW$12, DW_AT_TI_end_line(0x6d0)
	.dwattr $C$DW$12, DW_AT_TI_end_column(0x01)
	.dwendentry
	.dwendtag $C$DW$12

	.sect	".text"
	.align 4

$C$DW$19	.dwtag  DW_TAG_subprogram, DW_AT_name("USB_setConfiguration")
	.dwattr $C$DW$19, DW_AT_low_pc(_USB_setConfiguration)
	.dwattr $C$DW$19, DW_AT_high_pc(0x00)
	.dwattr $C$DW$19, DW_AT_TI_symbol_name("_USB_setConfiguration")
	.dwattr $C$DW$19, DW_AT_TI_begin_file("F:/eZdsp_DBG/eZDSP_5535_Files/ccsws2/test/c5535_bsl_revc/ezdsp5535_v1/c55xx_csl/inc/csl_usbAux.h")
	.dwattr $C$DW$19, DW_AT_TI_begin_line(0x76e)
	.dwattr $C$DW$19, DW_AT_TI_begin_column(0x06)
	.dwattr $C$DW$19, DW_AT_TI_max_frame_size(0x06)
	.dwpsn	file "F:/eZdsp_DBG/eZDSP_5535_Files/ccsws2/test/c5535_bsl_revc/ezdsp5535_v1/c55xx_csl/inc/csl_usbAux.h",line 1904,column 1,is_stmt,address _USB_setConfiguration

	.dwfde $C$DW$CIE, _USB_setConfiguration
$C$DW$20	.dwtag  DW_TAG_formal_parameter, DW_AT_name("devNum")
	.dwattr $C$DW$20, DW_AT_TI_symbol_name("_devNum")
	.dwattr $C$DW$20, DW_AT_type(*$C$DW$T$68)
	.dwattr $C$DW$20, DW_AT_location[DW_OP_reg12]
$C$DW$21	.dwtag  DW_TAG_formal_parameter, DW_AT_name("confVal")
	.dwattr $C$DW$21, DW_AT_TI_symbol_name("_confVal")
	.dwattr $C$DW$21, DW_AT_type(*$C$DW$T$19)
	.dwattr $C$DW$21, DW_AT_location[DW_OP_reg13]
;*******************************************************************************
;* FUNCTION NAME: USB_setConfiguration                                         *
;*                                                                             *
;*   Function Uses Regs : T0,T1,AR1,AR2,AR3,SP,TC1,M40,SATA,SATD,RDM,FRCT,SMUL *
;*   Stack Frame        : Compact (No Frame Pointer, w/ debug)                 *
;*   Total Frame Size   : 6 words                                              *
;*                        (2 return address/alignment)                         *
;*                        (4 local values)                                     *
;*   Min System Stack   : 1 word                                               *
;*******************************************************************************
_USB_setConfiguration:
	.dwcfi	cfa_offset, 1
	.dwcfi	save_reg_to_mem, 91, -1
        AADD #-5, SP
	.dwcfi	cfa_offset, 6
$C$DW$22	.dwtag  DW_TAG_variable, DW_AT_name("devNum")
	.dwattr $C$DW$22, DW_AT_TI_symbol_name("_devNum")
	.dwattr $C$DW$22, DW_AT_type(*$C$DW$T$68)
	.dwattr $C$DW$22, DW_AT_location[DW_OP_bregx 0x24 0]
$C$DW$23	.dwtag  DW_TAG_variable, DW_AT_name("confVal")
	.dwattr $C$DW$23, DW_AT_TI_symbol_name("_confVal")
	.dwattr $C$DW$23, DW_AT_type(*$C$DW$T$19)
	.dwattr $C$DW$23, DW_AT_location[DW_OP_bregx 0x24 1]
$C$DW$24	.dwtag  DW_TAG_variable, DW_AT_name("saveIndex")
	.dwattr $C$DW$24, DW_AT_TI_symbol_name("_saveIndex")
	.dwattr $C$DW$24, DW_AT_type(*$C$DW$T$19)
	.dwattr $C$DW$24, DW_AT_location[DW_OP_bregx 0x24 2]
$C$DW$25	.dwtag  DW_TAG_variable, DW_AT_name("tempVal")
	.dwattr $C$DW$25, DW_AT_TI_symbol_name("_tempVal")
	.dwattr $C$DW$25, DW_AT_type(*$C$DW$T$19)
	.dwattr $C$DW$25, DW_AT_location[DW_OP_bregx 0x24 3]
        MOV T1, *SP(#1) ; |1904| 
        MOV T0, *SP(#0) ; |1904| 
	.dwpsn	file "F:/eZdsp_DBG/eZDSP_5535_Files/ccsws2/test/c5535_bsl_revc/ezdsp5535_v1/c55xx_csl/inc/csl_usbAux.h",line 1908,column 2,is_stmt
        MOV #0, *SP(#2) ; |1908| 
	.dwpsn	file "F:/eZdsp_DBG/eZDSP_5535_Files/ccsws2/test/c5535_bsl_revc/ezdsp5535_v1/c55xx_csl/inc/csl_usbAux.h",line 1911,column 2,is_stmt
        MOV *(#_usbRegisters), AR3 ; |1911| 
        MOV #1038, T0 ; |1911| 
        MOV port(*AR3(T0)), AR1 ; |1911| 
        MOV AR1, *SP(#2) ; |1911| 
	.dwpsn	file "F:/eZdsp_DBG/eZDSP_5535_Files/ccsws2/test/c5535_bsl_revc/ezdsp5535_v1/c55xx_csl/inc/csl_usbAux.h",line 1915,column 2,is_stmt
        AND #0xfff0, port(*AR3(T0)) ; |1915| 
	.dwpsn	file "F:/eZdsp_DBG/eZDSP_5535_Files/ccsws2/test/c5535_bsl_revc/ezdsp5535_v1/c55xx_csl/inc/csl_usbAux.h",line 1916,column 5,is_stmt
        MOV *(#_usbRegisters), AR3 ; |1916| 
        OR #0x0001, port(*AR3(T0)) ; |1916| 
	.dwpsn	file "F:/eZdsp_DBG/eZDSP_5535_Files/ccsws2/test/c5535_bsl_revc/ezdsp5535_v1/c55xx_csl/inc/csl_usbAux.h",line 1919,column 5,is_stmt
        MOV #1042, T0 ; |1919| 
        MOV *(#_usbRegisters), AR3 ; |1919| 
        OR #0x0040, port(*AR3(T0)) ; |1919| 
	.dwpsn	file "F:/eZdsp_DBG/eZDSP_5535_Files/ccsws2/test/c5535_bsl_revc/ezdsp5535_v1/c55xx_csl/inc/csl_usbAux.h",line 1921,column 5,is_stmt
        MOV #1046, T0 ; |1921| 
        MOV *(#_usbRegisters), AR3 ; |1921| 
        OR #0x0080, port(*AR3(T0)) ; |1921| 
	.dwpsn	file "F:/eZdsp_DBG/eZDSP_5535_Files/ccsws2/test/c5535_bsl_revc/ezdsp5535_v1/c55xx_csl/inc/csl_usbAux.h",line 1924,column 5,is_stmt
        MOV #1042, T0 ; |1924| 
        MOV *(#_usbRegisters), AR3 ; |1924| 
        MOV port(*AR3(T0)), AR1 ; |1924| 

        AND #0x0002, AR1, AR1 ; |1924| 
||      MOV #2, AR2

        CMPU AR1 != AR2, TC1 ; |1924| 
        BCC $C$L6,TC1 ; |1924| 
                                        ; branchcc occurs ; |1924| 
	.dwpsn	file "F:/eZdsp_DBG/eZDSP_5535_Files/ccsws2/test/c5535_bsl_revc/ezdsp5535_v1/c55xx_csl/inc/csl_usbAux.h",line 1929,column 3,is_stmt
        MOV port(*AR3(T0)), AR1 ; |1929| 
        MOV AR1, *SP(#3) ; |1929| 
	.dwpsn	file "F:/eZdsp_DBG/eZDSP_5535_Files/ccsws2/test/c5535_bsl_revc/ezdsp5535_v1/c55xx_csl/inc/csl_usbAux.h",line 1931,column 3,is_stmt
        OR #0x0008, *SP(#3) ; |1931| 
	.dwpsn	file "F:/eZdsp_DBG/eZDSP_5535_Files/ccsws2/test/c5535_bsl_revc/ezdsp5535_v1/c55xx_csl/inc/csl_usbAux.h",line 1932,column 3,is_stmt
        AND #0xfffc, *SP(#3) ; |1932| 
	.dwpsn	file "F:/eZdsp_DBG/eZDSP_5535_Files/ccsws2/test/c5535_bsl_revc/ezdsp5535_v1/c55xx_csl/inc/csl_usbAux.h",line 1934,column 3,is_stmt
        MOV *SP(#3), AR1 ; |1934| 
        MOV AR1, port(*AR3(T0)) ; |1934| 
$C$L6:    
	.dwpsn	file "F:/eZdsp_DBG/eZDSP_5535_Files/ccsws2/test/c5535_bsl_revc/ezdsp5535_v1/c55xx_csl/inc/csl_usbAux.h",line 1939,column 2,is_stmt
        MOV #1038, T0 ; |1939| 
        MOV *(#_usbRegisters), AR3 ; |1939| 
        AND #0xfff0, port(*AR3(T0)) ; |1939| 
	.dwpsn	file "F:/eZdsp_DBG/eZDSP_5535_Files/ccsws2/test/c5535_bsl_revc/ezdsp5535_v1/c55xx_csl/inc/csl_usbAux.h",line 1940,column 4,is_stmt
        MOV *(#_usbRegisters), AR3 ; |1940| 
        OR #0x0002, port(*AR3(T0)) ; |1940| 
	.dwpsn	file "F:/eZdsp_DBG/eZDSP_5535_Files/ccsws2/test/c5535_bsl_revc/ezdsp5535_v1/c55xx_csl/inc/csl_usbAux.h",line 1943,column 5,is_stmt
        MOV #1042, T0 ; |1943| 
        MOV *(#_usbRegisters), AR3 ; |1943| 
        OR #0x0040, port(*AR3(T0)) ; |1943| 
	.dwpsn	file "F:/eZdsp_DBG/eZDSP_5535_Files/ccsws2/test/c5535_bsl_revc/ezdsp5535_v1/c55xx_csl/inc/csl_usbAux.h",line 1945,column 5,is_stmt
        MOV #1046, T0 ; |1945| 
        MOV *(#_usbRegisters), AR3 ; |1945| 
        OR #0x0080, port(*AR3(T0)) ; |1945| 
	.dwpsn	file "F:/eZdsp_DBG/eZDSP_5535_Files/ccsws2/test/c5535_bsl_revc/ezdsp5535_v1/c55xx_csl/inc/csl_usbAux.h",line 1948,column 5,is_stmt
        MOV #1042, T0 ; |1948| 
        MOV *(#_usbRegisters), AR3 ; |1948| 
        MOV port(*AR3(T0)), AR1 ; |1948| 
        AND #0x0002, AR1, AR1 ; |1948| 
        CMPU AR1 != AR2, TC1 ; |1948| 
        BCC $C$L7,TC1 ; |1948| 
                                        ; branchcc occurs ; |1948| 
	.dwpsn	file "F:/eZdsp_DBG/eZDSP_5535_Files/ccsws2/test/c5535_bsl_revc/ezdsp5535_v1/c55xx_csl/inc/csl_usbAux.h",line 1953,column 3,is_stmt
        MOV port(*AR3(T0)), AR1 ; |1953| 
        MOV AR1, *SP(#3) ; |1953| 
	.dwpsn	file "F:/eZdsp_DBG/eZDSP_5535_Files/ccsws2/test/c5535_bsl_revc/ezdsp5535_v1/c55xx_csl/inc/csl_usbAux.h",line 1955,column 3,is_stmt
        OR #0x0008, *SP(#3) ; |1955| 
	.dwpsn	file "F:/eZdsp_DBG/eZDSP_5535_Files/ccsws2/test/c5535_bsl_revc/ezdsp5535_v1/c55xx_csl/inc/csl_usbAux.h",line 1956,column 3,is_stmt
        AND #0xfffc, *SP(#3) ; |1956| 
	.dwpsn	file "F:/eZdsp_DBG/eZDSP_5535_Files/ccsws2/test/c5535_bsl_revc/ezdsp5535_v1/c55xx_csl/inc/csl_usbAux.h",line 1958,column 3,is_stmt
        MOV *SP(#3), AR1 ; |1958| 
        MOV AR1, port(*AR3(T0)) ; |1958| 
$C$L7:    
	.dwpsn	file "F:/eZdsp_DBG/eZDSP_5535_Files/ccsws2/test/c5535_bsl_revc/ezdsp5535_v1/c55xx_csl/inc/csl_usbAux.h",line 1963,column 2,is_stmt
        MOV #1038, T0 ; |1963| 
        MOV *(#_usbRegisters), AR3 ; |1963| 
        AND #0xfff0, port(*AR3(T0)) ; |1963| 
	.dwpsn	file "F:/eZdsp_DBG/eZDSP_5535_Files/ccsws2/test/c5535_bsl_revc/ezdsp5535_v1/c55xx_csl/inc/csl_usbAux.h",line 1964,column 5,is_stmt
        MOV *(#_usbRegisters), AR3 ; |1964| 
        OR #0x0003, port(*AR3(T0)) ; |1964| 
	.dwpsn	file "F:/eZdsp_DBG/eZDSP_5535_Files/ccsws2/test/c5535_bsl_revc/ezdsp5535_v1/c55xx_csl/inc/csl_usbAux.h",line 1967,column 5,is_stmt
        MOV #1042, T0 ; |1967| 
        MOV *(#_usbRegisters), AR3 ; |1967| 
        OR #0x0040, port(*AR3(T0)) ; |1967| 
	.dwpsn	file "F:/eZdsp_DBG/eZDSP_5535_Files/ccsws2/test/c5535_bsl_revc/ezdsp5535_v1/c55xx_csl/inc/csl_usbAux.h",line 1969,column 5,is_stmt
        MOV #1046, T0 ; |1969| 
        MOV *(#_usbRegisters), AR3 ; |1969| 
        OR #0x0080, port(*AR3(T0)) ; |1969| 
	.dwpsn	file "F:/eZdsp_DBG/eZDSP_5535_Files/ccsws2/test/c5535_bsl_revc/ezdsp5535_v1/c55xx_csl/inc/csl_usbAux.h",line 1972,column 5,is_stmt
        MOV #1042, T0 ; |1972| 
        MOV *(#_usbRegisters), AR3 ; |1972| 
        MOV port(*AR3(T0)), AR1 ; |1972| 
        AND #0x0002, AR1, AR1 ; |1972| 
        CMPU AR1 != AR2, TC1 ; |1972| 
        BCC $C$L8,TC1 ; |1972| 
                                        ; branchcc occurs ; |1972| 
	.dwpsn	file "F:/eZdsp_DBG/eZDSP_5535_Files/ccsws2/test/c5535_bsl_revc/ezdsp5535_v1/c55xx_csl/inc/csl_usbAux.h",line 1977,column 3,is_stmt
        MOV port(*AR3(T0)), AR1 ; |1977| 
        MOV AR1, *SP(#3) ; |1977| 
	.dwpsn	file "F:/eZdsp_DBG/eZDSP_5535_Files/ccsws2/test/c5535_bsl_revc/ezdsp5535_v1/c55xx_csl/inc/csl_usbAux.h",line 1979,column 3,is_stmt
        OR #0x0008, *SP(#3) ; |1979| 
	.dwpsn	file "F:/eZdsp_DBG/eZDSP_5535_Files/ccsws2/test/c5535_bsl_revc/ezdsp5535_v1/c55xx_csl/inc/csl_usbAux.h",line 1980,column 3,is_stmt
        AND #0xfffc, *SP(#3) ; |1980| 
	.dwpsn	file "F:/eZdsp_DBG/eZDSP_5535_Files/ccsws2/test/c5535_bsl_revc/ezdsp5535_v1/c55xx_csl/inc/csl_usbAux.h",line 1982,column 3,is_stmt
        MOV *SP(#3), AR1 ; |1982| 
        MOV AR1, port(*AR3(T0)) ; |1982| 
$C$L8:    
	.dwpsn	file "F:/eZdsp_DBG/eZDSP_5535_Files/ccsws2/test/c5535_bsl_revc/ezdsp5535_v1/c55xx_csl/inc/csl_usbAux.h",line 1987,column 2,is_stmt
        MOV #1038, T0 ; |1987| 
        MOV *(#_usbRegisters), AR3 ; |1987| 
        AND #0xfff0, port(*AR3(T0)) ; |1987| 
	.dwpsn	file "F:/eZdsp_DBG/eZDSP_5535_Files/ccsws2/test/c5535_bsl_revc/ezdsp5535_v1/c55xx_csl/inc/csl_usbAux.h",line 1988,column 5,is_stmt
        MOV *(#_usbRegisters), AR3 ; |1988| 
        OR #0x0004, port(*AR3(T0)) ; |1988| 
	.dwpsn	file "F:/eZdsp_DBG/eZDSP_5535_Files/ccsws2/test/c5535_bsl_revc/ezdsp5535_v1/c55xx_csl/inc/csl_usbAux.h",line 1991,column 5,is_stmt
        MOV #1042, T0 ; |1991| 
        MOV *(#_usbRegisters), AR3 ; |1991| 
        OR #0x0040, port(*AR3(T0)) ; |1991| 
	.dwpsn	file "F:/eZdsp_DBG/eZDSP_5535_Files/ccsws2/test/c5535_bsl_revc/ezdsp5535_v1/c55xx_csl/inc/csl_usbAux.h",line 1993,column 5,is_stmt
        MOV #1046, T0 ; |1993| 
        MOV *(#_usbRegisters), AR3 ; |1993| 
        OR #0x0080, port(*AR3(T0)) ; |1993| 
	.dwpsn	file "F:/eZdsp_DBG/eZDSP_5535_Files/ccsws2/test/c5535_bsl_revc/ezdsp5535_v1/c55xx_csl/inc/csl_usbAux.h",line 1996,column 5,is_stmt
        MOV #1042, T0 ; |1996| 
        MOV *(#_usbRegisters), AR3 ; |1996| 
        MOV port(*AR3(T0)), AR1 ; |1996| 
        AND #0x0002, AR1, AR1 ; |1996| 
        CMPU AR1 != AR2, TC1 ; |1996| 
        BCC $C$L9,TC1 ; |1996| 
                                        ; branchcc occurs ; |1996| 
	.dwpsn	file "F:/eZdsp_DBG/eZDSP_5535_Files/ccsws2/test/c5535_bsl_revc/ezdsp5535_v1/c55xx_csl/inc/csl_usbAux.h",line 2001,column 3,is_stmt
        MOV port(*AR3(T0)), AR1 ; |2001| 
        MOV AR1, *SP(#3) ; |2001| 
	.dwpsn	file "F:/eZdsp_DBG/eZDSP_5535_Files/ccsws2/test/c5535_bsl_revc/ezdsp5535_v1/c55xx_csl/inc/csl_usbAux.h",line 2003,column 3,is_stmt
        OR #0x0008, *SP(#3) ; |2003| 
	.dwpsn	file "F:/eZdsp_DBG/eZDSP_5535_Files/ccsws2/test/c5535_bsl_revc/ezdsp5535_v1/c55xx_csl/inc/csl_usbAux.h",line 2004,column 3,is_stmt
        AND #0xfffc, *SP(#3) ; |2004| 
	.dwpsn	file "F:/eZdsp_DBG/eZDSP_5535_Files/ccsws2/test/c5535_bsl_revc/ezdsp5535_v1/c55xx_csl/inc/csl_usbAux.h",line 2006,column 3,is_stmt
        MOV *SP(#3), AR1 ; |2006| 
        MOV AR1, port(*AR3(T0)) ; |2006| 
$C$L9:    
	.dwpsn	file "F:/eZdsp_DBG/eZDSP_5535_Files/ccsws2/test/c5535_bsl_revc/ezdsp5535_v1/c55xx_csl/inc/csl_usbAux.h",line 2010,column 2,is_stmt
        MOV *(#_usbRegisters), AR3 ; |2010| 
        MOV #1038, T0 ; |2010| 
        MOV *SP(#2), AR1 ; |2010| 
        MOV AR1, port(*AR3(T0)) ; |2010| 
	.dwpsn	file "F:/eZdsp_DBG/eZDSP_5535_Files/ccsws2/test/c5535_bsl_revc/ezdsp5535_v1/c55xx_csl/inc/csl_usbAux.h",line 2011,column 1,is_stmt
        AADD #5, SP
	.dwcfi	cfa_offset, 1
$C$DW$26	.dwtag  DW_TAG_TI_branch
	.dwattr $C$DW$26, DW_AT_low_pc(0x00)
	.dwattr $C$DW$26, DW_AT_TI_return
        RET
                                        ; return occurs
	.dwattr $C$DW$19, DW_AT_TI_end_file("F:/eZdsp_DBG/eZDSP_5535_Files/ccsws2/test/c5535_bsl_revc/ezdsp5535_v1/c55xx_csl/inc/csl_usbAux.h")
	.dwattr $C$DW$19, DW_AT_TI_end_line(0x7db)
	.dwattr $C$DW$19, DW_AT_TI_end_column(0x01)
	.dwendentry
	.dwendtag $C$DW$19

	.sect	".text"
	.align 4

$C$DW$27	.dwtag  DW_TAG_subprogram, DW_AT_name("USB_sendEpZLP")
	.dwattr $C$DW$27, DW_AT_low_pc(_USB_sendEpZLP)
	.dwattr $C$DW$27, DW_AT_high_pc(0x00)
	.dwattr $C$DW$27, DW_AT_TI_symbol_name("_USB_sendEpZLP")
	.dwattr $C$DW$27, DW_AT_TI_begin_file("F:/eZdsp_DBG/eZDSP_5535_Files/ccsws2/test/c5535_bsl_revc/ezdsp5535_v1/c55xx_csl/inc/csl_usbAux.h")
	.dwattr $C$DW$27, DW_AT_TI_begin_line(0x8b2)
	.dwattr $C$DW$27, DW_AT_TI_begin_column(0x06)
	.dwattr $C$DW$27, DW_AT_TI_max_frame_size(0x04)
	.dwpsn	file "F:/eZdsp_DBG/eZDSP_5535_Files/ccsws2/test/c5535_bsl_revc/ezdsp5535_v1/c55xx_csl/inc/csl_usbAux.h",line 2227,column 1,is_stmt,address _USB_sendEpZLP

	.dwfde $C$DW$CIE, _USB_sendEpZLP
$C$DW$28	.dwtag  DW_TAG_formal_parameter, DW_AT_name("dwEndpoint")
	.dwattr $C$DW$28, DW_AT_TI_symbol_name("_dwEndpoint")
	.dwattr $C$DW$28, DW_AT_type(*$C$DW$T$84)
	.dwattr $C$DW$28, DW_AT_location[DW_OP_reg0]
;*******************************************************************************
;* FUNCTION NAME: USB_sendEpZLP                                                *
;*                                                                             *
;*   Function Uses Regs : AC0,AC0,T0,AR1,AR3,SP,M40,SATA,SATD,RDM,FRCT,SMUL    *
;*   Stack Frame        : Compact (No Frame Pointer, w/ debug)                 *
;*   Total Frame Size   : 4 words                                              *
;*                        (1 return address/alignment)                         *
;*                        (3 local values)                                     *
;*   Min System Stack   : 1 word                                               *
;*******************************************************************************
_USB_sendEpZLP:
	.dwcfi	cfa_offset, 1
	.dwcfi	save_reg_to_mem, 91, -1
        AADD #-3, SP
	.dwcfi	cfa_offset, 4
$C$DW$29	.dwtag  DW_TAG_variable, DW_AT_name("dwEndpoint")
	.dwattr $C$DW$29, DW_AT_TI_symbol_name("_dwEndpoint")
	.dwattr $C$DW$29, DW_AT_type(*$C$DW$T$84)
	.dwattr $C$DW$29, DW_AT_location[DW_OP_bregx 0x24 0]
$C$DW$30	.dwtag  DW_TAG_variable, DW_AT_name("saveIndex")
	.dwattr $C$DW$30, DW_AT_TI_symbol_name("_saveIndex")
	.dwattr $C$DW$30, DW_AT_type(*$C$DW$T$19)
	.dwattr $C$DW$30, DW_AT_location[DW_OP_bregx 0x24 2]
        MOV AC0, dbl(*SP(#0)) ; |2227| 
	.dwpsn	file "F:/eZdsp_DBG/eZDSP_5535_Files/ccsws2/test/c5535_bsl_revc/ezdsp5535_v1/c55xx_csl/inc/csl_usbAux.h",line 2231,column 2,is_stmt
        MOV #1038, T0 ; |2231| 
        MOV *(#_usbRegisters), AR3 ; |2231| 
        MOV port(*AR3(T0)), AR1 ; |2231| 
        MOV AR1, *SP(#2) ; |2231| 
	.dwpsn	file "F:/eZdsp_DBG/eZDSP_5535_Files/ccsws2/test/c5535_bsl_revc/ezdsp5535_v1/c55xx_csl/inc/csl_usbAux.h",line 2234,column 2,is_stmt
        AND #0xfff0, port(*AR3(T0)) ; |2234| 
	.dwpsn	file "F:/eZdsp_DBG/eZDSP_5535_Files/ccsws2/test/c5535_bsl_revc/ezdsp5535_v1/c55xx_csl/inc/csl_usbAux.h",line 2235,column 5,is_stmt
        MOV *(#_usbRegisters), AR3 ; |2235| 
        MOV dbl(*SP(#0)), AC0 ; |2235| 
        OR port(*AR3(T0)), AC0, AC0 ; |2235| 
        MOV AC0, port(*AR3(T0)) ; |2235| 
	.dwpsn	file "F:/eZdsp_DBG/eZDSP_5535_Files/ccsws2/test/c5535_bsl_revc/ezdsp5535_v1/c55xx_csl/inc/csl_usbAux.h",line 2238,column 2,is_stmt
        MOV #1042, T0 ; |2238| 
        MOV *(#_usbRegisters), AR3 ; |2238| 
        MOV port(*AR3(T0)), AR1 ; |2238| 
        BCLR @#1, AR1 ; |2238| 
        BSET @#1, AR1 ; |2238| 
        MOV AR1, port(*AR3(T0)) ; |2238| 
	.dwpsn	file "F:/eZdsp_DBG/eZDSP_5535_Files/ccsws2/test/c5535_bsl_revc/ezdsp5535_v1/c55xx_csl/inc/csl_usbAux.h",line 2240,column 2,is_stmt
        MOV *(#_usbRegisters), AR3 ; |2240| 
        MOV port(*AR3(T0)), AR1 ; |2240| 
        BCLR @#3, AR1 ; |2240| 
        BSET @#3, AR1 ; |2240| 
        MOV AR1, port(*AR3(T0)) ; |2240| 
	.dwpsn	file "F:/eZdsp_DBG/eZDSP_5535_Files/ccsws2/test/c5535_bsl_revc/ezdsp5535_v1/c55xx_csl/inc/csl_usbAux.h",line 2244,column 2,is_stmt
        MOV #1038, T0 ; |2244| 
        MOV *(#_usbRegisters), AR3 ; |2244| 
        MOV *SP(#2), AR1 ; |2244| 
        MOV AR1, port(*AR3(T0)) ; |2244| 
	.dwpsn	file "F:/eZdsp_DBG/eZDSP_5535_Files/ccsws2/test/c5535_bsl_revc/ezdsp5535_v1/c55xx_csl/inc/csl_usbAux.h",line 2245,column 1,is_stmt
        AADD #3, SP
	.dwcfi	cfa_offset, 1
$C$DW$31	.dwtag  DW_TAG_TI_branch
	.dwattr $C$DW$31, DW_AT_low_pc(0x00)
	.dwattr $C$DW$31, DW_AT_TI_return
        RET
                                        ; return occurs
	.dwattr $C$DW$27, DW_AT_TI_end_file("F:/eZdsp_DBG/eZDSP_5535_Files/ccsws2/test/c5535_bsl_revc/ezdsp5535_v1/c55xx_csl/inc/csl_usbAux.h")
	.dwattr $C$DW$27, DW_AT_TI_end_line(0x8c5)
	.dwattr $C$DW$27, DW_AT_TI_end_column(0x01)
	.dwendentry
	.dwendtag $C$DW$27

	.sect	".text"
	.align 4

$C$DW$32	.dwtag  DW_TAG_subprogram, DW_AT_name("USB_clearEpRxPktRdy")
	.dwattr $C$DW$32, DW_AT_low_pc(_USB_clearEpRxPktRdy)
	.dwattr $C$DW$32, DW_AT_high_pc(0x00)
	.dwattr $C$DW$32, DW_AT_TI_symbol_name("_USB_clearEpRxPktRdy")
	.dwattr $C$DW$32, DW_AT_TI_begin_file("F:/eZdsp_DBG/eZDSP_5535_Files/ccsws2/test/c5535_bsl_revc/ezdsp5535_v1/c55xx_csl/inc/csl_usbAux.h")
	.dwattr $C$DW$32, DW_AT_TI_begin_line(0x8c8)
	.dwattr $C$DW$32, DW_AT_TI_begin_column(0x06)
	.dwattr $C$DW$32, DW_AT_TI_max_frame_size(0x04)
	.dwpsn	file "F:/eZdsp_DBG/eZDSP_5535_Files/ccsws2/test/c5535_bsl_revc/ezdsp5535_v1/c55xx_csl/inc/csl_usbAux.h",line 2249,column 1,is_stmt,address _USB_clearEpRxPktRdy

	.dwfde $C$DW$CIE, _USB_clearEpRxPktRdy
$C$DW$33	.dwtag  DW_TAG_formal_parameter, DW_AT_name("dwEndpoint")
	.dwattr $C$DW$33, DW_AT_TI_symbol_name("_dwEndpoint")
	.dwattr $C$DW$33, DW_AT_type(*$C$DW$T$84)
	.dwattr $C$DW$33, DW_AT_location[DW_OP_reg0]
;*******************************************************************************
;* FUNCTION NAME: USB_clearEpRxPktRdy                                          *
;*                                                                             *
;*   Function Uses Regs : AC0,AC0,T0,AR1,AR3,SP,M40,SATA,SATD,RDM,FRCT,SMUL    *
;*   Stack Frame        : Compact (No Frame Pointer, w/ debug)                 *
;*   Total Frame Size   : 4 words                                              *
;*                        (1 return address/alignment)                         *
;*                        (3 local values)                                     *
;*   Min System Stack   : 1 word                                               *
;*******************************************************************************
_USB_clearEpRxPktRdy:
	.dwcfi	cfa_offset, 1
	.dwcfi	save_reg_to_mem, 91, -1
        AADD #-3, SP
	.dwcfi	cfa_offset, 4
$C$DW$34	.dwtag  DW_TAG_variable, DW_AT_name("dwEndpoint")
	.dwattr $C$DW$34, DW_AT_TI_symbol_name("_dwEndpoint")
	.dwattr $C$DW$34, DW_AT_type(*$C$DW$T$84)
	.dwattr $C$DW$34, DW_AT_location[DW_OP_bregx 0x24 0]
$C$DW$35	.dwtag  DW_TAG_variable, DW_AT_name("saveIndex")
	.dwattr $C$DW$35, DW_AT_TI_symbol_name("_saveIndex")
	.dwattr $C$DW$35, DW_AT_type(*$C$DW$T$19)
	.dwattr $C$DW$35, DW_AT_location[DW_OP_bregx 0x24 2]
        MOV AC0, dbl(*SP(#0)) ; |2249| 
	.dwpsn	file "F:/eZdsp_DBG/eZDSP_5535_Files/ccsws2/test/c5535_bsl_revc/ezdsp5535_v1/c55xx_csl/inc/csl_usbAux.h",line 2253,column 2,is_stmt
        MOV #1038, T0 ; |2253| 
        MOV *(#_usbRegisters), AR3 ; |2253| 
        MOV port(*AR3(T0)), AR1 ; |2253| 
        MOV AR1, *SP(#2) ; |2253| 
	.dwpsn	file "F:/eZdsp_DBG/eZDSP_5535_Files/ccsws2/test/c5535_bsl_revc/ezdsp5535_v1/c55xx_csl/inc/csl_usbAux.h",line 2256,column 2,is_stmt
        AND #0xfff0, port(*AR3(T0)) ; |2256| 
	.dwpsn	file "F:/eZdsp_DBG/eZDSP_5535_Files/ccsws2/test/c5535_bsl_revc/ezdsp5535_v1/c55xx_csl/inc/csl_usbAux.h",line 2257,column 5,is_stmt
        MOV *(#_usbRegisters), AR3 ; |2257| 
        MOV dbl(*SP(#0)), AC0 ; |2257| 
        OR port(*AR3(T0)), AC0, AC0 ; |2257| 
        MOV AC0, port(*AR3(T0)) ; |2257| 
	.dwpsn	file "F:/eZdsp_DBG/eZDSP_5535_Files/ccsws2/test/c5535_bsl_revc/ezdsp5535_v1/c55xx_csl/inc/csl_usbAux.h",line 2260,column 2,is_stmt
        MOV #1042, T0 ; |2260| 
        MOV *(#_usbRegisters), AR3 ; |2260| 
        MOV port(*AR3(T0)), AR1 ; |2260| 
        BCLR @#6, AR1 ; |2260| 
        BSET @#6, AR1 ; |2260| 
        MOV AR1, port(*AR3(T0)) ; |2260| 
	.dwpsn	file "F:/eZdsp_DBG/eZDSP_5535_Files/ccsws2/test/c5535_bsl_revc/ezdsp5535_v1/c55xx_csl/inc/csl_usbAux.h",line 2262,column 2,is_stmt
        MOV *(#_usbRegisters), AR3 ; |2262| 
        MOV port(*AR3(T0)), AR1 ; |2262| 
        BCLR @#3, AR1 ; |2262| 
        BSET @#3, AR1 ; |2262| 
        MOV AR1, port(*AR3(T0)) ; |2262| 
	.dwpsn	file "F:/eZdsp_DBG/eZDSP_5535_Files/ccsws2/test/c5535_bsl_revc/ezdsp5535_v1/c55xx_csl/inc/csl_usbAux.h",line 2266,column 2,is_stmt
        MOV #1038, T0 ; |2266| 
        MOV *(#_usbRegisters), AR3 ; |2266| 
        MOV *SP(#2), AR1 ; |2266| 
        MOV AR1, port(*AR3(T0)) ; |2266| 
	.dwpsn	file "F:/eZdsp_DBG/eZDSP_5535_Files/ccsws2/test/c5535_bsl_revc/ezdsp5535_v1/c55xx_csl/inc/csl_usbAux.h",line 2267,column 1,is_stmt
        AADD #3, SP
	.dwcfi	cfa_offset, 1
$C$DW$36	.dwtag  DW_TAG_TI_branch
	.dwattr $C$DW$36, DW_AT_low_pc(0x00)
	.dwattr $C$DW$36, DW_AT_TI_return
        RET
                                        ; return occurs
	.dwattr $C$DW$32, DW_AT_TI_end_file("F:/eZdsp_DBG/eZDSP_5535_Files/ccsws2/test/c5535_bsl_revc/ezdsp5535_v1/c55xx_csl/inc/csl_usbAux.h")
	.dwattr $C$DW$32, DW_AT_TI_end_line(0x8db)
	.dwattr $C$DW$32, DW_AT_TI_end_column(0x01)
	.dwendentry
	.dwendtag $C$DW$32

	.sect	".text"
	.align 4
	.global	_USB_init

$C$DW$37	.dwtag  DW_TAG_subprogram, DW_AT_name("USB_init")
	.dwattr $C$DW$37, DW_AT_low_pc(_USB_init)
	.dwattr $C$DW$37, DW_AT_high_pc(0x00)
	.dwattr $C$DW$37, DW_AT_TI_symbol_name("_USB_init")
	.dwattr $C$DW$37, DW_AT_external
	.dwattr $C$DW$37, DW_AT_type(*$C$DW$T$75)
	.dwattr $C$DW$37, DW_AT_TI_begin_file("../c5535_bsl_revc/ezdsp5535_v1/c55xx_csl/src/csl_usb.c")
	.dwattr $C$DW$37, DW_AT_TI_begin_line(0x4e)
	.dwattr $C$DW$37, DW_AT_TI_begin_column(0x0c)
	.dwattr $C$DW$37, DW_AT_TI_max_frame_size(0x0e)
	.dwpsn	file "../c5535_bsl_revc/ezdsp5535_v1/c55xx_csl/src/csl_usb.c",line 79,column 1,is_stmt,address _USB_init

	.dwfde $C$DW$CIE, _USB_init
$C$DW$38	.dwtag  DW_TAG_formal_parameter, DW_AT_name("usbConfig")
	.dwattr $C$DW$38, DW_AT_TI_symbol_name("_usbConfig")
	.dwattr $C$DW$38, DW_AT_type(*$C$DW$T$139)
	.dwattr $C$DW$38, DW_AT_location[DW_OP_reg17]
;*******************************************************************************
;* FUNCTION NAME: USB_init                                                     *
;*                                                                             *
;*   Function Uses Regs : AC0,AC0,AC1,AC1,T0,AR0,XAR0,AR1,XAR1,AR2,XAR2,AR3,   *
;*                        XAR3,SP,CARRY,TC1,M40,SATA,SATD,RDM,FRCT,SMUL        *
;*   Stack Frame        : Compact (No Frame Pointer, w/ debug)                 *
;*   Total Frame Size   : 14 words                                             *
;*                        (2 return address/alignment)                         *
;*                        (12 local values)                                    *
;*   Min System Stack   : 1 word                                               *
;*******************************************************************************
_USB_init:
	.dwcfi	cfa_offset, 1
	.dwcfi	save_reg_to_mem, 91, -1
        AADD #-13, SP
	.dwcfi	cfa_offset, 14
$C$DW$39	.dwtag  DW_TAG_variable, DW_AT_name("usbConfig")
	.dwattr $C$DW$39, DW_AT_TI_symbol_name("_usbConfig")
	.dwattr $C$DW$39, DW_AT_type(*$C$DW$T$139)
	.dwattr $C$DW$39, DW_AT_location[DW_OP_bregx 0x24 0]
$C$DW$40	.dwtag  DW_TAG_variable, DW_AT_name("pContext")
	.dwattr $C$DW$40, DW_AT_TI_symbol_name("_pContext")
	.dwattr $C$DW$40, DW_AT_type(*$C$DW$T$142)
	.dwattr $C$DW$40, DW_AT_location[DW_OP_bregx 0x24 2]
$C$DW$41	.dwtag  DW_TAG_variable, DW_AT_name("status")
	.dwattr $C$DW$41, DW_AT_TI_symbol_name("_status")
	.dwattr $C$DW$41, DW_AT_type(*$C$DW$T$75)
	.dwattr $C$DW$41, DW_AT_location[DW_OP_bregx 0x24 4]
$C$DW$42	.dwtag  DW_TAG_variable, DW_AT_name("peps")
	.dwattr $C$DW$42, DW_AT_TI_symbol_name("_peps")
	.dwattr $C$DW$42, DW_AT_type(*$C$DW$T$147)
	.dwattr $C$DW$42, DW_AT_location[DW_OP_bregx 0x24 6]
$C$DW$43	.dwtag  DW_TAG_variable, DW_AT_name("dwEndpoint")
	.dwattr $C$DW$43, DW_AT_TI_symbol_name("_dwEndpoint")
	.dwattr $C$DW$43, DW_AT_type(*$C$DW$T$84)
	.dwattr $C$DW$43, DW_AT_location[DW_OP_bregx 0x24 8]
$C$DW$44	.dwtag  DW_TAG_variable, DW_AT_name("looper")
	.dwattr $C$DW$44, DW_AT_TI_symbol_name("_looper")
	.dwattr $C$DW$44, DW_AT_type(*$C$DW$T$193)
	.dwattr $C$DW$44, DW_AT_location[DW_OP_bregx 0x24 10]
        MOV XAR0, dbl(*SP(#0))
	.dwpsn	file "../c5535_bsl_revc/ezdsp5535_v1/c55xx_csl/src/csl_usb.c",line 88,column 4,is_stmt
        MOV #1, *port(#28676) ; |88| 
	.dwpsn	file "../c5535_bsl_revc/ezdsp5535_v1/c55xx_csl/src/csl_usb.c",line 91,column 2,is_stmt
        AMOV #_gUsbContext, XAR3 ; |91| 
        MOV XAR3, dbl(*SP(#2))
	.dwpsn	file "../c5535_bsl_revc/ezdsp5535_v1/c55xx_csl/src/csl_usb.c",line 92,column 2,is_stmt
        MOV #-6, *SP(#4) ; |92| 
	.dwpsn	file "../c5535_bsl_revc/ezdsp5535_v1/c55xx_csl/src/csl_usb.c",line 94,column 2,is_stmt
        MOV dbl(*SP(#0)), XAR3
        MOV XAR3, AC0
        BCC $C$L10,AC0 != #0 ; |94| 
                                        ; branchcc occurs ; |94| 
        MOV *AR3, AR1 ; |94| 
        BCC $C$L30,AR1 != #0 ; |94| 
                                        ; branchcc occurs ; |94| 
$C$L10:    
	.dwpsn	file "../c5535_bsl_revc/ezdsp5535_v1/c55xx_csl/src/csl_usb.c",line 96,column 3,is_stmt
        MOV *AR3(short(#1)), AR1 ; |96| 
        BCC $C$L11,AR1 == #0 ; |96| 
                                        ; branchcc occurs ; |96| 
        CMP *AR3(short(#1)) == #1, TC1 ; |96| 
        BCC $C$L11,TC1 ; |96| 
                                        ; branchcc occurs ; |96| 
        CMP *AR3(short(#1)) == #2, TC1 ; |96| 
        BCC $C$L30,!TC1 ; |96| 
                                        ; branchcc occurs ; |96| 
$C$L11:    
	.dwpsn	file "../c5535_bsl_revc/ezdsp5535_v1/c55xx_csl/src/csl_usb.c",line 100,column 4,is_stmt
        MOV #7168, *(#_sysCtrlRegs) ; |100| 
	.dwpsn	file "../c5535_bsl_revc/ezdsp5535_v1/c55xx_csl/src/csl_usb.c",line 103,column 4,is_stmt
        MOV *(#_sysCtrlRegs), AR3 ; |103| 
        MOV #0, AC0 ; |103| 
        BSET @#5, AC0 ; |103| 
        MOV port(*AR3(short(#4))), AR1 ; |103| 
        MOV AC0, port(*AR3(short(#4))) ; |103| 
	.dwpsn	file "../c5535_bsl_revc/ezdsp5535_v1/c55xx_csl/src/csl_usb.c",line 106,column 4,is_stmt
        MOV *(#_sysCtrlRegs), AR3 ; |106| 
        MOV port(*AR3(short(#5))), AR1 ; |106| 
        BCLR @#3, AR1 ; |106| 
        BSET @#3, AR1 ; |106| 
        MOV AR1, port(*AR3(short(#5))) ; |106| 
	.dwpsn	file "../c5535_bsl_revc/ezdsp5535_v1/c55xx_csl/src/csl_usb.c",line 109,column 8,is_stmt
        MOV #0, AC0 ; |109| 
        MOV AC0, dbl(*SP(#10)) ; |109| 
        NOP
        NOP
	.dwpsn	file "../c5535_bsl_revc/ezdsp5535_v1/c55xx_csl/src/csl_usb.c",line 109,column 20,is_stmt
        MOV #255, AC0 ; |109| 
        MOV dbl(*SP(#10)), AC1 ; |109| 
        CMPU AC1 >= AC0, TC1 ; |109| 
        BCC $C$L13,TC1 ; |109| 
                                        ; branchcc occurs ; |109| 
$C$L12:    
$C$DW$L$_USB_init$7$B:
	.dwpsn	file "../c5535_bsl_revc/ezdsp5535_v1/c55xx_csl/src/csl_usb.c",line 109,column 44,is_stmt
        MOV dbl(*SP(#10)), AC0 ; |109| 
        ADD #1, AC0 ; |109| 
        MOV AC0, dbl(*SP(#10)) ; |109| 
        NOP
        NOP
	.dwpsn	file "../c5535_bsl_revc/ezdsp5535_v1/c55xx_csl/src/csl_usb.c",line 109,column 20,is_stmt
        MOV #255, AC0 ; |109| 
        MOV dbl(*SP(#10)), AC1 ; |109| 
        CMPU AC1 < AC0, TC1 ; |109| 
        BCC $C$L12,TC1 ; |109| 
                                        ; branchcc occurs ; |109| 
$C$DW$L$_USB_init$7$E:
$C$L13:    
	.dwpsn	file "../c5535_bsl_revc/ezdsp5535_v1/c55xx_csl/src/csl_usb.c",line 112,column 4,is_stmt
        MOV *(#_sysCtrlRegs), AR3 ; |112| 
        MOV port(*AR3(short(#3))), AR1 ; |112| 
        BCLR @#2, AR1 ; |112| 
        MOV AR1, port(*AR3(short(#3))) ; |112| 
	.dwpsn	file "../c5535_bsl_revc/ezdsp5535_v1/c55xx_csl/src/csl_usb.c",line 115,column 4,is_stmt
        MOV #32768, *(#_usbRegisters) ; |115| 
	.dwpsn	file "../c5535_bsl_revc/ezdsp5535_v1/c55xx_csl/src/csl_usb.c",line 117,column 4,is_stmt
        MOV #50, T0 ; |117| 
        MOV *(#_sysCtrlRegs), AR3 ; |117| 
        MOV #24640, port(*AR3(T0)) ; |117| 
	.dwpsn	file "../c5535_bsl_revc/ezdsp5535_v1/c55xx_csl/src/csl_usb.c",line 120,column 4,is_stmt
        MOV #58, T0 ; |120| 
        MOV *(#_sysCtrlRegs), AR3 ; |120| 
        MOV #0, port(*AR3(T0)) ; |120| 
	.dwpsn	file "../c5535_bsl_revc/ezdsp5535_v1/c55xx_csl/src/csl_usb.c",line 125,column 4,is_stmt
        MOV *(#_usbRegisters), AR3 ; |125| 
        MOV #1, port(*AR3(short(#4))) ; |125| 
	.dwpsn	file "../c5535_bsl_revc/ezdsp5535_v1/c55xx_csl/src/csl_usb.c",line 127,column 8,is_stmt
        MOV #0, AC0 ; |127| 
        MOV AC0, dbl(*SP(#10)) ; |127| 
        NOP
	.dwpsn	file "../c5535_bsl_revc/ezdsp5535_v1/c55xx_csl/src/csl_usb.c",line 127,column 20,is_stmt
        AMOV #90000, XAR3 ; |127| 
        MOV XAR3, AC0
        MOV dbl(*SP(#10)), AC1 ; |127| 
        CMPU AC1 >= AC0, TC1 ; |127| 
        BCC $C$L15,TC1 ; |127| 
                                        ; branchcc occurs ; |127| 
$C$L14:    
$C$DW$L$_USB_init$9$B:
	.dwpsn	file "../c5535_bsl_revc/ezdsp5535_v1/c55xx_csl/src/csl_usb.c",line 127,column 36,is_stmt
        MOV dbl(*SP(#10)), AC0 ; |127| 
        ADD #1, AC0 ; |127| 
        MOV AC0, dbl(*SP(#10)) ; |127| 
        NOP
        NOP
	.dwpsn	file "../c5535_bsl_revc/ezdsp5535_v1/c55xx_csl/src/csl_usb.c",line 127,column 20,is_stmt
        MOV XAR3, AC0
        MOV dbl(*SP(#10)), AC1 ; |127| 
        CMPU AC1 < AC0, TC1 ; |127| 
        BCC $C$L14,TC1 ; |127| 
                                        ; branchcc occurs ; |127| 
$C$DW$L$_USB_init$9$E:
$C$L15:    
	.dwpsn	file "../c5535_bsl_revc/ezdsp5535_v1/c55xx_csl/src/csl_usb.c",line 130,column 4,is_stmt
        MOV #50, T0 ; |130| 
        MOV *(#_sysCtrlRegs), AR3 ; |130| 
        MOV port(*AR3(T0)), AR1 ; |130| 
        AND #0xfffc, AR1, AC0 ; |130| 
        MOV AC0, port(*AR3(T0)) ; |130| 
	.dwpsn	file "../c5535_bsl_revc/ezdsp5535_v1/c55xx_csl/src/csl_usb.c",line 132,column 4,is_stmt
        MOV #1025, T0 ; |132| 
        MOV *(#_usbRegisters), AR3 ; |132| 
        MOV port(*AR3(T0)), AR1 ; |132| 
        BCLR @#13, AR1 ; |132| 
        BSET @#13, AR1 ; |132| 
        MOV AR1, port(*AR3(T0)) ; |132| 
	.dwpsn	file "../c5535_bsl_revc/ezdsp5535_v1/c55xx_csl/src/csl_usb.c",line 134,column 4,is_stmt
        MOV #1121, T0 ; |134| 
        MOV *(#_usbRegisters), AR3 ; |134| 
        MOV port(*AR3(T0)), AR1 ; |134| 
        BCLR @#0, AR1 ; |134| 
        BSET @#0, AR1 ; |134| 
        MOV AR1, port(*AR3(T0)) ; |134| 
	.dwpsn	file "../c5535_bsl_revc/ezdsp5535_v1/c55xx_csl/src/csl_usb.c",line 136,column 4,is_stmt
        MOV #1, *(#(_gCtrlTransfer+12)) ; |136| 
	.dwpsn	file "../c5535_bsl_revc/ezdsp5535_v1/c55xx_csl/src/csl_usb.c",line 137,column 4,is_stmt
        MOV #1, *(#(_gIsoInTransfer+12)) ; |137| 
	.dwpsn	file "../c5535_bsl_revc/ezdsp5535_v1/c55xx_csl/src/csl_usb.c",line 138,column 4,is_stmt
        MOV #1, *(#(_gIsoOutTransfer+12)) ; |138| 
	.dwpsn	file "../c5535_bsl_revc/ezdsp5535_v1/c55xx_csl/src/csl_usb.c",line 139,column 4,is_stmt
        MOV #1, *(#(_gBulkInTransfer+12)) ; |139| 
	.dwpsn	file "../c5535_bsl_revc/ezdsp5535_v1/c55xx_csl/src/csl_usb.c",line 140,column 4,is_stmt
        MOV #1, *(#(_gBulkOutTransfer+12)) ; |140| 
	.dwpsn	file "../c5535_bsl_revc/ezdsp5535_v1/c55xx_csl/src/csl_usb.c",line 141,column 13,is_stmt
        MOV #1, *(#(_gIntInTransfer+12)) ; |141| 
	.dwpsn	file "../c5535_bsl_revc/ezdsp5535_v1/c55xx_csl/src/csl_usb.c",line 144,column 4,is_stmt
        MOV dbl(*SP(#0)), XAR3
        MOV *AR3(short(#1)), AR1 ; |144| 
        MOV dbl(*SP(#2)), XAR3
        MOV AR1, *AR3 ; |144| 
	.dwpsn	file "../c5535_bsl_revc/ezdsp5535_v1/c55xx_csl/src/csl_usb.c",line 145,column 4,is_stmt
        MOV dbl(*SP(#0)), XAR3
        MOV *AR3(short(#2)), AR1 ; |145| 
        MOV dbl(*SP(#2)), XAR3
        MOV AR1, *AR3(short(#1)) ; |145| 
	.dwpsn	file "../c5535_bsl_revc/ezdsp5535_v1/c55xx_csl/src/csl_usb.c",line 146,column 4,is_stmt
        MOV dbl(*SP(#2)), XAR3
        MOV #0, *AR3(#96) ; |146| 
	.dwpsn	file "../c5535_bsl_revc/ezdsp5535_v1/c55xx_csl/src/csl_usb.c",line 147,column 4,is_stmt
        MOV dbl(*SP(#0)), XAR3
        MOV dbl(*AR3(short(#4))), AC0 ; |147| 
        MOV dbl(*SP(#2)), XAR3
        MOV AC0, dbl(*AR3(#110)) ; |147| 
	.dwpsn	file "../c5535_bsl_revc/ezdsp5535_v1/c55xx_csl/src/csl_usb.c",line 148,column 4,is_stmt
        MOV dbl(*SP(#0)), XAR3
        MOV dbl(*AR3(short(#6))), AC0 ; |148| 
        MOV dbl(*SP(#2)), XAR3
        MOV AC0, dbl(*AR3(#112)) ; |148| 
	.dwpsn	file "../c5535_bsl_revc/ezdsp5535_v1/c55xx_csl/src/csl_usb.c",line 149,column 4,is_stmt
        MOV dbl(*SP(#2)), XAR2
        MOV dbl(*SP(#0)), XAR3

        AADD #8, AR3 ; |149| 
||      AADD #114, AR2 ; |149| 

        MOV dbl(*AR3), dbl(*AR2) ; |149| 
	.dwpsn	file "../c5535_bsl_revc/ezdsp5535_v1/c55xx_csl/src/csl_usb.c",line 150,column 4,is_stmt
        MOV dbl(*SP(#0)), XAR3
        MOV dbl(*SP(#2)), XAR2

        AADD #116, AR2 ; |150| 
||      AADD #10, AR3 ; |150| 

        MOV dbl(*AR3), dbl(*AR2) ; |150| 
	.dwpsn	file "../c5535_bsl_revc/ezdsp5535_v1/c55xx_csl/src/csl_usb.c",line 152,column 4,is_stmt
        MOV dbl(*SP(#2)), XAR3
        MOV #0, *AR3(#101) ; |152| 
	.dwpsn	file "../c5535_bsl_revc/ezdsp5535_v1/c55xx_csl/src/csl_usb.c",line 153,column 4,is_stmt
        MOV dbl(*SP(#2)), XAR2
        AMOV #_gEpStatus, XAR3 ; |153| 
        MOV XAR3, dbl(*AR2(#98))
	.dwpsn	file "../c5535_bsl_revc/ezdsp5535_v1/c55xx_csl/src/csl_usb.c",line 154,column 4,is_stmt
        MOV dbl(*SP(#2)), XAR3
        MOV #0, *AR3(#102) ; |154| 
	.dwpsn	file "../c5535_bsl_revc/ezdsp5535_v1/c55xx_csl/src/csl_usb.c",line 155,column 4,is_stmt
        MOV dbl(*SP(#2)), XAR3
        MOV #0, *AR3(short(#3)) ; |155| 
	.dwpsn	file "../c5535_bsl_revc/ezdsp5535_v1/c55xx_csl/src/csl_usb.c",line 156,column 4,is_stmt
        MOV dbl(*SP(#2)), XAR3
        MOV #0, *AR3(short(#4)) ; |156| 
	.dwpsn	file "../c5535_bsl_revc/ezdsp5535_v1/c55xx_csl/src/csl_usb.c",line 157,column 4,is_stmt
        MOV dbl(*SP(#2)), XAR3
        MOV #0, *AR3(short(#5)) ; |157| 
	.dwpsn	file "../c5535_bsl_revc/ezdsp5535_v1/c55xx_csl/src/csl_usb.c",line 158,column 4,is_stmt
        MOV dbl(*SP(#2)), XAR3
        MOV #0, *AR3(short(#6)) ; |158| 
	.dwpsn	file "../c5535_bsl_revc/ezdsp5535_v1/c55xx_csl/src/csl_usb.c",line 159,column 4,is_stmt
        MOV dbl(*SP(#2)), XAR3
        MOV #0, *AR3(short(#7)) ; |159| 
	.dwpsn	file "../c5535_bsl_revc/ezdsp5535_v1/c55xx_csl/src/csl_usb.c",line 160,column 4,is_stmt
        MOV dbl(*SP(#2)), XAR3
        MOV #0, *AR3(#8) ; |160| 
	.dwpsn	file "../c5535_bsl_revc/ezdsp5535_v1/c55xx_csl/src/csl_usb.c",line 162,column 4,is_stmt
        MOV uns(*(#_usbRegisters)), AC0 ; |162| 
        MOV AC0, XAR3
        AMAR *+AR3(#1057) ; |162| 
        MOV XAR3, AC0
        MOV dbl(*SP(#2)), XAR3
        MOV AC0, dbl(*AR3(#18))
	.dwpsn	file "../c5535_bsl_revc/ezdsp5535_v1/c55xx_csl/src/csl_usb.c",line 164,column 4,is_stmt
        MOV dbl(*SP(#2)), XAR1
        MOV dbl(*SP(#2)), XAR0
        AADD #100, AR1 ; |164| 
$C$DW$45	.dwtag  DW_TAG_TI_branch
	.dwattr $C$DW$45, DW_AT_low_pc(0x00)
	.dwattr $C$DW$45, DW_AT_name("_USB_checkSpeed")
	.dwattr $C$DW$45, DW_AT_TI_call
        CALL #_USB_checkSpeed ; |164| 
                                        ; call occurs [#_USB_checkSpeed] ; |164| 
	.dwpsn	file "../c5535_bsl_revc/ezdsp5535_v1/c55xx_csl/src/csl_usb.c",line 166,column 4,is_stmt
        MOV dbl(*SP(#2)), XAR3
        MOV #0, *AR3(#24) ; |166| 
	.dwpsn	file "../c5535_bsl_revc/ezdsp5535_v1/c55xx_csl/src/csl_usb.c",line 167,column 4,is_stmt
        MOV dbl(*SP(#2)), XAR3
        MOV #0, *AR3(#23) ; |167| 
	.dwpsn	file "../c5535_bsl_revc/ezdsp5535_v1/c55xx_csl/src/csl_usb.c",line 168,column 4,is_stmt
        MOV dbl(*SP(#2)), XAR3
        MOV #1, *AR3(#22) ; |168| 
	.dwpsn	file "../c5535_bsl_revc/ezdsp5535_v1/c55xx_csl/src/csl_usb.c",line 169,column 4,is_stmt
        MOV dbl(*SP(#2)), XAR3
        MOV #1, *AR3(#90) ; |169| 
	.dwpsn	file "../c5535_bsl_revc/ezdsp5535_v1/c55xx_csl/src/csl_usb.c",line 170,column 4,is_stmt
        MOV dbl(*SP(#2)), XAR3
        MOV #1, *AR3(#91) ; |170| 
	.dwpsn	file "../c5535_bsl_revc/ezdsp5535_v1/c55xx_csl/src/csl_usb.c",line 171,column 4,is_stmt
        MOV dbl(*SP(#2)), XAR3
        MOV #0, *AR3(#25) ; |171| 
	.dwpsn	file "../c5535_bsl_revc/ezdsp5535_v1/c55xx_csl/src/csl_usb.c",line 174,column 4,is_stmt
        MOV dbl(*SP(#2)), XAR3
        MOV #8, *AR3(#118) ; |174| 
	.dwpsn	file "../c5535_bsl_revc/ezdsp5535_v1/c55xx_csl/src/csl_usb.c",line 177,column 4,is_stmt
        MOV dbl(*SP(#2)), XAR3
        MOV dbl(*AR3(#98)), XAR3

        MOV XAR3, dbl(*SP(#6))
||      AADD #18, AR3 ; |177| 

	.dwpsn	file "../c5535_bsl_revc/ezdsp5535_v1/c55xx_csl/src/csl_usb.c",line 179,column 4,is_stmt
        MOV uns(*(#_usbRegisters)), AC0 ; |179| 
        MOV AC0, XAR3
        AMAR *+AR3(#1061) ; |179| 
        MOV XAR3, AC0
        MOV dbl(*SP(#6)), XAR3
        MOV AC0, dbl(*AR3(#8))
	.dwpsn	file "../c5535_bsl_revc/ezdsp5535_v1/c55xx_csl/src/csl_usb.c",line 181,column 4,is_stmt
        MOV dbl(*SP(#2)), XAR3
        MOV dbl(*AR3(#98)), XAR3

        MOV XAR3, dbl(*SP(#6))
||      AADD #36, AR3 ; |181| 

	.dwpsn	file "../c5535_bsl_revc/ezdsp5535_v1/c55xx_csl/src/csl_usb.c",line 182,column 4,is_stmt
        MOV uns(*(#_usbRegisters)), AC0 ; |182| 
        MOV AC0, XAR3
        AMAR *+AR3(#1065) ; |182| 
        MOV XAR3, AC0
        MOV dbl(*SP(#6)), XAR3
        MOV AC0, dbl(*AR3(#8))
	.dwpsn	file "../c5535_bsl_revc/ezdsp5535_v1/c55xx_csl/src/csl_usb.c",line 184,column 4,is_stmt
        MOV dbl(*SP(#2)), XAR3
        MOV dbl(*AR3(#98)), XAR3

        MOV XAR3, dbl(*SP(#6))
||      AADD #54, AR3 ; |184| 

	.dwpsn	file "../c5535_bsl_revc/ezdsp5535_v1/c55xx_csl/src/csl_usb.c",line 186,column 4,is_stmt
        MOV uns(*(#_usbRegisters)), AC0 ; |186| 
        MOV AC0, XAR3
        AMAR *+AR3(#1069) ; |186| 
        MOV XAR3, AC0
        MOV dbl(*SP(#6)), XAR3
        MOV AC0, dbl(*AR3(#8))
	.dwpsn	file "../c5535_bsl_revc/ezdsp5535_v1/c55xx_csl/src/csl_usb.c",line 188,column 4,is_stmt
        MOV dbl(*SP(#2)), XAR3
        MOV dbl(*AR3(#98)), XAR3

        MOV XAR3, dbl(*SP(#6))
||      AADD #72, AR3 ; |188| 

	.dwpsn	file "../c5535_bsl_revc/ezdsp5535_v1/c55xx_csl/src/csl_usb.c",line 189,column 4,is_stmt
        MOV uns(*(#_usbRegisters)), AC0 ; |189| 
        MOV AC0, XAR3
        AMAR *+AR3(#1073) ; |189| 
        MOV XAR3, AC0
        MOV dbl(*SP(#6)), XAR3
        MOV AC0, dbl(*AR3(#8))
	.dwpsn	file "../c5535_bsl_revc/ezdsp5535_v1/c55xx_csl/src/csl_usb.c",line 192,column 8,is_stmt
        MOV #0, AC0 ; |192| 
        MOV AC0, dbl(*SP(#8)) ; |192| 
	.dwpsn	file "../c5535_bsl_revc/ezdsp5535_v1/c55xx_csl/src/csl_usb.c",line 192,column 24,is_stmt

        MOV dbl(*SP(#8)), AC1 ; |192| 
||      MOV #8, AC0 ; |192| 

        CMPU AC1 >= AC0, TC1 ; |192| 
        BCC $C$L29,TC1 ; |192| 
                                        ; branchcc occurs ; |192| 
$C$L16:    
$C$DW$L$_USB_init$11$B:
	.dwpsn	file "../c5535_bsl_revc/ezdsp5535_v1/c55xx_csl/src/csl_usb.c",line 194,column 5,is_stmt
        MOV dbl(*SP(#2)), XAR3
        MPYMK *SP(#9), #18, AC0 ; |194| 
        MOV AC0, AR1 ; |194| 
        MOV dbl(*AR3(#98)), XAR3

        MOV XAR3, dbl(*SP(#6))
||      AADD AR1, AR3 ; |194| 

	.dwpsn	file "../c5535_bsl_revc/ezdsp5535_v1/c55xx_csl/src/csl_usb.c",line 196,column 5,is_stmt
        MOV #0, *AR3(#16) ; |196| 
	.dwpsn	file "../c5535_bsl_revc/ezdsp5535_v1/c55xx_csl/src/csl_usb.c",line 197,column 5,is_stmt
        MOV dbl(*SP(#6)), XAR3
        MOV #0, AC0 ; |197| 
        MOV AC0, dbl(*AR3(#10))
	.dwpsn	file "../c5535_bsl_revc/ezdsp5535_v1/c55xx_csl/src/csl_usb.c",line 198,column 5,is_stmt
        MOV dbl(*SP(#6)), XAR3
        MOV #0, *AR3(#17) ; |198| 
	.dwpsn	file "../c5535_bsl_revc/ezdsp5535_v1/c55xx_csl/src/csl_usb.c",line 199,column 5,is_stmt
        MOV dbl(*SP(#6)), XAR3
        MOV dbl(*SP(#8)), AC0 ; |199| 
        MOV AC0, dbl(*AR3) ; |199| 
	.dwpsn	file "../c5535_bsl_revc/ezdsp5535_v1/c55xx_csl/src/csl_usb.c",line 200,column 5,is_stmt
        MOV dbl(*SP(#6)), XAR3
        MOV #0, *AR3(#12) ; |200| 
	.dwpsn	file "../c5535_bsl_revc/ezdsp5535_v1/c55xx_csl/src/csl_usb.c",line 201,column 5,is_stmt
        MOV dbl(*SP(#6)), XAR3
        MOV #1, *AR3(short(#6)) ; |201| 
	.dwpsn	file "../c5535_bsl_revc/ezdsp5535_v1/c55xx_csl/src/csl_usb.c",line 202,column 5,is_stmt
        MOV dbl(*SP(#6)), XAR3
        MOV #0, AC0 ; |202| 
        MOV AC0, dbl(*AR3(#14)) ; |202| 
	.dwpsn	file "../c5535_bsl_revc/ezdsp5535_v1/c55xx_csl/src/csl_usb.c",line 204,column 5,is_stmt
        B $C$L26  ; |204| 
                                        ; branch occurs ; |204| 
$C$DW$L$_USB_init$11$E:
$C$L17:    
$C$DW$L$_USB_init$13$B:
	.dwpsn	file "../c5535_bsl_revc/ezdsp5535_v1/c55xx_csl/src/csl_usb.c",line 207,column 7,is_stmt
        MOV dbl(*SP(#6)), XAR3
        MOV #64, AC0 ; |207| 
        MOV AC0, dbl(*AR3(short(#4))) ; |207| 
	.dwpsn	file "../c5535_bsl_revc/ezdsp5535_v1/c55xx_csl/src/csl_usb.c",line 208,column 12,is_stmt
        B $C$L28  ; |208| 
                                        ; branch occurs ; |208| 
$C$DW$L$_USB_init$13$E:
$C$L18:    
$C$DW$L$_USB_init$14$B:
	.dwpsn	file "../c5535_bsl_revc/ezdsp5535_v1/c55xx_csl/src/csl_usb.c",line 211,column 7,is_stmt
        MOV dbl(*SP(#2)), XAR3
        CMP *AR3(#100) == #4, TC1 ; |211| 
        BCC $C$L19,!TC1 ; |211| 
                                        ; branchcc occurs ; |211| 
$C$DW$L$_USB_init$14$E:
$C$DW$L$_USB_init$15$B:
	.dwpsn	file "../c5535_bsl_revc/ezdsp5535_v1/c55xx_csl/src/csl_usb.c",line 213,column 8,is_stmt
        MOV dbl(*SP(#6)), XAR3
        MOV #512, AC0 ; |213| 
        MOV AC0, dbl(*AR3(short(#4))) ; |213| 
	.dwpsn	file "../c5535_bsl_revc/ezdsp5535_v1/c55xx_csl/src/csl_usb.c",line 214,column 7,is_stmt
        B $C$L28  ; |214| 
                                        ; branch occurs ; |214| 
$C$DW$L$_USB_init$15$E:
$C$L19:    
$C$DW$L$_USB_init$16$B:
	.dwpsn	file "../c5535_bsl_revc/ezdsp5535_v1/c55xx_csl/src/csl_usb.c",line 217,column 8,is_stmt
        MOV dbl(*SP(#6)), XAR3
        MOV #64, AC0 ; |217| 
        MOV AC0, dbl(*AR3(short(#4))) ; |217| 
	.dwpsn	file "../c5535_bsl_revc/ezdsp5535_v1/c55xx_csl/src/csl_usb.c",line 220,column 12,is_stmt
        B $C$L28  ; |220| 
                                        ; branch occurs ; |220| 
$C$DW$L$_USB_init$16$E:
$C$L20:    
$C$DW$L$_USB_init$17$B:
	.dwpsn	file "../c5535_bsl_revc/ezdsp5535_v1/c55xx_csl/src/csl_usb.c",line 223,column 7,is_stmt
        MOV dbl(*SP(#2)), XAR3
        CMP *AR3(#100) == #4, TC1 ; |223| 
        BCC $C$L21,!TC1 ; |223| 
                                        ; branchcc occurs ; |223| 
$C$DW$L$_USB_init$17$E:
$C$DW$L$_USB_init$18$B:
	.dwpsn	file "../c5535_bsl_revc/ezdsp5535_v1/c55xx_csl/src/csl_usb.c",line 225,column 8,is_stmt
        MOV dbl(*SP(#6)), XAR3
        MOV #512, AC0 ; |225| 
        MOV AC0, dbl(*AR3(short(#4))) ; |225| 
	.dwpsn	file "../c5535_bsl_revc/ezdsp5535_v1/c55xx_csl/src/csl_usb.c",line 226,column 7,is_stmt
        B $C$L28  ; |226| 
                                        ; branch occurs ; |226| 
$C$DW$L$_USB_init$18$E:
$C$L21:    
$C$DW$L$_USB_init$19$B:
	.dwpsn	file "../c5535_bsl_revc/ezdsp5535_v1/c55xx_csl/src/csl_usb.c",line 229,column 8,is_stmt
        MOV dbl(*SP(#6)), XAR3
        MOV #64, AC0 ; |229| 
        MOV AC0, dbl(*AR3(short(#4))) ; |229| 
	.dwpsn	file "../c5535_bsl_revc/ezdsp5535_v1/c55xx_csl/src/csl_usb.c",line 232,column 12,is_stmt
        B $C$L28  ; |232| 
                                        ; branch occurs ; |232| 
$C$DW$L$_USB_init$19$E:
$C$L22:    
$C$DW$L$_USB_init$20$B:
	.dwpsn	file "../c5535_bsl_revc/ezdsp5535_v1/c55xx_csl/src/csl_usb.c",line 235,column 7,is_stmt
        MOV dbl(*SP(#2)), XAR3
        CMP *AR3(#100) == #4, TC1 ; |235| 
        BCC $C$L23,!TC1 ; |235| 
                                        ; branchcc occurs ; |235| 
$C$DW$L$_USB_init$20$E:
$C$DW$L$_USB_init$21$B:
	.dwpsn	file "../c5535_bsl_revc/ezdsp5535_v1/c55xx_csl/src/csl_usb.c",line 237,column 8,is_stmt
        MOV dbl(*SP(#6)), XAR3
        MOV #512, AC0 ; |237| 
        MOV AC0, dbl(*AR3(short(#4))) ; |237| 
	.dwpsn	file "../c5535_bsl_revc/ezdsp5535_v1/c55xx_csl/src/csl_usb.c",line 238,column 7,is_stmt
        B $C$L28  ; |238| 
                                        ; branch occurs ; |238| 
$C$DW$L$_USB_init$21$E:
$C$L23:    
$C$DW$L$_USB_init$22$B:
	.dwpsn	file "../c5535_bsl_revc/ezdsp5535_v1/c55xx_csl/src/csl_usb.c",line 241,column 8,is_stmt
        MOV dbl(*SP(#6)), XAR3
        MOV #64, AC0 ; |241| 
        MOV AC0, dbl(*AR3(short(#4))) ; |241| 
	.dwpsn	file "../c5535_bsl_revc/ezdsp5535_v1/c55xx_csl/src/csl_usb.c",line 244,column 12,is_stmt
        B $C$L28  ; |244| 
                                        ; branch occurs ; |244| 
$C$DW$L$_USB_init$22$E:
$C$L24:    
$C$DW$L$_USB_init$23$B:
	.dwpsn	file "../c5535_bsl_revc/ezdsp5535_v1/c55xx_csl/src/csl_usb.c",line 247,column 7,is_stmt
        MOV dbl(*SP(#2)), XAR3
        CMP *AR3(#100) == #4, TC1 ; |247| 
        BCC $C$L25,!TC1 ; |247| 
                                        ; branchcc occurs ; |247| 
$C$DW$L$_USB_init$23$E:
$C$DW$L$_USB_init$24$B:
	.dwpsn	file "../c5535_bsl_revc/ezdsp5535_v1/c55xx_csl/src/csl_usb.c",line 249,column 8,is_stmt
        MOV dbl(*SP(#6)), XAR3
        MOV #512, AC0 ; |249| 
        MOV AC0, dbl(*AR3(short(#4))) ; |249| 
	.dwpsn	file "../c5535_bsl_revc/ezdsp5535_v1/c55xx_csl/src/csl_usb.c",line 250,column 7,is_stmt
        B $C$L28  ; |250| 
                                        ; branch occurs ; |250| 
$C$DW$L$_USB_init$24$E:
$C$L25:    
$C$DW$L$_USB_init$25$B:
	.dwpsn	file "../c5535_bsl_revc/ezdsp5535_v1/c55xx_csl/src/csl_usb.c",line 253,column 8,is_stmt
        MOV dbl(*SP(#6)), XAR3
        MOV #64, AC0 ; |253| 
        MOV AC0, dbl(*AR3(short(#4))) ; |253| 
	.dwpsn	file "../c5535_bsl_revc/ezdsp5535_v1/c55xx_csl/src/csl_usb.c",line 256,column 12,is_stmt
        B $C$L28  ; |256| 
                                        ; branch occurs ; |256| 
$C$DW$L$_USB_init$25$E:
$C$L26:    
$C$DW$L$_USB_init$27$B:
	.dwpsn	file "../c5535_bsl_revc/ezdsp5535_v1/c55xx_csl/src/csl_usb.c",line 204,column 5,is_stmt

        MOV dbl(*SP(#8)), AC0 ; |204| 
||      MOV #2, AC1 ; |204| 

        CMP AC0 > AC1, TC1 ; |204| 
        BCC $C$L27,TC1 ; |204| 
                                        ; branchcc occurs ; |204| 
$C$DW$L$_USB_init$27$E:
$C$DW$L$_USB_init$28$B:
        CMP AC0 == AC1, TC1 ; |204| 
        BCC $C$L20,TC1 ; |204| 
                                        ; branchcc occurs ; |204| 
$C$DW$L$_USB_init$28$E:
$C$DW$L$_USB_init$29$B:
        BCC $C$L17,AC0 == #0 ; |204| 
                                        ; branchcc occurs ; |204| 
$C$DW$L$_USB_init$29$E:
$C$DW$L$_USB_init$30$B:
        MOV #1, AC1 ; |204| 
        CMPU AC0 == AC1, TC1 ; |204| 
        BCC $C$L18,TC1 ; |204| 
                                        ; branchcc occurs ; |204| 
$C$DW$L$_USB_init$30$E:
$C$DW$L$_USB_init$31$B:
        B $C$L28  ; |204| 
                                        ; branch occurs ; |204| 
$C$DW$L$_USB_init$31$E:
$C$L27:    
$C$DW$L$_USB_init$32$B:
        MOV #3, AC1 ; |204| 
        CMPU AC0 == AC1, TC1 ; |204| 
        BCC $C$L22,TC1 ; |204| 
                                        ; branchcc occurs ; |204| 
$C$DW$L$_USB_init$32$E:
$C$DW$L$_USB_init$33$B:
        MOV #4, AC1 ; |204| 
        CMPU AC0 == AC1, TC1 ; |204| 
        BCC $C$L24,TC1 ; |204| 
                                        ; branchcc occurs ; |204| 
$C$DW$L$_USB_init$33$E:
$C$L28:    
$C$DW$L$_USB_init$34$B:
	.dwpsn	file "../c5535_bsl_revc/ezdsp5535_v1/c55xx_csl/src/csl_usb.c",line 192,column 61,is_stmt
        MOV dbl(*SP(#8)), AC0 ; |192| 
        ADD #1, AC0 ; |192| 
        MOV AC0, dbl(*SP(#8)) ; |192| 
	.dwpsn	file "../c5535_bsl_revc/ezdsp5535_v1/c55xx_csl/src/csl_usb.c",line 192,column 24,is_stmt

        MOV #8, AC0 ; |192| 
||      MOV dbl(*SP(#8)), AC1 ; |192| 

        CMPU AC1 < AC0, TC1 ; |192| 
        BCC $C$L16,TC1 ; |192| 
                                        ; branchcc occurs ; |192| 
$C$DW$L$_USB_init$34$E:
$C$L29:    
	.dwpsn	file "../c5535_bsl_revc/ezdsp5535_v1/c55xx_csl/src/csl_usb.c",line 263,column 4,is_stmt
        MOV dbl(*SP(#2)), XAR3
        MOV #1, *AR3(short(#2)) ; |263| 
	.dwpsn	file "../c5535_bsl_revc/ezdsp5535_v1/c55xx_csl/src/csl_usb.c",line 264,column 4,is_stmt
        MOV #0, *SP(#4) ; |264| 
$C$L30:    
	.dwpsn	file "../c5535_bsl_revc/ezdsp5535_v1/c55xx_csl/src/csl_usb.c",line 268,column 2,is_stmt
        MOV *SP(#4), T0 ; |268| 
	.dwpsn	file "../c5535_bsl_revc/ezdsp5535_v1/c55xx_csl/src/csl_usb.c",line 269,column 1,is_stmt
        AADD #13, SP
	.dwcfi	cfa_offset, 1
$C$DW$46	.dwtag  DW_TAG_TI_branch
	.dwattr $C$DW$46, DW_AT_low_pc(0x00)
	.dwattr $C$DW$46, DW_AT_TI_return
        RET
                                        ; return occurs

$C$DW$47	.dwtag  DW_TAG_TI_loop
	.dwattr $C$DW$47, DW_AT_name("F:\eZdsp_DBG\eZDSP_5535_Files\ccsws2\test\Debug\csl_usb.asm:$C$L16:1:1537612617")
	.dwattr $C$DW$47, DW_AT_TI_begin_file("../c5535_bsl_revc/ezdsp5535_v1/c55xx_csl/src/csl_usb.c")
	.dwattr $C$DW$47, DW_AT_TI_begin_line(0xc0)
	.dwattr $C$DW$47, DW_AT_TI_end_line(0x105)
$C$DW$48	.dwtag  DW_TAG_TI_loop_range
	.dwattr $C$DW$48, DW_AT_low_pc($C$DW$L$_USB_init$11$B)
	.dwattr $C$DW$48, DW_AT_high_pc($C$DW$L$_USB_init$11$E)
$C$DW$49	.dwtag  DW_TAG_TI_loop_range
	.dwattr $C$DW$49, DW_AT_low_pc($C$DW$L$_USB_init$23$B)
	.dwattr $C$DW$49, DW_AT_high_pc($C$DW$L$_USB_init$23$E)
$C$DW$50	.dwtag  DW_TAG_TI_loop_range
	.dwattr $C$DW$50, DW_AT_low_pc($C$DW$L$_USB_init$32$B)
	.dwattr $C$DW$50, DW_AT_high_pc($C$DW$L$_USB_init$32$E)
$C$DW$51	.dwtag  DW_TAG_TI_loop_range
	.dwattr $C$DW$51, DW_AT_low_pc($C$DW$L$_USB_init$20$B)
	.dwattr $C$DW$51, DW_AT_high_pc($C$DW$L$_USB_init$20$E)
$C$DW$52	.dwtag  DW_TAG_TI_loop_range
	.dwattr $C$DW$52, DW_AT_low_pc($C$DW$L$_USB_init$17$B)
	.dwattr $C$DW$52, DW_AT_high_pc($C$DW$L$_USB_init$17$E)
$C$DW$53	.dwtag  DW_TAG_TI_loop_range
	.dwattr $C$DW$53, DW_AT_low_pc($C$DW$L$_USB_init$30$B)
	.dwattr $C$DW$53, DW_AT_high_pc($C$DW$L$_USB_init$30$E)
$C$DW$54	.dwtag  DW_TAG_TI_loop_range
	.dwattr $C$DW$54, DW_AT_low_pc($C$DW$L$_USB_init$14$B)
	.dwattr $C$DW$54, DW_AT_high_pc($C$DW$L$_USB_init$14$E)
$C$DW$55	.dwtag  DW_TAG_TI_loop_range
	.dwattr $C$DW$55, DW_AT_low_pc($C$DW$L$_USB_init$27$B)
	.dwattr $C$DW$55, DW_AT_high_pc($C$DW$L$_USB_init$27$E)
$C$DW$56	.dwtag  DW_TAG_TI_loop_range
	.dwattr $C$DW$56, DW_AT_low_pc($C$DW$L$_USB_init$28$B)
	.dwattr $C$DW$56, DW_AT_high_pc($C$DW$L$_USB_init$28$E)
$C$DW$57	.dwtag  DW_TAG_TI_loop_range
	.dwattr $C$DW$57, DW_AT_low_pc($C$DW$L$_USB_init$29$B)
	.dwattr $C$DW$57, DW_AT_high_pc($C$DW$L$_USB_init$29$E)
$C$DW$58	.dwtag  DW_TAG_TI_loop_range
	.dwattr $C$DW$58, DW_AT_low_pc($C$DW$L$_USB_init$13$B)
	.dwattr $C$DW$58, DW_AT_high_pc($C$DW$L$_USB_init$13$E)
$C$DW$59	.dwtag  DW_TAG_TI_loop_range
	.dwattr $C$DW$59, DW_AT_low_pc($C$DW$L$_USB_init$15$B)
	.dwattr $C$DW$59, DW_AT_high_pc($C$DW$L$_USB_init$15$E)
$C$DW$60	.dwtag  DW_TAG_TI_loop_range
	.dwattr $C$DW$60, DW_AT_low_pc($C$DW$L$_USB_init$16$B)
	.dwattr $C$DW$60, DW_AT_high_pc($C$DW$L$_USB_init$16$E)
$C$DW$61	.dwtag  DW_TAG_TI_loop_range
	.dwattr $C$DW$61, DW_AT_low_pc($C$DW$L$_USB_init$18$B)
	.dwattr $C$DW$61, DW_AT_high_pc($C$DW$L$_USB_init$18$E)
$C$DW$62	.dwtag  DW_TAG_TI_loop_range
	.dwattr $C$DW$62, DW_AT_low_pc($C$DW$L$_USB_init$19$B)
	.dwattr $C$DW$62, DW_AT_high_pc($C$DW$L$_USB_init$19$E)
$C$DW$63	.dwtag  DW_TAG_TI_loop_range
	.dwattr $C$DW$63, DW_AT_low_pc($C$DW$L$_USB_init$21$B)
	.dwattr $C$DW$63, DW_AT_high_pc($C$DW$L$_USB_init$21$E)
$C$DW$64	.dwtag  DW_TAG_TI_loop_range
	.dwattr $C$DW$64, DW_AT_low_pc($C$DW$L$_USB_init$22$B)
	.dwattr $C$DW$64, DW_AT_high_pc($C$DW$L$_USB_init$22$E)
$C$DW$65	.dwtag  DW_TAG_TI_loop_range
	.dwattr $C$DW$65, DW_AT_low_pc($C$DW$L$_USB_init$24$B)
	.dwattr $C$DW$65, DW_AT_high_pc($C$DW$L$_USB_init$24$E)
$C$DW$66	.dwtag  DW_TAG_TI_loop_range
	.dwattr $C$DW$66, DW_AT_low_pc($C$DW$L$_USB_init$25$B)
	.dwattr $C$DW$66, DW_AT_high_pc($C$DW$L$_USB_init$25$E)
$C$DW$67	.dwtag  DW_TAG_TI_loop_range
	.dwattr $C$DW$67, DW_AT_low_pc($C$DW$L$_USB_init$31$B)
	.dwattr $C$DW$67, DW_AT_high_pc($C$DW$L$_USB_init$31$E)
$C$DW$68	.dwtag  DW_TAG_TI_loop_range
	.dwattr $C$DW$68, DW_AT_low_pc($C$DW$L$_USB_init$33$B)
	.dwattr $C$DW$68, DW_AT_high_pc($C$DW$L$_USB_init$33$E)
$C$DW$69	.dwtag  DW_TAG_TI_loop_range
	.dwattr $C$DW$69, DW_AT_low_pc($C$DW$L$_USB_init$34$B)
	.dwattr $C$DW$69, DW_AT_high_pc($C$DW$L$_USB_init$34$E)
	.dwendtag $C$DW$47


$C$DW$70	.dwtag  DW_TAG_TI_loop
	.dwattr $C$DW$70, DW_AT_name("F:\eZdsp_DBG\eZDSP_5535_Files\ccsws2\test\Debug\csl_usb.asm:$C$L14:1:1537612617")
	.dwattr $C$DW$70, DW_AT_TI_begin_file("../c5535_bsl_revc/ezdsp5535_v1/c55xx_csl/src/csl_usb.c")
	.dwattr $C$DW$70, DW_AT_TI_begin_line(0x7f)
	.dwattr $C$DW$70, DW_AT_TI_end_line(0x7f)
$C$DW$71	.dwtag  DW_TAG_TI_loop_range
	.dwattr $C$DW$71, DW_AT_low_pc($C$DW$L$_USB_init$9$B)
	.dwattr $C$DW$71, DW_AT_high_pc($C$DW$L$_USB_init$9$E)
	.dwendtag $C$DW$70


$C$DW$72	.dwtag  DW_TAG_TI_loop
	.dwattr $C$DW$72, DW_AT_name("F:\eZdsp_DBG\eZDSP_5535_Files\ccsws2\test\Debug\csl_usb.asm:$C$L12:1:1537612617")
	.dwattr $C$DW$72, DW_AT_TI_begin_file("../c5535_bsl_revc/ezdsp5535_v1/c55xx_csl/src/csl_usb.c")
	.dwattr $C$DW$72, DW_AT_TI_begin_line(0x6d)
	.dwattr $C$DW$72, DW_AT_TI_end_line(0x6d)
$C$DW$73	.dwtag  DW_TAG_TI_loop_range
	.dwattr $C$DW$73, DW_AT_low_pc($C$DW$L$_USB_init$7$B)
	.dwattr $C$DW$73, DW_AT_high_pc($C$DW$L$_USB_init$7$E)
	.dwendtag $C$DW$72

	.dwattr $C$DW$37, DW_AT_TI_end_file("../c5535_bsl_revc/ezdsp5535_v1/c55xx_csl/src/csl_usb.c")
	.dwattr $C$DW$37, DW_AT_TI_end_line(0x10d)
	.dwattr $C$DW$37, DW_AT_TI_end_column(0x01)
	.dwendentry
	.dwendtag $C$DW$37

	.sect	".text"
	.align 4
	.global	_USB_resetDev

$C$DW$74	.dwtag  DW_TAG_subprogram, DW_AT_name("USB_resetDev")
	.dwattr $C$DW$74, DW_AT_low_pc(_USB_resetDev)
	.dwattr $C$DW$74, DW_AT_high_pc(0x00)
	.dwattr $C$DW$74, DW_AT_TI_symbol_name("_USB_resetDev")
	.dwattr $C$DW$74, DW_AT_external
	.dwattr $C$DW$74, DW_AT_type(*$C$DW$T$75)
	.dwattr $C$DW$74, DW_AT_TI_begin_file("../c5535_bsl_revc/ezdsp5535_v1/c55xx_csl/src/csl_usb.c")
	.dwattr $C$DW$74, DW_AT_TI_begin_line(0x136)
	.dwattr $C$DW$74, DW_AT_TI_begin_column(0x0c)
	.dwattr $C$DW$74, DW_AT_TI_max_frame_size(0x08)
	.dwpsn	file "../c5535_bsl_revc/ezdsp5535_v1/c55xx_csl/src/csl_usb.c",line 311,column 1,is_stmt,address _USB_resetDev

	.dwfde $C$DW$CIE, _USB_resetDev
$C$DW$75	.dwtag  DW_TAG_formal_parameter, DW_AT_name("devNum")
	.dwattr $C$DW$75, DW_AT_TI_symbol_name("_devNum")
	.dwattr $C$DW$75, DW_AT_type(*$C$DW$T$68)
	.dwattr $C$DW$75, DW_AT_location[DW_OP_reg12]
;*******************************************************************************
;* FUNCTION NAME: USB_resetDev                                                 *
;*                                                                             *
;*   Function Uses Regs : AC0,AC0,T0,AR1,AR3,XAR3,SP,M40,SATA,SATD,RDM,FRCT,   *
;*                        SMUL                                                 *
;*   Stack Frame        : Compact (No Frame Pointer, w/ debug)                 *
;*   Total Frame Size   : 8 words                                              *
;*                        (2 return address/alignment)                         *
;*                        (6 local values)                                     *
;*   Min System Stack   : 1 word                                               *
;*******************************************************************************
_USB_resetDev:
	.dwcfi	cfa_offset, 1
	.dwcfi	save_reg_to_mem, 91, -1
        AADD #-7, SP
	.dwcfi	cfa_offset, 8
$C$DW$76	.dwtag  DW_TAG_variable, DW_AT_name("devNum")
	.dwattr $C$DW$76, DW_AT_TI_symbol_name("_devNum")
	.dwattr $C$DW$76, DW_AT_type(*$C$DW$T$68)
	.dwattr $C$DW$76, DW_AT_location[DW_OP_bregx 0x24 0]
$C$DW$77	.dwtag  DW_TAG_variable, DW_AT_name("status")
	.dwattr $C$DW$77, DW_AT_TI_symbol_name("_status")
	.dwattr $C$DW$77, DW_AT_type(*$C$DW$T$75)
	.dwattr $C$DW$77, DW_AT_location[DW_OP_bregx 0x24 1]
$C$DW$78	.dwtag  DW_TAG_variable, DW_AT_name("saveIndex")
	.dwattr $C$DW$78, DW_AT_TI_symbol_name("_saveIndex")
	.dwattr $C$DW$78, DW_AT_type(*$C$DW$T$19)
	.dwattr $C$DW$78, DW_AT_location[DW_OP_bregx 0x24 2]
$C$DW$79	.dwtag  DW_TAG_variable, DW_AT_name("pContext")
	.dwattr $C$DW$79, DW_AT_TI_symbol_name("_pContext")
	.dwattr $C$DW$79, DW_AT_type(*$C$DW$T$142)
	.dwattr $C$DW$79, DW_AT_location[DW_OP_bregx 0x24 4]
        MOV T0, *SP(#0) ; |311| 
	.dwpsn	file "../c5535_bsl_revc/ezdsp5535_v1/c55xx_csl/src/csl_usb.c",line 316,column 2,is_stmt
        MOV #0, *SP(#1) ; |316| 
	.dwpsn	file "../c5535_bsl_revc/ezdsp5535_v1/c55xx_csl/src/csl_usb.c",line 317,column 2,is_stmt
        MOV #0, *SP(#2) ; |317| 
	.dwpsn	file "../c5535_bsl_revc/ezdsp5535_v1/c55xx_csl/src/csl_usb.c",line 318,column 2,is_stmt
        AMOV #_gUsbContext, XAR3 ; |318| 
        MOV XAR3, dbl(*SP(#4))
	.dwpsn	file "../c5535_bsl_revc/ezdsp5535_v1/c55xx_csl/src/csl_usb.c",line 320,column 2,is_stmt
        MOV *SP(#0), AR1 ; |320| 
        BCC $C$L31,AR1 == #0 ; |320| 
                                        ; branchcc occurs ; |320| 
	.dwpsn	file "../c5535_bsl_revc/ezdsp5535_v1/c55xx_csl/src/csl_usb.c",line 322,column 3,is_stmt
        MOV #-6, T0
        B $C$L32  ; |322| 
                                        ; branch occurs ; |322| 
$C$L31:    
	.dwpsn	file "../c5535_bsl_revc/ezdsp5535_v1/c55xx_csl/src/csl_usb.c",line 326,column 2,is_stmt
        MOV #1038, T0 ; |326| 
        MOV *(#_usbRegisters), AR3 ; |326| 
        MOV port(*AR3(T0)), AR1 ; |326| 
        MOV AR1, *SP(#2) ; |326| 
	.dwpsn	file "../c5535_bsl_revc/ezdsp5535_v1/c55xx_csl/src/csl_usb.c",line 328,column 2,is_stmt
        MOV dbl(*SP(#4)), XAR3
        MOV #1, *AR3(#23) ; |328| 
	.dwpsn	file "../c5535_bsl_revc/ezdsp5535_v1/c55xx_csl/src/csl_usb.c",line 332,column 2,is_stmt
        MOV *(#_usbRegisters), AR3 ; |332| 
        MOV port(*AR3(T0)), AR1 ; |332| 
        AND #0xfff0, AR1, AC0 ; |332| 
        MOV AC0, port(*AR3(T0)) ; |332| 
	.dwpsn	file "../c5535_bsl_revc/ezdsp5535_v1/c55xx_csl/src/csl_usb.c",line 336,column 2,is_stmt
        MOV *(#_usbRegisters), AR3 ; |336| 
        MOV port(*AR3(T0)), AR1 ; |336| 
        AND #0xfff0, AR1, AC0 ; |336| 
        MOV AC0, port(*AR3(T0)) ; |336| 
	.dwpsn	file "../c5535_bsl_revc/ezdsp5535_v1/c55xx_csl/src/csl_usb.c",line 340,column 2,is_stmt
        MOV #1042, T0 ; |340| 
        MOV *(#_usbRegisters), AR3 ; |340| 
        MOV port(*AR3(T0)), AR1 ; |340| 
        BCLR @#8, AR1 ; |340| 
        BSET @#8, AR1 ; |340| 
        MOV AR1, port(*AR3(T0)) ; |340| 
	.dwpsn	file "../c5535_bsl_revc/ezdsp5535_v1/c55xx_csl/src/csl_usb.c",line 344,column 2,is_stmt
        MOV #1038, T0 ; |344| 
        MOV *(#_usbRegisters), AR3 ; |344| 
        MOV port(*AR3(T0)), AR1 ; |344| 
        AND #0xfff0, AR1, AC0 ; |344| 
        MOV AC0, port(*AR3(T0)) ; |344| 
	.dwpsn	file "../c5535_bsl_revc/ezdsp5535_v1/c55xx_csl/src/csl_usb.c",line 348,column 2,is_stmt
        MOV *(#_usbRegisters), AR3 ; |348| 
        MOV port(*AR3(T0)), AR1 ; |348| 
        AND #0xfff0, AR1, AC0 ; |348| 
        BSET @#0, AC0 ; |348| 
        MOV AC0, port(*AR3(T0)) ; |348| 
	.dwpsn	file "../c5535_bsl_revc/ezdsp5535_v1/c55xx_csl/src/csl_usb.c",line 352,column 2,is_stmt
        MOV #1042, T0 ; |352| 
        MOV *(#_usbRegisters), AR3 ; |352| 
        MOV port(*AR3(T0)), AR1 ; |352| 
        BCLR @#3, AR1 ; |352| 
        BSET @#3, AR1 ; |352| 
        MOV AR1, port(*AR3(T0)) ; |352| 
	.dwpsn	file "../c5535_bsl_revc/ezdsp5535_v1/c55xx_csl/src/csl_usb.c",line 355,column 5,is_stmt
        MOV #1046, T0 ; |355| 
        MOV *(#_usbRegisters), AR3 ; |355| 
        MOV port(*AR3(T0)), AR1 ; |355| 
        BCLR @#4, AR1 ; |355| 
        BSET @#4, AR1 ; |355| 
        MOV AR1, port(*AR3(T0)) ; |355| 
	.dwpsn	file "../c5535_bsl_revc/ezdsp5535_v1/c55xx_csl/src/csl_usb.c",line 359,column 2,is_stmt
        MOV #1038, T0 ; |359| 
        MOV *(#_usbRegisters), AR3 ; |359| 
        MOV port(*AR3(T0)), AR1 ; |359| 
        AND #0xfff0, AR1, AC0 ; |359| 
        MOV AC0, port(*AR3(T0)) ; |359| 
	.dwpsn	file "../c5535_bsl_revc/ezdsp5535_v1/c55xx_csl/src/csl_usb.c",line 363,column 2,is_stmt
        MOV *(#_usbRegisters), AR3 ; |363| 
        MOV port(*AR3(T0)), AR1 ; |363| 
        AND #0xfff0, AR1, AC0 ; |363| 
        BSET @#1, AC0 ; |363| 
        MOV AC0, port(*AR3(T0)) ; |363| 
	.dwpsn	file "../c5535_bsl_revc/ezdsp5535_v1/c55xx_csl/src/csl_usb.c",line 367,column 5,is_stmt
        MOV #1042, T0 ; |367| 
        MOV *(#_usbRegisters), AR3 ; |367| 
        MOV port(*AR3(T0)), AR1 ; |367| 
        BCLR @#3, AR1 ; |367| 
        BSET @#3, AR1 ; |367| 
        MOV AR1, port(*AR3(T0)) ; |367| 
	.dwpsn	file "../c5535_bsl_revc/ezdsp5535_v1/c55xx_csl/src/csl_usb.c",line 370,column 2,is_stmt
        MOV #1046, T0 ; |370| 
        MOV *(#_usbRegisters), AR3 ; |370| 
        MOV port(*AR3(T0)), AR1 ; |370| 
        BCLR @#4, AR1 ; |370| 
        BSET @#4, AR1 ; |370| 
        MOV AR1, port(*AR3(T0)) ; |370| 
	.dwpsn	file "../c5535_bsl_revc/ezdsp5535_v1/c55xx_csl/src/csl_usb.c",line 374,column 2,is_stmt
        MOV #1038, T0 ; |374| 
        MOV *(#_usbRegisters), AR3 ; |374| 
        MOV port(*AR3(T0)), AR1 ; |374| 
        AND #0xfff0, AR1, AC0 ; |374| 
        MOV AC0, port(*AR3(T0)) ; |374| 
	.dwpsn	file "../c5535_bsl_revc/ezdsp5535_v1/c55xx_csl/src/csl_usb.c",line 378,column 2,is_stmt
        MOV *(#_usbRegisters), AR3 ; |378| 
        MOV port(*AR3(T0)), AR1 ; |378| 
        AND #0xfff0, AR1, AR1 ; |378| 
        OR #0x0003, AR1, AR1 ; |378| 
        MOV AR1, port(*AR3(T0)) ; |378| 
	.dwpsn	file "../c5535_bsl_revc/ezdsp5535_v1/c55xx_csl/src/csl_usb.c",line 382,column 5,is_stmt
        MOV #1042, T0 ; |382| 
        MOV *(#_usbRegisters), AR3 ; |382| 
        MOV port(*AR3(T0)), AR1 ; |382| 
        BCLR @#3, AR1 ; |382| 
        BSET @#3, AR1 ; |382| 
        MOV AR1, port(*AR3(T0)) ; |382| 
	.dwpsn	file "../c5535_bsl_revc/ezdsp5535_v1/c55xx_csl/src/csl_usb.c",line 385,column 2,is_stmt
        MOV #1046, T0 ; |385| 
        MOV *(#_usbRegisters), AR3 ; |385| 
        MOV port(*AR3(T0)), AR1 ; |385| 
        BCLR @#4, AR1 ; |385| 
        BSET @#4, AR1 ; |385| 
        MOV AR1, port(*AR3(T0)) ; |385| 
	.dwpsn	file "../c5535_bsl_revc/ezdsp5535_v1/c55xx_csl/src/csl_usb.c",line 389,column 2,is_stmt
        MOV #1038, T0 ; |389| 
        MOV *(#_usbRegisters), AR3 ; |389| 
        MOV port(*AR3(T0)), AR1 ; |389| 
        AND #0xfff0, AR1, AC0 ; |389| 
        MOV AC0, port(*AR3(T0)) ; |389| 
	.dwpsn	file "../c5535_bsl_revc/ezdsp5535_v1/c55xx_csl/src/csl_usb.c",line 393,column 2,is_stmt
        MOV *(#_usbRegisters), AR3 ; |393| 
        MOV port(*AR3(T0)), AR1 ; |393| 
        AND #0xfff0, AR1, AC0 ; |393| 
        BSET @#2, AC0 ; |393| 
        MOV AC0, port(*AR3(T0)) ; |393| 
	.dwpsn	file "../c5535_bsl_revc/ezdsp5535_v1/c55xx_csl/src/csl_usb.c",line 397,column 5,is_stmt
        MOV #1042, T0 ; |397| 
        MOV *(#_usbRegisters), AR3 ; |397| 
        MOV port(*AR3(T0)), AR1 ; |397| 
        BCLR @#3, AR1 ; |397| 
        BSET @#3, AR1 ; |397| 
        MOV AR1, port(*AR3(T0)) ; |397| 
	.dwpsn	file "../c5535_bsl_revc/ezdsp5535_v1/c55xx_csl/src/csl_usb.c",line 400,column 2,is_stmt
        MOV #1046, T0 ; |400| 
        MOV *(#_usbRegisters), AR3 ; |400| 
        MOV port(*AR3(T0)), AR1 ; |400| 
        BCLR @#4, AR1 ; |400| 
        BSET @#4, AR1 ; |400| 
        MOV AR1, port(*AR3(T0)) ; |400| 
	.dwpsn	file "../c5535_bsl_revc/ezdsp5535_v1/c55xx_csl/src/csl_usb.c",line 405,column 2,is_stmt
        MOV #1030, T0 ; |405| 
        MOV *(#_usbRegisters), AR3 ; |405| 
        MOV port(*AR3(T0)), AR1 ; |405| 
        BCLR @#0, AR1 ; |405| 
        BSET @#0, AR1 ; |405| 
        MOV AR1, port(*AR3(T0)) ; |405| 
	.dwpsn	file "../c5535_bsl_revc/ezdsp5535_v1/c55xx_csl/src/csl_usb.c",line 408,column 2,is_stmt
        MOV *(#_usbRegisters), AR3 ; |408| 
        MOV port(*AR3(T0)), AR1 ; |408| 
        BCLR @#1, AR1 ; |408| 
        BSET @#1, AR1 ; |408| 
        MOV AR1, port(*AR3(T0)) ; |408| 
	.dwpsn	file "../c5535_bsl_revc/ezdsp5535_v1/c55xx_csl/src/csl_usb.c",line 411,column 2,is_stmt
        MOV #1033, T0 ; |411| 
        MOV *(#_usbRegisters), AR3 ; |411| 
        MOV port(*AR3(T0)), AR1 ; |411| 
        BCLR @#2, AR1 ; |411| 
        BSET @#2, AR1 ; |411| 
        MOV AR1, port(*AR3(T0)) ; |411| 
	.dwpsn	file "../c5535_bsl_revc/ezdsp5535_v1/c55xx_csl/src/csl_usb.c",line 414,column 5,is_stmt
        MOV #1030, T0 ; |414| 
        MOV *(#_usbRegisters), AR3 ; |414| 
        MOV port(*AR3(T0)), AR1 ; |414| 
        BCLR @#3, AR1 ; |414| 
        BSET @#3, AR1 ; |414| 
        MOV AR1, port(*AR3(T0)) ; |414| 
	.dwpsn	file "../c5535_bsl_revc/ezdsp5535_v1/c55xx_csl/src/csl_usb.c",line 418,column 2,is_stmt
        MOV #1034, T0 ; |418| 
        MOV *(#_usbRegisters), AR3 ; |418| 
        OR #0x7fff, port(*AR3(T0)) ; |418| 
	.dwpsn	file "../c5535_bsl_revc/ezdsp5535_v1/c55xx_csl/src/csl_usb.c",line 419,column 2,is_stmt
        MOV #48, T0 ; |419| 
        MOV *(#_usbRegisters), AR3 ; |419| 
        MOV #65535, port(*AR3(T0)) ; |419| 
	.dwpsn	file "../c5535_bsl_revc/ezdsp5535_v1/c55xx_csl/src/csl_usb.c",line 420,column 5,is_stmt
        MOV #49, T0 ; |420| 
        MOV *(#_usbRegisters), AR3 ; |420| 
        MOV #65527, port(*AR3(T0)) ; |420| 
	.dwpsn	file "../c5535_bsl_revc/ezdsp5535_v1/c55xx_csl/src/csl_usb.c",line 423,column 2,is_stmt
        MOV #1038, T0 ; |423| 
        MOV *(#_usbRegisters), AR3 ; |423| 
        MOV *SP(#2), AR1 ; |423| 
        MOV AR1, port(*AR3(T0)) ; |423| 
	.dwpsn	file "../c5535_bsl_revc/ezdsp5535_v1/c55xx_csl/src/csl_usb.c",line 425,column 5,is_stmt
        MOV *SP(#1), T0 ; |425| 
$C$L32:    
	.dwpsn	file "../c5535_bsl_revc/ezdsp5535_v1/c55xx_csl/src/csl_usb.c",line 426,column 1,is_stmt
        AADD #7, SP
	.dwcfi	cfa_offset, 1
$C$DW$80	.dwtag  DW_TAG_TI_branch
	.dwattr $C$DW$80, DW_AT_low_pc(0x00)
	.dwattr $C$DW$80, DW_AT_TI_return
        RET
                                        ; return occurs
	.dwattr $C$DW$74, DW_AT_TI_end_file("../c5535_bsl_revc/ezdsp5535_v1/c55xx_csl/src/csl_usb.c")
	.dwattr $C$DW$74, DW_AT_TI_end_line(0x1aa)
	.dwattr $C$DW$74, DW_AT_TI_end_column(0x01)
	.dwendentry
	.dwendtag $C$DW$74

	.sect	".text"
	.align 4
	.global	_USB_initEndptObj

$C$DW$81	.dwtag  DW_TAG_subprogram, DW_AT_name("USB_initEndptObj")
	.dwattr $C$DW$81, DW_AT_low_pc(_USB_initEndptObj)
	.dwattr $C$DW$81, DW_AT_high_pc(0x00)
	.dwattr $C$DW$81, DW_AT_TI_symbol_name("_USB_initEndptObj")
	.dwattr $C$DW$81, DW_AT_external
	.dwattr $C$DW$81, DW_AT_type(*$C$DW$T$75)
	.dwattr $C$DW$81, DW_AT_TI_begin_file("../c5535_bsl_revc/ezdsp5535_v1/c55xx_csl/src/csl_usb.c")
	.dwattr $C$DW$81, DW_AT_TI_begin_line(0x1e6)
	.dwattr $C$DW$81, DW_AT_TI_begin_column(0x0c)
	.dwattr $C$DW$81, DW_AT_TI_max_frame_size(0x16)
	.dwpsn	file "../c5535_bsl_revc/ezdsp5535_v1/c55xx_csl/src/csl_usb.c",line 493,column 1,is_stmt,address _USB_initEndptObj

	.dwfde $C$DW$CIE, _USB_initEndptObj
$C$DW$82	.dwtag  DW_TAG_formal_parameter, DW_AT_name("devNum")
	.dwattr $C$DW$82, DW_AT_TI_symbol_name("_devNum")
	.dwattr $C$DW$82, DW_AT_type(*$C$DW$T$68)
	.dwattr $C$DW$82, DW_AT_location[DW_OP_reg12]
$C$DW$83	.dwtag  DW_TAG_formal_parameter, DW_AT_name("hEp")
	.dwattr $C$DW$83, DW_AT_TI_symbol_name("_hEp")
	.dwattr $C$DW$83, DW_AT_type(*$C$DW$T$102)
	.dwattr $C$DW$83, DW_AT_location[DW_OP_reg17]
$C$DW$84	.dwtag  DW_TAG_formal_parameter, DW_AT_name("epNum")
	.dwattr $C$DW$84, DW_AT_TI_symbol_name("_epNum")
	.dwattr $C$DW$84, DW_AT_type(*$C$DW$T$108)
	.dwattr $C$DW$84, DW_AT_location[DW_OP_reg13]
$C$DW$85	.dwtag  DW_TAG_formal_parameter, DW_AT_name("xferType")
	.dwattr $C$DW$85, DW_AT_TI_symbol_name("_xferType")
	.dwattr $C$DW$85, DW_AT_type(*$C$DW$T$110)
	.dwattr $C$DW$85, DW_AT_location[DW_OP_reg18]
$C$DW$86	.dwtag  DW_TAG_formal_parameter, DW_AT_name("maxPktSize")
	.dwattr $C$DW$86, DW_AT_TI_symbol_name("_maxPktSize")
	.dwattr $C$DW$86, DW_AT_type(*$C$DW$T$19)
	.dwattr $C$DW$86, DW_AT_location[DW_OP_reg20]
$C$DW$87	.dwtag  DW_TAG_formal_parameter, DW_AT_name("evMask")
	.dwattr $C$DW$87, DW_AT_TI_symbol_name("_evMask")
	.dwattr $C$DW$87, DW_AT_type(*$C$DW$T$19)
	.dwattr $C$DW$87, DW_AT_location[DW_OP_reg22]
$C$DW$88	.dwtag  DW_TAG_formal_parameter, DW_AT_name("fxn")
	.dwattr $C$DW$88, DW_AT_TI_symbol_name("_fxn")
	.dwattr $C$DW$88, DW_AT_type(*$C$DW$T$113)
	.dwattr $C$DW$88, DW_AT_location[DW_OP_reg1]
;*******************************************************************************
;* FUNCTION NAME: USB_initEndptObj                                             *
;*                                                                             *
;*   Function Uses Regs : AC0,AC0,AC1,AC1,T0,T1,AR0,XAR0,AR1,AR2,AR3,XAR3,SP,  *
;*                        CARRY,TC1,M40,SATA,SATD,RDM,FRCT,SMUL                *
;*   Stack Frame        : Compact (No Frame Pointer, w/ debug)                 *
;*   Total Frame Size   : 22 words                                             *
;*                        (2 return address/alignment)                         *
;*                        (20 local values)                                    *
;*   Min System Stack   : 1 word                                               *
;*******************************************************************************
_USB_initEndptObj:
	.dwcfi	cfa_offset, 1
	.dwcfi	save_reg_to_mem, 91, -1
        AADD #-21, SP
	.dwcfi	cfa_offset, 22
$C$DW$89	.dwtag  DW_TAG_variable, DW_AT_name("devNum")
	.dwattr $C$DW$89, DW_AT_TI_symbol_name("_devNum")
	.dwattr $C$DW$89, DW_AT_type(*$C$DW$T$68)
	.dwattr $C$DW$89, DW_AT_location[DW_OP_bregx 0x24 0]
$C$DW$90	.dwtag  DW_TAG_variable, DW_AT_name("hEp")
	.dwattr $C$DW$90, DW_AT_TI_symbol_name("_hEp")
	.dwattr $C$DW$90, DW_AT_type(*$C$DW$T$102)
	.dwattr $C$DW$90, DW_AT_location[DW_OP_bregx 0x24 2]
$C$DW$91	.dwtag  DW_TAG_variable, DW_AT_name("epNum")
	.dwattr $C$DW$91, DW_AT_TI_symbol_name("_epNum")
	.dwattr $C$DW$91, DW_AT_type(*$C$DW$T$108)
	.dwattr $C$DW$91, DW_AT_location[DW_OP_bregx 0x24 4]
$C$DW$92	.dwtag  DW_TAG_variable, DW_AT_name("xferType")
	.dwattr $C$DW$92, DW_AT_TI_symbol_name("_xferType")
	.dwattr $C$DW$92, DW_AT_type(*$C$DW$T$110)
	.dwattr $C$DW$92, DW_AT_location[DW_OP_bregx 0x24 5]
$C$DW$93	.dwtag  DW_TAG_variable, DW_AT_name("maxPktSize")
	.dwattr $C$DW$93, DW_AT_TI_symbol_name("_maxPktSize")
	.dwattr $C$DW$93, DW_AT_type(*$C$DW$T$19)
	.dwattr $C$DW$93, DW_AT_location[DW_OP_bregx 0x24 6]
$C$DW$94	.dwtag  DW_TAG_variable, DW_AT_name("evMask")
	.dwattr $C$DW$94, DW_AT_TI_symbol_name("_evMask")
	.dwattr $C$DW$94, DW_AT_type(*$C$DW$T$19)
	.dwattr $C$DW$94, DW_AT_location[DW_OP_bregx 0x24 7]
$C$DW$95	.dwtag  DW_TAG_variable, DW_AT_name("fxn")
	.dwattr $C$DW$95, DW_AT_TI_symbol_name("_fxn")
	.dwattr $C$DW$95, DW_AT_type(*$C$DW$T$113)
	.dwattr $C$DW$95, DW_AT_location[DW_OP_bregx 0x24 8]
$C$DW$96	.dwtag  DW_TAG_variable, DW_AT_name("peps")
	.dwattr $C$DW$96, DW_AT_TI_symbol_name("_peps")
	.dwattr $C$DW$96, DW_AT_type(*$C$DW$T$147)
	.dwattr $C$DW$96, DW_AT_location[DW_OP_bregx 0x24 10]
$C$DW$97	.dwtag  DW_TAG_variable, DW_AT_name("status")
	.dwattr $C$DW$97, DW_AT_TI_symbol_name("_status")
	.dwattr $C$DW$97, DW_AT_type(*$C$DW$T$75)
	.dwattr $C$DW$97, DW_AT_location[DW_OP_bregx 0x24 12]
$C$DW$98	.dwtag  DW_TAG_variable, DW_AT_name("pContext")
	.dwattr $C$DW$98, DW_AT_TI_symbol_name("_pContext")
	.dwattr $C$DW$98, DW_AT_type(*$C$DW$T$142)
	.dwattr $C$DW$98, DW_AT_location[DW_OP_bregx 0x24 14]
$C$DW$99	.dwtag  DW_TAG_variable, DW_AT_name("fifoSize")
	.dwattr $C$DW$99, DW_AT_TI_symbol_name("_fifoSize")
	.dwattr $C$DW$99, DW_AT_type(*$C$DW$T$19)
	.dwattr $C$DW$99, DW_AT_location[DW_OP_bregx 0x24 16]
$C$DW$100	.dwtag  DW_TAG_variable, DW_AT_name("saveIndex")
	.dwattr $C$DW$100, DW_AT_TI_symbol_name("_saveIndex")
	.dwattr $C$DW$100, DW_AT_type(*$C$DW$T$19)
	.dwattr $C$DW$100, DW_AT_location[DW_OP_bregx 0x24 17]
$C$DW$101	.dwtag  DW_TAG_variable, DW_AT_name("dwEndpoint")
	.dwattr $C$DW$101, DW_AT_TI_symbol_name("_dwEndpoint")
	.dwattr $C$DW$101, DW_AT_type(*$C$DW$T$84)
	.dwattr $C$DW$101, DW_AT_location[DW_OP_bregx 0x24 18]
        MOV AC0, dbl(*SP(#8)) ; |493| 
        MOV AR3, *SP(#7) ; |493| 
        MOV AR2, *SP(#6) ; |493| 
        MOV AR1, *SP(#5) ; |493| 
        MOV T1, *SP(#4) ; |493| 
        MOV XAR0, dbl(*SP(#2))
        MOV T0, *SP(#0) ; |493| 
	.dwpsn	file "../c5535_bsl_revc/ezdsp5535_v1/c55xx_csl/src/csl_usb.c",line 501,column 2,is_stmt
        MOV #0, AC0 ; |501| 
        MOV AC0, dbl(*SP(#10))
	.dwpsn	file "../c5535_bsl_revc/ezdsp5535_v1/c55xx_csl/src/csl_usb.c",line 502,column 2,is_stmt
        MOV #0, *SP(#12) ; |502| 
	.dwpsn	file "../c5535_bsl_revc/ezdsp5535_v1/c55xx_csl/src/csl_usb.c",line 503,column 2,is_stmt
        AMOV #_gUsbContext, XAR3 ; |503| 
        MOV XAR3, dbl(*SP(#14))
	.dwpsn	file "../c5535_bsl_revc/ezdsp5535_v1/c55xx_csl/src/csl_usb.c",line 505,column 2,is_stmt
        MOV dbl(*SP(#2)), XAR3
        MOV XAR3, AC0
        BCC $C$L52,AC0 == #0 ; |505| 
                                        ; branchcc occurs ; |505| 
	.dwpsn	file "../c5535_bsl_revc/ezdsp5535_v1/c55xx_csl/src/csl_usb.c",line 507,column 3,is_stmt
        MOV *SP(#4), AR1 ; |507| 

        MOV AR1, AC0
||      MOV #7, AR2

        SFTS AC0, #-2, AC0 ; |507| 
||      NOT AR2, AR2 ; |507| 

        BFXTR #0xe000, AC0, AR3 ; |507| 
        ADD AR1, AR3 ; |507| 
        AND AR3, AR2 ; |507| 
        SUB AR2, AR1 ; |507| 
        MOV AR1, AC0
        MOV AC0, dbl(*SP(#18)) ; |507| 
	.dwpsn	file "../c5535_bsl_revc/ezdsp5535_v1/c55xx_csl/src/csl_usb.c",line 509,column 3,is_stmt
        B $C$L51  ; |509| 
                                        ; branch occurs ; |509| 
$C$L33:    
	.dwpsn	file "../c5535_bsl_revc/ezdsp5535_v1/c55xx_csl/src/csl_usb.c",line 513,column 5,is_stmt
        MOV dbl(*SP(#2)), XAR3
        MOV *SP(#4), AR1 ; |513| 
        MOV AR1, *AR3 ; |513| 
	.dwpsn	file "../c5535_bsl_revc/ezdsp5535_v1/c55xx_csl/src/csl_usb.c",line 514,column 5,is_stmt
        MOV dbl(*SP(#2)), XAR3
        MOV *SP(#5), AR1 ; |514| 
        MOV AR1, *AR3(short(#1)) ; |514| 
	.dwpsn	file "../c5535_bsl_revc/ezdsp5535_v1/c55xx_csl/src/csl_usb.c",line 515,column 5,is_stmt
        MOV dbl(*SP(#2)), XAR3
        MOV *SP(#6), AR1 ; |515| 
        MOV AR1, *AR3(short(#2)) ; |515| 
	.dwpsn	file "../c5535_bsl_revc/ezdsp5535_v1/c55xx_csl/src/csl_usb.c",line 516,column 5,is_stmt
        MOV dbl(*SP(#2)), XAR3
        MOV *SP(#7), AR1 ; |516| 
        MOV AR1, *AR3(short(#3)) ; |516| 
	.dwpsn	file "../c5535_bsl_revc/ezdsp5535_v1/c55xx_csl/src/csl_usb.c",line 517,column 5,is_stmt
        MOV dbl(*SP(#2)), XAR3
        MOV dbl(*SP(#8)), AC0 ; |517| 
        MOV AC0, dbl(*AR3(short(#4))) ; |517| 
	.dwpsn	file "../c5535_bsl_revc/ezdsp5535_v1/c55xx_csl/src/csl_usb.c",line 521,column 5,is_stmt
        MOV *SP(#6), T0 ; |521| 
        MOV *SP(#5), T1 ; |521| 
$C$DW$102	.dwtag  DW_TAG_TI_branch
	.dwattr $C$DW$102, DW_AT_low_pc(0x00)
	.dwattr $C$DW$102, DW_AT_name("_USB_findFifoSize")
	.dwattr $C$DW$102, DW_AT_TI_call
        CALL #_USB_findFifoSize ; |521| 
                                        ; call occurs [#_USB_findFifoSize] ; |521| 
        MOV T0, *SP(#16) ; |521| 
	.dwpsn	file "../c5535_bsl_revc/ezdsp5535_v1/c55xx_csl/src/csl_usb.c",line 523,column 5,is_stmt
        MOV T0, AR1
        BCC $C$L34,AR1 != #0 ; |523| 
                                        ; branchcc occurs ; |523| 
	.dwpsn	file "../c5535_bsl_revc/ezdsp5535_v1/c55xx_csl/src/csl_usb.c",line 524,column 6,is_stmt
        MOV #-6, T0
        B $C$L54  ; |524| 
                                        ; branch occurs ; |524| 
$C$L34:    
	.dwpsn	file "../c5535_bsl_revc/ezdsp5535_v1/c55xx_csl/src/csl_usb.c",line 526,column 5,is_stmt
        MOV dbl(*SP(#2)), XAR3
        MOV *AR3, AR1 ; |526| 

        MOV AR1, AC0
||      MOV #7, AR2

        SFTS AC0, #-2, AC0 ; |526| 
||      NOT AR2, AR2 ; |526| 

        BFXTR #0xe000, AC0, AR3 ; |526| 
        ADD AR1, AR3 ; |526| 
        AND AR3, AR2 ; |526| 
        MOV dbl(*SP(#14)), XAR3
        MOV AR1, HI(AC0)
        MOV HI(AC0), AR1
        MOV dbl(*AR3(#98)), XAR3
        SUB AR2, AR1 ; |526| 
        MOV AR1, HI(AC0)
        MPYK #18, AC0, AC0 ; |526| 
        MOV AC0, AR1 ; |526| 

        MOV XAR3, dbl(*SP(#10))
||      AADD AR1, AR3 ; |526| 

	.dwpsn	file "../c5535_bsl_revc/ezdsp5535_v1/c55xx_csl/src/csl_usb.c",line 528,column 5,is_stmt
        MOV XAR3, AC0
        BCC $C$L35,AC0 == #0 ; |528| 
                                        ; branchcc occurs ; |528| 
	.dwpsn	file "../c5535_bsl_revc/ezdsp5535_v1/c55xx_csl/src/csl_usb.c",line 530,column 6,is_stmt
        MOV dbl(*SP(#8)), AC0 ; |530| 
        MOV AC0, dbl(*AR3(#14)) ; |530| 
	.dwpsn	file "../c5535_bsl_revc/ezdsp5535_v1/c55xx_csl/src/csl_usb.c",line 531,column 6,is_stmt
        MOV dbl(*SP(#10)), XAR3
        MOV #1, *AR3(#17) ; |531| 
	.dwpsn	file "../c5535_bsl_revc/ezdsp5535_v1/c55xx_csl/src/csl_usb.c",line 532,column 6,is_stmt
        MOV dbl(*SP(#10)), XAR3
        MOV *SP(#5), AR1 ; |532| 
        MOV AR1, *AR3(short(#2)) ; |532| 
	.dwpsn	file "../c5535_bsl_revc/ezdsp5535_v1/c55xx_csl/src/csl_usb.c",line 533,column 6,is_stmt
        MOV dbl(*SP(#10)), XAR3
        MOV #0, *AR3(#13) ; |533| 
$C$L35:    
	.dwpsn	file "../c5535_bsl_revc/ezdsp5535_v1/c55xx_csl/src/csl_usb.c",line 536,column 5,is_stmt
        MOV dbl(*SP(#18)), AC0 ; |536| 
        BCC $C$L36,AC0 != #0 ; |536| 
                                        ; branchcc occurs ; |536| 
	.dwpsn	file "../c5535_bsl_revc/ezdsp5535_v1/c55xx_csl/src/csl_usb.c",line 538,column 6,is_stmt
        MOV *SP(#12), T0 ; |538| 
        B $C$L54  ; |538| 
                                        ; branch occurs ; |538| 
$C$L36:    
	.dwpsn	file "../c5535_bsl_revc/ezdsp5535_v1/c55xx_csl/src/csl_usb.c",line 542,column 5,is_stmt
        MOV #1038, T0 ; |542| 
        MOV *(#_usbRegisters), AR3 ; |542| 
        MOV port(*AR3(T0)), AR1 ; |542| 
        MOV AR1, *SP(#17) ; |542| 
	.dwpsn	file "../c5535_bsl_revc/ezdsp5535_v1/c55xx_csl/src/csl_usb.c",line 544,column 5,is_stmt
        MOV port(*AR3(T0)), AR1 ; |544| 
        AND #0xfff0, AR1, AC0 ; |544| 
        MOV AC0, port(*AR3(T0)) ; |544| 
	.dwpsn	file "../c5535_bsl_revc/ezdsp5535_v1/c55xx_csl/src/csl_usb.c",line 548,column 5,is_stmt
        MOV *(#_usbRegisters), AR3 ; |548| 
        MOV dbl(*SP(#18)), AC0 ; |548| 
        AND #0x000f, AC0, AC0 ; |548| 
        MOV port(*AR3(T0)), AR1 ; |548| 
        AND #0xfff0, AR1, AC1 ; |548| 
        OR AC1, AC0 ; |548| 
        MOV AC0, port(*AR3(T0)) ; |548| 
	.dwpsn	file "../c5535_bsl_revc/ezdsp5535_v1/c55xx_csl/src/csl_usb.c",line 551,column 5,is_stmt
        B $C$L48  ; |551| 
                                        ; branch occurs ; |551| 
$C$L37:    
	.dwpsn	file "../c5535_bsl_revc/ezdsp5535_v1/c55xx_csl/src/csl_usb.c",line 558,column 7,is_stmt
        MOV #1122, T0 ; |558| 
        MOV *(#_usbRegisters), AR3 ; |558| 
        MOV port(*AR3(T0)), AR1 ; |558| 
        AND #0xfff0, AR1, AC0 ; |558| 
        MOV AC0, port(*AR3(T0)) ; |558| 
	.dwpsn	file "../c5535_bsl_revc/ezdsp5535_v1/c55xx_csl/src/csl_usb.c",line 562,column 7,is_stmt
        MOV *(#_usbRegisters), AR3 ; |562| 
        MOV port(*AR3(T0)), AR1 ; |562| 
        AND #0xfff0, AR1, AR2 ; |562| 
        MOV *SP(#16), AR1 ; |562| 
        AND #0x000f, AR1, AR1 ; |562| 
        OR AR2, AR1 ; |562| 
        MOV AR1, port(*AR3(T0)) ; |562| 
	.dwpsn	file "../c5535_bsl_revc/ezdsp5535_v1/c55xx_csl/src/csl_usb.c",line 565,column 7,is_stmt
        MOV *(#_usbRegisters), AR3 ; |565| 
        MOV port(*AR3(T0)), AR1 ; |565| 
        BCLR @#4, AR1 ; |565| 
        MOV AR1, port(*AR3(T0)) ; |565| 
	.dwpsn	file "../c5535_bsl_revc/ezdsp5535_v1/c55xx_csl/src/csl_usb.c",line 569,column 7,is_stmt
        MOV dbl(*SP(#14)), XAR3

        MOV *SP(#16), T1 ; |569| 
||      MOV #1, AC0

        SFTS AC0, T1, AC0 ; |569| 
||      MOV #512, AR2 ; |569| 

        ADD *AR3(#118), AC0, AR1 ; |569| 
        CMPU AR1 > AR2, TC1 ; |569| 
        BCC $C$L38,TC1 ; |569| 
                                        ; branchcc occurs ; |569| 
	.dwpsn	file "../c5535_bsl_revc/ezdsp5535_v1/c55xx_csl/src/csl_usb.c",line 572,column 7,is_stmt
        MOV #1125, T0 ; |572| 
        MOV *(#_usbRegisters), AR3 ; |572| 
        MOV port(*AR3(T0)), AR1 ; |572| 
        MOV dbl(*SP(#14)), XAR3
        AND #0xe000, AR1, AR2 ; |572| 
        MOV *AR3(#118), AR1 ; |572| 
        MOV *(#_usbRegisters), AR3 ; |572| 
        AND #0x1fff, AR1, AR1 ; |572| 
        OR AR2, AR1 ; |572| 
        MOV AR1, port(*AR3(T0)) ; |572| 
	.dwpsn	file "../c5535_bsl_revc/ezdsp5535_v1/c55xx_csl/src/csl_usb.c",line 575,column 7,is_stmt
        MOV dbl(*SP(#14)), XAR3

        MOV *SP(#16), T1 ; |575| 
||      MOV #1, AC0

        SFTS AC0, T1, AC0 ; |575| 
        ADD *AR3(#118), AC0, AR1 ; |575| 
        MOV AR1, *AR3(#118) ; |575| 
	.dwpsn	file "../c5535_bsl_revc/ezdsp5535_v1/c55xx_csl/src/csl_usb.c",line 576,column 7,is_stmt
        B $C$L39  ; |576| 
                                        ; branch occurs ; |576| 
$C$L38:    
	.dwpsn	file "../c5535_bsl_revc/ezdsp5535_v1/c55xx_csl/src/csl_usb.c",line 579,column 8,is_stmt
        MOV #-6, T0
        B $C$L54  ; |579| 
                                        ; branch occurs ; |579| 
$C$L39:    
	.dwpsn	file "../c5535_bsl_revc/ezdsp5535_v1/c55xx_csl/src/csl_usb.c",line 583,column 7,is_stmt
        MOV #1041, T0 ; |583| 
        MOV *(#_usbRegisters), AR3 ; |583| 
        MOV port(*AR3(T0)), AR1 ; |583| 
        AND #0xf800, AR1, AR2 ; |583| 
        MOV *SP(#6), AR1 ; |583| 
        AND #0x07ff, AR1, AR1 ; |583| 
        OR AR2, AR1 ; |583| 
        MOV AR1, port(*AR3(T0)) ; |583| 
	.dwpsn	file "../c5535_bsl_revc/ezdsp5535_v1/c55xx_csl/src/csl_usb.c",line 588,column 7,is_stmt
        MOV #1042, T0 ; |588| 
        MOV *(#_usbRegisters), AR3 ; |588| 
        MOV port(*AR3(T0)), AR1 ; |588| 
        BCLR @#15, AR1 ; |588| 
        MOV AR1, port(*AR3(T0)) ; |588| 
	.dwpsn	file "../c5535_bsl_revc/ezdsp5535_v1/c55xx_csl/src/csl_usb.c",line 591,column 7,is_stmt
        MOV *(#_usbRegisters), AR3 ; |591| 
        MOV port(*AR3(T0)), AR1 ; |591| 
        BCLR @#14, AR1 ; |591| 
        MOV AR1, port(*AR3(T0)) ; |591| 
	.dwpsn	file "../c5535_bsl_revc/ezdsp5535_v1/c55xx_csl/src/csl_usb.c",line 594,column 7,is_stmt
        MOV *(#_usbRegisters), AR3 ; |594| 
        MOV port(*AR3(T0)), AR1 ; |594| 
        BCLR @#12, AR1 ; |594| 
        MOV AR1, port(*AR3(T0)) ; |594| 
	.dwpsn	file "../c5535_bsl_revc/ezdsp5535_v1/c55xx_csl/src/csl_usb.c",line 597,column 7,is_stmt
        MOV *(#_usbRegisters), AR3 ; |597| 
        MOV port(*AR3(T0)), AR1 ; |597| 
        BCLR @#11, AR1 ; |597| 
        MOV AR1, port(*AR3(T0)) ; |597| 
	.dwpsn	file "../c5535_bsl_revc/ezdsp5535_v1/c55xx_csl/src/csl_usb.c",line 601,column 7,is_stmt
        CMP *SP(#5) == #3, TC1 ; |601| 
        BCC $C$L49,!TC1 ; |601| 
                                        ; branchcc occurs ; |601| 
	.dwpsn	file "../c5535_bsl_revc/ezdsp5535_v1/c55xx_csl/src/csl_usb.c",line 603,column 8,is_stmt
        MOV dbl(*SP(#14)), XAR3

        MOV *SP(#16), T1 ; |603| 
||      MOV #1, AC0

        SFTS AC0, T1, AC0 ; |603| 
||      MOV #512, AR2 ; |603| 

        ADD *AR3(#118), AC0, AR1 ; |603| 
        CMPU AR1 > AR2, TC1 ; |603| 
        BCC $C$L40,TC1 ; |603| 
                                        ; branchcc occurs ; |603| 
	.dwpsn	file "../c5535_bsl_revc/ezdsp5535_v1/c55xx_csl/src/csl_usb.c",line 606,column 9,is_stmt
        MOV #1, AC0
        SFTS AC0, T1, AC0 ; |606| 
        ADD *AR3(#118), AC0, AR1 ; |606| 
        MOV AR1, *AR3(#118) ; |606| 
	.dwpsn	file "../c5535_bsl_revc/ezdsp5535_v1/c55xx_csl/src/csl_usb.c",line 607,column 8,is_stmt
        B $C$L41  ; |607| 
                                        ; branch occurs ; |607| 
$C$L40:    
	.dwpsn	file "../c5535_bsl_revc/ezdsp5535_v1/c55xx_csl/src/csl_usb.c",line 610,column 9,is_stmt
        MOV #-6, T0
        B $C$L54  ; |610| 
                                        ; branch occurs ; |610| 
$C$L41:    
	.dwpsn	file "../c5535_bsl_revc/ezdsp5535_v1/c55xx_csl/src/csl_usb.c",line 614,column 8,is_stmt
        MOV #1025, T0 ; |614| 
        MOV *(#_usbRegisters), AR3 ; |614| 
        MOV port(*AR3(T0)), AR1 ; |614| 
        BCLR @#15, AR1 ; |614| 
        BSET @#15, AR1 ; |614| 
        MOV AR1, port(*AR3(T0)) ; |614| 
	.dwpsn	file "../c5535_bsl_revc/ezdsp5535_v1/c55xx_csl/src/csl_usb.c",line 618,column 8,is_stmt
        MOV #1042, T0 ; |618| 
        MOV *(#_usbRegisters), AR3 ; |618| 
        MOV port(*AR3(T0)), AR1 ; |618| 
        BCLR @#14, AR1 ; |618| 
        BSET @#14, AR1 ; |618| 
        MOV AR1, port(*AR3(T0)) ; |618| 
	.dwpsn	file "../c5535_bsl_revc/ezdsp5535_v1/c55xx_csl/src/csl_usb.c",line 622,column 8,is_stmt
        MOV #1122, T0 ; |622| 
        MOV *(#_usbRegisters), AR3 ; |622| 
        MOV port(*AR3(T0)), AR1 ; |622| 
        BCLR @#4, AR1 ; |622| 
        BSET @#4, AR1 ; |622| 
        MOV AR1, port(*AR3(T0)) ; |622| 
	.dwpsn	file "../c5535_bsl_revc/ezdsp5535_v1/c55xx_csl/src/csl_usb.c",line 625,column 12,is_stmt
        B $C$L49  ; |625| 
                                        ; branch occurs ; |625| 
$C$L42:    
	.dwpsn	file "../c5535_bsl_revc/ezdsp5535_v1/c55xx_csl/src/csl_usb.c",line 633,column 7,is_stmt
        MOV #1122, T0 ; |633| 
        MOV *(#_usbRegisters), AR3 ; |633| 
        MOV port(*AR3(T0)), AR1 ; |633| 
        AND #0xf0ff, AR1, AC0 ; |633| 
        MOV AC0, port(*AR3(T0)) ; |633| 
	.dwpsn	file "../c5535_bsl_revc/ezdsp5535_v1/c55xx_csl/src/csl_usb.c",line 637,column 7,is_stmt
        MOV *(#_usbRegisters), AR3 ; |637| 
        MOV *SP(#16), AC0 ; |637| 
        MOV port(*AR3(T0)), AR1 ; |637| 

        AND #0xf0ff, AR1, AR2 ; |637| 
||      SFTL AC0, #8, AC0 ; |637| 

        AND #0x0f00, AC0, AR1 ; |637| 
        OR AR2, AR1 ; |637| 
        MOV AR1, port(*AR3(T0)) ; |637| 
	.dwpsn	file "../c5535_bsl_revc/ezdsp5535_v1/c55xx_csl/src/csl_usb.c",line 641,column 7,is_stmt
        MOV dbl(*SP(#14)), XAR3

        MOV #1, AC0
||      MOV *SP(#16), T1 ; |641| 

        SFTS AC0, T1, AC0 ; |641| 
||      MOV #512, AR2 ; |641| 

        ADD *AR3(#118), AC0, AR1 ; |641| 
        CMPU AR1 > AR2, TC1 ; |641| 
        BCC $C$L43,TC1 ; |641| 
                                        ; branchcc occurs ; |641| 
	.dwpsn	file "../c5535_bsl_revc/ezdsp5535_v1/c55xx_csl/src/csl_usb.c",line 644,column 7,is_stmt
        MOV #1126, T0 ; |644| 
        MOV *(#_usbRegisters), AR3 ; |644| 
        MOV port(*AR3(T0)), AR1 ; |644| 
        MOV dbl(*SP(#14)), XAR3
        AND #0xe000, AR1, AR2 ; |644| 
        MOV *AR3(#118), AR1 ; |644| 
        MOV *(#_usbRegisters), AR3 ; |644| 
        AND #0x1fff, AR1, AR1 ; |644| 
        OR AR2, AR1 ; |644| 
        MOV AR1, port(*AR3(T0)) ; |644| 
	.dwpsn	file "../c5535_bsl_revc/ezdsp5535_v1/c55xx_csl/src/csl_usb.c",line 647,column 7,is_stmt
        MOV dbl(*SP(#14)), XAR3

        MOV *SP(#16), T1 ; |647| 
||      MOV #1, AC0

        SFTS AC0, T1, AC0 ; |647| 
        ADD *AR3(#118), AC0, AR1 ; |647| 
        MOV AR1, *AR3(#118) ; |647| 
	.dwpsn	file "../c5535_bsl_revc/ezdsp5535_v1/c55xx_csl/src/csl_usb.c",line 648,column 7,is_stmt
        B $C$L44  ; |648| 
                                        ; branch occurs ; |648| 
$C$L43:    
	.dwpsn	file "../c5535_bsl_revc/ezdsp5535_v1/c55xx_csl/src/csl_usb.c",line 651,column 8,is_stmt
        MOV #-6, T0
        B $C$L54  ; |651| 
                                        ; branch occurs ; |651| 
$C$L44:    
	.dwpsn	file "../c5535_bsl_revc/ezdsp5535_v1/c55xx_csl/src/csl_usb.c",line 655,column 7,is_stmt
        MOV #1045, T0 ; |655| 
        MOV *(#_usbRegisters), AR3 ; |655| 
        MOV port(*AR3(T0)), AR1 ; |655| 
        AND #0xf800, AR1, AR2 ; |655| 
        MOV *SP(#6), AR1 ; |655| 
        AND #0x07ff, AR1, AR1 ; |655| 
        OR AR2, AR1 ; |655| 
        MOV AR1, port(*AR3(T0)) ; |655| 
	.dwpsn	file "../c5535_bsl_revc/ezdsp5535_v1/c55xx_csl/src/csl_usb.c",line 660,column 7,is_stmt
        MOV #1046, T0 ; |660| 
        MOV *(#_usbRegisters), AR3 ; |660| 
        MOV port(*AR3(T0)), AR1 ; |660| 
        BCLR @#15, AR1 ; |660| 
        MOV AR1, port(*AR3(T0)) ; |660| 
	.dwpsn	file "../c5535_bsl_revc/ezdsp5535_v1/c55xx_csl/src/csl_usb.c",line 663,column 7,is_stmt
        MOV *(#_usbRegisters), AR3 ; |663| 
        MOV port(*AR3(T0)), AR1 ; |663| 
        BCLR @#14, AR1 ; |663| 
        MOV AR1, port(*AR3(T0)) ; |663| 
	.dwpsn	file "../c5535_bsl_revc/ezdsp5535_v1/c55xx_csl/src/csl_usb.c",line 666,column 7,is_stmt
        MOV *(#_usbRegisters), AR3 ; |666| 
        MOV port(*AR3(T0)), AR1 ; |666| 
        BCLR @#13, AR1 ; |666| 
        MOV AR1, port(*AR3(T0)) ; |666| 
	.dwpsn	file "../c5535_bsl_revc/ezdsp5535_v1/c55xx_csl/src/csl_usb.c",line 669,column 7,is_stmt
        MOV *(#_usbRegisters), AR3 ; |669| 
        MOV port(*AR3(T0)), AR1 ; |669| 
        BCLR @#12, AR1 ; |669| 
        MOV AR1, port(*AR3(T0)) ; |669| 
	.dwpsn	file "../c5535_bsl_revc/ezdsp5535_v1/c55xx_csl/src/csl_usb.c",line 673,column 7,is_stmt
        CMP *SP(#5) == #3, TC1 ; |673| 
        BCC $C$L49,!TC1 ; |673| 
                                        ; branchcc occurs ; |673| 
	.dwpsn	file "../c5535_bsl_revc/ezdsp5535_v1/c55xx_csl/src/csl_usb.c",line 676,column 8,is_stmt
        MOV dbl(*SP(#14)), XAR3

        MOV *SP(#16), T1 ; |676| 
||      MOV #1, AC0

        SFTS AC0, T1, AC0 ; |676| 
||      MOV #512, AR2 ; |676| 

        ADD *AR3(#118), AC0, AR1 ; |676| 
        CMPU AR1 > AR2, TC1 ; |676| 
        BCC $C$L45,TC1 ; |676| 
                                        ; branchcc occurs ; |676| 
	.dwpsn	file "../c5535_bsl_revc/ezdsp5535_v1/c55xx_csl/src/csl_usb.c",line 679,column 9,is_stmt
        MOV #1, AC0
        SFTS AC0, T1, AC0 ; |679| 
        ADD *AR3(#118), AC0, AR1 ; |679| 
        MOV AR1, *AR3(#118) ; |679| 
	.dwpsn	file "../c5535_bsl_revc/ezdsp5535_v1/c55xx_csl/src/csl_usb.c",line 680,column 8,is_stmt
        B $C$L46  ; |680| 
                                        ; branch occurs ; |680| 
$C$L45:    
	.dwpsn	file "../c5535_bsl_revc/ezdsp5535_v1/c55xx_csl/src/csl_usb.c",line 683,column 9,is_stmt
        MOV #-6, T0
        B $C$L54  ; |683| 
                                        ; branch occurs ; |683| 
$C$L46:    
	.dwpsn	file "../c5535_bsl_revc/ezdsp5535_v1/c55xx_csl/src/csl_usb.c",line 686,column 8,is_stmt
        MOV *(#_usbRegisters), AR3 ; |686| 
        MOV port(*AR3(T0)), AR1 ; |686| 
        BCLR @#14, AR1 ; |686| 
        BSET @#14, AR1 ; |686| 
        MOV AR1, port(*AR3(T0)) ; |686| 
	.dwpsn	file "../c5535_bsl_revc/ezdsp5535_v1/c55xx_csl/src/csl_usb.c",line 690,column 8,is_stmt
        MOV #1122, T0 ; |690| 
        MOV *(#_usbRegisters), AR3 ; |690| 
        MOV port(*AR3(T0)), AR1 ; |690| 
        BCLR @#12, AR1 ; |690| 
        BSET @#12, AR1 ; |690| 
        MOV AR1, port(*AR3(T0)) ; |690| 
	.dwpsn	file "../c5535_bsl_revc/ezdsp5535_v1/c55xx_csl/src/csl_usb.c",line 694,column 12,is_stmt
        B $C$L49  ; |694| 
                                        ; branch occurs ; |694| 
$C$L47:    
	.dwpsn	file "../c5535_bsl_revc/ezdsp5535_v1/c55xx_csl/src/csl_usb.c",line 700,column 7,is_stmt
        MOV #-6, *SP(#12) ; |700| 
	.dwpsn	file "../c5535_bsl_revc/ezdsp5535_v1/c55xx_csl/src/csl_usb.c",line 701,column 12,is_stmt
        B $C$L49  ; |701| 
                                        ; branch occurs ; |701| 
$C$L48:    
	.dwpsn	file "../c5535_bsl_revc/ezdsp5535_v1/c55xx_csl/src/csl_usb.c",line 551,column 5,is_stmt
        MOV *SP(#4), AR3 ; |551| 

        SUB #1, AR3, AR1 ; |551| 
||      MOV #3, AR2

        CMPU AR1 <= AR2, TC1 ; |551| 
        BCC $C$L42,TC1 ; |551| 
                                        ; branchcc occurs ; |551| 
        SUB #9, AR3, AR1 ; |551| 
        CMPU AR1 <= AR2, TC1 ; |551| 
        BCC $C$L37,TC1 ; |551| 
                                        ; branchcc occurs ; |551| 
        B $C$L47  ; |551| 
                                        ; branch occurs ; |551| 
$C$L49:    
	.dwpsn	file "../c5535_bsl_revc/ezdsp5535_v1/c55xx_csl/src/csl_usb.c",line 705,column 5,is_stmt
        MOV *(#_usbRegisters), AR3 ; |705| 
        MOV #1038, T0 ; |705| 
        MOV *SP(#17), AR1 ; |705| 
        MOV AR1, port(*AR3(T0)) ; |705| 
	.dwpsn	file "../c5535_bsl_revc/ezdsp5535_v1/c55xx_csl/src/csl_usb.c",line 707,column 13,is_stmt
        B $C$L53  ; |707| 
                                        ; branch occurs ; |707| 
$C$L50:    
	.dwpsn	file "../c5535_bsl_revc/ezdsp5535_v1/c55xx_csl/src/csl_usb.c",line 713,column 8,is_stmt
        MOV #-6, *SP(#12) ; |713| 
	.dwpsn	file "../c5535_bsl_revc/ezdsp5535_v1/c55xx_csl/src/csl_usb.c",line 714,column 10,is_stmt
        B $C$L53  ; |714| 
                                        ; branch occurs ; |714| 
$C$L51:    
	.dwpsn	file "../c5535_bsl_revc/ezdsp5535_v1/c55xx_csl/src/csl_usb.c",line 509,column 3,is_stmt
        MOV *SP(#0), AR1 ; |509| 
        BCC $C$L33,AR1 == #0 ; |509| 
                                        ; branchcc occurs ; |509| 
        B $C$L50  ; |509| 
                                        ; branch occurs ; |509| 
$C$L52:    
	.dwpsn	file "../c5535_bsl_revc/ezdsp5535_v1/c55xx_csl/src/csl_usb.c",line 719,column 3,is_stmt
        MOV #-5, *SP(#12) ; |719| 
$C$L53:    
	.dwpsn	file "../c5535_bsl_revc/ezdsp5535_v1/c55xx_csl/src/csl_usb.c",line 722,column 2,is_stmt
        MOV *SP(#12), T0 ; |722| 
$C$L54:    
	.dwpsn	file "../c5535_bsl_revc/ezdsp5535_v1/c55xx_csl/src/csl_usb.c",line 723,column 1,is_stmt
        AADD #21, SP
	.dwcfi	cfa_offset, 1
$C$DW$103	.dwtag  DW_TAG_TI_branch
	.dwattr $C$DW$103, DW_AT_low_pc(0x00)
	.dwattr $C$DW$103, DW_AT_TI_return
        RET
                                        ; return occurs
	.dwattr $C$DW$81, DW_AT_TI_end_file("../c5535_bsl_revc/ezdsp5535_v1/c55xx_csl/src/csl_usb.c")
	.dwattr $C$DW$81, DW_AT_TI_end_line(0x2d3)
	.dwattr $C$DW$81, DW_AT_TI_end_column(0x01)
	.dwendentry
	.dwendtag $C$DW$81

	.sect	".text"
	.align 4
	.global	_USB_getEvents

$C$DW$104	.dwtag  DW_TAG_subprogram, DW_AT_name("USB_getEvents")
	.dwattr $C$DW$104, DW_AT_low_pc(_USB_getEvents)
	.dwattr $C$DW$104, DW_AT_high_pc(0x00)
	.dwattr $C$DW$104, DW_AT_TI_symbol_name("_USB_getEvents")
	.dwattr $C$DW$104, DW_AT_external
	.dwattr $C$DW$104, DW_AT_type(*$C$DW$T$175)
	.dwattr $C$DW$104, DW_AT_TI_begin_file("../c5535_bsl_revc/ezdsp5535_v1/c55xx_csl/src/csl_usb.c")
	.dwattr $C$DW$104, DW_AT_TI_begin_line(0x305)
	.dwattr $C$DW$104, DW_AT_TI_begin_column(0x12)
	.dwattr $C$DW$104, DW_AT_TI_max_frame_size(0x0c)
	.dwpsn	file "../c5535_bsl_revc/ezdsp5535_v1/c55xx_csl/src/csl_usb.c",line 775,column 1,is_stmt,address _USB_getEvents

	.dwfde $C$DW$CIE, _USB_getEvents
$C$DW$105	.dwtag  DW_TAG_formal_parameter, DW_AT_name("hEp")
	.dwattr $C$DW$105, DW_AT_TI_symbol_name("_hEp")
	.dwattr $C$DW$105, DW_AT_type(*$C$DW$T$102)
	.dwattr $C$DW$105, DW_AT_location[DW_OP_reg17]
$C$DW$106	.dwtag  DW_TAG_formal_parameter, DW_AT_name("status")
	.dwattr $C$DW$106, DW_AT_TI_symbol_name("_status")
	.dwattr $C$DW$106, DW_AT_type(*$C$DW$T$124)
	.dwattr $C$DW$106, DW_AT_location[DW_OP_reg19]
;*******************************************************************************
;* FUNCTION NAME: USB_getEvents                                                *
;*                                                                             *
;*   Function Uses Regs : AC0,AC0,T0,AR0,XAR0,AR1,XAR1,AR2,AR3,XAR3,SP,CARRY,  *
;*                        M40,SATA,SATD,RDM,FRCT,SMUL                          *
;*   Stack Frame        : Compact (No Frame Pointer, w/ debug)                 *
;*   Total Frame Size   : 12 words                                             *
;*                        (2 return address/alignment)                         *
;*                        (10 local values)                                    *
;*   Min System Stack   : 1 word                                               *
;*******************************************************************************
_USB_getEvents:
	.dwcfi	cfa_offset, 1
	.dwcfi	save_reg_to_mem, 91, -1
        AADD #-11, SP
	.dwcfi	cfa_offset, 12
$C$DW$107	.dwtag  DW_TAG_variable, DW_AT_name("hEp")
	.dwattr $C$DW$107, DW_AT_TI_symbol_name("_hEp")
	.dwattr $C$DW$107, DW_AT_type(*$C$DW$T$102)
	.dwattr $C$DW$107, DW_AT_location[DW_OP_bregx 0x24 0]
$C$DW$108	.dwtag  DW_TAG_variable, DW_AT_name("status")
	.dwattr $C$DW$108, DW_AT_TI_symbol_name("_status")
	.dwattr $C$DW$108, DW_AT_type(*$C$DW$T$124)
	.dwattr $C$DW$108, DW_AT_location[DW_OP_bregx 0x24 2]
$C$DW$109	.dwtag  DW_TAG_variable, DW_AT_name("peps")
	.dwattr $C$DW$109, DW_AT_TI_symbol_name("_peps")
	.dwattr $C$DW$109, DW_AT_type(*$C$DW$T$147)
	.dwattr $C$DW$109, DW_AT_location[DW_OP_bregx 0x24 4]
$C$DW$110	.dwtag  DW_TAG_variable, DW_AT_name("usbEvents")
	.dwattr $C$DW$110, DW_AT_TI_symbol_name("_usbEvents")
	.dwattr $C$DW$110, DW_AT_type(*$C$DW$T$175)
	.dwattr $C$DW$110, DW_AT_location[DW_OP_bregx 0x24 6]
$C$DW$111	.dwtag  DW_TAG_variable, DW_AT_name("pContext")
	.dwattr $C$DW$111, DW_AT_TI_symbol_name("_pContext")
	.dwattr $C$DW$111, DW_AT_type(*$C$DW$T$142)
	.dwattr $C$DW$111, DW_AT_location[DW_OP_bregx 0x24 8]
        MOV XAR1, dbl(*SP(#2))
        MOV XAR0, dbl(*SP(#0))
	.dwpsn	file "../c5535_bsl_revc/ezdsp5535_v1/c55xx_csl/src/csl_usb.c",line 780,column 2,is_stmt
        MOV dbl(*SP(#2)), XAR3
        MOV #0, *AR3 ; |780| 
	.dwpsn	file "../c5535_bsl_revc/ezdsp5535_v1/c55xx_csl/src/csl_usb.c",line 781,column 2,is_stmt
        MOV #0, *SP(#6) ; |781| 
	.dwpsn	file "../c5535_bsl_revc/ezdsp5535_v1/c55xx_csl/src/csl_usb.c",line 782,column 2,is_stmt
        AMOV #_gUsbContext, XAR3 ; |782| 
        MOV XAR3, dbl(*SP(#8))
	.dwpsn	file "../c5535_bsl_revc/ezdsp5535_v1/c55xx_csl/src/csl_usb.c",line 783,column 2,is_stmt
        MOV #0, AC0 ; |783| 
        MOV AC0, dbl(*SP(#4))
	.dwpsn	file "../c5535_bsl_revc/ezdsp5535_v1/c55xx_csl/src/csl_usb.c",line 785,column 2,is_stmt
        MOV dbl(*SP(#0)), XAR3
        MOV XAR3, AC0
        BCC $C$L55,AC0 == #0 ; |785| 
                                        ; branchcc occurs ; |785| 
	.dwpsn	file "../c5535_bsl_revc/ezdsp5535_v1/c55xx_csl/src/csl_usb.c",line 787,column 3,is_stmt
        MOV *AR3, AR1 ; |787| 

        MOV AR1, AC0
||      MOV #7, AR2

        SFTS AC0, #-2, AC0 ; |787| 
||      NOT AR2, AR2 ; |787| 

        BFXTR #0xe000, AC0, AR3 ; |787| 
        ADD AR1, AR3 ; |787| 
        AND AR3, AR2 ; |787| 
        MOV dbl(*SP(#8)), XAR3
        MOV AR1, HI(AC0)
        MOV HI(AC0), AR1
        MOV dbl(*AR3(#98)), XAR3
        SUB AR2, AR1 ; |787| 
        MOV AR1, HI(AC0)
        MPYK #18, AC0, AC0 ; |787| 
        MOV AC0, AR1 ; |787| 

        MOV XAR3, dbl(*SP(#4))
||      AADD AR1, AR3 ; |787| 

	.dwpsn	file "../c5535_bsl_revc/ezdsp5535_v1/c55xx_csl/src/csl_usb.c",line 789,column 3,is_stmt
        MOV XAR3, AC0
        BCC $C$L56,AC0 == #0 ; |789| 
                                        ; branchcc occurs ; |789| 
	.dwpsn	file "../c5535_bsl_revc/ezdsp5535_v1/c55xx_csl/src/csl_usb.c",line 791,column 4,is_stmt
        MOV *AR3(#12), AR1 ; |791| 
        MOV AR1, *SP(#6) ; |791| 
	.dwpsn	file "../c5535_bsl_revc/ezdsp5535_v1/c55xx_csl/src/csl_usb.c",line 793,column 4,is_stmt
        MOV dbl(*SP(#4)), XAR3
        MOV #0, *AR3(#12) ; |793| 
	.dwpsn	file "../c5535_bsl_revc/ezdsp5535_v1/c55xx_csl/src/csl_usb.c",line 795,column 2,is_stmt
        B $C$L56  ; |795| 
                                        ; branch occurs ; |795| 
$C$L55:    
	.dwpsn	file "../c5535_bsl_revc/ezdsp5535_v1/c55xx_csl/src/csl_usb.c",line 798,column 3,is_stmt
        MOV dbl(*SP(#2)), XAR3
        MOV #-5, *AR3 ; |798| 
$C$L56:    
	.dwpsn	file "../c5535_bsl_revc/ezdsp5535_v1/c55xx_csl/src/csl_usb.c",line 801,column 2,is_stmt
        MOV *SP(#6), T0 ; |801| 
	.dwpsn	file "../c5535_bsl_revc/ezdsp5535_v1/c55xx_csl/src/csl_usb.c",line 802,column 1,is_stmt
        AADD #11, SP
	.dwcfi	cfa_offset, 1
$C$DW$112	.dwtag  DW_TAG_TI_branch
	.dwattr $C$DW$112, DW_AT_low_pc(0x00)
	.dwattr $C$DW$112, DW_AT_TI_return
        RET
                                        ; return occurs
	.dwattr $C$DW$104, DW_AT_TI_end_file("../c5535_bsl_revc/ezdsp5535_v1/c55xx_csl/src/csl_usb.c")
	.dwattr $C$DW$104, DW_AT_TI_end_line(0x322)
	.dwattr $C$DW$104, DW_AT_TI_end_column(0x01)
	.dwendentry
	.dwendtag $C$DW$104

	.sect	".text"
	.align 4
	.global	_USB_peekEvents

$C$DW$113	.dwtag  DW_TAG_subprogram, DW_AT_name("USB_peekEvents")
	.dwattr $C$DW$113, DW_AT_low_pc(_USB_peekEvents)
	.dwattr $C$DW$113, DW_AT_high_pc(0x00)
	.dwattr $C$DW$113, DW_AT_TI_symbol_name("_USB_peekEvents")
	.dwattr $C$DW$113, DW_AT_external
	.dwattr $C$DW$113, DW_AT_type(*$C$DW$T$175)
	.dwattr $C$DW$113, DW_AT_TI_begin_file("../c5535_bsl_revc/ezdsp5535_v1/c55xx_csl/src/csl_usb.c")
	.dwattr $C$DW$113, DW_AT_TI_begin_line(0x356)
	.dwattr $C$DW$113, DW_AT_TI_begin_column(0x12)
	.dwattr $C$DW$113, DW_AT_TI_max_frame_size(0x0c)
	.dwpsn	file "../c5535_bsl_revc/ezdsp5535_v1/c55xx_csl/src/csl_usb.c",line 856,column 1,is_stmt,address _USB_peekEvents

	.dwfde $C$DW$CIE, _USB_peekEvents
$C$DW$114	.dwtag  DW_TAG_formal_parameter, DW_AT_name("hEp")
	.dwattr $C$DW$114, DW_AT_TI_symbol_name("_hEp")
	.dwattr $C$DW$114, DW_AT_type(*$C$DW$T$102)
	.dwattr $C$DW$114, DW_AT_location[DW_OP_reg17]
$C$DW$115	.dwtag  DW_TAG_formal_parameter, DW_AT_name("status")
	.dwattr $C$DW$115, DW_AT_TI_symbol_name("_status")
	.dwattr $C$DW$115, DW_AT_type(*$C$DW$T$124)
	.dwattr $C$DW$115, DW_AT_location[DW_OP_reg19]
;*******************************************************************************
;* FUNCTION NAME: USB_peekEvents                                               *
;*                                                                             *
;*   Function Uses Regs : AC0,AC0,T0,AR0,XAR0,AR1,XAR1,AR2,AR3,XAR3,SP,CARRY,  *
;*                        M40,SATA,SATD,RDM,FRCT,SMUL                          *
;*   Stack Frame        : Compact (No Frame Pointer, w/ debug)                 *
;*   Total Frame Size   : 12 words                                             *
;*                        (2 return address/alignment)                         *
;*                        (10 local values)                                    *
;*   Min System Stack   : 1 word                                               *
;*******************************************************************************
_USB_peekEvents:
	.dwcfi	cfa_offset, 1
	.dwcfi	save_reg_to_mem, 91, -1
        AADD #-11, SP
	.dwcfi	cfa_offset, 12
$C$DW$116	.dwtag  DW_TAG_variable, DW_AT_name("hEp")
	.dwattr $C$DW$116, DW_AT_TI_symbol_name("_hEp")
	.dwattr $C$DW$116, DW_AT_type(*$C$DW$T$102)
	.dwattr $C$DW$116, DW_AT_location[DW_OP_bregx 0x24 0]
$C$DW$117	.dwtag  DW_TAG_variable, DW_AT_name("status")
	.dwattr $C$DW$117, DW_AT_TI_symbol_name("_status")
	.dwattr $C$DW$117, DW_AT_type(*$C$DW$T$124)
	.dwattr $C$DW$117, DW_AT_location[DW_OP_bregx 0x24 2]
$C$DW$118	.dwtag  DW_TAG_variable, DW_AT_name("peps")
	.dwattr $C$DW$118, DW_AT_TI_symbol_name("_peps")
	.dwattr $C$DW$118, DW_AT_type(*$C$DW$T$147)
	.dwattr $C$DW$118, DW_AT_location[DW_OP_bregx 0x24 4]
$C$DW$119	.dwtag  DW_TAG_variable, DW_AT_name("usbEvents")
	.dwattr $C$DW$119, DW_AT_TI_symbol_name("_usbEvents")
	.dwattr $C$DW$119, DW_AT_type(*$C$DW$T$175)
	.dwattr $C$DW$119, DW_AT_location[DW_OP_bregx 0x24 6]
$C$DW$120	.dwtag  DW_TAG_variable, DW_AT_name("pContext")
	.dwattr $C$DW$120, DW_AT_TI_symbol_name("_pContext")
	.dwattr $C$DW$120, DW_AT_type(*$C$DW$T$142)
	.dwattr $C$DW$120, DW_AT_location[DW_OP_bregx 0x24 8]
        MOV XAR1, dbl(*SP(#2))
        MOV XAR0, dbl(*SP(#0))
	.dwpsn	file "../c5535_bsl_revc/ezdsp5535_v1/c55xx_csl/src/csl_usb.c",line 861,column 2,is_stmt
        MOV dbl(*SP(#2)), XAR3
        MOV #0, *AR3 ; |861| 
	.dwpsn	file "../c5535_bsl_revc/ezdsp5535_v1/c55xx_csl/src/csl_usb.c",line 862,column 2,is_stmt
        MOV #0, *SP(#6) ; |862| 
	.dwpsn	file "../c5535_bsl_revc/ezdsp5535_v1/c55xx_csl/src/csl_usb.c",line 863,column 2,is_stmt
        AMOV #_gUsbContext, XAR3 ; |863| 
        MOV XAR3, dbl(*SP(#8))
	.dwpsn	file "../c5535_bsl_revc/ezdsp5535_v1/c55xx_csl/src/csl_usb.c",line 864,column 2,is_stmt
        MOV #0, AC0 ; |864| 
        MOV AC0, dbl(*SP(#4))
	.dwpsn	file "../c5535_bsl_revc/ezdsp5535_v1/c55xx_csl/src/csl_usb.c",line 866,column 2,is_stmt
        MOV dbl(*SP(#0)), XAR3
        MOV XAR3, AC0
        BCC $C$L57,AC0 == #0 ; |866| 
                                        ; branchcc occurs ; |866| 
	.dwpsn	file "../c5535_bsl_revc/ezdsp5535_v1/c55xx_csl/src/csl_usb.c",line 868,column 3,is_stmt
        MOV *AR3, AR1 ; |868| 

        MOV AR1, AC0
||      MOV #7, AR2

        SFTS AC0, #-2, AC0 ; |868| 
||      NOT AR2, AR2 ; |868| 

        BFXTR #0xe000, AC0, AR3 ; |868| 
        ADD AR1, AR3 ; |868| 
        AND AR3, AR2 ; |868| 
        MOV dbl(*SP(#8)), XAR3
        MOV AR1, HI(AC0)
        MOV HI(AC0), AR1
        MOV dbl(*AR3(#98)), XAR3
        SUB AR2, AR1 ; |868| 
        MOV AR1, HI(AC0)
        MPYK #18, AC0, AC0 ; |868| 
        MOV AC0, AR1 ; |868| 

        MOV XAR3, dbl(*SP(#4))
||      AADD AR1, AR3 ; |868| 

	.dwpsn	file "../c5535_bsl_revc/ezdsp5535_v1/c55xx_csl/src/csl_usb.c",line 870,column 3,is_stmt
        MOV XAR3, AC0
        BCC $C$L58,AC0 == #0 ; |870| 
                                        ; branchcc occurs ; |870| 
	.dwpsn	file "../c5535_bsl_revc/ezdsp5535_v1/c55xx_csl/src/csl_usb.c",line 872,column 4,is_stmt
        MOV *AR3(#12), AR1 ; |872| 
        MOV AR1, *SP(#6) ; |872| 
	.dwpsn	file "../c5535_bsl_revc/ezdsp5535_v1/c55xx_csl/src/csl_usb.c",line 874,column 2,is_stmt
        B $C$L58  ; |874| 
                                        ; branch occurs ; |874| 
$C$L57:    
	.dwpsn	file "../c5535_bsl_revc/ezdsp5535_v1/c55xx_csl/src/csl_usb.c",line 877,column 3,is_stmt
        MOV dbl(*SP(#2)), XAR3
        MOV #-5, *AR3 ; |877| 
$C$L58:    
	.dwpsn	file "../c5535_bsl_revc/ezdsp5535_v1/c55xx_csl/src/csl_usb.c",line 880,column 2,is_stmt
        MOV *SP(#6), T0 ; |880| 
	.dwpsn	file "../c5535_bsl_revc/ezdsp5535_v1/c55xx_csl/src/csl_usb.c",line 881,column 1,is_stmt
        AADD #11, SP
	.dwcfi	cfa_offset, 1
$C$DW$121	.dwtag  DW_TAG_TI_branch
	.dwattr $C$DW$121, DW_AT_low_pc(0x00)
	.dwattr $C$DW$121, DW_AT_TI_return
        RET
                                        ; return occurs
	.dwattr $C$DW$113, DW_AT_TI_end_file("../c5535_bsl_revc/ezdsp5535_v1/c55xx_csl/src/csl_usb.c")
	.dwattr $C$DW$113, DW_AT_TI_end_line(0x371)
	.dwattr $C$DW$113, DW_AT_TI_end_column(0x01)
	.dwendentry
	.dwendtag $C$DW$113

	.sect	".text"
	.align 4
	.global	_USB_getSetupPacket

$C$DW$122	.dwtag  DW_TAG_subprogram, DW_AT_name("USB_getSetupPacket")
	.dwattr $C$DW$122, DW_AT_low_pc(_USB_getSetupPacket)
	.dwattr $C$DW$122, DW_AT_high_pc(0x00)
	.dwattr $C$DW$122, DW_AT_TI_symbol_name("_USB_getSetupPacket")
	.dwattr $C$DW$122, DW_AT_external
	.dwattr $C$DW$122, DW_AT_type(*$C$DW$T$75)
	.dwattr $C$DW$122, DW_AT_TI_begin_file("../c5535_bsl_revc/ezdsp5535_v1/c55xx_csl/src/csl_usb.c")
	.dwattr $C$DW$122, DW_AT_TI_begin_line(0x3a3)
	.dwattr $C$DW$122, DW_AT_TI_begin_column(0x0c)
	.dwattr $C$DW$122, DW_AT_TI_max_frame_size(0x0e)
	.dwpsn	file "../c5535_bsl_revc/ezdsp5535_v1/c55xx_csl/src/csl_usb.c",line 934,column 1,is_stmt,address _USB_getSetupPacket

	.dwfde $C$DW$CIE, _USB_getSetupPacket
$C$DW$123	.dwtag  DW_TAG_formal_parameter, DW_AT_name("devNum")
	.dwattr $C$DW$123, DW_AT_TI_symbol_name("_devNum")
	.dwattr $C$DW$123, DW_AT_type(*$C$DW$T$68)
	.dwattr $C$DW$123, DW_AT_location[DW_OP_reg12]
$C$DW$124	.dwtag  DW_TAG_formal_parameter, DW_AT_name("usbSetup")
	.dwattr $C$DW$124, DW_AT_TI_symbol_name("_usbSetup")
	.dwattr $C$DW$124, DW_AT_type(*$C$DW$T$149)
	.dwattr $C$DW$124, DW_AT_location[DW_OP_reg17]
$C$DW$125	.dwtag  DW_TAG_formal_parameter, DW_AT_name("readFromFifo")
	.dwattr $C$DW$125, DW_AT_TI_symbol_name("_readFromFifo")
	.dwattr $C$DW$125, DW_AT_type(*$C$DW$T$81)
	.dwattr $C$DW$125, DW_AT_location[DW_OP_reg13]
;*******************************************************************************
;* FUNCTION NAME: USB_getSetupPacket                                           *
;*                                                                             *
;*   Function Uses Regs : AC0,AC0,T0,T1,AR0,XAR0,AR1,AR2,XAR2,AR3,XAR3,SP,CSR, *
;*                        RPTC,TC1,M40,SATA,SATD,RDM,FRCT,SMUL                 *
;*   Stack Frame        : Compact (No Frame Pointer, w/ debug)                 *
;*   Total Frame Size   : 14 words                                             *
;*                        (2 return address/alignment)                         *
;*                        (12 local values)                                    *
;*   Min System Stack   : 1 word                                               *
;*******************************************************************************
_USB_getSetupPacket:
	.dwcfi	cfa_offset, 1
	.dwcfi	save_reg_to_mem, 91, -1
        AADD #-13, SP
	.dwcfi	cfa_offset, 14
$C$DW$126	.dwtag  DW_TAG_variable, DW_AT_name("devNum")
	.dwattr $C$DW$126, DW_AT_TI_symbol_name("_devNum")
	.dwattr $C$DW$126, DW_AT_type(*$C$DW$T$68)
	.dwattr $C$DW$126, DW_AT_location[DW_OP_bregx 0x24 0]
$C$DW$127	.dwtag  DW_TAG_variable, DW_AT_name("usbSetup")
	.dwattr $C$DW$127, DW_AT_TI_symbol_name("_usbSetup")
	.dwattr $C$DW$127, DW_AT_type(*$C$DW$T$149)
	.dwattr $C$DW$127, DW_AT_location[DW_OP_bregx 0x24 2]
$C$DW$128	.dwtag  DW_TAG_variable, DW_AT_name("readFromFifo")
	.dwattr $C$DW$128, DW_AT_TI_symbol_name("_readFromFifo")
	.dwattr $C$DW$128, DW_AT_type(*$C$DW$T$81)
	.dwattr $C$DW$128, DW_AT_location[DW_OP_bregx 0x24 4]
$C$DW$129	.dwtag  DW_TAG_variable, DW_AT_name("status")
	.dwattr $C$DW$129, DW_AT_TI_symbol_name("_status")
	.dwattr $C$DW$129, DW_AT_type(*$C$DW$T$75)
	.dwattr $C$DW$129, DW_AT_location[DW_OP_bregx 0x24 5]
$C$DW$130	.dwtag  DW_TAG_variable, DW_AT_name("pContext")
	.dwattr $C$DW$130, DW_AT_TI_symbol_name("_pContext")
	.dwattr $C$DW$130, DW_AT_type(*$C$DW$T$142)
	.dwattr $C$DW$130, DW_AT_location[DW_OP_bregx 0x24 6]
$C$DW$131	.dwtag  DW_TAG_variable, DW_AT_name("wBuffer")
	.dwattr $C$DW$131, DW_AT_TI_symbol_name("_wBuffer")
	.dwattr $C$DW$131, DW_AT_type(*$C$DW$T$187)
	.dwattr $C$DW$131, DW_AT_location[DW_OP_bregx 0x24 8]
        MOV T1, *SP(#4) ; |934| 
        MOV XAR0, dbl(*SP(#2))
        MOV T0, *SP(#0) ; |934| 
	.dwpsn	file "../c5535_bsl_revc/ezdsp5535_v1/c55xx_csl/src/csl_usb.c",line 939,column 2,is_stmt
        AMOV #_gUsbContext, XAR3 ; |939| 
        MOV XAR3, dbl(*SP(#6))
	.dwpsn	file "../c5535_bsl_revc/ezdsp5535_v1/c55xx_csl/src/csl_usb.c",line 940,column 2,is_stmt
        MOV #0, *SP(#5) ; |940| 
	.dwpsn	file "../c5535_bsl_revc/ezdsp5535_v1/c55xx_csl/src/csl_usb.c",line 942,column 2,is_stmt
        MOV dbl(*SP(#2)), XAR3
        MOV XAR3, AC0
        BCC $C$L65,AC0 == #0 ; |942| 
                                        ; branchcc occurs ; |942| 
	.dwpsn	file "../c5535_bsl_revc/ezdsp5535_v1/c55xx_csl/src/csl_usb.c",line 944,column 3,is_stmt
        B $C$L64  ; |944| 
                                        ; branch occurs ; |944| 
$C$L59:    
	.dwpsn	file "../c5535_bsl_revc/ezdsp5535_v1/c55xx_csl/src/csl_usb.c",line 947,column 5,is_stmt
        CMP *SP(#4) == #1, TC1 ; |947| 
        BCC $C$L60,!TC1 ; |947| 
                                        ; branchcc occurs ; |947| 
	.dwpsn	file "../c5535_bsl_revc/ezdsp5535_v1/c55xx_csl/src/csl_usb.c",line 950,column 6,is_stmt
        MOV #1057, T0 ; |950| 
        MOV *(#_usbRegisters), AR3 ; |950| 
        MOV port(*AR3(T0)), AR1 ; |950| 
        MOV AR1, *SP(#8) ; |950| 
	.dwpsn	file "../c5535_bsl_revc/ezdsp5535_v1/c55xx_csl/src/csl_usb.c",line 952,column 6,is_stmt
        MOV port(*AR3(T0)), AR1 ; |952| 
        MOV AR1, *SP(#9) ; |952| 
	.dwpsn	file "../c5535_bsl_revc/ezdsp5535_v1/c55xx_csl/src/csl_usb.c",line 954,column 6,is_stmt
        MOV port(*AR3(T0)), AR1 ; |954| 
        MOV AR1, *SP(#10) ; |954| 
	.dwpsn	file "../c5535_bsl_revc/ezdsp5535_v1/c55xx_csl/src/csl_usb.c",line 956,column 6,is_stmt
        MOV port(*AR3(T0)), AR1 ; |956| 
        MOV AR1, *SP(#11) ; |956| 
	.dwpsn	file "../c5535_bsl_revc/ezdsp5535_v1/c55xx_csl/src/csl_usb.c",line 959,column 6,is_stmt
        MOV dbl(*SP(#2)), XAR3
        MOV uns(low_byte(*SP(#8))), AR1 ; |959| 
        MOV AR1, *AR3(short(#1)) ; |959| 
	.dwpsn	file "../c5535_bsl_revc/ezdsp5535_v1/c55xx_csl/src/csl_usb.c",line 960,column 6,is_stmt
        MOV dbl(*SP(#2)), XAR3
        MOV *SP(#8), AR1 ; |960| 
        AND #0xff00, AR1, AC0 ; |960| 
        SFTS AC0, #-8, AC0 ; |960| 
        MOV AC0, *AR3(short(#2)) ; |960| 
	.dwpsn	file "../c5535_bsl_revc/ezdsp5535_v1/c55xx_csl/src/csl_usb.c",line 961,column 6,is_stmt
        MOV dbl(*SP(#2)), XAR3
        MOV *SP(#9), AR1 ; |961| 
        MOV AR1, *AR3(short(#3)) ; |961| 
	.dwpsn	file "../c5535_bsl_revc/ezdsp5535_v1/c55xx_csl/src/csl_usb.c",line 962,column 6,is_stmt
        MOV dbl(*SP(#2)), XAR3
        MOV *SP(#10), AR1 ; |962| 
        MOV AR1, *AR3(short(#4)) ; |962| 
	.dwpsn	file "../c5535_bsl_revc/ezdsp5535_v1/c55xx_csl/src/csl_usb.c",line 963,column 6,is_stmt
        MOV dbl(*SP(#2)), XAR3
        MOV *SP(#11), AR1 ; |963| 
        MOV AR1, *AR3(short(#5)) ; |963| 
	.dwpsn	file "../c5535_bsl_revc/ezdsp5535_v1/c55xx_csl/src/csl_usb.c",line 965,column 6,is_stmt
        MOV dbl(*SP(#2)), XAR3
        MOV *AR3(short(#5)), AR1 ; |965| 
        MOV dbl(*SP(#6)), XAR3
        MOV AR1, *AR3(#25) ; |965| 
	.dwpsn	file "../c5535_bsl_revc/ezdsp5535_v1/c55xx_csl/src/csl_usb.c",line 967,column 6,is_stmt
        B $C$L66  ; |967| 
                                        ; branch occurs ; |967| 
$C$L60:    
	.dwpsn	file "../c5535_bsl_revc/ezdsp5535_v1/c55xx_csl/src/csl_usb.c",line 971,column 6,is_stmt
        MOV dbl(*SP(#6)), XAR3
        MOV dbl(*SP(#2)), XAR2

        RPT #5    ; |971| 
||      AADD #103, AR3 ; |971| 

                                            ; loop starts ; |971| 
$C$L61:    
$C$DW$L$_USB_getSetupPacket$8$B:
            MOV *AR3+, *AR2+ ; |971| 
                                        ; loop ends ; |971| 
$C$DW$L$_USB_getSetupPacket$8$E:
$C$L62:    
	.dwpsn	file "../c5535_bsl_revc/ezdsp5535_v1/c55xx_csl/src/csl_usb.c",line 972,column 6,is_stmt
        MOV dbl(*SP(#2)), XAR3
        MOV #1, *AR3 ; |972| 
	.dwpsn	file "../c5535_bsl_revc/ezdsp5535_v1/c55xx_csl/src/csl_usb.c",line 976,column 17,is_stmt
$C$L63:    
	.dwpsn	file "../c5535_bsl_revc/ezdsp5535_v1/c55xx_csl/src/csl_usb.c",line 979,column 8,is_stmt
        MOV #-6, *SP(#5) ; |979| 
	.dwpsn	file "../c5535_bsl_revc/ezdsp5535_v1/c55xx_csl/src/csl_usb.c",line 980,column 22,is_stmt
        B $C$L66  ; |980| 
                                        ; branch occurs ; |980| 
$C$L64:    
	.dwpsn	file "../c5535_bsl_revc/ezdsp5535_v1/c55xx_csl/src/csl_usb.c",line 944,column 3,is_stmt
        MOV *SP(#0), AR1 ; |944| 
        BCC $C$L59,AR1 == #0 ; |944| 
                                        ; branchcc occurs ; |944| 
        B $C$L63  ; |944| 
                                        ; branch occurs ; |944| 
$C$L65:    
	.dwpsn	file "../c5535_bsl_revc/ezdsp5535_v1/c55xx_csl/src/csl_usb.c",line 985,column 3,is_stmt
        MOV #-6, *SP(#5) ; |985| 
$C$L66:    
	.dwpsn	file "../c5535_bsl_revc/ezdsp5535_v1/c55xx_csl/src/csl_usb.c",line 988,column 2,is_stmt
        MOV *SP(#5), T0 ; |988| 
	.dwpsn	file "../c5535_bsl_revc/ezdsp5535_v1/c55xx_csl/src/csl_usb.c",line 989,column 1,is_stmt
        AADD #13, SP
	.dwcfi	cfa_offset, 1
$C$DW$132	.dwtag  DW_TAG_TI_branch
	.dwattr $C$DW$132, DW_AT_low_pc(0x00)
	.dwattr $C$DW$132, DW_AT_TI_return
        RET
                                        ; return occurs

$C$DW$133	.dwtag  DW_TAG_TI_loop
	.dwattr $C$DW$133, DW_AT_name("F:\eZdsp_DBG\eZDSP_5535_Files\ccsws2\test\Debug\csl_usb.asm:$C$L61:1:1537612617")
	.dwattr $C$DW$133, DW_AT_TI_begin_file("../c5535_bsl_revc/ezdsp5535_v1/c55xx_csl/src/csl_usb.c")
	.dwattr $C$DW$133, DW_AT_TI_begin_line(0x3cb)
	.dwattr $C$DW$133, DW_AT_TI_end_line(0x3cb)
$C$DW$134	.dwtag  DW_TAG_TI_loop_range
	.dwattr $C$DW$134, DW_AT_low_pc($C$DW$L$_USB_getSetupPacket$8$B)
	.dwattr $C$DW$134, DW_AT_high_pc($C$DW$L$_USB_getSetupPacket$8$E)
	.dwendtag $C$DW$133

	.dwattr $C$DW$122, DW_AT_TI_end_file("../c5535_bsl_revc/ezdsp5535_v1/c55xx_csl/src/csl_usb.c")
	.dwattr $C$DW$122, DW_AT_TI_end_line(0x3dd)
	.dwattr $C$DW$122, DW_AT_TI_end_column(0x01)
	.dwendentry
	.dwendtag $C$DW$122

	.sect	".text"
	.align 4
	.global	_USB_postTransaction

$C$DW$135	.dwtag  DW_TAG_subprogram, DW_AT_name("USB_postTransaction")
	.dwattr $C$DW$135, DW_AT_low_pc(_USB_postTransaction)
	.dwattr $C$DW$135, DW_AT_high_pc(0x00)
	.dwattr $C$DW$135, DW_AT_TI_symbol_name("_USB_postTransaction")
	.dwattr $C$DW$135, DW_AT_external
	.dwattr $C$DW$135, DW_AT_type(*$C$DW$T$75)
	.dwattr $C$DW$135, DW_AT_TI_begin_file("../c5535_bsl_revc/ezdsp5535_v1/c55xx_csl/src/csl_usb.c")
	.dwattr $C$DW$135, DW_AT_TI_begin_line(0x40f)
	.dwattr $C$DW$135, DW_AT_TI_begin_column(0x0c)
	.dwattr $C$DW$135, DW_AT_TI_max_frame_size(0x12)
	.dwpsn	file "../c5535_bsl_revc/ezdsp5535_v1/c55xx_csl/src/csl_usb.c",line 1043,column 1,is_stmt,address _USB_postTransaction

	.dwfde $C$DW$CIE, _USB_postTransaction
$C$DW$136	.dwtag  DW_TAG_formal_parameter, DW_AT_name("hEp")
	.dwattr $C$DW$136, DW_AT_TI_symbol_name("_hEp")
	.dwattr $C$DW$136, DW_AT_type(*$C$DW$T$102)
	.dwattr $C$DW$136, DW_AT_location[DW_OP_reg17]
$C$DW$137	.dwtag  DW_TAG_formal_parameter, DW_AT_name("byteCnt")
	.dwattr $C$DW$137, DW_AT_TI_symbol_name("_byteCnt")
	.dwattr $C$DW$137, DW_AT_type(*$C$DW$T$19)
	.dwattr $C$DW$137, DW_AT_location[DW_OP_reg12]
$C$DW$138	.dwtag  DW_TAG_formal_parameter, DW_AT_name("data")
	.dwattr $C$DW$138, DW_AT_TI_symbol_name("_data")
	.dwattr $C$DW$138, DW_AT_type(*$C$DW$T$3)
	.dwattr $C$DW$138, DW_AT_location[DW_OP_reg19]
$C$DW$139	.dwtag  DW_TAG_formal_parameter, DW_AT_name("flags")
	.dwattr $C$DW$139, DW_AT_TI_symbol_name("_flags")
	.dwattr $C$DW$139, DW_AT_type(*$C$DW$T$122)
	.dwattr $C$DW$139, DW_AT_location[DW_OP_reg13]
;*******************************************************************************
;* FUNCTION NAME: USB_postTransaction                                          *
;*                                                                             *
;*   Function Uses Regs : AC0,AC0,T0,T1,AR0,XAR0,AR1,XAR1,AR2,XAR2,AR3,XAR3,SP,*
;*                        CARRY,TC1,M40,SATA,SATD,RDM,FRCT,SMUL                *
;*   Stack Frame        : Compact (No Frame Pointer, w/ debug)                 *
;*   Total Frame Size   : 18 words                                             *
;*                        (2 return address/alignment)                         *
;*                        (16 local values)                                    *
;*   Min System Stack   : 1 word                                               *
;*******************************************************************************
_USB_postTransaction:
	.dwcfi	cfa_offset, 1
	.dwcfi	save_reg_to_mem, 91, -1
        AADD #-17, SP
	.dwcfi	cfa_offset, 18
$C$DW$140	.dwtag  DW_TAG_variable, DW_AT_name("hEp")
	.dwattr $C$DW$140, DW_AT_TI_symbol_name("_hEp")
	.dwattr $C$DW$140, DW_AT_type(*$C$DW$T$102)
	.dwattr $C$DW$140, DW_AT_location[DW_OP_bregx 0x24 0]
$C$DW$141	.dwtag  DW_TAG_variable, DW_AT_name("byteCnt")
	.dwattr $C$DW$141, DW_AT_TI_symbol_name("_byteCnt")
	.dwattr $C$DW$141, DW_AT_type(*$C$DW$T$19)
	.dwattr $C$DW$141, DW_AT_location[DW_OP_bregx 0x24 2]
$C$DW$142	.dwtag  DW_TAG_variable, DW_AT_name("data")
	.dwattr $C$DW$142, DW_AT_TI_symbol_name("_data")
	.dwattr $C$DW$142, DW_AT_type(*$C$DW$T$3)
	.dwattr $C$DW$142, DW_AT_location[DW_OP_bregx 0x24 4]
$C$DW$143	.dwtag  DW_TAG_variable, DW_AT_name("flags")
	.dwattr $C$DW$143, DW_AT_TI_symbol_name("_flags")
	.dwattr $C$DW$143, DW_AT_type(*$C$DW$T$122)
	.dwattr $C$DW$143, DW_AT_location[DW_OP_bregx 0x24 6]
$C$DW$144	.dwtag  DW_TAG_variable, DW_AT_name("pContext")
	.dwattr $C$DW$144, DW_AT_TI_symbol_name("_pContext")
	.dwattr $C$DW$144, DW_AT_type(*$C$DW$T$142)
	.dwattr $C$DW$144, DW_AT_location[DW_OP_bregx 0x24 8]
$C$DW$145	.dwtag  DW_TAG_variable, DW_AT_name("peps")
	.dwattr $C$DW$145, DW_AT_TI_symbol_name("_peps")
	.dwattr $C$DW$145, DW_AT_type(*$C$DW$T$147)
	.dwattr $C$DW$145, DW_AT_location[DW_OP_bregx 0x24 10]
$C$DW$146	.dwtag  DW_TAG_variable, DW_AT_name("pTransfer")
	.dwattr $C$DW$146, DW_AT_TI_symbol_name("_pTransfer")
	.dwattr $C$DW$146, DW_AT_type(*$C$DW$T$150)
	.dwattr $C$DW$146, DW_AT_location[DW_OP_bregx 0x24 12]
$C$DW$147	.dwtag  DW_TAG_variable, DW_AT_name("epNum")
	.dwattr $C$DW$147, DW_AT_TI_symbol_name("_epNum")
	.dwattr $C$DW$147, DW_AT_type(*$C$DW$T$108)
	.dwattr $C$DW$147, DW_AT_location[DW_OP_bregx 0x24 14]
$C$DW$148	.dwtag  DW_TAG_variable, DW_AT_name("status")
	.dwattr $C$DW$148, DW_AT_TI_symbol_name("_status")
	.dwattr $C$DW$148, DW_AT_type(*$C$DW$T$75)
	.dwattr $C$DW$148, DW_AT_location[DW_OP_bregx 0x24 15]
        MOV T1, *SP(#6) ; |1043| 
        MOV XAR1, dbl(*SP(#4))
        MOV T0, *SP(#2) ; |1043| 
        MOV XAR0, dbl(*SP(#0))
	.dwpsn	file "../c5535_bsl_revc/ezdsp5535_v1/c55xx_csl/src/csl_usb.c",line 1050,column 2,is_stmt
        MOV #0, *SP(#15) ; |1050| 
	.dwpsn	file "../c5535_bsl_revc/ezdsp5535_v1/c55xx_csl/src/csl_usb.c",line 1051,column 2,is_stmt
        AMOV #_gUsbContext, XAR3 ; |1051| 
        MOV XAR3, dbl(*SP(#8))
	.dwpsn	file "../c5535_bsl_revc/ezdsp5535_v1/c55xx_csl/src/csl_usb.c",line 1053,column 2,is_stmt
        MOV dbl(*SP(#0)), XAR3
        MOV XAR3, AC0
        BCC $C$L82,AC0 == #0 ; |1053| 
                                        ; branchcc occurs ; |1053| 
	.dwpsn	file "../c5535_bsl_revc/ezdsp5535_v1/c55xx_csl/src/csl_usb.c",line 1055,column 3,is_stmt
        MOV *AR3, AR1 ; |1055| 
        MOV AR1, *SP(#14) ; |1055| 
	.dwpsn	file "../c5535_bsl_revc/ezdsp5535_v1/c55xx_csl/src/csl_usb.c",line 1057,column 3,is_stmt
        B $C$L77  ; |1057| 
                                        ; branch occurs ; |1057| 
$C$L67:    
	.dwpsn	file "../c5535_bsl_revc/ezdsp5535_v1/c55xx_csl/src/csl_usb.c",line 1060,column 5,is_stmt
        AMOV #_gCtrlTransfer, XAR3 ; |1060| 
        MOV XAR3, dbl(*SP(#12))
	.dwpsn	file "../c5535_bsl_revc/ezdsp5535_v1/c55xx_csl/src/csl_usb.c",line 1061,column 5,is_stmt
        MOV #0, AC0 ; |1061| 
        MOV AC0, dbl(*AR3) ; |1061| 
	.dwpsn	file "../c5535_bsl_revc/ezdsp5535_v1/c55xx_csl/src/csl_usb.c",line 1062,column 10,is_stmt
        B $C$L78  ; |1062| 
                                        ; branch occurs ; |1062| 
$C$L68:    
	.dwpsn	file "../c5535_bsl_revc/ezdsp5535_v1/c55xx_csl/src/csl_usb.c",line 1065,column 5,is_stmt
        AMOV #_gCtrlTransfer, XAR3 ; |1065| 
        MOV XAR3, dbl(*SP(#12))
	.dwpsn	file "../c5535_bsl_revc/ezdsp5535_v1/c55xx_csl/src/csl_usb.c",line 1066,column 5,is_stmt
        MOV #128, AC0 ; |1066| 
        MOV AC0, dbl(*AR3) ; |1066| 
	.dwpsn	file "../c5535_bsl_revc/ezdsp5535_v1/c55xx_csl/src/csl_usb.c",line 1067,column 10,is_stmt
        B $C$L78  ; |1067| 
                                        ; branch occurs ; |1067| 
$C$L69:    
	.dwpsn	file "../c5535_bsl_revc/ezdsp5535_v1/c55xx_csl/src/csl_usb.c",line 1073,column 8,is_stmt
        MOV dbl(*SP(#0)), XAR3
        CMP *AR3(short(#1)) == #1, TC1 ; |1073| 
        BCC $C$L70,!TC1 ; |1073| 
                                        ; branchcc occurs ; |1073| 
	.dwpsn	file "../c5535_bsl_revc/ezdsp5535_v1/c55xx_csl/src/csl_usb.c",line 1076,column 6,is_stmt
        AMOV #_gBulkInTransfer, XAR3 ; |1076| 
        MOV XAR3, dbl(*SP(#12))
	.dwpsn	file "../c5535_bsl_revc/ezdsp5535_v1/c55xx_csl/src/csl_usb.c",line 1077,column 5,is_stmt
        B $C$L72  ; |1077| 
                                        ; branch occurs ; |1077| 
$C$L70:    
	.dwpsn	file "../c5535_bsl_revc/ezdsp5535_v1/c55xx_csl/src/csl_usb.c",line 1078,column 22,is_stmt
        CMP *AR3(short(#1)) == #3, TC1 ; |1078| 
        BCC $C$L71,!TC1 ; |1078| 
                                        ; branchcc occurs ; |1078| 
	.dwpsn	file "../c5535_bsl_revc/ezdsp5535_v1/c55xx_csl/src/csl_usb.c",line 1081,column 6,is_stmt
        AMOV #_gIsoInTransfer, XAR3 ; |1081| 
        MOV XAR3, dbl(*SP(#12))
	.dwpsn	file "../c5535_bsl_revc/ezdsp5535_v1/c55xx_csl/src/csl_usb.c",line 1082,column 5,is_stmt
        B $C$L72  ; |1082| 
                                        ; branch occurs ; |1082| 
$C$L71:    
	.dwpsn	file "../c5535_bsl_revc/ezdsp5535_v1/c55xx_csl/src/csl_usb.c",line 1086,column 21,is_stmt
        AMOV #_gIntInTransfer, XAR3 ; |1086| 
        MOV XAR3, dbl(*SP(#12))
$C$L72:    
	.dwpsn	file "../c5535_bsl_revc/ezdsp5535_v1/c55xx_csl/src/csl_usb.c",line 1088,column 5,is_stmt
        MOV #128, AC0 ; |1088| 
        MOV AC0, dbl(*AR3) ; |1088| 
	.dwpsn	file "../c5535_bsl_revc/ezdsp5535_v1/c55xx_csl/src/csl_usb.c",line 1090,column 10,is_stmt
        B $C$L78  ; |1090| 
                                        ; branch occurs ; |1090| 
$C$L73:    
	.dwpsn	file "../c5535_bsl_revc/ezdsp5535_v1/c55xx_csl/src/csl_usb.c",line 1096,column 8,is_stmt
        MOV dbl(*SP(#0)), XAR3
        CMP *AR3(short(#1)) == #1, TC1 ; |1096| 
        BCC $C$L74,!TC1 ; |1096| 
                                        ; branchcc occurs ; |1096| 
	.dwpsn	file "../c5535_bsl_revc/ezdsp5535_v1/c55xx_csl/src/csl_usb.c",line 1099,column 6,is_stmt
        AMOV #_gBulkOutTransfer, XAR3 ; |1099| 
        MOV XAR3, dbl(*SP(#12))
	.dwpsn	file "../c5535_bsl_revc/ezdsp5535_v1/c55xx_csl/src/csl_usb.c",line 1100,column 5,is_stmt
        B $C$L75  ; |1100| 
                                        ; branch occurs ; |1100| 
$C$L74:    
	.dwpsn	file "../c5535_bsl_revc/ezdsp5535_v1/c55xx_csl/src/csl_usb.c",line 1104,column 6,is_stmt
        AMOV #_gIsoOutTransfer, XAR3 ; |1104| 
        MOV XAR3, dbl(*SP(#12))
$C$L75:    
	.dwpsn	file "../c5535_bsl_revc/ezdsp5535_v1/c55xx_csl/src/csl_usb.c",line 1106,column 5,is_stmt
        MOV #0, AC0 ; |1106| 
        MOV AC0, dbl(*AR3) ; |1106| 
	.dwpsn	file "../c5535_bsl_revc/ezdsp5535_v1/c55xx_csl/src/csl_usb.c",line 1108,column 10,is_stmt
        B $C$L78  ; |1108| 
                                        ; branch occurs ; |1108| 
$C$L76:    
	.dwpsn	file "../c5535_bsl_revc/ezdsp5535_v1/c55xx_csl/src/csl_usb.c",line 1111,column 5,is_stmt
        MOV #-6, *SP(#15) ; |1111| 
	.dwpsn	file "../c5535_bsl_revc/ezdsp5535_v1/c55xx_csl/src/csl_usb.c",line 1112,column 10,is_stmt
        B $C$L78  ; |1112| 
                                        ; branch occurs ; |1112| 
$C$L77:    
	.dwpsn	file "../c5535_bsl_revc/ezdsp5535_v1/c55xx_csl/src/csl_usb.c",line 1057,column 3,is_stmt
        BCC $C$L67,AR1 == #0 ; |1057| 
                                        ; branchcc occurs ; |1057| 

        SUB #1, AR1, AR2 ; |1057| 
||      MOV #3, AR3

        CMPU AR2 <= AR3, TC1 ; |1057| 
        BCC $C$L73,TC1 ; |1057| 
                                        ; branchcc occurs ; |1057| 
        MOV #8, AR2
        CMP AR1 == AR2, TC1 ; |1057| 
        BCC $C$L68,TC1 ; |1057| 
                                        ; branchcc occurs ; |1057| 

        SUB #9, AR1, AR1 ; |1057| 
||      MOV #3, AR2

        CMPU AR1 <= AR2, TC1 ; |1057| 
        BCC $C$L69,TC1 ; |1057| 
                                        ; branchcc occurs ; |1057| 
        B $C$L76  ; |1057| 
                                        ; branch occurs ; |1057| 
$C$L78:    
	.dwpsn	file "../c5535_bsl_revc/ezdsp5535_v1/c55xx_csl/src/csl_usb.c",line 1115,column 3,is_stmt
        MOV dbl(*SP(#0)), XAR3
        MOV *AR3, AR1 ; |1115| 

        MOV AR1, AC0
||      MOV #7, AR2

        SFTS AC0, #-2, AC0 ; |1115| 
||      NOT AR2, AR2 ; |1115| 

        BFXTR #0xe000, AC0, AR3 ; |1115| 
        ADD AR1, AR3 ; |1115| 
        AND AR3, AR2 ; |1115| 
        MOV dbl(*SP(#8)), XAR3
        MOV AR1, HI(AC0)
        MOV HI(AC0), AR1
        MOV dbl(*AR3(#98)), XAR3
        SUB AR2, AR1 ; |1115| 
        MOV AR1, HI(AC0)
        MPYK #18, AC0, AC0 ; |1115| 
        MOV AC0, AR1 ; |1115| 

        MOV XAR3, dbl(*SP(#10))
||      AADD AR1, AR3 ; |1115| 

	.dwpsn	file "../c5535_bsl_revc/ezdsp5535_v1/c55xx_csl/src/csl_usb.c",line 1116,column 3,is_stmt
        MOV dbl(*SP(#0)), XAR3
        MOV *AR3(short(#1)), AR1 ; |1116| 
        MOV dbl(*SP(#10)), XAR3
        MOV AR1, *AR3(short(#2)) ; |1116| 
	.dwpsn	file "../c5535_bsl_revc/ezdsp5535_v1/c55xx_csl/src/csl_usb.c",line 1118,column 3,is_stmt
        MOV dbl(*SP(#10)), XAR3
        MOV dbl(*AR3), AC0 ; |1118| 
        BCC $C$L79,AC0 != #0 ; |1118| 
                                        ; branchcc occurs ; |1118| 
        MOV *SP(#2), AR1 ; |1118| 
        BCC $C$L79,AR1 != #0 ; |1118| 
                                        ; branchcc occurs ; |1118| 
	.dwpsn	file "../c5535_bsl_revc/ezdsp5535_v1/c55xx_csl/src/csl_usb.c",line 1120,column 4,is_stmt
        MOV #0, T0
        B $C$L84  ; |1120| 
                                        ; branch occurs ; |1120| 
$C$L79:    
	.dwpsn	file "../c5535_bsl_revc/ezdsp5535_v1/c55xx_csl/src/csl_usb.c",line 1123,column 3,is_stmt
        MOV XAR3, AC0
        BCC $C$L83,AC0 == #0 ; |1123| 
                                        ; branchcc occurs ; |1123| 
	.dwpsn	file "../c5535_bsl_revc/ezdsp5535_v1/c55xx_csl/src/csl_usb.c",line 1125,column 4,is_stmt
        MOV dbl(*SP(#10)), XAR2
        MOV dbl(*SP(#12)), XAR3
        MOV XAR3, dbl(*AR2(#10))
	.dwpsn	file "../c5535_bsl_revc/ezdsp5535_v1/c55xx_csl/src/csl_usb.c",line 1127,column 4,is_stmt
        MOV dbl(*SP(#10)), XAR3
        MOV dbl(*AR3(#10)), XAR3
        MOV XAR3, AC0
        BCC $C$L80,AC0 == #0 ; |1127| 
                                        ; branchcc occurs ; |1127| 
        MOV dbl(*SP(#10)), XAR3
        MOV dbl(*AR3(#10)), XAR3
        CMP *AR3(#12) == #1, TC1 ; |1127| 
        BCC $C$L80,!TC1 ; |1127| 
                                        ; branchcc occurs ; |1127| 
        MOV dbl(*SP(#8)), XAR3
        CMP *AR3(#23) == #1, TC1 ; |1127| 
        BCC $C$L80,!TC1 ; |1127| 
                                        ; branchcc occurs ; |1127| 
        CMP *AR3(short(#2)) == #1, TC1 ; |1127| 
        BCC $C$L81,TC1 ; |1127| 
                                        ; branchcc occurs ; |1127| 
$C$L80:    
	.dwpsn	file "../c5535_bsl_revc/ezdsp5535_v1/c55xx_csl/src/csl_usb.c",line 1132,column 5,is_stmt
        MOV #-6, T0
        B $C$L84  ; |1132| 
                                        ; branch occurs ; |1132| 
$C$L81:    
	.dwpsn	file "../c5535_bsl_revc/ezdsp5535_v1/c55xx_csl/src/csl_usb.c",line 1135,column 4,is_stmt
        MOV dbl(*SP(#12)), XAR3
        MOV dbl(*SP(#10)), XAR2
        AADD #2, AR3 ; |1135| 
        MOV dbl(*AR2), dbl(*AR3) ; |1135| 
	.dwpsn	file "../c5535_bsl_revc/ezdsp5535_v1/c55xx_csl/src/csl_usb.c",line 1136,column 4,is_stmt
        MOV dbl(*SP(#12)), XAR3
        MOV dbl(*SP(#4)), XAR2
        MOV XAR2, dbl(*AR3(short(#4)))
	.dwpsn	file "../c5535_bsl_revc/ezdsp5535_v1/c55xx_csl/src/csl_usb.c",line 1137,column 4,is_stmt
        MOV dbl(*SP(#12)), XAR3
        MOV uns(*SP(#2)), AC0 ; |1137| 
        MOV AC0, dbl(*AR3(short(#6))) ; |1137| 
	.dwpsn	file "../c5535_bsl_revc/ezdsp5535_v1/c55xx_csl/src/csl_usb.c",line 1138,column 4,is_stmt
        MOV dbl(*SP(#12)), XAR3
        MOV #0, AC0 ; |1138| 
        MOV AC0, dbl(*AR3(#8)) ; |1138| 
	.dwpsn	file "../c5535_bsl_revc/ezdsp5535_v1/c55xx_csl/src/csl_usb.c",line 1139,column 4,is_stmt
        MOV dbl(*SP(#12)), XAR3
        MOV #0, *AR3(#12) ; |1139| 
	.dwpsn	file "../c5535_bsl_revc/ezdsp5535_v1/c55xx_csl/src/csl_usb.c",line 1140,column 4,is_stmt
        MOV dbl(*SP(#12)), XAR3
        MOV *SP(#6), AR1 ; |1140| 
        MOV AR1, *AR3(#13) ; |1140| 
	.dwpsn	file "../c5535_bsl_revc/ezdsp5535_v1/c55xx_csl/src/csl_usb.c",line 1143,column 4,is_stmt
        MOV dbl(*SP(#8)), XAR3
        MOV dbl(*SP(#8)), XAR0
        MOV dbl(*SP(#10)), XAR1
        MOV dbl(*AR3(#114)), AC0 ; |1143| 
$C$DW$149	.dwtag  DW_TAG_TI_branch
	.dwattr $C$DW$149, DW_AT_low_pc(0x00)
	.dwattr $C$DW$149, DW_AT_TI_call
	.dwattr $C$DW$149, DW_AT_TI_indirect
        CALL AC0  ; |1143| 
                                        ; call occurs [AC0] ; |1143| 
        MOV T0, *SP(#15) ; |1143| 
	.dwpsn	file "../c5535_bsl_revc/ezdsp5535_v1/c55xx_csl/src/csl_usb.c",line 1145,column 2,is_stmt
        B $C$L83  ; |1145| 
                                        ; branch occurs ; |1145| 
$C$L82:    
	.dwpsn	file "../c5535_bsl_revc/ezdsp5535_v1/c55xx_csl/src/csl_usb.c",line 1148,column 3,is_stmt
        MOV #-5, *SP(#15) ; |1148| 
$C$L83:    
	.dwpsn	file "../c5535_bsl_revc/ezdsp5535_v1/c55xx_csl/src/csl_usb.c",line 1151,column 2,is_stmt
        MOV *SP(#15), T0 ; |1151| 
$C$L84:    
	.dwpsn	file "../c5535_bsl_revc/ezdsp5535_v1/c55xx_csl/src/csl_usb.c",line 1152,column 1,is_stmt
        AADD #17, SP
	.dwcfi	cfa_offset, 1
$C$DW$150	.dwtag  DW_TAG_TI_branch
	.dwattr $C$DW$150, DW_AT_low_pc(0x00)
	.dwattr $C$DW$150, DW_AT_TI_return
        RET
                                        ; return occurs
	.dwattr $C$DW$135, DW_AT_TI_end_file("../c5535_bsl_revc/ezdsp5535_v1/c55xx_csl/src/csl_usb.c")
	.dwattr $C$DW$135, DW_AT_TI_end_line(0x480)
	.dwattr $C$DW$135, DW_AT_TI_end_column(0x01)
	.dwendentry
	.dwendtag $C$DW$135

	.sect	".text"
	.align 4
	.global	_USB_isTransactionDone

$C$DW$151	.dwtag  DW_TAG_subprogram, DW_AT_name("USB_isTransactionDone")
	.dwattr $C$DW$151, DW_AT_low_pc(_USB_isTransactionDone)
	.dwattr $C$DW$151, DW_AT_high_pc(0x00)
	.dwattr $C$DW$151, DW_AT_TI_symbol_name("_USB_isTransactionDone")
	.dwattr $C$DW$151, DW_AT_external
	.dwattr $C$DW$151, DW_AT_type(*$C$DW$T$88)
	.dwattr $C$DW$151, DW_AT_TI_begin_file("../c5535_bsl_revc/ezdsp5535_v1/c55xx_csl/src/csl_usb.c")
	.dwattr $C$DW$151, DW_AT_TI_begin_line(0x4ba)
	.dwattr $C$DW$151, DW_AT_TI_begin_column(0x10)
	.dwattr $C$DW$151, DW_AT_TI_max_frame_size(0x0a)
	.dwpsn	file "../c5535_bsl_revc/ezdsp5535_v1/c55xx_csl/src/csl_usb.c",line 1212,column 1,is_stmt,address _USB_isTransactionDone

	.dwfde $C$DW$CIE, _USB_isTransactionDone
$C$DW$152	.dwtag  DW_TAG_formal_parameter, DW_AT_name("hEp")
	.dwattr $C$DW$152, DW_AT_TI_symbol_name("_hEp")
	.dwattr $C$DW$152, DW_AT_type(*$C$DW$T$102)
	.dwattr $C$DW$152, DW_AT_location[DW_OP_reg17]
$C$DW$153	.dwtag  DW_TAG_formal_parameter, DW_AT_name("status")
	.dwattr $C$DW$153, DW_AT_TI_symbol_name("_status")
	.dwattr $C$DW$153, DW_AT_type(*$C$DW$T$124)
	.dwattr $C$DW$153, DW_AT_location[DW_OP_reg19]
;*******************************************************************************
;* FUNCTION NAME: USB_isTransactionDone                                        *
;*                                                                             *
;*   Function Uses Regs : AC0,AC0,T0,AR0,XAR0,AR1,XAR1,AR2,AR3,XAR3,SP,CARRY,  *
;*                        TC1,M40,SATA,SATD,RDM,FRCT,SMUL                      *
;*   Stack Frame        : Compact (No Frame Pointer, w/ debug)                 *
;*   Total Frame Size   : 10 words                                             *
;*                        (2 return address/alignment)                         *
;*                        (8 local values)                                     *
;*   Min System Stack   : 1 word                                               *
;*******************************************************************************
_USB_isTransactionDone:
	.dwcfi	cfa_offset, 1
	.dwcfi	save_reg_to_mem, 91, -1
        AADD #-9, SP
	.dwcfi	cfa_offset, 10
$C$DW$154	.dwtag  DW_TAG_variable, DW_AT_name("hEp")
	.dwattr $C$DW$154, DW_AT_TI_symbol_name("_hEp")
	.dwattr $C$DW$154, DW_AT_type(*$C$DW$T$102)
	.dwattr $C$DW$154, DW_AT_location[DW_OP_bregx 0x24 0]
$C$DW$155	.dwtag  DW_TAG_variable, DW_AT_name("status")
	.dwattr $C$DW$155, DW_AT_TI_symbol_name("_status")
	.dwattr $C$DW$155, DW_AT_type(*$C$DW$T$124)
	.dwattr $C$DW$155, DW_AT_location[DW_OP_bregx 0x24 2]
$C$DW$156	.dwtag  DW_TAG_variable, DW_AT_name("peps")
	.dwattr $C$DW$156, DW_AT_TI_symbol_name("_peps")
	.dwattr $C$DW$156, DW_AT_type(*$C$DW$T$147)
	.dwattr $C$DW$156, DW_AT_location[DW_OP_bregx 0x24 4]
$C$DW$157	.dwtag  DW_TAG_variable, DW_AT_name("pContext")
	.dwattr $C$DW$157, DW_AT_TI_symbol_name("_pContext")
	.dwattr $C$DW$157, DW_AT_type(*$C$DW$T$142)
	.dwattr $C$DW$157, DW_AT_location[DW_OP_bregx 0x24 6]
        MOV XAR1, dbl(*SP(#2))
        MOV XAR0, dbl(*SP(#0))
	.dwpsn	file "../c5535_bsl_revc/ezdsp5535_v1/c55xx_csl/src/csl_usb.c",line 1216,column 5,is_stmt
        MOV dbl(*SP(#2)), XAR3
        MOV #0, *AR3 ; |1216| 
	.dwpsn	file "../c5535_bsl_revc/ezdsp5535_v1/c55xx_csl/src/csl_usb.c",line 1217,column 5,is_stmt
        AMOV #_gUsbContext, XAR3 ; |1217| 
        MOV XAR3, dbl(*SP(#6))
	.dwpsn	file "../c5535_bsl_revc/ezdsp5535_v1/c55xx_csl/src/csl_usb.c",line 1218,column 5,is_stmt
        MOV #0, AC0 ; |1218| 
        MOV AC0, dbl(*SP(#4))
	.dwpsn	file "../c5535_bsl_revc/ezdsp5535_v1/c55xx_csl/src/csl_usb.c",line 1220,column 2,is_stmt
        MOV dbl(*SP(#0)), XAR3
        MOV XAR3, AC0
        BCC $C$L86,AC0 == #0 ; |1220| 
                                        ; branchcc occurs ; |1220| 
	.dwpsn	file "../c5535_bsl_revc/ezdsp5535_v1/c55xx_csl/src/csl_usb.c",line 1222,column 3,is_stmt
        MOV *AR3, AR1 ; |1222| 

        MOV AR1, AC0
||      MOV #7, AR2

        SFTS AC0, #-2, AC0 ; |1222| 
||      NOT AR2, AR2 ; |1222| 

        BFXTR #0xe000, AC0, AR3 ; |1222| 
        ADD AR1, AR3 ; |1222| 
        AND AR3, AR2 ; |1222| 
        MOV dbl(*SP(#6)), XAR3
        MOV AR1, HI(AC0)
        MOV HI(AC0), AR1
        MOV dbl(*AR3(#98)), XAR3
        SUB AR2, AR1 ; |1222| 
        MOV AR1, HI(AC0)
        MPYK #18, AC0, AC0 ; |1222| 
        MOV AC0, AR1 ; |1222| 

        MOV XAR3, dbl(*SP(#4))
||      AADD AR1, AR3 ; |1222| 

	.dwpsn	file "../c5535_bsl_revc/ezdsp5535_v1/c55xx_csl/src/csl_usb.c",line 1224,column 3,is_stmt
        MOV dbl(*AR3(#10)), XAR3
        MOV XAR3, AC0
        BCC $C$L85,AC0 == #0 ; |1224| 
                                        ; branchcc occurs ; |1224| 
	.dwpsn	file "../c5535_bsl_revc/ezdsp5535_v1/c55xx_csl/src/csl_usb.c",line 1226,column 4,is_stmt
        MOV dbl(*SP(#4)), XAR3
        MOV dbl(*AR3(#10)), XAR3
        CMP *AR3(#12) == #1, TC1 ; |1226| 
        BCC $C$L87,TC1 ; |1226| 
                                        ; branchcc occurs ; |1226| 
	.dwpsn	file "../c5535_bsl_revc/ezdsp5535_v1/c55xx_csl/src/csl_usb.c",line 1228,column 5,is_stmt
        MOV #0, T0
        B $C$L88  ; |1228| 
                                        ; branch occurs ; |1228| 
$C$L85:    
	.dwpsn	file "../c5535_bsl_revc/ezdsp5535_v1/c55xx_csl/src/csl_usb.c",line 1233,column 4,is_stmt
        MOV dbl(*SP(#2)), XAR3
        MOV #-6, *AR3 ; |1233| 
	.dwpsn	file "../c5535_bsl_revc/ezdsp5535_v1/c55xx_csl/src/csl_usb.c",line 1235,column 2,is_stmt
        B $C$L87  ; |1235| 
                                        ; branch occurs ; |1235| 
$C$L86:    
	.dwpsn	file "../c5535_bsl_revc/ezdsp5535_v1/c55xx_csl/src/csl_usb.c",line 1238,column 3,is_stmt
        MOV dbl(*SP(#2)), XAR3
        MOV #-5, *AR3 ; |1238| 
$C$L87:    
	.dwpsn	file "../c5535_bsl_revc/ezdsp5535_v1/c55xx_csl/src/csl_usb.c",line 1241,column 2,is_stmt
        MOV #1, T0
$C$L88:    
	.dwpsn	file "../c5535_bsl_revc/ezdsp5535_v1/c55xx_csl/src/csl_usb.c",line 1242,column 1,is_stmt
        AADD #9, SP
	.dwcfi	cfa_offset, 1
$C$DW$158	.dwtag  DW_TAG_TI_branch
	.dwattr $C$DW$158, DW_AT_low_pc(0x00)
	.dwattr $C$DW$158, DW_AT_TI_return
        RET
                                        ; return occurs
	.dwattr $C$DW$151, DW_AT_TI_end_file("../c5535_bsl_revc/ezdsp5535_v1/c55xx_csl/src/csl_usb.c")
	.dwattr $C$DW$151, DW_AT_TI_end_line(0x4da)
	.dwattr $C$DW$151, DW_AT_TI_end_column(0x01)
	.dwendentry
	.dwendtag $C$DW$151

	.sect	".text"
	.align 4
	.global	_USB_bytesRemaining

$C$DW$159	.dwtag  DW_TAG_subprogram, DW_AT_name("USB_bytesRemaining")
	.dwattr $C$DW$159, DW_AT_low_pc(_USB_bytesRemaining)
	.dwattr $C$DW$159, DW_AT_high_pc(0x00)
	.dwattr $C$DW$159, DW_AT_TI_symbol_name("_USB_bytesRemaining")
	.dwattr $C$DW$159, DW_AT_external
	.dwattr $C$DW$159, DW_AT_type(*$C$DW$T$173)
	.dwattr $C$DW$159, DW_AT_TI_begin_file("../c5535_bsl_revc/ezdsp5535_v1/c55xx_csl/src/csl_usb.c")
	.dwattr $C$DW$159, DW_AT_TI_begin_line(0x511)
	.dwattr $C$DW$159, DW_AT_TI_begin_column(0x12)
	.dwattr $C$DW$159, DW_AT_TI_max_frame_size(0x0c)
	.dwpsn	file "../c5535_bsl_revc/ezdsp5535_v1/c55xx_csl/src/csl_usb.c",line 1299,column 1,is_stmt,address _USB_bytesRemaining

	.dwfde $C$DW$CIE, _USB_bytesRemaining
$C$DW$160	.dwtag  DW_TAG_formal_parameter, DW_AT_name("hEp")
	.dwattr $C$DW$160, DW_AT_TI_symbol_name("_hEp")
	.dwattr $C$DW$160, DW_AT_type(*$C$DW$T$102)
	.dwattr $C$DW$160, DW_AT_location[DW_OP_reg17]
$C$DW$161	.dwtag  DW_TAG_formal_parameter, DW_AT_name("status")
	.dwattr $C$DW$161, DW_AT_TI_symbol_name("_status")
	.dwattr $C$DW$161, DW_AT_type(*$C$DW$T$124)
	.dwattr $C$DW$161, DW_AT_location[DW_OP_reg19]
;*******************************************************************************
;* FUNCTION NAME: USB_bytesRemaining                                           *
;*                                                                             *
;*   Function Uses Regs : AC0,AC0,T0,AR0,XAR0,AR1,XAR1,AR2,AR3,XAR3,SP,CARRY,  *
;*                        M40,SATA,SATD,RDM,FRCT,SMUL                          *
;*   Stack Frame        : Compact (No Frame Pointer, w/ debug)                 *
;*   Total Frame Size   : 12 words                                             *
;*                        (2 return address/alignment)                         *
;*                        (10 local values)                                    *
;*   Min System Stack   : 1 word                                               *
;*******************************************************************************
_USB_bytesRemaining:
	.dwcfi	cfa_offset, 1
	.dwcfi	save_reg_to_mem, 91, -1
        AADD #-11, SP
	.dwcfi	cfa_offset, 12
$C$DW$162	.dwtag  DW_TAG_variable, DW_AT_name("hEp")
	.dwattr $C$DW$162, DW_AT_TI_symbol_name("_hEp")
	.dwattr $C$DW$162, DW_AT_type(*$C$DW$T$102)
	.dwattr $C$DW$162, DW_AT_location[DW_OP_bregx 0x24 0]
$C$DW$163	.dwtag  DW_TAG_variable, DW_AT_name("status")
	.dwattr $C$DW$163, DW_AT_TI_symbol_name("_status")
	.dwattr $C$DW$163, DW_AT_type(*$C$DW$T$124)
	.dwattr $C$DW$163, DW_AT_location[DW_OP_bregx 0x24 2]
$C$DW$164	.dwtag  DW_TAG_variable, DW_AT_name("peps")
	.dwattr $C$DW$164, DW_AT_TI_symbol_name("_peps")
	.dwattr $C$DW$164, DW_AT_type(*$C$DW$T$147)
	.dwattr $C$DW$164, DW_AT_location[DW_OP_bregx 0x24 4]
$C$DW$165	.dwtag  DW_TAG_variable, DW_AT_name("bytesRem")
	.dwattr $C$DW$165, DW_AT_TI_symbol_name("_bytesRem")
	.dwattr $C$DW$165, DW_AT_type(*$C$DW$T$173)
	.dwattr $C$DW$165, DW_AT_location[DW_OP_bregx 0x24 6]
$C$DW$166	.dwtag  DW_TAG_variable, DW_AT_name("pContext")
	.dwattr $C$DW$166, DW_AT_TI_symbol_name("_pContext")
	.dwattr $C$DW$166, DW_AT_type(*$C$DW$T$142)
	.dwattr $C$DW$166, DW_AT_location[DW_OP_bregx 0x24 8]
        MOV XAR1, dbl(*SP(#2))
        MOV XAR0, dbl(*SP(#0))
	.dwpsn	file "../c5535_bsl_revc/ezdsp5535_v1/c55xx_csl/src/csl_usb.c",line 1304,column 2,is_stmt
        MOV dbl(*SP(#2)), XAR3
        MOV #0, *AR3 ; |1304| 
	.dwpsn	file "../c5535_bsl_revc/ezdsp5535_v1/c55xx_csl/src/csl_usb.c",line 1305,column 2,is_stmt
        MOV #0, *SP(#6) ; |1305| 
	.dwpsn	file "../c5535_bsl_revc/ezdsp5535_v1/c55xx_csl/src/csl_usb.c",line 1306,column 2,is_stmt
        MOV #0, AC0 ; |1306| 
        MOV AC0, dbl(*SP(#4))
	.dwpsn	file "../c5535_bsl_revc/ezdsp5535_v1/c55xx_csl/src/csl_usb.c",line 1307,column 2,is_stmt
        AMOV #_gUsbContext, XAR3 ; |1307| 
        MOV XAR3, dbl(*SP(#8))
	.dwpsn	file "../c5535_bsl_revc/ezdsp5535_v1/c55xx_csl/src/csl_usb.c",line 1309,column 5,is_stmt
        MOV dbl(*SP(#0)), XAR3
        MOV XAR3, AC0
        BCC $C$L90,AC0 == #0 ; |1309| 
                                        ; branchcc occurs ; |1309| 
	.dwpsn	file "../c5535_bsl_revc/ezdsp5535_v1/c55xx_csl/src/csl_usb.c",line 1311,column 3,is_stmt
        MOV *AR3, AR1 ; |1311| 

        MOV AR1, AC0
||      MOV #7, AR2

        SFTS AC0, #-2, AC0 ; |1311| 
||      NOT AR2, AR2 ; |1311| 

        BFXTR #0xe000, AC0, AR3 ; |1311| 
        ADD AR1, AR3 ; |1311| 
        AND AR3, AR2 ; |1311| 
        MOV dbl(*SP(#8)), XAR3
        MOV AR1, HI(AC0)
        MOV HI(AC0), AR1
        MOV dbl(*AR3(#98)), XAR3
        SUB AR2, AR1 ; |1311| 
        MOV AR1, HI(AC0)
        MPYK #18, AC0, AC0 ; |1311| 
        MOV AC0, AR1 ; |1311| 

        MOV XAR3, dbl(*SP(#4))
||      AADD AR1, AR3 ; |1311| 

	.dwpsn	file "../c5535_bsl_revc/ezdsp5535_v1/c55xx_csl/src/csl_usb.c",line 1312,column 3,is_stmt
        MOV XAR3, AC0
        BCC $C$L89,AC0 == #0 ; |1312| 
                                        ; branchcc occurs ; |1312| 
        MOV dbl(*AR3(#10)), XAR3
        MOV XAR3, AC0
        BCC $C$L89,AC0 == #0 ; |1312| 
                                        ; branchcc occurs ; |1312| 
	.dwpsn	file "../c5535_bsl_revc/ezdsp5535_v1/c55xx_csl/src/csl_usb.c",line 1314,column 4,is_stmt
        MOV dbl(*SP(#4)), XAR3
        MOV dbl(*AR3(#10)), XAR3
        MOV dbl(*AR3(#8)), AC0 ; |1314| 
        MOV dbl(*SP(#4)), XAR3
        MOV dbl(*AR3(#10)), XAR3
        SUB AC0, dbl(*AR3(short(#6))), AC0 ; |1314| 
        MOV AC0, *SP(#6) ; |1314| 
	.dwpsn	file "../c5535_bsl_revc/ezdsp5535_v1/c55xx_csl/src/csl_usb.c",line 1316,column 3,is_stmt
        B $C$L91  ; |1316| 
                                        ; branch occurs ; |1316| 
$C$L89:    
	.dwpsn	file "../c5535_bsl_revc/ezdsp5535_v1/c55xx_csl/src/csl_usb.c",line 1319,column 4,is_stmt
        MOV dbl(*SP(#2)), XAR3
        MOV #-6, *AR3 ; |1319| 
	.dwpsn	file "../c5535_bsl_revc/ezdsp5535_v1/c55xx_csl/src/csl_usb.c",line 1321,column 2,is_stmt
        B $C$L91  ; |1321| 
                                        ; branch occurs ; |1321| 
$C$L90:    
	.dwpsn	file "../c5535_bsl_revc/ezdsp5535_v1/c55xx_csl/src/csl_usb.c",line 1324,column 3,is_stmt
        MOV dbl(*SP(#2)), XAR3
        MOV #-5, *AR3 ; |1324| 
$C$L91:    
	.dwpsn	file "../c5535_bsl_revc/ezdsp5535_v1/c55xx_csl/src/csl_usb.c",line 1327,column 2,is_stmt
        MOV *SP(#6), T0 ; |1327| 
	.dwpsn	file "../c5535_bsl_revc/ezdsp5535_v1/c55xx_csl/src/csl_usb.c",line 1328,column 1,is_stmt
        AADD #11, SP
	.dwcfi	cfa_offset, 1
$C$DW$167	.dwtag  DW_TAG_TI_branch
	.dwattr $C$DW$167, DW_AT_low_pc(0x00)
	.dwattr $C$DW$167, DW_AT_TI_return
        RET
                                        ; return occurs
	.dwattr $C$DW$159, DW_AT_TI_end_file("../c5535_bsl_revc/ezdsp5535_v1/c55xx_csl/src/csl_usb.c")
	.dwattr $C$DW$159, DW_AT_TI_end_line(0x530)
	.dwattr $C$DW$159, DW_AT_TI_end_column(0x01)
	.dwendentry
	.dwendtag $C$DW$159

	.sect	".text"
	.align 4
	.global	_USB_stallEndpt

$C$DW$168	.dwtag  DW_TAG_subprogram, DW_AT_name("USB_stallEndpt")
	.dwattr $C$DW$168, DW_AT_low_pc(_USB_stallEndpt)
	.dwattr $C$DW$168, DW_AT_high_pc(0x00)
	.dwattr $C$DW$168, DW_AT_TI_symbol_name("_USB_stallEndpt")
	.dwattr $C$DW$168, DW_AT_external
	.dwattr $C$DW$168, DW_AT_type(*$C$DW$T$75)
	.dwattr $C$DW$168, DW_AT_TI_begin_file("../c5535_bsl_revc/ezdsp5535_v1/c55xx_csl/src/csl_usb.c")
	.dwattr $C$DW$168, DW_AT_TI_begin_line(0x55e)
	.dwattr $C$DW$168, DW_AT_TI_begin_column(0x0c)
	.dwattr $C$DW$168, DW_AT_TI_max_frame_size(0x0a)
	.dwpsn	file "../c5535_bsl_revc/ezdsp5535_v1/c55xx_csl/src/csl_usb.c",line 1375,column 1,is_stmt,address _USB_stallEndpt

	.dwfde $C$DW$CIE, _USB_stallEndpt
$C$DW$169	.dwtag  DW_TAG_formal_parameter, DW_AT_name("hEp")
	.dwattr $C$DW$169, DW_AT_TI_symbol_name("_hEp")
	.dwattr $C$DW$169, DW_AT_type(*$C$DW$T$102)
	.dwattr $C$DW$169, DW_AT_location[DW_OP_reg17]
;*******************************************************************************
;* FUNCTION NAME: USB_stallEndpt                                               *
;*                                                                             *
;*   Function Uses Regs : AC0,AC0,AC1,AC1,T0,AR0,XAR0,AR1,AR2,AR3,XAR3,SP,     *
;*                        CARRY,TC1,M40,SATA,SATD,RDM,FRCT,SMUL                *
;*   Stack Frame        : Compact (No Frame Pointer, w/ debug)                 *
;*   Total Frame Size   : 10 words                                             *
;*                        (2 return address/alignment)                         *
;*                        (8 local values)                                     *
;*   Min System Stack   : 1 word                                               *
;*******************************************************************************
_USB_stallEndpt:
	.dwcfi	cfa_offset, 1
	.dwcfi	save_reg_to_mem, 91, -1
        AADD #-9, SP
	.dwcfi	cfa_offset, 10
$C$DW$170	.dwtag  DW_TAG_variable, DW_AT_name("hEp")
	.dwattr $C$DW$170, DW_AT_TI_symbol_name("_hEp")
	.dwattr $C$DW$170, DW_AT_type(*$C$DW$T$102)
	.dwattr $C$DW$170, DW_AT_location[DW_OP_bregx 0x24 0]
$C$DW$171	.dwtag  DW_TAG_variable, DW_AT_name("peps")
	.dwattr $C$DW$171, DW_AT_TI_symbol_name("_peps")
	.dwattr $C$DW$171, DW_AT_type(*$C$DW$T$147)
	.dwattr $C$DW$171, DW_AT_location[DW_OP_bregx 0x24 2]
$C$DW$172	.dwtag  DW_TAG_variable, DW_AT_name("status")
	.dwattr $C$DW$172, DW_AT_TI_symbol_name("_status")
	.dwattr $C$DW$172, DW_AT_type(*$C$DW$T$75)
	.dwattr $C$DW$172, DW_AT_location[DW_OP_bregx 0x24 4]
$C$DW$173	.dwtag  DW_TAG_variable, DW_AT_name("saveIndex")
	.dwattr $C$DW$173, DW_AT_TI_symbol_name("_saveIndex")
	.dwattr $C$DW$173, DW_AT_type(*$C$DW$T$19)
	.dwattr $C$DW$173, DW_AT_location[DW_OP_bregx 0x24 5]
$C$DW$174	.dwtag  DW_TAG_variable, DW_AT_name("pContext")
	.dwattr $C$DW$174, DW_AT_TI_symbol_name("_pContext")
	.dwattr $C$DW$174, DW_AT_type(*$C$DW$T$142)
	.dwattr $C$DW$174, DW_AT_location[DW_OP_bregx 0x24 6]
        MOV XAR0, dbl(*SP(#0))
	.dwpsn	file "../c5535_bsl_revc/ezdsp5535_v1/c55xx_csl/src/csl_usb.c",line 1381,column 2,is_stmt
        MOV #0, *SP(#4) ; |1381| 
	.dwpsn	file "../c5535_bsl_revc/ezdsp5535_v1/c55xx_csl/src/csl_usb.c",line 1382,column 2,is_stmt
        MOV #0, *SP(#5) ; |1382| 
	.dwpsn	file "../c5535_bsl_revc/ezdsp5535_v1/c55xx_csl/src/csl_usb.c",line 1383,column 2,is_stmt
        MOV #0, AC0 ; |1383| 
        MOV AC0, dbl(*SP(#2))
	.dwpsn	file "../c5535_bsl_revc/ezdsp5535_v1/c55xx_csl/src/csl_usb.c",line 1384,column 2,is_stmt
        AMOV #_gUsbContext, XAR3 ; |1384| 
        MOV XAR3, dbl(*SP(#6))
	.dwpsn	file "../c5535_bsl_revc/ezdsp5535_v1/c55xx_csl/src/csl_usb.c",line 1386,column 2,is_stmt
        MOV dbl(*SP(#0)), XAR3
        MOV XAR3, AC0
        BCC $C$L96,AC0 == #0 ; |1386| 
                                        ; branchcc occurs ; |1386| 
	.dwpsn	file "../c5535_bsl_revc/ezdsp5535_v1/c55xx_csl/src/csl_usb.c",line 1388,column 3,is_stmt
        CMP *AR3 == #8, TC1 ; |1388| 
        BCC $C$L92,!TC1 ; |1388| 
                                        ; branchcc occurs ; |1388| 
	.dwpsn	file "../c5535_bsl_revc/ezdsp5535_v1/c55xx_csl/src/csl_usb.c",line 1390,column 4,is_stmt
        MOV *SP(#4), T0 ; |1390| 
        B $C$L98  ; |1390| 
                                        ; branch occurs ; |1390| 
$C$L92:    
	.dwpsn	file "../c5535_bsl_revc/ezdsp5535_v1/c55xx_csl/src/csl_usb.c",line 1393,column 3,is_stmt
        MOV *AR3, AR1 ; |1393| 

        MOV AR1, AC0
||      MOV #7, AR2

        SFTS AC0, #-2, AC0 ; |1393| 
||      NOT AR2, AR2 ; |1393| 

        BFXTR #0xe000, AC0, AR3 ; |1393| 
        ADD AR1, AR3 ; |1393| 
        AND AR3, AR2 ; |1393| 
        MOV dbl(*SP(#6)), XAR3
        MOV AR1, HI(AC0)
        MOV HI(AC0), AR1
        MOV dbl(*AR3(#98)), XAR3
        SUB AR2, AR1 ; |1393| 
        MOV AR1, HI(AC0)
        MPYK #18, AC0, AC0 ; |1393| 
        MOV AC0, AR1 ; |1393| 

        MOV XAR3, dbl(*SP(#2))
||      AADD AR1, AR3 ; |1393| 

	.dwpsn	file "../c5535_bsl_revc/ezdsp5535_v1/c55xx_csl/src/csl_usb.c",line 1395,column 3,is_stmt
        MOV XAR3, AC0
        BCC $C$L95,AC0 == #0 ; |1395| 
                                        ; branchcc occurs ; |1395| 
        CMP *AR3(short(#6)) == #1, TC1 ; |1395| 
        BCC $C$L95,!TC1 ; |1395| 
                                        ; branchcc occurs ; |1395| 
	.dwpsn	file "../c5535_bsl_revc/ezdsp5535_v1/c55xx_csl/src/csl_usb.c",line 1398,column 4,is_stmt
        MOV #1038, T0 ; |1398| 
        MOV *(#_usbRegisters), AR3 ; |1398| 
        MOV port(*AR3(T0)), AR1 ; |1398| 
        MOV AR1, *SP(#5) ; |1398| 
	.dwpsn	file "../c5535_bsl_revc/ezdsp5535_v1/c55xx_csl/src/csl_usb.c",line 1399,column 4,is_stmt
        MOV dbl(*SP(#2)), XAR3
        MOV #1, *AR3(#16) ; |1399| 
	.dwpsn	file "../c5535_bsl_revc/ezdsp5535_v1/c55xx_csl/src/csl_usb.c",line 1401,column 4,is_stmt
        MOV dbl(*SP(#2)), XAR3
        MOV dbl(*AR3), AC0 ; |1401| 
        BCC $C$L93,AC0 != #0 ; |1401| 
                                        ; branchcc occurs ; |1401| 
	.dwpsn	file "../c5535_bsl_revc/ezdsp5535_v1/c55xx_csl/src/csl_usb.c",line 1404,column 5,is_stmt
        MOV *(#_usbRegisters), AR3 ; |1404| 
        MOV port(*AR3(T0)), AR1 ; |1404| 
        AND #0xfff0, AR1, AC0 ; |1404| 
        MOV AC0, port(*AR3(T0)) ; |1404| 
	.dwpsn	file "../c5535_bsl_revc/ezdsp5535_v1/c55xx_csl/src/csl_usb.c",line 1408,column 5,is_stmt
        MOV *(#_usbRegisters), AR3 ; |1408| 
        MOV port(*AR3(T0)), AR1 ; |1408| 
        AND #0xfff0, AR1, AC0 ; |1408| 
        MOV AC0, port(*AR3(T0)) ; |1408| 
	.dwpsn	file "../c5535_bsl_revc/ezdsp5535_v1/c55xx_csl/src/csl_usb.c",line 1412,column 5,is_stmt
        MOV #1042, T0 ; |1412| 
        MOV *(#_usbRegisters), AR3 ; |1412| 
        MOV port(*AR3(T0)), AR1 ; |1412| 
        BCLR @#5, AR1 ; |1412| 
        BSET @#5, AR1 ; |1412| 
        MOV AR1, port(*AR3(T0)) ; |1412| 
	.dwpsn	file "../c5535_bsl_revc/ezdsp5535_v1/c55xx_csl/src/csl_usb.c",line 1414,column 4,is_stmt
        B $C$L97  ; |1414| 
                                        ; branch occurs ; |1414| 
$C$L93:    
	.dwpsn	file "../c5535_bsl_revc/ezdsp5535_v1/c55xx_csl/src/csl_usb.c",line 1417,column 5,is_stmt
        MOV dbl(*SP(#0)), XAR3

        MOV *AR3, AR1 ; |1417| 
||      MOV #8, AR2

        CMP AR1 <= AR2, TC1 ; |1417| 
        BCC $C$L94,TC1 ; |1417| 
                                        ; branchcc occurs ; |1417| 
	.dwpsn	file "../c5535_bsl_revc/ezdsp5535_v1/c55xx_csl/src/csl_usb.c",line 1420,column 12,is_stmt
        MOV *(#_usbRegisters), AR3 ; |1420| 
        MOV port(*AR3(T0)), AR1 ; |1420| 
        AND #0xfff0, AR1, AC0 ; |1420| 
        MOV AC0, port(*AR3(T0)) ; |1420| 
	.dwpsn	file "../c5535_bsl_revc/ezdsp5535_v1/c55xx_csl/src/csl_usb.c",line 1424,column 6,is_stmt
        MOV *(#_usbRegisters), AR3 ; |1424| 
        MOV port(*AR3(T0)), AR1 ; |1424| 
        MOV dbl(*SP(#2)), XAR3
        MOV dbl(*AR3), AC0 ; |1424| 
        MOV *(#_usbRegisters), AR3 ; |1424| 
        AND #0xfff0, AR1, AC1 ; |1424| 
        AND #0x000f, AC0, AC0 ; |1424| 
        OR AC1, AC0 ; |1424| 
        MOV AC0, port(*AR3(T0)) ; |1424| 
	.dwpsn	file "../c5535_bsl_revc/ezdsp5535_v1/c55xx_csl/src/csl_usb.c",line 1428,column 6,is_stmt
        MOV #1042, T0 ; |1428| 
        MOV *(#_usbRegisters), AR3 ; |1428| 
        MOV port(*AR3(T0)), AR1 ; |1428| 
        BCLR @#4, AR1 ; |1428| 
        BSET @#4, AR1 ; |1428| 
        MOV AR1, port(*AR3(T0)) ; |1428| 
	.dwpsn	file "../c5535_bsl_revc/ezdsp5535_v1/c55xx_csl/src/csl_usb.c",line 1430,column 5,is_stmt
        B $C$L97  ; |1430| 
                                        ; branch occurs ; |1430| 
$C$L94:    
	.dwpsn	file "../c5535_bsl_revc/ezdsp5535_v1/c55xx_csl/src/csl_usb.c",line 1434,column 12,is_stmt
        MOV *(#_usbRegisters), AR3 ; |1434| 
        MOV port(*AR3(T0)), AR1 ; |1434| 
        AND #0xfff0, AR1, AC0 ; |1434| 
        MOV AC0, port(*AR3(T0)) ; |1434| 
	.dwpsn	file "../c5535_bsl_revc/ezdsp5535_v1/c55xx_csl/src/csl_usb.c",line 1438,column 6,is_stmt
        MOV *(#_usbRegisters), AR3 ; |1438| 
        MOV port(*AR3(T0)), AR1 ; |1438| 
        MOV dbl(*SP(#2)), XAR3
        MOV dbl(*AR3), AC0 ; |1438| 
        MOV *(#_usbRegisters), AR3 ; |1438| 
        AND #0xfff0, AR1, AC1 ; |1438| 
        AND #0x000f, AC0, AC0 ; |1438| 
        OR AC1, AC0 ; |1438| 
        MOV AC0, port(*AR3(T0)) ; |1438| 
	.dwpsn	file "../c5535_bsl_revc/ezdsp5535_v1/c55xx_csl/src/csl_usb.c",line 1442,column 6,is_stmt
        MOV #1046, T0 ; |1442| 
        MOV *(#_usbRegisters), AR3 ; |1442| 
        MOV port(*AR3(T0)), AR1 ; |1442| 
        BCLR @#5, AR1 ; |1442| 
        BSET @#5, AR1 ; |1442| 
        MOV AR1, port(*AR3(T0)) ; |1442| 
	.dwpsn	file "../c5535_bsl_revc/ezdsp5535_v1/c55xx_csl/src/csl_usb.c",line 1446,column 3,is_stmt
        B $C$L97  ; |1446| 
                                        ; branch occurs ; |1446| 
$C$L95:    
	.dwpsn	file "../c5535_bsl_revc/ezdsp5535_v1/c55xx_csl/src/csl_usb.c",line 1449,column 13,is_stmt
        MOV #-6, *SP(#4) ; |1449| 
	.dwpsn	file "../c5535_bsl_revc/ezdsp5535_v1/c55xx_csl/src/csl_usb.c",line 1451,column 2,is_stmt
        B $C$L97  ; |1451| 
                                        ; branch occurs ; |1451| 
$C$L96:    
	.dwpsn	file "../c5535_bsl_revc/ezdsp5535_v1/c55xx_csl/src/csl_usb.c",line 1454,column 3,is_stmt
        MOV #-5, *SP(#4) ; |1454| 
$C$L97:    
	.dwpsn	file "../c5535_bsl_revc/ezdsp5535_v1/c55xx_csl/src/csl_usb.c",line 1458,column 2,is_stmt
        MOV *(#_usbRegisters), AR3 ; |1458| 
        MOV #1038, T0 ; |1458| 
        MOV *SP(#5), AR1 ; |1458| 
        MOV AR1, port(*AR3(T0)) ; |1458| 
	.dwpsn	file "../c5535_bsl_revc/ezdsp5535_v1/c55xx_csl/src/csl_usb.c",line 1460,column 2,is_stmt
        MOV *SP(#4), T0 ; |1460| 
$C$L98:    
	.dwpsn	file "../c5535_bsl_revc/ezdsp5535_v1/c55xx_csl/src/csl_usb.c",line 1461,column 1,is_stmt
        AADD #9, SP
	.dwcfi	cfa_offset, 1
$C$DW$175	.dwtag  DW_TAG_TI_branch
	.dwattr $C$DW$175, DW_AT_low_pc(0x00)
	.dwattr $C$DW$175, DW_AT_TI_return
        RET
                                        ; return occurs
	.dwattr $C$DW$168, DW_AT_TI_end_file("../c5535_bsl_revc/ezdsp5535_v1/c55xx_csl/src/csl_usb.c")
	.dwattr $C$DW$168, DW_AT_TI_end_line(0x5b5)
	.dwattr $C$DW$168, DW_AT_TI_end_column(0x01)
	.dwendentry
	.dwendtag $C$DW$168

	.sect	".text"
	.align 4
	.global	_USB_clearEndptStall

$C$DW$176	.dwtag  DW_TAG_subprogram, DW_AT_name("USB_clearEndptStall")
	.dwattr $C$DW$176, DW_AT_low_pc(_USB_clearEndptStall)
	.dwattr $C$DW$176, DW_AT_high_pc(0x00)
	.dwattr $C$DW$176, DW_AT_TI_symbol_name("_USB_clearEndptStall")
	.dwattr $C$DW$176, DW_AT_external
	.dwattr $C$DW$176, DW_AT_type(*$C$DW$T$75)
	.dwattr $C$DW$176, DW_AT_TI_begin_file("../c5535_bsl_revc/ezdsp5535_v1/c55xx_csl/src/csl_usb.c")
	.dwattr $C$DW$176, DW_AT_TI_begin_line(0x5e8)
	.dwattr $C$DW$176, DW_AT_TI_begin_column(0x0c)
	.dwattr $C$DW$176, DW_AT_TI_max_frame_size(0x0c)
	.dwpsn	file "../c5535_bsl_revc/ezdsp5535_v1/c55xx_csl/src/csl_usb.c",line 1513,column 1,is_stmt,address _USB_clearEndptStall

	.dwfde $C$DW$CIE, _USB_clearEndptStall
$C$DW$177	.dwtag  DW_TAG_formal_parameter, DW_AT_name("hEp")
	.dwattr $C$DW$177, DW_AT_TI_symbol_name("_hEp")
	.dwattr $C$DW$177, DW_AT_type(*$C$DW$T$102)
	.dwattr $C$DW$177, DW_AT_location[DW_OP_reg17]
;*******************************************************************************
;* FUNCTION NAME: USB_clearEndptStall                                          *
;*                                                                             *
;*   Function Uses Regs : AC0,AC0,T0,AR0,XAR0,AR1,AR2,AR3,XAR3,SP,CARRY,TC1,   *
;*                        M40,SATA,SATD,RDM,FRCT,SMUL                          *
;*   Stack Frame        : Compact (No Frame Pointer, w/ debug)                 *
;*   Total Frame Size   : 12 words                                             *
;*                        (2 return address/alignment)                         *
;*                        (10 local values)                                    *
;*   Min System Stack   : 1 word                                               *
;*******************************************************************************
_USB_clearEndptStall:
	.dwcfi	cfa_offset, 1
	.dwcfi	save_reg_to_mem, 91, -1
        AADD #-11, SP
	.dwcfi	cfa_offset, 12
$C$DW$178	.dwtag  DW_TAG_variable, DW_AT_name("hEp")
	.dwattr $C$DW$178, DW_AT_TI_symbol_name("_hEp")
	.dwattr $C$DW$178, DW_AT_type(*$C$DW$T$102)
	.dwattr $C$DW$178, DW_AT_location[DW_OP_bregx 0x24 0]
$C$DW$179	.dwtag  DW_TAG_variable, DW_AT_name("status")
	.dwattr $C$DW$179, DW_AT_TI_symbol_name("_status")
	.dwattr $C$DW$179, DW_AT_type(*$C$DW$T$75)
	.dwattr $C$DW$179, DW_AT_location[DW_OP_bregx 0x24 2]
$C$DW$180	.dwtag  DW_TAG_variable, DW_AT_name("peps")
	.dwattr $C$DW$180, DW_AT_TI_symbol_name("_peps")
	.dwattr $C$DW$180, DW_AT_type(*$C$DW$T$147)
	.dwattr $C$DW$180, DW_AT_location[DW_OP_bregx 0x24 4]
$C$DW$181	.dwtag  DW_TAG_variable, DW_AT_name("pContext")
	.dwattr $C$DW$181, DW_AT_TI_symbol_name("_pContext")
	.dwattr $C$DW$181, DW_AT_type(*$C$DW$T$142)
	.dwattr $C$DW$181, DW_AT_location[DW_OP_bregx 0x24 6]
$C$DW$182	.dwtag  DW_TAG_variable, DW_AT_name("endPtCount")
	.dwattr $C$DW$182, DW_AT_TI_symbol_name("_endPtCount")
	.dwattr $C$DW$182, DW_AT_type(*$C$DW$T$19)
	.dwattr $C$DW$182, DW_AT_location[DW_OP_bregx 0x24 8]
$C$DW$183	.dwtag  DW_TAG_variable, DW_AT_name("saveIndex")
	.dwattr $C$DW$183, DW_AT_TI_symbol_name("_saveIndex")
	.dwattr $C$DW$183, DW_AT_type(*$C$DW$T$19)
	.dwattr $C$DW$183, DW_AT_location[DW_OP_bregx 0x24 9]
        MOV XAR0, dbl(*SP(#0))
	.dwpsn	file "../c5535_bsl_revc/ezdsp5535_v1/c55xx_csl/src/csl_usb.c",line 1520,column 2,is_stmt
        MOV #0, *SP(#2) ; |1520| 
	.dwpsn	file "../c5535_bsl_revc/ezdsp5535_v1/c55xx_csl/src/csl_usb.c",line 1521,column 2,is_stmt
        MOV #0, AC0 ; |1521| 
        MOV AC0, dbl(*SP(#4))
	.dwpsn	file "../c5535_bsl_revc/ezdsp5535_v1/c55xx_csl/src/csl_usb.c",line 1522,column 2,is_stmt
        MOV #8, *SP(#8) ; |1522| 
	.dwpsn	file "../c5535_bsl_revc/ezdsp5535_v1/c55xx_csl/src/csl_usb.c",line 1523,column 2,is_stmt
        AMOV #_gUsbContext, XAR3 ; |1523| 
        MOV XAR3, dbl(*SP(#6))
	.dwpsn	file "../c5535_bsl_revc/ezdsp5535_v1/c55xx_csl/src/csl_usb.c",line 1525,column 2,is_stmt
        MOV dbl(*SP(#0)), XAR3
        MOV XAR3, AC0
        BCC $C$L102,AC0 == #0 ; |1525| 
                                        ; branchcc occurs ; |1525| 
	.dwpsn	file "../c5535_bsl_revc/ezdsp5535_v1/c55xx_csl/src/csl_usb.c",line 1527,column 3,is_stmt
        MOV *AR3, AR1 ; |1527| 

        MOV AR1, AC0
||      MOV #7, AR2

        SFTS AC0, #-2, AC0 ; |1527| 
||      NOT AR2, AR2 ; |1527| 

        BFXTR #0xe000, AC0, AR3 ; |1527| 
        ADD AR1, AR3 ; |1527| 
        AND AR3, AR2 ; |1527| 
        MOV dbl(*SP(#6)), XAR3
        MOV AR1, HI(AC0)
        MOV HI(AC0), AR1
        MOV dbl(*AR3(#98)), XAR3
        SUB AR2, AR1 ; |1527| 
        MOV AR1, HI(AC0)
        MPYK #18, AC0, AC0 ; |1527| 
        MOV AC0, AR1 ; |1527| 

        MOV XAR3, dbl(*SP(#4))
||      AADD AR1, AR3 ; |1527| 

	.dwpsn	file "../c5535_bsl_revc/ezdsp5535_v1/c55xx_csl/src/csl_usb.c",line 1529,column 3,is_stmt
        MOV XAR3, AC0
        BCC $C$L101,AC0 == #0 ; |1529| 
                                        ; branchcc occurs ; |1529| 
        CMP *AR3(short(#6)) == #1, TC1 ; |1529| 
        BCC $C$L101,!TC1 ; |1529| 
                                        ; branchcc occurs ; |1529| 
	.dwpsn	file "../c5535_bsl_revc/ezdsp5535_v1/c55xx_csl/src/csl_usb.c",line 1531,column 4,is_stmt
        MOV #1038, T0 ; |1531| 
        MOV *(#_usbRegisters), AR3 ; |1531| 
        MOV port(*AR3(T0)), AR1 ; |1531| 
        MOV AR1, *SP(#9) ; |1531| 
	.dwpsn	file "../c5535_bsl_revc/ezdsp5535_v1/c55xx_csl/src/csl_usb.c",line 1533,column 4,is_stmt
        MOV dbl(*SP(#0)), XAR3
        MOV *AR3, AR1 ; |1533| 

        MOV AR1, AC0
||      MOV #7, AR2

        SFTS AC0, #-2, AC0 ; |1533| 
||      NOT AR2, AR2 ; |1533| 

        BFXTR #0xe000, AC0, AR3 ; |1533| 
        ADD AR1, AR3 ; |1533| 
        AND AR3, AR2 ; |1533| 
        SUB AR2, AR1 ; |1533| 
        MOV AR1, *SP(#8) ; |1533| 
	.dwpsn	file "../c5535_bsl_revc/ezdsp5535_v1/c55xx_csl/src/csl_usb.c",line 1534,column 4,is_stmt
        MOV dbl(*SP(#4)), XAR3
        MOV #0, *AR3(#16) ; |1534| 
	.dwpsn	file "../c5535_bsl_revc/ezdsp5535_v1/c55xx_csl/src/csl_usb.c",line 1536,column 4,is_stmt
        MOV dbl(*SP(#4)), XAR3
        MOV dbl(*AR3), AC0 ; |1536| 
        BCC $C$L99,AC0 != #0 ; |1536| 
                                        ; branchcc occurs ; |1536| 
	.dwpsn	file "../c5535_bsl_revc/ezdsp5535_v1/c55xx_csl/src/csl_usb.c",line 1539,column 5,is_stmt
        MOV *(#_usbRegisters), AR3 ; |1539| 
        MOV port(*AR3(T0)), AR1 ; |1539| 
        AND #0xfff0, AR1, AC0 ; |1539| 
        MOV AC0, port(*AR3(T0)) ; |1539| 
	.dwpsn	file "../c5535_bsl_revc/ezdsp5535_v1/c55xx_csl/src/csl_usb.c",line 1543,column 5,is_stmt
        MOV *(#_usbRegisters), AR3 ; |1543| 
        MOV port(*AR3(T0)), AR1 ; |1543| 
        AND #0xfff0, AR1, AC0 ; |1543| 
        MOV AC0, port(*AR3(T0)) ; |1543| 
	.dwpsn	file "../c5535_bsl_revc/ezdsp5535_v1/c55xx_csl/src/csl_usb.c",line 1548,column 5,is_stmt
        MOV #1042, T0 ; |1548| 
        MOV *(#_usbRegisters), AR3 ; |1548| 
        MOV port(*AR3(T0)), AR1 ; |1548| 
        BCLR @#8, AR1 ; |1548| 
        BSET @#8, AR1 ; |1548| 
        MOV AR1, port(*AR3(T0)) ; |1548| 
	.dwpsn	file "../c5535_bsl_revc/ezdsp5535_v1/c55xx_csl/src/csl_usb.c",line 1552,column 5,is_stmt
        MOV *(#_usbRegisters), AR3 ; |1552| 
        MOV port(*AR3(T0)), AR1 ; |1552| 
        BCLR @#2, AR1 ; |1552| 
        MOV AR1, port(*AR3(T0)) ; |1552| 
	.dwpsn	file "../c5535_bsl_revc/ezdsp5535_v1/c55xx_csl/src/csl_usb.c",line 1555,column 5,is_stmt
        MOV *(#_usbRegisters), AR3 ; |1555| 
        MOV port(*AR3(T0)), AR1 ; |1555| 
        BCLR @#4, AR1 ; |1555| 
        MOV AR1, port(*AR3(T0)) ; |1555| 
	.dwpsn	file "../c5535_bsl_revc/ezdsp5535_v1/c55xx_csl/src/csl_usb.c",line 1557,column 4,is_stmt
        B $C$L103 ; |1557| 
                                        ; branch occurs ; |1557| 
$C$L99:    
	.dwpsn	file "../c5535_bsl_revc/ezdsp5535_v1/c55xx_csl/src/csl_usb.c",line 1560,column 5,is_stmt
        MOV dbl(*SP(#0)), XAR3

        MOV *AR3, AR1 ; |1560| 
||      MOV #8, AR2

        CMP AR1 <= AR2, TC1 ; |1560| 
        BCC $C$L100,TC1 ; |1560| 
                                        ; branchcc occurs ; |1560| 
	.dwpsn	file "../c5535_bsl_revc/ezdsp5535_v1/c55xx_csl/src/csl_usb.c",line 1562,column 6,is_stmt
        MOV *(#_usbRegisters), AR3 ; |1562| 
        MOV port(*AR3(T0)), AR1 ; |1562| 
        AND #0xfff0, AR1, AC0 ; |1562| 
        MOV AC0, port(*AR3(T0)) ; |1562| 
	.dwpsn	file "../c5535_bsl_revc/ezdsp5535_v1/c55xx_csl/src/csl_usb.c",line 1566,column 6,is_stmt
        MOV *(#_usbRegisters), AR3 ; |1566| 
        MOV port(*AR3(T0)), AR1 ; |1566| 
        AND #0xfff0, AR1, AR2 ; |1566| 
        MOV *SP(#8), AR1 ; |1566| 
        AND #0x000f, AR1, AR1 ; |1566| 
        OR AR2, AR1 ; |1566| 
        MOV AR1, port(*AR3(T0)) ; |1566| 
	.dwpsn	file "../c5535_bsl_revc/ezdsp5535_v1/c55xx_csl/src/csl_usb.c",line 1571,column 6,is_stmt
        MOV #1042, T0 ; |1571| 
        MOV *(#_usbRegisters), AR3 ; |1571| 
        MOV port(*AR3(T0)), AR1 ; |1571| 
        BCLR @#3, AR1 ; |1571| 
        BSET @#3, AR1 ; |1571| 
        MOV AR1, port(*AR3(T0)) ; |1571| 
	.dwpsn	file "../c5535_bsl_revc/ezdsp5535_v1/c55xx_csl/src/csl_usb.c",line 1575,column 6,is_stmt
        MOV *(#_usbRegisters), AR3 ; |1575| 
        MOV port(*AR3(T0)), AR1 ; |1575| 
        BCLR @#6, AR1 ; |1575| 
        BSET @#6, AR1 ; |1575| 
        MOV AR1, port(*AR3(T0)) ; |1575| 
	.dwpsn	file "../c5535_bsl_revc/ezdsp5535_v1/c55xx_csl/src/csl_usb.c",line 1579,column 6,is_stmt
        MOV *(#_usbRegisters), AR3 ; |1579| 
        MOV port(*AR3(T0)), AR1 ; |1579| 
        BCLR @#5, AR1 ; |1579| 
        MOV AR1, port(*AR3(T0)) ; |1579| 
	.dwpsn	file "../c5535_bsl_revc/ezdsp5535_v1/c55xx_csl/src/csl_usb.c",line 1582,column 6,is_stmt
        MOV *(#_usbRegisters), AR3 ; |1582| 
        MOV port(*AR3(T0)), AR1 ; |1582| 
        BCLR @#4, AR1 ; |1582| 
        MOV AR1, port(*AR3(T0)) ; |1582| 
	.dwpsn	file "../c5535_bsl_revc/ezdsp5535_v1/c55xx_csl/src/csl_usb.c",line 1584,column 5,is_stmt
        B $C$L103 ; |1584| 
                                        ; branch occurs ; |1584| 
$C$L100:    
	.dwpsn	file "../c5535_bsl_revc/ezdsp5535_v1/c55xx_csl/src/csl_usb.c",line 1587,column 6,is_stmt
        MOV *(#_usbRegisters), AR3 ; |1587| 
        MOV port(*AR3(T0)), AR1 ; |1587| 
        AND #0xfff0, AR1, AC0 ; |1587| 
        MOV AC0, port(*AR3(T0)) ; |1587| 
	.dwpsn	file "../c5535_bsl_revc/ezdsp5535_v1/c55xx_csl/src/csl_usb.c",line 1591,column 6,is_stmt
        MOV *(#_usbRegisters), AR3 ; |1591| 
        MOV port(*AR3(T0)), AR1 ; |1591| 
        AND #0xfff0, AR1, AR2 ; |1591| 
        MOV *SP(#8), AR1 ; |1591| 
        AND #0x000f, AR1, AR1 ; |1591| 
        OR AR2, AR1 ; |1591| 
        MOV AR1, port(*AR3(T0)) ; |1591| 
	.dwpsn	file "../c5535_bsl_revc/ezdsp5535_v1/c55xx_csl/src/csl_usb.c",line 1596,column 6,is_stmt
        MOV #1046, T0 ; |1596| 
        MOV *(#_usbRegisters), AR3 ; |1596| 
        MOV port(*AR3(T0)), AR1 ; |1596| 
        BCLR @#4, AR1 ; |1596| 
        BSET @#4, AR1 ; |1596| 
        MOV AR1, port(*AR3(T0)) ; |1596| 
	.dwpsn	file "../c5535_bsl_revc/ezdsp5535_v1/c55xx_csl/src/csl_usb.c",line 1600,column 6,is_stmt
        MOV *(#_usbRegisters), AR3 ; |1600| 
        MOV port(*AR3(T0)), AR1 ; |1600| 
        BCLR @#7, AR1 ; |1600| 
        BSET @#7, AR1 ; |1600| 
        MOV AR1, port(*AR3(T0)) ; |1600| 
	.dwpsn	file "../c5535_bsl_revc/ezdsp5535_v1/c55xx_csl/src/csl_usb.c",line 1604,column 6,is_stmt
        MOV *(#_usbRegisters), AR3 ; |1604| 
        MOV port(*AR3(T0)), AR1 ; |1604| 
        BCLR @#6, AR1 ; |1604| 
        MOV AR1, port(*AR3(T0)) ; |1604| 
	.dwpsn	file "../c5535_bsl_revc/ezdsp5535_v1/c55xx_csl/src/csl_usb.c",line 1607,column 6,is_stmt
        MOV *(#_usbRegisters), AR3 ; |1607| 
        MOV port(*AR3(T0)), AR1 ; |1607| 
        BCLR @#5, AR1 ; |1607| 
        MOV AR1, port(*AR3(T0)) ; |1607| 
	.dwpsn	file "../c5535_bsl_revc/ezdsp5535_v1/c55xx_csl/src/csl_usb.c",line 1611,column 3,is_stmt
        B $C$L103 ; |1611| 
                                        ; branch occurs ; |1611| 
$C$L101:    
	.dwpsn	file "../c5535_bsl_revc/ezdsp5535_v1/c55xx_csl/src/csl_usb.c",line 1614,column 4,is_stmt
        MOV #-6, *SP(#2) ; |1614| 
	.dwpsn	file "../c5535_bsl_revc/ezdsp5535_v1/c55xx_csl/src/csl_usb.c",line 1616,column 2,is_stmt
        B $C$L103 ; |1616| 
                                        ; branch occurs ; |1616| 
$C$L102:    
	.dwpsn	file "../c5535_bsl_revc/ezdsp5535_v1/c55xx_csl/src/csl_usb.c",line 1619,column 3,is_stmt
        MOV #-5, *SP(#2) ; |1619| 
$C$L103:    
	.dwpsn	file "../c5535_bsl_revc/ezdsp5535_v1/c55xx_csl/src/csl_usb.c",line 1623,column 2,is_stmt
        MOV *(#_usbRegisters), AR3 ; |1623| 
        MOV #1038, T0 ; |1623| 
        MOV *SP(#9), AR1 ; |1623| 
        MOV AR1, port(*AR3(T0)) ; |1623| 
	.dwpsn	file "../c5535_bsl_revc/ezdsp5535_v1/c55xx_csl/src/csl_usb.c",line 1625,column 2,is_stmt
        MOV *SP(#2), T0 ; |1625| 
	.dwpsn	file "../c5535_bsl_revc/ezdsp5535_v1/c55xx_csl/src/csl_usb.c",line 1626,column 1,is_stmt
        AADD #11, SP
	.dwcfi	cfa_offset, 1
$C$DW$184	.dwtag  DW_TAG_TI_branch
	.dwattr $C$DW$184, DW_AT_low_pc(0x00)
	.dwattr $C$DW$184, DW_AT_TI_return
        RET
                                        ; return occurs
	.dwattr $C$DW$176, DW_AT_TI_end_file("../c5535_bsl_revc/ezdsp5535_v1/c55xx_csl/src/csl_usb.c")
	.dwattr $C$DW$176, DW_AT_TI_end_line(0x65a)
	.dwattr $C$DW$176, DW_AT_TI_end_column(0x01)
	.dwendentry
	.dwendtag $C$DW$176

	.sect	".text"
	.align 4
	.global	_USB_getEndptStall

$C$DW$185	.dwtag  DW_TAG_subprogram, DW_AT_name("USB_getEndptStall")
	.dwattr $C$DW$185, DW_AT_low_pc(_USB_getEndptStall)
	.dwattr $C$DW$185, DW_AT_high_pc(0x00)
	.dwattr $C$DW$185, DW_AT_TI_symbol_name("_USB_getEndptStall")
	.dwattr $C$DW$185, DW_AT_external
	.dwattr $C$DW$185, DW_AT_type(*$C$DW$T$88)
	.dwattr $C$DW$185, DW_AT_TI_begin_file("../c5535_bsl_revc/ezdsp5535_v1/c55xx_csl/src/csl_usb.c")
	.dwattr $C$DW$185, DW_AT_TI_begin_line(0x68e)
	.dwattr $C$DW$185, DW_AT_TI_begin_column(0x10)
	.dwattr $C$DW$185, DW_AT_TI_max_frame_size(0x0c)
	.dwpsn	file "../c5535_bsl_revc/ezdsp5535_v1/c55xx_csl/src/csl_usb.c",line 1680,column 1,is_stmt,address _USB_getEndptStall

	.dwfde $C$DW$CIE, _USB_getEndptStall
$C$DW$186	.dwtag  DW_TAG_formal_parameter, DW_AT_name("hEp")
	.dwattr $C$DW$186, DW_AT_TI_symbol_name("_hEp")
	.dwattr $C$DW$186, DW_AT_type(*$C$DW$T$102)
	.dwattr $C$DW$186, DW_AT_location[DW_OP_reg17]
$C$DW$187	.dwtag  DW_TAG_formal_parameter, DW_AT_name("status")
	.dwattr $C$DW$187, DW_AT_TI_symbol_name("_status")
	.dwattr $C$DW$187, DW_AT_type(*$C$DW$T$124)
	.dwattr $C$DW$187, DW_AT_location[DW_OP_reg19]
;*******************************************************************************
;* FUNCTION NAME: USB_getEndptStall                                            *
;*                                                                             *
;*   Function Uses Regs : AC0,AC0,AC1,AC1,T0,AR0,XAR0,AR1,XAR1,AR2,AR3,XAR3,SP,*
;*                        CARRY,TC1,M40,SATA,SATD,RDM,FRCT,SMUL                *
;*   Stack Frame        : Compact (No Frame Pointer, w/ debug)                 *
;*   Total Frame Size   : 12 words                                             *
;*                        (2 return address/alignment)                         *
;*                        (10 local values)                                    *
;*   Min System Stack   : 1 word                                               *
;*******************************************************************************
_USB_getEndptStall:
	.dwcfi	cfa_offset, 1
	.dwcfi	save_reg_to_mem, 91, -1
        AADD #-11, SP
	.dwcfi	cfa_offset, 12
$C$DW$188	.dwtag  DW_TAG_variable, DW_AT_name("hEp")
	.dwattr $C$DW$188, DW_AT_TI_symbol_name("_hEp")
	.dwattr $C$DW$188, DW_AT_type(*$C$DW$T$102)
	.dwattr $C$DW$188, DW_AT_location[DW_OP_bregx 0x24 0]
$C$DW$189	.dwtag  DW_TAG_variable, DW_AT_name("status")
	.dwattr $C$DW$189, DW_AT_TI_symbol_name("_status")
	.dwattr $C$DW$189, DW_AT_type(*$C$DW$T$124)
	.dwattr $C$DW$189, DW_AT_location[DW_OP_bregx 0x24 2]
$C$DW$190	.dwtag  DW_TAG_variable, DW_AT_name("peps")
	.dwattr $C$DW$190, DW_AT_TI_symbol_name("_peps")
	.dwattr $C$DW$190, DW_AT_type(*$C$DW$T$147)
	.dwattr $C$DW$190, DW_AT_location[DW_OP_bregx 0x24 4]
$C$DW$191	.dwtag  DW_TAG_variable, DW_AT_name("fStalled")
	.dwattr $C$DW$191, DW_AT_TI_symbol_name("_fStalled")
	.dwattr $C$DW$191, DW_AT_type(*$C$DW$T$88)
	.dwattr $C$DW$191, DW_AT_location[DW_OP_bregx 0x24 6]
$C$DW$192	.dwtag  DW_TAG_variable, DW_AT_name("pContext")
	.dwattr $C$DW$192, DW_AT_TI_symbol_name("_pContext")
	.dwattr $C$DW$192, DW_AT_type(*$C$DW$T$142)
	.dwattr $C$DW$192, DW_AT_location[DW_OP_bregx 0x24 8]
        MOV XAR1, dbl(*SP(#2))
        MOV XAR0, dbl(*SP(#0))
	.dwpsn	file "../c5535_bsl_revc/ezdsp5535_v1/c55xx_csl/src/csl_usb.c",line 1685,column 2,is_stmt
        MOV dbl(*SP(#2)), XAR3
        MOV #0, *AR3 ; |1685| 
	.dwpsn	file "../c5535_bsl_revc/ezdsp5535_v1/c55xx_csl/src/csl_usb.c",line 1686,column 2,is_stmt
        MOV #0, *SP(#6) ; |1686| 
	.dwpsn	file "../c5535_bsl_revc/ezdsp5535_v1/c55xx_csl/src/csl_usb.c",line 1687,column 2,is_stmt
        MOV #0, AC0 ; |1687| 
        MOV AC0, dbl(*SP(#4))
	.dwpsn	file "../c5535_bsl_revc/ezdsp5535_v1/c55xx_csl/src/csl_usb.c",line 1688,column 2,is_stmt
        AMOV #_gUsbContext, XAR3 ; |1688| 
        MOV XAR3, dbl(*SP(#8))
	.dwpsn	file "../c5535_bsl_revc/ezdsp5535_v1/c55xx_csl/src/csl_usb.c",line 1690,column 2,is_stmt
        MOV dbl(*SP(#0)), XAR3
        MOV XAR3, AC0
        BCC $C$L105,AC0 == #0 ; |1690| 
                                        ; branchcc occurs ; |1690| 
	.dwpsn	file "../c5535_bsl_revc/ezdsp5535_v1/c55xx_csl/src/csl_usb.c",line 1692,column 3,is_stmt
        MOV *AR3, AR1 ; |1692| 

        MOV AR1, AC0
||      MOV #7, AR2

        SFTS AC0, #-2, AC0 ; |1692| 
||      NOT AR2, AR2 ; |1692| 

        BFXTR #0xe000, AC0, AR3 ; |1692| 
        ADD AR1, AR3 ; |1692| 
        AND AR3, AR2 ; |1692| 
        MOV dbl(*SP(#8)), XAR3
        MOV AR1, HI(AC0)
        MOV HI(AC0), AR1
        MOV dbl(*AR3(#98)), XAR3
        SUB AR2, AR1 ; |1692| 
        MOV AR1, HI(AC0)
        MPYK #18, AC0, AC0 ; |1692| 
        MOV AC0, AR1 ; |1692| 

        MOV XAR3, dbl(*SP(#4))
||      AADD AR1, AR3 ; |1692| 

	.dwpsn	file "../c5535_bsl_revc/ezdsp5535_v1/c55xx_csl/src/csl_usb.c",line 1694,column 3,is_stmt
        MOV XAR3, AC0
        BCC $C$L104,AC0 == #0 ; |1694| 
                                        ; branchcc occurs ; |1694| 
	.dwpsn	file "../c5535_bsl_revc/ezdsp5535_v1/c55xx_csl/src/csl_usb.c",line 1696,column 4,is_stmt

        MOV dbl(*AR3), AC1 ; |1696| 
||      MOV #8, AC0 ; |1696| 

        CMPU AC1 >= AC0, TC1 ; |1696| 
        BCC $C$L106,TC1 ; |1696| 
                                        ; branchcc occurs ; |1696| 
	.dwpsn	file "../c5535_bsl_revc/ezdsp5535_v1/c55xx_csl/src/csl_usb.c",line 1698,column 5,is_stmt
        MOV *AR3(#16), AR1 ; |1698| 
        MOV AR1, *SP(#6) ; |1698| 
	.dwpsn	file "../c5535_bsl_revc/ezdsp5535_v1/c55xx_csl/src/csl_usb.c",line 1700,column 3,is_stmt
        B $C$L106 ; |1700| 
                                        ; branch occurs ; |1700| 
$C$L104:    
	.dwpsn	file "../c5535_bsl_revc/ezdsp5535_v1/c55xx_csl/src/csl_usb.c",line 1703,column 4,is_stmt
        MOV dbl(*SP(#2)), XAR3
        MOV #-6, *AR3 ; |1703| 
	.dwpsn	file "../c5535_bsl_revc/ezdsp5535_v1/c55xx_csl/src/csl_usb.c",line 1705,column 2,is_stmt
        B $C$L106 ; |1705| 
                                        ; branch occurs ; |1705| 
$C$L105:    
	.dwpsn	file "../c5535_bsl_revc/ezdsp5535_v1/c55xx_csl/src/csl_usb.c",line 1708,column 3,is_stmt
        MOV dbl(*SP(#2)), XAR3
        MOV #-5, *AR3 ; |1708| 
$C$L106:    
	.dwpsn	file "../c5535_bsl_revc/ezdsp5535_v1/c55xx_csl/src/csl_usb.c",line 1711,column 2,is_stmt
        MOV *SP(#6), T0 ; |1711| 
	.dwpsn	file "../c5535_bsl_revc/ezdsp5535_v1/c55xx_csl/src/csl_usb.c",line 1712,column 1,is_stmt
        AADD #11, SP
	.dwcfi	cfa_offset, 1
$C$DW$193	.dwtag  DW_TAG_TI_branch
	.dwattr $C$DW$193, DW_AT_low_pc(0x00)
	.dwattr $C$DW$193, DW_AT_TI_return
        RET
                                        ; return occurs
	.dwattr $C$DW$185, DW_AT_TI_end_file("../c5535_bsl_revc/ezdsp5535_v1/c55xx_csl/src/csl_usb.c")
	.dwattr $C$DW$185, DW_AT_TI_end_line(0x6b0)
	.dwattr $C$DW$185, DW_AT_TI_end_column(0x01)
	.dwendentry
	.dwendtag $C$DW$185

	.sect	".text"
	.align 4
	.global	_USB_epNumToHandle

$C$DW$194	.dwtag  DW_TAG_subprogram, DW_AT_name("USB_epNumToHandle")
	.dwattr $C$DW$194, DW_AT_low_pc(_USB_epNumToHandle)
	.dwattr $C$DW$194, DW_AT_high_pc(0x00)
	.dwattr $C$DW$194, DW_AT_TI_symbol_name("_USB_epNumToHandle")
	.dwattr $C$DW$194, DW_AT_external
	.dwattr $C$DW$194, DW_AT_type(*$C$DW$T$102)
	.dwattr $C$DW$194, DW_AT_TI_begin_file("../c5535_bsl_revc/ezdsp5535_v1/c55xx_csl/src/csl_usb.c")
	.dwattr $C$DW$194, DW_AT_TI_begin_line(0x6df)
	.dwattr $C$DW$194, DW_AT_TI_begin_column(0x0e)
	.dwattr $C$DW$194, DW_AT_TI_max_frame_size(0x08)
	.dwpsn	file "../c5535_bsl_revc/ezdsp5535_v1/c55xx_csl/src/csl_usb.c",line 1761,column 1,is_stmt,address _USB_epNumToHandle

	.dwfde $C$DW$CIE, _USB_epNumToHandle
$C$DW$195	.dwtag  DW_TAG_formal_parameter, DW_AT_name("devNum")
	.dwattr $C$DW$195, DW_AT_TI_symbol_name("_devNum")
	.dwattr $C$DW$195, DW_AT_type(*$C$DW$T$68)
	.dwattr $C$DW$195, DW_AT_location[DW_OP_reg12]
$C$DW$196	.dwtag  DW_TAG_formal_parameter, DW_AT_name("endpt")
	.dwattr $C$DW$196, DW_AT_TI_symbol_name("_endpt")
	.dwattr $C$DW$196, DW_AT_type(*$C$DW$T$19)
	.dwattr $C$DW$196, DW_AT_location[DW_OP_reg13]
;*******************************************************************************
;* FUNCTION NAME: USB_epNumToHandle                                            *
;*                                                                             *
;*   Function Uses Regs : AC0,AC0,T0,T1,AR0,XAR0,AR1,AR2,AR3,XAR3,SP,CARRY,TC1,*
;*                        M40,SATA,SATD,RDM,FRCT,SMUL                          *
;*   Stack Frame        : Compact (No Frame Pointer, w/ debug)                 *
;*   Total Frame Size   : 8 words                                              *
;*                        (1 return address/alignment)                         *
;*                        (7 local values)                                     *
;*   Min System Stack   : 1 word                                               *
;*******************************************************************************
_USB_epNumToHandle:
	.dwcfi	cfa_offset, 1
	.dwcfi	save_reg_to_mem, 91, -1
        AADD #-7, SP
	.dwcfi	cfa_offset, 8
$C$DW$197	.dwtag  DW_TAG_variable, DW_AT_name("devNum")
	.dwattr $C$DW$197, DW_AT_TI_symbol_name("_devNum")
	.dwattr $C$DW$197, DW_AT_type(*$C$DW$T$68)
	.dwattr $C$DW$197, DW_AT_location[DW_OP_bregx 0x24 0]
$C$DW$198	.dwtag  DW_TAG_variable, DW_AT_name("endpt")
	.dwattr $C$DW$198, DW_AT_TI_symbol_name("_endpt")
	.dwattr $C$DW$198, DW_AT_type(*$C$DW$T$19)
	.dwattr $C$DW$198, DW_AT_location[DW_OP_bregx 0x24 1]
$C$DW$199	.dwtag  DW_TAG_variable, DW_AT_name("epHandle")
	.dwattr $C$DW$199, DW_AT_TI_symbol_name("_epHandle")
	.dwattr $C$DW$199, DW_AT_type(*$C$DW$T$102)
	.dwattr $C$DW$199, DW_AT_location[DW_OP_bregx 0x24 2]
$C$DW$200	.dwtag  DW_TAG_variable, DW_AT_name("looper")
	.dwattr $C$DW$200, DW_AT_TI_symbol_name("_looper")
	.dwattr $C$DW$200, DW_AT_type(*$C$DW$T$19)
	.dwattr $C$DW$200, DW_AT_location[DW_OP_bregx 0x24 4]
$C$DW$201	.dwtag  DW_TAG_variable, DW_AT_name("epNum")
	.dwattr $C$DW$201, DW_AT_TI_symbol_name("_epNum")
	.dwattr $C$DW$201, DW_AT_type(*$C$DW$T$19)
	.dwattr $C$DW$201, DW_AT_location[DW_OP_bregx 0x24 5]
$C$DW$202	.dwtag  DW_TAG_variable, DW_AT_name("fValidEp")
	.dwattr $C$DW$202, DW_AT_TI_symbol_name("_fValidEp")
	.dwattr $C$DW$202, DW_AT_type(*$C$DW$T$81)
	.dwattr $C$DW$202, DW_AT_location[DW_OP_bregx 0x24 6]
        MOV T1, *SP(#1) ; |1761| 
        MOV T0, *SP(#0) ; |1761| 
	.dwpsn	file "../c5535_bsl_revc/ezdsp5535_v1/c55xx_csl/src/csl_usb.c",line 1767,column 2,is_stmt
        MOV #0, *SP(#6) ; |1767| 
	.dwpsn	file "../c5535_bsl_revc/ezdsp5535_v1/c55xx_csl/src/csl_usb.c",line 1768,column 2,is_stmt
        MOV #0, AC0 ; |1768| 
        MOV AC0, dbl(*SP(#2))
	.dwpsn	file "../c5535_bsl_revc/ezdsp5535_v1/c55xx_csl/src/csl_usb.c",line 1769,column 2,is_stmt
        MOV #0, *SP(#4) ; |1769| 
	.dwpsn	file "../c5535_bsl_revc/ezdsp5535_v1/c55xx_csl/src/csl_usb.c",line 1771,column 2,is_stmt
        BTST #7, *SP(#1), TC1 ; |1771| 
        BCC $C$L119,!TC1 ; |1771| 
                                        ; branchcc occurs ; |1771| 
	.dwpsn	file "../c5535_bsl_revc/ezdsp5535_v1/c55xx_csl/src/csl_usb.c",line 1773,column 3,is_stmt
        AND #0xff7f, *SP(#1) ; |1773| 
	.dwpsn	file "../c5535_bsl_revc/ezdsp5535_v1/c55xx_csl/src/csl_usb.c",line 1775,column 3,is_stmt
        B $C$L112 ; |1775| 
                                        ; branch occurs ; |1775| 
$C$L107:    
	.dwpsn	file "../c5535_bsl_revc/ezdsp5535_v1/c55xx_csl/src/csl_usb.c",line 1778,column 5,is_stmt
        MOV #8, *SP(#5) ; |1778| 
	.dwpsn	file "../c5535_bsl_revc/ezdsp5535_v1/c55xx_csl/src/csl_usb.c",line 1779,column 5,is_stmt
        MOV #1, *SP(#6) ; |1779| 
	.dwpsn	file "../c5535_bsl_revc/ezdsp5535_v1/c55xx_csl/src/csl_usb.c",line 1780,column 10,is_stmt
        B $C$L121 ; |1780| 
                                        ; branch occurs ; |1780| 
$C$L108:    
	.dwpsn	file "../c5535_bsl_revc/ezdsp5535_v1/c55xx_csl/src/csl_usb.c",line 1783,column 5,is_stmt
        MOV #9, *SP(#5) ; |1783| 
	.dwpsn	file "../c5535_bsl_revc/ezdsp5535_v1/c55xx_csl/src/csl_usb.c",line 1784,column 5,is_stmt
        MOV #1, *SP(#6) ; |1784| 
	.dwpsn	file "../c5535_bsl_revc/ezdsp5535_v1/c55xx_csl/src/csl_usb.c",line 1785,column 10,is_stmt
        B $C$L121 ; |1785| 
                                        ; branch occurs ; |1785| 
$C$L109:    
	.dwpsn	file "../c5535_bsl_revc/ezdsp5535_v1/c55xx_csl/src/csl_usb.c",line 1788,column 5,is_stmt
        MOV #10, *SP(#5) ; |1788| 
	.dwpsn	file "../c5535_bsl_revc/ezdsp5535_v1/c55xx_csl/src/csl_usb.c",line 1789,column 5,is_stmt
        MOV #1, *SP(#6) ; |1789| 
	.dwpsn	file "../c5535_bsl_revc/ezdsp5535_v1/c55xx_csl/src/csl_usb.c",line 1790,column 10,is_stmt
        B $C$L121 ; |1790| 
                                        ; branch occurs ; |1790| 
$C$L110:    
	.dwpsn	file "../c5535_bsl_revc/ezdsp5535_v1/c55xx_csl/src/csl_usb.c",line 1793,column 5,is_stmt
        MOV #11, *SP(#5) ; |1793| 
	.dwpsn	file "../c5535_bsl_revc/ezdsp5535_v1/c55xx_csl/src/csl_usb.c",line 1794,column 5,is_stmt
        MOV #1, *SP(#6) ; |1794| 
	.dwpsn	file "../c5535_bsl_revc/ezdsp5535_v1/c55xx_csl/src/csl_usb.c",line 1795,column 10,is_stmt
        B $C$L121 ; |1795| 
                                        ; branch occurs ; |1795| 
$C$L111:    
	.dwpsn	file "../c5535_bsl_revc/ezdsp5535_v1/c55xx_csl/src/csl_usb.c",line 1798,column 5,is_stmt
        MOV #12, *SP(#5) ; |1798| 
	.dwpsn	file "../c5535_bsl_revc/ezdsp5535_v1/c55xx_csl/src/csl_usb.c",line 1799,column 5,is_stmt
        MOV #1, *SP(#6) ; |1799| 
	.dwpsn	file "../c5535_bsl_revc/ezdsp5535_v1/c55xx_csl/src/csl_usb.c",line 1800,column 10,is_stmt
        B $C$L121 ; |1800| 
                                        ; branch occurs ; |1800| 
$C$L112:    
	.dwpsn	file "../c5535_bsl_revc/ezdsp5535_v1/c55xx_csl/src/csl_usb.c",line 1775,column 3,is_stmt

        MOV *SP(#1), AR1 ; |1775| 
||      MOV #2, AR2

        CMP AR1 > AR2, TC1 ; |1775| 
        BCC $C$L113,TC1 ; |1775| 
                                        ; branchcc occurs ; |1775| 
        CMP AR1 == AR2, TC1 ; |1775| 
        BCC $C$L109,TC1 ; |1775| 
                                        ; branchcc occurs ; |1775| 
        BCC $C$L107,AR1 == #0 ; |1775| 
                                        ; branchcc occurs ; |1775| 
        MOV #1, AR2
        CMPU AR1 == AR2, TC1 ; |1775| 
        BCC $C$L108,TC1 ; |1775| 
                                        ; branchcc occurs ; |1775| 
        B $C$L121 ; |1775| 
                                        ; branch occurs ; |1775| 
$C$L113:    
        MOV #3, AR2
        CMPU AR1 == AR2, TC1 ; |1775| 
        BCC $C$L110,TC1 ; |1775| 
                                        ; branchcc occurs ; |1775| 
        MOV #4, AR2
        CMPU AR1 == AR2, TC1 ; |1775| 
        BCC $C$L111,TC1 ; |1775| 
                                        ; branchcc occurs ; |1775| 
        B $C$L121 ; |1775| 
                                        ; branch occurs ; |1775| 
$C$L114:    
	.dwpsn	file "../c5535_bsl_revc/ezdsp5535_v1/c55xx_csl/src/csl_usb.c",line 1811,column 5,is_stmt
        MOV #0, *SP(#5) ; |1811| 
	.dwpsn	file "../c5535_bsl_revc/ezdsp5535_v1/c55xx_csl/src/csl_usb.c",line 1812,column 5,is_stmt
        MOV #1, *SP(#6) ; |1812| 
	.dwpsn	file "../c5535_bsl_revc/ezdsp5535_v1/c55xx_csl/src/csl_usb.c",line 1813,column 10,is_stmt
        B $C$L121 ; |1813| 
                                        ; branch occurs ; |1813| 
$C$L115:    
	.dwpsn	file "../c5535_bsl_revc/ezdsp5535_v1/c55xx_csl/src/csl_usb.c",line 1816,column 5,is_stmt
        MOV #1, *SP(#5) ; |1816| 
	.dwpsn	file "../c5535_bsl_revc/ezdsp5535_v1/c55xx_csl/src/csl_usb.c",line 1817,column 5,is_stmt
        MOV #1, *SP(#6) ; |1817| 
	.dwpsn	file "../c5535_bsl_revc/ezdsp5535_v1/c55xx_csl/src/csl_usb.c",line 1818,column 10,is_stmt
        B $C$L121 ; |1818| 
                                        ; branch occurs ; |1818| 
$C$L116:    
	.dwpsn	file "../c5535_bsl_revc/ezdsp5535_v1/c55xx_csl/src/csl_usb.c",line 1821,column 5,is_stmt
        MOV #2, *SP(#5) ; |1821| 
	.dwpsn	file "../c5535_bsl_revc/ezdsp5535_v1/c55xx_csl/src/csl_usb.c",line 1822,column 5,is_stmt
        MOV #1, *SP(#6) ; |1822| 
	.dwpsn	file "../c5535_bsl_revc/ezdsp5535_v1/c55xx_csl/src/csl_usb.c",line 1823,column 10,is_stmt
        B $C$L121 ; |1823| 
                                        ; branch occurs ; |1823| 
$C$L117:    
	.dwpsn	file "../c5535_bsl_revc/ezdsp5535_v1/c55xx_csl/src/csl_usb.c",line 1826,column 5,is_stmt
        MOV #3, *SP(#5) ; |1826| 
	.dwpsn	file "../c5535_bsl_revc/ezdsp5535_v1/c55xx_csl/src/csl_usb.c",line 1827,column 5,is_stmt
        MOV #1, *SP(#6) ; |1827| 
	.dwpsn	file "../c5535_bsl_revc/ezdsp5535_v1/c55xx_csl/src/csl_usb.c",line 1828,column 10,is_stmt
        B $C$L121 ; |1828| 
                                        ; branch occurs ; |1828| 
$C$L118:    
	.dwpsn	file "../c5535_bsl_revc/ezdsp5535_v1/c55xx_csl/src/csl_usb.c",line 1831,column 5,is_stmt
        MOV #4, *SP(#5) ; |1831| 
	.dwpsn	file "../c5535_bsl_revc/ezdsp5535_v1/c55xx_csl/src/csl_usb.c",line 1832,column 5,is_stmt
        MOV #1, *SP(#6) ; |1832| 
	.dwpsn	file "../c5535_bsl_revc/ezdsp5535_v1/c55xx_csl/src/csl_usb.c",line 1833,column 10,is_stmt
        B $C$L121 ; |1833| 
                                        ; branch occurs ; |1833| 
$C$L119:    
	.dwpsn	file "../c5535_bsl_revc/ezdsp5535_v1/c55xx_csl/src/csl_usb.c",line 1808,column 3,is_stmt

        MOV *SP(#1), AR1 ; |1808| 
||      MOV #2, AR2

        CMP AR1 > AR2, TC1 ; |1808| 
        BCC $C$L120,TC1 ; |1808| 
                                        ; branchcc occurs ; |1808| 
        CMP AR1 == AR2, TC1 ; |1808| 
        BCC $C$L116,TC1 ; |1808| 
                                        ; branchcc occurs ; |1808| 
        BCC $C$L114,AR1 == #0 ; |1808| 
                                        ; branchcc occurs ; |1808| 
        MOV #1, AR2
        CMPU AR1 == AR2, TC1 ; |1808| 
        BCC $C$L115,TC1 ; |1808| 
                                        ; branchcc occurs ; |1808| 
        B $C$L121 ; |1808| 
                                        ; branch occurs ; |1808| 
$C$L120:    
        MOV #3, AR2
        CMPU AR1 == AR2, TC1 ; |1808| 
        BCC $C$L117,TC1 ; |1808| 
                                        ; branchcc occurs ; |1808| 
        MOV #4, AR2
        CMPU AR1 == AR2, TC1 ; |1808| 
        BCC $C$L118,TC1 ; |1808| 
                                        ; branchcc occurs ; |1808| 
$C$L121:    
	.dwpsn	file "../c5535_bsl_revc/ezdsp5535_v1/c55xx_csl/src/csl_usb.c",line 1840,column 2,is_stmt
        CMP *SP(#6) == #1, TC1 ; |1840| 
        BCC $C$L122,TC1 ; |1840| 
                                        ; branchcc occurs ; |1840| 
	.dwpsn	file "../c5535_bsl_revc/ezdsp5535_v1/c55xx_csl/src/csl_usb.c",line 1842,column 3,is_stmt
        AMOV #0, XAR0 ; |1842| 
        B $C$L126 ; |1842| 
                                        ; branch occurs ; |1842| 
$C$L122:    
	.dwpsn	file "../c5535_bsl_revc/ezdsp5535_v1/c55xx_csl/src/csl_usb.c",line 1845,column 6,is_stmt
        MOV #0, *SP(#4) ; |1845| 
	.dwpsn	file "../c5535_bsl_revc/ezdsp5535_v1/c55xx_csl/src/csl_usb.c",line 1845,column 18,is_stmt

        MOV *SP(#4), AR1 ; |1845| 
||      MOV #8, AR2

        CMPU AR1 >= AR2, TC1 ; |1845| 
        BCC $C$L125,TC1 ; |1845| 
                                        ; branchcc occurs ; |1845| 
$C$L123:    
$C$DW$L$_USB_epNumToHandle$35$B:
	.dwpsn	file "../c5535_bsl_revc/ezdsp5535_v1/c55xx_csl/src/csl_usb.c",line 1847,column 3,is_stmt
        MOV *SP(#4), T0 ; |1847| 
        SFTL T0, #1 ; |1847| 
        AMOV #_gUsbEpHandle, XAR3 ; |1847| 
        MOV dbl(*AR3(T0)), XAR3
        MOV *SP(#5), AR2 ; |1847| 
        MOV *AR3, AR1 ; |1847| 
        CMPU AR2 != AR1, TC1 ; |1847| 
        BCC $C$L124,TC1 ; |1847| 
                                        ; branchcc occurs ; |1847| 
$C$DW$L$_USB_epNumToHandle$35$E:
	.dwpsn	file "../c5535_bsl_revc/ezdsp5535_v1/c55xx_csl/src/csl_usb.c",line 1849,column 4,is_stmt
        MOV *SP(#4), T0 ; |1849| 
        SFTL T0, #1 ; |1849| 
        AMOV #_gUsbEpHandle, XAR3 ; |1849| 
        MOV dbl(*AR3(T0)), XAR3
        MOV XAR3, dbl(*SP(#2))
	.dwpsn	file "../c5535_bsl_revc/ezdsp5535_v1/c55xx_csl/src/csl_usb.c",line 1850,column 4,is_stmt
        B $C$L125 ; |1850| 
                                        ; branch occurs ; |1850| 
$C$L124:    
$C$DW$L$_USB_epNumToHandle$37$B:
	.dwpsn	file "../c5535_bsl_revc/ezdsp5535_v1/c55xx_csl/src/csl_usb.c",line 1845,column 51,is_stmt
        ADD #1, *SP(#4) ; |1845| 
	.dwpsn	file "../c5535_bsl_revc/ezdsp5535_v1/c55xx_csl/src/csl_usb.c",line 1845,column 18,is_stmt

        MOV *SP(#4), AR1 ; |1845| 
||      MOV #8, AR2

        CMPU AR1 < AR2, TC1 ; |1845| 
        BCC $C$L123,TC1 ; |1845| 
                                        ; branchcc occurs ; |1845| 
$C$DW$L$_USB_epNumToHandle$37$E:
$C$L125:    
	.dwpsn	file "../c5535_bsl_revc/ezdsp5535_v1/c55xx_csl/src/csl_usb.c",line 1854,column 2,is_stmt
        MOV dbl(*SP(#2)), XAR0
$C$L126:    
	.dwpsn	file "../c5535_bsl_revc/ezdsp5535_v1/c55xx_csl/src/csl_usb.c",line 1855,column 1,is_stmt
        AADD #7, SP
	.dwcfi	cfa_offset, 1
$C$DW$203	.dwtag  DW_TAG_TI_branch
	.dwattr $C$DW$203, DW_AT_low_pc(0x00)
	.dwattr $C$DW$203, DW_AT_TI_return
        RET
                                        ; return occurs

$C$DW$204	.dwtag  DW_TAG_TI_loop
	.dwattr $C$DW$204, DW_AT_name("F:\eZdsp_DBG\eZDSP_5535_Files\ccsws2\test\Debug\csl_usb.asm:$C$L123:1:1537612617")
	.dwattr $C$DW$204, DW_AT_TI_begin_file("../c5535_bsl_revc/ezdsp5535_v1/c55xx_csl/src/csl_usb.c")
	.dwattr $C$DW$204, DW_AT_TI_begin_line(0x735)
	.dwattr $C$DW$204, DW_AT_TI_end_line(0x73c)
$C$DW$205	.dwtag  DW_TAG_TI_loop_range
	.dwattr $C$DW$205, DW_AT_low_pc($C$DW$L$_USB_epNumToHandle$35$B)
	.dwattr $C$DW$205, DW_AT_high_pc($C$DW$L$_USB_epNumToHandle$35$E)
$C$DW$206	.dwtag  DW_TAG_TI_loop_range
	.dwattr $C$DW$206, DW_AT_low_pc($C$DW$L$_USB_epNumToHandle$37$B)
	.dwattr $C$DW$206, DW_AT_high_pc($C$DW$L$_USB_epNumToHandle$37$E)
	.dwendtag $C$DW$204

	.dwattr $C$DW$194, DW_AT_TI_end_file("../c5535_bsl_revc/ezdsp5535_v1/c55xx_csl/src/csl_usb.c")
	.dwattr $C$DW$194, DW_AT_TI_end_line(0x73f)
	.dwattr $C$DW$194, DW_AT_TI_end_column(0x01)
	.dwendentry
	.dwendtag $C$DW$194

	.sect	".text"
	.align 4
	.global	_USB_abortTransaction

$C$DW$207	.dwtag  DW_TAG_subprogram, DW_AT_name("USB_abortTransaction")
	.dwattr $C$DW$207, DW_AT_low_pc(_USB_abortTransaction)
	.dwattr $C$DW$207, DW_AT_high_pc(0x00)
	.dwattr $C$DW$207, DW_AT_TI_symbol_name("_USB_abortTransaction")
	.dwattr $C$DW$207, DW_AT_external
	.dwattr $C$DW$207, DW_AT_type(*$C$DW$T$75)
	.dwattr $C$DW$207, DW_AT_TI_begin_file("../c5535_bsl_revc/ezdsp5535_v1/c55xx_csl/src/csl_usb.c")
	.dwattr $C$DW$207, DW_AT_TI_begin_line(0x769)
	.dwattr $C$DW$207, DW_AT_TI_begin_column(0x0c)
	.dwattr $C$DW$207, DW_AT_TI_max_frame_size(0x0a)
	.dwpsn	file "../c5535_bsl_revc/ezdsp5535_v1/c55xx_csl/src/csl_usb.c",line 1898,column 1,is_stmt,address _USB_abortTransaction

	.dwfde $C$DW$CIE, _USB_abortTransaction
$C$DW$208	.dwtag  DW_TAG_formal_parameter, DW_AT_name("hEp")
	.dwattr $C$DW$208, DW_AT_TI_symbol_name("_hEp")
	.dwattr $C$DW$208, DW_AT_type(*$C$DW$T$102)
	.dwattr $C$DW$208, DW_AT_location[DW_OP_reg17]
;*******************************************************************************
;* FUNCTION NAME: USB_abortTransaction                                         *
;*                                                                             *
;*   Function Uses Regs : AC0,AC0,AC1,AC1,T0,AR0,XAR0,AR1,AR2,AR3,XAR3,SP,     *
;*                        CARRY,TC1,M40,SATA,SATD,RDM,FRCT,SMUL                *
;*   Stack Frame        : Compact (No Frame Pointer, w/ debug)                 *
;*   Total Frame Size   : 10 words                                             *
;*                        (1 return address/alignment)                         *
;*                        (9 local values)                                     *
;*   Min System Stack   : 1 word                                               *
;*******************************************************************************
_USB_abortTransaction:
	.dwcfi	cfa_offset, 1
	.dwcfi	save_reg_to_mem, 91, -1
        AADD #-9, SP
	.dwcfi	cfa_offset, 10
$C$DW$209	.dwtag  DW_TAG_variable, DW_AT_name("hEp")
	.dwattr $C$DW$209, DW_AT_TI_symbol_name("_hEp")
	.dwattr $C$DW$209, DW_AT_type(*$C$DW$T$102)
	.dwattr $C$DW$209, DW_AT_location[DW_OP_bregx 0x24 0]
$C$DW$210	.dwtag  DW_TAG_variable, DW_AT_name("peps")
	.dwattr $C$DW$210, DW_AT_TI_symbol_name("_peps")
	.dwattr $C$DW$210, DW_AT_type(*$C$DW$T$147)
	.dwattr $C$DW$210, DW_AT_location[DW_OP_bregx 0x24 2]
$C$DW$211	.dwtag  DW_TAG_variable, DW_AT_name("status")
	.dwattr $C$DW$211, DW_AT_TI_symbol_name("_status")
	.dwattr $C$DW$211, DW_AT_type(*$C$DW$T$75)
	.dwattr $C$DW$211, DW_AT_location[DW_OP_bregx 0x24 4]
$C$DW$212	.dwtag  DW_TAG_variable, DW_AT_name("saveIndex")
	.dwattr $C$DW$212, DW_AT_TI_symbol_name("_saveIndex")
	.dwattr $C$DW$212, DW_AT_type(*$C$DW$T$19)
	.dwattr $C$DW$212, DW_AT_location[DW_OP_bregx 0x24 5]
$C$DW$213	.dwtag  DW_TAG_variable, DW_AT_name("pContext")
	.dwattr $C$DW$213, DW_AT_TI_symbol_name("_pContext")
	.dwattr $C$DW$213, DW_AT_type(*$C$DW$T$142)
	.dwattr $C$DW$213, DW_AT_location[DW_OP_bregx 0x24 6]
$C$DW$214	.dwtag  DW_TAG_variable, DW_AT_name("tempVal")
	.dwattr $C$DW$214, DW_AT_TI_symbol_name("_tempVal")
	.dwattr $C$DW$214, DW_AT_type(*$C$DW$T$19)
	.dwattr $C$DW$214, DW_AT_location[DW_OP_bregx 0x24 8]
        MOV XAR0, dbl(*SP(#0))
	.dwpsn	file "../c5535_bsl_revc/ezdsp5535_v1/c55xx_csl/src/csl_usb.c",line 1905,column 2,is_stmt
        MOV #0, *SP(#4) ; |1905| 
	.dwpsn	file "../c5535_bsl_revc/ezdsp5535_v1/c55xx_csl/src/csl_usb.c",line 1906,column 2,is_stmt
        MOV #0, AC0 ; |1906| 
        MOV AC0, dbl(*SP(#2))
	.dwpsn	file "../c5535_bsl_revc/ezdsp5535_v1/c55xx_csl/src/csl_usb.c",line 1907,column 2,is_stmt
        AMOV #_gUsbContext, XAR3 ; |1907| 
        MOV XAR3, dbl(*SP(#6))
	.dwpsn	file "../c5535_bsl_revc/ezdsp5535_v1/c55xx_csl/src/csl_usb.c",line 1909,column 2,is_stmt
        MOV dbl(*SP(#0)), XAR3
        MOV XAR3, AC0
        BCC $C$L132,AC0 == #0 ; |1909| 
                                        ; branchcc occurs ; |1909| 
	.dwpsn	file "../c5535_bsl_revc/ezdsp5535_v1/c55xx_csl/src/csl_usb.c",line 1911,column 3,is_stmt
        MOV *AR3, AR1 ; |1911| 

        MOV AR1, AC0
||      MOV #7, AR2

        SFTS AC0, #-2, AC0 ; |1911| 
||      NOT AR2, AR2 ; |1911| 

        BFXTR #0xe000, AC0, AR3 ; |1911| 
        ADD AR1, AR3 ; |1911| 
        AND AR3, AR2 ; |1911| 
        MOV dbl(*SP(#6)), XAR3
        MOV AR1, HI(AC0)
        MOV HI(AC0), AR1
        MOV dbl(*AR3(#98)), XAR3
        SUB AR2, AR1 ; |1911| 
        MOV AR1, HI(AC0)
        MPYK #18, AC0, AC0 ; |1911| 
        MOV AC0, AR1 ; |1911| 

        MOV XAR3, dbl(*SP(#2))
||      AADD AR1, AR3 ; |1911| 

	.dwpsn	file "../c5535_bsl_revc/ezdsp5535_v1/c55xx_csl/src/csl_usb.c",line 1913,column 3,is_stmt
        MOV XAR3, AC0
        BCC $C$L131,AC0 == #0 ; |1913| 
                                        ; branchcc occurs ; |1913| 
        CMP *AR3(short(#6)) == #1, TC1 ; |1913| 
        BCC $C$L131,!TC1 ; |1913| 
                                        ; branchcc occurs ; |1913| 
	.dwpsn	file "../c5535_bsl_revc/ezdsp5535_v1/c55xx_csl/src/csl_usb.c",line 1915,column 4,is_stmt
        MOV dbl(*AR3(#10)), XAR3
        MOV XAR3, AC0
        BCC $C$L127,AC0 == #0 ; |1915| 
                                        ; branchcc occurs ; |1915| 
	.dwpsn	file "../c5535_bsl_revc/ezdsp5535_v1/c55xx_csl/src/csl_usb.c",line 1917,column 8,is_stmt
        MOV dbl(*SP(#2)), XAR3
        MOV dbl(*AR3(#10)), XAR3
        MOV #1, *AR3(#12) ; |1917| 
	.dwpsn	file "../c5535_bsl_revc/ezdsp5535_v1/c55xx_csl/src/csl_usb.c",line 1918,column 5,is_stmt
        MOV dbl(*SP(#2)), XAR3
        MOV #0, AC0 ; |1918| 
        MOV AC0, dbl(*AR3(#10))
$C$L127:    
	.dwpsn	file "../c5535_bsl_revc/ezdsp5535_v1/c55xx_csl/src/csl_usb.c",line 1922,column 4,is_stmt
        MOV #1038, T0 ; |1922| 
        MOV *(#_usbRegisters), AR3 ; |1922| 
        MOV port(*AR3(T0)), AR1 ; |1922| 
        MOV AR1, *SP(#5) ; |1922| 
	.dwpsn	file "../c5535_bsl_revc/ezdsp5535_v1/c55xx_csl/src/csl_usb.c",line 1925,column 4,is_stmt
        MOV port(*AR3(T0)), AR1 ; |1925| 
        AND #0xfff0, AR1, AC0 ; |1925| 
        MOV AC0, port(*AR3(T0)) ; |1925| 
	.dwpsn	file "../c5535_bsl_revc/ezdsp5535_v1/c55xx_csl/src/csl_usb.c",line 1929,column 4,is_stmt
        MOV dbl(*SP(#2)), XAR3
        MOV dbl(*AR3), AC0 ; |1929| 
        BCC $C$L128,AC0 != #0 ; |1929| 
                                        ; branchcc occurs ; |1929| 
	.dwpsn	file "../c5535_bsl_revc/ezdsp5535_v1/c55xx_csl/src/csl_usb.c",line 1932,column 5,is_stmt
        MOV *(#_usbRegisters), AR3 ; |1932| 
        MOV port(*AR3(T0)), AR1 ; |1932| 
        AND #0xfff0, AR1, AC0 ; |1932| 
        MOV AC0, port(*AR3(T0)) ; |1932| 
	.dwpsn	file "../c5535_bsl_revc/ezdsp5535_v1/c55xx_csl/src/csl_usb.c",line 1936,column 5,is_stmt
        MOV #1042, T0 ; |1936| 
        MOV *(#_usbRegisters), AR3 ; |1936| 
        MOV port(*AR3(T0)), AR1 ; |1936| 
        BCLR @#8, AR1 ; |1936| 
        BSET @#8, AR1 ; |1936| 
        MOV AR1, port(*AR3(T0)) ; |1936| 
	.dwpsn	file "../c5535_bsl_revc/ezdsp5535_v1/c55xx_csl/src/csl_usb.c",line 1938,column 4,is_stmt
        B $C$L130 ; |1938| 
                                        ; branch occurs ; |1938| 
$C$L128:    
	.dwpsn	file "../c5535_bsl_revc/ezdsp5535_v1/c55xx_csl/src/csl_usb.c",line 1941,column 5,is_stmt
        MOV dbl(*SP(#0)), XAR3

        MOV *AR3, AR1 ; |1941| 
||      MOV #8, AR2

        CMP AR1 <= AR2, TC1 ; |1941| 
        BCC $C$L129,TC1 ; |1941| 
                                        ; branchcc occurs ; |1941| 
	.dwpsn	file "../c5535_bsl_revc/ezdsp5535_v1/c55xx_csl/src/csl_usb.c",line 1944,column 6,is_stmt
        MOV *(#_usbRegisters), AR3 ; |1944| 
        MOV port(*AR3(T0)), AR1 ; |1944| 
        MOV dbl(*SP(#2)), XAR3
        MOV dbl(*AR3), AC0 ; |1944| 
        MOV *(#_usbRegisters), AR3 ; |1944| 
        AND #0xfff0, AR1, AC1 ; |1944| 
        AND #0x000f, AC0, AC0 ; |1944| 
        OR AC1, AC0 ; |1944| 
        MOV AC0, port(*AR3(T0)) ; |1944| 
	.dwpsn	file "../c5535_bsl_revc/ezdsp5535_v1/c55xx_csl/src/csl_usb.c",line 1948,column 6,is_stmt
        MOV #1042, T0 ; |1948| 
        MOV *(#_usbRegisters), AR3 ; |1948| 
        MOV port(*AR3(T0)), AR1 ; |1948| 
        MOV AR1, *SP(#8) ; |1948| 
	.dwpsn	file "../c5535_bsl_revc/ezdsp5535_v1/c55xx_csl/src/csl_usb.c",line 1950,column 6,is_stmt
        OR #0x0008, *SP(#8) ; |1950| 
	.dwpsn	file "../c5535_bsl_revc/ezdsp5535_v1/c55xx_csl/src/csl_usb.c",line 1951,column 6,is_stmt
        AND #0xfffc, *SP(#8) ; |1951| 
	.dwpsn	file "../c5535_bsl_revc/ezdsp5535_v1/c55xx_csl/src/csl_usb.c",line 1953,column 6,is_stmt
        MOV *SP(#8), AR1 ; |1953| 
        MOV AR1, port(*AR3(T0)) ; |1953| 
	.dwpsn	file "../c5535_bsl_revc/ezdsp5535_v1/c55xx_csl/src/csl_usb.c",line 1954,column 5,is_stmt
        B $C$L130 ; |1954| 
                                        ; branch occurs ; |1954| 
$C$L129:    
	.dwpsn	file "../c5535_bsl_revc/ezdsp5535_v1/c55xx_csl/src/csl_usb.c",line 1958,column 6,is_stmt
        MOV *(#_usbRegisters), AR3 ; |1958| 
        MOV port(*AR3(T0)), AR1 ; |1958| 
        MOV dbl(*SP(#2)), XAR3
        MOV dbl(*AR3), AC0 ; |1958| 
        MOV *(#_usbRegisters), AR3 ; |1958| 
        AND #0xfff0, AR1, AC1 ; |1958| 
        AND #0x000f, AC0, AC0 ; |1958| 
        OR AC1, AC0 ; |1958| 
        MOV AC0, port(*AR3(T0)) ; |1958| 
	.dwpsn	file "../c5535_bsl_revc/ezdsp5535_v1/c55xx_csl/src/csl_usb.c",line 1962,column 6,is_stmt
        MOV #1046, T0 ; |1962| 
        MOV *(#_usbRegisters), AR3 ; |1962| 
        MOV port(*AR3(T0)), AR1 ; |1962| 
        BCLR @#4, AR1 ; |1962| 
        BSET @#4, AR1 ; |1962| 
        MOV AR1, port(*AR3(T0)) ; |1962| 
$C$L130:    
	.dwpsn	file "../c5535_bsl_revc/ezdsp5535_v1/c55xx_csl/src/csl_usb.c",line 1968,column 4,is_stmt
        MOV *(#_usbRegisters), AR3 ; |1968| 
        MOV #1038, T0 ; |1968| 
        MOV *SP(#5), AR1 ; |1968| 
        MOV AR1, port(*AR3(T0)) ; |1968| 
	.dwpsn	file "../c5535_bsl_revc/ezdsp5535_v1/c55xx_csl/src/csl_usb.c",line 1969,column 3,is_stmt
        B $C$L133 ; |1969| 
                                        ; branch occurs ; |1969| 
$C$L131:    
	.dwpsn	file "../c5535_bsl_revc/ezdsp5535_v1/c55xx_csl/src/csl_usb.c",line 1972,column 4,is_stmt
        MOV #-6, *SP(#4) ; |1972| 
	.dwpsn	file "../c5535_bsl_revc/ezdsp5535_v1/c55xx_csl/src/csl_usb.c",line 1974,column 2,is_stmt
        B $C$L133 ; |1974| 
                                        ; branch occurs ; |1974| 
$C$L132:    
	.dwpsn	file "../c5535_bsl_revc/ezdsp5535_v1/c55xx_csl/src/csl_usb.c",line 1977,column 3,is_stmt
        MOV #-5, *SP(#4) ; |1977| 
$C$L133:    
	.dwpsn	file "../c5535_bsl_revc/ezdsp5535_v1/c55xx_csl/src/csl_usb.c",line 1980,column 2,is_stmt
        MOV *SP(#4), T0 ; |1980| 
	.dwpsn	file "../c5535_bsl_revc/ezdsp5535_v1/c55xx_csl/src/csl_usb.c",line 1981,column 1,is_stmt
        AADD #9, SP
	.dwcfi	cfa_offset, 1
$C$DW$215	.dwtag  DW_TAG_TI_branch
	.dwattr $C$DW$215, DW_AT_low_pc(0x00)
	.dwattr $C$DW$215, DW_AT_TI_return
        RET
                                        ; return occurs
	.dwattr $C$DW$207, DW_AT_TI_end_file("../c5535_bsl_revc/ezdsp5535_v1/c55xx_csl/src/csl_usb.c")
	.dwattr $C$DW$207, DW_AT_TI_end_line(0x7bd)
	.dwattr $C$DW$207, DW_AT_TI_end_column(0x01)
	.dwendentry
	.dwendtag $C$DW$207

	.sect	".text"
	.align 4
	.global	_USB_abortAllTransaction

$C$DW$216	.dwtag  DW_TAG_subprogram, DW_AT_name("USB_abortAllTransaction")
	.dwattr $C$DW$216, DW_AT_low_pc(_USB_abortAllTransaction)
	.dwattr $C$DW$216, DW_AT_high_pc(0x00)
	.dwattr $C$DW$216, DW_AT_TI_symbol_name("_USB_abortAllTransaction")
	.dwattr $C$DW$216, DW_AT_external
	.dwattr $C$DW$216, DW_AT_type(*$C$DW$T$75)
	.dwattr $C$DW$216, DW_AT_TI_begin_file("../c5535_bsl_revc/ezdsp5535_v1/c55xx_csl/src/csl_usb.c")
	.dwattr $C$DW$216, DW_AT_TI_begin_line(0x7e6)
	.dwattr $C$DW$216, DW_AT_TI_begin_column(0x0c)
	.dwattr $C$DW$216, DW_AT_TI_max_frame_size(0x08)
	.dwpsn	file "../c5535_bsl_revc/ezdsp5535_v1/c55xx_csl/src/csl_usb.c",line 2023,column 1,is_stmt,address _USB_abortAllTransaction

	.dwfde $C$DW$CIE, _USB_abortAllTransaction
$C$DW$217	.dwtag  DW_TAG_formal_parameter, DW_AT_name("devNum")
	.dwattr $C$DW$217, DW_AT_TI_symbol_name("_devNum")
	.dwattr $C$DW$217, DW_AT_type(*$C$DW$T$68)
	.dwattr $C$DW$217, DW_AT_location[DW_OP_reg12]
;*******************************************************************************
;* FUNCTION NAME: USB_abortAllTransaction                                      *
;*                                                                             *
;*   Function Uses Regs : AC0,AC0,T0,AR0,XAR0,AR1,AR2,AR3,XAR3,SP,CARRY,TC1,   *
;*                        M40,SATA,SATD,RDM,FRCT,SMUL                          *
;*   Stack Frame        : Compact (No Frame Pointer, w/ debug)                 *
;*   Total Frame Size   : 8 words                                              *
;*                        (2 return address/alignment)                         *
;*                        (6 local values)                                     *
;*   Min System Stack   : 1 word                                               *
;*******************************************************************************
_USB_abortAllTransaction:
	.dwcfi	cfa_offset, 1
	.dwcfi	save_reg_to_mem, 91, -1
        AADD #-7, SP
	.dwcfi	cfa_offset, 8
$C$DW$218	.dwtag  DW_TAG_variable, DW_AT_name("devNum")
	.dwattr $C$DW$218, DW_AT_TI_symbol_name("_devNum")
	.dwattr $C$DW$218, DW_AT_type(*$C$DW$T$68)
	.dwattr $C$DW$218, DW_AT_location[DW_OP_bregx 0x24 0]
$C$DW$219	.dwtag  DW_TAG_variable, DW_AT_name("epHandle")
	.dwattr $C$DW$219, DW_AT_TI_symbol_name("_epHandle")
	.dwattr $C$DW$219, DW_AT_type(*$C$DW$T$102)
	.dwattr $C$DW$219, DW_AT_location[DW_OP_bregx 0x24 2]
$C$DW$220	.dwtag  DW_TAG_variable, DW_AT_name("status")
	.dwattr $C$DW$220, DW_AT_TI_symbol_name("_status")
	.dwattr $C$DW$220, DW_AT_type(*$C$DW$T$75)
	.dwattr $C$DW$220, DW_AT_location[DW_OP_bregx 0x24 4]
$C$DW$221	.dwtag  DW_TAG_variable, DW_AT_name("endPoint")
	.dwattr $C$DW$221, DW_AT_TI_symbol_name("_endPoint")
	.dwattr $C$DW$221, DW_AT_type(*$C$DW$T$19)
	.dwattr $C$DW$221, DW_AT_location[DW_OP_bregx 0x24 5]
        MOV T0, *SP(#0) ; |2023| 
	.dwpsn	file "../c5535_bsl_revc/ezdsp5535_v1/c55xx_csl/src/csl_usb.c",line 2028,column 2,is_stmt
        MOV #0, *SP(#4) ; |2028| 
	.dwpsn	file "../c5535_bsl_revc/ezdsp5535_v1/c55xx_csl/src/csl_usb.c",line 2030,column 2,is_stmt
        MOV *SP(#0), AR1 ; |2030| 
        BCC $C$L134,AR1 == #0 ; |2030| 
                                        ; branchcc occurs ; |2030| 
	.dwpsn	file "../c5535_bsl_revc/ezdsp5535_v1/c55xx_csl/src/csl_usb.c",line 2032,column 3,is_stmt
        MOV #-6, *SP(#4) ; |2032| 
	.dwpsn	file "../c5535_bsl_revc/ezdsp5535_v1/c55xx_csl/src/csl_usb.c",line 2033,column 2,is_stmt
        B $C$L137 ; |2033| 
                                        ; branch occurs ; |2033| 
$C$L134:    
	.dwpsn	file "../c5535_bsl_revc/ezdsp5535_v1/c55xx_csl/src/csl_usb.c",line 2036,column 7,is_stmt
        MOV #0, *SP(#5) ; |2036| 
	.dwpsn	file "../c5535_bsl_revc/ezdsp5535_v1/c55xx_csl/src/csl_usb.c",line 2036,column 21,is_stmt

        MOV *SP(#5), AR1 ; |2036| 
||      MOV #8, AR2

        CMPU AR1 >= AR2, TC1 ; |2036| 
        BCC $C$L137,TC1 ; |2036| 
                                        ; branchcc occurs ; |2036| 
$C$L135:    
$C$DW$L$_USB_abortAllTransaction$4$B:
	.dwpsn	file "../c5535_bsl_revc/ezdsp5535_v1/c55xx_csl/src/csl_usb.c",line 2038,column 4,is_stmt
        MOV *SP(#5), T0 ; |2038| 
        SFTL T0, #1 ; |2038| 
        AMOV #_gUsbEpHandle, XAR3 ; |2038| 
        MOV dbl(*AR3(T0)), XAR3
        MOV XAR3, dbl(*SP(#2))
	.dwpsn	file "../c5535_bsl_revc/ezdsp5535_v1/c55xx_csl/src/csl_usb.c",line 2039,column 4,is_stmt
        MOV XAR3, AC0
        BCC $C$L136,AC0 == #0 ; |2039| 
                                        ; branchcc occurs ; |2039| 
$C$DW$L$_USB_abortAllTransaction$4$E:
$C$DW$L$_USB_abortAllTransaction$5$B:
	.dwpsn	file "../c5535_bsl_revc/ezdsp5535_v1/c55xx_csl/src/csl_usb.c",line 2041,column 5,is_stmt
        MOV dbl(*SP(#2)), XAR0
$C$DW$222	.dwtag  DW_TAG_TI_branch
	.dwattr $C$DW$222, DW_AT_low_pc(0x00)
	.dwattr $C$DW$222, DW_AT_name("_USB_abortTransaction")
	.dwattr $C$DW$222, DW_AT_TI_call
        CALL #_USB_abortTransaction ; |2041| 
                                        ; call occurs [#_USB_abortTransaction] ; |2041| 
        MOV T0, *SP(#4) ; |2041| 
	.dwpsn	file "../c5535_bsl_revc/ezdsp5535_v1/c55xx_csl/src/csl_usb.c",line 2042,column 5,is_stmt
        MOV T0, AR1
        BCC $C$L137,AR1 != #0 ; |2042| 
                                        ; branchcc occurs ; |2042| 
$C$DW$L$_USB_abortAllTransaction$5$E:
$C$DW$L$_USB_abortAllTransaction$6$B:
	.dwpsn	file "../c5535_bsl_revc/ezdsp5535_v1/c55xx_csl/src/csl_usb.c",line 2044,column 6,is_stmt
$C$DW$L$_USB_abortAllTransaction$6$E:
$C$L136:    
$C$DW$L$_USB_abortAllTransaction$7$B:
	.dwpsn	file "../c5535_bsl_revc/ezdsp5535_v1/c55xx_csl/src/csl_usb.c",line 2036,column 56,is_stmt
        ADD #1, *SP(#5) ; |2036| 
	.dwpsn	file "../c5535_bsl_revc/ezdsp5535_v1/c55xx_csl/src/csl_usb.c",line 2036,column 21,is_stmt

        MOV *SP(#5), AR1 ; |2036| 
||      MOV #8, AR2

        CMPU AR1 < AR2, TC1 ; |2036| 
        BCC $C$L135,TC1 ; |2036| 
                                        ; branchcc occurs ; |2036| 
$C$DW$L$_USB_abortAllTransaction$7$E:
$C$L137:    
	.dwpsn	file "../c5535_bsl_revc/ezdsp5535_v1/c55xx_csl/src/csl_usb.c",line 2050,column 2,is_stmt
        MOV *SP(#4), T0 ; |2050| 
	.dwpsn	file "../c5535_bsl_revc/ezdsp5535_v1/c55xx_csl/src/csl_usb.c",line 2051,column 1,is_stmt
        AADD #7, SP
	.dwcfi	cfa_offset, 1
$C$DW$223	.dwtag  DW_TAG_TI_branch
	.dwattr $C$DW$223, DW_AT_low_pc(0x00)
	.dwattr $C$DW$223, DW_AT_TI_return
        RET
                                        ; return occurs

$C$DW$224	.dwtag  DW_TAG_TI_loop
	.dwattr $C$DW$224, DW_AT_name("F:\eZdsp_DBG\eZDSP_5535_Files\ccsws2\test\Debug\csl_usb.asm:$C$L135:1:1537612617")
	.dwattr $C$DW$224, DW_AT_TI_begin_file("../c5535_bsl_revc/ezdsp5535_v1/c55xx_csl/src/csl_usb.c")
	.dwattr $C$DW$224, DW_AT_TI_begin_line(0x7f4)
	.dwattr $C$DW$224, DW_AT_TI_end_line(0x7ff)
$C$DW$225	.dwtag  DW_TAG_TI_loop_range
	.dwattr $C$DW$225, DW_AT_low_pc($C$DW$L$_USB_abortAllTransaction$4$B)
	.dwattr $C$DW$225, DW_AT_high_pc($C$DW$L$_USB_abortAllTransaction$4$E)
$C$DW$226	.dwtag  DW_TAG_TI_loop_range
	.dwattr $C$DW$226, DW_AT_low_pc($C$DW$L$_USB_abortAllTransaction$5$B)
	.dwattr $C$DW$226, DW_AT_high_pc($C$DW$L$_USB_abortAllTransaction$5$E)
$C$DW$227	.dwtag  DW_TAG_TI_loop_range
	.dwattr $C$DW$227, DW_AT_low_pc($C$DW$L$_USB_abortAllTransaction$6$B)
	.dwattr $C$DW$227, DW_AT_high_pc($C$DW$L$_USB_abortAllTransaction$6$E)
$C$DW$228	.dwtag  DW_TAG_TI_loop_range
	.dwattr $C$DW$228, DW_AT_low_pc($C$DW$L$_USB_abortAllTransaction$7$B)
	.dwattr $C$DW$228, DW_AT_high_pc($C$DW$L$_USB_abortAllTransaction$7$E)
	.dwendtag $C$DW$224

	.dwattr $C$DW$216, DW_AT_TI_end_file("../c5535_bsl_revc/ezdsp5535_v1/c55xx_csl/src/csl_usb.c")
	.dwattr $C$DW$216, DW_AT_TI_end_line(0x803)
	.dwattr $C$DW$216, DW_AT_TI_end_column(0x01)
	.dwendentry
	.dwendtag $C$DW$216

	.sect	".text"
	.align 4
	.global	_USB_connectDev

$C$DW$229	.dwtag  DW_TAG_subprogram, DW_AT_name("USB_connectDev")
	.dwattr $C$DW$229, DW_AT_low_pc(_USB_connectDev)
	.dwattr $C$DW$229, DW_AT_high_pc(0x00)
	.dwattr $C$DW$229, DW_AT_TI_symbol_name("_USB_connectDev")
	.dwattr $C$DW$229, DW_AT_external
	.dwattr $C$DW$229, DW_AT_type(*$C$DW$T$75)
	.dwattr $C$DW$229, DW_AT_TI_begin_file("../c5535_bsl_revc/ezdsp5535_v1/c55xx_csl/src/csl_usb.c")
	.dwattr $C$DW$229, DW_AT_TI_begin_line(0x82c)
	.dwattr $C$DW$229, DW_AT_TI_begin_column(0x0c)
	.dwattr $C$DW$229, DW_AT_TI_max_frame_size(0x04)
	.dwpsn	file "../c5535_bsl_revc/ezdsp5535_v1/c55xx_csl/src/csl_usb.c",line 2093,column 1,is_stmt,address _USB_connectDev

	.dwfde $C$DW$CIE, _USB_connectDev
$C$DW$230	.dwtag  DW_TAG_formal_parameter, DW_AT_name("devNum")
	.dwattr $C$DW$230, DW_AT_TI_symbol_name("_devNum")
	.dwattr $C$DW$230, DW_AT_type(*$C$DW$T$68)
	.dwattr $C$DW$230, DW_AT_location[DW_OP_reg12]
;*******************************************************************************
;* FUNCTION NAME: USB_connectDev                                               *
;*                                                                             *
;*   Function Uses Regs : T0,AR1,AR3,SP,M40,SATA,SATD,RDM,FRCT,SMUL            *
;*   Stack Frame        : Compact (No Frame Pointer, w/ debug)                 *
;*   Total Frame Size   : 4 words                                              *
;*                        (2 return address/alignment)                         *
;*                        (2 local values)                                     *
;*   Min System Stack   : 1 word                                               *
;*******************************************************************************
_USB_connectDev:
	.dwcfi	cfa_offset, 1
	.dwcfi	save_reg_to_mem, 91, -1
        AADD #-3, SP
	.dwcfi	cfa_offset, 4
$C$DW$231	.dwtag  DW_TAG_variable, DW_AT_name("devNum")
	.dwattr $C$DW$231, DW_AT_TI_symbol_name("_devNum")
	.dwattr $C$DW$231, DW_AT_type(*$C$DW$T$68)
	.dwattr $C$DW$231, DW_AT_location[DW_OP_bregx 0x24 0]
$C$DW$232	.dwtag  DW_TAG_variable, DW_AT_name("status")
	.dwattr $C$DW$232, DW_AT_TI_symbol_name("_status")
	.dwattr $C$DW$232, DW_AT_type(*$C$DW$T$75)
	.dwattr $C$DW$232, DW_AT_location[DW_OP_bregx 0x24 1]
        MOV T0, *SP(#0) ; |2093| 
	.dwpsn	file "../c5535_bsl_revc/ezdsp5535_v1/c55xx_csl/src/csl_usb.c",line 2096,column 5,is_stmt
        MOV #0, *SP(#1) ; |2096| 
	.dwpsn	file "../c5535_bsl_revc/ezdsp5535_v1/c55xx_csl/src/csl_usb.c",line 2098,column 5,is_stmt
        B $C$L140 ; |2098| 
                                        ; branch occurs ; |2098| 
$C$L138:    
	.dwpsn	file "../c5535_bsl_revc/ezdsp5535_v1/c55xx_csl/src/csl_usb.c",line 2101,column 4,is_stmt
        MOV #1025, T0 ; |2101| 
        MOV *(#_usbRegisters), AR3 ; |2101| 
        MOV port(*AR3(T0)), AR1 ; |2101| 
        BCLR @#14, AR1 ; |2101| 
        BSET @#14, AR1 ; |2101| 
        MOV AR1, port(*AR3(T0)) ; |2101| 
	.dwpsn	file "../c5535_bsl_revc/ezdsp5535_v1/c55xx_csl/src/csl_usb.c",line 2103,column 12,is_stmt
        B $C$L141 ; |2103| 
                                        ; branch occurs ; |2103| 
$C$L139:    
	.dwpsn	file "../c5535_bsl_revc/ezdsp5535_v1/c55xx_csl/src/csl_usb.c",line 2109,column 5,is_stmt
        MOV #-6, *SP(#1) ; |2109| 
	.dwpsn	file "../c5535_bsl_revc/ezdsp5535_v1/c55xx_csl/src/csl_usb.c",line 2110,column 12,is_stmt
        B $C$L141 ; |2110| 
                                        ; branch occurs ; |2110| 
$C$L140:    
	.dwpsn	file "../c5535_bsl_revc/ezdsp5535_v1/c55xx_csl/src/csl_usb.c",line 2098,column 5,is_stmt
        MOV *SP(#0), AR1 ; |2098| 
        BCC $C$L138,AR1 == #0 ; |2098| 
                                        ; branchcc occurs ; |2098| 
        B $C$L139 ; |2098| 
                                        ; branch occurs ; |2098| 
$C$L141:    
	.dwpsn	file "../c5535_bsl_revc/ezdsp5535_v1/c55xx_csl/src/csl_usb.c",line 2113,column 2,is_stmt
        MOV *SP(#1), T0 ; |2113| 
	.dwpsn	file "../c5535_bsl_revc/ezdsp5535_v1/c55xx_csl/src/csl_usb.c",line 2114,column 1,is_stmt
        AADD #3, SP
	.dwcfi	cfa_offset, 1
$C$DW$233	.dwtag  DW_TAG_TI_branch
	.dwattr $C$DW$233, DW_AT_low_pc(0x00)
	.dwattr $C$DW$233, DW_AT_TI_return
        RET
                                        ; return occurs
	.dwattr $C$DW$229, DW_AT_TI_end_file("../c5535_bsl_revc/ezdsp5535_v1/c55xx_csl/src/csl_usb.c")
	.dwattr $C$DW$229, DW_AT_TI_end_line(0x842)
	.dwattr $C$DW$229, DW_AT_TI_end_column(0x01)
	.dwendentry
	.dwendtag $C$DW$229

	.sect	".text"
	.align 4
	.global	_USB_disconnectDev

$C$DW$234	.dwtag  DW_TAG_subprogram, DW_AT_name("USB_disconnectDev")
	.dwattr $C$DW$234, DW_AT_low_pc(_USB_disconnectDev)
	.dwattr $C$DW$234, DW_AT_high_pc(0x00)
	.dwattr $C$DW$234, DW_AT_TI_symbol_name("_USB_disconnectDev")
	.dwattr $C$DW$234, DW_AT_external
	.dwattr $C$DW$234, DW_AT_type(*$C$DW$T$75)
	.dwattr $C$DW$234, DW_AT_TI_begin_file("../c5535_bsl_revc/ezdsp5535_v1/c55xx_csl/src/csl_usb.c")
	.dwattr $C$DW$234, DW_AT_TI_begin_line(0x867)
	.dwattr $C$DW$234, DW_AT_TI_begin_column(0x0c)
	.dwattr $C$DW$234, DW_AT_TI_max_frame_size(0x04)
	.dwpsn	file "../c5535_bsl_revc/ezdsp5535_v1/c55xx_csl/src/csl_usb.c",line 2152,column 1,is_stmt,address _USB_disconnectDev

	.dwfde $C$DW$CIE, _USB_disconnectDev
$C$DW$235	.dwtag  DW_TAG_formal_parameter, DW_AT_name("devNum")
	.dwattr $C$DW$235, DW_AT_TI_symbol_name("_devNum")
	.dwattr $C$DW$235, DW_AT_type(*$C$DW$T$68)
	.dwattr $C$DW$235, DW_AT_location[DW_OP_reg12]
;*******************************************************************************
;* FUNCTION NAME: USB_disconnectDev                                            *
;*                                                                             *
;*   Function Uses Regs : T0,AR1,AR3,SP,M40,SATA,SATD,RDM,FRCT,SMUL            *
;*   Stack Frame        : Compact (No Frame Pointer, w/ debug)                 *
;*   Total Frame Size   : 4 words                                              *
;*                        (2 return address/alignment)                         *
;*                        (2 local values)                                     *
;*   Min System Stack   : 1 word                                               *
;*******************************************************************************
_USB_disconnectDev:
	.dwcfi	cfa_offset, 1
	.dwcfi	save_reg_to_mem, 91, -1
        AADD #-3, SP
	.dwcfi	cfa_offset, 4
$C$DW$236	.dwtag  DW_TAG_variable, DW_AT_name("devNum")
	.dwattr $C$DW$236, DW_AT_TI_symbol_name("_devNum")
	.dwattr $C$DW$236, DW_AT_type(*$C$DW$T$68)
	.dwattr $C$DW$236, DW_AT_location[DW_OP_bregx 0x24 0]
$C$DW$237	.dwtag  DW_TAG_variable, DW_AT_name("status")
	.dwattr $C$DW$237, DW_AT_TI_symbol_name("_status")
	.dwattr $C$DW$237, DW_AT_type(*$C$DW$T$75)
	.dwattr $C$DW$237, DW_AT_location[DW_OP_bregx 0x24 1]
        MOV T0, *SP(#0) ; |2152| 
	.dwpsn	file "../c5535_bsl_revc/ezdsp5535_v1/c55xx_csl/src/csl_usb.c",line 2155,column 5,is_stmt
        MOV #0, *SP(#1) ; |2155| 
	.dwpsn	file "../c5535_bsl_revc/ezdsp5535_v1/c55xx_csl/src/csl_usb.c",line 2157,column 5,is_stmt
        B $C$L144 ; |2157| 
                                        ; branch occurs ; |2157| 
$C$L142:    
	.dwpsn	file "../c5535_bsl_revc/ezdsp5535_v1/c55xx_csl/src/csl_usb.c",line 2160,column 4,is_stmt
        MOV #1025, T0 ; |2160| 
        MOV *(#_usbRegisters), AR3 ; |2160| 
        MOV port(*AR3(T0)), AR1 ; |2160| 
        BCLR @#14, AR1 ; |2160| 
        MOV AR1, port(*AR3(T0)) ; |2160| 
	.dwpsn	file "../c5535_bsl_revc/ezdsp5535_v1/c55xx_csl/src/csl_usb.c",line 2162,column 12,is_stmt
        B $C$L145 ; |2162| 
                                        ; branch occurs ; |2162| 
$C$L143:    
	.dwpsn	file "../c5535_bsl_revc/ezdsp5535_v1/c55xx_csl/src/csl_usb.c",line 2168,column 5,is_stmt
        MOV #-6, *SP(#1) ; |2168| 
	.dwpsn	file "../c5535_bsl_revc/ezdsp5535_v1/c55xx_csl/src/csl_usb.c",line 2169,column 12,is_stmt
        B $C$L145 ; |2169| 
                                        ; branch occurs ; |2169| 
$C$L144:    
	.dwpsn	file "../c5535_bsl_revc/ezdsp5535_v1/c55xx_csl/src/csl_usb.c",line 2157,column 5,is_stmt
        MOV *SP(#0), AR1 ; |2157| 
        BCC $C$L142,AR1 == #0 ; |2157| 
                                        ; branchcc occurs ; |2157| 
        B $C$L143 ; |2157| 
                                        ; branch occurs ; |2157| 
$C$L145:    
	.dwpsn	file "../c5535_bsl_revc/ezdsp5535_v1/c55xx_csl/src/csl_usb.c",line 2172,column 2,is_stmt
        MOV *SP(#1), T0 ; |2172| 
	.dwpsn	file "../c5535_bsl_revc/ezdsp5535_v1/c55xx_csl/src/csl_usb.c",line 2173,column 1,is_stmt
        AADD #3, SP
	.dwcfi	cfa_offset, 1
$C$DW$238	.dwtag  DW_TAG_TI_branch
	.dwattr $C$DW$238, DW_AT_low_pc(0x00)
	.dwattr $C$DW$238, DW_AT_TI_return
        RET
                                        ; return occurs
	.dwattr $C$DW$234, DW_AT_TI_end_file("../c5535_bsl_revc/ezdsp5535_v1/c55xx_csl/src/csl_usb.c")
	.dwattr $C$DW$234, DW_AT_TI_end_line(0x87d)
	.dwattr $C$DW$234, DW_AT_TI_end_column(0x01)
	.dwendentry
	.dwendtag $C$DW$234

	.sect	".text"
	.align 4
	.global	_USB_setRemoteWakeup

$C$DW$239	.dwtag  DW_TAG_subprogram, DW_AT_name("USB_setRemoteWakeup")
	.dwattr $C$DW$239, DW_AT_low_pc(_USB_setRemoteWakeup)
	.dwattr $C$DW$239, DW_AT_high_pc(0x00)
	.dwattr $C$DW$239, DW_AT_TI_symbol_name("_USB_setRemoteWakeup")
	.dwattr $C$DW$239, DW_AT_external
	.dwattr $C$DW$239, DW_AT_type(*$C$DW$T$75)
	.dwattr $C$DW$239, DW_AT_TI_begin_file("../c5535_bsl_revc/ezdsp5535_v1/c55xx_csl/src/csl_usb.c")
	.dwattr $C$DW$239, DW_AT_TI_begin_line(0x8a7)
	.dwattr $C$DW$239, DW_AT_TI_begin_column(0x0c)
	.dwattr $C$DW$239, DW_AT_TI_max_frame_size(0x08)
	.dwpsn	file "../c5535_bsl_revc/ezdsp5535_v1/c55xx_csl/src/csl_usb.c",line 2217,column 1,is_stmt,address _USB_setRemoteWakeup

	.dwfde $C$DW$CIE, _USB_setRemoteWakeup
$C$DW$240	.dwtag  DW_TAG_formal_parameter, DW_AT_name("devNum")
	.dwattr $C$DW$240, DW_AT_TI_symbol_name("_devNum")
	.dwattr $C$DW$240, DW_AT_type(*$C$DW$T$68)
	.dwattr $C$DW$240, DW_AT_location[DW_OP_reg12]
$C$DW$241	.dwtag  DW_TAG_formal_parameter, DW_AT_name("rmtWkpStat")
	.dwattr $C$DW$241, DW_AT_TI_symbol_name("_rmtWkpStat")
	.dwattr $C$DW$241, DW_AT_type(*$C$DW$T$88)
	.dwattr $C$DW$241, DW_AT_location[DW_OP_reg13]
;*******************************************************************************
;* FUNCTION NAME: USB_setRemoteWakeup                                          *
;*                                                                             *
;*   Function Uses Regs : T0,T1,AR1,AR3,XAR3,SP,M40,SATA,SATD,RDM,FRCT,SMUL    *
;*   Stack Frame        : Compact (No Frame Pointer, w/ debug)                 *
;*   Total Frame Size   : 8 words                                              *
;*                        (2 return address/alignment)                         *
;*                        (6 local values)                                     *
;*   Min System Stack   : 1 word                                               *
;*******************************************************************************
_USB_setRemoteWakeup:
	.dwcfi	cfa_offset, 1
	.dwcfi	save_reg_to_mem, 91, -1
        AADD #-7, SP
	.dwcfi	cfa_offset, 8
$C$DW$242	.dwtag  DW_TAG_variable, DW_AT_name("devNum")
	.dwattr $C$DW$242, DW_AT_TI_symbol_name("_devNum")
	.dwattr $C$DW$242, DW_AT_type(*$C$DW$T$68)
	.dwattr $C$DW$242, DW_AT_location[DW_OP_bregx 0x24 0]
$C$DW$243	.dwtag  DW_TAG_variable, DW_AT_name("rmtWkpStat")
	.dwattr $C$DW$243, DW_AT_TI_symbol_name("_rmtWkpStat")
	.dwattr $C$DW$243, DW_AT_type(*$C$DW$T$88)
	.dwattr $C$DW$243, DW_AT_location[DW_OP_bregx 0x24 1]
$C$DW$244	.dwtag  DW_TAG_variable, DW_AT_name("status")
	.dwattr $C$DW$244, DW_AT_TI_symbol_name("_status")
	.dwattr $C$DW$244, DW_AT_type(*$C$DW$T$75)
	.dwattr $C$DW$244, DW_AT_location[DW_OP_bregx 0x24 2]
$C$DW$245	.dwtag  DW_TAG_variable, DW_AT_name("pContext")
	.dwattr $C$DW$245, DW_AT_TI_symbol_name("_pContext")
	.dwattr $C$DW$245, DW_AT_type(*$C$DW$T$142)
	.dwattr $C$DW$245, DW_AT_location[DW_OP_bregx 0x24 4]
        MOV T1, *SP(#1) ; |2217| 
        MOV T0, *SP(#0) ; |2217| 
	.dwpsn	file "../c5535_bsl_revc/ezdsp5535_v1/c55xx_csl/src/csl_usb.c",line 2221,column 5,is_stmt
        MOV #0, *SP(#2) ; |2221| 
	.dwpsn	file "../c5535_bsl_revc/ezdsp5535_v1/c55xx_csl/src/csl_usb.c",line 2222,column 5,is_stmt
        AMOV #_gUsbContext, XAR3 ; |2222| 
        MOV XAR3, dbl(*SP(#4))
	.dwpsn	file "../c5535_bsl_revc/ezdsp5535_v1/c55xx_csl/src/csl_usb.c",line 2224,column 5,is_stmt
        B $C$L148 ; |2224| 
                                        ; branch occurs ; |2224| 
$C$L146:    
	.dwpsn	file "../c5535_bsl_revc/ezdsp5535_v1/c55xx_csl/src/csl_usb.c",line 2227,column 5,is_stmt
        MOV *SP(#1), AR1 ; |2227| 
        MOV AR1, *AR3(#96) ; |2227| 
	.dwpsn	file "../c5535_bsl_revc/ezdsp5535_v1/c55xx_csl/src/csl_usb.c",line 2228,column 12,is_stmt
        B $C$L149 ; |2228| 
                                        ; branch occurs ; |2228| 
$C$L147:    
	.dwpsn	file "../c5535_bsl_revc/ezdsp5535_v1/c55xx_csl/src/csl_usb.c",line 2234,column 5,is_stmt
        MOV #-6, *SP(#2) ; |2234| 
	.dwpsn	file "../c5535_bsl_revc/ezdsp5535_v1/c55xx_csl/src/csl_usb.c",line 2235,column 12,is_stmt
        B $C$L149 ; |2235| 
                                        ; branch occurs ; |2235| 
$C$L148:    
	.dwpsn	file "../c5535_bsl_revc/ezdsp5535_v1/c55xx_csl/src/csl_usb.c",line 2224,column 5,is_stmt
        MOV *SP(#0), AR1 ; |2224| 
        BCC $C$L146,AR1 == #0 ; |2224| 
                                        ; branchcc occurs ; |2224| 
        B $C$L147 ; |2224| 
                                        ; branch occurs ; |2224| 
$C$L149:    
	.dwpsn	file "../c5535_bsl_revc/ezdsp5535_v1/c55xx_csl/src/csl_usb.c",line 2238,column 2,is_stmt
        MOV *SP(#2), T0 ; |2238| 
	.dwpsn	file "../c5535_bsl_revc/ezdsp5535_v1/c55xx_csl/src/csl_usb.c",line 2239,column 1,is_stmt
        AADD #7, SP
	.dwcfi	cfa_offset, 1
$C$DW$246	.dwtag  DW_TAG_TI_branch
	.dwattr $C$DW$246, DW_AT_low_pc(0x00)
	.dwattr $C$DW$246, DW_AT_TI_return
        RET
                                        ; return occurs
	.dwattr $C$DW$239, DW_AT_TI_end_file("../c5535_bsl_revc/ezdsp5535_v1/c55xx_csl/src/csl_usb.c")
	.dwattr $C$DW$239, DW_AT_TI_end_line(0x8bf)
	.dwattr $C$DW$239, DW_AT_TI_end_column(0x01)
	.dwendentry
	.dwendtag $C$DW$239

	.sect	".text"
	.align 4
	.global	_USB_getRemoteWakeupStat

$C$DW$247	.dwtag  DW_TAG_subprogram, DW_AT_name("USB_getRemoteWakeupStat")
	.dwattr $C$DW$247, DW_AT_low_pc(_USB_getRemoteWakeupStat)
	.dwattr $C$DW$247, DW_AT_high_pc(0x00)
	.dwattr $C$DW$247, DW_AT_TI_symbol_name("_USB_getRemoteWakeupStat")
	.dwattr $C$DW$247, DW_AT_external
	.dwattr $C$DW$247, DW_AT_type(*$C$DW$T$88)
	.dwattr $C$DW$247, DW_AT_TI_begin_file("../c5535_bsl_revc/ezdsp5535_v1/c55xx_csl/src/csl_usb.c")
	.dwattr $C$DW$247, DW_AT_TI_begin_line(0x8e7)
	.dwattr $C$DW$247, DW_AT_TI_begin_column(0x10)
	.dwattr $C$DW$247, DW_AT_TI_max_frame_size(0x06)
	.dwpsn	file "../c5535_bsl_revc/ezdsp5535_v1/c55xx_csl/src/csl_usb.c",line 2280,column 1,is_stmt,address _USB_getRemoteWakeupStat

	.dwfde $C$DW$CIE, _USB_getRemoteWakeupStat
$C$DW$248	.dwtag  DW_TAG_formal_parameter, DW_AT_name("devNum")
	.dwattr $C$DW$248, DW_AT_TI_symbol_name("_devNum")
	.dwattr $C$DW$248, DW_AT_type(*$C$DW$T$68)
	.dwattr $C$DW$248, DW_AT_location[DW_OP_reg12]
;*******************************************************************************
;* FUNCTION NAME: USB_getRemoteWakeupStat                                      *
;*                                                                             *
;*   Function Uses Regs : T0,AR3,XAR3,SP,M40,SATA,SATD,RDM,FRCT,SMUL           *
;*   Stack Frame        : Compact (No Frame Pointer, w/ debug)                 *
;*   Total Frame Size   : 6 words                                              *
;*                        (2 return address/alignment)                         *
;*                        (4 local values)                                     *
;*   Min System Stack   : 1 word                                               *
;*******************************************************************************
_USB_getRemoteWakeupStat:
	.dwcfi	cfa_offset, 1
	.dwcfi	save_reg_to_mem, 91, -1
        AADD #-5, SP
	.dwcfi	cfa_offset, 6
$C$DW$249	.dwtag  DW_TAG_variable, DW_AT_name("devNum")
	.dwattr $C$DW$249, DW_AT_TI_symbol_name("_devNum")
	.dwattr $C$DW$249, DW_AT_type(*$C$DW$T$68)
	.dwattr $C$DW$249, DW_AT_location[DW_OP_bregx 0x24 0]
$C$DW$250	.dwtag  DW_TAG_variable, DW_AT_name("pContext")
	.dwattr $C$DW$250, DW_AT_TI_symbol_name("_pContext")
	.dwattr $C$DW$250, DW_AT_type(*$C$DW$T$142)
	.dwattr $C$DW$250, DW_AT_location[DW_OP_bregx 0x24 2]
        MOV T0, *SP(#0) ; |2280| 
	.dwpsn	file "../c5535_bsl_revc/ezdsp5535_v1/c55xx_csl/src/csl_usb.c",line 2283,column 2,is_stmt
        AMOV #_gUsbContext, XAR3 ; |2283| 
        MOV XAR3, dbl(*SP(#2))
	.dwpsn	file "../c5535_bsl_revc/ezdsp5535_v1/c55xx_csl/src/csl_usb.c",line 2285,column 2,is_stmt
        MOV *AR3(#96), T0 ; |2285| 
	.dwpsn	file "../c5535_bsl_revc/ezdsp5535_v1/c55xx_csl/src/csl_usb.c",line 2286,column 1,is_stmt
        AADD #5, SP
	.dwcfi	cfa_offset, 1
$C$DW$251	.dwtag  DW_TAG_TI_branch
	.dwattr $C$DW$251, DW_AT_low_pc(0x00)
	.dwattr $C$DW$251, DW_AT_TI_return
        RET
                                        ; return occurs
	.dwattr $C$DW$247, DW_AT_TI_end_file("../c5535_bsl_revc/ezdsp5535_v1/c55xx_csl/src/csl_usb.c")
	.dwattr $C$DW$247, DW_AT_TI_end_line(0x8ee)
	.dwattr $C$DW$247, DW_AT_TI_end_column(0x01)
	.dwendentry
	.dwendtag $C$DW$247

	.sect	".text"
	.align 4
	.global	_USB_issueRemoteWakeup

$C$DW$252	.dwtag  DW_TAG_subprogram, DW_AT_name("USB_issueRemoteWakeup")
	.dwattr $C$DW$252, DW_AT_low_pc(_USB_issueRemoteWakeup)
	.dwattr $C$DW$252, DW_AT_high_pc(0x00)
	.dwattr $C$DW$252, DW_AT_TI_symbol_name("_USB_issueRemoteWakeup")
	.dwattr $C$DW$252, DW_AT_external
	.dwattr $C$DW$252, DW_AT_type(*$C$DW$T$75)
	.dwattr $C$DW$252, DW_AT_TI_begin_file("../c5535_bsl_revc/ezdsp5535_v1/c55xx_csl/src/csl_usb.c")
	.dwattr $C$DW$252, DW_AT_TI_begin_line(0x91b)
	.dwattr $C$DW$252, DW_AT_TI_begin_column(0x0c)
	.dwattr $C$DW$252, DW_AT_TI_max_frame_size(0x08)
	.dwpsn	file "../c5535_bsl_revc/ezdsp5535_v1/c55xx_csl/src/csl_usb.c",line 2333,column 1,is_stmt,address _USB_issueRemoteWakeup

	.dwfde $C$DW$CIE, _USB_issueRemoteWakeup
$C$DW$253	.dwtag  DW_TAG_formal_parameter, DW_AT_name("devNum")
	.dwattr $C$DW$253, DW_AT_TI_symbol_name("_devNum")
	.dwattr $C$DW$253, DW_AT_type(*$C$DW$T$68)
	.dwattr $C$DW$253, DW_AT_location[DW_OP_reg12]
$C$DW$254	.dwtag  DW_TAG_formal_parameter, DW_AT_name("resumeBitVal")
	.dwattr $C$DW$254, DW_AT_TI_symbol_name("_resumeBitVal")
	.dwattr $C$DW$254, DW_AT_type(*$C$DW$T$81)
	.dwattr $C$DW$254, DW_AT_location[DW_OP_reg13]
;*******************************************************************************
;* FUNCTION NAME: USB_issueRemoteWakeup                                        *
;*                                                                             *
;*   Function Uses Regs : AC0,T0,T1,AR1,AR2,AR3,XAR3,SP,TC1,M40,SATA,SATD,RDM, *
;*                        FRCT,SMUL                                            *
;*   Stack Frame        : Compact (No Frame Pointer, w/ debug)                 *
;*   Total Frame Size   : 8 words                                              *
;*                        (2 return address/alignment)                         *
;*                        (6 local values)                                     *
;*   Min System Stack   : 1 word                                               *
;*******************************************************************************
_USB_issueRemoteWakeup:
	.dwcfi	cfa_offset, 1
	.dwcfi	save_reg_to_mem, 91, -1
        AADD #-7, SP
	.dwcfi	cfa_offset, 8
$C$DW$255	.dwtag  DW_TAG_variable, DW_AT_name("devNum")
	.dwattr $C$DW$255, DW_AT_TI_symbol_name("_devNum")
	.dwattr $C$DW$255, DW_AT_type(*$C$DW$T$68)
	.dwattr $C$DW$255, DW_AT_location[DW_OP_bregx 0x24 0]
$C$DW$256	.dwtag  DW_TAG_variable, DW_AT_name("resumeBitVal")
	.dwattr $C$DW$256, DW_AT_TI_symbol_name("_resumeBitVal")
	.dwattr $C$DW$256, DW_AT_type(*$C$DW$T$81)
	.dwattr $C$DW$256, DW_AT_location[DW_OP_bregx 0x24 1]
$C$DW$257	.dwtag  DW_TAG_variable, DW_AT_name("status")
	.dwattr $C$DW$257, DW_AT_TI_symbol_name("_status")
	.dwattr $C$DW$257, DW_AT_type(*$C$DW$T$75)
	.dwattr $C$DW$257, DW_AT_location[DW_OP_bregx 0x24 2]
$C$DW$258	.dwtag  DW_TAG_variable, DW_AT_name("pContext")
	.dwattr $C$DW$258, DW_AT_TI_symbol_name("_pContext")
	.dwattr $C$DW$258, DW_AT_type(*$C$DW$T$142)
	.dwattr $C$DW$258, DW_AT_location[DW_OP_bregx 0x24 4]
        MOV T1, *SP(#1) ; |2333| 
        MOV T0, *SP(#0) ; |2333| 
	.dwpsn	file "../c5535_bsl_revc/ezdsp5535_v1/c55xx_csl/src/csl_usb.c",line 2337,column 5,is_stmt
        MOV #0, *SP(#2) ; |2337| 
	.dwpsn	file "../c5535_bsl_revc/ezdsp5535_v1/c55xx_csl/src/csl_usb.c",line 2338,column 5,is_stmt
        AMOV #_gUsbContext, XAR3 ; |2338| 
        MOV XAR3, dbl(*SP(#4))
	.dwpsn	file "../c5535_bsl_revc/ezdsp5535_v1/c55xx_csl/src/csl_usb.c",line 2340,column 5,is_stmt
        B $C$L152 ; |2340| 
                                        ; branch occurs ; |2340| 
$C$L150:    
	.dwpsn	file "../c5535_bsl_revc/ezdsp5535_v1/c55xx_csl/src/csl_usb.c",line 2343,column 5,is_stmt
        CMP *AR3(#96) == #1, TC1 ; |2343| 
        BCC $C$L153,!TC1 ; |2343| 
                                        ; branchcc occurs ; |2343| 
	.dwpsn	file "../c5535_bsl_revc/ezdsp5535_v1/c55xx_csl/src/csl_usb.c",line 2346,column 5,is_stmt
        MOV #1025, T0 ; |2346| 
        MOV *(#_usbRegisters), AR3 ; |2346| 
        MOV *SP(#1) << #10, AC0 ; |2346| 
        AND #0x0400, AC0, AR1 ; |2346| 
        MOV port(*AR3(T0)), AR2 ; |2346| 
        BCLR @#10, AR2 ; |2346| 
        OR AR2, AR1 ; |2346| 
        MOV AR1, port(*AR3(T0)) ; |2346| 
	.dwpsn	file "../c5535_bsl_revc/ezdsp5535_v1/c55xx_csl/src/csl_usb.c",line 2349,column 12,is_stmt
        B $C$L153 ; |2349| 
                                        ; branch occurs ; |2349| 
$C$L151:    
	.dwpsn	file "../c5535_bsl_revc/ezdsp5535_v1/c55xx_csl/src/csl_usb.c",line 2355,column 5,is_stmt
        MOV #-6, *SP(#2) ; |2355| 
	.dwpsn	file "../c5535_bsl_revc/ezdsp5535_v1/c55xx_csl/src/csl_usb.c",line 2356,column 12,is_stmt
        B $C$L153 ; |2356| 
                                        ; branch occurs ; |2356| 
$C$L152:    
	.dwpsn	file "../c5535_bsl_revc/ezdsp5535_v1/c55xx_csl/src/csl_usb.c",line 2340,column 5,is_stmt
        MOV *SP(#0), AR1 ; |2340| 
        BCC $C$L150,AR1 == #0 ; |2340| 
                                        ; branchcc occurs ; |2340| 
        B $C$L151 ; |2340| 
                                        ; branch occurs ; |2340| 
$C$L153:    
	.dwpsn	file "../c5535_bsl_revc/ezdsp5535_v1/c55xx_csl/src/csl_usb.c",line 2359,column 2,is_stmt
        MOV *SP(#2), T0 ; |2359| 
	.dwpsn	file "../c5535_bsl_revc/ezdsp5535_v1/c55xx_csl/src/csl_usb.c",line 2360,column 1,is_stmt
        AADD #7, SP
	.dwcfi	cfa_offset, 1
$C$DW$259	.dwtag  DW_TAG_TI_branch
	.dwattr $C$DW$259, DW_AT_low_pc(0x00)
	.dwattr $C$DW$259, DW_AT_TI_return
        RET
                                        ; return occurs
	.dwattr $C$DW$252, DW_AT_TI_end_file("../c5535_bsl_revc/ezdsp5535_v1/c55xx_csl/src/csl_usb.c")
	.dwattr $C$DW$252, DW_AT_TI_end_line(0x938)
	.dwattr $C$DW$252, DW_AT_TI_end_column(0x01)
	.dwendentry
	.dwendtag $C$DW$252

	.sect	".text"
	.align 4
	.global	_USB_setDevAddr

$C$DW$260	.dwtag  DW_TAG_subprogram, DW_AT_name("USB_setDevAddr")
	.dwattr $C$DW$260, DW_AT_low_pc(_USB_setDevAddr)
	.dwattr $C$DW$260, DW_AT_high_pc(0x00)
	.dwattr $C$DW$260, DW_AT_TI_symbol_name("_USB_setDevAddr")
	.dwattr $C$DW$260, DW_AT_external
	.dwattr $C$DW$260, DW_AT_type(*$C$DW$T$75)
	.dwattr $C$DW$260, DW_AT_TI_begin_file("../c5535_bsl_revc/ezdsp5535_v1/c55xx_csl/src/csl_usb.c")
	.dwattr $C$DW$260, DW_AT_TI_begin_line(0x963)
	.dwattr $C$DW$260, DW_AT_TI_begin_column(0x0c)
	.dwattr $C$DW$260, DW_AT_TI_max_frame_size(0x04)
	.dwpsn	file "../c5535_bsl_revc/ezdsp5535_v1/c55xx_csl/src/csl_usb.c",line 2405,column 1,is_stmt,address _USB_setDevAddr

	.dwfde $C$DW$CIE, _USB_setDevAddr
$C$DW$261	.dwtag  DW_TAG_formal_parameter, DW_AT_name("devNum")
	.dwattr $C$DW$261, DW_AT_TI_symbol_name("_devNum")
	.dwattr $C$DW$261, DW_AT_type(*$C$DW$T$68)
	.dwattr $C$DW$261, DW_AT_location[DW_OP_reg12]
$C$DW$262	.dwtag  DW_TAG_formal_parameter, DW_AT_name("addr")
	.dwattr $C$DW$262, DW_AT_TI_symbol_name("_addr")
	.dwattr $C$DW$262, DW_AT_type(*$C$DW$T$19)
	.dwattr $C$DW$262, DW_AT_location[DW_OP_reg13]
;*******************************************************************************
;* FUNCTION NAME: USB_setDevAddr                                               *
