TMS320C55x Assembler PC v4.4.1 Tue Sep 18 04:49:42 2018

Tools Copyright (c) 1996-2012 Texas Instruments Incorporated
dynamic.asm                                                          PAGE    1

    1950              ; Temporary Registers Used: None
       1              ;*******************************************************************************
       2              ;* TMS320C55x C/C++ Codegen                                          PC v4.4.1 *
       3              ;* Date/Time created: Tue Sep 18 04:49:41 2018                                 *
       4              ;*******************************************************************************
       5                      .compiler_opts --hll_source=on --mem_model:code=flat --mem_model:data=large --object_format=coff --si
       6                      .mmregs
       7                      .cpl_on
       8                      .arms_on
       9                      .c54cm_off
      10                      .asg AR6, FP
      11                      .asg XAR6, XFP
      12                      .asg DPH, MDP
      13                      .model call=c55_std
      14                      .model mem=large
      15                      .noremark 5002  ; code respects overwrite rules
      16              ;*******************************************************************************
      17              ;* GLOBAL FILE PARAMETERS                                                      *
      18              ;*                                                                             *
      19              ;*   Architecture       : TMS320C55x                                           *
      20              ;*   Optimizing for     : Speed                                                *
      21              ;*   Memory             : Large Model (23-Bit Data Pointers)                   *
      22              ;*   Calls              : Normal Library ASM calls                             *
      23              ;*   Debug Info         : Standard TI Debug Information                        *
      24              ;*******************************************************************************
      25              
      26              $C$DW$CU        .dwtag  DW_TAG_compile_unit
      27                      .dwattr $C$DW$CU, DW_AT_name("../FreeRTOS/Demo/Common/Minimal/dynamic.c")
      28                      .dwattr $C$DW$CU, DW_AT_producer("TMS320C55x C/C++ Codegen PC v4.4.1 Copyright (c) 1996-2012 Texas In
      29                      .dwattr $C$DW$CU, DW_AT_TI_version(0x01)
      30                      .dwattr $C$DW$CU, DW_AT_comp_dir("F:\eZdsp_DBG\eZDSP_5535_Files\ccsws2\test\Debug")
      31              ;******************************************************************************
      32              ;* CINIT RECORDS                                                              *
      33              ;******************************************************************************
      34 000000               .sect   ".cinit"
      35                      .align  1
      36 000000 0001          .field          1,16
      37 000001 0000-         .field          _usCheckVariable+0,24
         000002 0600 
      38 000002 0600          .field          0,8
      39 000003 0000          .field  0,16                    ; _usCheckVariable @ 0
      40              
      41 000004               .sect   ".cinit"
      42                      .align  1
      43 000004 0001          .field          1,16
      44 000005 0000-         .field          _xSuspendedQueueSendError+0,24
         000006 0700 
      45 000006 0700          .field          0,8
      46 000007 0000          .field  0,16                    ; _xSuspendedQueueSendError @ 0
      47              
      48 000008               .sect   ".cinit"
      49                      .align  1
      50 000008 0001          .field          1,16
      51 000009 0000-         .field          _xSuspendedQueueReceiveError+0,24
         00000a 0800 
TMS320C55x Assembler PC v4.4.1 Tue Sep 18 04:49:42 2018

Tools Copyright (c) 1996-2012 Texas Instruments Incorporated
dynamic.asm                                                          PAGE    2

      52 00000a 0800          .field          0,8
      53 00000b 0000          .field  0,16                    ; _xSuspendedQueueReceiveError @ 0
      54              
      55 00000c               .sect   ".cinit"
      56                      .align  1
      57 00000c 0002          .field          2,16
      58 00000d 0000-         .field          _ulExpectedValue+0,24
         00000e 0C00 
      59 00000e 0C00          .field          0,8
      60 00000f 0000          .field  0,32                    ; _ulExpectedValue @ 0
         000010 0000 
      61              
      62 000011               .sect   ".cinit"
      63                      .align  1
      64 000011 0002          .field          2,16
      65 000012 0000-         .field          _ulValueToSend$1+0,24
         000013 0E00 
      66 000013 0E00          .field          0,8
      67 000014 0000          .field  0,32                    ; _ulValueToSend$1 @ 0
         000015 0000 
      68              
      69 000016               .sect   ".cinit"
      70                      .align  1
      71 000016 0001          .field          1,16
      72 000017 0000-         .field          _usLastTaskCheck$2+0,24
         000018 0900 
      73 000018 0900          .field          0,8
      74 000019 0000          .field  0,16                    ; _usLastTaskCheck$2 @ 0
      75              
      76 00001a               .sect   ".cinit"
      77                      .align  1
      78 00001a 0002          .field          2,16
      79 00001b 0000-         .field          _ulLastExpectedValue$3+0,24
         00001c 1000 
      80 00001c 1000          .field          0,8
      81 00001d 0000          .field  0,32                    ; _ulLastExpectedValue$3 @ 0
         00001e 0000 
      82              
      83              
      84              $C$DW$1 .dwtag  DW_TAG_subprogram, DW_AT_name("xTaskCreate")
      85                      .dwattr $C$DW$1, DW_AT_TI_symbol_name("_xTaskCreate")
      86                      .dwattr $C$DW$1, DW_AT_type(*$C$DW$T$53)
      87                      .dwattr $C$DW$1, DW_AT_declaration
      88                      .dwattr $C$DW$1, DW_AT_external
      89              $C$DW$2 .dwtag  DW_TAG_formal_parameter
      90                      .dwattr $C$DW$2, DW_AT_type(*$C$DW$T$32)
      91              $C$DW$3 .dwtag  DW_TAG_formal_parameter
      92                      .dwattr $C$DW$3, DW_AT_type(*$C$DW$T$56)
      93              $C$DW$4 .dwtag  DW_TAG_formal_parameter
      94                      .dwattr $C$DW$4, DW_AT_type(*$C$DW$T$58)
      95              $C$DW$5 .dwtag  DW_TAG_formal_parameter
      96                      .dwattr $C$DW$5, DW_AT_type(*$C$DW$T$29)
      97              $C$DW$6 .dwtag  DW_TAG_formal_parameter
      98                      .dwattr $C$DW$6, DW_AT_type(*$C$DW$T$23)
      99              $C$DW$7 .dwtag  DW_TAG_formal_parameter
TMS320C55x Assembler PC v4.4.1 Tue Sep 18 04:49:42 2018

Tools Copyright (c) 1996-2012 Texas Instruments Incorporated
dynamic.asm                                                          PAGE    3

     100                      .dwattr $C$DW$7, DW_AT_type(*$C$DW$T$60)
     101                      .dwendtag $C$DW$1
     102              
     103              
     104              $C$DW$8 .dwtag  DW_TAG_subprogram, DW_AT_name("vTaskDelay")
     105                      .dwattr $C$DW$8, DW_AT_TI_symbol_name("_vTaskDelay")
     106                      .dwattr $C$DW$8, DW_AT_declaration
     107                      .dwattr $C$DW$8, DW_AT_external
     108              $C$DW$9 .dwtag  DW_TAG_formal_parameter
     109                      .dwattr $C$DW$9, DW_AT_type(*$C$DW$T$34)
     110                      .dwendtag $C$DW$8
     111              
     112              
     113              $C$DW$10        .dwtag  DW_TAG_subprogram, DW_AT_name("uxTaskPriorityGet")
     114                      .dwattr $C$DW$10, DW_AT_TI_symbol_name("_uxTaskPriorityGet")
     115                      .dwattr $C$DW$10, DW_AT_type(*$C$DW$T$23)
     116                      .dwattr $C$DW$10, DW_AT_declaration
     117                      .dwattr $C$DW$10, DW_AT_external
     118              $C$DW$11        .dwtag  DW_TAG_formal_parameter
     119                      .dwattr $C$DW$11, DW_AT_type(*$C$DW$T$69)
     120                      .dwendtag $C$DW$10
     121              
     122              
     123              $C$DW$12        .dwtag  DW_TAG_subprogram, DW_AT_name("vTaskPrioritySet")
     124                      .dwattr $C$DW$12, DW_AT_TI_symbol_name("_vTaskPrioritySet")
     125                      .dwattr $C$DW$12, DW_AT_declaration
     126                      .dwattr $C$DW$12, DW_AT_external
     127              $C$DW$13        .dwtag  DW_TAG_formal_parameter
     128                      .dwattr $C$DW$13, DW_AT_type(*$C$DW$T$38)
     129              $C$DW$14        .dwtag  DW_TAG_formal_parameter
     130                      .dwattr $C$DW$14, DW_AT_type(*$C$DW$T$23)
     131                      .dwendtag $C$DW$12
     132              
     133              
     134              $C$DW$15        .dwtag  DW_TAG_subprogram, DW_AT_name("vTaskSuspend")
     135                      .dwattr $C$DW$15, DW_AT_TI_symbol_name("_vTaskSuspend")
     136                      .dwattr $C$DW$15, DW_AT_declaration
     137                      .dwattr $C$DW$15, DW_AT_external
     138              $C$DW$16        .dwtag  DW_TAG_formal_parameter
     139                      .dwattr $C$DW$16, DW_AT_type(*$C$DW$T$38)
     140                      .dwendtag $C$DW$15
     141              
     142              
     143              $C$DW$17        .dwtag  DW_TAG_subprogram, DW_AT_name("vTaskResume")
     144                      .dwattr $C$DW$17, DW_AT_TI_symbol_name("_vTaskResume")
     145                      .dwattr $C$DW$17, DW_AT_declaration
     146                      .dwattr $C$DW$17, DW_AT_external
     147              $C$DW$18        .dwtag  DW_TAG_formal_parameter
     148                      .dwattr $C$DW$18, DW_AT_type(*$C$DW$T$38)
     149                      .dwendtag $C$DW$17
     150              
     151              
     152              $C$DW$19        .dwtag  DW_TAG_subprogram, DW_AT_name("vTaskSuspendAll")
     153                      .dwattr $C$DW$19, DW_AT_TI_symbol_name("_vTaskSuspendAll")
     154                      .dwattr $C$DW$19, DW_AT_declaration
TMS320C55x Assembler PC v4.4.1 Tue Sep 18 04:49:42 2018

Tools Copyright (c) 1996-2012 Texas Instruments Incorporated
dynamic.asm                                                          PAGE    4

     155                      .dwattr $C$DW$19, DW_AT_external
     156              
     157              $C$DW$20        .dwtag  DW_TAG_subprogram, DW_AT_name("xTaskResumeAll")
     158                      .dwattr $C$DW$20, DW_AT_TI_symbol_name("_xTaskResumeAll")
     159                      .dwattr $C$DW$20, DW_AT_type(*$C$DW$T$53)
     160                      .dwattr $C$DW$20, DW_AT_declaration
     161                      .dwattr $C$DW$20, DW_AT_external
     162              
     163              $C$DW$21        .dwtag  DW_TAG_subprogram, DW_AT_name("xQueueGenericSend")
     164                      .dwattr $C$DW$21, DW_AT_TI_symbol_name("_xQueueGenericSend")
     165                      .dwattr $C$DW$21, DW_AT_type(*$C$DW$T$53)
     166                      .dwattr $C$DW$21, DW_AT_declaration
     167                      .dwattr $C$DW$21, DW_AT_external
     168              $C$DW$22        .dwtag  DW_TAG_formal_parameter
     169                      .dwattr $C$DW$22, DW_AT_type(*$C$DW$T$22)
     170              $C$DW$23        .dwtag  DW_TAG_formal_parameter
     171                      .dwattr $C$DW$23, DW_AT_type(*$C$DW$T$47)
     172              $C$DW$24        .dwtag  DW_TAG_formal_parameter
     173                      .dwattr $C$DW$24, DW_AT_type(*$C$DW$T$33)
     174              $C$DW$25        .dwtag  DW_TAG_formal_parameter
     175                      .dwattr $C$DW$25, DW_AT_type(*$C$DW$T$54)
     176                      .dwendtag $C$DW$21
     177              
     178              
     179              $C$DW$26        .dwtag  DW_TAG_subprogram, DW_AT_name("xQueueReceive")
     180                      .dwattr $C$DW$26, DW_AT_TI_symbol_name("_xQueueReceive")
     181                      .dwattr $C$DW$26, DW_AT_type(*$C$DW$T$53)
     182                      .dwattr $C$DW$26, DW_AT_declaration
     183                      .dwattr $C$DW$26, DW_AT_external
     184              $C$DW$27        .dwtag  DW_TAG_formal_parameter
     185                      .dwattr $C$DW$27, DW_AT_type(*$C$DW$T$22)
     186              $C$DW$28        .dwtag  DW_TAG_formal_parameter
     187                      .dwattr $C$DW$28, DW_AT_type(*$C$DW$T$29)
     188              $C$DW$29        .dwtag  DW_TAG_formal_parameter
     189                      .dwattr $C$DW$29, DW_AT_type(*$C$DW$T$33)
     190                      .dwendtag $C$DW$26
     191              
     192              
     193              $C$DW$30        .dwtag  DW_TAG_subprogram, DW_AT_name("vQueueAddToRegistry")
     194                      .dwattr $C$DW$30, DW_AT_TI_symbol_name("_vQueueAddToRegistry")
     195                      .dwattr $C$DW$30, DW_AT_declaration
     196                      .dwattr $C$DW$30, DW_AT_external
     197              $C$DW$31        .dwtag  DW_TAG_formal_parameter
     198                      .dwattr $C$DW$31, DW_AT_type(*$C$DW$T$22)
     199              $C$DW$32        .dwtag  DW_TAG_formal_parameter
     200                      .dwattr $C$DW$32, DW_AT_type(*$C$DW$T$50)
     201                      .dwendtag $C$DW$30
     202              
     203              
     204              $C$DW$33        .dwtag  DW_TAG_subprogram, DW_AT_name("xQueueGenericCreate")
     205                      .dwattr $C$DW$33, DW_AT_TI_symbol_name("_xQueueGenericCreate")
     206                      .dwattr $C$DW$33, DW_AT_type(*$C$DW$T$22)
     207                      .dwattr $C$DW$33, DW_AT_declaration
     208                      .dwattr $C$DW$33, DW_AT_external
     209              $C$DW$34        .dwtag  DW_TAG_formal_parameter
TMS320C55x Assembler PC v4.4.1 Tue Sep 18 04:49:42 2018

Tools Copyright (c) 1996-2012 Texas Instruments Incorporated
dynamic.asm                                                          PAGE    5

     210                      .dwattr $C$DW$34, DW_AT_type(*$C$DW$T$24)
     211              $C$DW$35        .dwtag  DW_TAG_formal_parameter
     212                      .dwattr $C$DW$35, DW_AT_type(*$C$DW$T$24)
     213              $C$DW$36        .dwtag  DW_TAG_formal_parameter
     214                      .dwattr $C$DW$36, DW_AT_type(*$C$DW$T$26)
     215                      .dwendtag $C$DW$33
     216              
     217 000000               .bss    _xContinuousIncrementHandle,2,0,2
     218              $C$DW$37        .dwtag  DW_TAG_variable, DW_AT_name("xContinuousIncrementHandle")
     219                      .dwattr $C$DW$37, DW_AT_TI_symbol_name("_xContinuousIncrementHandle")
     220                      .dwattr $C$DW$37, DW_AT_type(*$C$DW$T$38)
     221                      .dwattr $C$DW$37, DW_AT_location[DW_OP_addr _xContinuousIncrementHandle]
     222 000002               .bss    _xLimitedIncrementHandle,2,0,2
     223              $C$DW$38        .dwtag  DW_TAG_variable, DW_AT_name("xLimitedIncrementHandle")
     224                      .dwattr $C$DW$38, DW_AT_TI_symbol_name("_xLimitedIncrementHandle")
     225                      .dwattr $C$DW$38, DW_AT_type(*$C$DW$T$38)
     226                      .dwattr $C$DW$38, DW_AT_location[DW_OP_addr _xLimitedIncrementHandle]
     227 000004               .bss    _ulCounter,2,0,2
     228              $C$DW$39        .dwtag  DW_TAG_variable, DW_AT_name("ulCounter")
     229                      .dwattr $C$DW$39, DW_AT_TI_symbol_name("_ulCounter")
     230                      .dwattr $C$DW$39, DW_AT_type(*$C$DW$T$74)
     231                      .dwattr $C$DW$39, DW_AT_location[DW_OP_addr _ulCounter]
     232 000006               .bss    _usCheckVariable,1,0,0
     233              $C$DW$40        .dwtag  DW_TAG_variable, DW_AT_name("usCheckVariable")
     234                      .dwattr $C$DW$40, DW_AT_TI_symbol_name("_usCheckVariable")
     235                      .dwattr $C$DW$40, DW_AT_type(*$C$DW$T$73)
     236                      .dwattr $C$DW$40, DW_AT_location[DW_OP_addr _usCheckVariable]
     237 000007               .bss    _xSuspendedQueueSendError,1,0,0
     238              $C$DW$41        .dwtag  DW_TAG_variable, DW_AT_name("xSuspendedQueueSendError")
     239                      .dwattr $C$DW$41, DW_AT_TI_symbol_name("_xSuspendedQueueSendError")
     240                      .dwattr $C$DW$41, DW_AT_type(*$C$DW$T$55)
     241                      .dwattr $C$DW$41, DW_AT_location[DW_OP_addr _xSuspendedQueueSendError]
     242 000008               .bss    _xSuspendedQueueReceiveError,1,0,0
     243              $C$DW$42        .dwtag  DW_TAG_variable, DW_AT_name("xSuspendedQueueReceiveError")
     244                      .dwattr $C$DW$42, DW_AT_TI_symbol_name("_xSuspendedQueueReceiveError")
     245                      .dwattr $C$DW$42, DW_AT_type(*$C$DW$T$55)
     246                      .dwattr $C$DW$42, DW_AT_location[DW_OP_addr _xSuspendedQueueReceiveError]
     247                      .global _xSuspendedTestQueue
     248 00000a               .bss    _xSuspendedTestQueue,2,0,2
     249              $C$DW$43        .dwtag  DW_TAG_variable, DW_AT_name("xSuspendedTestQueue")
     250                      .dwattr $C$DW$43, DW_AT_TI_symbol_name("_xSuspendedTestQueue")
     251                      .dwattr $C$DW$43, DW_AT_location[DW_OP_addr _xSuspendedTestQueue]
     252                      .dwattr $C$DW$43, DW_AT_type(*$C$DW$T$22)
     253                      .dwattr $C$DW$43, DW_AT_external
     254 00000c               .bss    _ulExpectedValue,2,0,2
     255              $C$DW$44        .dwtag  DW_TAG_variable, DW_AT_name("ulExpectedValue")
     256                      .dwattr $C$DW$44, DW_AT_TI_symbol_name("_ulExpectedValue")
     257                      .dwattr $C$DW$44, DW_AT_type(*$C$DW$T$74)
     258                      .dwattr $C$DW$44, DW_AT_location[DW_OP_addr _ulExpectedValue]
     259              $C$DW$45        .dwtag  DW_TAG_variable, DW_AT_name("usCriticalNesting")
     260                      .dwattr $C$DW$45, DW_AT_TI_symbol_name("_usCriticalNesting")
     261                      .dwattr $C$DW$45, DW_AT_type(*$C$DW$T$72)
     262                      .dwattr $C$DW$45, DW_AT_declaration
     263                      .dwattr $C$DW$45, DW_AT_external
     264 00000e               .bss    _ulValueToSend$1,2,0,2
TMS320C55x Assembler PC v4.4.1 Tue Sep 18 04:49:42 2018

Tools Copyright (c) 1996-2012 Texas Instruments Incorporated
dynamic.asm                                                          PAGE    6

     265 000009               .bss    _usLastTaskCheck$2,1,0,0
     266 000010               .bss    _ulLastExpectedValue$3,2,0,2
     267              ;       F:\ti\ccs8p1\ccsv8\tools\compiler\alt-install-ti-cgt-c55x_4.4.1\bin\acp55.exe -@f:\\AppData\\Local\\T
     268 000000               .sect   ".text"
     269                      .align 4
     270                      .global _vStartDynamicPriorityTasks
     271              
     272              $C$DW$46        .dwtag  DW_TAG_subprogram, DW_AT_name("vStartDynamicPriorityTasks")
     273                      .dwattr $C$DW$46, DW_AT_low_pc(_vStartDynamicPriorityTasks)
     274                      .dwattr $C$DW$46, DW_AT_high_pc(0x00)
     275                      .dwattr $C$DW$46, DW_AT_TI_symbol_name("_vStartDynamicPriorityTasks")
     276                      .dwattr $C$DW$46, DW_AT_external
     277                      .dwattr $C$DW$46, DW_AT_TI_begin_file("../FreeRTOS/Demo/Common/Minimal/dynamic.c")
     278                      .dwattr $C$DW$46, DW_AT_TI_begin_line(0x92)
     279                      .dwattr $C$DW$46, DW_AT_TI_begin_column(0x06)
     280                      .dwattr $C$DW$46, DW_AT_TI_max_frame_size(0x02)
     281                      .dwpsn  file "../FreeRTOS/Demo/Common/Minimal/dynamic.c",line 147,column 1,is_stmt,address _vStartDyn
     282              
     283                      .dwfde $C$DW$CIE, _vStartDynamicPriorityTasks
     284              ;*******************************************************************************
     285              ;* FUNCTION NAME: vStartDynamicPriorityTasks                                   *
     286              ;*                                                                             *
     287              ;*   Function Uses Regs : AC0,AC0,T0,T1,AR0,XAR0,AR1,XAR1,AR2,XAR2,AR3,XAR3,SP,*
     288              ;*                        M40,SATA,SATD,RDM,FRCT,SMUL                          *
     289              ;*   Stack Frame        : Compact (No Frame Pointer, w/ debug)                 *
     290              ;*   Total Frame Size   : 2 words                                              *
     291              ;*                        (2 return address/alignment)                         *
     292              ;*   Min System Stack   : 1 word                                               *
     293              ;*******************************************************************************
     294 000000       _vStartDynamicPriorityTasks:
     295                      .dwcfi  cfa_offset, 1
     296                      .dwcfi  save_reg_to_mem, 91, -1
     297 000000 4EFF          AADD #-1, SP
     298                      .dwcfi  cfa_offset, 2
     299                      .dwpsn  file "../FreeRTOS/Demo/Common/Minimal/dynamic.c",line 148,column 2,is_stmt
     300              
     301 000002 3C14          MOV #1, T0
     302 000004 3D25  ||      MOV #2, T1
     303              
     304              $C$DW$47        .dwtag  DW_TAG_TI_branch
     305                      .dwattr $C$DW$47, DW_AT_low_pc(0x00)
     306                      .dwattr $C$DW$47, DW_AT_name("_xQueueGenericCreate")
     307                      .dwattr $C$DW$47, DW_AT_TI_call
     308              
     309 000006 6C00          CALL #_xQueueGenericCreate ; |148| 
         000008 0000!
     310 00000a 3D08  ||      MOV #0, AR0
     311              
     312                                                      ; call occurs [#_xQueueGenericCreate] ; |148| 
     313 00000c EB31          MOV XAR0, dbl(*(#_xSuspendedTestQueue))
         00000e 8500 
         000010 000A-
     314                      .dwpsn  file "../FreeRTOS/Demo/Common/Minimal/dynamic.c",line 150,column 2,is_stmt
     315 000012 ED31          MOV dbl(*(#_xSuspendedTestQueue)), XAR3
         000014 BF00 
TMS320C55x Assembler PC v4.4.1 Tue Sep 18 04:49:42 2018

Tools Copyright (c) 1996-2012 Texas Instruments Incorporated
dynamic.asm                                                          PAGE    7

         000016 000A-
     316 000018 90B0          MOV XAR3, AC0
     317 00001a 6D00          BCC $C$L1,AC0 == #0 ; |150| 
         00001c 00BE 
     318                                                      ; branchcc occurs ; |150| 
     319                      .dwpsn  file "../FreeRTOS/Demo/Common/Minimal/dynamic.c",line 158,column 3,is_stmt
     320 00001e EC31          AMOV #$C$FSL1, XAR1 ; |158| 
         000020 9E00 
         000022 0000+
     321              $C$DW$48        .dwtag  DW_TAG_TI_branch
     322                      .dwattr $C$DW$48, DW_AT_low_pc(0x00)
     323                      .dwattr $C$DW$48, DW_AT_name("_vQueueAddToRegistry")
     324                      .dwattr $C$DW$48, DW_AT_TI_call
     325 000024 6C00          CALL #_vQueueAddToRegistry ; |158| 
         000026 0000!
     326                                                      ; call occurs [#_vQueueAddToRegistry] ; |158| 
     327                      .dwpsn  file "../FreeRTOS/Demo/Common/Minimal/dynamic.c",line 160,column 3,is_stmt
     328 000028 7A00          MOV #(_vContinuousIncrementTask >> 16) << #16, AC0 ; |160| 
         00002a 000A%
     329 00002c 7600          MOV #128, T0 ; |160| 
         00002e 8048 
     330 000030 EC31          AMOV #_xContinuousIncrementHandle, XAR2 ; |160| 
         000032 AE00 
         000034 0000-
     331 000036 EC31          AMOV #_ulCounter, XAR1 ; |160| 
         000038 9E00 
         00003a 0004-
     332 00003c EC31          AMOV #$C$FSL2, XAR0 ; |160| 
         00003e 8E00 
         000040 0016+
     333 000042 7E00          OR #(_vContinuousIncrementTask & 0xffff), AC0, AC0 ; |160| 
         000044 0000%
     334              $C$DW$49        .dwtag  DW_TAG_TI_branch
     335                      .dwattr $C$DW$49, DW_AT_low_pc(0x00)
     336                      .dwattr $C$DW$49, DW_AT_name("_xTaskCreate")
     337                      .dwattr $C$DW$49, DW_AT_TI_call
     338              
     339 000046 6C00          CALL #_xTaskCreate ; |160| 
         000048 0000!
     340 00004a 3D05  ||      MOV #0, T1
     341              
     342                                                      ; call occurs [#_xTaskCreate] ; |160| 
     343                      .dwpsn  file "../FreeRTOS/Demo/Common/Minimal/dynamic.c",line 161,column 3,is_stmt
     344 00004c 7600          MOV #128, T0 ; |161| 
         00004e 8048 
     345 000050 EC31          AMOV #_xLimitedIncrementHandle, XAR2 ; |161| 
         000052 AE00 
         000054 0002-
     346 000056 EC31          AMOV #_ulCounter, XAR1 ; |161| 
         000058 9E00 
         00005a 0004-
     347 00005c EC31          AMOV #$C$FSL3, XAR0 ; |161| 
         00005e 8E00 
         000060 001E+
     348 000062 7A00          MOV #(_vLimitedIncrementTask >> 16) << #16, AC0 ; |161| 
TMS320C55x Assembler PC v4.4.1 Tue Sep 18 04:49:42 2018

Tools Copyright (c) 1996-2012 Texas Instruments Incorporated
dynamic.asm                                                          PAGE    8

         000064 000A%
     349 000066 7E00          OR #(_vLimitedIncrementTask & 0xffff), AC0, AC0 ; |161| 
         000068 0000%
     350              $C$DW$50        .dwtag  DW_TAG_TI_branch
     351                      .dwattr $C$DW$50, DW_AT_low_pc(0x00)
     352                      .dwattr $C$DW$50, DW_AT_name("_xTaskCreate")
     353                      .dwattr $C$DW$50, DW_AT_TI_call
     354              
     355 00006a 6C00          CALL #_xTaskCreate ; |161| 
         00006c 0000!
     356 00006e 3D15  ||      MOV #1, T1
     357              
     358                                                      ; call occurs [#_xTaskCreate] ; |161| 
     359                      .dwpsn  file "../FreeRTOS/Demo/Common/Minimal/dynamic.c",line 162,column 3,is_stmt
     360 000070 7600          MOV #128, T0 ; |162| 
         000072 8048 
     361 000074 EC31          AMOV #0, XAR2 ; |162| 
         000076 AE00 
         000078 0000 
     362 00007a EC31          AMOV #0, XAR1 ; |162| 
         00007c 9E00 
         00007e 0000 
     363 000080 EC31          AMOV #$C$FSL4, XAR0 ; |162| 
         000082 8E00 
         000084 0026+
     364 000086 7A00          MOV #(_vCounterControlTask >> 16) << #16, AC0 ; |162| 
         000088 000A%
     365 00008a 7E00          OR #(_vCounterControlTask & 0xffff), AC0, AC0 ; |162| 
         00008c 0000%
     366              $C$DW$51        .dwtag  DW_TAG_TI_branch
     367                      .dwattr $C$DW$51, DW_AT_low_pc(0x00)
     368                      .dwattr $C$DW$51, DW_AT_name("_xTaskCreate")
     369                      .dwattr $C$DW$51, DW_AT_TI_call
     370              
     371 00008e 6C00          CALL #_xTaskCreate ; |162| 
         000090 0000!
     372 000092 3D05  ||      MOV #0, T1
     373              
     374                                                      ; call occurs [#_xTaskCreate] ; |162| 
     375                      .dwpsn  file "../FreeRTOS/Demo/Common/Minimal/dynamic.c",line 163,column 3,is_stmt
     376 000094 7600          MOV #128, T0 ; |163| 
         000096 8048 
     377 000098 EC31          AMOV #0, XAR2 ; |163| 
         00009a AE00 
         00009c 0000 
     378 00009e EC31          AMOV #0, XAR1 ; |163| 
         0000a0 9E00 
         0000a2 0000 
     379 0000a4 EC31          AMOV #$C$FSL5, XAR0 ; |163| 
         0000a6 8E00 
         0000a8 002E+
     380 0000aa 7A00          MOV #(_vQueueSendWhenSuspendedTask >> 16) << #16, AC0 ; |163| 
         0000ac 000A%
     381 0000ae 7E00          OR #(_vQueueSendWhenSuspendedTask & 0xffff), AC0, AC0 ; |163| 
         0000b0 0000%
TMS320C55x Assembler PC v4.4.1 Tue Sep 18 04:49:42 2018

Tools Copyright (c) 1996-2012 Texas Instruments Incorporated
dynamic.asm                                                          PAGE    9

     382              $C$DW$52        .dwtag  DW_TAG_TI_branch
     383                      .dwattr $C$DW$52, DW_AT_low_pc(0x00)
     384                      .dwattr $C$DW$52, DW_AT_name("_xTaskCreate")
     385                      .dwattr $C$DW$52, DW_AT_TI_call
     386              
     387 0000b2 6C00          CALL #_xTaskCreate ; |163| 
         0000b4 0000!
     388 0000b6 3D05  ||      MOV #0, T1
     389              
     390                                                      ; call occurs [#_xTaskCreate] ; |163| 
     391                      .dwpsn  file "../FreeRTOS/Demo/Common/Minimal/dynamic.c",line 164,column 3,is_stmt
     392 0000b8 7600          MOV #128, T0 ; |164| 
         0000ba 8048 
     393 0000bc EC31          AMOV #0, XAR2 ; |164| 
         0000be AE00 
         0000c0 0000 
     394 0000c2 EC31          AMOV #0, XAR1 ; |164| 
         0000c4 9E00 
         0000c6 0000 
     395 0000c8 EC31          AMOV #$C$FSL6, XAR0 ; |164| 
         0000ca 8E00 
         0000cc 0036+
     396 0000ce 7A00          MOV #(_vQueueReceiveWhenSuspendedTask >> 16) << #16, AC0 ; |164| 
         0000d0 000A%
     397              
     398 0000d2 7E00          OR #(_vQueueReceiveWhenSuspendedTask & 0xffff), AC0, AC0 ; |164| 
         0000d4 0000%
     399 0000d6 3D05  ||      MOV #0, T1
     400              
     401              $C$DW$53        .dwtag  DW_TAG_TI_branch
     402                      .dwattr $C$DW$53, DW_AT_low_pc(0x00)
     403                      .dwattr $C$DW$53, DW_AT_name("_xTaskCreate")
     404                      .dwattr $C$DW$53, DW_AT_TI_call
     405 0000d8 6C00          CALL #_xTaskCreate ; |164| 
         0000da 0000!
     406                                                      ; call occurs [#_xTaskCreate] ; |164| 
     407                      .dwpsn  file "../FreeRTOS/Demo/Common/Minimal/dynamic.c",line 166,column 1,is_stmt
     408 0000dc       $C$L1:    
     409 0000dc 4E01          AADD #1, SP
     410                      .dwcfi  cfa_offset, 1
     411              $C$DW$54        .dwtag  DW_TAG_TI_branch
     412                      .dwattr $C$DW$54, DW_AT_low_pc(0x00)
     413                      .dwattr $C$DW$54, DW_AT_TI_return
     414 0000de 4804          RET
     415                                                      ; return occurs
     416                      .dwattr $C$DW$46, DW_AT_TI_end_file("../FreeRTOS/Demo/Common/Minimal/dynamic.c")
     417                      .dwattr $C$DW$46, DW_AT_TI_end_line(0xa6)
     418                      .dwattr $C$DW$46, DW_AT_TI_end_column(0x01)
     419                      .dwendentry
     420                      .dwendtag $C$DW$46
     421              
     422 0000e0               .sect   ".text"
     423                      .align 4
     424              
     425              $C$DW$55        .dwtag  DW_TAG_subprogram, DW_AT_name("vLimitedIncrementTask")
TMS320C55x Assembler PC v4.4.1 Tue Sep 18 04:49:42 2018

Tools Copyright (c) 1996-2012 Texas Instruments Incorporated
dynamic.asm                                                          PAGE   10

     426                      .dwattr $C$DW$55, DW_AT_low_pc(_vLimitedIncrementTask)
     427                      .dwattr $C$DW$55, DW_AT_high_pc(0x00)
     428                      .dwattr $C$DW$55, DW_AT_TI_symbol_name("_vLimitedIncrementTask")
     429                      .dwattr $C$DW$55, DW_AT_TI_begin_file("../FreeRTOS/Demo/Common/Minimal/dynamic.c")
     430                      .dwattr $C$DW$55, DW_AT_TI_begin_line(0xad)
     431                      .dwattr $C$DW$55, DW_AT_TI_begin_column(0x08)
     432                      .dwattr $C$DW$55, DW_AT_TI_max_frame_size(0x06)
     433                      .dwpsn  file "../FreeRTOS/Demo/Common/Minimal/dynamic.c",line 174,column 1,is_stmt,address _vLimitedI
     434              
     435                      .dwfde $C$DW$CIE, _vLimitedIncrementTask
     436              $C$DW$56        .dwtag  DW_TAG_formal_parameter, DW_AT_name("pvParameters")
     437                      .dwattr $C$DW$56, DW_AT_TI_symbol_name("_pvParameters")
     438                      .dwattr $C$DW$56, DW_AT_type(*$C$DW$T$3)
     439                      .dwattr $C$DW$56, DW_AT_location[DW_OP_reg17]
     440              ;*******************************************************************************
     441              ;* FUNCTION NAME: vLimitedIncrementTask                                        *
     442              ;*                                                                             *
     443              ;*   Function Uses Regs : AC0,AC0,AC1,AC1,AR0,XAR0,AR3,XAR3,SP,CARRY,TC1,M40,  *
     444              ;*                        SATA,SATD,RDM,FRCT,SMUL                              *
     445              ;*   Stack Frame        : Compact (No Frame Pointer, w/ debug)                 *
     446              ;*   Total Frame Size   : 6 words                                              *
     447              ;*                        (2 return address/alignment)                         *
     448              ;*                        (4 local values)                                     *
     449              ;*   Min System Stack   : 1 word                                               *
     450              ;*******************************************************************************
     451 0000e0       _vLimitedIncrementTask:
     452                      .dwcfi  cfa_offset, 1
     453                      .dwcfi  save_reg_to_mem, 91, -1
     454 0000e0 4EFB          AADD #-5, SP
     455                      .dwcfi  cfa_offset, 6
     456              $C$DW$57        .dwtag  DW_TAG_variable, DW_AT_name("pvParameters")
     457                      .dwattr $C$DW$57, DW_AT_TI_symbol_name("_pvParameters")
     458                      .dwattr $C$DW$57, DW_AT_type(*$C$DW$T$3)
     459                      .dwattr $C$DW$57, DW_AT_location[DW_OP_bregx 0x24 0]
     460              $C$DW$58        .dwtag  DW_TAG_variable, DW_AT_name("pulCounter")
     461                      .dwattr $C$DW$58, DW_AT_TI_symbol_name("_pulCounter")
     462                      .dwattr $C$DW$58, DW_AT_type(*$C$DW$T$77)
     463                      .dwattr $C$DW$58, DW_AT_location[DW_OP_bregx 0x24 2]
     464 0000e2 EB00          MOV XAR0, dbl(*SP(#0))
         0000e4 85   
     465                      .dwpsn  file "../FreeRTOS/Demo/Common/Minimal/dynamic.c",line 179,column 2,is_stmt
     466 0000e5 ED00          MOV dbl(*SP(#0)), XAR3
         0000e7 BF   
     467 0000e8 EB04          MOV XAR3, dbl(*SP(#2))
         0000ea B5   
     468                      .dwpsn  file "../FreeRTOS/Demo/Common/Minimal/dynamic.c",line 183,column 2,is_stmt
     469 0000eb EC31          AMOV #0, XAR0 ; |183| 
         0000ed 8E00 
         0000ef 0000 
     470              $C$DW$59        .dwtag  DW_TAG_TI_branch
     471                      .dwattr $C$DW$59, DW_AT_low_pc(0x00)
     472                      .dwattr $C$DW$59, DW_AT_name("_vTaskSuspend")
     473                      .dwattr $C$DW$59, DW_AT_TI_call
     474 0000f1 6C00          CALL #_vTaskSuspend ; |183| 
         0000f3 0000!
TMS320C55x Assembler PC v4.4.1 Tue Sep 18 04:49:42 2018

Tools Copyright (c) 1996-2012 Texas Instruments Incorporated
dynamic.asm                                                          PAGE   11

     475                                                      ; call occurs [#_vTaskSuspend] ; |183| 
     476 0000f5       $C$L2:    
     477 0000f5       $C$DW$L$_vLimitedIncrementTask$2$B:
     478                      .dwpsn  file "../FreeRTOS/Demo/Common/Minimal/dynamic.c",line 188,column 3,is_stmt
     479 0000f5 ED04          MOV dbl(*SP(#2)), XAR3
         0000f7 BF   
     480 0000f8 ED61          MOV dbl(*AR3), AC0 ; |188| 
         0000fa 08   
     481 0000fb 4010          ADD #1, AC0 ; |188| 
     482 0000fd EB61          MOV AC0, dbl(*AR3) ; |188| 
         0000ff 08   
     483 000100 20            NOP
     484                      .dwpsn  file "../FreeRTOS/Demo/Common/Minimal/dynamic.c",line 190,column 3,is_stmt
     485 000101 ED04          MOV dbl(*SP(#2)), XAR3
         000103 BF   
     486 000104 7600          MOV #255, AC0 ; |190| 
         000106 FF08 
     487 000108 ED61          MOV dbl(*AR3), AC1 ; |190| 
         00010a 18   
     488 00010b 1214          CMPU AC1 < AC0, TC1 ; |190| 
         00010d 04   
     489 00010e 0464          BCC $C$L2,TC1 ; |190| 
         000110 E4   
     490                                                      ; branchcc occurs ; |190| 
     491 000111       $C$DW$L$_vLimitedIncrementTask$2$E:
     492 000111       $C$DW$L$_vLimitedIncrementTask$3$B:
     493                      .dwpsn  file "../FreeRTOS/Demo/Common/Minimal/dynamic.c",line 192,column 4,is_stmt
     494 000111 EC31          AMOV #0, XAR0 ; |192| 
         000113 8E00 
         000115 0000 
     495              $C$DW$60        .dwtag  DW_TAG_TI_branch
     496                      .dwattr $C$DW$60, DW_AT_low_pc(0x00)
     497                      .dwattr $C$DW$60, DW_AT_name("_vTaskSuspend")
     498                      .dwattr $C$DW$60, DW_AT_TI_call
     499 000117 6C00          CALL #_vTaskSuspend ; |192| 
         000119 0000!
     500                                                      ; call occurs [#_vTaskSuspend] ; |192| 
     501                      .dwpsn  file "../FreeRTOS/Demo/Common/Minimal/dynamic.c",line 194,column 2,is_stmt
     502 00011b 4A58          B $C$L2   ; |194| 
     503                                                      ; branch occurs ; |194| 
     504 00011d       $C$DW$L$_vLimitedIncrementTask$3$E:
     505                      .dwcfi  cfa_offset, 1
     506              
     507              $C$DW$61        .dwtag  DW_TAG_TI_loop
     508                      .dwattr $C$DW$61, DW_AT_name("F:\eZdsp_DBG\eZDSP_5535_Files\ccsws2\test\Debug\dynamic.asm:$C$L2:1:153
     509                      .dwattr $C$DW$61, DW_AT_TI_begin_file("../FreeRTOS/Demo/Common/Minimal/dynamic.c")
     510                      .dwattr $C$DW$61, DW_AT_TI_begin_line(0xb9)
     511                      .dwattr $C$DW$61, DW_AT_TI_end_line(0xc2)
     512              $C$DW$62        .dwtag  DW_TAG_TI_loop_range
     513                      .dwattr $C$DW$62, DW_AT_low_pc($C$DW$L$_vLimitedIncrementTask$2$B)
     514                      .dwattr $C$DW$62, DW_AT_high_pc($C$DW$L$_vLimitedIncrementTask$2$E)
     515              $C$DW$63        .dwtag  DW_TAG_TI_loop_range
     516                      .dwattr $C$DW$63, DW_AT_low_pc($C$DW$L$_vLimitedIncrementTask$3$B)
     517                      .dwattr $C$DW$63, DW_AT_high_pc($C$DW$L$_vLimitedIncrementTask$3$E)
     518                      .dwendtag $C$DW$61
TMS320C55x Assembler PC v4.4.1 Tue Sep 18 04:49:42 2018

Tools Copyright (c) 1996-2012 Texas Instruments Incorporated
dynamic.asm                                                          PAGE   12

     519              
     520                      .dwattr $C$DW$55, DW_AT_TI_end_file("../FreeRTOS/Demo/Common/Minimal/dynamic.c")
     521                      .dwattr $C$DW$55, DW_AT_TI_end_line(0xc3)
     522                      .dwattr $C$DW$55, DW_AT_TI_end_column(0x01)
     523                      .dwendentry
     524                      .dwendtag $C$DW$55
     525              
     526 00011d               .sect   ".text"
     527                      .align 4
     528              
     529              $C$DW$64        .dwtag  DW_TAG_subprogram, DW_AT_name("vContinuousIncrementTask")
     530                      .dwattr $C$DW$64, DW_AT_low_pc(_vContinuousIncrementTask)
     531                      .dwattr $C$DW$64, DW_AT_high_pc(0x00)
     532                      .dwattr $C$DW$64, DW_AT_TI_symbol_name("_vContinuousIncrementTask")
     533                      .dwattr $C$DW$64, DW_AT_TI_begin_file("../FreeRTOS/Demo/Common/Minimal/dynamic.c")
     534                      .dwattr $C$DW$64, DW_AT_TI_begin_line(0xca)
     535                      .dwattr $C$DW$64, DW_AT_TI_begin_column(0x08)
     536                      .dwattr $C$DW$64, DW_AT_TI_max_frame_size(0x08)
     537                      .dwpsn  file "../FreeRTOS/Demo/Common/Minimal/dynamic.c",line 203,column 1,is_stmt,address _vContinuo
     538              
     539                      .dwfde $C$DW$CIE, _vContinuousIncrementTask
     540              $C$DW$65        .dwtag  DW_TAG_formal_parameter, DW_AT_name("pvParameters")
     541                      .dwattr $C$DW$65, DW_AT_TI_symbol_name("_pvParameters")
     542                      .dwattr $C$DW$65, DW_AT_type(*$C$DW$T$3)
     543                      .dwattr $C$DW$65, DW_AT_location[DW_OP_reg17]
     544              ;*******************************************************************************
     545              ;* FUNCTION NAME: vContinuousIncrementTask                                     *
     546              ;*                                                                             *
     547              ;*   Function Uses Regs : AC0,AC0,T0,T2,AR0,XAR0,AR1,AR3,XAR3,SP,CARRY,TC1,M40,*
     548              ;*                        SATA,SATD,RDM,FRCT,SMUL                              *
     549              ;*   Save On Entry Regs : T2                                                   *
     550              ;*   Stack Frame        : Compact (No Frame Pointer, w/ debug)                 *
     551              ;*   Total Frame Size   : 8 words                                              *
     552              ;*                        (2 return address/alignment)                         *
     553              ;*                        (5 local values)                                     *
     554              ;*                        (1 register save area)                               *
     555              ;*   Min System Stack   : 1 word                                               *
     556              ;*******************************************************************************
     557 000120       _vContinuousIncrementTask:
     558                      .dwcfi  cfa_offset, 1
     559                      .dwcfi  save_reg_to_mem, 91, -1
     560 000120 5066          PSH T2
     561                      .dwcfi  cfa_offset, 2
     562                      .dwcfi  save_reg_to_mem, 14, -2
     563 000122 4EFA          AADD #-6, SP
     564                      .dwcfi  cfa_offset, 8
     565              $C$DW$66        .dwtag  DW_TAG_variable, DW_AT_name("pvParameters")
     566                      .dwattr $C$DW$66, DW_AT_TI_symbol_name("_pvParameters")
     567                      .dwattr $C$DW$66, DW_AT_type(*$C$DW$T$3)
     568                      .dwattr $C$DW$66, DW_AT_location[DW_OP_bregx 0x24 0]
     569              $C$DW$67        .dwtag  DW_TAG_variable, DW_AT_name("pulCounter")
     570                      .dwattr $C$DW$67, DW_AT_TI_symbol_name("_pulCounter")
     571                      .dwattr $C$DW$67, DW_AT_type(*$C$DW$T$77)
     572                      .dwattr $C$DW$67, DW_AT_location[DW_OP_bregx 0x24 2]
     573              $C$DW$68        .dwtag  DW_TAG_variable, DW_AT_name("uxOurPriority")
TMS320C55x Assembler PC v4.4.1 Tue Sep 18 04:49:42 2018

Tools Copyright (c) 1996-2012 Texas Instruments Incorporated
dynamic.asm                                                          PAGE   13

     574                      .dwattr $C$DW$68, DW_AT_TI_symbol_name("_uxOurPriority")
     575                      .dwattr $C$DW$68, DW_AT_type(*$C$DW$T$23)
     576                      .dwattr $C$DW$68, DW_AT_location[DW_OP_bregx 0x24 4]
     577 000124 EB00          MOV XAR0, dbl(*SP(#0))
         000126 85   
     578                      .dwpsn  file "../FreeRTOS/Demo/Common/Minimal/dynamic.c",line 209,column 2,is_stmt
     579 000127 ED00          MOV dbl(*SP(#0)), XAR3
         000129 BF   
     580 00012a EB04          MOV XAR3, dbl(*SP(#2))
         00012c B5   
     581                      .dwpsn  file "../FreeRTOS/Demo/Common/Minimal/dynamic.c",line 213,column 2,is_stmt
     582 00012d EC31          AMOV #0, XAR0 ; |213| 
         00012f 8E00 
         000131 0000 
     583              $C$DW$69        .dwtag  DW_TAG_TI_branch
     584                      .dwattr $C$DW$69, DW_AT_low_pc(0x00)
     585                      .dwattr $C$DW$69, DW_AT_name("_uxTaskPriorityGet")
     586                      .dwattr $C$DW$69, DW_AT_TI_call
     587 000133 6C00          CALL #_uxTaskPriorityGet ; |213| 
         000135 0000!
     588                                                      ; call occurs [#_uxTaskPriorityGet] ; |213| 
     589 000137 C408          MOV T0, *SP(#4) ; |213| 
     590 000139       $C$L3:    
     591 000139       $C$DW$L$_vContinuousIncrementTask$2$B:
     592                      .dwpsn  file "../FreeRTOS/Demo/Common/Minimal/dynamic.c",line 219,column 3,is_stmt
     593 000139 A908          MOV *SP(#4), AR1 ; |219| 
     594 00013b EC31          AMOV #0, XAR0 ; |219| 
         00013d 8E00 
         00013f 0000 
     595 000141 7B00          ADD #1, AR1, T0 ; |219| 
         000143 0149 
     596              $C$DW$70        .dwtag  DW_TAG_TI_branch
     597                      .dwattr $C$DW$70, DW_AT_low_pc(0x00)
     598                      .dwattr $C$DW$70, DW_AT_name("_vTaskPrioritySet")
     599                      .dwattr $C$DW$70, DW_AT_TI_call
     600 000145 6C00          CALL #_vTaskPrioritySet ; |219| 
         000147 0000!
     601                                                      ; call occurs [#_vTaskPrioritySet] ; |219| 
     602                      .dwpsn  file "../FreeRTOS/Demo/Common/Minimal/dynamic.c",line 221,column 4,is_stmt
     603 000149 EC31          AMOV #0, XAR0 ; |221| 
         00014b 8E00 
         00014d 0000 
     604              $C$DW$71        .dwtag  DW_TAG_TI_branch
     605                      .dwattr $C$DW$71, DW_AT_low_pc(0x00)
     606                      .dwattr $C$DW$71, DW_AT_name("_uxTaskPriorityGet")
     607                      .dwattr $C$DW$71, DW_AT_TI_call
     608 00014f 6C00          CALL #_uxTaskPriorityGet ; |221| 
         000151 0000!
     609                                                      ; call occurs [#_uxTaskPriorityGet] ; |221| 
     610 000153 A908          MOV *SP(#4), AR1 ; |221| 
     611 000155 4019          ADD #1, AR1 ; |221| 
     612 000157 124C          CMPU T0 != AR1, TC1 ; |221| 
         000159 94   
     613              
     614 00015a 6164          BCC $C$L4,TC1 ; |221| 
TMS320C55x Assembler PC v4.4.1 Tue Sep 18 04:49:42 2018

Tools Copyright (c) 1996-2012 Texas Instruments Incorporated
dynamic.asm                                                          PAGE   14

     615 00015c 3D06  ||      MOV #0, T2
     616              
     617                                                      ; branchcc occurs ; |221| 
     618 00015e       $C$DW$L$_vContinuousIncrementTask$2$E:
     619 00015e       $C$DW$L$_vContinuousIncrementTask$3$B:
     620 00015e 3C16          MOV #1, T2
     621 000160       $C$DW$L$_vContinuousIncrementTask$3$E:
     622 000160       $C$L4:    
     623 000160       $C$DW$L$_vContinuousIncrementTask$4$B:
     624 000160 6296          BCC $C$L6,T2 != #0 ; |221| 
     625                                                      ; branchcc occurs ; |221| 
     626 000162       $C$DW$L$_vContinuousIncrementTask$4$E:
     627 000162 20     nop
     628 000163 46B3   bset INTM
     629 000165       $C$L5:    
     630 000165       $C$DW$L$_vContinuousIncrementTask$6$B:
     631 000165 4A7E          B $C$L5   ; |221| 
     632                                                      ; branch occurs ; |221| 
     633 000167       $C$DW$L$_vContinuousIncrementTask$6$E:
     634 000167       $C$L6:    
     635 000167       $C$DW$L$_vContinuousIncrementTask$7$B:
     636                      .dwpsn  file "../FreeRTOS/Demo/Common/Minimal/dynamic.c",line 222,column 4,is_stmt
     637 000167 ED04          MOV dbl(*SP(#2)), XAR3
         000169 BF   
     638 00016a ED61          MOV dbl(*AR3), AC0 ; |222| 
         00016c 08   
     639 00016d 4010          ADD #1, AC0 ; |222| 
     640 00016f EB61          MOV AC0, dbl(*AR3) ; |222| 
         000171 08   
     641                      .dwpsn  file "../FreeRTOS/Demo/Common/Minimal/dynamic.c",line 224,column 3,is_stmt
     642 000172 EC31          AMOV #0, XAR0 ; |224| 
         000174 8E00 
         000176 0000 
     643 000178 A408          MOV *SP(#4), T0 ; |224| 
     644              $C$DW$72        .dwtag  DW_TAG_TI_branch
     645                      .dwattr $C$DW$72, DW_AT_low_pc(0x00)
     646                      .dwattr $C$DW$72, DW_AT_name("_vTaskPrioritySet")
     647                      .dwattr $C$DW$72, DW_AT_TI_call
     648 00017a 6C00          CALL #_vTaskPrioritySet ; |224| 
         00017c 0000!
     649                                                      ; call occurs [#_vTaskPrioritySet] ; |224| 
     650                      .dwpsn  file "../FreeRTOS/Demo/Common/Minimal/dynamic.c",line 230,column 3,is_stmt
     651 00017e EC31          AMOV #0, XAR0 ; |230| 
         000180 8E00 
         000182 0000 
     652              $C$DW$73        .dwtag  DW_TAG_TI_branch
     653                      .dwattr $C$DW$73, DW_AT_low_pc(0x00)
     654                      .dwattr $C$DW$73, DW_AT_name("_uxTaskPriorityGet")
     655                      .dwattr $C$DW$73, DW_AT_TI_call
     656 000184 6C00          CALL #_uxTaskPriorityGet ; |230| 
         000186 0000!
     657                                                      ; call occurs [#_uxTaskPriorityGet] ; |230| 
     658 000188 A908          MOV *SP(#4), AR1 ; |230| 
     659 00018a 124C          CMPU T0 != AR1, TC1 ; |230| 
         00018c 94   
TMS320C55x Assembler PC v4.4.1 Tue Sep 18 04:49:42 2018

Tools Copyright (c) 1996-2012 Texas Instruments Incorporated
dynamic.asm                                                          PAGE   15

     660              
     661 00018d 6164          BCC $C$L7,TC1 ; |230| 
     662 00018f 3D06  ||      MOV #0, T2
     663              
     664                                                      ; branchcc occurs ; |230| 
     665 000191       $C$DW$L$_vContinuousIncrementTask$7$E:
     666 000191       $C$DW$L$_vContinuousIncrementTask$8$B:
     667 000191 3C16          MOV #1, T2
     668 000193       $C$DW$L$_vContinuousIncrementTask$8$E:
     669 000193       $C$L7:    
     670 000193       $C$DW$L$_vContinuousIncrementTask$9$B:
     671 000193 0416          BCC $C$L3,T2 != #0 ; |230| 
         000195 A3   
     672                                                      ; branchcc occurs ; |230| 
     673 000196       $C$DW$L$_vContinuousIncrementTask$9$E:
     674 000196 20     nop
     675 000197 46B3   bset INTM
     676 000199       $C$L8:    
     677 000199       $C$DW$L$_vContinuousIncrementTask$11$B:
     678 000199 4A7E          B $C$L8   ; |230| 
     679                                                      ; branch occurs ; |230| 
     680 00019b       $C$DW$L$_vContinuousIncrementTask$11$E:
     681                      .dwcfi  cfa_offset, 2
     682                      .dwcfi  restore_reg, 14
     683                      .dwcfi  cfa_offset, 1
     684              
     685              $C$DW$74        .dwtag  DW_TAG_TI_loop
     686                      .dwattr $C$DW$74, DW_AT_name("F:\eZdsp_DBG\eZDSP_5535_Files\ccsws2\test\Debug\dynamic.asm:$C$L8:1:153
     687                      .dwattr $C$DW$74, DW_AT_TI_begin_file("../FreeRTOS/Demo/Common/Minimal/dynamic.c")
     688                      .dwattr $C$DW$74, DW_AT_TI_begin_line(0xe6)
     689                      .dwattr $C$DW$74, DW_AT_TI_end_line(0xe6)
     690              $C$DW$75        .dwtag  DW_TAG_TI_loop_range
     691                      .dwattr $C$DW$75, DW_AT_low_pc($C$DW$L$_vContinuousIncrementTask$11$B)
     692                      .dwattr $C$DW$75, DW_AT_high_pc($C$DW$L$_vContinuousIncrementTask$11$E)
     693                      .dwendtag $C$DW$74
     694              
     695              
     696              $C$DW$76        .dwtag  DW_TAG_TI_loop
     697                      .dwattr $C$DW$76, DW_AT_name("F:\eZdsp_DBG\eZDSP_5535_Files\ccsws2\test\Debug\dynamic.asm:$C$L5:1:153
     698                      .dwattr $C$DW$76, DW_AT_TI_begin_file("../FreeRTOS/Demo/Common/Minimal/dynamic.c")
     699                      .dwattr $C$DW$76, DW_AT_TI_begin_line(0xdd)
     700                      .dwattr $C$DW$76, DW_AT_TI_end_line(0xdd)
     701              $C$DW$77        .dwtag  DW_TAG_TI_loop_range
     702                      .dwattr $C$DW$77, DW_AT_low_pc($C$DW$L$_vContinuousIncrementTask$6$B)
     703                      .dwattr $C$DW$77, DW_AT_high_pc($C$DW$L$_vContinuousIncrementTask$6$E)
     704                      .dwendtag $C$DW$76
     705              
     706              
     707              $C$DW$78        .dwtag  DW_TAG_TI_loop
     708                      .dwattr $C$DW$78, DW_AT_name("F:\eZdsp_DBG\eZDSP_5535_Files\ccsws2\test\Debug\dynamic.asm:$C$L3:1:153
     709                      .dwattr $C$DW$78, DW_AT_TI_begin_file("../FreeRTOS/Demo/Common/Minimal/dynamic.c")
     710                      .dwattr $C$DW$78, DW_AT_TI_begin_line(0xd7)
     711                      .dwattr $C$DW$78, DW_AT_TI_end_line(0xe7)
     712              $C$DW$79        .dwtag  DW_TAG_TI_loop_range
     713                      .dwattr $C$DW$79, DW_AT_low_pc($C$DW$L$_vContinuousIncrementTask$2$B)
TMS320C55x Assembler PC v4.4.1 Tue Sep 18 04:49:42 2018

Tools Copyright (c) 1996-2012 Texas Instruments Incorporated
dynamic.asm                                                          PAGE   16

     714                      .dwattr $C$DW$79, DW_AT_high_pc($C$DW$L$_vContinuousIncrementTask$2$E)
     715              $C$DW$80        .dwtag  DW_TAG_TI_loop_range
     716                      .dwattr $C$DW$80, DW_AT_low_pc($C$DW$L$_vContinuousIncrementTask$3$B)
     717                      .dwattr $C$DW$80, DW_AT_high_pc($C$DW$L$_vContinuousIncrementTask$3$E)
     718              $C$DW$81        .dwtag  DW_TAG_TI_loop_range
     719                      .dwattr $C$DW$81, DW_AT_low_pc($C$DW$L$_vContinuousIncrementTask$4$B)
     720                      .dwattr $C$DW$81, DW_AT_high_pc($C$DW$L$_vContinuousIncrementTask$4$E)
     721              $C$DW$82        .dwtag  DW_TAG_TI_loop_range
     722                      .dwattr $C$DW$82, DW_AT_low_pc($C$DW$L$_vContinuousIncrementTask$7$B)
     723                      .dwattr $C$DW$82, DW_AT_high_pc($C$DW$L$_vContinuousIncrementTask$7$E)
     724              $C$DW$83        .dwtag  DW_TAG_TI_loop_range
     725                      .dwattr $C$DW$83, DW_AT_low_pc($C$DW$L$_vContinuousIncrementTask$8$B)
     726                      .dwattr $C$DW$83, DW_AT_high_pc($C$DW$L$_vContinuousIncrementTask$8$E)
     727              $C$DW$84        .dwtag  DW_TAG_TI_loop_range
     728                      .dwattr $C$DW$84, DW_AT_low_pc($C$DW$L$_vContinuousIncrementTask$9$B)
     729                      .dwattr $C$DW$84, DW_AT_high_pc($C$DW$L$_vContinuousIncrementTask$9$E)
     730                      .dwendtag $C$DW$78
     731              
     732                      .dwattr $C$DW$64, DW_AT_TI_end_file("../FreeRTOS/Demo/Common/Minimal/dynamic.c")
     733                      .dwattr $C$DW$64, DW_AT_TI_end_line(0xe8)
     734                      .dwattr $C$DW$64, DW_AT_TI_end_column(0x01)
     735                      .dwendentry
     736                      .dwendtag $C$DW$64
     737              
     738 00019b               .sect   ".text"
     739                      .align 4
     740              
     741              $C$DW$85        .dwtag  DW_TAG_subprogram, DW_AT_name("vCounterControlTask")
     742                      .dwattr $C$DW$85, DW_AT_low_pc(_vCounterControlTask)
     743                      .dwattr $C$DW$85, DW_AT_high_pc(0x00)
     744                      .dwattr $C$DW$85, DW_AT_TI_symbol_name("_vCounterControlTask")
     745                      .dwattr $C$DW$85, DW_AT_TI_begin_file("../FreeRTOS/Demo/Common/Minimal/dynamic.c")
     746                      .dwattr $C$DW$85, DW_AT_TI_begin_line(0xee)
     747                      .dwattr $C$DW$85, DW_AT_TI_begin_column(0x08)
     748                      .dwattr $C$DW$85, DW_AT_TI_max_frame_size(0x08)
     749                      .dwpsn  file "../FreeRTOS/Demo/Common/Minimal/dynamic.c",line 239,column 1,is_stmt,address _vCounterC
     750              
     751                      .dwfde $C$DW$CIE, _vCounterControlTask
     752              $C$DW$86        .dwtag  DW_TAG_formal_parameter, DW_AT_name("pvParameters")
     753                      .dwattr $C$DW$86, DW_AT_TI_symbol_name("_pvParameters")
     754                      .dwattr $C$DW$86, DW_AT_type(*$C$DW$T$3)
     755                      .dwattr $C$DW$86, DW_AT_location[DW_OP_reg17]
     756              ;*******************************************************************************
     757              ;* FUNCTION NAME: vCounterControlTask                                          *
     758              ;*                                                                             *
     759              ;*   Function Uses Regs : AC0,AC0,AC1,AC1,T2,AR0,XAR0,AR1,AR2,SP,CARRY,TC1,M40,*
     760              ;*                        SATA,SATD,RDM,FRCT,SMUL                              *
     761              ;*   Save On Entry Regs : T2                                                   *
     762              ;*   Stack Frame        : Compact (No Frame Pointer, w/ debug)                 *
     763              ;*   Total Frame Size   : 8 words                                              *
     764              ;*                        (1 return address/alignment)                         *
     765              ;*                        (6 local values)                                     *
     766              ;*                        (1 register save area)                               *
     767              ;*   Min System Stack   : 1 word                                               *
     768              ;*******************************************************************************
TMS320C55x Assembler PC v4.4.1 Tue Sep 18 04:49:42 2018

Tools Copyright (c) 1996-2012 Texas Instruments Incorporated
dynamic.asm                                                          PAGE   17

     769 00019c       _vCounterControlTask:
     770                      .dwcfi  cfa_offset, 1
     771                      .dwcfi  save_reg_to_mem, 91, -1
     772 00019c 5066          PSH T2
     773                      .dwcfi  cfa_offset, 2
     774                      .dwcfi  save_reg_to_mem, 14, -2
     775 00019e 4EFA          AADD #-6, SP
     776                      .dwcfi  cfa_offset, 8
     777              $C$DW$87        .dwtag  DW_TAG_variable, DW_AT_name("pvParameters")
     778                      .dwattr $C$DW$87, DW_AT_TI_symbol_name("_pvParameters")
     779                      .dwattr $C$DW$87, DW_AT_type(*$C$DW$T$3)
     780                      .dwattr $C$DW$87, DW_AT_location[DW_OP_bregx 0x24 0]
     781              $C$DW$88        .dwtag  DW_TAG_variable, DW_AT_name("ulLastCounter")
     782                      .dwattr $C$DW$88, DW_AT_TI_symbol_name("_ulLastCounter")
     783                      .dwattr $C$DW$88, DW_AT_type(*$C$DW$T$74)
     784                      .dwattr $C$DW$88, DW_AT_location[DW_OP_bregx 0x24 2]
     785              $C$DW$89        .dwtag  DW_TAG_variable, DW_AT_name("sLoops")
     786                      .dwattr $C$DW$89, DW_AT_TI_symbol_name("_sLoops")
     787                      .dwattr $C$DW$89, DW_AT_type(*$C$DW$T$8)
     788                      .dwattr $C$DW$89, DW_AT_location[DW_OP_bregx 0x24 4]
     789              $C$DW$90        .dwtag  DW_TAG_variable, DW_AT_name("sError")
     790                      .dwattr $C$DW$90, DW_AT_TI_symbol_name("_sError")
     791                      .dwattr $C$DW$90, DW_AT_type(*$C$DW$T$8)
     792                      .dwattr $C$DW$90, DW_AT_location[DW_OP_bregx 0x24 5]
     793 0001a0 EB00          MOV XAR0, dbl(*SP(#0))
         0001a2 85   
     794                      .dwpsn  file "../FreeRTOS/Demo/Common/Minimal/dynamic.c",line 242,column 7,is_stmt
     795              
     796 0001a3 E60A          MOV #0, *SP(#5) ; |242| 
         0001a5 00   
     797 0001a6 3D56  ||      MOV #5, T2
     798              
     799                      .dwpsn  file "../FreeRTOS/Demo/Common/Minimal/dynamic.c",line 245,column 2,is_stmt
     800 0001a8       $C$L9:    
     801 0001a8       $C$DW$L$_vCounterControlTask$2$B:
     802                      .dwpsn  file "../FreeRTOS/Demo/Common/Minimal/dynamic.c",line 250,column 3,is_stmt
     803 0001a8 3C00          MOV #0, AC0 ; |250| 
     804 0001aa EB31          MOV AC0, dbl(*(#_ulCounter)) ; |250| 
         0001ac 0800 
         0001ae 0004-
     805                      .dwpsn  file "../FreeRTOS/Demo/Common/Minimal/dynamic.c",line 255,column 8,is_stmt
     806 0001b0 E608          MOV #0, *SP(#4) ; |255| 
         0001b2 00   
     807                      .dwpsn  file "../FreeRTOS/Demo/Common/Minimal/dynamic.c",line 255,column 20,is_stmt
     808 0001b3 A908          MOV *SP(#4), AR1 ; |255| 
     809 0001b5 1298          CMP AR1 >= T2, TC1 ; |255| 
         0001b7 60   
     810 0001b8 0464          BCC $C$L12,TC1 ; |255| 
         0001ba 4C   
     811                                                      ; branchcc occurs ; |255| 
     812 0001bb       $C$DW$L$_vCounterControlTask$2$E:
     813 0001bb       $C$L10:    
     814 0001bb       $C$DW$L$_vCounterControlTask$3$B:
     815                      .dwpsn  file "../FreeRTOS/Demo/Common/Minimal/dynamic.c",line 261,column 4,is_stmt
     816 0001bb ED31          MOV dbl(*(#_xContinuousIncrementHandle)), XAR0
TMS320C55x Assembler PC v4.4.1 Tue Sep 18 04:49:42 2018

Tools Copyright (c) 1996-2012 Texas Instruments Incorporated
dynamic.asm                                                          PAGE   18

         0001bd 8F00 
         0001bf 0000-
     817              $C$DW$91        .dwtag  DW_TAG_TI_branch
     818                      .dwattr $C$DW$91, DW_AT_low_pc(0x00)
     819                      .dwattr $C$DW$91, DW_AT_name("_vTaskSuspend")
     820                      .dwattr $C$DW$91, DW_AT_TI_call
     821 0001c1 6C00          CALL #_vTaskSuspend ; |261| 
         0001c3 0000!
     822                                                      ; call occurs [#_vTaskSuspend] ; |261| 
     823                      .dwpsn  file "../FreeRTOS/Demo/Common/Minimal/dynamic.c",line 269,column 5,is_stmt
     824 0001c5 ED31          MOV dbl(*(#_ulCounter)), AC0 ; |269| 
         0001c7 0800 
         0001c9 0004-
     825 0001cb EB04          MOV AC0, dbl(*SP(#2)) ; |269| 
         0001cd 08   
     826                      .dwpsn  file "../FreeRTOS/Demo/Common/Minimal/dynamic.c",line 271,column 4,is_stmt
     827 0001ce ED31          MOV dbl(*(#_xContinuousIncrementHandle)), XAR0
         0001d0 8F00 
         0001d2 0000-
     828              $C$DW$92        .dwtag  DW_TAG_TI_branch
     829                      .dwattr $C$DW$92, DW_AT_low_pc(0x00)
     830                      .dwattr $C$DW$92, DW_AT_name("_vTaskResume")
     831                      .dwattr $C$DW$92, DW_AT_TI_call
     832 0001d4 6C00          CALL #_vTaskResume ; |271| 
         0001d6 0000!
     833                                                      ; call occurs [#_vTaskResume] ; |271| 
     834                      .dwpsn  file "../FreeRTOS/Demo/Common/Minimal/dynamic.c",line 284,column 4,is_stmt
     835 0001d8 7605          MOV #1280, AC0 ; |284| 
         0001da 0008 
     836              $C$DW$93        .dwtag  DW_TAG_TI_branch
     837                      .dwattr $C$DW$93, DW_AT_low_pc(0x00)
     838                      .dwattr $C$DW$93, DW_AT_name("_vTaskDelay")
     839                      .dwattr $C$DW$93, DW_AT_TI_call
     840 0001dc 6C00          CALL #_vTaskDelay ; |284| 
         0001de 0000!
     841                                                      ; call occurs [#_vTaskDelay] ; |284| 
     842                      .dwpsn  file "../FreeRTOS/Demo/Common/Minimal/dynamic.c",line 289,column 4,is_stmt
     843              $C$DW$94        .dwtag  DW_TAG_TI_branch
     844                      .dwattr $C$DW$94, DW_AT_low_pc(0x00)
     845                      .dwattr $C$DW$94, DW_AT_name("_vTaskSuspendAll")
     846                      .dwattr $C$DW$94, DW_AT_TI_call
     847 0001e0 6C00          CALL #_vTaskSuspendAll ; |289| 
         0001e2 0000!
     848                                                      ; call occurs [#_vTaskSuspendAll] ; |289| 
     849                      .dwpsn  file "../FreeRTOS/Demo/Common/Minimal/dynamic.c",line 291,column 5,is_stmt
     850 0001e4 ED31          MOV dbl(*(#_ulCounter)), AC0 ; |291| 
         0001e6 0800 
         0001e8 0004-
     851 0001ea ED04          MOV dbl(*SP(#2)), AC1 ; |291| 
         0001ec 18   
     852 0001ed 121C          CMPU AC1 != AC0, TC1 ; |291| 
         0001ef 04   
     853 0001f0 61E4          BCC $C$L11,TC1 ; |291| 
     854                                                      ; branchcc occurs ; |291| 
     855 0001f2       $C$DW$L$_vCounterControlTask$3$E:
TMS320C55x Assembler PC v4.4.1 Tue Sep 18 04:49:42 2018

Tools Copyright (c) 1996-2012 Texas Instruments Incorporated
dynamic.asm                                                          PAGE   19

     856 0001f2       $C$DW$L$_vCounterControlTask$4$B:
     857                      .dwpsn  file "../FreeRTOS/Demo/Common/Minimal/dynamic.c",line 295,column 6,is_stmt
     858 0001f2 E60A          MOV #1, *SP(#5) ; |295| 
         0001f4 01   
     859 0001f5       $C$DW$L$_vCounterControlTask$4$E:
     860 0001f5       $C$L11:    
     861 0001f5       $C$DW$L$_vCounterControlTask$5$B:
     862                      .dwpsn  file "../FreeRTOS/Demo/Common/Minimal/dynamic.c",line 298,column 4,is_stmt
     863              $C$DW$95        .dwtag  DW_TAG_TI_branch
     864                      .dwattr $C$DW$95, DW_AT_low_pc(0x00)
     865                      .dwattr $C$DW$95, DW_AT_name("_xTaskResumeAll")
     866                      .dwattr $C$DW$95, DW_AT_TI_call
     867 0001f5 6C00          CALL #_xTaskResumeAll ; |298| 
         0001f7 0000!
     868                                                      ; call occurs [#_xTaskResumeAll] ; |298| 
     869                      .dwpsn  file "../FreeRTOS/Demo/Common/Minimal/dynamic.c",line 255,column 39,is_stmt
     870 0001f9 F708          ADD #1, *SP(#4) ; |255| 
         0001fb 0001 
     871                      .dwpsn  file "../FreeRTOS/Demo/Common/Minimal/dynamic.c",line 255,column 20,is_stmt
     872              
     873 0001fd A908          MOV *SP(#4), AR1 ; |255| 
     874 0001ff 3D5A  ||      MOV #5, AR2
     875              
     876 000201 1294          CMP AR1 < AR2, TC1 ; |255| 
         000203 A0   
     877 000204 0464          BCC $C$L10,TC1 ; |255| 
         000206 B4   
     878                                                      ; branchcc occurs ; |255| 
     879 000207       $C$DW$L$_vCounterControlTask$5$E:
     880 000207       $C$L12:    
     881 000207       $C$DW$L$_vCounterControlTask$6$B:
     882                      .dwpsn  file "../FreeRTOS/Demo/Common/Minimal/dynamic.c",line 305,column 3,is_stmt
     883 000207 ED31          MOV dbl(*(#_xContinuousIncrementHandle)), XAR0
         000209 8F00 
         00020b 0000-
     884              $C$DW$96        .dwtag  DW_TAG_TI_branch
     885                      .dwattr $C$DW$96, DW_AT_low_pc(0x00)
     886                      .dwattr $C$DW$96, DW_AT_name("_vTaskSuspend")
     887                      .dwattr $C$DW$96, DW_AT_TI_call
     888 00020d 6C00          CALL #_vTaskSuspend ; |305| 
         00020f 0000!
     889                                                      ; call occurs [#_vTaskSuspend] ; |305| 
     890                      .dwpsn  file "../FreeRTOS/Demo/Common/Minimal/dynamic.c",line 308,column 3,is_stmt
     891 000211 3C00          MOV #0, AC0 ; |308| 
     892 000213 EB31          MOV AC0, dbl(*(#_ulCounter)) ; |308| 
         000215 0800 
         000217 0004-
     893                      .dwpsn  file "../FreeRTOS/Demo/Common/Minimal/dynamic.c",line 319,column 3,is_stmt
     894 000219 ED31          MOV dbl(*(#_xLimitedIncrementHandle)), XAR0
         00021b 8F00 
         00021d 0002-
     895              $C$DW$97        .dwtag  DW_TAG_TI_branch
     896                      .dwattr $C$DW$97, DW_AT_low_pc(0x00)
     897                      .dwattr $C$DW$97, DW_AT_name("_vTaskResume")
     898                      .dwattr $C$DW$97, DW_AT_TI_call
TMS320C55x Assembler PC v4.4.1 Tue Sep 18 04:49:42 2018

Tools Copyright (c) 1996-2012 Texas Instruments Incorporated
dynamic.asm                                                          PAGE   20

     899 00021f 6C00          CALL #_vTaskResume ; |319| 
         000221 0000!
     900                                                      ; call occurs [#_vTaskResume] ; |319| 
     901                      .dwpsn  file "../FreeRTOS/Demo/Common/Minimal/dynamic.c",line 334,column 3,is_stmt
     902 000223 7600          MOV #255, AC0 ; |334| 
         000225 FF08 
     903 000227 ED31          MOV dbl(*(#_ulCounter)), AC1 ; |334| 
         000229 1800 
         00022b 0004-
     904 00022d 1210          CMPU AC1 == AC0, TC1 ; |334| 
         00022f 04   
     905 000230 61E4          BCC $C$L13,TC1 ; |334| 
     906                                                      ; branchcc occurs ; |334| 
     907 000232       $C$DW$L$_vCounterControlTask$6$E:
     908 000232       $C$DW$L$_vCounterControlTask$7$B:
     909                      .dwpsn  file "../FreeRTOS/Demo/Common/Minimal/dynamic.c",line 336,column 4,is_stmt
     910 000232 E60A          MOV #1, *SP(#5) ; |336| 
         000234 01   
     911 000235       $C$DW$L$_vCounterControlTask$7$E:
     912 000235       $C$L13:    
     913 000235       $C$DW$L$_vCounterControlTask$8$B:
     914                      .dwpsn  file "../FreeRTOS/Demo/Common/Minimal/dynamic.c",line 339,column 3,is_stmt
     915 000235 A90A          MOV *SP(#5), AR1 ; |339| 
     916 000237 0419          BCC $C$L14,AR1 != #0 ; |339| 
         000239 30   
     917                                                      ; branchcc occurs ; |339| 
     918 00023a       $C$DW$L$_vCounterControlTask$8$E:
     919 00023a       $C$DW$L$_vCounterControlTask$9$B:
     920                      .dwpsn  file "../FreeRTOS/Demo/Common/Minimal/dynamic.c",line 342,column 4,is_stmt
     921 00023a 20     nop
     922 00023b 46B3   bset INTM
     923 00023d F731          ADD #1, *(#_usCriticalNesting) ; |342| 
         00023f 0001 
         000241 0000 
         000243 00!  
     924                      .dwpsn  file "../FreeRTOS/Demo/Common/Minimal/dynamic.c",line 343,column 5,is_stmt
     925 000244 F731          ADD #1, *(#_usCheckVariable) ; |343| 
         000246 0001 
         000248 0000 
         00024a 06-  
     926 00024b 20            NOP
     927 00024c 20            NOP
     928 00024d 20            NOP
     929                      .dwpsn  file "../FreeRTOS/Demo/Common/Minimal/dynamic.c",line 344,column 4,is_stmt
     930 00024e A931          MOV *(#_usCriticalNesting), AR1 ; |344| 
         000250 0000 
         000252 00!  
     931 000253 0409          BCC $C$L14,AR1 == #0 ; |344| 
         000255 14   
     932                                                      ; branchcc occurs ; |344| 
     933 000256       $C$DW$L$_vCounterControlTask$9$E:
     934 000256       $C$DW$L$_vCounterControlTask$10$B:
     935 000256 F731          SUB #1, *(#_usCriticalNesting) ; |344| 
         000258 FFFF 
         00025a 0000 
TMS320C55x Assembler PC v4.4.1 Tue Sep 18 04:49:42 2018

Tools Copyright (c) 1996-2012 Texas Instruments Incorporated
dynamic.asm                                                          PAGE   21

         00025c 00!  
     936 00025d 20            NOP
     937 00025e 20            NOP
     938 00025f 20            NOP
     939 000260 A931          MOV *(#_usCriticalNesting), AR1 ; |344| 
         000262 0000 
         000264 00!  
     940 000265 6199          BCC $C$L14,AR1 != #0 ; |344| 
     941                                                      ; branchcc occurs ; |344| 
     942 000267       $C$DW$L$_vCounterControlTask$10$E:
     943 000267       $C$DW$L$_vCounterControlTask$11$B:
     944 000267 20     nop
     945 000268 46B2   bclr INTM
     946 00026a       $C$DW$L$_vCounterControlTask$11$E:
     947 00026a       $C$L14:    
     948 00026a       $C$DW$L$_vCounterControlTask$12$B:
     949                      .dwpsn  file "../FreeRTOS/Demo/Common/Minimal/dynamic.c",line 348,column 3,is_stmt
     950 00026a ED31          MOV dbl(*(#_xContinuousIncrementHandle)), XAR0
         00026c 8F00 
         00026e 0000-
     951              $C$DW$98        .dwtag  DW_TAG_TI_branch
     952                      .dwattr $C$DW$98, DW_AT_low_pc(0x00)
     953                      .dwattr $C$DW$98, DW_AT_name("_vTaskResume")
     954                      .dwattr $C$DW$98, DW_AT_TI_call
     955 000270 6C00          CALL #_vTaskResume ; |348| 
         000272 0000!
     956                                                      ; call occurs [#_vTaskResume] ; |348| 
     957                      .dwpsn  file "../FreeRTOS/Demo/Common/Minimal/dynamic.c",line 353,column 2,is_stmt
     958 000274 06FF          B $C$L9   ; |353| 
         000276 31   
     959                                                      ; branch occurs ; |353| 
     960 000277       $C$DW$L$_vCounterControlTask$12$E:
     961                      .dwcfi  cfa_offset, 2
     962                      .dwcfi  restore_reg, 14
     963                      .dwcfi  cfa_offset, 1
     964              
     965              $C$DW$99        .dwtag  DW_TAG_TI_loop
     966                      .dwattr $C$DW$99, DW_AT_name("F:\eZdsp_DBG\eZDSP_5535_Files\ccsws2\test\Debug\dynamic.asm:$C$L9:1:153
     967                      .dwattr $C$DW$99, DW_AT_TI_begin_file("../FreeRTOS/Demo/Common/Minimal/dynamic.c")
     968                      .dwattr $C$DW$99, DW_AT_TI_begin_line(0xf7)
     969                      .dwattr $C$DW$99, DW_AT_TI_end_line(0x161)
     970              $C$DW$100       .dwtag  DW_TAG_TI_loop_range
     971                      .dwattr $C$DW$100, DW_AT_low_pc($C$DW$L$_vCounterControlTask$2$B)
     972                      .dwattr $C$DW$100, DW_AT_high_pc($C$DW$L$_vCounterControlTask$2$E)
     973              $C$DW$101       .dwtag  DW_TAG_TI_loop_range
     974                      .dwattr $C$DW$101, DW_AT_low_pc($C$DW$L$_vCounterControlTask$6$B)
     975                      .dwattr $C$DW$101, DW_AT_high_pc($C$DW$L$_vCounterControlTask$6$E)
     976              $C$DW$102       .dwtag  DW_TAG_TI_loop_range
     977                      .dwattr $C$DW$102, DW_AT_low_pc($C$DW$L$_vCounterControlTask$7$B)
     978                      .dwattr $C$DW$102, DW_AT_high_pc($C$DW$L$_vCounterControlTask$7$E)
     979              $C$DW$103       .dwtag  DW_TAG_TI_loop_range
     980                      .dwattr $C$DW$103, DW_AT_low_pc($C$DW$L$_vCounterControlTask$8$B)
     981                      .dwattr $C$DW$103, DW_AT_high_pc($C$DW$L$_vCounterControlTask$8$E)
     982              $C$DW$104       .dwtag  DW_TAG_TI_loop_range
     983                      .dwattr $C$DW$104, DW_AT_low_pc($C$DW$L$_vCounterControlTask$9$B)
TMS320C55x Assembler PC v4.4.1 Tue Sep 18 04:49:42 2018

Tools Copyright (c) 1996-2012 Texas Instruments Incorporated
dynamic.asm                                                          PAGE   22

     984                      .dwattr $C$DW$104, DW_AT_high_pc($C$DW$L$_vCounterControlTask$9$E)
     985              $C$DW$105       .dwtag  DW_TAG_TI_loop_range
     986                      .dwattr $C$DW$105, DW_AT_low_pc($C$DW$L$_vCounterControlTask$10$B)
     987                      .dwattr $C$DW$105, DW_AT_high_pc($C$DW$L$_vCounterControlTask$10$E)
     988              $C$DW$106       .dwtag  DW_TAG_TI_loop_range
     989                      .dwattr $C$DW$106, DW_AT_low_pc($C$DW$L$_vCounterControlTask$11$B)
     990                      .dwattr $C$DW$106, DW_AT_high_pc($C$DW$L$_vCounterControlTask$11$E)
     991              $C$DW$107       .dwtag  DW_TAG_TI_loop_range
     992                      .dwattr $C$DW$107, DW_AT_low_pc($C$DW$L$_vCounterControlTask$12$B)
     993                      .dwattr $C$DW$107, DW_AT_high_pc($C$DW$L$_vCounterControlTask$12$E)
     994              
     995              $C$DW$108       .dwtag  DW_TAG_TI_loop
     996                      .dwattr $C$DW$108, DW_AT_name("F:\eZdsp_DBG\eZDSP_5535_Files\ccsws2\test\Debug\dynamic.asm:$C$L10:2:1
     997                      .dwattr $C$DW$108, DW_AT_TI_begin_file("../FreeRTOS/Demo/Common/Minimal/dynamic.c")
     998                      .dwattr $C$DW$108, DW_AT_TI_begin_line(0xff)
     999                      .dwattr $C$DW$108, DW_AT_TI_end_line(0x12b)
    1000              $C$DW$109       .dwtag  DW_TAG_TI_loop_range
    1001                      .dwattr $C$DW$109, DW_AT_low_pc($C$DW$L$_vCounterControlTask$3$B)
    1002                      .dwattr $C$DW$109, DW_AT_high_pc($C$DW$L$_vCounterControlTask$3$E)
    1003              $C$DW$110       .dwtag  DW_TAG_TI_loop_range
    1004                      .dwattr $C$DW$110, DW_AT_low_pc($C$DW$L$_vCounterControlTask$4$B)
    1005                      .dwattr $C$DW$110, DW_AT_high_pc($C$DW$L$_vCounterControlTask$4$E)
    1006              $C$DW$111       .dwtag  DW_TAG_TI_loop_range
    1007                      .dwattr $C$DW$111, DW_AT_low_pc($C$DW$L$_vCounterControlTask$5$B)
    1008                      .dwattr $C$DW$111, DW_AT_high_pc($C$DW$L$_vCounterControlTask$5$E)
    1009                      .dwendtag $C$DW$108
    1010              
    1011                      .dwendtag $C$DW$99
    1012              
    1013                      .dwattr $C$DW$85, DW_AT_TI_end_file("../FreeRTOS/Demo/Common/Minimal/dynamic.c")
    1014                      .dwattr $C$DW$85, DW_AT_TI_end_line(0x162)
    1015                      .dwattr $C$DW$85, DW_AT_TI_end_column(0x01)
    1016                      .dwendentry
    1017                      .dwendtag $C$DW$85
    1018              
    1019 000277               .sect   ".text"
    1020                      .align 4
    1021              
    1022              $C$DW$112       .dwtag  DW_TAG_subprogram, DW_AT_name("vQueueSendWhenSuspendedTask")
    1023                      .dwattr $C$DW$112, DW_AT_low_pc(_vQueueSendWhenSuspendedTask)
    1024                      .dwattr $C$DW$112, DW_AT_high_pc(0x00)
    1025                      .dwattr $C$DW$112, DW_AT_TI_symbol_name("_vQueueSendWhenSuspendedTask")
    1026                      .dwattr $C$DW$112, DW_AT_TI_begin_file("../FreeRTOS/Demo/Common/Minimal/dynamic.c")
    1027                      .dwattr $C$DW$112, DW_AT_TI_begin_line(0x165)
    1028                      .dwattr $C$DW$112, DW_AT_TI_begin_column(0x08)
    1029                      .dwattr $C$DW$112, DW_AT_TI_max_frame_size(0x04)
    1030                      .dwpsn  file "../FreeRTOS/Demo/Common/Minimal/dynamic.c",line 358,column 1,is_stmt,address _vQueueSen
    1031              
    1032                      .dwfde $C$DW$CIE, _vQueueSendWhenSuspendedTask
    1033              $C$DW$113       .dwtag  DW_TAG_variable, DW_AT_name("ulValueToSend")
    1034                      .dwattr $C$DW$113, DW_AT_TI_symbol_name("_ulValueToSend$1")
    1035                      .dwattr $C$DW$113, DW_AT_type(*$C$DW$T$74)
    1036                      .dwattr $C$DW$113, DW_AT_location[DW_OP_addr _ulValueToSend$1]
    1037              $C$DW$114       .dwtag  DW_TAG_formal_parameter, DW_AT_name("pvParameters")
    1038                      .dwattr $C$DW$114, DW_AT_TI_symbol_name("_pvParameters")
TMS320C55x Assembler PC v4.4.1 Tue Sep 18 04:49:42 2018

Tools Copyright (c) 1996-2012 Texas Instruments Incorporated
dynamic.asm                                                          PAGE   23

    1039                      .dwattr $C$DW$114, DW_AT_type(*$C$DW$T$3)
    1040                      .dwattr $C$DW$114, DW_AT_location[DW_OP_reg17]
    1041              ;*******************************************************************************
    1042              ;* FUNCTION NAME: vQueueSendWhenSuspendedTask                                  *
    1043              ;*                                                                             *
    1044              ;*   Function Uses Regs : AC0,AC0,T0,T2,AR0,XAR0,AR1,XAR1,SP,CARRY,TC1,M40,    *
    1045              ;*                        SATA,SATD,RDM,FRCT,SMUL                              *
    1046              ;*   Save On Entry Regs : T2                                                   *
    1047              ;*   Stack Frame        : Compact (No Frame Pointer, w/ debug)                 *
    1048              ;*   Total Frame Size   : 4 words                                              *
    1049              ;*                        (1 return address/alignment)                         *
    1050              ;*                        (2 local values)                                     *
    1051              ;*                        (1 register save area)                               *
    1052              ;*   Min System Stack   : 1 word                                               *
    1053              ;*******************************************************************************
    1054 000278       _vQueueSendWhenSuspendedTask:
    1055                      .dwcfi  cfa_offset, 1
    1056                      .dwcfi  save_reg_to_mem, 91, -1
    1057 000278 5066          PSH T2
    1058                      .dwcfi  cfa_offset, 2
    1059                      .dwcfi  save_reg_to_mem, 14, -2
    1060 00027a 4EFE          AADD #-2, SP
    1061                      .dwcfi  cfa_offset, 4
    1062              $C$DW$115       .dwtag  DW_TAG_variable, DW_AT_name("pvParameters")
    1063                      .dwattr $C$DW$115, DW_AT_TI_symbol_name("_pvParameters")
    1064                      .dwattr $C$DW$115, DW_AT_type(*$C$DW$T$3)
    1065                      .dwattr $C$DW$115, DW_AT_location[DW_OP_bregx 0x24 0]
    1066              
    1067 00027c EB00          MOV XAR0, dbl(*SP(#0))
         00027e 85   
    1068 00027f 3D16  ||      MOV #1, T2
    1069              
    1070                      .dwpsn  file "../FreeRTOS/Demo/Common/Minimal/dynamic.c",line 362,column 2,is_stmt
    1071 000281       $C$L15:    
    1072 000281       $C$DW$L$_vQueueSendWhenSuspendedTask$2$B:
    1073                      .dwpsn  file "../FreeRTOS/Demo/Common/Minimal/dynamic.c",line 366,column 3,is_stmt
    1074              $C$DW$116       .dwtag  DW_TAG_TI_branch
    1075                      .dwattr $C$DW$116, DW_AT_low_pc(0x00)
    1076                      .dwattr $C$DW$116, DW_AT_name("_vTaskSuspendAll")
    1077                      .dwattr $C$DW$116, DW_AT_TI_call
    1078 000281 6C00          CALL #_vTaskSuspendAll ; |366| 
         000283 0000!
    1079                                                      ; call occurs [#_vTaskSuspendAll] ; |366| 
    1080                      .dwpsn  file "../FreeRTOS/Demo/Common/Minimal/dynamic.c",line 369,column 4,is_stmt
    1081 000285 3C04          MOV #0, T0
    1082 000287 EC31          AMOV #_ulValueToSend$1, XAR1 ; |369| 
         000289 9E00 
         00028b 000E-
    1083 00028d ED31          MOV dbl(*(#_xSuspendedTestQueue)), XAR0
         00028f 8F00 
         000291 000A-
    1084              $C$DW$117       .dwtag  DW_TAG_TI_branch
    1085                      .dwattr $C$DW$117, DW_AT_low_pc(0x00)
    1086                      .dwattr $C$DW$117, DW_AT_name("_xQueueGenericSend")
    1087                      .dwattr $C$DW$117, DW_AT_TI_call
TMS320C55x Assembler PC v4.4.1 Tue Sep 18 04:49:42 2018

Tools Copyright (c) 1996-2012 Texas Instruments Incorporated
dynamic.asm                                                          PAGE   24

    1088              
    1089 000293 6C00          CALL #_xQueueGenericSend ; |369| 
         000295 0000!
    1090 000297 3D00  ||      MOV #0, AC0 ; |369| 
    1091              
    1092                                                      ; call occurs [#_xQueueGenericSend] ; |369| 
    1093 000299 1240          CMP T0 == T2, TC1 ; |369| 
         00029b 60   
    1094 00029c 6364          BCC $C$L16,TC1 ; |369| 
    1095                                                      ; branchcc occurs ; |369| 
    1096 00029e       $C$DW$L$_vQueueSendWhenSuspendedTask$2$E:
    1097 00029e       $C$DW$L$_vQueueSendWhenSuspendedTask$3$B:
    1098                      .dwpsn  file "../FreeRTOS/Demo/Common/Minimal/dynamic.c",line 371,column 5,is_stmt
    1099 00029e E631          MOV #1, *(#_xSuspendedQueueSendError) ; |371| 
         0002a0 0100 
         0002a2 0007-
    1100 0002a4       $C$DW$L$_vQueueSendWhenSuspendedTask$3$E:
    1101 0002a4       $C$L16:    
    1102 0002a4       $C$DW$L$_vQueueSendWhenSuspendedTask$4$B:
    1103                      .dwpsn  file "../FreeRTOS/Demo/Common/Minimal/dynamic.c",line 374,column 3,is_stmt
    1104              $C$DW$118       .dwtag  DW_TAG_TI_branch
    1105                      .dwattr $C$DW$118, DW_AT_low_pc(0x00)
    1106                      .dwattr $C$DW$118, DW_AT_name("_xTaskResumeAll")
    1107                      .dwattr $C$DW$118, DW_AT_TI_call
    1108 0002a4 6C00          CALL #_xTaskResumeAll ; |374| 
         0002a6 0000!
    1109                                                      ; call occurs [#_xTaskResumeAll] ; |374| 
    1110                      .dwpsn  file "../FreeRTOS/Demo/Common/Minimal/dynamic.c",line 376,column 3,is_stmt
    1111 0002a8 7605          MOV #1280, AC0 ; |376| 
         0002aa 0008 
    1112              $C$DW$119       .dwtag  DW_TAG_TI_branch
    1113                      .dwattr $C$DW$119, DW_AT_low_pc(0x00)
    1114                      .dwattr $C$DW$119, DW_AT_name("_vTaskDelay")
    1115                      .dwattr $C$DW$119, DW_AT_TI_call
    1116 0002ac 6C00          CALL #_vTaskDelay ; |376| 
         0002ae 0000!
    1117                                                      ; call occurs [#_vTaskDelay] ; |376| 
    1118                      .dwpsn  file "../FreeRTOS/Demo/Common/Minimal/dynamic.c",line 378,column 3,is_stmt
    1119 0002b0 ED31          MOV dbl(*(#_ulValueToSend$1)), AC0 ; |378| 
         0002b2 0800 
         0002b4 000E-
    1120 0002b6 4010          ADD #1, AC0 ; |378| 
    1121 0002b8 EB31          MOV AC0, dbl(*(#_ulValueToSend$1)) ; |378| 
         0002ba 0800 
         0002bc 000E-
    1122                      .dwpsn  file "../FreeRTOS/Demo/Common/Minimal/dynamic.c",line 379,column 2,is_stmt
    1123 0002be 4A41          B $C$L15  ; |379| 
    1124                                                      ; branch occurs ; |379| 
    1125 0002c0       $C$DW$L$_vQueueSendWhenSuspendedTask$4$E:
    1126                      .dwcfi  cfa_offset, 2
    1127                      .dwcfi  restore_reg, 14
    1128                      .dwcfi  cfa_offset, 1
    1129              
    1130              $C$DW$120       .dwtag  DW_TAG_TI_loop
    1131                      .dwattr $C$DW$120, DW_AT_name("F:\eZdsp_DBG\eZDSP_5535_Files\ccsws2\test\Debug\dynamic.asm:$C$L15:1:1
TMS320C55x Assembler PC v4.4.1 Tue Sep 18 04:49:42 2018

Tools Copyright (c) 1996-2012 Texas Instruments Incorporated
dynamic.asm                                                          PAGE   25

    1132                      .dwattr $C$DW$120, DW_AT_TI_begin_file("../FreeRTOS/Demo/Common/Minimal/dynamic.c")
    1133                      .dwattr $C$DW$120, DW_AT_TI_begin_line(0x16c)
    1134                      .dwattr $C$DW$120, DW_AT_TI_end_line(0x17b)
    1135              $C$DW$121       .dwtag  DW_TAG_TI_loop_range
    1136                      .dwattr $C$DW$121, DW_AT_low_pc($C$DW$L$_vQueueSendWhenSuspendedTask$2$B)
    1137                      .dwattr $C$DW$121, DW_AT_high_pc($C$DW$L$_vQueueSendWhenSuspendedTask$2$E)
    1138              $C$DW$122       .dwtag  DW_TAG_TI_loop_range
    1139                      .dwattr $C$DW$122, DW_AT_low_pc($C$DW$L$_vQueueSendWhenSuspendedTask$3$B)
    1140                      .dwattr $C$DW$122, DW_AT_high_pc($C$DW$L$_vQueueSendWhenSuspendedTask$3$E)
    1141              $C$DW$123       .dwtag  DW_TAG_TI_loop_range
    1142                      .dwattr $C$DW$123, DW_AT_low_pc($C$DW$L$_vQueueSendWhenSuspendedTask$4$B)
    1143                      .dwattr $C$DW$123, DW_AT_high_pc($C$DW$L$_vQueueSendWhenSuspendedTask$4$E)
    1144                      .dwendtag $C$DW$120
    1145              
    1146                      .dwattr $C$DW$112, DW_AT_TI_end_file("../FreeRTOS/Demo/Common/Minimal/dynamic.c")
    1147                      .dwattr $C$DW$112, DW_AT_TI_end_line(0x17c)
    1148                      .dwattr $C$DW$112, DW_AT_TI_end_column(0x01)
    1149                      .dwendentry
    1150                      .dwendtag $C$DW$112
    1151              
    1152 0002c0               .sect   ".text"
    1153                      .align 4
    1154              
    1155              $C$DW$124       .dwtag  DW_TAG_subprogram, DW_AT_name("vQueueReceiveWhenSuspendedTask")
    1156                      .dwattr $C$DW$124, DW_AT_low_pc(_vQueueReceiveWhenSuspendedTask)
    1157                      .dwattr $C$DW$124, DW_AT_high_pc(0x00)
    1158                      .dwattr $C$DW$124, DW_AT_TI_symbol_name("_vQueueReceiveWhenSuspendedTask")
    1159                      .dwattr $C$DW$124, DW_AT_TI_begin_file("../FreeRTOS/Demo/Common/Minimal/dynamic.c")
    1160                      .dwattr $C$DW$124, DW_AT_TI_begin_line(0x17f)
    1161                      .dwattr $C$DW$124, DW_AT_TI_begin_column(0x08)
    1162                      .dwattr $C$DW$124, DW_AT_TI_max_frame_size(0x06)
    1163                      .dwpsn  file "../FreeRTOS/Demo/Common/Minimal/dynamic.c",line 384,column 1,is_stmt,address _vQueueRec
    1164              
    1165                      .dwfde $C$DW$CIE, _vQueueReceiveWhenSuspendedTask
    1166              $C$DW$125       .dwtag  DW_TAG_formal_parameter, DW_AT_name("pvParameters")
    1167                      .dwattr $C$DW$125, DW_AT_TI_symbol_name("_pvParameters")
    1168                      .dwattr $C$DW$125, DW_AT_type(*$C$DW$T$3)
    1169                      .dwattr $C$DW$125, DW_AT_location[DW_OP_reg17]
    1170              ;*******************************************************************************
    1171              ;* FUNCTION NAME: vQueueReceiveWhenSuspendedTask                               *
    1172              ;*                                                                             *
    1173              ;*   Function Uses Regs : AC0,AC0,AC1,AC1,T0,AR0,XAR0,AR1,XAR1,SP,CARRY,TC1,   *
    1174              ;*                        M40,SATA,SATD,RDM,FRCT,SMUL                          *
    1175              ;*   Stack Frame        : Compact (No Frame Pointer, w/ debug)                 *
    1176              ;*   Total Frame Size   : 6 words                                              *
    1177              ;*                        (1 return address/alignment)                         *
    1178              ;*                        (5 local values)                                     *
    1179              ;*   Min System Stack   : 1 word                                               *
    1180              ;*******************************************************************************
    1181 0002c0       _vQueueReceiveWhenSuspendedTask:
    1182                      .dwcfi  cfa_offset, 1
    1183                      .dwcfi  save_reg_to_mem, 91, -1
    1184 0002c0 4EFB          AADD #-5, SP
    1185                      .dwcfi  cfa_offset, 6
    1186              $C$DW$126       .dwtag  DW_TAG_variable, DW_AT_name("pvParameters")
TMS320C55x Assembler PC v4.4.1 Tue Sep 18 04:49:42 2018

Tools Copyright (c) 1996-2012 Texas Instruments Incorporated
dynamic.asm                                                          PAGE   26

    1187                      .dwattr $C$DW$126, DW_AT_TI_symbol_name("_pvParameters")
    1188                      .dwattr $C$DW$126, DW_AT_type(*$C$DW$T$3)
    1189                      .dwattr $C$DW$126, DW_AT_location[DW_OP_bregx 0x24 0]
    1190              $C$DW$127       .dwtag  DW_TAG_variable, DW_AT_name("ulReceivedValue")
    1191                      .dwattr $C$DW$127, DW_AT_TI_symbol_name("_ulReceivedValue")
    1192                      .dwattr $C$DW$127, DW_AT_type(*$C$DW$T$74)
    1193                      .dwattr $C$DW$127, DW_AT_location[DW_OP_bregx 0x24 2]
    1194              $C$DW$128       .dwtag  DW_TAG_variable, DW_AT_name("xGotValue")
    1195                      .dwattr $C$DW$128, DW_AT_TI_symbol_name("_xGotValue")
    1196                      .dwattr $C$DW$128, DW_AT_type(*$C$DW$T$53)
    1197                      .dwattr $C$DW$128, DW_AT_location[DW_OP_bregx 0x24 4]
    1198 0002c2 EB00          MOV XAR0, dbl(*SP(#0))
         0002c4 85   
    1199                      .dwpsn  file "../FreeRTOS/Demo/Common/Minimal/dynamic.c",line 389,column 2,is_stmt
    1200 0002c5       $C$L17:    
    1201 0002c5       $C$DW$L$_vQueueReceiveWhenSuspendedTask$2$B:
    1202                      .dwpsn  file "../FreeRTOS/Demo/Common/Minimal/dynamic.c",line 400,column 4,is_stmt
    1203              $C$DW$129       .dwtag  DW_TAG_TI_branch
    1204                      .dwattr $C$DW$129, DW_AT_low_pc(0x00)
    1205                      .dwattr $C$DW$129, DW_AT_name("_vTaskSuspendAll")
    1206                      .dwattr $C$DW$129, DW_AT_TI_call
    1207 0002c5 6C00          CALL #_vTaskSuspendAll ; |400| 
         0002c7 0000!
    1208                                                      ; call occurs [#_vTaskSuspendAll] ; |400| 
    1209                      .dwpsn  file "../FreeRTOS/Demo/Common/Minimal/dynamic.c",line 402,column 5,is_stmt
    1210              $C$DW$130       .dwtag  DW_TAG_TI_branch
    1211                      .dwattr $C$DW$130, DW_AT_low_pc(0x00)
    1212                      .dwattr $C$DW$130, DW_AT_name("_vTaskSuspendAll")
    1213                      .dwattr $C$DW$130, DW_AT_TI_call
    1214 0002c9 6C00          CALL #_vTaskSuspendAll ; |402| 
         0002cb 0000!
    1215                                                      ; call occurs [#_vTaskSuspendAll] ; |402| 
    1216                      .dwpsn  file "../FreeRTOS/Demo/Common/Minimal/dynamic.c",line 404,column 6,is_stmt
    1217 0002cd EC04          AMAR *SP(#2), XAR1
         0002cf 9E   
    1218 0002d0 ED31          MOV dbl(*(#_xSuspendedTestQueue)), XAR0
         0002d2 8F00 
         0002d4 000A-
    1219              $C$DW$131       .dwtag  DW_TAG_TI_branch
    1220                      .dwattr $C$DW$131, DW_AT_low_pc(0x00)
    1221                      .dwattr $C$DW$131, DW_AT_name("_xQueueReceive")
    1222                      .dwattr $C$DW$131, DW_AT_TI_call
    1223              
    1224 0002d6 6C00          CALL #_xQueueReceive ; |404| 
         0002d8 0000!
    1225 0002da 3D00  ||      MOV #0, AC0 ; |404| 
    1226              
    1227                                                      ; call occurs [#_xQueueReceive] ; |404| 
    1228 0002dc C408          MOV T0, *SP(#4) ; |404| 
    1229                      .dwpsn  file "../FreeRTOS/Demo/Common/Minimal/dynamic.c",line 406,column 5,is_stmt
    1230              $C$DW$132       .dwtag  DW_TAG_TI_branch
    1231                      .dwattr $C$DW$132, DW_AT_low_pc(0x00)
    1232                      .dwattr $C$DW$132, DW_AT_name("_xTaskResumeAll")
    1233                      .dwattr $C$DW$132, DW_AT_TI_call
    1234 0002de 6C00          CALL #_xTaskResumeAll ; |406| 
TMS320C55x Assembler PC v4.4.1 Tue Sep 18 04:49:42 2018

Tools Copyright (c) 1996-2012 Texas Instruments Incorporated
dynamic.asm                                                          PAGE   27

         0002e0 0000!
    1235                                                      ; call occurs [#_xTaskResumeAll] ; |406| 
    1236 0002e2 6304          BCC $C$L18,T0 == #0 ; |406| 
    1237                                                      ; branchcc occurs ; |406| 
    1238 0002e4       $C$DW$L$_vQueueReceiveWhenSuspendedTask$2$E:
    1239 0002e4       $C$DW$L$_vQueueReceiveWhenSuspendedTask$3$B:
    1240                      .dwpsn  file "../FreeRTOS/Demo/Common/Minimal/dynamic.c",line 408,column 6,is_stmt
    1241 0002e4 E631          MOV #1, *(#_xSuspendedQueueReceiveError) ; |408| 
         0002e6 0100 
         0002e8 0008-
    1242 0002ea       $C$DW$L$_vQueueReceiveWhenSuspendedTask$3$E:
    1243 0002ea       $C$L18:    
    1244 0002ea       $C$DW$L$_vQueueReceiveWhenSuspendedTask$4$B:
    1245                      .dwpsn  file "../FreeRTOS/Demo/Common/Minimal/dynamic.c",line 411,column 4,is_stmt
    1246              $C$DW$133       .dwtag  DW_TAG_TI_branch
    1247                      .dwattr $C$DW$133, DW_AT_low_pc(0x00)
    1248                      .dwattr $C$DW$133, DW_AT_name("_xTaskResumeAll")
    1249                      .dwattr $C$DW$133, DW_AT_TI_call
    1250 0002ea 6C00          CALL #_xTaskResumeAll ; |411| 
         0002ec 0000!
    1251                                                      ; call occurs [#_xTaskResumeAll] ; |411| 
    1252                      .dwpsn  file "../FreeRTOS/Demo/Common/Minimal/dynamic.c",line 419,column 12,is_stmt
    1253 0002ee A908          MOV *SP(#4), AR1 ; |419| 
    1254 0002f0 0409          BCC $C$L17,AR1 == #0 ; |419| 
         0002f2 D2   
    1255                                                      ; branchcc occurs ; |419| 
    1256 0002f3       $C$DW$L$_vQueueReceiveWhenSuspendedTask$4$E:
    1257 0002f3       $C$DW$L$_vQueueReceiveWhenSuspendedTask$5$B:
    1258                      .dwpsn  file "../FreeRTOS/Demo/Common/Minimal/dynamic.c",line 421,column 3,is_stmt
    1259 0002f3 ED31          MOV dbl(*(#_ulExpectedValue)), AC0 ; |421| 
         0002f5 0800 
         0002f7 000C-
    1260 0002f9 ED04          MOV dbl(*SP(#2)), AC1 ; |421| 
         0002fb 18   
    1261 0002fc 1210          CMPU AC1 == AC0, TC1 ; |421| 
         0002fe 04   
    1262 0002ff 6364          BCC $C$L19,TC1 ; |421| 
    1263                                                      ; branchcc occurs ; |421| 
    1264 000301       $C$DW$L$_vQueueReceiveWhenSuspendedTask$5$E:
    1265 000301       $C$DW$L$_vQueueReceiveWhenSuspendedTask$6$B:
    1266                      .dwpsn  file "../FreeRTOS/Demo/Common/Minimal/dynamic.c",line 423,column 4,is_stmt
    1267 000301 E631          MOV #1, *(#_xSuspendedQueueReceiveError) ; |423| 
         000303 0100 
         000305 0008-
    1268 000307       $C$DW$L$_vQueueReceiveWhenSuspendedTask$6$E:
    1269 000307       $C$L19:    
    1270 000307       $C$DW$L$_vQueueReceiveWhenSuspendedTask$7$B:
    1271                      .dwpsn  file "../FreeRTOS/Demo/Common/Minimal/dynamic.c",line 426,column 3,is_stmt
    1272 000307 F031          CMP *(#_xSuspendedQueueReceiveError) == #1, TC1 ; |426| 
         000309 0001 
         00030b 0000 
         00030d 08-  
    1273 00030e 0464          BCC $C$L17,TC1 ; |426| 
         000310 B4   
    1274                                                      ; branchcc occurs ; |426| 
TMS320C55x Assembler PC v4.4.1 Tue Sep 18 04:49:42 2018

Tools Copyright (c) 1996-2012 Texas Instruments Incorporated
dynamic.asm                                                          PAGE   28

    1275 000311       $C$DW$L$_vQueueReceiveWhenSuspendedTask$7$E:
    1276 000311       $C$DW$L$_vQueueReceiveWhenSuspendedTask$8$B:
    1277                      .dwpsn  file "../FreeRTOS/Demo/Common/Minimal/dynamic.c",line 431,column 4,is_stmt
    1278 000311 ED31          MOV dbl(*(#_ulExpectedValue)), AC0 ; |431| 
         000313 0800 
         000315 000C-
    1279 000317 4010          ADD #1, AC0 ; |431| 
    1280 000319 EB31          MOV AC0, dbl(*(#_ulExpectedValue)) ; |431| 
         00031b 0800 
         00031d 000C-
    1281                      .dwpsn  file "../FreeRTOS/Demo/Common/Minimal/dynamic.c",line 433,column 2,is_stmt
    1282 00031f 06FF          B $C$L17  ; |433| 
         000321 A3   
    1283                                                      ; branch occurs ; |433| 
    1284 000322       $C$DW$L$_vQueueReceiveWhenSuspendedTask$8$E:
    1285                      .dwcfi  cfa_offset, 1
    1286              
    1287              $C$DW$134       .dwtag  DW_TAG_TI_loop
    1288                      .dwattr $C$DW$134, DW_AT_name("F:\eZdsp_DBG\eZDSP_5535_Files\ccsws2\test\Debug\dynamic.asm:$C$L17:1:1
    1289                      .dwattr $C$DW$134, DW_AT_TI_begin_file("../FreeRTOS/Demo/Common/Minimal/dynamic.c")
    1290                      .dwattr $C$DW$134, DW_AT_TI_begin_line(0x189)
    1291                      .dwattr $C$DW$134, DW_AT_TI_end_line(0x1b1)
    1292              $C$DW$135       .dwtag  DW_TAG_TI_loop_range
    1293                      .dwattr $C$DW$135, DW_AT_low_pc($C$DW$L$_vQueueReceiveWhenSuspendedTask$2$B)
    1294                      .dwattr $C$DW$135, DW_AT_high_pc($C$DW$L$_vQueueReceiveWhenSuspendedTask$2$E)
    1295              $C$DW$136       .dwtag  DW_TAG_TI_loop_range
    1296                      .dwattr $C$DW$136, DW_AT_low_pc($C$DW$L$_vQueueReceiveWhenSuspendedTask$5$B)
    1297                      .dwattr $C$DW$136, DW_AT_high_pc($C$DW$L$_vQueueReceiveWhenSuspendedTask$5$E)
    1298              $C$DW$137       .dwtag  DW_TAG_TI_loop_range
    1299                      .dwattr $C$DW$137, DW_AT_low_pc($C$DW$L$_vQueueReceiveWhenSuspendedTask$6$B)
    1300                      .dwattr $C$DW$137, DW_AT_high_pc($C$DW$L$_vQueueReceiveWhenSuspendedTask$6$E)
    1301              $C$DW$138       .dwtag  DW_TAG_TI_loop_range
    1302                      .dwattr $C$DW$138, DW_AT_low_pc($C$DW$L$_vQueueReceiveWhenSuspendedTask$3$B)
    1303                      .dwattr $C$DW$138, DW_AT_high_pc($C$DW$L$_vQueueReceiveWhenSuspendedTask$3$E)
    1304              $C$DW$139       .dwtag  DW_TAG_TI_loop_range
    1305                      .dwattr $C$DW$139, DW_AT_low_pc($C$DW$L$_vQueueReceiveWhenSuspendedTask$8$B)
    1306                      .dwattr $C$DW$139, DW_AT_high_pc($C$DW$L$_vQueueReceiveWhenSuspendedTask$8$E)
    1307              $C$DW$140       .dwtag  DW_TAG_TI_loop_range
    1308                      .dwattr $C$DW$140, DW_AT_low_pc($C$DW$L$_vQueueReceiveWhenSuspendedTask$7$B)
    1309                      .dwattr $C$DW$140, DW_AT_high_pc($C$DW$L$_vQueueReceiveWhenSuspendedTask$7$E)
    1310              $C$DW$141       .dwtag  DW_TAG_TI_loop_range
    1311                      .dwattr $C$DW$141, DW_AT_low_pc($C$DW$L$_vQueueReceiveWhenSuspendedTask$4$B)
    1312                      .dwattr $C$DW$141, DW_AT_high_pc($C$DW$L$_vQueueReceiveWhenSuspendedTask$4$E)
    1313                      .dwendtag $C$DW$134
    1314              
    1315                      .dwattr $C$DW$124, DW_AT_TI_end_file("../FreeRTOS/Demo/Common/Minimal/dynamic.c")
    1316                      .dwattr $C$DW$124, DW_AT_TI_end_line(0x1b2)
    1317                      .dwattr $C$DW$124, DW_AT_TI_end_column(0x01)
    1318                      .dwendentry
    1319                      .dwendtag $C$DW$124
    1320              
    1321 000322               .sect   ".text"
    1322                      .align 4
    1323                      .global _xAreDynamicPriorityTasksStillRunning
    1324              
TMS320C55x Assembler PC v4.4.1 Tue Sep 18 04:49:42 2018

Tools Copyright (c) 1996-2012 Texas Instruments Incorporated
dynamic.asm                                                          PAGE   29

    1325              $C$DW$142       .dwtag  DW_TAG_subprogram, DW_AT_name("xAreDynamicPriorityTasksStillRunning")
    1326                      .dwattr $C$DW$142, DW_AT_low_pc(_xAreDynamicPriorityTasksStillRunning)
    1327                      .dwattr $C$DW$142, DW_AT_high_pc(0x00)
    1328                      .dwattr $C$DW$142, DW_AT_TI_symbol_name("_xAreDynamicPriorityTasksStillRunning")
    1329                      .dwattr $C$DW$142, DW_AT_external
    1330                      .dwattr $C$DW$142, DW_AT_type(*$C$DW$T$53)
    1331                      .dwattr $C$DW$142, DW_AT_TI_begin_file("../FreeRTOS/Demo/Common/Minimal/dynamic.c")
    1332                      .dwattr $C$DW$142, DW_AT_TI_begin_line(0x1b6)
    1333                      .dwattr $C$DW$142, DW_AT_TI_begin_column(0x0c)
    1334                      .dwattr $C$DW$142, DW_AT_TI_max_frame_size(0x02)
    1335                      .dwpsn  file "../FreeRTOS/Demo/Common/Minimal/dynamic.c",line 439,column 1,is_stmt,address _xAreDynam
    1336              
    1337                      .dwfde $C$DW$CIE, _xAreDynamicPriorityTasksStillRunning
    1338              $C$DW$143       .dwtag  DW_TAG_variable, DW_AT_name("usLastTaskCheck")
    1339                      .dwattr $C$DW$143, DW_AT_TI_symbol_name("_usLastTaskCheck$2")
    1340                      .dwattr $C$DW$143, DW_AT_type(*$C$DW$T$57)
    1341                      .dwattr $C$DW$143, DW_AT_location[DW_OP_addr _usLastTaskCheck$2]
    1342              $C$DW$144       .dwtag  DW_TAG_variable, DW_AT_name("ulLastExpectedValue")
    1343                      .dwattr $C$DW$144, DW_AT_TI_symbol_name("_ulLastExpectedValue$3")
    1344                      .dwattr $C$DW$144, DW_AT_type(*$C$DW$T$74)
    1345                      .dwattr $C$DW$144, DW_AT_location[DW_OP_addr _ulLastExpectedValue$3]
    1346              ;*******************************************************************************
    1347              ;* FUNCTION NAME: xAreDynamicPriorityTasksStillRunning                         *
    1348              ;*                                                                             *
    1349              ;*   Function Uses Regs : AC0,AC0,AC1,AC1,T0,AR1,AR2,SP,TC1,M40,SATA,SATD,RDM, *
    1350              ;*                        FRCT,SMUL                                            *
    1351              ;*   Stack Frame        : Compact (No Frame Pointer, w/ debug)                 *
    1352              ;*   Total Frame Size   : 2 words                                              *
    1353              ;*                        (1 return address/alignment)                         *
    1354              ;*                        (1 local values)                                     *
    1355              ;*   Min System Stack   : 1 word                                               *
    1356              ;*******************************************************************************
    1357 000324       _xAreDynamicPriorityTasksStillRunning:
    1358                      .dwcfi  cfa_offset, 1
    1359                      .dwcfi  save_reg_to_mem, 91, -1
    1360 000324 4EFF          AADD #-1, SP
    1361                      .dwcfi  cfa_offset, 2
    1362              $C$DW$145       .dwtag  DW_TAG_variable, DW_AT_name("xReturn")
    1363                      .dwattr $C$DW$145, DW_AT_TI_symbol_name("_xReturn")
    1364                      .dwattr $C$DW$145, DW_AT_type(*$C$DW$T$53)
    1365                      .dwattr $C$DW$145, DW_AT_location[DW_OP_bregx 0x24 0]
    1366                      .dwpsn  file "../FreeRTOS/Demo/Common/Minimal/dynamic.c",line 444,column 12,is_stmt
    1367 000326 E600          MOV #1, *SP(#0) ; |444| 
         000328 01   
    1368                      .dwpsn  file "../FreeRTOS/Demo/Common/Minimal/dynamic.c",line 449,column 2,is_stmt
    1369 000329 A931          MOV *(#_usLastTaskCheck$2), AR1 ; |449| 
         00032b 0000 
         00032d 09-  
    1370 00032e AA31          MOV *(#_usCheckVariable), AR2 ; |449| 
         000330 0000 
         000332 06-  
    1371 000333 12AC          CMPU AR2 != AR1, TC1 ; |449| 
         000335 94   
    1372 000336 61E4          BCC $C$L20,TC1 ; |449| 
    1373                                                      ; branchcc occurs ; |449| 
TMS320C55x Assembler PC v4.4.1 Tue Sep 18 04:49:42 2018

Tools Copyright (c) 1996-2012 Texas Instruments Incorporated
dynamic.asm                                                          PAGE   30

    1374                      .dwpsn  file "../FreeRTOS/Demo/Common/Minimal/dynamic.c",line 452,column 3,is_stmt
    1375 000338 E600          MOV #0, *SP(#0) ; |452| 
         00033a 00   
    1376 00033b       $C$L20:    
    1377                      .dwpsn  file "../FreeRTOS/Demo/Common/Minimal/dynamic.c",line 455,column 2,is_stmt
    1378 00033b ED31          MOV dbl(*(#_ulLastExpectedValue$3)), AC0 ; |455| 
         00033d 0800 
         00033f 0010-
    1379 000341 ED31          MOV dbl(*(#_ulExpectedValue)), AC1 ; |455| 
         000343 1800 
         000345 000C-
    1380 000347 121C          CMPU AC1 != AC0, TC1 ; |455| 
         000349 04   
    1381 00034a 61E4          BCC $C$L21,TC1 ; |455| 
    1382                                                      ; branchcc occurs ; |455| 
    1383                      .dwpsn  file "../FreeRTOS/Demo/Common/Minimal/dynamic.c",line 459,column 3,is_stmt
    1384 00034c E600          MOV #0, *SP(#0) ; |459| 
         00034e 00   
    1385 00034f       $C$L21:    
    1386                      .dwpsn  file "../FreeRTOS/Demo/Common/Minimal/dynamic.c",line 462,column 2,is_stmt
    1387 00034f F031          CMP *(#_xSuspendedQueueSendError) == #1, TC1 ; |462| 
         000351 0001 
         000353 0000 
         000355 07-  
    1388 000356 61F4          BCC $C$L22,!TC1 ; |462| 
    1389                                                      ; branchcc occurs ; |462| 
    1390                      .dwpsn  file "../FreeRTOS/Demo/Common/Minimal/dynamic.c",line 464,column 3,is_stmt
    1391 000358 E600          MOV #0, *SP(#0) ; |464| 
         00035a 00   
    1392 00035b       $C$L22:    
    1393                      .dwpsn  file "../FreeRTOS/Demo/Common/Minimal/dynamic.c",line 467,column 2,is_stmt
    1394 00035b F031          CMP *(#_xSuspendedQueueReceiveError) == #1, TC1 ; |467| 
         00035d 0001 
         00035f 0000 
         000361 08-  
    1395 000362 61F4          BCC $C$L23,!TC1 ; |467| 
    1396                                                      ; branchcc occurs ; |467| 
    1397                      .dwpsn  file "../FreeRTOS/Demo/Common/Minimal/dynamic.c",line 469,column 3,is_stmt
    1398 000364 E600          MOV #0, *SP(#0) ; |469| 
         000366 00   
    1399 000367       $C$L23:    
    1400                      .dwpsn  file "../FreeRTOS/Demo/Common/Minimal/dynamic.c",line 472,column 2,is_stmt
    1401 000367 A931          MOV *(#_usCheckVariable), AR1 ; |472| 
         000369 0000 
         00036b 06-  
    1402 00036c C931          MOV AR1, *(#_usLastTaskCheck$2) ; |472| 
         00036e 0000 
         000370 09-  
    1403                      .dwpsn  file "../FreeRTOS/Demo/Common/Minimal/dynamic.c",line 473,column 2,is_stmt
    1404 000371 ED31          MOV dbl(*(#_ulExpectedValue)), AC0 ; |473| 
         000373 0800 
         000375 000C-
    1405 000377 EB31          MOV AC0, dbl(*(#_ulLastExpectedValue$3)) ; |473| 
         000379 0800 
         00037b 0010-
TMS320C55x Assembler PC v4.4.1 Tue Sep 18 04:49:42 2018

Tools Copyright (c) 1996-2012 Texas Instruments Incorporated
dynamic.asm                                                          PAGE   31

    1406                      .dwpsn  file "../FreeRTOS/Demo/Common/Minimal/dynamic.c",line 475,column 2,is_stmt
    1407 00037d A400          MOV *SP(#0), T0 ; |475| 
    1408                      .dwpsn  file "../FreeRTOS/Demo/Common/Minimal/dynamic.c",line 476,column 1,is_stmt
    1409 00037f 4E01          AADD #1, SP
    1410                      .dwcfi  cfa_offset, 1
    1411              $C$DW$146       .dwtag  DW_TAG_TI_branch
    1412                      .dwattr $C$DW$146, DW_AT_low_pc(0x00)
    1413                      .dwattr $C$DW$146, DW_AT_TI_return
    1414 000381 4804          RET
    1415                                                      ; return occurs
    1416                      .dwattr $C$DW$142, DW_AT_TI_end_file("../FreeRTOS/Demo/Common/Minimal/dynamic.c")
    1417                      .dwattr $C$DW$142, DW_AT_TI_end_line(0x1dc)
    1418                      .dwattr $C$DW$142, DW_AT_TI_end_column(0x01)
    1419                      .dwendentry
    1420                      .dwendtag $C$DW$142
    1421              
    1422              ;*******************************************************************************
    1423              ;* FAR STRINGS                                                                 *
    1424              ;*******************************************************************************
    1425 000000               .sect   ".const:.string"
    1426                      .align  2
    1427 000000 0053  $C$FSL1:        .string "Suspended_Test_Queue",0
         000001 0075 
         000002 0073 
         000003 0070 
         000004 0065 
         000005 006E 
         000006 0064 
         000007 0065 
         000008 0064 
         000009 005F 
         00000a 0054 
         00000b 0065 
         00000c 0073 
         00000d 0074 
         00000e 005F 
         00000f 0051 
         000010 0075 
         000011 0065 
         000012 0075 
         000013 0065 
         000014 0000 
    1428                      .align  2
    1429 000016 0043  $C$FSL2:        .string "CNT_INC",0
         000017 004E 
         000018 0054 
         000019 005F 
         00001a 0049 
         00001b 004E 
         00001c 0043 
         00001d 0000 
    1430                      .align  2
    1431 00001e 004C  $C$FSL3:        .string "LIM_INC",0
         00001f 0049 
         000020 004D 
TMS320C55x Assembler PC v4.4.1 Tue Sep 18 04:49:42 2018

Tools Copyright (c) 1996-2012 Texas Instruments Incorporated
dynamic.asm                                                          PAGE   32

         000021 005F 
         000022 0049 
         000023 004E 
         000024 0043 
         000025 0000 
    1432                      .align  2
    1433 000026 0043  $C$FSL4:        .string "C_CTRL",0
         000027 005F 
         000028 0043 
         000029 0054 
         00002a 0052 
         00002b 004C 
         00002c 0000 
    1434                      .align  2
    1435 00002e 0053  $C$FSL5:        .string "SUSP_TX",0
         00002f 0055 
         000030 0053 
         000031 0050 
         000032 005F 
         000033 0054 
         000034 0058 
         000035 0000 
    1436                      .align  2
    1437 000036 0053  $C$FSL6:        .string "SUSP_RX",0
         000037 0055 
         000038 0053 
         000039 0050 
         00003a 005F 
         00003b 0052 
         00003c 0058 
         00003d 0000 
    1438              ;******************************************************************************
    1439              ;* UNDEFINED EXTERNAL REFERENCES                                              *
    1440              ;******************************************************************************
    1441                      .global _xTaskCreate
    1442                      .global _vTaskDelay
    1443                      .global _uxTaskPriorityGet
    1444                      .global _vTaskPrioritySet
    1445                      .global _vTaskSuspend
    1446                      .global _vTaskResume
    1447                      .global _vTaskSuspendAll
    1448                      .global _xTaskResumeAll
    1449                      .global _xQueueGenericSend
    1450                      .global _xQueueReceive
    1451                      .global _vQueueAddToRegistry
    1452                      .global _xQueueGenericCreate
    1453                      .global _usCriticalNesting
    1454              
    1455              ;*******************************************************************************
    1456              ;* TYPE INFORMATION                                                            *
    1457              ;*******************************************************************************
    1458              
    1459              $C$DW$T$19      .dwtag  DW_TAG_structure_type
    1460                      .dwattr $C$DW$T$19, DW_AT_name("QueueDefinition")
    1461                      .dwattr $C$DW$T$19, DW_AT_declaration
TMS320C55x Assembler PC v4.4.1 Tue Sep 18 04:49:42 2018

Tools Copyright (c) 1996-2012 Texas Instruments Incorporated
dynamic.asm                                                          PAGE   33

    1462                      .dwendtag $C$DW$T$19
    1463              
    1464              $C$DW$T$21      .dwtag  DW_TAG_pointer_type
    1465                      .dwattr $C$DW$T$21, DW_AT_type(*$C$DW$T$19)
    1466                      .dwattr $C$DW$T$21, DW_AT_address_class(0x17)
    1467              $C$DW$T$22      .dwtag  DW_TAG_typedef, DW_AT_name("QueueHandle_t")
    1468                      .dwattr $C$DW$T$22, DW_AT_type(*$C$DW$T$21)
    1469                      .dwattr $C$DW$T$22, DW_AT_language(DW_LANG_C)
    1470              $C$DW$T$3       .dwtag  DW_TAG_pointer_type
    1471                      .dwattr $C$DW$T$3, DW_AT_address_class(0x17)
    1472              $C$DW$147       .dwtag  DW_TAG_TI_far_type
    1473                      .dwattr $C$DW$147, DW_AT_type(*$C$DW$T$3)
    1474              $C$DW$T$29      .dwtag  DW_TAG_const_type
    1475                      .dwattr $C$DW$T$29, DW_AT_type(*$C$DW$147)
    1476              
    1477              $C$DW$T$30      .dwtag  DW_TAG_subroutine_type
    1478                      .dwattr $C$DW$T$30, DW_AT_language(DW_LANG_C)
    1479              $C$DW$148       .dwtag  DW_TAG_formal_parameter
    1480                      .dwattr $C$DW$148, DW_AT_type(*$C$DW$T$3)
    1481                      .dwendtag $C$DW$T$30
    1482              
    1483              $C$DW$T$31      .dwtag  DW_TAG_pointer_type
    1484                      .dwattr $C$DW$T$31, DW_AT_type(*$C$DW$T$30)
    1485                      .dwattr $C$DW$T$31, DW_AT_address_class(0x20)
    1486              $C$DW$T$32      .dwtag  DW_TAG_typedef, DW_AT_name("TaskFunction_t")
    1487                      .dwattr $C$DW$T$32, DW_AT_type(*$C$DW$T$31)
    1488                      .dwattr $C$DW$T$32, DW_AT_language(DW_LANG_C)
    1489              $C$DW$149       .dwtag  DW_TAG_TI_far_type
    1490              $C$DW$T$45      .dwtag  DW_TAG_const_type
    1491                      .dwattr $C$DW$T$45, DW_AT_type(*$C$DW$149)
    1492              $C$DW$T$46      .dwtag  DW_TAG_pointer_type
    1493                      .dwattr $C$DW$T$46, DW_AT_type(*$C$DW$T$45)
    1494                      .dwattr $C$DW$T$46, DW_AT_address_class(0x17)
    1495              $C$DW$150       .dwtag  DW_TAG_TI_far_type
    1496                      .dwattr $C$DW$150, DW_AT_type(*$C$DW$T$46)
    1497              $C$DW$T$47      .dwtag  DW_TAG_const_type
    1498                      .dwattr $C$DW$T$47, DW_AT_type(*$C$DW$150)
    1499              $C$DW$T$4       .dwtag  DW_TAG_base_type
    1500                      .dwattr $C$DW$T$4, DW_AT_encoding(DW_ATE_boolean)
    1501                      .dwattr $C$DW$T$4, DW_AT_name("bool")
    1502                      .dwattr $C$DW$T$4, DW_AT_byte_size(0x01)
    1503              $C$DW$T$5       .dwtag  DW_TAG_base_type
    1504                      .dwattr $C$DW$T$5, DW_AT_encoding(DW_ATE_signed_char)
    1505                      .dwattr $C$DW$T$5, DW_AT_name("signed char")
    1506                      .dwattr $C$DW$T$5, DW_AT_byte_size(0x01)
    1507              $C$DW$T$6       .dwtag  DW_TAG_base_type
    1508                      .dwattr $C$DW$T$6, DW_AT_encoding(DW_ATE_unsigned_char)
    1509                      .dwattr $C$DW$T$6, DW_AT_name("unsigned char")
    1510                      .dwattr $C$DW$T$6, DW_AT_byte_size(0x01)
    1511              $C$DW$T$25      .dwtag  DW_TAG_typedef, DW_AT_name("uint8_t")
    1512                      .dwattr $C$DW$T$25, DW_AT_type(*$C$DW$T$6)
    1513                      .dwattr $C$DW$T$25, DW_AT_language(DW_LANG_C)
    1514              $C$DW$151       .dwtag  DW_TAG_TI_far_type
    1515                      .dwattr $C$DW$151, DW_AT_type(*$C$DW$T$25)
    1516              $C$DW$T$26      .dwtag  DW_TAG_const_type
TMS320C55x Assembler PC v4.4.1 Tue Sep 18 04:49:42 2018

Tools Copyright (c) 1996-2012 Texas Instruments Incorporated
dynamic.asm                                                          PAGE   34

    1517                      .dwattr $C$DW$T$26, DW_AT_type(*$C$DW$151)
    1518              $C$DW$T$7       .dwtag  DW_TAG_base_type
    1519                      .dwattr $C$DW$T$7, DW_AT_encoding(DW_ATE_signed_char)
    1520                      .dwattr $C$DW$T$7, DW_AT_name("wchar_t")
    1521                      .dwattr $C$DW$T$7, DW_AT_byte_size(0x01)
    1522              $C$DW$T$8       .dwtag  DW_TAG_base_type
    1523                      .dwattr $C$DW$T$8, DW_AT_encoding(DW_ATE_signed)
    1524                      .dwattr $C$DW$T$8, DW_AT_name("short")
    1525                      .dwattr $C$DW$T$8, DW_AT_byte_size(0x01)
    1526              $C$DW$T$53      .dwtag  DW_TAG_typedef, DW_AT_name("BaseType_t")
    1527                      .dwattr $C$DW$T$53, DW_AT_type(*$C$DW$T$8)
    1528                      .dwattr $C$DW$T$53, DW_AT_language(DW_LANG_C)
    1529              $C$DW$152       .dwtag  DW_TAG_TI_far_type
    1530                      .dwattr $C$DW$152, DW_AT_type(*$C$DW$T$53)
    1531              $C$DW$T$54      .dwtag  DW_TAG_const_type
    1532                      .dwattr $C$DW$T$54, DW_AT_type(*$C$DW$152)
    1533              $C$DW$153       .dwtag  DW_TAG_TI_far_type
    1534                      .dwattr $C$DW$153, DW_AT_type(*$C$DW$T$53)
    1535              $C$DW$T$55      .dwtag  DW_TAG_volatile_type
    1536                      .dwattr $C$DW$T$55, DW_AT_type(*$C$DW$153)
    1537              $C$DW$T$9       .dwtag  DW_TAG_base_type
    1538                      .dwattr $C$DW$T$9, DW_AT_encoding(DW_ATE_unsigned)
    1539                      .dwattr $C$DW$T$9, DW_AT_name("unsigned short")
    1540                      .dwattr $C$DW$T$9, DW_AT_byte_size(0x01)
    1541              $C$DW$T$23      .dwtag  DW_TAG_typedef, DW_AT_name("UBaseType_t")
    1542                      .dwattr $C$DW$T$23, DW_AT_type(*$C$DW$T$9)
    1543                      .dwattr $C$DW$T$23, DW_AT_language(DW_LANG_C)
    1544              $C$DW$154       .dwtag  DW_TAG_TI_far_type
    1545                      .dwattr $C$DW$154, DW_AT_type(*$C$DW$T$23)
    1546              $C$DW$T$24      .dwtag  DW_TAG_const_type
    1547                      .dwattr $C$DW$T$24, DW_AT_type(*$C$DW$154)
    1548              $C$DW$T$10      .dwtag  DW_TAG_base_type
    1549                      .dwattr $C$DW$T$10, DW_AT_encoding(DW_ATE_signed)
    1550                      .dwattr $C$DW$T$10, DW_AT_name("int")
    1551                      .dwattr $C$DW$T$10, DW_AT_byte_size(0x01)
    1552              $C$DW$T$11      .dwtag  DW_TAG_base_type
    1553                      .dwattr $C$DW$T$11, DW_AT_encoding(DW_ATE_unsigned)
    1554                      .dwattr $C$DW$T$11, DW_AT_name("unsigned int")
    1555                      .dwattr $C$DW$T$11, DW_AT_byte_size(0x01)
    1556              $C$DW$155       .dwtag  DW_TAG_TI_far_type
    1557                      .dwattr $C$DW$155, DW_AT_type(*$C$DW$T$11)
    1558              $C$DW$T$72      .dwtag  DW_TAG_volatile_type
    1559                      .dwattr $C$DW$T$72, DW_AT_type(*$C$DW$155)
    1560              $C$DW$T$57      .dwtag  DW_TAG_typedef, DW_AT_name("uint16_t")
    1561                      .dwattr $C$DW$T$57, DW_AT_type(*$C$DW$T$11)
    1562                      .dwattr $C$DW$T$57, DW_AT_language(DW_LANG_C)
    1563              $C$DW$156       .dwtag  DW_TAG_TI_far_type
    1564                      .dwattr $C$DW$156, DW_AT_type(*$C$DW$T$57)
    1565              $C$DW$T$58      .dwtag  DW_TAG_const_type
    1566                      .dwattr $C$DW$T$58, DW_AT_type(*$C$DW$156)
    1567              $C$DW$157       .dwtag  DW_TAG_TI_far_type
    1568                      .dwattr $C$DW$157, DW_AT_type(*$C$DW$T$57)
    1569              $C$DW$T$73      .dwtag  DW_TAG_volatile_type
    1570                      .dwattr $C$DW$T$73, DW_AT_type(*$C$DW$157)
    1571              $C$DW$T$12      .dwtag  DW_TAG_base_type
TMS320C55x Assembler PC v4.4.1 Tue Sep 18 04:49:42 2018

Tools Copyright (c) 1996-2012 Texas Instruments Incorporated
dynamic.asm                                                          PAGE   35

    1572                      .dwattr $C$DW$T$12, DW_AT_encoding(DW_ATE_signed)
    1573                      .dwattr $C$DW$T$12, DW_AT_name("long")
    1574                      .dwattr $C$DW$T$12, DW_AT_byte_size(0x02)
    1575              $C$DW$T$13      .dwtag  DW_TAG_base_type
    1576                      .dwattr $C$DW$T$13, DW_AT_encoding(DW_ATE_unsigned)
    1577                      .dwattr $C$DW$T$13, DW_AT_name("unsigned long")
    1578                      .dwattr $C$DW$T$13, DW_AT_byte_size(0x02)
    1579              $C$DW$T$33      .dwtag  DW_TAG_typedef, DW_AT_name("TickType_t")
    1580                      .dwattr $C$DW$T$33, DW_AT_type(*$C$DW$T$13)
    1581                      .dwattr $C$DW$T$33, DW_AT_language(DW_LANG_C)
    1582              $C$DW$158       .dwtag  DW_TAG_TI_far_type
    1583                      .dwattr $C$DW$158, DW_AT_type(*$C$DW$T$33)
    1584              $C$DW$T$34      .dwtag  DW_TAG_const_type
    1585                      .dwattr $C$DW$T$34, DW_AT_type(*$C$DW$158)
    1586              $C$DW$T$74      .dwtag  DW_TAG_typedef, DW_AT_name("uint32_t")
    1587                      .dwattr $C$DW$T$74, DW_AT_type(*$C$DW$T$13)
    1588                      .dwattr $C$DW$T$74, DW_AT_language(DW_LANG_C)
    1589              $C$DW$159       .dwtag  DW_TAG_TI_far_type
    1590                      .dwattr $C$DW$159, DW_AT_type(*$C$DW$T$74)
    1591              $C$DW$T$76      .dwtag  DW_TAG_volatile_type
    1592                      .dwattr $C$DW$T$76, DW_AT_type(*$C$DW$159)
    1593              $C$DW$T$77      .dwtag  DW_TAG_pointer_type
    1594                      .dwattr $C$DW$T$77, DW_AT_type(*$C$DW$T$76)
    1595                      .dwattr $C$DW$T$77, DW_AT_address_class(0x17)
    1596              $C$DW$T$14      .dwtag  DW_TAG_base_type
    1597                      .dwattr $C$DW$T$14, DW_AT_encoding(DW_ATE_signed)
    1598                      .dwattr $C$DW$T$14, DW_AT_name("long long")
    1599                      .dwattr $C$DW$T$14, DW_AT_byte_size(0x04)
    1600                      .dwattr $C$DW$T$14, DW_AT_bit_size(0x28)
    1601                      .dwattr $C$DW$T$14, DW_AT_bit_offset(0x18)
    1602              $C$DW$T$15      .dwtag  DW_TAG_base_type
    1603                      .dwattr $C$DW$T$15, DW_AT_encoding(DW_ATE_unsigned)
    1604                      .dwattr $C$DW$T$15, DW_AT_name("unsigned long long")
    1605                      .dwattr $C$DW$T$15, DW_AT_byte_size(0x04)
    1606                      .dwattr $C$DW$T$15, DW_AT_bit_size(0x28)
    1607                      .dwattr $C$DW$T$15, DW_AT_bit_offset(0x18)
    1608              $C$DW$T$16      .dwtag  DW_TAG_base_type
    1609                      .dwattr $C$DW$T$16, DW_AT_encoding(DW_ATE_float)
    1610                      .dwattr $C$DW$T$16, DW_AT_name("float")
    1611                      .dwattr $C$DW$T$16, DW_AT_byte_size(0x02)
    1612              $C$DW$T$17      .dwtag  DW_TAG_base_type
    1613                      .dwattr $C$DW$T$17, DW_AT_encoding(DW_ATE_float)
    1614                      .dwattr $C$DW$T$17, DW_AT_name("double")
    1615                      .dwattr $C$DW$T$17, DW_AT_byte_size(0x02)
    1616              $C$DW$T$18      .dwtag  DW_TAG_base_type
    1617                      .dwattr $C$DW$T$18, DW_AT_encoding(DW_ATE_float)
    1618                      .dwattr $C$DW$T$18, DW_AT_name("long double")
    1619                      .dwattr $C$DW$T$18, DW_AT_byte_size(0x02)
    1620              $C$DW$T$48      .dwtag  DW_TAG_base_type
    1621                      .dwattr $C$DW$T$48, DW_AT_encoding(DW_ATE_signed_char)
    1622                      .dwattr $C$DW$T$48, DW_AT_name("signed char")
    1623                      .dwattr $C$DW$T$48, DW_AT_byte_size(0x01)
    1624              $C$DW$160       .dwtag  DW_TAG_TI_far_type
    1625                      .dwattr $C$DW$160, DW_AT_type(*$C$DW$T$48)
    1626              $C$DW$T$49      .dwtag  DW_TAG_const_type
TMS320C55x Assembler PC v4.4.1 Tue Sep 18 04:49:42 2018

Tools Copyright (c) 1996-2012 Texas Instruments Incorporated
dynamic.asm                                                          PAGE   36

    1627                      .dwattr $C$DW$T$49, DW_AT_type(*$C$DW$160)
    1628              $C$DW$T$50      .dwtag  DW_TAG_pointer_type
    1629                      .dwattr $C$DW$T$50, DW_AT_type(*$C$DW$T$49)
    1630                      .dwattr $C$DW$T$50, DW_AT_address_class(0x17)
    1631              $C$DW$161       .dwtag  DW_TAG_TI_far_type
    1632                      .dwattr $C$DW$161, DW_AT_type(*$C$DW$T$50)
    1633              $C$DW$T$56      .dwtag  DW_TAG_const_type
    1634                      .dwattr $C$DW$T$56, DW_AT_type(*$C$DW$161)
    1635              
    1636              $C$DW$T$20      .dwtag  DW_TAG_structure_type
    1637                      .dwattr $C$DW$T$20, DW_AT_name("tskTaskControlBlock")
    1638                      .dwattr $C$DW$T$20, DW_AT_declaration
    1639                      .dwendtag $C$DW$T$20
    1640              
    1641              $C$DW$T$37      .dwtag  DW_TAG_pointer_type
    1642                      .dwattr $C$DW$T$37, DW_AT_type(*$C$DW$T$20)
    1643                      .dwattr $C$DW$T$37, DW_AT_address_class(0x17)
    1644              $C$DW$T$38      .dwtag  DW_TAG_typedef, DW_AT_name("TaskHandle_t")
    1645                      .dwattr $C$DW$T$38, DW_AT_type(*$C$DW$T$37)
    1646                      .dwattr $C$DW$T$38, DW_AT_language(DW_LANG_C)
    1647              $C$DW$162       .dwtag  DW_TAG_TI_far_type
    1648                      .dwattr $C$DW$162, DW_AT_type(*$C$DW$T$38)
    1649              $C$DW$T$69      .dwtag  DW_TAG_const_type
    1650                      .dwattr $C$DW$T$69, DW_AT_type(*$C$DW$162)
    1651              $C$DW$T$59      .dwtag  DW_TAG_pointer_type
    1652                      .dwattr $C$DW$T$59, DW_AT_type(*$C$DW$T$38)
    1653                      .dwattr $C$DW$T$59, DW_AT_address_class(0x17)
    1654              $C$DW$163       .dwtag  DW_TAG_TI_far_type
    1655                      .dwattr $C$DW$163, DW_AT_type(*$C$DW$T$59)
    1656              $C$DW$T$60      .dwtag  DW_TAG_const_type
    1657                      .dwattr $C$DW$T$60, DW_AT_type(*$C$DW$163)
    1658                      .dwattr $C$DW$CU, DW_AT_language(DW_LANG_C)
    1659              
    1660              ;***************************************************************
    1661              ;* DWARF CIE ENTRIES                                           *
    1662              ;***************************************************************
    1663              
    1664              $C$DW$CIE       .dwcie 91
    1665                      .dwcfi  cfa_register, 36
    1666                      .dwcfi  cfa_offset, 0
    1667                      .dwcfi  undefined, 0
    1668                      .dwcfi  undefined, 1
    1669                      .dwcfi  undefined, 2
    1670                      .dwcfi  undefined, 3
    1671                      .dwcfi  undefined, 4
    1672                      .dwcfi  undefined, 5
    1673                      .dwcfi  undefined, 6
    1674                      .dwcfi  undefined, 7
    1675                      .dwcfi  undefined, 8
    1676                      .dwcfi  undefined, 9
    1677                      .dwcfi  undefined, 10
    1678                      .dwcfi  undefined, 11
    1679                      .dwcfi  undefined, 12
    1680                      .dwcfi  undefined, 13
    1681                      .dwcfi  same_value, 14
TMS320C55x Assembler PC v4.4.1 Tue Sep 18 04:49:42 2018

Tools Copyright (c) 1996-2012 Texas Instruments Incorporated
dynamic.asm                                                          PAGE   37

    1682                      .dwcfi  same_value, 15
    1683                      .dwcfi  undefined, 16
    1684                      .dwcfi  undefined, 17
    1685                      .dwcfi  undefined, 18
    1686                      .dwcfi  undefined, 19
    1687                      .dwcfi  undefined, 20
    1688                      .dwcfi  undefined, 21
    1689                      .dwcfi  undefined, 22
    1690                      .dwcfi  undefined, 23
    1691                      .dwcfi  undefined, 24
    1692                      .dwcfi  undefined, 25
    1693                      .dwcfi  same_value, 26
    1694                      .dwcfi  same_value, 27
    1695                      .dwcfi  same_value, 28
    1696                      .dwcfi  same_value, 29
    1697                      .dwcfi  same_value, 30
    1698                      .dwcfi  same_value, 31
    1699                      .dwcfi  undefined, 32
    1700                      .dwcfi  undefined, 33
    1701                      .dwcfi  undefined, 34
    1702                      .dwcfi  undefined, 35
    1703                      .dwcfi  undefined, 36
    1704                      .dwcfi  undefined, 37
    1705                      .dwcfi  undefined, 38
    1706                      .dwcfi  undefined, 39
    1707                      .dwcfi  undefined, 40
    1708                      .dwcfi  undefined, 41
    1709                      .dwcfi  undefined, 42
    1710                      .dwcfi  undefined, 43
    1711                      .dwcfi  undefined, 44
    1712                      .dwcfi  undefined, 45
    1713                      .dwcfi  undefined, 46
    1714                      .dwcfi  undefined, 47
    1715                      .dwcfi  undefined, 48
    1716                      .dwcfi  undefined, 49
    1717                      .dwcfi  undefined, 50
    1718                      .dwcfi  undefined, 51
    1719                      .dwcfi  undefined, 52
    1720                      .dwcfi  undefined, 53
    1721                      .dwcfi  undefined, 54
    1722                      .dwcfi  undefined, 55
    1723                      .dwcfi  undefined, 56
    1724                      .dwcfi  undefined, 57
    1725                      .dwcfi  undefined, 58
    1726                      .dwcfi  undefined, 59
    1727                      .dwcfi  undefined, 60
    1728                      .dwcfi  undefined, 61
    1729                      .dwcfi  undefined, 62
    1730                      .dwcfi  undefined, 63
    1731                      .dwcfi  undefined, 64
    1732                      .dwcfi  undefined, 65
    1733                      .dwcfi  undefined, 66
    1734                      .dwcfi  undefined, 67
    1735                      .dwcfi  undefined, 68
    1736                      .dwcfi  undefined, 69
TMS320C55x Assembler PC v4.4.1 Tue Sep 18 04:49:42 2018

Tools Copyright (c) 1996-2012 Texas Instruments Incorporated
dynamic.asm                                                          PAGE   38

    1737                      .dwcfi  undefined, 70
    1738                      .dwcfi  undefined, 71
    1739                      .dwcfi  undefined, 72
    1740                      .dwcfi  undefined, 73
    1741                      .dwcfi  undefined, 74
    1742                      .dwcfi  undefined, 75
    1743                      .dwcfi  undefined, 76
    1744                      .dwcfi  undefined, 77
    1745                      .dwcfi  undefined, 78
    1746                      .dwcfi  undefined, 79
    1747                      .dwcfi  undefined, 80
    1748                      .dwcfi  undefined, 81
    1749                      .dwcfi  undefined, 82
    1750                      .dwcfi  undefined, 83
    1751                      .dwcfi  undefined, 84
    1752                      .dwcfi  undefined, 85
    1753                      .dwcfi  undefined, 86
    1754                      .dwcfi  undefined, 87
    1755                      .dwcfi  undefined, 88
    1756                      .dwcfi  undefined, 89
    1757                      .dwcfi  undefined, 90
    1758                      .dwcfi  undefined, 91
    1759                      .dwendentry
    1760              
    1761              ;***************************************************************
    1762              ;* DWARF REGISTER MAP                                          *
    1763              ;***************************************************************
    1764              
    1765              $C$DW$164       .dwtag  DW_TAG_TI_assign_register, DW_AT_name("AC0")
    1766                      .dwattr $C$DW$164, DW_AT_location[DW_OP_reg0]
    1767              $C$DW$165       .dwtag  DW_TAG_TI_assign_register, DW_AT_name("AC0")
    1768                      .dwattr $C$DW$165, DW_AT_location[DW_OP_reg1]
    1769              $C$DW$166       .dwtag  DW_TAG_TI_assign_register, DW_AT_name("AC0_G")
    1770                      .dwattr $C$DW$166, DW_AT_location[DW_OP_reg2]
    1771              $C$DW$167       .dwtag  DW_TAG_TI_assign_register, DW_AT_name("AC1")
    1772                      .dwattr $C$DW$167, DW_AT_location[DW_OP_reg3]
    1773              $C$DW$168       .dwtag  DW_TAG_TI_assign_register, DW_AT_name("AC1")
    1774                      .dwattr $C$DW$168, DW_AT_location[DW_OP_reg4]
    1775              $C$DW$169       .dwtag  DW_TAG_TI_assign_register, DW_AT_name("AC1_G")
    1776                      .dwattr $C$DW$169, DW_AT_location[DW_OP_reg5]
    1777              $C$DW$170       .dwtag  DW_TAG_TI_assign_register, DW_AT_name("AC2")
    1778                      .dwattr $C$DW$170, DW_AT_location[DW_OP_reg6]
    1779              $C$DW$171       .dwtag  DW_TAG_TI_assign_register, DW_AT_name("AC2")
    1780                      .dwattr $C$DW$171, DW_AT_location[DW_OP_reg7]
    1781              $C$DW$172       .dwtag  DW_TAG_TI_assign_register, DW_AT_name("AC2_G")
    1782                      .dwattr $C$DW$172, DW_AT_location[DW_OP_reg8]
    1783              $C$DW$173       .dwtag  DW_TAG_TI_assign_register, DW_AT_name("AC3")
    1784                      .dwattr $C$DW$173, DW_AT_location[DW_OP_reg9]
    1785              $C$DW$174       .dwtag  DW_TAG_TI_assign_register, DW_AT_name("AC3")
    1786                      .dwattr $C$DW$174, DW_AT_location[DW_OP_reg10]
    1787              $C$DW$175       .dwtag  DW_TAG_TI_assign_register, DW_AT_name("AC3_G")
    1788                      .dwattr $C$DW$175, DW_AT_location[DW_OP_reg11]
    1789              $C$DW$176       .dwtag  DW_TAG_TI_assign_register, DW_AT_name("T0")
    1790                      .dwattr $C$DW$176, DW_AT_location[DW_OP_reg12]
    1791              $C$DW$177       .dwtag  DW_TAG_TI_assign_register, DW_AT_name("T1")
TMS320C55x Assembler PC v4.4.1 Tue Sep 18 04:49:42 2018

Tools Copyright (c) 1996-2012 Texas Instruments Incorporated
dynamic.asm                                                          PAGE   39

    1792                      .dwattr $C$DW$177, DW_AT_location[DW_OP_reg13]
    1793              $C$DW$178       .dwtag  DW_TAG_TI_assign_register, DW_AT_name("T2")
    1794                      .dwattr $C$DW$178, DW_AT_location[DW_OP_reg14]
    1795              $C$DW$179       .dwtag  DW_TAG_TI_assign_register, DW_AT_name("T3")
    1796                      .dwattr $C$DW$179, DW_AT_location[DW_OP_reg15]
    1797              $C$DW$180       .dwtag  DW_TAG_TI_assign_register, DW_AT_name("AR0")
    1798                      .dwattr $C$DW$180, DW_AT_location[DW_OP_reg16]
    1799              $C$DW$181       .dwtag  DW_TAG_TI_assign_register, DW_AT_name("XAR0")
    1800                      .dwattr $C$DW$181, DW_AT_location[DW_OP_reg17]
    1801              $C$DW$182       .dwtag  DW_TAG_TI_assign_register, DW_AT_name("AR1")
    1802                      .dwattr $C$DW$182, DW_AT_location[DW_OP_reg18]
    1803              $C$DW$183       .dwtag  DW_TAG_TI_assign_register, DW_AT_name("XAR1")
    1804                      .dwattr $C$DW$183, DW_AT_location[DW_OP_reg19]
    1805              $C$DW$184       .dwtag  DW_TAG_TI_assign_register, DW_AT_name("AR2")
    1806                      .dwattr $C$DW$184, DW_AT_location[DW_OP_reg20]
    1807              $C$DW$185       .dwtag  DW_TAG_TI_assign_register, DW_AT_name("XAR2")
    1808                      .dwattr $C$DW$185, DW_AT_location[DW_OP_reg21]
    1809              $C$DW$186       .dwtag  DW_TAG_TI_assign_register, DW_AT_name("AR3")
    1810                      .dwattr $C$DW$186, DW_AT_location[DW_OP_reg22]
    1811              $C$DW$187       .dwtag  DW_TAG_TI_assign_register, DW_AT_name("XAR3")
    1812                      .dwattr $C$DW$187, DW_AT_location[DW_OP_reg23]
    1813              $C$DW$188       .dwtag  DW_TAG_TI_assign_register, DW_AT_name("AR4")
    1814                      .dwattr $C$DW$188, DW_AT_location[DW_OP_reg24]
    1815              $C$DW$189       .dwtag  DW_TAG_TI_assign_register, DW_AT_name("XAR4")
    1816                      .dwattr $C$DW$189, DW_AT_location[DW_OP_reg25]
    1817              $C$DW$190       .dwtag  DW_TAG_TI_assign_register, DW_AT_name("AR5")
    1818                      .dwattr $C$DW$190, DW_AT_location[DW_OP_reg26]
    1819              $C$DW$191       .dwtag  DW_TAG_TI_assign_register, DW_AT_name("XAR5")
    1820                      .dwattr $C$DW$191, DW_AT_location[DW_OP_reg27]
    1821              $C$DW$192       .dwtag  DW_TAG_TI_assign_register, DW_AT_name("AR6")
    1822                      .dwattr $C$DW$192, DW_AT_location[DW_OP_reg28]
    1823              $C$DW$193       .dwtag  DW_TAG_TI_assign_register, DW_AT_name("XAR6")
    1824                      .dwattr $C$DW$193, DW_AT_location[DW_OP_reg29]
    1825              $C$DW$194       .dwtag  DW_TAG_TI_assign_register, DW_AT_name("AR7")
    1826                      .dwattr $C$DW$194, DW_AT_location[DW_OP_reg30]
    1827              $C$DW$195       .dwtag  DW_TAG_TI_assign_register, DW_AT_name("XAR7")
    1828                      .dwattr $C$DW$195, DW_AT_location[DW_OP_reg31]
    1829              $C$DW$196       .dwtag  DW_TAG_TI_assign_register, DW_AT_name("FP")
    1830                      .dwattr $C$DW$196, DW_AT_location[DW_OP_regx 0x20]
    1831              $C$DW$197       .dwtag  DW_TAG_TI_assign_register, DW_AT_name("XFP")
    1832                      .dwattr $C$DW$197, DW_AT_location[DW_OP_regx 0x21]
    1833              $C$DW$198       .dwtag  DW_TAG_TI_assign_register, DW_AT_name("PC")
    1834                      .dwattr $C$DW$198, DW_AT_location[DW_OP_regx 0x22]
    1835              $C$DW$199       .dwtag  DW_TAG_TI_assign_register, DW_AT_name("SP")
    1836                      .dwattr $C$DW$199, DW_AT_location[DW_OP_regx 0x23]
    1837              $C$DW$200       .dwtag  DW_TAG_TI_assign_register, DW_AT_name("XSP")
    1838                      .dwattr $C$DW$200, DW_AT_location[DW_OP_regx 0x24]
    1839              $C$DW$201       .dwtag  DW_TAG_TI_assign_register, DW_AT_name("BKC")
    1840                      .dwattr $C$DW$201, DW_AT_location[DW_OP_regx 0x25]
    1841              $C$DW$202       .dwtag  DW_TAG_TI_assign_register, DW_AT_name("BK03")
    1842                      .dwattr $C$DW$202, DW_AT_location[DW_OP_regx 0x26]
    1843              $C$DW$203       .dwtag  DW_TAG_TI_assign_register, DW_AT_name("BK47")
    1844                      .dwattr $C$DW$203, DW_AT_location[DW_OP_regx 0x27]
    1845              $C$DW$204       .dwtag  DW_TAG_TI_assign_register, DW_AT_name("ST0")
    1846                      .dwattr $C$DW$204, DW_AT_location[DW_OP_regx 0x28]
TMS320C55x Assembler PC v4.4.1 Tue Sep 18 04:49:42 2018

Tools Copyright (c) 1996-2012 Texas Instruments Incorporated
dynamic.asm                                                          PAGE   40

    1847              $C$DW$205       .dwtag  DW_TAG_TI_assign_register, DW_AT_name("ST1")
    1848                      .dwattr $C$DW$205, DW_AT_location[DW_OP_regx 0x29]
    1849              $C$DW$206       .dwtag  DW_TAG_TI_assign_register, DW_AT_name("ST2")
    1850                      .dwattr $C$DW$206, DW_AT_location[DW_OP_regx 0x2a]
    1851              $C$DW$207       .dwtag  DW_TAG_TI_assign_register, DW_AT_name("ST3")
    1852                      .dwattr $C$DW$207, DW_AT_location[DW_OP_regx 0x2b]
    1853              $C$DW$208       .dwtag  DW_TAG_TI_assign_register, DW_AT_name("MDP")
    1854                      .dwattr $C$DW$208, DW_AT_location[DW_OP_regx 0x2c]
    1855              $C$DW$209       .dwtag  DW_TAG_TI_assign_register, DW_AT_name("MDP05")
    1856                      .dwattr $C$DW$209, DW_AT_location[DW_OP_regx 0x2d]
    1857              $C$DW$210       .dwtag  DW_TAG_TI_assign_register, DW_AT_name("MDP67")
    1858                      .dwattr $C$DW$210, DW_AT_location[DW_OP_regx 0x2e]
    1859              $C$DW$211       .dwtag  DW_TAG_TI_assign_register, DW_AT_name("BRC0")
    1860                      .dwattr $C$DW$211, DW_AT_location[DW_OP_regx 0x2f]
    1861              $C$DW$212       .dwtag  DW_TAG_TI_assign_register, DW_AT_name("RSA0")
    1862                      .dwattr $C$DW$212, DW_AT_location[DW_OP_regx 0x30]
    1863              $C$DW$213       .dwtag  DW_TAG_TI_assign_register, DW_AT_name("RSA0_H")
    1864                      .dwattr $C$DW$213, DW_AT_location[DW_OP_regx 0x31]
    1865              $C$DW$214       .dwtag  DW_TAG_TI_assign_register, DW_AT_name("REA0")
    1866                      .dwattr $C$DW$214, DW_AT_location[DW_OP_regx 0x32]
    1867              $C$DW$215       .dwtag  DW_TAG_TI_assign_register, DW_AT_name("REA0_H")
    1868                      .dwattr $C$DW$215, DW_AT_location[DW_OP_regx 0x33]
    1869              $C$DW$216       .dwtag  DW_TAG_TI_assign_register, DW_AT_name("BRS1")
    1870                      .dwattr $C$DW$216, DW_AT_location[DW_OP_regx 0x34]
    1871              $C$DW$217       .dwtag  DW_TAG_TI_assign_register, DW_AT_name("BRC1")
    1872                      .dwattr $C$DW$217, DW_AT_location[DW_OP_regx 0x35]
    1873              $C$DW$218       .dwtag  DW_TAG_TI_assign_register, DW_AT_name("RSA1")
    1874                      .dwattr $C$DW$218, DW_AT_location[DW_OP_regx 0x36]
    1875              $C$DW$219       .dwtag  DW_TAG_TI_assign_register, DW_AT_name("RSA1_H")
    1876                      .dwattr $C$DW$219, DW_AT_location[DW_OP_regx 0x37]
    1877              $C$DW$220       .dwtag  DW_TAG_TI_assign_register, DW_AT_name("REA1")
    1878                      .dwattr $C$DW$220, DW_AT_location[DW_OP_regx 0x38]
    1879              $C$DW$221       .dwtag  DW_TAG_TI_assign_register, DW_AT_name("REA1_H")
    1880                      .dwattr $C$DW$221, DW_AT_location[DW_OP_regx 0x39]
    1881              $C$DW$222       .dwtag  DW_TAG_TI_assign_register, DW_AT_name("CSR")
    1882                      .dwattr $C$DW$222, DW_AT_location[DW_OP_regx 0x3a]
    1883              $C$DW$223       .dwtag  DW_TAG_TI_assign_register, DW_AT_name("RPTC")
    1884                      .dwattr $C$DW$223, DW_AT_location[DW_OP_regx 0x3b]
    1885              $C$DW$224       .dwtag  DW_TAG_TI_assign_register, DW_AT_name("CDP")
    1886                      .dwattr $C$DW$224, DW_AT_location[DW_OP_regx 0x3c]
    1887              $C$DW$225       .dwtag  DW_TAG_TI_assign_register, DW_AT_name("XCDP")
    1888                      .dwattr $C$DW$225, DW_AT_location[DW_OP_regx 0x3d]
    1889              $C$DW$226       .dwtag  DW_TAG_TI_assign_register, DW_AT_name("TRN0")
    1890                      .dwattr $C$DW$226, DW_AT_location[DW_OP_regx 0x3e]
    1891              $C$DW$227       .dwtag  DW_TAG_TI_assign_register, DW_AT_name("TRN1")
    1892                      .dwattr $C$DW$227, DW_AT_location[DW_OP_regx 0x3f]
    1893              $C$DW$228       .dwtag  DW_TAG_TI_assign_register, DW_AT_name("BSA01")
    1894                      .dwattr $C$DW$228, DW_AT_location[DW_OP_regx 0x40]
    1895              $C$DW$229       .dwtag  DW_TAG_TI_assign_register, DW_AT_name("BSA23")
    1896                      .dwattr $C$DW$229, DW_AT_location[DW_OP_regx 0x41]
    1897              $C$DW$230       .dwtag  DW_TAG_TI_assign_register, DW_AT_name("BSA45")
    1898                      .dwattr $C$DW$230, DW_AT_location[DW_OP_regx 0x42]
    1899              $C$DW$231       .dwtag  DW_TAG_TI_assign_register, DW_AT_name("BSA67")
    1900                      .dwattr $C$DW$231, DW_AT_location[DW_OP_regx 0x43]
    1901              $C$DW$232       .dwtag  DW_TAG_TI_assign_register, DW_AT_name("BSAC")
TMS320C55x Assembler PC v4.4.1 Tue Sep 18 04:49:42 2018

Tools Copyright (c) 1996-2012 Texas Instruments Incorporated
dynamic.asm                                                          PAGE   41

    1902                      .dwattr $C$DW$232, DW_AT_location[DW_OP_regx 0x44]
    1903              $C$DW$233       .dwtag  DW_TAG_TI_assign_register, DW_AT_name("CARRY")
    1904                      .dwattr $C$DW$233, DW_AT_location[DW_OP_regx 0x45]
    1905              $C$DW$234       .dwtag  DW_TAG_TI_assign_register, DW_AT_name("TC1")
    1906                      .dwattr $C$DW$234, DW_AT_location[DW_OP_regx 0x46]
    1907              $C$DW$235       .dwtag  DW_TAG_TI_assign_register, DW_AT_name("TC2")
    1908                      .dwattr $C$DW$235, DW_AT_location[DW_OP_regx 0x47]
    1909              $C$DW$236       .dwtag  DW_TAG_TI_assign_register, DW_AT_name("M40")
    1910                      .dwattr $C$DW$236, DW_AT_location[DW_OP_regx 0x48]
    1911              $C$DW$237       .dwtag  DW_TAG_TI_assign_register, DW_AT_name("SXMD")
    1912                      .dwattr $C$DW$237, DW_AT_location[DW_OP_regx 0x49]
    1913              $C$DW$238       .dwtag  DW_TAG_TI_assign_register, DW_AT_name("ARMS")
    1914                      .dwattr $C$DW$238, DW_AT_location[DW_OP_regx 0x4a]
    1915              $C$DW$239       .dwtag  DW_TAG_TI_assign_register, DW_AT_name("C54CM")
    1916                      .dwattr $C$DW$239, DW_AT_location[DW_OP_regx 0x4b]
    1917              $C$DW$240       .dwtag  DW_TAG_TI_assign_register, DW_AT_name("SATA")
    1918                      .dwattr $C$DW$240, DW_AT_location[DW_OP_regx 0x4c]
    1919              $C$DW$241       .dwtag  DW_TAG_TI_assign_register, DW_AT_name("SATD")
    1920                      .dwattr $C$DW$241, DW_AT_location[DW_OP_regx 0x4d]
    1921              $C$DW$242       .dwtag  DW_TAG_TI_assign_register, DW_AT_name("RDM")
    1922                      .dwattr $C$DW$242, DW_AT_location[DW_OP_regx 0x4e]
    1923              $C$DW$243       .dwtag  DW_TAG_TI_assign_register, DW_AT_name("FRCT")
    1924                      .dwattr $C$DW$243, DW_AT_location[DW_OP_regx 0x4f]
    1925              $C$DW$244       .dwtag  DW_TAG_TI_assign_register, DW_AT_name("SMUL")
    1926                      .dwattr $C$DW$244, DW_AT_location[DW_OP_regx 0x50]
    1927              $C$DW$245       .dwtag  DW_TAG_TI_assign_register, DW_AT_name("INTM")
    1928                      .dwattr $C$DW$245, DW_AT_location[DW_OP_regx 0x51]
    1929              $C$DW$246       .dwtag  DW_TAG_TI_assign_register, DW_AT_name("AR0LC")
    1930                      .dwattr $C$DW$246, DW_AT_location[DW_OP_regx 0x52]
    1931              $C$DW$247       .dwtag  DW_TAG_TI_assign_register, DW_AT_name("AR1LC")
    1932                      .dwattr $C$DW$247, DW_AT_location[DW_OP_regx 0x53]
    1933              $C$DW$248       .dwtag  DW_TAG_TI_assign_register, DW_AT_name("AR2LC")
    1934                      .dwattr $C$DW$248, DW_AT_location[DW_OP_regx 0x54]
    1935              $C$DW$249       .dwtag  DW_TAG_TI_assign_register, DW_AT_name("AR3LC")
    1936                      .dwattr $C$DW$249, DW_AT_location[DW_OP_regx 0x55]
    1937              $C$DW$250       .dwtag  DW_TAG_TI_assign_register, DW_AT_name("AR4LC")
    1938                      .dwattr $C$DW$250, DW_AT_location[DW_OP_regx 0x56]
    1939              $C$DW$251       .dwtag  DW_TAG_TI_assign_register, DW_AT_name("AR5LC")
    1940                      .dwattr $C$DW$251, DW_AT_location[DW_OP_regx 0x57]
    1941              $C$DW$252       .dwtag  DW_TAG_TI_assign_register, DW_AT_name("AR6LC")
    1942                      .dwattr $C$DW$252, DW_AT_location[DW_OP_regx 0x58]
    1943              $C$DW$253       .dwtag  DW_TAG_TI_assign_register, DW_AT_name("AR7LC")
    1944                      .dwattr $C$DW$253, DW_AT_location[DW_OP_regx 0x59]
    1945              $C$DW$254       .dwtag  DW_TAG_TI_assign_register, DW_AT_name("CDPLC")
    1946                      .dwattr $C$DW$254, DW_AT_location[DW_OP_regx 0x5a]
    1947              $C$DW$255       .dwtag  DW_TAG_TI_assign_register, DW_AT_name("CIE_RETA")
    1948                      .dwattr $C$DW$255, DW_AT_location[DW_OP_regx 0x5b]
    1949                      .dwendtag $C$DW$CU
    1950              
    1950              
    1950              

No Assembly Errors, No Assembly Warnings
