TMS320C55x Assembler PC v4.4.1 Thu Sep 20 01:43:04 2018

Tools Copyright (c) 1996-2012 Texas Instruments Incorporated
flop.asm                                                             PAGE    1

    1837              ; Temporary Registers Used: None
       1              ;*******************************************************************************
       2              ;* TMS320C55x C/C++ Codegen                                          PC v4.4.1 *
       3              ;* Date/Time created: Thu Sep 20 01:43:03 2018                                 *
       4              ;*******************************************************************************
       5                      .compiler_opts --hll_source=on --mem_model:code=flat --mem_model:data=large --object_format=coff --si
       6                      .mmregs
       7                      .cpl_on
       8                      .arms_on
       9                      .c54cm_off
      10                      .asg AR6, FP
      11                      .asg XAR6, XFP
      12                      .asg DPH, MDP
      13                      .model call=c55_std
      14                      .model mem=large
      15                      .noremark 5002  ; code respects overwrite rules
      16              ;*******************************************************************************
      17              ;* GLOBAL FILE PARAMETERS                                                      *
      18              ;*                                                                             *
      19              ;*   Architecture       : TMS320C55x                                           *
      20              ;*   Optimizing for     : Speed                                                *
      21              ;*   Memory             : Large Model (23-Bit Data Pointers)                   *
      22              ;*   Calls              : Normal Library ASM calls                             *
      23              ;*   Debug Info         : Standard TI Debug Information                        *
      24              ;*******************************************************************************
      25              
      26              $C$DW$CU        .dwtag  DW_TAG_compile_unit
      27                      .dwattr $C$DW$CU, DW_AT_name("../FreeRTOS/Demo/Common/Minimal/flop.c")
      28                      .dwattr $C$DW$CU, DW_AT_producer("TMS320C55x C/C++ Codegen PC v4.4.1 Copyright (c) 1996-2012 Texas In
      29                      .dwattr $C$DW$CU, DW_AT_TI_version(0x01)
      30                      .dwattr $C$DW$CU, DW_AT_comp_dir("F:\eZdsp_DBG\eZDSP_5535_Files\ccsws2\test\Debug")
      31              ;******************************************************************************
      32              ;* CINIT RECORDS                                                              *
      33              ;******************************************************************************
      34 000000               .sect   ".cinit"
      35                      .align  1
      36 000000 0001          .field          $C$IR_1,16
      37 000001 0000-         .field          _usTaskCheck+0,24
         000002 0000 
      38 000002 0000          .field          0,8
      39 000003 0000          .field  0,16                    ; _usTaskCheck[0] @ 0
      40              $C$IR_1:        .set    1
      41              
      42              
      43              $C$DW$1 .dwtag  DW_TAG_subprogram, DW_AT_name("fabs")
      44                      .dwattr $C$DW$1, DW_AT_TI_symbol_name("_fabs")
      45                      .dwattr $C$DW$1, DW_AT_type(*$C$DW$T$17)
      46                      .dwattr $C$DW$1, DW_AT_declaration
      47                      .dwattr $C$DW$1, DW_AT_external
      48              $C$DW$2 .dwtag  DW_TAG_formal_parameter
      49                      .dwattr $C$DW$2, DW_AT_type(*$C$DW$T$17)
      50                      .dwendtag $C$DW$1
      51              
      52              
      53              $C$DW$3 .dwtag  DW_TAG_subprogram, DW_AT_name("pvPortMalloc")
TMS320C55x Assembler PC v4.4.1 Thu Sep 20 01:43:04 2018

Tools Copyright (c) 1996-2012 Texas Instruments Incorporated
flop.asm                                                             PAGE    2

      54                      .dwattr $C$DW$3, DW_AT_TI_symbol_name("_pvPortMalloc")
      55                      .dwattr $C$DW$3, DW_AT_type(*$C$DW$T$3)
      56                      .dwattr $C$DW$3, DW_AT_declaration
      57                      .dwattr $C$DW$3, DW_AT_external
      58              $C$DW$4 .dwtag  DW_TAG_formal_parameter
      59                      .dwattr $C$DW$4, DW_AT_type(*$C$DW$T$20)
      60                      .dwendtag $C$DW$3
      61              
      62              
      63              $C$DW$5 .dwtag  DW_TAG_subprogram, DW_AT_name("xTaskCreate")
      64                      .dwattr $C$DW$5, DW_AT_TI_symbol_name("_xTaskCreate")
      65                      .dwattr $C$DW$5, DW_AT_type(*$C$DW$T$29)
      66                      .dwattr $C$DW$5, DW_AT_declaration
      67                      .dwattr $C$DW$5, DW_AT_external
      68              $C$DW$6 .dwtag  DW_TAG_formal_parameter
      69                      .dwattr $C$DW$6, DW_AT_type(*$C$DW$T$26)
      70              $C$DW$7 .dwtag  DW_TAG_formal_parameter
      71                      .dwattr $C$DW$7, DW_AT_type(*$C$DW$T$33)
      72              $C$DW$8 .dwtag  DW_TAG_formal_parameter
      73                      .dwattr $C$DW$8, DW_AT_type(*$C$DW$T$35)
      74              $C$DW$9 .dwtag  DW_TAG_formal_parameter
      75                      .dwattr $C$DW$9, DW_AT_type(*$C$DW$T$23)
      76              $C$DW$10        .dwtag  DW_TAG_formal_parameter
      77                      .dwattr $C$DW$10, DW_AT_type(*$C$DW$T$27)
      78              $C$DW$11        .dwtag  DW_TAG_formal_parameter
      79                      .dwattr $C$DW$11, DW_AT_type(*$C$DW$T$39)
      80                      .dwendtag $C$DW$5
      81              
      82 000000               .bss    _usTaskCheck,4,0,0
      83              $C$DW$12        .dwtag  DW_TAG_variable, DW_AT_name("usTaskCheck")
      84                      .dwattr $C$DW$12, DW_AT_TI_symbol_name("_usTaskCheck")
      85                      .dwattr $C$DW$12, DW_AT_type(*$C$DW$T$44)
      86                      .dwattr $C$DW$12, DW_AT_location[DW_OP_addr _usTaskCheck]
      87              ;       F:\ti\ccs8p1\ccsv8\tools\compiler\alt-install-ti-cgt-c55x_4.4.1\bin\acp55.exe -@f:\\AppData\\Local\\T
      88 000000               .sect   ".text"
      89                      .align 4
      90                      .global _vStartMathTasks
      91              
      92              $C$DW$13        .dwtag  DW_TAG_subprogram, DW_AT_name("vStartMathTasks")
      93                      .dwattr $C$DW$13, DW_AT_low_pc(_vStartMathTasks)
      94                      .dwattr $C$DW$13, DW_AT_high_pc(0x00)
      95                      .dwattr $C$DW$13, DW_AT_TI_symbol_name("_vStartMathTasks")
      96                      .dwattr $C$DW$13, DW_AT_external
      97                      .dwattr $C$DW$13, DW_AT_TI_begin_file("../FreeRTOS/Demo/Common/Minimal/flop.c")
      98                      .dwattr $C$DW$13, DW_AT_TI_begin_line(0x47)
      99                      .dwattr $C$DW$13, DW_AT_TI_begin_column(0x06)
     100                      .dwattr $C$DW$13, DW_AT_TI_max_frame_size(0x02)
     101                      .dwpsn  file "../FreeRTOS/Demo/Common/Minimal/flop.c",line 72,column 1,is_stmt,address _vStartMathTas
     102              
     103                      .dwfde $C$DW$CIE, _vStartMathTasks
     104              $C$DW$14        .dwtag  DW_TAG_formal_parameter, DW_AT_name("uxPriority")
     105                      .dwattr $C$DW$14, DW_AT_TI_symbol_name("_uxPriority")
     106                      .dwattr $C$DW$14, DW_AT_type(*$C$DW$T$27)
     107                      .dwattr $C$DW$14, DW_AT_location[DW_OP_reg12]
     108              ;*******************************************************************************
TMS320C55x Assembler PC v4.4.1 Thu Sep 20 01:43:04 2018

Tools Copyright (c) 1996-2012 Texas Instruments Incorporated
flop.asm                                                             PAGE    3

     109              ;* FUNCTION NAME: vStartMathTasks                                              *
     110              ;*                                                                             *
     111              ;*   Function Uses Regs : AC0,AC0,T0,T1,AR0,XAR0,AR1,XAR1,AR2,XAR2,SP,M40,SATA,*
     112              ;*                        SATD,RDM,FRCT,SMUL                                   *
     113              ;*   Stack Frame        : Compact (No Frame Pointer, w/ debug)                 *
     114              ;*   Total Frame Size   : 2 words                                              *
     115              ;*                        (1 return address/alignment)                         *
     116              ;*                        (1 local values)                                     *
     117              ;*   Min System Stack   : 1 word                                               *
     118              ;*******************************************************************************
     119 000000       _vStartMathTasks:
     120                      .dwcfi  cfa_offset, 1
     121                      .dwcfi  save_reg_to_mem, 91, -1
     122 000000 4EFF          AADD #-1, SP
     123                      .dwcfi  cfa_offset, 2
     124              $C$DW$15        .dwtag  DW_TAG_variable, DW_AT_name("uxPriority")
     125                      .dwattr $C$DW$15, DW_AT_TI_symbol_name("_uxPriority")
     126                      .dwattr $C$DW$15, DW_AT_type(*$C$DW$T$27)
     127                      .dwattr $C$DW$15, DW_AT_location[DW_OP_bregx 0x24 0]
     128 000002 C400          MOV T0, *SP(#0) ; |72| 
     129                      .dwpsn  file "../FreeRTOS/Demo/Common/Minimal/flop.c",line 73,column 2,is_stmt
     130 000004 7A00          MOV #(_vCompetingMathTask1 >> 16) << #16, AC0 ; |73| 
         000006 000A%
     131 000008 EC31          AMOV #0, XAR2 ; |73| 
         00000a AE00 
         00000c 0000 
     132 00000e EC31          AMOV #_usTaskCheck, XAR1 ; |73| 
         000010 9E00 
         000012 0000-
     133 000014 EC31          AMOV #$C$FSL1, XAR0 ; |73| 
         000016 8E00 
         000018 0000+
     134 00001a 7600          MOV #128, T0 ; |73| 
         00001c 8048 
     135 00001e A500          MOV *SP(#0), T1 ; |73| 
     136 000020 7E00          OR #(_vCompetingMathTask1 & 0xffff), AC0, AC0 ; |73| 
         000022 0000%
     137              $C$DW$16        .dwtag  DW_TAG_TI_branch
     138                      .dwattr $C$DW$16, DW_AT_low_pc(0x00)
     139                      .dwattr $C$DW$16, DW_AT_name("_xTaskCreate")
     140                      .dwattr $C$DW$16, DW_AT_TI_call
     141 000024 6C00          CALL #_xTaskCreate ; |73| 
         000026 0000!
     142                                                      ; call occurs [#_xTaskCreate] ; |73| 
     143                      .dwpsn  file "../FreeRTOS/Demo/Common/Minimal/flop.c",line 74,column 2,is_stmt
     144 000028 7600          MOV #128, T0 ; |74| 
         00002a 8048 
     145 00002c EC31          AMOV #0, XAR2 ; |74| 
         00002e AE00 
         000030 0000 
     146 000032 EC31          AMOV #(_usTaskCheck+1), XAR1 ; |74| 
         000034 9E00 
         000036 0001-
     147 000038 EC31          AMOV #$C$FSL2, XAR0 ; |74| 
         00003a 8E00 
TMS320C55x Assembler PC v4.4.1 Thu Sep 20 01:43:04 2018

Tools Copyright (c) 1996-2012 Texas Instruments Incorporated
flop.asm                                                             PAGE    4

         00003c 0006+
     148 00003e A500          MOV *SP(#0), T1 ; |74| 
     149 000040 7A00          MOV #(_vCompetingMathTask2 >> 16) << #16, AC0 ; |74| 
         000042 000A%
     150 000044 7E00          OR #(_vCompetingMathTask2 & 0xffff), AC0, AC0 ; |74| 
         000046 0000%
     151              $C$DW$17        .dwtag  DW_TAG_TI_branch
     152                      .dwattr $C$DW$17, DW_AT_low_pc(0x00)
     153                      .dwattr $C$DW$17, DW_AT_name("_xTaskCreate")
     154                      .dwattr $C$DW$17, DW_AT_TI_call
     155 000048 6C00          CALL #_xTaskCreate ; |74| 
         00004a 0000!
     156                                                      ; call occurs [#_xTaskCreate] ; |74| 
     157                      .dwpsn  file "../FreeRTOS/Demo/Common/Minimal/flop.c",line 75,column 2,is_stmt
     158 00004c 7600          MOV #128, T0 ; |75| 
         00004e 8048 
     159 000050 EC31          AMOV #0, XAR2 ; |75| 
         000052 AE00 
         000054 0000 
     160 000056 EC31          AMOV #(_usTaskCheck+2), XAR1 ; |75| 
         000058 9E00 
         00005a 0002-
     161 00005c EC31          AMOV #$C$FSL3, XAR0 ; |75| 
         00005e 8E00 
         000060 000C+
     162 000062 A500          MOV *SP(#0), T1 ; |75| 
     163 000064 7A00          MOV #(_vCompetingMathTask3 >> 16) << #16, AC0 ; |75| 
         000066 000A%
     164 000068 7E00          OR #(_vCompetingMathTask3 & 0xffff), AC0, AC0 ; |75| 
         00006a 0000%
     165              $C$DW$18        .dwtag  DW_TAG_TI_branch
     166                      .dwattr $C$DW$18, DW_AT_low_pc(0x00)
     167                      .dwattr $C$DW$18, DW_AT_name("_xTaskCreate")
     168                      .dwattr $C$DW$18, DW_AT_TI_call
     169 00006c 6C00          CALL #_xTaskCreate ; |75| 
         00006e 0000!
     170                                                      ; call occurs [#_xTaskCreate] ; |75| 
     171                      .dwpsn  file "../FreeRTOS/Demo/Common/Minimal/flop.c",line 76,column 2,is_stmt
     172 000070 7600          MOV #128, T0 ; |76| 
         000072 8048 
     173 000074 EC31          AMOV #0, XAR2 ; |76| 
         000076 AE00 
         000078 0000 
     174 00007a EC31          AMOV #(_usTaskCheck+3), XAR1 ; |76| 
         00007c 9E00 
         00007e 0003-
     175 000080 EC31          AMOV #$C$FSL4, XAR0 ; |76| 
         000082 8E00 
         000084 0012+
     176 000086 A500          MOV *SP(#0), T1 ; |76| 
     177 000088 7A00          MOV #(_vCompetingMathTask4 >> 16) << #16, AC0 ; |76| 
         00008a 000A%
     178 00008c 7E00          OR #(_vCompetingMathTask4 & 0xffff), AC0, AC0 ; |76| 
         00008e 0000%
     179              $C$DW$19        .dwtag  DW_TAG_TI_branch
TMS320C55x Assembler PC v4.4.1 Thu Sep 20 01:43:04 2018

Tools Copyright (c) 1996-2012 Texas Instruments Incorporated
flop.asm                                                             PAGE    5

     180                      .dwattr $C$DW$19, DW_AT_low_pc(0x00)
     181                      .dwattr $C$DW$19, DW_AT_name("_xTaskCreate")
     182                      .dwattr $C$DW$19, DW_AT_TI_call
     183 000090 6C00          CALL #_xTaskCreate ; |76| 
         000092 0000!
     184                                                      ; call occurs [#_xTaskCreate] ; |76| 
     185                      .dwpsn  file "../FreeRTOS/Demo/Common/Minimal/flop.c",line 77,column 1,is_stmt
     186 000094 4E01          AADD #1, SP
     187                      .dwcfi  cfa_offset, 1
     188              $C$DW$20        .dwtag  DW_TAG_TI_branch
     189                      .dwattr $C$DW$20, DW_AT_low_pc(0x00)
     190                      .dwattr $C$DW$20, DW_AT_TI_return
     191 000096 4804          RET
     192                                                      ; return occurs
     193                      .dwattr $C$DW$13, DW_AT_TI_end_file("../FreeRTOS/Demo/Common/Minimal/flop.c")
     194                      .dwattr $C$DW$13, DW_AT_TI_end_line(0x4d)
     195                      .dwattr $C$DW$13, DW_AT_TI_end_column(0x01)
     196                      .dwendentry
     197                      .dwendtag $C$DW$13
     198              
     199 000098               .sect   ".text"
     200                      .align 4
     201              
     202              $C$DW$21        .dwtag  DW_TAG_subprogram, DW_AT_name("vCompetingMathTask1")
     203                      .dwattr $C$DW$21, DW_AT_low_pc(_vCompetingMathTask1)
     204                      .dwattr $C$DW$21, DW_AT_high_pc(0x00)
     205                      .dwattr $C$DW$21, DW_AT_TI_symbol_name("_vCompetingMathTask1")
     206                      .dwattr $C$DW$21, DW_AT_TI_begin_file("../FreeRTOS/Demo/Common/Minimal/flop.c")
     207                      .dwattr $C$DW$21, DW_AT_TI_begin_line(0x50)
     208                      .dwattr $C$DW$21, DW_AT_TI_begin_column(0x08)
     209                      .dwattr $C$DW$21, DW_AT_TI_max_frame_size(0x10)
     210                      .dwpsn  file "../FreeRTOS/Demo/Common/Minimal/flop.c",line 81,column 1,is_stmt,address _vCompetingMat
     211              
     212                      .dwfde $C$DW$CIE, _vCompetingMathTask1
     213              $C$DW$22        .dwtag  DW_TAG_formal_parameter, DW_AT_name("pvParameters")
     214                      .dwattr $C$DW$22, DW_AT_TI_symbol_name("_pvParameters")
     215                      .dwattr $C$DW$22, DW_AT_type(*$C$DW$T$3)
     216                      .dwattr $C$DW$22, DW_AT_location[DW_OP_reg17]
     217              ;*******************************************************************************
     218              ;* FUNCTION NAME: vCompetingMathTask1                                          *
     219              ;*                                                                             *
     220              ;*   Function Uses Regs : AC0,AC0,AC1,AC1,T0,AR0,XAR0,AR1,AR3,XAR3,SP,CARRY,   *
     221              ;*                        M40,SATA,SATD,RDM,FRCT,SMUL                          *
     222              ;*   Stack Frame        : Compact (No Frame Pointer, w/ debug)                 *
     223              ;*   Total Frame Size   : 16 words                                             *
     224              ;*                        (1 return address/alignment)                         *
     225              ;*                        (15 local values)                                    *
     226              ;*   Min System Stack   : 1 word                                               *
     227              ;*******************************************************************************
     228 000098       _vCompetingMathTask1:
     229                      .dwcfi  cfa_offset, 1
     230                      .dwcfi  save_reg_to_mem, 91, -1
     231 000098 4EF1          AADD #-15, SP
     232                      .dwcfi  cfa_offset, 16
     233              $C$DW$23        .dwtag  DW_TAG_variable, DW_AT_name("pvParameters")
TMS320C55x Assembler PC v4.4.1 Thu Sep 20 01:43:04 2018

Tools Copyright (c) 1996-2012 Texas Instruments Incorporated
flop.asm                                                             PAGE    6

     234                      .dwattr $C$DW$23, DW_AT_TI_symbol_name("_pvParameters")
     235                      .dwattr $C$DW$23, DW_AT_type(*$C$DW$T$3)
     236                      .dwattr $C$DW$23, DW_AT_location[DW_OP_bregx 0x24 0]
     237              $C$DW$24        .dwtag  DW_TAG_variable, DW_AT_name("d1")
     238                      .dwattr $C$DW$24, DW_AT_TI_symbol_name("_d1")
     239                      .dwattr $C$DW$24, DW_AT_type(*$C$DW$T$49)
     240                      .dwattr $C$DW$24, DW_AT_location[DW_OP_bregx 0x24 2]
     241              $C$DW$25        .dwtag  DW_TAG_variable, DW_AT_name("d2")
     242                      .dwattr $C$DW$25, DW_AT_TI_symbol_name("_d2")
     243                      .dwattr $C$DW$25, DW_AT_type(*$C$DW$T$49)
     244                      .dwattr $C$DW$25, DW_AT_location[DW_OP_bregx 0x24 4]
     245              $C$DW$26        .dwtag  DW_TAG_variable, DW_AT_name("d3")
     246                      .dwattr $C$DW$26, DW_AT_TI_symbol_name("_d3")
     247                      .dwattr $C$DW$26, DW_AT_type(*$C$DW$T$49)
     248                      .dwattr $C$DW$26, DW_AT_location[DW_OP_bregx 0x24 6]
     249              $C$DW$27        .dwtag  DW_TAG_variable, DW_AT_name("d4")
     250                      .dwattr $C$DW$27, DW_AT_TI_symbol_name("_d4")
     251                      .dwattr $C$DW$27, DW_AT_type(*$C$DW$T$49)
     252                      .dwattr $C$DW$27, DW_AT_location[DW_OP_bregx 0x24 8]
     253              $C$DW$28        .dwtag  DW_TAG_variable, DW_AT_name("pusTaskCheckVariable")
     254                      .dwattr $C$DW$28, DW_AT_TI_symbol_name("_pusTaskCheckVariable")
     255                      .dwattr $C$DW$28, DW_AT_type(*$C$DW$T$47)
     256                      .dwattr $C$DW$28, DW_AT_location[DW_OP_bregx 0x24 10]
     257              $C$DW$29        .dwtag  DW_TAG_variable, DW_AT_name("dAnswer")
     258                      .dwattr $C$DW$29, DW_AT_TI_symbol_name("_dAnswer")
     259                      .dwattr $C$DW$29, DW_AT_type(*$C$DW$T$49)
     260                      .dwattr $C$DW$29, DW_AT_location[DW_OP_bregx 0x24 12]
     261              $C$DW$30        .dwtag  DW_TAG_variable, DW_AT_name("sError")
     262                      .dwattr $C$DW$30, DW_AT_TI_symbol_name("_sError")
     263                      .dwattr $C$DW$30, DW_AT_type(*$C$DW$T$8)
     264                      .dwattr $C$DW$30, DW_AT_location[DW_OP_bregx 0x24 14]
     265 00009a EB00          MOV XAR0, dbl(*SP(#0))
         00009c 85   
     266                      .dwpsn  file "../FreeRTOS/Demo/Common/Minimal/flop.c",line 85,column 7,is_stmt
     267 00009d E61C          MOV #0, *SP(#14) ; |85| 
         00009f 00   
     268                      .dwpsn  file "../FreeRTOS/Demo/Common/Minimal/flop.c",line 92,column 2,is_stmt
     269 0000a0 ED31          MOV dbl(*($C$FL1)), AC0 ; |92| 
         0000a2 0800 
         0000a4 0000+
     270 0000a6 EB04          MOV AC0, dbl(*SP(#2)) ; |92| 
         0000a8 08   
     271                      .dwpsn  file "../FreeRTOS/Demo/Common/Minimal/flop.c",line 93,column 2,is_stmt
     272 0000a9 ED31          MOV dbl(*($C$FL2)), AC0 ; |93| 
         0000ab 0800 
         0000ad 0002+
     273 0000af EB08          MOV AC0, dbl(*SP(#4)) ; |93| 
         0000b1 08   
     274                      .dwpsn  file "../FreeRTOS/Demo/Common/Minimal/flop.c",line 94,column 2,is_stmt
     275 0000b2 ED31          MOV dbl(*($C$FL3)), AC0 ; |94| 
         0000b4 0800 
         0000b6 0004+
     276 0000b8 EB0C          MOV AC0, dbl(*SP(#6)) ; |94| 
         0000ba 08   
     277 0000bb 20            NOP
TMS320C55x Assembler PC v4.4.1 Thu Sep 20 01:43:04 2018

Tools Copyright (c) 1996-2012 Texas Instruments Incorporated
flop.asm                                                             PAGE    7

     278 0000bc 20            NOP
     279 0000bd 20            NOP
     280                      .dwpsn  file "../FreeRTOS/Demo/Common/Minimal/flop.c",line 96,column 2,is_stmt
     281 0000be ED04          MOV dbl(*SP(#2)), AC0 ; |96| 
         0000c0 08   
     282 0000c1 ED08          MOV dbl(*SP(#4)), AC1 ; |96| 
         0000c3 18   
     283              $C$DW$31        .dwtag  DW_TAG_TI_branch
     284                      .dwattr $C$DW$31, DW_AT_low_pc(0x00)
     285                      .dwattr $C$DW$31, DW_AT_name("__addd")
     286                      .dwattr $C$DW$31, DW_AT_TI_call
     287 0000c4 6C00          CALL #__addd ; |96| 
         0000c6 0000!
     288                                                      ; call occurs [#__addd] ; |96| 
     289 0000c8 ED0C          MOV dbl(*SP(#6)), AC1 ; |96| 
         0000ca 18   
     290              $C$DW$32        .dwtag  DW_TAG_TI_branch
     291                      .dwattr $C$DW$32, DW_AT_low_pc(0x00)
     292                      .dwattr $C$DW$32, DW_AT_name("__mpyd")
     293                      .dwattr $C$DW$32, DW_AT_TI_call
     294 0000cb 6C00          CALL #__mpyd ; |96| 
         0000cd 0000!
     295                                                      ; call occurs [#__mpyd] ; |96| 
     296 0000cf EB18          MOV AC0, dbl(*SP(#12)) ; |96| 
         0000d1 08   
     297                      .dwpsn  file "../FreeRTOS/Demo/Common/Minimal/flop.c",line 100,column 2,is_stmt
     298 0000d2 ED00          MOV dbl(*SP(#0)), XAR3
         0000d4 BF   
     299 0000d5 EB14          MOV XAR3, dbl(*SP(#10))
         0000d7 B5   
     300 0000d8       $C$L1:    
     301 0000d8       $C$DW$L$_vCompetingMathTask1$2$B:
     302                      .dwpsn  file "../FreeRTOS/Demo/Common/Minimal/flop.c",line 105,column 3,is_stmt
     303 0000d8 ED31          MOV dbl(*($C$FL1)), AC0 ; |105| 
         0000da 0800 
         0000dc 0000+
     304 0000de EB04          MOV AC0, dbl(*SP(#2)) ; |105| 
         0000e0 08   
     305                      .dwpsn  file "../FreeRTOS/Demo/Common/Minimal/flop.c",line 106,column 3,is_stmt
     306 0000e1 ED31          MOV dbl(*($C$FL2)), AC0 ; |106| 
         0000e3 0800 
         0000e5 0002+
     307 0000e7 EB08          MOV AC0, dbl(*SP(#4)) ; |106| 
         0000e9 08   
     308                      .dwpsn  file "../FreeRTOS/Demo/Common/Minimal/flop.c",line 107,column 3,is_stmt
     309 0000ea ED31          MOV dbl(*($C$FL3)), AC0 ; |107| 
         0000ec 0800 
         0000ee 0004+
     310 0000f0 EB0C          MOV AC0, dbl(*SP(#6)) ; |107| 
         0000f2 08   
     311 0000f3 20            NOP
     312 0000f4 20            NOP
     313 0000f5 20            NOP
     314                      .dwpsn  file "../FreeRTOS/Demo/Common/Minimal/flop.c",line 109,column 3,is_stmt
     315 0000f6 ED04          MOV dbl(*SP(#2)), AC0 ; |109| 
TMS320C55x Assembler PC v4.4.1 Thu Sep 20 01:43:04 2018

Tools Copyright (c) 1996-2012 Texas Instruments Incorporated
flop.asm                                                             PAGE    8

         0000f8 08   
     316 0000f9 ED08          MOV dbl(*SP(#4)), AC1 ; |109| 
         0000fb 18   
     317              $C$DW$33        .dwtag  DW_TAG_TI_branch
     318                      .dwattr $C$DW$33, DW_AT_low_pc(0x00)
     319                      .dwattr $C$DW$33, DW_AT_name("__addd")
     320                      .dwattr $C$DW$33, DW_AT_TI_call
     321 0000fc 6C00          CALL #__addd ; |109| 
         0000fe 0000!
     322                                                      ; call occurs [#__addd] ; |109| 
     323 000100 ED0C          MOV dbl(*SP(#6)), AC1 ; |109| 
         000102 18   
     324              $C$DW$34        .dwtag  DW_TAG_TI_branch
     325                      .dwattr $C$DW$34, DW_AT_low_pc(0x00)
     326                      .dwattr $C$DW$34, DW_AT_name("__mpyd")
     327                      .dwattr $C$DW$34, DW_AT_TI_call
     328 000103 6C00          CALL #__mpyd ; |109| 
         000105 0000!
     329                                                      ; call occurs [#__mpyd] ; |109| 
     330 000107 EB10          MOV AC0, dbl(*SP(#8)) ; |109| 
         000109 08   
     331 00010a 20            NOP
     332 00010b 20            NOP
     333 00010c 20            NOP
     334                      .dwpsn  file "../FreeRTOS/Demo/Common/Minimal/flop.c",line 117,column 3,is_stmt
     335 00010d ED10          MOV dbl(*SP(#8)), AC0 ; |117| 
         00010f 08   
     336 000110 ED18          MOV dbl(*SP(#12)), AC1 ; |117| 
         000112 18   
     337              $C$DW$35        .dwtag  DW_TAG_TI_branch
     338                      .dwattr $C$DW$35, DW_AT_low_pc(0x00)
     339                      .dwattr $C$DW$35, DW_AT_name("__subd")
     340                      .dwattr $C$DW$35, DW_AT_TI_call
     341 000113 6C00          CALL #__subd ; |117| 
         000115 0000!
     342                                                      ; call occurs [#__subd] ; |117| 
     343 000117 ED31          MOV dbl(*($C$FL4)), AC1 ; |117| 
         000119 1800 
         00011b 0006+
     344 00011d 5000          SFTL AC0, #1, AC0 ; |117| 
     345              $C$DW$36        .dwtag  DW_TAG_TI_branch
     346                      .dwattr $C$DW$36, DW_AT_low_pc(0x00)
     347                      .dwattr $C$DW$36, DW_AT_name("__cmpd")
     348                      .dwattr $C$DW$36, DW_AT_TI_call
     349              
     350 00011f 6C00          CALL #__cmpd ; |117| 
         000121 0000!
     351 000123 5101  ||      SFTL AC0, #-1 ; |117| 
     352              
     353                                                      ; call occurs [#__cmpd] ; |117| 
     354 000125 61B4          BCC $C$L2,T0 <= #0 ; |117| 
     355                                                      ; branchcc occurs ; |117| 
     356 000127       $C$DW$L$_vCompetingMathTask1$2$E:
     357 000127       $C$DW$L$_vCompetingMathTask1$3$B:
     358                      .dwpsn  file "../FreeRTOS/Demo/Common/Minimal/flop.c",line 119,column 4,is_stmt
TMS320C55x Assembler PC v4.4.1 Thu Sep 20 01:43:04 2018

Tools Copyright (c) 1996-2012 Texas Instruments Incorporated
flop.asm                                                             PAGE    9

     359 000127 E61C          MOV #1, *SP(#14) ; |119| 
         000129 01   
     360 00012a       $C$DW$L$_vCompetingMathTask1$3$E:
     361 00012a       $C$L2:    
     362 00012a       $C$DW$L$_vCompetingMathTask1$4$B:
     363                      .dwpsn  file "../FreeRTOS/Demo/Common/Minimal/flop.c",line 122,column 3,is_stmt
     364 00012a A91C          MOV *SP(#14), AR1 ; |122| 
     365 00012c 0419          BCC $C$L1,AR1 != #0 ; |122| 
         00012e A9   
     366                                                      ; branchcc occurs ; |122| 
     367 00012f       $C$DW$L$_vCompetingMathTask1$4$E:
     368 00012f       $C$DW$L$_vCompetingMathTask1$5$B:
     369                      .dwpsn  file "../FreeRTOS/Demo/Common/Minimal/flop.c",line 127,column 4,is_stmt
     370 00012f ED14          MOV dbl(*SP(#10)), XAR3
         000131 BF   
     371 000132 E661          MOV #1, *AR3 ; |127| 
         000134 01   
     372                      .dwpsn  file "../FreeRTOS/Demo/Common/Minimal/flop.c",line 134,column 2,is_stmt
     373 000135 06FF          B $C$L1   ; |134| 
         000137 A0   
     374                                                      ; branch occurs ; |134| 
     375 000138       $C$DW$L$_vCompetingMathTask1$5$E:
     376                      .dwcfi  cfa_offset, 1
     377              
     378              $C$DW$37        .dwtag  DW_TAG_TI_loop
     379                      .dwattr $C$DW$37, DW_AT_name("F:\eZdsp_DBG\eZDSP_5535_Files\ccsws2\test\Debug\flop.asm:$C$L1:1:153743
     380                      .dwattr $C$DW$37, DW_AT_TI_begin_file("../FreeRTOS/Demo/Common/Minimal/flop.c")
     381                      .dwattr $C$DW$37, DW_AT_TI_begin_line(0x67)
     382                      .dwattr $C$DW$37, DW_AT_TI_end_line(0x86)
     383              $C$DW$38        .dwtag  DW_TAG_TI_loop_range
     384                      .dwattr $C$DW$38, DW_AT_low_pc($C$DW$L$_vCompetingMathTask1$2$B)
     385                      .dwattr $C$DW$38, DW_AT_high_pc($C$DW$L$_vCompetingMathTask1$2$E)
     386              $C$DW$39        .dwtag  DW_TAG_TI_loop_range
     387                      .dwattr $C$DW$39, DW_AT_low_pc($C$DW$L$_vCompetingMathTask1$3$B)
     388                      .dwattr $C$DW$39, DW_AT_high_pc($C$DW$L$_vCompetingMathTask1$3$E)
     389              $C$DW$40        .dwtag  DW_TAG_TI_loop_range
     390                      .dwattr $C$DW$40, DW_AT_low_pc($C$DW$L$_vCompetingMathTask1$5$B)
     391                      .dwattr $C$DW$40, DW_AT_high_pc($C$DW$L$_vCompetingMathTask1$5$E)
     392              $C$DW$41        .dwtag  DW_TAG_TI_loop_range
     393                      .dwattr $C$DW$41, DW_AT_low_pc($C$DW$L$_vCompetingMathTask1$4$B)
     394                      .dwattr $C$DW$41, DW_AT_high_pc($C$DW$L$_vCompetingMathTask1$4$E)
     395                      .dwendtag $C$DW$37
     396              
     397                      .dwattr $C$DW$21, DW_AT_TI_end_file("../FreeRTOS/Demo/Common/Minimal/flop.c")
     398                      .dwattr $C$DW$21, DW_AT_TI_end_line(0x87)
     399                      .dwattr $C$DW$21, DW_AT_TI_end_column(0x01)
     400                      .dwendentry
     401                      .dwendtag $C$DW$21
     402              
     403 000138               .sect   ".text"
     404                      .align 4
     405              
     406              $C$DW$42        .dwtag  DW_TAG_subprogram, DW_AT_name("vCompetingMathTask2")
     407                      .dwattr $C$DW$42, DW_AT_low_pc(_vCompetingMathTask2)
     408                      .dwattr $C$DW$42, DW_AT_high_pc(0x00)
TMS320C55x Assembler PC v4.4.1 Thu Sep 20 01:43:04 2018

Tools Copyright (c) 1996-2012 Texas Instruments Incorporated
flop.asm                                                             PAGE   10

     409                      .dwattr $C$DW$42, DW_AT_TI_symbol_name("_vCompetingMathTask2")
     410                      .dwattr $C$DW$42, DW_AT_TI_begin_file("../FreeRTOS/Demo/Common/Minimal/flop.c")
     411                      .dwattr $C$DW$42, DW_AT_TI_begin_line(0x8a)
     412                      .dwattr $C$DW$42, DW_AT_TI_begin_column(0x08)
     413                      .dwattr $C$DW$42, DW_AT_TI_max_frame_size(0x10)
     414                      .dwpsn  file "../FreeRTOS/Demo/Common/Minimal/flop.c",line 139,column 1,is_stmt,address _vCompetingMa
     415              
     416                      .dwfde $C$DW$CIE, _vCompetingMathTask2
     417              $C$DW$43        .dwtag  DW_TAG_formal_parameter, DW_AT_name("pvParameters")
     418                      .dwattr $C$DW$43, DW_AT_TI_symbol_name("_pvParameters")
     419                      .dwattr $C$DW$43, DW_AT_type(*$C$DW$T$3)
     420                      .dwattr $C$DW$43, DW_AT_location[DW_OP_reg17]
     421              ;*******************************************************************************
     422              ;* FUNCTION NAME: vCompetingMathTask2                                          *
     423              ;*                                                                             *
     424              ;*   Function Uses Regs : AC0,AC0,AC1,AC1,T0,AR0,XAR0,AR1,AR3,XAR3,SP,CARRY,   *
     425              ;*                        M40,SATA,SATD,RDM,FRCT,SMUL                          *
     426              ;*   Stack Frame        : Compact (No Frame Pointer, w/ debug)                 *
     427              ;*   Total Frame Size   : 16 words                                             *
     428              ;*                        (1 return address/alignment)                         *
     429              ;*                        (15 local values)                                    *
     430              ;*   Min System Stack   : 1 word                                               *
     431              ;*******************************************************************************
     432 000138       _vCompetingMathTask2:
     433                      .dwcfi  cfa_offset, 1
     434                      .dwcfi  save_reg_to_mem, 91, -1
     435 000138 4EF1          AADD #-15, SP
     436                      .dwcfi  cfa_offset, 16
     437              $C$DW$44        .dwtag  DW_TAG_variable, DW_AT_name("pvParameters")
     438                      .dwattr $C$DW$44, DW_AT_TI_symbol_name("_pvParameters")
     439                      .dwattr $C$DW$44, DW_AT_type(*$C$DW$T$3)
     440                      .dwattr $C$DW$44, DW_AT_location[DW_OP_bregx 0x24 0]
     441              $C$DW$45        .dwtag  DW_TAG_variable, DW_AT_name("d1")
     442                      .dwattr $C$DW$45, DW_AT_TI_symbol_name("_d1")
     443                      .dwattr $C$DW$45, DW_AT_type(*$C$DW$T$49)
     444                      .dwattr $C$DW$45, DW_AT_location[DW_OP_bregx 0x24 2]
     445              $C$DW$46        .dwtag  DW_TAG_variable, DW_AT_name("d2")
     446                      .dwattr $C$DW$46, DW_AT_TI_symbol_name("_d2")
     447                      .dwattr $C$DW$46, DW_AT_type(*$C$DW$T$49)
     448                      .dwattr $C$DW$46, DW_AT_location[DW_OP_bregx 0x24 4]
     449              $C$DW$47        .dwtag  DW_TAG_variable, DW_AT_name("d3")
     450                      .dwattr $C$DW$47, DW_AT_TI_symbol_name("_d3")
     451                      .dwattr $C$DW$47, DW_AT_type(*$C$DW$T$49)
     452                      .dwattr $C$DW$47, DW_AT_location[DW_OP_bregx 0x24 6]
     453              $C$DW$48        .dwtag  DW_TAG_variable, DW_AT_name("d4")
     454                      .dwattr $C$DW$48, DW_AT_TI_symbol_name("_d4")
     455                      .dwattr $C$DW$48, DW_AT_type(*$C$DW$T$49)
     456                      .dwattr $C$DW$48, DW_AT_location[DW_OP_bregx 0x24 8]
     457              $C$DW$49        .dwtag  DW_TAG_variable, DW_AT_name("pusTaskCheckVariable")
     458                      .dwattr $C$DW$49, DW_AT_TI_symbol_name("_pusTaskCheckVariable")
     459                      .dwattr $C$DW$49, DW_AT_type(*$C$DW$T$47)
     460                      .dwattr $C$DW$49, DW_AT_location[DW_OP_bregx 0x24 10]
     461              $C$DW$50        .dwtag  DW_TAG_variable, DW_AT_name("dAnswer")
     462                      .dwattr $C$DW$50, DW_AT_TI_symbol_name("_dAnswer")
     463                      .dwattr $C$DW$50, DW_AT_type(*$C$DW$T$49)
TMS320C55x Assembler PC v4.4.1 Thu Sep 20 01:43:04 2018

Tools Copyright (c) 1996-2012 Texas Instruments Incorporated
flop.asm                                                             PAGE   11

     464                      .dwattr $C$DW$50, DW_AT_location[DW_OP_bregx 0x24 12]
     465              $C$DW$51        .dwtag  DW_TAG_variable, DW_AT_name("sError")
     466                      .dwattr $C$DW$51, DW_AT_TI_symbol_name("_sError")
     467                      .dwattr $C$DW$51, DW_AT_type(*$C$DW$T$8)
     468                      .dwattr $C$DW$51, DW_AT_location[DW_OP_bregx 0x24 14]
     469 00013a EB00          MOV XAR0, dbl(*SP(#0))
         00013c 85   
     470                      .dwpsn  file "../FreeRTOS/Demo/Common/Minimal/flop.c",line 143,column 7,is_stmt
     471 00013d E61C          MOV #0, *SP(#14) ; |143| 
         00013f 00   
     472                      .dwpsn  file "../FreeRTOS/Demo/Common/Minimal/flop.c",line 150,column 2,is_stmt
     473 000140 ED31          MOV dbl(*($C$FL5)), AC0 ; |150| 
         000142 0800 
         000144 0008+
     474 000146 EB04          MOV AC0, dbl(*SP(#2)) ; |150| 
         000148 08   
     475                      .dwpsn  file "../FreeRTOS/Demo/Common/Minimal/flop.c",line 151,column 2,is_stmt
     476 000149 ED31          MOV dbl(*($C$FL6)), AC0 ; |151| 
         00014b 0800 
         00014d 000A+
     477 00014f EB08          MOV AC0, dbl(*SP(#4)) ; |151| 
         000151 08   
     478                      .dwpsn  file "../FreeRTOS/Demo/Common/Minimal/flop.c",line 152,column 2,is_stmt
     479 000152 ED31          MOV dbl(*($C$FL7)), AC0 ; |152| 
         000154 0800 
         000156 000C+
     480 000158 EB0C          MOV AC0, dbl(*SP(#6)) ; |152| 
         00015a 08   
     481 00015b 20            NOP
     482 00015c 20            NOP
     483 00015d 20            NOP
     484                      .dwpsn  file "../FreeRTOS/Demo/Common/Minimal/flop.c",line 154,column 2,is_stmt
     485 00015e ED04          MOV dbl(*SP(#2)), AC0 ; |154| 
         000160 08   
     486 000161 ED08          MOV dbl(*SP(#4)), AC1 ; |154| 
         000163 18   
     487              $C$DW$52        .dwtag  DW_TAG_TI_branch
     488                      .dwattr $C$DW$52, DW_AT_low_pc(0x00)
     489                      .dwattr $C$DW$52, DW_AT_name("__divd")
     490                      .dwattr $C$DW$52, DW_AT_TI_call
     491 000164 6C00          CALL #__divd ; |154| 
         000166 0000!
     492                                                      ; call occurs [#__divd] ; |154| 
     493 000168 ED0C          MOV dbl(*SP(#6)), AC1 ; |154| 
         00016a 18   
     494              $C$DW$53        .dwtag  DW_TAG_TI_branch
     495                      .dwattr $C$DW$53, DW_AT_low_pc(0x00)
     496                      .dwattr $C$DW$53, DW_AT_name("__mpyd")
     497                      .dwattr $C$DW$53, DW_AT_TI_call
     498 00016b 6C00          CALL #__mpyd ; |154| 
         00016d 0000!
     499                                                      ; call occurs [#__mpyd] ; |154| 
     500 00016f EB18          MOV AC0, dbl(*SP(#12)) ; |154| 
         000171 08   
     501                      .dwpsn  file "../FreeRTOS/Demo/Common/Minimal/flop.c",line 159,column 2,is_stmt
TMS320C55x Assembler PC v4.4.1 Thu Sep 20 01:43:04 2018

Tools Copyright (c) 1996-2012 Texas Instruments Incorporated
flop.asm                                                             PAGE   12

     502 000172 ED00          MOV dbl(*SP(#0)), XAR3
         000174 BF   
     503 000175 EB14          MOV XAR3, dbl(*SP(#10))
         000177 B5   
     504 000178       $C$L3:    
     505 000178       $C$DW$L$_vCompetingMathTask2$2$B:
     506                      .dwpsn  file "../FreeRTOS/Demo/Common/Minimal/flop.c",line 164,column 3,is_stmt
     507 000178 ED31          MOV dbl(*($C$FL5)), AC0 ; |164| 
         00017a 0800 
         00017c 0008+
     508 00017e EB04          MOV AC0, dbl(*SP(#2)) ; |164| 
         000180 08   
     509                      .dwpsn  file "../FreeRTOS/Demo/Common/Minimal/flop.c",line 165,column 3,is_stmt
     510 000181 ED31          MOV dbl(*($C$FL6)), AC0 ; |165| 
         000183 0800 
         000185 000A+
     511 000187 EB08          MOV AC0, dbl(*SP(#4)) ; |165| 
         000189 08   
     512                      .dwpsn  file "../FreeRTOS/Demo/Common/Minimal/flop.c",line 166,column 3,is_stmt
     513 00018a ED31          MOV dbl(*($C$FL7)), AC0 ; |166| 
         00018c 0800 
         00018e 000C+
     514 000190 EB0C          MOV AC0, dbl(*SP(#6)) ; |166| 
         000192 08   
     515 000193 20            NOP
     516 000194 20            NOP
     517 000195 20            NOP
     518                      .dwpsn  file "../FreeRTOS/Demo/Common/Minimal/flop.c",line 168,column 3,is_stmt
     519 000196 ED04          MOV dbl(*SP(#2)), AC0 ; |168| 
         000198 08   
     520 000199 ED08          MOV dbl(*SP(#4)), AC1 ; |168| 
         00019b 18   
     521              $C$DW$54        .dwtag  DW_TAG_TI_branch
     522                      .dwattr $C$DW$54, DW_AT_low_pc(0x00)
     523                      .dwattr $C$DW$54, DW_AT_name("__divd")
     524                      .dwattr $C$DW$54, DW_AT_TI_call
     525 00019c 6C00          CALL #__divd ; |168| 
         00019e 0000!
     526                                                      ; call occurs [#__divd] ; |168| 
     527 0001a0 ED0C          MOV dbl(*SP(#6)), AC1 ; |168| 
         0001a2 18   
     528              $C$DW$55        .dwtag  DW_TAG_TI_branch
     529                      .dwattr $C$DW$55, DW_AT_low_pc(0x00)
     530                      .dwattr $C$DW$55, DW_AT_name("__mpyd")
     531                      .dwattr $C$DW$55, DW_AT_TI_call
     532 0001a3 6C00          CALL #__mpyd ; |168| 
         0001a5 0000!
     533                                                      ; call occurs [#__mpyd] ; |168| 
     534 0001a7 EB10          MOV AC0, dbl(*SP(#8)) ; |168| 
         0001a9 08   
     535 0001aa 20            NOP
     536 0001ab 20            NOP
     537 0001ac 20            NOP
     538                      .dwpsn  file "../FreeRTOS/Demo/Common/Minimal/flop.c",line 176,column 3,is_stmt
     539 0001ad ED10          MOV dbl(*SP(#8)), AC0 ; |176| 
TMS320C55x Assembler PC v4.4.1 Thu Sep 20 01:43:04 2018

Tools Copyright (c) 1996-2012 Texas Instruments Incorporated
flop.asm                                                             PAGE   13

         0001af 08   
     540 0001b0 ED18          MOV dbl(*SP(#12)), AC1 ; |176| 
         0001b2 18   
     541              $C$DW$56        .dwtag  DW_TAG_TI_branch
     542                      .dwattr $C$DW$56, DW_AT_low_pc(0x00)
     543                      .dwattr $C$DW$56, DW_AT_name("__subd")
     544                      .dwattr $C$DW$56, DW_AT_TI_call
     545 0001b3 6C00          CALL #__subd ; |176| 
         0001b5 0000!
     546                                                      ; call occurs [#__subd] ; |176| 
     547 0001b7 ED31          MOV dbl(*($C$FL4)), AC1 ; |176| 
         0001b9 1800 
         0001bb 0006+
     548 0001bd 5000          SFTL AC0, #1, AC0 ; |176| 
     549              $C$DW$57        .dwtag  DW_TAG_TI_branch
     550                      .dwattr $C$DW$57, DW_AT_low_pc(0x00)
     551                      .dwattr $C$DW$57, DW_AT_name("__cmpd")
     552                      .dwattr $C$DW$57, DW_AT_TI_call
     553              
     554 0001bf 6C00          CALL #__cmpd ; |176| 
         0001c1 0000!
     555 0001c3 5101  ||      SFTL AC0, #-1 ; |176| 
     556              
     557                                                      ; call occurs [#__cmpd] ; |176| 
     558 0001c5 61B4          BCC $C$L4,T0 <= #0 ; |176| 
     559                                                      ; branchcc occurs ; |176| 
     560 0001c7       $C$DW$L$_vCompetingMathTask2$2$E:
     561 0001c7       $C$DW$L$_vCompetingMathTask2$3$B:
     562                      .dwpsn  file "../FreeRTOS/Demo/Common/Minimal/flop.c",line 178,column 4,is_stmt
     563 0001c7 E61C          MOV #1, *SP(#14) ; |178| 
         0001c9 01   
     564 0001ca       $C$DW$L$_vCompetingMathTask2$3$E:
     565 0001ca       $C$L4:    
     566 0001ca       $C$DW$L$_vCompetingMathTask2$4$B:
     567                      .dwpsn  file "../FreeRTOS/Demo/Common/Minimal/flop.c",line 181,column 3,is_stmt
     568 0001ca A91C          MOV *SP(#14), AR1 ; |181| 
     569 0001cc 0419          BCC $C$L3,AR1 != #0 ; |181| 
         0001ce A9   
     570                                                      ; branchcc occurs ; |181| 
     571 0001cf       $C$DW$L$_vCompetingMathTask2$4$E:
     572 0001cf       $C$DW$L$_vCompetingMathTask2$5$B:
     573                      .dwpsn  file "../FreeRTOS/Demo/Common/Minimal/flop.c",line 186,column 4,is_stmt
     574 0001cf ED14          MOV dbl(*SP(#10)), XAR3
         0001d1 BF   
     575 0001d2 E661          MOV #1, *AR3 ; |186| 
         0001d4 01   
     576                      .dwpsn  file "../FreeRTOS/Demo/Common/Minimal/flop.c",line 192,column 2,is_stmt
     577 0001d5 06FF          B $C$L3   ; |192| 
         0001d7 A0   
     578                                                      ; branch occurs ; |192| 
     579 0001d8       $C$DW$L$_vCompetingMathTask2$5$E:
     580                      .dwcfi  cfa_offset, 1
     581              
     582              $C$DW$58        .dwtag  DW_TAG_TI_loop
     583                      .dwattr $C$DW$58, DW_AT_name("F:\eZdsp_DBG\eZDSP_5535_Files\ccsws2\test\Debug\flop.asm:$C$L3:1:153743
TMS320C55x Assembler PC v4.4.1 Thu Sep 20 01:43:04 2018

Tools Copyright (c) 1996-2012 Texas Instruments Incorporated
flop.asm                                                             PAGE   14

     584                      .dwattr $C$DW$58, DW_AT_TI_begin_file("../FreeRTOS/Demo/Common/Minimal/flop.c")
     585                      .dwattr $C$DW$58, DW_AT_TI_begin_line(0xa2)
     586                      .dwattr $C$DW$58, DW_AT_TI_end_line(0xc0)
     587              $C$DW$59        .dwtag  DW_TAG_TI_loop_range
     588                      .dwattr $C$DW$59, DW_AT_low_pc($C$DW$L$_vCompetingMathTask2$2$B)
     589                      .dwattr $C$DW$59, DW_AT_high_pc($C$DW$L$_vCompetingMathTask2$2$E)
     590              $C$DW$60        .dwtag  DW_TAG_TI_loop_range
     591                      .dwattr $C$DW$60, DW_AT_low_pc($C$DW$L$_vCompetingMathTask2$3$B)
     592                      .dwattr $C$DW$60, DW_AT_high_pc($C$DW$L$_vCompetingMathTask2$3$E)
     593              $C$DW$61        .dwtag  DW_TAG_TI_loop_range
     594                      .dwattr $C$DW$61, DW_AT_low_pc($C$DW$L$_vCompetingMathTask2$5$B)
     595                      .dwattr $C$DW$61, DW_AT_high_pc($C$DW$L$_vCompetingMathTask2$5$E)
     596              $C$DW$62        .dwtag  DW_TAG_TI_loop_range
     597                      .dwattr $C$DW$62, DW_AT_low_pc($C$DW$L$_vCompetingMathTask2$4$B)
     598                      .dwattr $C$DW$62, DW_AT_high_pc($C$DW$L$_vCompetingMathTask2$4$E)
     599                      .dwendtag $C$DW$58
     600              
     601                      .dwattr $C$DW$42, DW_AT_TI_end_file("../FreeRTOS/Demo/Common/Minimal/flop.c")
     602                      .dwattr $C$DW$42, DW_AT_TI_end_line(0xc1)
     603                      .dwattr $C$DW$42, DW_AT_TI_end_column(0x01)
     604                      .dwendentry
     605                      .dwendtag $C$DW$42
     606              
     607 0001d8               .sect   ".text"
     608                      .align 4
     609              
     610              $C$DW$63        .dwtag  DW_TAG_subprogram, DW_AT_name("vCompetingMathTask3")
     611                      .dwattr $C$DW$63, DW_AT_low_pc(_vCompetingMathTask3)
     612                      .dwattr $C$DW$63, DW_AT_high_pc(0x00)
     613                      .dwattr $C$DW$63, DW_AT_TI_symbol_name("_vCompetingMathTask3")
     614                      .dwattr $C$DW$63, DW_AT_TI_begin_file("../FreeRTOS/Demo/Common/Minimal/flop.c")
     615                      .dwattr $C$DW$63, DW_AT_TI_begin_line(0xc4)
     616                      .dwattr $C$DW$63, DW_AT_TI_begin_column(0x08)
     617                      .dwattr $C$DW$63, DW_AT_TI_max_frame_size(0x10)
     618                      .dwpsn  file "../FreeRTOS/Demo/Common/Minimal/flop.c",line 197,column 1,is_stmt,address _vCompetingMa
     619              
     620                      .dwfde $C$DW$CIE, _vCompetingMathTask3
     621              $C$DW$64        .dwtag  DW_TAG_formal_parameter, DW_AT_name("pvParameters")
     622                      .dwattr $C$DW$64, DW_AT_TI_symbol_name("_pvParameters")
     623                      .dwattr $C$DW$64, DW_AT_type(*$C$DW$T$3)
     624                      .dwattr $C$DW$64, DW_AT_location[DW_OP_reg17]
     625              ;*******************************************************************************
     626              ;* FUNCTION NAME: vCompetingMathTask3                                          *
     627              ;*                                                                             *
     628              ;*   Function Uses Regs : AC0,AC0,AC1,AC1,T0,AR0,XAR0,AR1,AR2,AR3,XAR3,SP,     *
     629              ;*                        CARRY,TC1,M40,SATA,SATD,RDM,FRCT,SMUL                *
     630              ;*   Stack Frame        : Compact (No Frame Pointer, w/ debug)                 *
     631              ;*   Total Frame Size   : 16 words                                             *
     632              ;*                        (1 return address/alignment)                         *
     633              ;*                        (15 local values)                                    *
     634              ;*   Min System Stack   : 1 word                                               *
     635              ;*******************************************************************************
     636 0001d8       _vCompetingMathTask3:
     637                      .dwcfi  cfa_offset, 1
     638                      .dwcfi  save_reg_to_mem, 91, -1
TMS320C55x Assembler PC v4.4.1 Thu Sep 20 01:43:04 2018

Tools Copyright (c) 1996-2012 Texas Instruments Incorporated
flop.asm                                                             PAGE   15

     639 0001d8 4EF1          AADD #-15, SP
     640                      .dwcfi  cfa_offset, 16
     641              $C$DW$65        .dwtag  DW_TAG_variable, DW_AT_name("pvParameters")
     642                      .dwattr $C$DW$65, DW_AT_TI_symbol_name("_pvParameters")
     643                      .dwattr $C$DW$65, DW_AT_type(*$C$DW$T$3)
     644                      .dwattr $C$DW$65, DW_AT_location[DW_OP_bregx 0x24 0]
     645              $C$DW$66        .dwtag  DW_TAG_variable, DW_AT_name("pdArray")
     646                      .dwattr $C$DW$66, DW_AT_TI_symbol_name("_pdArray")
     647                      .dwattr $C$DW$66, DW_AT_type(*$C$DW$T$50)
     648                      .dwattr $C$DW$66, DW_AT_location[DW_OP_bregx 0x24 2]
     649              $C$DW$67        .dwtag  DW_TAG_variable, DW_AT_name("dTotal1")
     650                      .dwattr $C$DW$67, DW_AT_TI_symbol_name("_dTotal1")
     651                      .dwattr $C$DW$67, DW_AT_type(*$C$DW$T$49)
     652                      .dwattr $C$DW$67, DW_AT_location[DW_OP_bregx 0x24 4]
     653              $C$DW$68        .dwtag  DW_TAG_variable, DW_AT_name("dTotal2")
     654                      .dwattr $C$DW$68, DW_AT_TI_symbol_name("_dTotal2")
     655                      .dwattr $C$DW$68, DW_AT_type(*$C$DW$T$49)
     656                      .dwattr $C$DW$68, DW_AT_location[DW_OP_bregx 0x24 6]
     657              $C$DW$69        .dwtag  DW_TAG_variable, DW_AT_name("dDifference")
     658                      .dwattr $C$DW$69, DW_AT_TI_symbol_name("_dDifference")
     659                      .dwattr $C$DW$69, DW_AT_type(*$C$DW$T$49)
     660                      .dwattr $C$DW$69, DW_AT_location[DW_OP_bregx 0x24 8]
     661              $C$DW$70        .dwtag  DW_TAG_variable, DW_AT_name("pusTaskCheckVariable")
     662                      .dwattr $C$DW$70, DW_AT_TI_symbol_name("_pusTaskCheckVariable")
     663                      .dwattr $C$DW$70, DW_AT_type(*$C$DW$T$47)
     664                      .dwattr $C$DW$70, DW_AT_location[DW_OP_bregx 0x24 10]
     665              $C$DW$71        .dwtag  DW_TAG_variable, DW_AT_name("xArraySize")
     666                      .dwattr $C$DW$71, DW_AT_TI_symbol_name("_xArraySize")
     667                      .dwattr $C$DW$71, DW_AT_type(*$C$DW$T$43)
     668                      .dwattr $C$DW$71, DW_AT_location[DW_OP_bregx 0x24 12]
     669              $C$DW$72        .dwtag  DW_TAG_variable, DW_AT_name("xPosition")
     670                      .dwattr $C$DW$72, DW_AT_TI_symbol_name("_xPosition")
     671                      .dwattr $C$DW$72, DW_AT_type(*$C$DW$T$20)
     672                      .dwattr $C$DW$72, DW_AT_location[DW_OP_bregx 0x24 13]
     673              $C$DW$73        .dwtag  DW_TAG_variable, DW_AT_name("sError")
     674                      .dwattr $C$DW$73, DW_AT_TI_symbol_name("_sError")
     675                      .dwattr $C$DW$73, DW_AT_type(*$C$DW$T$8)
     676                      .dwattr $C$DW$73, DW_AT_location[DW_OP_bregx 0x24 14]
     677 0001da EB00          MOV XAR0, dbl(*SP(#0))
         0001dc 85   
     678                      .dwpsn  file "../FreeRTOS/Demo/Common/Minimal/flop.c",line 200,column 14,is_stmt
     679 0001dd E618          MOV #10, *SP(#12) ; |200| 
         0001df 0A   
     680                      .dwpsn  file "../FreeRTOS/Demo/Common/Minimal/flop.c",line 202,column 7,is_stmt
     681 0001e0 E61C          MOV #0, *SP(#14) ; |202| 
         0001e2 00   
     682                      .dwpsn  file "../FreeRTOS/Demo/Common/Minimal/flop.c",line 211,column 2,is_stmt
     683 0001e3 ED00          MOV dbl(*SP(#0)), XAR3
         0001e5 BF   
     684 0001e6 EB14          MOV XAR3, dbl(*SP(#10))
         0001e8 B5   
     685                      .dwpsn  file "../FreeRTOS/Demo/Common/Minimal/flop.c",line 213,column 2,is_stmt
     686 0001e9 A418          MOV *SP(#12), T0 ; |213| 
     687              $C$DW$74        .dwtag  DW_TAG_TI_branch
     688                      .dwattr $C$DW$74, DW_AT_low_pc(0x00)
TMS320C55x Assembler PC v4.4.1 Thu Sep 20 01:43:04 2018

Tools Copyright (c) 1996-2012 Texas Instruments Incorporated
flop.asm                                                             PAGE   16

     689                      .dwattr $C$DW$74, DW_AT_name("_pvPortMalloc")
     690                      .dwattr $C$DW$74, DW_AT_TI_call
     691              
     692 0001eb 6C00          CALL #_pvPortMalloc ; |213| 
         0001ed 0000!
     693 0001ef 5140  ||      SFTL T0, #1 ; |213| 
     694              
     695                                                      ; call occurs [#_pvPortMalloc] ; |213| 
     696 0001f1 EB04          MOV XAR0, dbl(*SP(#2))
         0001f3 85   
     697 0001f4       $C$L5:    
     698 0001f4       $C$DW$L$_vCompetingMathTask3$2$B:
     699                      .dwpsn  file "../FreeRTOS/Demo/Common/Minimal/flop.c",line 220,column 3,is_stmt
     700 0001f4 ED31          MOV dbl(*($C$FL8)), AC0 ; |220| 
         0001f6 0800 
         0001f8 000E+
     701 0001fa EB08          MOV AC0, dbl(*SP(#4)) ; |220| 
         0001fc 08   
     702                      .dwpsn  file "../FreeRTOS/Demo/Common/Minimal/flop.c",line 221,column 3,is_stmt
     703 0001fd EB0C          MOV AC0, dbl(*SP(#6)) ; |221| 
         0001ff 08   
     704                      .dwpsn  file "../FreeRTOS/Demo/Common/Minimal/flop.c",line 223,column 8,is_stmt
     705 000200 E61A          MOV #0, *SP(#13) ; |223| 
         000202 00   
     706                      .dwpsn  file "../FreeRTOS/Demo/Common/Minimal/flop.c",line 223,column 23,is_stmt
     707 000203 A918          MOV *SP(#12), AR1 ; |223| 
     708 000205 AA1A          MOV *SP(#13), AR2 ; |223| 
     709 000207 12A8          CMPU AR2 >= AR1, TC1 ; |223| 
         000209 94   
     710 00020a 0464          BCC $C$L7,TC1 ; |223| 
         00020c 45   
     711                                                      ; branchcc occurs ; |223| 
     712 00020d       $C$DW$L$_vCompetingMathTask3$2$E:
     713 00020d       $C$L6:    
     714 00020d       $C$DW$L$_vCompetingMathTask3$3$B:
     715                      .dwpsn  file "../FreeRTOS/Demo/Common/Minimal/flop.c",line 225,column 4,is_stmt
     716              $C$DW$75        .dwtag  DW_TAG_TI_branch
     717                      .dwattr $C$DW$75, DW_AT_low_pc(0x00)
     718                      .dwattr $C$DW$75, DW_AT_name("__fltud")
     719                      .dwattr $C$DW$75, DW_AT_TI_call
     720              
     721 00020d 6C00          CALL #__fltud ; |225| 
         00020f 0000!
     722 000211 23A4  ||      MOV AR2, T0
     723              
     724                                                      ; call occurs [#__fltud] ; |225| 
     725 000213 ED31          MOV dbl(*($C$FL9)), AC1 ; |225| 
         000215 1800 
         000217 0010+
     726              $C$DW$76        .dwtag  DW_TAG_TI_branch
     727                      .dwattr $C$DW$76, DW_AT_low_pc(0x00)
     728                      .dwattr $C$DW$76, DW_AT_name("__addd")
     729                      .dwattr $C$DW$76, DW_AT_TI_call
     730 000219 6C00          CALL #__addd ; |225| 
         00021b 0000!
TMS320C55x Assembler PC v4.4.1 Thu Sep 20 01:43:04 2018

Tools Copyright (c) 1996-2012 Texas Instruments Incorporated
flop.asm                                                             PAGE   17

     731                                                      ; call occurs [#__addd] ; |225| 
     732 00021d ED04          MOV dbl(*SP(#2)), XAR3
         00021f BF   
     733 000220 A41A          MOV *SP(#13), T0 ; |225| 
     734 000222 5040          SFTL T0, #1 ; |225| 
     735 000224 EB6B          MOV AC0, dbl(*AR3(T0)) ; |225| 
         000226 08   
     736                      .dwpsn  file "../FreeRTOS/Demo/Common/Minimal/flop.c",line 226,column 4,is_stmt
     737 000227 A41A          MOV *SP(#13), T0 ; |226| 
     738              $C$DW$77        .dwtag  DW_TAG_TI_branch
     739                      .dwattr $C$DW$77, DW_AT_low_pc(0x00)
     740                      .dwattr $C$DW$77, DW_AT_name("__fltud")
     741                      .dwattr $C$DW$77, DW_AT_TI_call
     742 000229 6C00          CALL #__fltud ; |226| 
         00022b 0000!
     743                                                      ; call occurs [#__fltud] ; |226| 
     744 00022d ED31          MOV dbl(*($C$FL9)), AC1 ; |226| 
         00022f 1800 
         000231 0010+
     745              $C$DW$78        .dwtag  DW_TAG_TI_branch
     746                      .dwattr $C$DW$78, DW_AT_low_pc(0x00)
     747                      .dwattr $C$DW$78, DW_AT_name("__addd")
     748                      .dwattr $C$DW$78, DW_AT_TI_call
     749 000233 6C00          CALL #__addd ; |226| 
         000235 0000!
     750                                                      ; call occurs [#__addd] ; |226| 
     751              
     752 000237 ED08          MOV dbl(*SP(#4)), AC0 ; |226| 
         000239 08   
     753 00023a 1B00  ||      OR #0, AC0, AC1
         00023c 10   
     754              
     755              $C$DW$79        .dwtag  DW_TAG_TI_branch
     756                      .dwattr $C$DW$79, DW_AT_low_pc(0x00)
     757                      .dwattr $C$DW$79, DW_AT_name("__addd")
     758                      .dwattr $C$DW$79, DW_AT_TI_call
     759 00023d 6C00          CALL #__addd ; |226| 
         00023f 0000!
     760                                                      ; call occurs [#__addd] ; |226| 
     761 000241 EB08          MOV AC0, dbl(*SP(#4)) ; |226| 
         000243 08   
     762                      .dwpsn  file "../FreeRTOS/Demo/Common/Minimal/flop.c",line 223,column 47,is_stmt
     763 000244 F71A          ADD #1, *SP(#13) ; |223| 
         000246 0001 
     764                      .dwpsn  file "../FreeRTOS/Demo/Common/Minimal/flop.c",line 223,column 23,is_stmt
     765 000248 A918          MOV *SP(#12), AR1 ; |223| 
     766 00024a AA1A          MOV *SP(#13), AR2 ; |223| 
     767 00024c 12A4          CMPU AR2 < AR1, TC1 ; |223| 
         00024e 94   
     768 00024f 0464          BCC $C$L6,TC1 ; |223| 
         000251 BB   
     769                                                      ; branchcc occurs ; |223| 
     770 000252       $C$DW$L$_vCompetingMathTask3$3$E:
     771 000252       $C$L7:    
     772 000252       $C$DW$L$_vCompetingMathTask3$4$B:
TMS320C55x Assembler PC v4.4.1 Thu Sep 20 01:43:04 2018

Tools Copyright (c) 1996-2012 Texas Instruments Incorporated
flop.asm                                                             PAGE   18

     773                      .dwpsn  file "../FreeRTOS/Demo/Common/Minimal/flop.c",line 233,column 8,is_stmt
     774 000252 E61A          MOV #0, *SP(#13) ; |233| 
         000254 00   
     775                      .dwpsn  file "../FreeRTOS/Demo/Common/Minimal/flop.c",line 233,column 23,is_stmt
     776 000255 A918          MOV *SP(#12), AR1 ; |233| 
     777 000257 AA1A          MOV *SP(#13), AR2 ; |233| 
     778 000259 12A8          CMPU AR2 >= AR1, TC1 ; |233| 
         00025b 94   
     779 00025c 0464          BCC $C$L9,TC1 ; |233| 
         00025e 22   
     780                                                      ; branchcc occurs ; |233| 
     781 00025f       $C$DW$L$_vCompetingMathTask3$4$E:
     782 00025f       $C$L8:    
     783 00025f       $C$DW$L$_vCompetingMathTask3$5$B:
     784                      .dwpsn  file "../FreeRTOS/Demo/Common/Minimal/flop.c",line 235,column 4,is_stmt
     785 00025f ED04          MOV dbl(*SP(#2)), XAR3
         000261 BF   
     786 000262 A41A          MOV *SP(#13), T0 ; |235| 
     787 000264 5040          SFTL T0, #1 ; |235| 
     788 000266 ED6B          MOV dbl(*AR3(T0)), AC1 ; |235| 
         000268 18   
     789 000269 ED0C          MOV dbl(*SP(#6)), AC0 ; |235| 
         00026b 08   
     790              $C$DW$80        .dwtag  DW_TAG_TI_branch
     791                      .dwattr $C$DW$80, DW_AT_low_pc(0x00)
     792                      .dwattr $C$DW$80, DW_AT_name("__addd")
     793                      .dwattr $C$DW$80, DW_AT_TI_call
     794 00026c 6C00          CALL #__addd ; |235| 
         00026e 0000!
     795                                                      ; call occurs [#__addd] ; |235| 
     796 000270 EB0C          MOV AC0, dbl(*SP(#6)) ; |235| 
         000272 08   
     797                      .dwpsn  file "../FreeRTOS/Demo/Common/Minimal/flop.c",line 233,column 47,is_stmt
     798 000273 F71A          ADD #1, *SP(#13) ; |233| 
         000275 0001 
     799                      .dwpsn  file "../FreeRTOS/Demo/Common/Minimal/flop.c",line 233,column 23,is_stmt
     800 000277 A918          MOV *SP(#12), AR1 ; |233| 
     801 000279 AA1A          MOV *SP(#13), AR2 ; |233| 
     802 00027b 12A4          CMPU AR2 < AR1, TC1 ; |233| 
         00027d 94   
     803 00027e 0464          BCC $C$L8,TC1 ; |233| 
         000280 DE   
     804                                                      ; branchcc occurs ; |233| 
     805 000281       $C$DW$L$_vCompetingMathTask3$5$E:
     806 000281       $C$L9:    
     807 000281       $C$DW$L$_vCompetingMathTask3$6$B:
     808                      .dwpsn  file "../FreeRTOS/Demo/Common/Minimal/flop.c",line 238,column 3,is_stmt
     809 000281 ED08          MOV dbl(*SP(#4)), AC0 ; |238| 
         000283 08   
     810 000284 ED0C          MOV dbl(*SP(#6)), AC1 ; |238| 
         000286 18   
     811              $C$DW$81        .dwtag  DW_TAG_TI_branch
     812                      .dwattr $C$DW$81, DW_AT_low_pc(0x00)
     813                      .dwattr $C$DW$81, DW_AT_name("__subd")
     814                      .dwattr $C$DW$81, DW_AT_TI_call
TMS320C55x Assembler PC v4.4.1 Thu Sep 20 01:43:04 2018

Tools Copyright (c) 1996-2012 Texas Instruments Incorporated
flop.asm                                                             PAGE   19

     815 000287 6C00          CALL #__subd ; |238| 
         000289 0000!
     816                                                      ; call occurs [#__subd] ; |238| 
     817 00028b EB10          MOV AC0, dbl(*SP(#8)) ; |238| 
         00028d 08   
     818 00028e 20            NOP
     819 00028f 20            NOP
     820                      .dwpsn  file "../FreeRTOS/Demo/Common/Minimal/flop.c",line 239,column 3,is_stmt
     821 000290 ED31          MOV dbl(*($C$FL4)), AC1 ; |239| 
         000292 1800 
         000294 0006+
     822 000296 ED10          MOV dbl(*SP(#8)), AC0 ; |239| 
         000298 08   
     823 000299 5000          SFTL AC0, #1, AC0 ; |239| 
     824              $C$DW$82        .dwtag  DW_TAG_TI_branch
     825                      .dwattr $C$DW$82, DW_AT_low_pc(0x00)
     826                      .dwattr $C$DW$82, DW_AT_name("__cmpd")
     827                      .dwattr $C$DW$82, DW_AT_TI_call
     828              
     829 00029b 6C00          CALL #__cmpd ; |239| 
         00029d 0000!
     830 00029f 5101  ||      SFTL AC0, #-1 ; |239| 
     831              
     832                                                      ; call occurs [#__cmpd] ; |239| 
     833 0002a1 61B4          BCC $C$L10,T0 <= #0 ; |239| 
     834                                                      ; branchcc occurs ; |239| 
     835 0002a3       $C$DW$L$_vCompetingMathTask3$6$E:
     836 0002a3       $C$DW$L$_vCompetingMathTask3$7$B:
     837                      .dwpsn  file "../FreeRTOS/Demo/Common/Minimal/flop.c",line 241,column 4,is_stmt
     838 0002a3 E61C          MOV #1, *SP(#14) ; |241| 
         0002a5 01   
     839 0002a6       $C$DW$L$_vCompetingMathTask3$7$E:
     840 0002a6       $C$L10:    
     841 0002a6       $C$DW$L$_vCompetingMathTask3$8$B:
     842                      .dwpsn  file "../FreeRTOS/Demo/Common/Minimal/flop.c",line 248,column 3,is_stmt
     843 0002a6 A91C          MOV *SP(#14), AR1 ; |248| 
     844 0002a8 6D19          BCC $C$L5,AR1 != #0 ; |248| 
         0002aa FF48 
     845                                                      ; branchcc occurs ; |248| 
     846 0002ac       $C$DW$L$_vCompetingMathTask3$8$E:
     847 0002ac       $C$DW$L$_vCompetingMathTask3$9$B:
     848                      .dwpsn  file "../FreeRTOS/Demo/Common/Minimal/flop.c",line 253,column 4,is_stmt
     849 0002ac ED14          MOV dbl(*SP(#10)), XAR3
         0002ae BF   
     850 0002af E661          MOV #1, *AR3 ; |253| 
         0002b1 01   
     851                      .dwpsn  file "../FreeRTOS/Demo/Common/Minimal/flop.c",line 255,column 2,is_stmt
     852 0002b2 06FF          B $C$L5   ; |255| 
         0002b4 3F   
     853                                                      ; branch occurs ; |255| 
     854 0002b5       $C$DW$L$_vCompetingMathTask3$9$E:
     855                      .dwcfi  cfa_offset, 1
     856              
     857              $C$DW$83        .dwtag  DW_TAG_TI_loop
     858                      .dwattr $C$DW$83, DW_AT_name("F:\eZdsp_DBG\eZDSP_5535_Files\ccsws2\test\Debug\flop.asm:$C$L5:1:153743
TMS320C55x Assembler PC v4.4.1 Thu Sep 20 01:43:04 2018

Tools Copyright (c) 1996-2012 Texas Instruments Incorporated
flop.asm                                                             PAGE   20

     859                      .dwattr $C$DW$83, DW_AT_TI_begin_file("../FreeRTOS/Demo/Common/Minimal/flop.c")
     860                      .dwattr $C$DW$83, DW_AT_TI_begin_line(0xda)
     861                      .dwattr $C$DW$83, DW_AT_TI_end_line(0xff)
     862              $C$DW$84        .dwtag  DW_TAG_TI_loop_range
     863                      .dwattr $C$DW$84, DW_AT_low_pc($C$DW$L$_vCompetingMathTask3$2$B)
     864                      .dwattr $C$DW$84, DW_AT_high_pc($C$DW$L$_vCompetingMathTask3$2$E)
     865              $C$DW$85        .dwtag  DW_TAG_TI_loop_range
     866                      .dwattr $C$DW$85, DW_AT_low_pc($C$DW$L$_vCompetingMathTask3$4$B)
     867                      .dwattr $C$DW$85, DW_AT_high_pc($C$DW$L$_vCompetingMathTask3$4$E)
     868              $C$DW$86        .dwtag  DW_TAG_TI_loop_range
     869                      .dwattr $C$DW$86, DW_AT_low_pc($C$DW$L$_vCompetingMathTask3$6$B)
     870                      .dwattr $C$DW$86, DW_AT_high_pc($C$DW$L$_vCompetingMathTask3$6$E)
     871              $C$DW$87        .dwtag  DW_TAG_TI_loop_range
     872                      .dwattr $C$DW$87, DW_AT_low_pc($C$DW$L$_vCompetingMathTask3$7$B)
     873                      .dwattr $C$DW$87, DW_AT_high_pc($C$DW$L$_vCompetingMathTask3$7$E)
     874              $C$DW$88        .dwtag  DW_TAG_TI_loop_range
     875                      .dwattr $C$DW$88, DW_AT_low_pc($C$DW$L$_vCompetingMathTask3$9$B)
     876                      .dwattr $C$DW$88, DW_AT_high_pc($C$DW$L$_vCompetingMathTask3$9$E)
     877              $C$DW$89        .dwtag  DW_TAG_TI_loop_range
     878                      .dwattr $C$DW$89, DW_AT_low_pc($C$DW$L$_vCompetingMathTask3$8$B)
     879                      .dwattr $C$DW$89, DW_AT_high_pc($C$DW$L$_vCompetingMathTask3$8$E)
     880              
     881              $C$DW$90        .dwtag  DW_TAG_TI_loop
     882                      .dwattr $C$DW$90, DW_AT_name("F:\eZdsp_DBG\eZDSP_5535_Files\ccsws2\test\Debug\flop.asm:$C$L6:2:153743
     883                      .dwattr $C$DW$90, DW_AT_TI_begin_file("../FreeRTOS/Demo/Common/Minimal/flop.c")
     884                      .dwattr $C$DW$90, DW_AT_TI_begin_line(0xdf)
     885                      .dwattr $C$DW$90, DW_AT_TI_end_line(0xe3)
     886              $C$DW$91        .dwtag  DW_TAG_TI_loop_range
     887                      .dwattr $C$DW$91, DW_AT_low_pc($C$DW$L$_vCompetingMathTask3$3$B)
     888                      .dwattr $C$DW$91, DW_AT_high_pc($C$DW$L$_vCompetingMathTask3$3$E)
     889                      .dwendtag $C$DW$90
     890              
     891              
     892              $C$DW$92        .dwtag  DW_TAG_TI_loop
     893                      .dwattr $C$DW$92, DW_AT_name("F:\eZdsp_DBG\eZDSP_5535_Files\ccsws2\test\Debug\flop.asm:$C$L8:2:153743
     894                      .dwattr $C$DW$92, DW_AT_TI_begin_file("../FreeRTOS/Demo/Common/Minimal/flop.c")
     895                      .dwattr $C$DW$92, DW_AT_TI_begin_line(0xe9)
     896                      .dwattr $C$DW$92, DW_AT_TI_end_line(0xec)
     897              $C$DW$93        .dwtag  DW_TAG_TI_loop_range
     898                      .dwattr $C$DW$93, DW_AT_low_pc($C$DW$L$_vCompetingMathTask3$5$B)
     899                      .dwattr $C$DW$93, DW_AT_high_pc($C$DW$L$_vCompetingMathTask3$5$E)
     900                      .dwendtag $C$DW$92
     901              
     902                      .dwendtag $C$DW$83
     903              
     904                      .dwattr $C$DW$63, DW_AT_TI_end_file("../FreeRTOS/Demo/Common/Minimal/flop.c")
     905                      .dwattr $C$DW$63, DW_AT_TI_end_line(0x100)
     906                      .dwattr $C$DW$63, DW_AT_TI_end_column(0x01)
     907                      .dwendentry
     908                      .dwendtag $C$DW$63
     909              
     910 0002b5               .sect   ".text"
     911                      .align 4
     912              
     913              $C$DW$94        .dwtag  DW_TAG_subprogram, DW_AT_name("vCompetingMathTask4")
TMS320C55x Assembler PC v4.4.1 Thu Sep 20 01:43:04 2018

Tools Copyright (c) 1996-2012 Texas Instruments Incorporated
flop.asm                                                             PAGE   21

     914                      .dwattr $C$DW$94, DW_AT_low_pc(_vCompetingMathTask4)
     915                      .dwattr $C$DW$94, DW_AT_high_pc(0x00)
     916                      .dwattr $C$DW$94, DW_AT_TI_symbol_name("_vCompetingMathTask4")
     917                      .dwattr $C$DW$94, DW_AT_TI_begin_file("../FreeRTOS/Demo/Common/Minimal/flop.c")
     918                      .dwattr $C$DW$94, DW_AT_TI_begin_line(0x103)
     919                      .dwattr $C$DW$94, DW_AT_TI_begin_column(0x08)
     920                      .dwattr $C$DW$94, DW_AT_TI_max_frame_size(0x10)
     921                      .dwpsn  file "../FreeRTOS/Demo/Common/Minimal/flop.c",line 260,column 1,is_stmt,address _vCompetingMa
     922              
     923                      .dwfde $C$DW$CIE, _vCompetingMathTask4
     924              $C$DW$95        .dwtag  DW_TAG_formal_parameter, DW_AT_name("pvParameters")
     925                      .dwattr $C$DW$95, DW_AT_TI_symbol_name("_pvParameters")
     926                      .dwattr $C$DW$95, DW_AT_type(*$C$DW$T$3)
     927                      .dwattr $C$DW$95, DW_AT_location[DW_OP_reg17]
     928              ;*******************************************************************************
     929              ;* FUNCTION NAME: vCompetingMathTask4                                          *
     930              ;*                                                                             *
     931              ;*   Function Uses Regs : AC0,AC0,AC1,AC1,T0,AR0,XAR0,AR1,AR2,AR3,XAR3,SP,     *
     932              ;*                        CARRY,TC1,M40,SATA,SATD,RDM,FRCT,SMUL                *
     933              ;*   Stack Frame        : Compact (No Frame Pointer, w/ debug)                 *
     934              ;*   Total Frame Size   : 16 words                                             *
     935              ;*                        (1 return address/alignment)                         *
     936              ;*                        (15 local values)                                    *
     937              ;*   Min System Stack   : 1 word                                               *
     938              ;*******************************************************************************
     939 0002b8       _vCompetingMathTask4:
     940                      .dwcfi  cfa_offset, 1
     941                      .dwcfi  save_reg_to_mem, 91, -1
     942 0002b8 4EF1          AADD #-15, SP
     943                      .dwcfi  cfa_offset, 16
     944              $C$DW$96        .dwtag  DW_TAG_variable, DW_AT_name("pvParameters")
     945                      .dwattr $C$DW$96, DW_AT_TI_symbol_name("_pvParameters")
     946                      .dwattr $C$DW$96, DW_AT_type(*$C$DW$T$3)
     947                      .dwattr $C$DW$96, DW_AT_location[DW_OP_bregx 0x24 0]
     948              $C$DW$97        .dwtag  DW_TAG_variable, DW_AT_name("pdArray")
     949                      .dwattr $C$DW$97, DW_AT_TI_symbol_name("_pdArray")
     950                      .dwattr $C$DW$97, DW_AT_type(*$C$DW$T$50)
     951                      .dwattr $C$DW$97, DW_AT_location[DW_OP_bregx 0x24 2]
     952              $C$DW$98        .dwtag  DW_TAG_variable, DW_AT_name("dTotal1")
     953                      .dwattr $C$DW$98, DW_AT_TI_symbol_name("_dTotal1")
     954                      .dwattr $C$DW$98, DW_AT_type(*$C$DW$T$49)
     955                      .dwattr $C$DW$98, DW_AT_location[DW_OP_bregx 0x24 4]
     956              $C$DW$99        .dwtag  DW_TAG_variable, DW_AT_name("dTotal2")
     957                      .dwattr $C$DW$99, DW_AT_TI_symbol_name("_dTotal2")
     958                      .dwattr $C$DW$99, DW_AT_type(*$C$DW$T$49)
     959                      .dwattr $C$DW$99, DW_AT_location[DW_OP_bregx 0x24 6]
     960              $C$DW$100       .dwtag  DW_TAG_variable, DW_AT_name("dDifference")
     961                      .dwattr $C$DW$100, DW_AT_TI_symbol_name("_dDifference")
     962                      .dwattr $C$DW$100, DW_AT_type(*$C$DW$T$49)
     963                      .dwattr $C$DW$100, DW_AT_location[DW_OP_bregx 0x24 8]
     964              $C$DW$101       .dwtag  DW_TAG_variable, DW_AT_name("pusTaskCheckVariable")
     965                      .dwattr $C$DW$101, DW_AT_TI_symbol_name("_pusTaskCheckVariable")
     966                      .dwattr $C$DW$101, DW_AT_type(*$C$DW$T$47)
     967                      .dwattr $C$DW$101, DW_AT_location[DW_OP_bregx 0x24 10]
     968              $C$DW$102       .dwtag  DW_TAG_variable, DW_AT_name("xArraySize")
TMS320C55x Assembler PC v4.4.1 Thu Sep 20 01:43:04 2018

Tools Copyright (c) 1996-2012 Texas Instruments Incorporated
flop.asm                                                             PAGE   22

     969                      .dwattr $C$DW$102, DW_AT_TI_symbol_name("_xArraySize")
     970                      .dwattr $C$DW$102, DW_AT_type(*$C$DW$T$43)
     971                      .dwattr $C$DW$102, DW_AT_location[DW_OP_bregx 0x24 12]
     972              $C$DW$103       .dwtag  DW_TAG_variable, DW_AT_name("xPosition")
     973                      .dwattr $C$DW$103, DW_AT_TI_symbol_name("_xPosition")
     974                      .dwattr $C$DW$103, DW_AT_type(*$C$DW$T$20)
     975                      .dwattr $C$DW$103, DW_AT_location[DW_OP_bregx 0x24 13]
     976              $C$DW$104       .dwtag  DW_TAG_variable, DW_AT_name("sError")
     977                      .dwattr $C$DW$104, DW_AT_TI_symbol_name("_sError")
     978                      .dwattr $C$DW$104, DW_AT_type(*$C$DW$T$8)
     979                      .dwattr $C$DW$104, DW_AT_location[DW_OP_bregx 0x24 14]
     980 0002ba EB00          MOV XAR0, dbl(*SP(#0))
         0002bc 85   
     981                      .dwpsn  file "../FreeRTOS/Demo/Common/Minimal/flop.c",line 263,column 14,is_stmt
     982 0002bd E618          MOV #10, *SP(#12) ; |263| 
         0002bf 0A   
     983                      .dwpsn  file "../FreeRTOS/Demo/Common/Minimal/flop.c",line 265,column 7,is_stmt
     984 0002c0 E61C          MOV #0, *SP(#14) ; |265| 
         0002c2 00   
     985                      .dwpsn  file "../FreeRTOS/Demo/Common/Minimal/flop.c",line 274,column 2,is_stmt
     986 0002c3 ED00          MOV dbl(*SP(#0)), XAR3
         0002c5 BF   
     987 0002c6 EB14          MOV XAR3, dbl(*SP(#10))
         0002c8 B5   
     988                      .dwpsn  file "../FreeRTOS/Demo/Common/Minimal/flop.c",line 276,column 2,is_stmt
     989 0002c9 A418          MOV *SP(#12), T0 ; |276| 
     990              $C$DW$105       .dwtag  DW_TAG_TI_branch
     991                      .dwattr $C$DW$105, DW_AT_low_pc(0x00)
     992                      .dwattr $C$DW$105, DW_AT_name("_pvPortMalloc")
     993                      .dwattr $C$DW$105, DW_AT_TI_call
     994              
     995 0002cb 6C00          CALL #_pvPortMalloc ; |276| 
         0002cd 0000!
     996 0002cf 5140  ||      SFTL T0, #1 ; |276| 
     997              
     998                                                      ; call occurs [#_pvPortMalloc] ; |276| 
     999 0002d1 EB04          MOV XAR0, dbl(*SP(#2))
         0002d3 85   
    1000 0002d4       $C$L11:    
    1001 0002d4       $C$DW$L$_vCompetingMathTask4$2$B:
    1002                      .dwpsn  file "../FreeRTOS/Demo/Common/Minimal/flop.c",line 283,column 3,is_stmt
    1003 0002d4 ED31          MOV dbl(*($C$FL8)), AC0 ; |283| 
         0002d6 0800 
         0002d8 000E+
    1004 0002da EB08          MOV AC0, dbl(*SP(#4)) ; |283| 
         0002dc 08   
    1005                      .dwpsn  file "../FreeRTOS/Demo/Common/Minimal/flop.c",line 284,column 3,is_stmt
    1006 0002dd EB0C          MOV AC0, dbl(*SP(#6)) ; |284| 
         0002df 08   
    1007                      .dwpsn  file "../FreeRTOS/Demo/Common/Minimal/flop.c",line 286,column 8,is_stmt
    1008 0002e0 E61A          MOV #0, *SP(#13) ; |286| 
         0002e2 00   
    1009                      .dwpsn  file "../FreeRTOS/Demo/Common/Minimal/flop.c",line 286,column 23,is_stmt
    1010 0002e3 A918          MOV *SP(#12), AR1 ; |286| 
    1011 0002e5 AA1A          MOV *SP(#13), AR2 ; |286| 
TMS320C55x Assembler PC v4.4.1 Thu Sep 20 01:43:04 2018

Tools Copyright (c) 1996-2012 Texas Instruments Incorporated
flop.asm                                                             PAGE   23

    1012 0002e7 12A8          CMPU AR2 >= AR1, TC1 ; |286| 
         0002e9 94   
    1013 0002ea 0464          BCC $C$L13,TC1 ; |286| 
         0002ec 45   
    1014                                                      ; branchcc occurs ; |286| 
    1015 0002ed       $C$DW$L$_vCompetingMathTask4$2$E:
    1016 0002ed       $C$L12:    
    1017 0002ed       $C$DW$L$_vCompetingMathTask4$3$B:
    1018                      .dwpsn  file "../FreeRTOS/Demo/Common/Minimal/flop.c",line 288,column 4,is_stmt
    1019              $C$DW$106       .dwtag  DW_TAG_TI_branch
    1020                      .dwattr $C$DW$106, DW_AT_low_pc(0x00)
    1021                      .dwattr $C$DW$106, DW_AT_name("__fltud")
    1022                      .dwattr $C$DW$106, DW_AT_TI_call
    1023              
    1024 0002ed 6C00          CALL #__fltud ; |288| 
         0002ef 0000!
    1025 0002f1 23A4  ||      MOV AR2, T0
    1026              
    1027                                                      ; call occurs [#__fltud] ; |288| 
    1028 0002f3 ED31          MOV dbl(*($C$FL10)), AC1 ; |288| 
         0002f5 1800 
         0002f7 0012+
    1029              $C$DW$107       .dwtag  DW_TAG_TI_branch
    1030                      .dwattr $C$DW$107, DW_AT_low_pc(0x00)
    1031                      .dwattr $C$DW$107, DW_AT_name("__mpyd")
    1032                      .dwattr $C$DW$107, DW_AT_TI_call
    1033 0002f9 6C00          CALL #__mpyd ; |288| 
         0002fb 0000!
    1034                                                      ; call occurs [#__mpyd] ; |288| 
    1035 0002fd ED04          MOV dbl(*SP(#2)), XAR3
         0002ff BF   
    1036 000300 A41A          MOV *SP(#13), T0 ; |288| 
    1037 000302 5040          SFTL T0, #1 ; |288| 
    1038 000304 EB6B          MOV AC0, dbl(*AR3(T0)) ; |288| 
         000306 08   
    1039                      .dwpsn  file "../FreeRTOS/Demo/Common/Minimal/flop.c",line 289,column 4,is_stmt
    1040 000307 A41A          MOV *SP(#13), T0 ; |289| 
    1041              $C$DW$108       .dwtag  DW_TAG_TI_branch
    1042                      .dwattr $C$DW$108, DW_AT_low_pc(0x00)
    1043                      .dwattr $C$DW$108, DW_AT_name("__fltud")
    1044                      .dwattr $C$DW$108, DW_AT_TI_call
    1045 000309 6C00          CALL #__fltud ; |289| 
         00030b 0000!
    1046                                                      ; call occurs [#__fltud] ; |289| 
    1047 00030d ED31          MOV dbl(*($C$FL10)), AC1 ; |289| 
         00030f 1800 
         000311 0012+
    1048              $C$DW$109       .dwtag  DW_TAG_TI_branch
    1049                      .dwattr $C$DW$109, DW_AT_low_pc(0x00)
    1050                      .dwattr $C$DW$109, DW_AT_name("__mpyd")
    1051                      .dwattr $C$DW$109, DW_AT_TI_call
    1052 000313 6C00          CALL #__mpyd ; |289| 
         000315 0000!
    1053                                                      ; call occurs [#__mpyd] ; |289| 
    1054              
TMS320C55x Assembler PC v4.4.1 Thu Sep 20 01:43:04 2018

Tools Copyright (c) 1996-2012 Texas Instruments Incorporated
flop.asm                                                             PAGE   24

    1055 000317 ED08          MOV dbl(*SP(#4)), AC0 ; |289| 
         000319 08   
    1056 00031a 1B00  ||      OR #0, AC0, AC1
         00031c 10   
    1057              
    1058              $C$DW$110       .dwtag  DW_TAG_TI_branch
    1059                      .dwattr $C$DW$110, DW_AT_low_pc(0x00)
    1060                      .dwattr $C$DW$110, DW_AT_name("__addd")
    1061                      .dwattr $C$DW$110, DW_AT_TI_call
    1062 00031d 6C00          CALL #__addd ; |289| 
         00031f 0000!
    1063                                                      ; call occurs [#__addd] ; |289| 
    1064 000321 EB08          MOV AC0, dbl(*SP(#4)) ; |289| 
         000323 08   
    1065                      .dwpsn  file "../FreeRTOS/Demo/Common/Minimal/flop.c",line 286,column 47,is_stmt
    1066 000324 F71A          ADD #1, *SP(#13) ; |286| 
         000326 0001 
    1067                      .dwpsn  file "../FreeRTOS/Demo/Common/Minimal/flop.c",line 286,column 23,is_stmt
    1068 000328 A918          MOV *SP(#12), AR1 ; |286| 
    1069 00032a AA1A          MOV *SP(#13), AR2 ; |286| 
    1070 00032c 12A4          CMPU AR2 < AR1, TC1 ; |286| 
         00032e 94   
    1071 00032f 0464          BCC $C$L12,TC1 ; |286| 
         000331 BB   
    1072                                                      ; branchcc occurs ; |286| 
    1073 000332       $C$DW$L$_vCompetingMathTask4$3$E:
    1074 000332       $C$L13:    
    1075 000332       $C$DW$L$_vCompetingMathTask4$4$B:
    1076                      .dwpsn  file "../FreeRTOS/Demo/Common/Minimal/flop.c",line 296,column 8,is_stmt
    1077 000332 E61A          MOV #0, *SP(#13) ; |296| 
         000334 00   
    1078                      .dwpsn  file "../FreeRTOS/Demo/Common/Minimal/flop.c",line 296,column 23,is_stmt
    1079 000335 A918          MOV *SP(#12), AR1 ; |296| 
    1080 000337 AA1A          MOV *SP(#13), AR2 ; |296| 
    1081 000339 12A8          CMPU AR2 >= AR1, TC1 ; |296| 
         00033b 94   
    1082 00033c 0464          BCC $C$L15,TC1 ; |296| 
         00033e 22   
    1083                                                      ; branchcc occurs ; |296| 
    1084 00033f       $C$DW$L$_vCompetingMathTask4$4$E:
    1085 00033f       $C$L14:    
    1086 00033f       $C$DW$L$_vCompetingMathTask4$5$B:
    1087                      .dwpsn  file "../FreeRTOS/Demo/Common/Minimal/flop.c",line 298,column 4,is_stmt
    1088 00033f ED04          MOV dbl(*SP(#2)), XAR3
         000341 BF   
    1089 000342 A41A          MOV *SP(#13), T0 ; |298| 
    1090 000344 5040          SFTL T0, #1 ; |298| 
    1091 000346 ED6B          MOV dbl(*AR3(T0)), AC1 ; |298| 
         000348 18   
    1092 000349 ED0C          MOV dbl(*SP(#6)), AC0 ; |298| 
         00034b 08   
    1093              $C$DW$111       .dwtag  DW_TAG_TI_branch
    1094                      .dwattr $C$DW$111, DW_AT_low_pc(0x00)
    1095                      .dwattr $C$DW$111, DW_AT_name("__addd")
    1096                      .dwattr $C$DW$111, DW_AT_TI_call
TMS320C55x Assembler PC v4.4.1 Thu Sep 20 01:43:04 2018

Tools Copyright (c) 1996-2012 Texas Instruments Incorporated
flop.asm                                                             PAGE   25

    1097 00034c 6C00          CALL #__addd ; |298| 
         00034e 0000!
    1098                                                      ; call occurs [#__addd] ; |298| 
    1099 000350 EB0C          MOV AC0, dbl(*SP(#6)) ; |298| 
         000352 08   
    1100                      .dwpsn  file "../FreeRTOS/Demo/Common/Minimal/flop.c",line 296,column 47,is_stmt
    1101 000353 F71A          ADD #1, *SP(#13) ; |296| 
         000355 0001 
    1102                      .dwpsn  file "../FreeRTOS/Demo/Common/Minimal/flop.c",line 296,column 23,is_stmt
    1103 000357 A918          MOV *SP(#12), AR1 ; |296| 
    1104 000359 AA1A          MOV *SP(#13), AR2 ; |296| 
    1105 00035b 12A4          CMPU AR2 < AR1, TC1 ; |296| 
         00035d 94   
    1106 00035e 0464          BCC $C$L14,TC1 ; |296| 
         000360 DE   
    1107                                                      ; branchcc occurs ; |296| 
    1108 000361       $C$DW$L$_vCompetingMathTask4$5$E:
    1109 000361       $C$L15:    
    1110 000361       $C$DW$L$_vCompetingMathTask4$6$B:
    1111                      .dwpsn  file "../FreeRTOS/Demo/Common/Minimal/flop.c",line 301,column 3,is_stmt
    1112 000361 ED08          MOV dbl(*SP(#4)), AC0 ; |301| 
         000363 08   
    1113 000364 ED0C          MOV dbl(*SP(#6)), AC1 ; |301| 
         000366 18   
    1114              $C$DW$112       .dwtag  DW_TAG_TI_branch
    1115                      .dwattr $C$DW$112, DW_AT_low_pc(0x00)
    1116                      .dwattr $C$DW$112, DW_AT_name("__subd")
    1117                      .dwattr $C$DW$112, DW_AT_TI_call
    1118 000367 6C00          CALL #__subd ; |301| 
         000369 0000!
    1119                                                      ; call occurs [#__subd] ; |301| 
    1120 00036b EB10          MOV AC0, dbl(*SP(#8)) ; |301| 
         00036d 08   
    1121 00036e 20            NOP
    1122 00036f 20            NOP
    1123                      .dwpsn  file "../FreeRTOS/Demo/Common/Minimal/flop.c",line 302,column 3,is_stmt
    1124 000370 ED31          MOV dbl(*($C$FL4)), AC1 ; |302| 
         000372 1800 
         000374 0006+
    1125 000376 ED10          MOV dbl(*SP(#8)), AC0 ; |302| 
         000378 08   
    1126 000379 5000          SFTL AC0, #1, AC0 ; |302| 
    1127              $C$DW$113       .dwtag  DW_TAG_TI_branch
    1128                      .dwattr $C$DW$113, DW_AT_low_pc(0x00)
    1129                      .dwattr $C$DW$113, DW_AT_name("__cmpd")
    1130                      .dwattr $C$DW$113, DW_AT_TI_call
    1131              
    1132 00037b 6C00          CALL #__cmpd ; |302| 
         00037d 0000!
    1133 00037f 5101  ||      SFTL AC0, #-1 ; |302| 
    1134              
    1135                                                      ; call occurs [#__cmpd] ; |302| 
    1136 000381 61B4          BCC $C$L16,T0 <= #0 ; |302| 
    1137                                                      ; branchcc occurs ; |302| 
    1138 000383       $C$DW$L$_vCompetingMathTask4$6$E:
TMS320C55x Assembler PC v4.4.1 Thu Sep 20 01:43:04 2018

Tools Copyright (c) 1996-2012 Texas Instruments Incorporated
flop.asm                                                             PAGE   26

    1139 000383       $C$DW$L$_vCompetingMathTask4$7$B:
    1140                      .dwpsn  file "../FreeRTOS/Demo/Common/Minimal/flop.c",line 304,column 4,is_stmt
    1141 000383 E61C          MOV #1, *SP(#14) ; |304| 
         000385 01   
    1142 000386       $C$DW$L$_vCompetingMathTask4$7$E:
    1143 000386       $C$L16:    
    1144 000386       $C$DW$L$_vCompetingMathTask4$8$B:
    1145                      .dwpsn  file "../FreeRTOS/Demo/Common/Minimal/flop.c",line 311,column 3,is_stmt
    1146 000386 A91C          MOV *SP(#14), AR1 ; |311| 
    1147 000388 6D19          BCC $C$L11,AR1 != #0 ; |311| 
         00038a FF48 
    1148                                                      ; branchcc occurs ; |311| 
    1149 00038c       $C$DW$L$_vCompetingMathTask4$8$E:
    1150 00038c       $C$DW$L$_vCompetingMathTask4$9$B:
    1151                      .dwpsn  file "../FreeRTOS/Demo/Common/Minimal/flop.c",line 316,column 4,is_stmt
    1152 00038c ED14          MOV dbl(*SP(#10)), XAR3
         00038e BF   
    1153 00038f E661          MOV #1, *AR3 ; |316| 
         000391 01   
    1154                      .dwpsn  file "../FreeRTOS/Demo/Common/Minimal/flop.c",line 318,column 2,is_stmt
    1155 000392 06FF          B $C$L11  ; |318| 
         000394 3F   
    1156                                                      ; branch occurs ; |318| 
    1157 000395       $C$DW$L$_vCompetingMathTask4$9$E:
    1158                      .dwcfi  cfa_offset, 1
    1159              
    1160              $C$DW$114       .dwtag  DW_TAG_TI_loop
    1161                      .dwattr $C$DW$114, DW_AT_name("F:\eZdsp_DBG\eZDSP_5535_Files\ccsws2\test\Debug\flop.asm:$C$L11:1:1537
    1162                      .dwattr $C$DW$114, DW_AT_TI_begin_file("../FreeRTOS/Demo/Common/Minimal/flop.c")
    1163                      .dwattr $C$DW$114, DW_AT_TI_begin_line(0x119)
    1164                      .dwattr $C$DW$114, DW_AT_TI_end_line(0x13e)
    1165              $C$DW$115       .dwtag  DW_TAG_TI_loop_range
    1166                      .dwattr $C$DW$115, DW_AT_low_pc($C$DW$L$_vCompetingMathTask4$2$B)
    1167                      .dwattr $C$DW$115, DW_AT_high_pc($C$DW$L$_vCompetingMathTask4$2$E)
    1168              $C$DW$116       .dwtag  DW_TAG_TI_loop_range
    1169                      .dwattr $C$DW$116, DW_AT_low_pc($C$DW$L$_vCompetingMathTask4$4$B)
    1170                      .dwattr $C$DW$116, DW_AT_high_pc($C$DW$L$_vCompetingMathTask4$4$E)
    1171              $C$DW$117       .dwtag  DW_TAG_TI_loop_range
    1172                      .dwattr $C$DW$117, DW_AT_low_pc($C$DW$L$_vCompetingMathTask4$6$B)
    1173                      .dwattr $C$DW$117, DW_AT_high_pc($C$DW$L$_vCompetingMathTask4$6$E)
    1174              $C$DW$118       .dwtag  DW_TAG_TI_loop_range
    1175                      .dwattr $C$DW$118, DW_AT_low_pc($C$DW$L$_vCompetingMathTask4$7$B)
    1176                      .dwattr $C$DW$118, DW_AT_high_pc($C$DW$L$_vCompetingMathTask4$7$E)
    1177              $C$DW$119       .dwtag  DW_TAG_TI_loop_range
    1178                      .dwattr $C$DW$119, DW_AT_low_pc($C$DW$L$_vCompetingMathTask4$9$B)
    1179                      .dwattr $C$DW$119, DW_AT_high_pc($C$DW$L$_vCompetingMathTask4$9$E)
    1180              $C$DW$120       .dwtag  DW_TAG_TI_loop_range
    1181                      .dwattr $C$DW$120, DW_AT_low_pc($C$DW$L$_vCompetingMathTask4$8$B)
    1182                      .dwattr $C$DW$120, DW_AT_high_pc($C$DW$L$_vCompetingMathTask4$8$E)
    1183              
    1184              $C$DW$121       .dwtag  DW_TAG_TI_loop
    1185                      .dwattr $C$DW$121, DW_AT_name("F:\eZdsp_DBG\eZDSP_5535_Files\ccsws2\test\Debug\flop.asm:$C$L12:2:1537
    1186                      .dwattr $C$DW$121, DW_AT_TI_begin_file("../FreeRTOS/Demo/Common/Minimal/flop.c")
    1187                      .dwattr $C$DW$121, DW_AT_TI_begin_line(0x11e)
    1188                      .dwattr $C$DW$121, DW_AT_TI_end_line(0x122)
TMS320C55x Assembler PC v4.4.1 Thu Sep 20 01:43:04 2018

Tools Copyright (c) 1996-2012 Texas Instruments Incorporated
flop.asm                                                             PAGE   27

    1189              $C$DW$122       .dwtag  DW_TAG_TI_loop_range
    1190                      .dwattr $C$DW$122, DW_AT_low_pc($C$DW$L$_vCompetingMathTask4$3$B)
    1191                      .dwattr $C$DW$122, DW_AT_high_pc($C$DW$L$_vCompetingMathTask4$3$E)
    1192                      .dwendtag $C$DW$121
    1193              
    1194              
    1195              $C$DW$123       .dwtag  DW_TAG_TI_loop
    1196                      .dwattr $C$DW$123, DW_AT_name("F:\eZdsp_DBG\eZDSP_5535_Files\ccsws2\test\Debug\flop.asm:$C$L14:2:1537
    1197                      .dwattr $C$DW$123, DW_AT_TI_begin_file("../FreeRTOS/Demo/Common/Minimal/flop.c")
    1198                      .dwattr $C$DW$123, DW_AT_TI_begin_line(0x128)
    1199                      .dwattr $C$DW$123, DW_AT_TI_end_line(0x12b)
    1200              $C$DW$124       .dwtag  DW_TAG_TI_loop_range
    1201                      .dwattr $C$DW$124, DW_AT_low_pc($C$DW$L$_vCompetingMathTask4$5$B)
    1202                      .dwattr $C$DW$124, DW_AT_high_pc($C$DW$L$_vCompetingMathTask4$5$E)
    1203                      .dwendtag $C$DW$123
    1204              
    1205                      .dwendtag $C$DW$114
    1206              
    1207                      .dwattr $C$DW$94, DW_AT_TI_end_file("../FreeRTOS/Demo/Common/Minimal/flop.c")
    1208                      .dwattr $C$DW$94, DW_AT_TI_end_line(0x13f)
    1209                      .dwattr $C$DW$94, DW_AT_TI_end_column(0x01)
    1210                      .dwendentry
    1211                      .dwendtag $C$DW$94
    1212              
    1213 000395               .sect   ".text"
    1214                      .align 4
    1215                      .global _xAreMathsTaskStillRunning
    1216              
    1217              $C$DW$125       .dwtag  DW_TAG_subprogram, DW_AT_name("xAreMathsTaskStillRunning")
    1218                      .dwattr $C$DW$125, DW_AT_low_pc(_xAreMathsTaskStillRunning)
    1219                      .dwattr $C$DW$125, DW_AT_high_pc(0x00)
    1220                      .dwattr $C$DW$125, DW_AT_TI_symbol_name("_xAreMathsTaskStillRunning")
    1221                      .dwattr $C$DW$125, DW_AT_external
    1222                      .dwattr $C$DW$125, DW_AT_type(*$C$DW$T$29)
    1223                      .dwattr $C$DW$125, DW_AT_TI_begin_file("../FreeRTOS/Demo/Common/Minimal/flop.c")
    1224                      .dwattr $C$DW$125, DW_AT_TI_begin_line(0x143)
    1225                      .dwattr $C$DW$125, DW_AT_TI_begin_column(0x0c)
    1226                      .dwattr $C$DW$125, DW_AT_TI_max_frame_size(0x04)
    1227                      .dwpsn  file "../FreeRTOS/Demo/Common/Minimal/flop.c",line 324,column 1,is_stmt,address _xAreMathsTas
    1228              
    1229                      .dwfde $C$DW$CIE, _xAreMathsTaskStillRunning
    1230              ;*******************************************************************************
    1231              ;* FUNCTION NAME: xAreMathsTaskStillRunning                                    *
    1232              ;*                                                                             *
    1233              ;*   Function Uses Regs : T0,AR1,AR2,AR3,XAR3,SP,CARRY,TC1,M40,SATA,SATD,RDM,  *
    1234              ;*                        FRCT,SMUL                                            *
    1235              ;*   Stack Frame        : Compact (No Frame Pointer, w/ debug)                 *
    1236              ;*   Total Frame Size   : 4 words                                              *
    1237              ;*                        (2 return address/alignment)                         *
    1238              ;*                        (2 local values)                                     *
    1239              ;*   Min System Stack   : 1 word                                               *
    1240              ;*******************************************************************************
    1241 000398       _xAreMathsTaskStillRunning:
    1242                      .dwcfi  cfa_offset, 1
    1243                      .dwcfi  save_reg_to_mem, 91, -1
TMS320C55x Assembler PC v4.4.1 Thu Sep 20 01:43:04 2018

Tools Copyright (c) 1996-2012 Texas Instruments Incorporated
flop.asm                                                             PAGE   28

    1244 000398 4EFD          AADD #-3, SP
    1245                      .dwcfi  cfa_offset, 4
    1246              $C$DW$126       .dwtag  DW_TAG_variable, DW_AT_name("xReturn")
    1247                      .dwattr $C$DW$126, DW_AT_TI_symbol_name("_xReturn")
    1248                      .dwattr $C$DW$126, DW_AT_type(*$C$DW$T$29)
    1249                      .dwattr $C$DW$126, DW_AT_location[DW_OP_bregx 0x24 0]
    1250              $C$DW$127       .dwtag  DW_TAG_variable, DW_AT_name("xTask")
    1251                      .dwattr $C$DW$127, DW_AT_TI_symbol_name("_xTask")
    1252                      .dwattr $C$DW$127, DW_AT_type(*$C$DW$T$29)
    1253                      .dwattr $C$DW$127, DW_AT_location[DW_OP_bregx 0x24 1]
    1254                      .dwpsn  file "../FreeRTOS/Demo/Common/Minimal/flop.c",line 325,column 12,is_stmt
    1255 00039a E600          MOV #1, *SP(#0) ; |325| 
         00039c 01   
    1256                      .dwpsn  file "../FreeRTOS/Demo/Common/Minimal/flop.c",line 329,column 7,is_stmt
    1257 00039d E602          MOV #0, *SP(#1) ; |329| 
         00039f 00   
    1258                      .dwpsn  file "../FreeRTOS/Demo/Common/Minimal/flop.c",line 329,column 18,is_stmt
    1259              
    1260 0003a0 A902          MOV *SP(#1), AR1 ; |329| 
    1261 0003a2 3D4A  ||      MOV #4, AR2
    1262              
    1263 0003a4 1298          CMP AR1 >= AR2, TC1 ; |329| 
         0003a6 A0   
    1264 0003a7 0464          BCC $C$L20,TC1 ; |329| 
         0003a9 22   
    1265                                                      ; branchcc occurs ; |329| 
    1266 0003aa       $C$L17:    
    1267 0003aa       $C$DW$L$_xAreMathsTaskStillRunning$2$B:
    1268                      .dwpsn  file "../FreeRTOS/Demo/Common/Minimal/flop.c",line 331,column 3,is_stmt
    1269 0003aa 2294          MOV AR1, T0 ; |331| 
    1270 0003ac EC31          AMOV #_usTaskCheck, XAR3 ; |331| 
         0003ae BE00 
         0003b0 0000-
    1271 0003b2 F06B          CMP *AR3(T0) == #1, TC1 ; |331| 
         0003b4 0001 
    1272 0003b6 62E4          BCC $C$L18,TC1 ; |331| 
    1273                                                      ; branchcc occurs ; |331| 
    1274 0003b8       $C$DW$L$_xAreMathsTaskStillRunning$2$E:
    1275 0003b8       $C$DW$L$_xAreMathsTaskStillRunning$3$B:
    1276                      .dwpsn  file "../FreeRTOS/Demo/Common/Minimal/flop.c",line 335,column 4,is_stmt
    1277 0003b8 E600          MOV #0, *SP(#0) ; |335| 
         0003ba 00   
    1278                      .dwpsn  file "../FreeRTOS/Demo/Common/Minimal/flop.c",line 336,column 3,is_stmt
    1279 0003bb 4A03          B $C$L19  ; |336| 
    1280                                                      ; branch occurs ; |336| 
    1281 0003bd       $C$DW$L$_xAreMathsTaskStillRunning$3$E:
    1282 0003bd       $C$L18:    
    1283 0003bd       $C$DW$L$_xAreMathsTaskStillRunning$4$B:
    1284                      .dwpsn  file "../FreeRTOS/Demo/Common/Minimal/flop.c",line 341,column 4,is_stmt
    1285 0003bd E66B          MOV #0, *AR3(T0) ; |341| 
         0003bf 00   
    1286 0003c0       $C$DW$L$_xAreMathsTaskStillRunning$4$E:
    1287 0003c0       $C$L19:    
    1288 0003c0       $C$DW$L$_xAreMathsTaskStillRunning$5$B:
    1289                      .dwpsn  file "../FreeRTOS/Demo/Common/Minimal/flop.c",line 329,column 47,is_stmt
TMS320C55x Assembler PC v4.4.1 Thu Sep 20 01:43:04 2018

Tools Copyright (c) 1996-2012 Texas Instruments Incorporated
flop.asm                                                             PAGE   29

    1290 0003c0 F702          ADD #1, *SP(#1) ; |329| 
         0003c2 0001 
    1291                      .dwpsn  file "../FreeRTOS/Demo/Common/Minimal/flop.c",line 329,column 18,is_stmt
    1292 0003c4 A902          MOV *SP(#1), AR1 ; |329| 
    1293 0003c6 1294          CMP AR1 < AR2, TC1 ; |329| 
         0003c8 A0   
    1294 0003c9 0464          BCC $C$L17,TC1 ; |329| 
         0003cb DE   
    1295                                                      ; branchcc occurs ; |329| 
    1296 0003cc       $C$DW$L$_xAreMathsTaskStillRunning$5$E:
    1297 0003cc       $C$L20:    
    1298                      .dwpsn  file "../FreeRTOS/Demo/Common/Minimal/flop.c",line 345,column 2,is_stmt
    1299 0003cc A400          MOV *SP(#0), T0 ; |345| 
    1300                      .dwpsn  file "../FreeRTOS/Demo/Common/Minimal/flop.c",line 346,column 1,is_stmt
    1301 0003ce 4E03          AADD #3, SP
    1302                      .dwcfi  cfa_offset, 1
    1303              $C$DW$128       .dwtag  DW_TAG_TI_branch
    1304                      .dwattr $C$DW$128, DW_AT_low_pc(0x00)
    1305                      .dwattr $C$DW$128, DW_AT_TI_return
    1306 0003d0 4804          RET
    1307                                                      ; return occurs
    1308              
    1309              $C$DW$129       .dwtag  DW_TAG_TI_loop
    1310                      .dwattr $C$DW$129, DW_AT_name("F:\eZdsp_DBG\eZDSP_5535_Files\ccsws2\test\Debug\flop.asm:$C$L17:1:1537
    1311                      .dwattr $C$DW$129, DW_AT_TI_begin_file("../FreeRTOS/Demo/Common/Minimal/flop.c")
    1312                      .dwattr $C$DW$129, DW_AT_TI_begin_line(0x149)
    1313                      .dwattr $C$DW$129, DW_AT_TI_end_line(0x157)
    1314              $C$DW$130       .dwtag  DW_TAG_TI_loop_range
    1315                      .dwattr $C$DW$130, DW_AT_low_pc($C$DW$L$_xAreMathsTaskStillRunning$2$B)
    1316                      .dwattr $C$DW$130, DW_AT_high_pc($C$DW$L$_xAreMathsTaskStillRunning$2$E)
    1317              $C$DW$131       .dwtag  DW_TAG_TI_loop_range
    1318                      .dwattr $C$DW$131, DW_AT_low_pc($C$DW$L$_xAreMathsTaskStillRunning$3$B)
    1319                      .dwattr $C$DW$131, DW_AT_high_pc($C$DW$L$_xAreMathsTaskStillRunning$3$E)
    1320              $C$DW$132       .dwtag  DW_TAG_TI_loop_range
    1321                      .dwattr $C$DW$132, DW_AT_low_pc($C$DW$L$_xAreMathsTaskStillRunning$4$B)
    1322                      .dwattr $C$DW$132, DW_AT_high_pc($C$DW$L$_xAreMathsTaskStillRunning$4$E)
    1323              $C$DW$133       .dwtag  DW_TAG_TI_loop_range
    1324                      .dwattr $C$DW$133, DW_AT_low_pc($C$DW$L$_xAreMathsTaskStillRunning$5$B)
    1325                      .dwattr $C$DW$133, DW_AT_high_pc($C$DW$L$_xAreMathsTaskStillRunning$5$E)
    1326                      .dwendtag $C$DW$129
    1327              
    1328                      .dwattr $C$DW$125, DW_AT_TI_end_file("../FreeRTOS/Demo/Common/Minimal/flop.c")
    1329                      .dwattr $C$DW$125, DW_AT_TI_end_line(0x15a)
    1330                      .dwattr $C$DW$125, DW_AT_TI_end_column(0x01)
    1331                      .dwendentry
    1332                      .dwendtag $C$DW$125
    1333              
    1334              ;*******************************************************************************
    1335              ;* FLOATING-POINT CONSTANTS                                                    *
    1336              ;*******************************************************************************
    1337 000000               .sect   ".const"
    1338                      .align  2
    1339 000000 42F6  $C$FL1: .xlong  0x42f6e9d5
         000001 E9D5 
    1340                      .align  2
TMS320C55x Assembler PC v4.4.1 Thu Sep 20 01:43:04 2018

Tools Copyright (c) 1996-2012 Texas Instruments Incorporated
flop.asm                                                             PAGE   30

    1341 000002 4512  $C$FL2: .xlong  0x45129add
         000003 9ADD 
    1342                      .align  2
    1343 000004 C465  $C$FL3: .xlong  0xc4658e35
         000005 8E35 
    1344                      .align  2
    1345 000006 3A83  $C$FL4: .xlong  0x3a83126f
         000007 126F 
    1346                      .align  2
    1347 000008 C3C2  $C$FL5: .xlong  0xc3c2b0a4
         000009 B0A4 
    1348                      .align  2
    1349 00000a 46FD  $C$FL6: .xlong  0x46fde466
         00000b E466 
    1350                      .align  2
    1351 00000c C000  $C$FL7: .xlong  0xc00001a3
         00000d 01A3 
    1352                      .align  2
    1353 00000e 0000  $C$FL8: .xlong  0x00000000
         00000f 0000 
    1354                      .align  2
    1355 000010 40B0  $C$FL9: .xlong  0x40b00000
         000011 0000 
    1356                      .align  2
    1357 000012 4141  $C$FL10:        .xlong  0x4141f7cf
         000013 F7CF 
    1358              ;*******************************************************************************
    1359              ;* FAR STRINGS                                                                 *
    1360              ;*******************************************************************************
    1361 000000               .sect   ".const:.string"
    1362                      .align  2
    1363 000000 004D  $C$FSL1:        .string "Math1",0
         000001 0061 
         000002 0074 
         000003 0068 
         000004 0031 
         000005 0000 
    1364                      .align  2
    1365 000006 004D  $C$FSL2:        .string "Math2",0
         000007 0061 
         000008 0074 
         000009 0068 
         00000a 0032 
         00000b 0000 
    1366                      .align  2
    1367 00000c 004D  $C$FSL3:        .string "Math3",0
         00000d 0061 
         00000e 0074 
         00000f 0068 
         000010 0033 
         000011 0000 
    1368                      .align  2
    1369 000012 004D  $C$FSL4:        .string "Math4",0
         000013 0061 
         000014 0074 
TMS320C55x Assembler PC v4.4.1 Thu Sep 20 01:43:04 2018

Tools Copyright (c) 1996-2012 Texas Instruments Incorporated
flop.asm                                                             PAGE   31

         000015 0068 
         000016 0034 
         000017 0000 
    1370              ;******************************************************************************
    1371              ;* UNDEFINED EXTERNAL REFERENCES                                              *
    1372              ;******************************************************************************
    1373                      .global _pvPortMalloc
    1374                      .global _xTaskCreate
    1375                      .global __addd
    1376                      .global __mpyd
    1377                      .global __subd
    1378                      .global __cmpd
    1379                      .global __divd
    1380                      .global __fltud
    1381              
    1382              ;*******************************************************************************
    1383              ;* TYPE INFORMATION                                                            *
    1384              ;*******************************************************************************
    1385              $C$DW$T$3       .dwtag  DW_TAG_pointer_type
    1386                      .dwattr $C$DW$T$3, DW_AT_address_class(0x17)
    1387              $C$DW$134       .dwtag  DW_TAG_TI_far_type
    1388                      .dwattr $C$DW$134, DW_AT_type(*$C$DW$T$3)
    1389              $C$DW$T$23      .dwtag  DW_TAG_const_type
    1390                      .dwattr $C$DW$T$23, DW_AT_type(*$C$DW$134)
    1391              
    1392              $C$DW$T$24      .dwtag  DW_TAG_subroutine_type
    1393                      .dwattr $C$DW$T$24, DW_AT_language(DW_LANG_C)
    1394              $C$DW$135       .dwtag  DW_TAG_formal_parameter
    1395                      .dwattr $C$DW$135, DW_AT_type(*$C$DW$T$3)
    1396                      .dwendtag $C$DW$T$24
    1397              
    1398              $C$DW$T$25      .dwtag  DW_TAG_pointer_type
    1399                      .dwattr $C$DW$T$25, DW_AT_type(*$C$DW$T$24)
    1400                      .dwattr $C$DW$T$25, DW_AT_address_class(0x20)
    1401              $C$DW$T$26      .dwtag  DW_TAG_typedef, DW_AT_name("TaskFunction_t")
    1402                      .dwattr $C$DW$T$26, DW_AT_type(*$C$DW$T$25)
    1403                      .dwattr $C$DW$T$26, DW_AT_language(DW_LANG_C)
    1404              $C$DW$T$4       .dwtag  DW_TAG_base_type
    1405                      .dwattr $C$DW$T$4, DW_AT_encoding(DW_ATE_boolean)
    1406                      .dwattr $C$DW$T$4, DW_AT_name("bool")
    1407                      .dwattr $C$DW$T$4, DW_AT_byte_size(0x01)
    1408              $C$DW$T$5       .dwtag  DW_TAG_base_type
    1409                      .dwattr $C$DW$T$5, DW_AT_encoding(DW_ATE_signed_char)
    1410                      .dwattr $C$DW$T$5, DW_AT_name("signed char")
    1411                      .dwattr $C$DW$T$5, DW_AT_byte_size(0x01)
    1412              $C$DW$T$6       .dwtag  DW_TAG_base_type
    1413                      .dwattr $C$DW$T$6, DW_AT_encoding(DW_ATE_unsigned_char)
    1414                      .dwattr $C$DW$T$6, DW_AT_name("unsigned char")
    1415                      .dwattr $C$DW$T$6, DW_AT_byte_size(0x01)
    1416              $C$DW$T$7       .dwtag  DW_TAG_base_type
    1417                      .dwattr $C$DW$T$7, DW_AT_encoding(DW_ATE_signed_char)
    1418                      .dwattr $C$DW$T$7, DW_AT_name("wchar_t")
    1419                      .dwattr $C$DW$T$7, DW_AT_byte_size(0x01)
    1420              $C$DW$T$8       .dwtag  DW_TAG_base_type
    1421                      .dwattr $C$DW$T$8, DW_AT_encoding(DW_ATE_signed)
TMS320C55x Assembler PC v4.4.1 Thu Sep 20 01:43:04 2018

Tools Copyright (c) 1996-2012 Texas Instruments Incorporated
flop.asm                                                             PAGE   32

    1422                      .dwattr $C$DW$T$8, DW_AT_name("short")
    1423                      .dwattr $C$DW$T$8, DW_AT_byte_size(0x01)
    1424              $C$DW$T$29      .dwtag  DW_TAG_typedef, DW_AT_name("BaseType_t")
    1425                      .dwattr $C$DW$T$29, DW_AT_type(*$C$DW$T$8)
    1426                      .dwattr $C$DW$T$29, DW_AT_language(DW_LANG_C)
    1427              $C$DW$T$9       .dwtag  DW_TAG_base_type
    1428                      .dwattr $C$DW$T$9, DW_AT_encoding(DW_ATE_unsigned)
    1429                      .dwattr $C$DW$T$9, DW_AT_name("unsigned short")
    1430                      .dwattr $C$DW$T$9, DW_AT_byte_size(0x01)
    1431              $C$DW$T$27      .dwtag  DW_TAG_typedef, DW_AT_name("UBaseType_t")
    1432                      .dwattr $C$DW$T$27, DW_AT_type(*$C$DW$T$9)
    1433                      .dwattr $C$DW$T$27, DW_AT_language(DW_LANG_C)
    1434              $C$DW$T$10      .dwtag  DW_TAG_base_type
    1435                      .dwattr $C$DW$T$10, DW_AT_encoding(DW_ATE_signed)
    1436                      .dwattr $C$DW$T$10, DW_AT_name("int")
    1437                      .dwattr $C$DW$T$10, DW_AT_byte_size(0x01)
    1438              $C$DW$T$11      .dwtag  DW_TAG_base_type
    1439                      .dwattr $C$DW$T$11, DW_AT_encoding(DW_ATE_unsigned)
    1440                      .dwattr $C$DW$T$11, DW_AT_name("unsigned int")
    1441                      .dwattr $C$DW$T$11, DW_AT_byte_size(0x01)
    1442              $C$DW$T$20      .dwtag  DW_TAG_typedef, DW_AT_name("size_t")
    1443                      .dwattr $C$DW$T$20, DW_AT_type(*$C$DW$T$11)
    1444                      .dwattr $C$DW$T$20, DW_AT_language(DW_LANG_C)
    1445              $C$DW$136       .dwtag  DW_TAG_TI_far_type
    1446                      .dwattr $C$DW$136, DW_AT_type(*$C$DW$T$20)
    1447              $C$DW$T$43      .dwtag  DW_TAG_const_type
    1448                      .dwattr $C$DW$T$43, DW_AT_type(*$C$DW$136)
    1449              $C$DW$T$34      .dwtag  DW_TAG_typedef, DW_AT_name("uint16_t")
    1450                      .dwattr $C$DW$T$34, DW_AT_type(*$C$DW$T$11)
    1451                      .dwattr $C$DW$T$34, DW_AT_language(DW_LANG_C)
    1452              
    1453              $C$DW$T$44      .dwtag  DW_TAG_array_type
    1454                      .dwattr $C$DW$T$44, DW_AT_type(*$C$DW$T$34)
    1455                      .dwattr $C$DW$T$44, DW_AT_language(DW_LANG_C)
    1456                      .dwattr $C$DW$T$44, DW_AT_byte_size(0x04)
    1457              $C$DW$137       .dwtag  DW_TAG_subrange_type
    1458                      .dwattr $C$DW$137, DW_AT_upper_bound(0x03)
    1459                      .dwendtag $C$DW$T$44
    1460              
    1461              $C$DW$138       .dwtag  DW_TAG_TI_far_type
    1462                      .dwattr $C$DW$138, DW_AT_type(*$C$DW$T$34)
    1463              $C$DW$T$35      .dwtag  DW_TAG_const_type
    1464                      .dwattr $C$DW$T$35, DW_AT_type(*$C$DW$138)
    1465              $C$DW$139       .dwtag  DW_TAG_TI_far_type
    1466                      .dwattr $C$DW$139, DW_AT_type(*$C$DW$T$34)
    1467              $C$DW$T$46      .dwtag  DW_TAG_volatile_type
    1468                      .dwattr $C$DW$T$46, DW_AT_type(*$C$DW$139)
    1469              $C$DW$T$47      .dwtag  DW_TAG_pointer_type
    1470                      .dwattr $C$DW$T$47, DW_AT_type(*$C$DW$T$46)
    1471                      .dwattr $C$DW$T$47, DW_AT_address_class(0x17)
    1472              $C$DW$T$12      .dwtag  DW_TAG_base_type
    1473                      .dwattr $C$DW$T$12, DW_AT_encoding(DW_ATE_signed)
    1474                      .dwattr $C$DW$T$12, DW_AT_name("long")
    1475                      .dwattr $C$DW$T$12, DW_AT_byte_size(0x02)
    1476              $C$DW$T$13      .dwtag  DW_TAG_base_type
TMS320C55x Assembler PC v4.4.1 Thu Sep 20 01:43:04 2018

Tools Copyright (c) 1996-2012 Texas Instruments Incorporated
flop.asm                                                             PAGE   33

    1477                      .dwattr $C$DW$T$13, DW_AT_encoding(DW_ATE_unsigned)
    1478                      .dwattr $C$DW$T$13, DW_AT_name("unsigned long")
    1479                      .dwattr $C$DW$T$13, DW_AT_byte_size(0x02)
    1480              $C$DW$T$14      .dwtag  DW_TAG_base_type
    1481                      .dwattr $C$DW$T$14, DW_AT_encoding(DW_ATE_signed)
    1482                      .dwattr $C$DW$T$14, DW_AT_name("long long")
    1483                      .dwattr $C$DW$T$14, DW_AT_byte_size(0x04)
    1484                      .dwattr $C$DW$T$14, DW_AT_bit_size(0x28)
    1485                      .dwattr $C$DW$T$14, DW_AT_bit_offset(0x18)
    1486              $C$DW$T$15      .dwtag  DW_TAG_base_type
    1487                      .dwattr $C$DW$T$15, DW_AT_encoding(DW_ATE_unsigned)
    1488                      .dwattr $C$DW$T$15, DW_AT_name("unsigned long long")
    1489                      .dwattr $C$DW$T$15, DW_AT_byte_size(0x04)
    1490                      .dwattr $C$DW$T$15, DW_AT_bit_size(0x28)
    1491                      .dwattr $C$DW$T$15, DW_AT_bit_offset(0x18)
    1492              $C$DW$T$16      .dwtag  DW_TAG_base_type
    1493                      .dwattr $C$DW$T$16, DW_AT_encoding(DW_ATE_float)
    1494                      .dwattr $C$DW$T$16, DW_AT_name("float")
    1495                      .dwattr $C$DW$T$16, DW_AT_byte_size(0x02)
    1496              $C$DW$T$17      .dwtag  DW_TAG_base_type
    1497                      .dwattr $C$DW$T$17, DW_AT_encoding(DW_ATE_float)
    1498                      .dwattr $C$DW$T$17, DW_AT_name("double")
    1499                      .dwattr $C$DW$T$17, DW_AT_byte_size(0x02)
    1500              $C$DW$140       .dwtag  DW_TAG_TI_far_type
    1501                      .dwattr $C$DW$140, DW_AT_type(*$C$DW$T$17)
    1502              $C$DW$T$49      .dwtag  DW_TAG_volatile_type
    1503                      .dwattr $C$DW$T$49, DW_AT_type(*$C$DW$140)
    1504              $C$DW$T$50      .dwtag  DW_TAG_pointer_type
    1505                      .dwattr $C$DW$T$50, DW_AT_type(*$C$DW$T$49)
    1506                      .dwattr $C$DW$T$50, DW_AT_address_class(0x17)
    1507              $C$DW$T$18      .dwtag  DW_TAG_base_type
    1508                      .dwattr $C$DW$T$18, DW_AT_encoding(DW_ATE_float)
    1509                      .dwattr $C$DW$T$18, DW_AT_name("long double")
    1510                      .dwattr $C$DW$T$18, DW_AT_byte_size(0x02)
    1511              $C$DW$T$30      .dwtag  DW_TAG_base_type
    1512                      .dwattr $C$DW$T$30, DW_AT_encoding(DW_ATE_signed_char)
    1513                      .dwattr $C$DW$T$30, DW_AT_name("signed char")
    1514                      .dwattr $C$DW$T$30, DW_AT_byte_size(0x01)
    1515              $C$DW$141       .dwtag  DW_TAG_TI_far_type
    1516                      .dwattr $C$DW$141, DW_AT_type(*$C$DW$T$30)
    1517              $C$DW$T$31      .dwtag  DW_TAG_const_type
    1518                      .dwattr $C$DW$T$31, DW_AT_type(*$C$DW$141)
    1519              $C$DW$T$32      .dwtag  DW_TAG_pointer_type
    1520                      .dwattr $C$DW$T$32, DW_AT_type(*$C$DW$T$31)
    1521                      .dwattr $C$DW$T$32, DW_AT_address_class(0x17)
    1522              $C$DW$142       .dwtag  DW_TAG_TI_far_type
    1523                      .dwattr $C$DW$142, DW_AT_type(*$C$DW$T$32)
    1524              $C$DW$T$33      .dwtag  DW_TAG_const_type
    1525                      .dwattr $C$DW$T$33, DW_AT_type(*$C$DW$142)
    1526              
    1527              $C$DW$T$19      .dwtag  DW_TAG_structure_type
    1528                      .dwattr $C$DW$T$19, DW_AT_name("tskTaskControlBlock")
    1529                      .dwattr $C$DW$T$19, DW_AT_declaration
    1530                      .dwendtag $C$DW$T$19
    1531              
TMS320C55x Assembler PC v4.4.1 Thu Sep 20 01:43:04 2018

Tools Copyright (c) 1996-2012 Texas Instruments Incorporated
flop.asm                                                             PAGE   34

    1532              $C$DW$T$36      .dwtag  DW_TAG_pointer_type
    1533                      .dwattr $C$DW$T$36, DW_AT_type(*$C$DW$T$19)
    1534                      .dwattr $C$DW$T$36, DW_AT_address_class(0x17)
    1535              $C$DW$T$37      .dwtag  DW_TAG_typedef, DW_AT_name("TaskHandle_t")
    1536                      .dwattr $C$DW$T$37, DW_AT_type(*$C$DW$T$36)
    1537                      .dwattr $C$DW$T$37, DW_AT_language(DW_LANG_C)
    1538              $C$DW$T$38      .dwtag  DW_TAG_pointer_type
    1539                      .dwattr $C$DW$T$38, DW_AT_type(*$C$DW$T$37)
    1540                      .dwattr $C$DW$T$38, DW_AT_address_class(0x17)
    1541              $C$DW$143       .dwtag  DW_TAG_TI_far_type
    1542                      .dwattr $C$DW$143, DW_AT_type(*$C$DW$T$38)
    1543              $C$DW$T$39      .dwtag  DW_TAG_const_type
    1544                      .dwattr $C$DW$T$39, DW_AT_type(*$C$DW$143)
    1545                      .dwattr $C$DW$CU, DW_AT_language(DW_LANG_C)
    1546              
    1547              ;***************************************************************
    1548              ;* DWARF CIE ENTRIES                                           *
    1549              ;***************************************************************
    1550              
    1551              $C$DW$CIE       .dwcie 91
    1552                      .dwcfi  cfa_register, 36
    1553                      .dwcfi  cfa_offset, 0
    1554                      .dwcfi  undefined, 0
    1555                      .dwcfi  undefined, 1
    1556                      .dwcfi  undefined, 2
    1557                      .dwcfi  undefined, 3
    1558                      .dwcfi  undefined, 4
    1559                      .dwcfi  undefined, 5
    1560                      .dwcfi  undefined, 6
    1561                      .dwcfi  undefined, 7
    1562                      .dwcfi  undefined, 8
    1563                      .dwcfi  undefined, 9
    1564                      .dwcfi  undefined, 10
    1565                      .dwcfi  undefined, 11
    1566                      .dwcfi  undefined, 12
    1567                      .dwcfi  undefined, 13
    1568                      .dwcfi  same_value, 14
    1569                      .dwcfi  same_value, 15
    1570                      .dwcfi  undefined, 16
    1571                      .dwcfi  undefined, 17
    1572                      .dwcfi  undefined, 18
    1573                      .dwcfi  undefined, 19
    1574                      .dwcfi  undefined, 20
    1575                      .dwcfi  undefined, 21
    1576                      .dwcfi  undefined, 22
    1577                      .dwcfi  undefined, 23
    1578                      .dwcfi  undefined, 24
    1579                      .dwcfi  undefined, 25
    1580                      .dwcfi  same_value, 26
    1581                      .dwcfi  same_value, 27
    1582                      .dwcfi  same_value, 28
    1583                      .dwcfi  same_value, 29
    1584                      .dwcfi  same_value, 30
    1585                      .dwcfi  same_value, 31
    1586                      .dwcfi  undefined, 32
TMS320C55x Assembler PC v4.4.1 Thu Sep 20 01:43:04 2018

Tools Copyright (c) 1996-2012 Texas Instruments Incorporated
flop.asm                                                             PAGE   35

    1587                      .dwcfi  undefined, 33
    1588                      .dwcfi  undefined, 34
    1589                      .dwcfi  undefined, 35
    1590                      .dwcfi  undefined, 36
    1591                      .dwcfi  undefined, 37
    1592                      .dwcfi  undefined, 38
    1593                      .dwcfi  undefined, 39
    1594                      .dwcfi  undefined, 40
    1595                      .dwcfi  undefined, 41
    1596                      .dwcfi  undefined, 42
    1597                      .dwcfi  undefined, 43
    1598                      .dwcfi  undefined, 44
    1599                      .dwcfi  undefined, 45
    1600                      .dwcfi  undefined, 46
    1601                      .dwcfi  undefined, 47
    1602                      .dwcfi  undefined, 48
    1603                      .dwcfi  undefined, 49
    1604                      .dwcfi  undefined, 50
    1605                      .dwcfi  undefined, 51
    1606                      .dwcfi  undefined, 52
    1607                      .dwcfi  undefined, 53
    1608                      .dwcfi  undefined, 54
    1609                      .dwcfi  undefined, 55
    1610                      .dwcfi  undefined, 56
    1611                      .dwcfi  undefined, 57
    1612                      .dwcfi  undefined, 58
    1613                      .dwcfi  undefined, 59
    1614                      .dwcfi  undefined, 60
    1615                      .dwcfi  undefined, 61
    1616                      .dwcfi  undefined, 62
    1617                      .dwcfi  undefined, 63
    1618                      .dwcfi  undefined, 64
    1619                      .dwcfi  undefined, 65
    1620                      .dwcfi  undefined, 66
    1621                      .dwcfi  undefined, 67
    1622                      .dwcfi  undefined, 68
    1623                      .dwcfi  undefined, 69
    1624                      .dwcfi  undefined, 70
    1625                      .dwcfi  undefined, 71
    1626                      .dwcfi  undefined, 72
    1627                      .dwcfi  undefined, 73
    1628                      .dwcfi  undefined, 74
    1629                      .dwcfi  undefined, 75
    1630                      .dwcfi  undefined, 76
    1631                      .dwcfi  undefined, 77
    1632                      .dwcfi  undefined, 78
    1633                      .dwcfi  undefined, 79
    1634                      .dwcfi  undefined, 80
    1635                      .dwcfi  undefined, 81
    1636                      .dwcfi  undefined, 82
    1637                      .dwcfi  undefined, 83
    1638                      .dwcfi  undefined, 84
    1639                      .dwcfi  undefined, 85
    1640                      .dwcfi  undefined, 86
    1641                      .dwcfi  undefined, 87
TMS320C55x Assembler PC v4.4.1 Thu Sep 20 01:43:04 2018

Tools Copyright (c) 1996-2012 Texas Instruments Incorporated
flop.asm                                                             PAGE   36

    1642                      .dwcfi  undefined, 88
    1643                      .dwcfi  undefined, 89
    1644                      .dwcfi  undefined, 90
    1645                      .dwcfi  undefined, 91
    1646                      .dwendentry
    1647              
    1648              ;***************************************************************
    1649              ;* DWARF REGISTER MAP                                          *
    1650              ;***************************************************************
    1651              
    1652              $C$DW$144       .dwtag  DW_TAG_TI_assign_register, DW_AT_name("AC0")
    1653                      .dwattr $C$DW$144, DW_AT_location[DW_OP_reg0]
    1654              $C$DW$145       .dwtag  DW_TAG_TI_assign_register, DW_AT_name("AC0")
    1655                      .dwattr $C$DW$145, DW_AT_location[DW_OP_reg1]
    1656              $C$DW$146       .dwtag  DW_TAG_TI_assign_register, DW_AT_name("AC0_G")
    1657                      .dwattr $C$DW$146, DW_AT_location[DW_OP_reg2]
    1658              $C$DW$147       .dwtag  DW_TAG_TI_assign_register, DW_AT_name("AC1")
    1659                      .dwattr $C$DW$147, DW_AT_location[DW_OP_reg3]
    1660              $C$DW$148       .dwtag  DW_TAG_TI_assign_register, DW_AT_name("AC1")
    1661                      .dwattr $C$DW$148, DW_AT_location[DW_OP_reg4]
    1662              $C$DW$149       .dwtag  DW_TAG_TI_assign_register, DW_AT_name("AC1_G")
    1663                      .dwattr $C$DW$149, DW_AT_location[DW_OP_reg5]
    1664              $C$DW$150       .dwtag  DW_TAG_TI_assign_register, DW_AT_name("AC2")
    1665                      .dwattr $C$DW$150, DW_AT_location[DW_OP_reg6]
    1666              $C$DW$151       .dwtag  DW_TAG_TI_assign_register, DW_AT_name("AC2")
    1667                      .dwattr $C$DW$151, DW_AT_location[DW_OP_reg7]
    1668              $C$DW$152       .dwtag  DW_TAG_TI_assign_register, DW_AT_name("AC2_G")
    1669                      .dwattr $C$DW$152, DW_AT_location[DW_OP_reg8]
    1670              $C$DW$153       .dwtag  DW_TAG_TI_assign_register, DW_AT_name("AC3")
    1671                      .dwattr $C$DW$153, DW_AT_location[DW_OP_reg9]
    1672              $C$DW$154       .dwtag  DW_TAG_TI_assign_register, DW_AT_name("AC3")
    1673                      .dwattr $C$DW$154, DW_AT_location[DW_OP_reg10]
    1674              $C$DW$155       .dwtag  DW_TAG_TI_assign_register, DW_AT_name("AC3_G")
    1675                      .dwattr $C$DW$155, DW_AT_location[DW_OP_reg11]
    1676              $C$DW$156       .dwtag  DW_TAG_TI_assign_register, DW_AT_name("T0")
    1677                      .dwattr $C$DW$156, DW_AT_location[DW_OP_reg12]
    1678              $C$DW$157       .dwtag  DW_TAG_TI_assign_register, DW_AT_name("T1")
    1679                      .dwattr $C$DW$157, DW_AT_location[DW_OP_reg13]
    1680              $C$DW$158       .dwtag  DW_TAG_TI_assign_register, DW_AT_name("T2")
    1681                      .dwattr $C$DW$158, DW_AT_location[DW_OP_reg14]
    1682              $C$DW$159       .dwtag  DW_TAG_TI_assign_register, DW_AT_name("T3")
    1683                      .dwattr $C$DW$159, DW_AT_location[DW_OP_reg15]
    1684              $C$DW$160       .dwtag  DW_TAG_TI_assign_register, DW_AT_name("AR0")
    1685                      .dwattr $C$DW$160, DW_AT_location[DW_OP_reg16]
    1686              $C$DW$161       .dwtag  DW_TAG_TI_assign_register, DW_AT_name("XAR0")
    1687                      .dwattr $C$DW$161, DW_AT_location[DW_OP_reg17]
    1688              $C$DW$162       .dwtag  DW_TAG_TI_assign_register, DW_AT_name("AR1")
    1689                      .dwattr $C$DW$162, DW_AT_location[DW_OP_reg18]
    1690              $C$DW$163       .dwtag  DW_TAG_TI_assign_register, DW_AT_name("XAR1")
    1691                      .dwattr $C$DW$163, DW_AT_location[DW_OP_reg19]
    1692              $C$DW$164       .dwtag  DW_TAG_TI_assign_register, DW_AT_name("AR2")
    1693                      .dwattr $C$DW$164, DW_AT_location[DW_OP_reg20]
    1694              $C$DW$165       .dwtag  DW_TAG_TI_assign_register, DW_AT_name("XAR2")
    1695                      .dwattr $C$DW$165, DW_AT_location[DW_OP_reg21]
    1696              $C$DW$166       .dwtag  DW_TAG_TI_assign_register, DW_AT_name("AR3")
TMS320C55x Assembler PC v4.4.1 Thu Sep 20 01:43:04 2018

Tools Copyright (c) 1996-2012 Texas Instruments Incorporated
flop.asm                                                             PAGE   37

    1697                      .dwattr $C$DW$166, DW_AT_location[DW_OP_reg22]
    1698              $C$DW$167       .dwtag  DW_TAG_TI_assign_register, DW_AT_name("XAR3")
    1699                      .dwattr $C$DW$167, DW_AT_location[DW_OP_reg23]
    1700              $C$DW$168       .dwtag  DW_TAG_TI_assign_register, DW_AT_name("AR4")
    1701                      .dwattr $C$DW$168, DW_AT_location[DW_OP_reg24]
    1702              $C$DW$169       .dwtag  DW_TAG_TI_assign_register, DW_AT_name("XAR4")
    1703                      .dwattr $C$DW$169, DW_AT_location[DW_OP_reg25]
    1704              $C$DW$170       .dwtag  DW_TAG_TI_assign_register, DW_AT_name("AR5")
    1705                      .dwattr $C$DW$170, DW_AT_location[DW_OP_reg26]
    1706              $C$DW$171       .dwtag  DW_TAG_TI_assign_register, DW_AT_name("XAR5")
    1707                      .dwattr $C$DW$171, DW_AT_location[DW_OP_reg27]
    1708              $C$DW$172       .dwtag  DW_TAG_TI_assign_register, DW_AT_name("AR6")
    1709                      .dwattr $C$DW$172, DW_AT_location[DW_OP_reg28]
    1710              $C$DW$173       .dwtag  DW_TAG_TI_assign_register, DW_AT_name("XAR6")
    1711                      .dwattr $C$DW$173, DW_AT_location[DW_OP_reg29]
    1712              $C$DW$174       .dwtag  DW_TAG_TI_assign_register, DW_AT_name("AR7")
    1713                      .dwattr $C$DW$174, DW_AT_location[DW_OP_reg30]
    1714              $C$DW$175       .dwtag  DW_TAG_TI_assign_register, DW_AT_name("XAR7")
    1715                      .dwattr $C$DW$175, DW_AT_location[DW_OP_reg31]
    1716              $C$DW$176       .dwtag  DW_TAG_TI_assign_register, DW_AT_name("FP")
    1717                      .dwattr $C$DW$176, DW_AT_location[DW_OP_regx 0x20]
    1718              $C$DW$177       .dwtag  DW_TAG_TI_assign_register, DW_AT_name("XFP")
    1719                      .dwattr $C$DW$177, DW_AT_location[DW_OP_regx 0x21]
    1720              $C$DW$178       .dwtag  DW_TAG_TI_assign_register, DW_AT_name("PC")
    1721                      .dwattr $C$DW$178, DW_AT_location[DW_OP_regx 0x22]
    1722              $C$DW$179       .dwtag  DW_TAG_TI_assign_register, DW_AT_name("SP")
    1723                      .dwattr $C$DW$179, DW_AT_location[DW_OP_regx 0x23]
    1724              $C$DW$180       .dwtag  DW_TAG_TI_assign_register, DW_AT_name("XSP")
    1725                      .dwattr $C$DW$180, DW_AT_location[DW_OP_regx 0x24]
    1726              $C$DW$181       .dwtag  DW_TAG_TI_assign_register, DW_AT_name("BKC")
    1727                      .dwattr $C$DW$181, DW_AT_location[DW_OP_regx 0x25]
    1728              $C$DW$182       .dwtag  DW_TAG_TI_assign_register, DW_AT_name("BK03")
    1729                      .dwattr $C$DW$182, DW_AT_location[DW_OP_regx 0x26]
    1730              $C$DW$183       .dwtag  DW_TAG_TI_assign_register, DW_AT_name("BK47")
    1731                      .dwattr $C$DW$183, DW_AT_location[DW_OP_regx 0x27]
    1732              $C$DW$184       .dwtag  DW_TAG_TI_assign_register, DW_AT_name("ST0")
    1733                      .dwattr $C$DW$184, DW_AT_location[DW_OP_regx 0x28]
    1734              $C$DW$185       .dwtag  DW_TAG_TI_assign_register, DW_AT_name("ST1")
    1735                      .dwattr $C$DW$185, DW_AT_location[DW_OP_regx 0x29]
    1736              $C$DW$186       .dwtag  DW_TAG_TI_assign_register, DW_AT_name("ST2")
    1737                      .dwattr $C$DW$186, DW_AT_location[DW_OP_regx 0x2a]
    1738              $C$DW$187       .dwtag  DW_TAG_TI_assign_register, DW_AT_name("ST3")
    1739                      .dwattr $C$DW$187, DW_AT_location[DW_OP_regx 0x2b]
    1740              $C$DW$188       .dwtag  DW_TAG_TI_assign_register, DW_AT_name("MDP")
    1741                      .dwattr $C$DW$188, DW_AT_location[DW_OP_regx 0x2c]
    1742              $C$DW$189       .dwtag  DW_TAG_TI_assign_register, DW_AT_name("MDP05")
    1743                      .dwattr $C$DW$189, DW_AT_location[DW_OP_regx 0x2d]
    1744              $C$DW$190       .dwtag  DW_TAG_TI_assign_register, DW_AT_name("MDP67")
    1745                      .dwattr $C$DW$190, DW_AT_location[DW_OP_regx 0x2e]
    1746              $C$DW$191       .dwtag  DW_TAG_TI_assign_register, DW_AT_name("BRC0")
    1747                      .dwattr $C$DW$191, DW_AT_location[DW_OP_regx 0x2f]
    1748              $C$DW$192       .dwtag  DW_TAG_TI_assign_register, DW_AT_name("RSA0")
    1749                      .dwattr $C$DW$192, DW_AT_location[DW_OP_regx 0x30]
    1750              $C$DW$193       .dwtag  DW_TAG_TI_assign_register, DW_AT_name("RSA0_H")
    1751                      .dwattr $C$DW$193, DW_AT_location[DW_OP_regx 0x31]
TMS320C55x Assembler PC v4.4.1 Thu Sep 20 01:43:04 2018

Tools Copyright (c) 1996-2012 Texas Instruments Incorporated
flop.asm                                                             PAGE   38

    1752              $C$DW$194       .dwtag  DW_TAG_TI_assign_register, DW_AT_name("REA0")
    1753                      .dwattr $C$DW$194, DW_AT_location[DW_OP_regx 0x32]
    1754              $C$DW$195       .dwtag  DW_TAG_TI_assign_register, DW_AT_name("REA0_H")
    1755                      .dwattr $C$DW$195, DW_AT_location[DW_OP_regx 0x33]
    1756              $C$DW$196       .dwtag  DW_TAG_TI_assign_register, DW_AT_name("BRS1")
    1757                      .dwattr $C$DW$196, DW_AT_location[DW_OP_regx 0x34]
    1758              $C$DW$197       .dwtag  DW_TAG_TI_assign_register, DW_AT_name("BRC1")
    1759                      .dwattr $C$DW$197, DW_AT_location[DW_OP_regx 0x35]
    1760              $C$DW$198       .dwtag  DW_TAG_TI_assign_register, DW_AT_name("RSA1")
    1761                      .dwattr $C$DW$198, DW_AT_location[DW_OP_regx 0x36]
    1762              $C$DW$199       .dwtag  DW_TAG_TI_assign_register, DW_AT_name("RSA1_H")
    1763                      .dwattr $C$DW$199, DW_AT_location[DW_OP_regx 0x37]
    1764              $C$DW$200       .dwtag  DW_TAG_TI_assign_register, DW_AT_name("REA1")
    1765                      .dwattr $C$DW$200, DW_AT_location[DW_OP_regx 0x38]
    1766              $C$DW$201       .dwtag  DW_TAG_TI_assign_register, DW_AT_name("REA1_H")
    1767                      .dwattr $C$DW$201, DW_AT_location[DW_OP_regx 0x39]
    1768              $C$DW$202       .dwtag  DW_TAG_TI_assign_register, DW_AT_name("CSR")
    1769                      .dwattr $C$DW$202, DW_AT_location[DW_OP_regx 0x3a]
    1770              $C$DW$203       .dwtag  DW_TAG_TI_assign_register, DW_AT_name("RPTC")
    1771                      .dwattr $C$DW$203, DW_AT_location[DW_OP_regx 0x3b]
    1772              $C$DW$204       .dwtag  DW_TAG_TI_assign_register, DW_AT_name("CDP")
    1773                      .dwattr $C$DW$204, DW_AT_location[DW_OP_regx 0x3c]
    1774              $C$DW$205       .dwtag  DW_TAG_TI_assign_register, DW_AT_name("XCDP")
    1775                      .dwattr $C$DW$205, DW_AT_location[DW_OP_regx 0x3d]
    1776              $C$DW$206       .dwtag  DW_TAG_TI_assign_register, DW_AT_name("TRN0")
    1777                      .dwattr $C$DW$206, DW_AT_location[DW_OP_regx 0x3e]
    1778              $C$DW$207       .dwtag  DW_TAG_TI_assign_register, DW_AT_name("TRN1")
    1779                      .dwattr $C$DW$207, DW_AT_location[DW_OP_regx 0x3f]
    1780              $C$DW$208       .dwtag  DW_TAG_TI_assign_register, DW_AT_name("BSA01")
    1781                      .dwattr $C$DW$208, DW_AT_location[DW_OP_regx 0x40]
    1782              $C$DW$209       .dwtag  DW_TAG_TI_assign_register, DW_AT_name("BSA23")
    1783                      .dwattr $C$DW$209, DW_AT_location[DW_OP_regx 0x41]
    1784              $C$DW$210       .dwtag  DW_TAG_TI_assign_register, DW_AT_name("BSA45")
    1785                      .dwattr $C$DW$210, DW_AT_location[DW_OP_regx 0x42]
    1786              $C$DW$211       .dwtag  DW_TAG_TI_assign_register, DW_AT_name("BSA67")
    1787                      .dwattr $C$DW$211, DW_AT_location[DW_OP_regx 0x43]
    1788              $C$DW$212       .dwtag  DW_TAG_TI_assign_register, DW_AT_name("BSAC")
    1789                      .dwattr $C$DW$212, DW_AT_location[DW_OP_regx 0x44]
    1790              $C$DW$213       .dwtag  DW_TAG_TI_assign_register, DW_AT_name("CARRY")
    1791                      .dwattr $C$DW$213, DW_AT_location[DW_OP_regx 0x45]
    1792              $C$DW$214       .dwtag  DW_TAG_TI_assign_register, DW_AT_name("TC1")
    1793                      .dwattr $C$DW$214, DW_AT_location[DW_OP_regx 0x46]
    1794              $C$DW$215       .dwtag  DW_TAG_TI_assign_register, DW_AT_name("TC2")
    1795                      .dwattr $C$DW$215, DW_AT_location[DW_OP_regx 0x47]
    1796              $C$DW$216       .dwtag  DW_TAG_TI_assign_register, DW_AT_name("M40")
    1797                      .dwattr $C$DW$216, DW_AT_location[DW_OP_regx 0x48]
    1798              $C$DW$217       .dwtag  DW_TAG_TI_assign_register, DW_AT_name("SXMD")
    1799                      .dwattr $C$DW$217, DW_AT_location[DW_OP_regx 0x49]
    1800              $C$DW$218       .dwtag  DW_TAG_TI_assign_register, DW_AT_name("ARMS")
    1801                      .dwattr $C$DW$218, DW_AT_location[DW_OP_regx 0x4a]
    1802              $C$DW$219       .dwtag  DW_TAG_TI_assign_register, DW_AT_name("C54CM")
    1803                      .dwattr $C$DW$219, DW_AT_location[DW_OP_regx 0x4b]
    1804              $C$DW$220       .dwtag  DW_TAG_TI_assign_register, DW_AT_name("SATA")
    1805                      .dwattr $C$DW$220, DW_AT_location[DW_OP_regx 0x4c]
    1806              $C$DW$221       .dwtag  DW_TAG_TI_assign_register, DW_AT_name("SATD")
TMS320C55x Assembler PC v4.4.1 Thu Sep 20 01:43:04 2018

Tools Copyright (c) 1996-2012 Texas Instruments Incorporated
flop.asm                                                             PAGE   39

    1807                      .dwattr $C$DW$221, DW_AT_location[DW_OP_regx 0x4d]
    1808              $C$DW$222       .dwtag  DW_TAG_TI_assign_register, DW_AT_name("RDM")
    1809                      .dwattr $C$DW$222, DW_AT_location[DW_OP_regx 0x4e]
    1810              $C$DW$223       .dwtag  DW_TAG_TI_assign_register, DW_AT_name("FRCT")
    1811                      .dwattr $C$DW$223, DW_AT_location[DW_OP_regx 0x4f]
    1812              $C$DW$224       .dwtag  DW_TAG_TI_assign_register, DW_AT_name("SMUL")
    1813                      .dwattr $C$DW$224, DW_AT_location[DW_OP_regx 0x50]
    1814              $C$DW$225       .dwtag  DW_TAG_TI_assign_register, DW_AT_name("INTM")
    1815                      .dwattr $C$DW$225, DW_AT_location[DW_OP_regx 0x51]
    1816              $C$DW$226       .dwtag  DW_TAG_TI_assign_register, DW_AT_name("AR0LC")
    1817                      .dwattr $C$DW$226, DW_AT_location[DW_OP_regx 0x52]
    1818              $C$DW$227       .dwtag  DW_TAG_TI_assign_register, DW_AT_name("AR1LC")
    1819                      .dwattr $C$DW$227, DW_AT_location[DW_OP_regx 0x53]
    1820              $C$DW$228       .dwtag  DW_TAG_TI_assign_register, DW_AT_name("AR2LC")
    1821                      .dwattr $C$DW$228, DW_AT_location[DW_OP_regx 0x54]
    1822              $C$DW$229       .dwtag  DW_TAG_TI_assign_register, DW_AT_name("AR3LC")
    1823                      .dwattr $C$DW$229, DW_AT_location[DW_OP_regx 0x55]
    1824              $C$DW$230       .dwtag  DW_TAG_TI_assign_register, DW_AT_name("AR4LC")
    1825                      .dwattr $C$DW$230, DW_AT_location[DW_OP_regx 0x56]
    1826              $C$DW$231       .dwtag  DW_TAG_TI_assign_register, DW_AT_name("AR5LC")
    1827                      .dwattr $C$DW$231, DW_AT_location[DW_OP_regx 0x57]
    1828              $C$DW$232       .dwtag  DW_TAG_TI_assign_register, DW_AT_name("AR6LC")
    1829                      .dwattr $C$DW$232, DW_AT_location[DW_OP_regx 0x58]
    1830              $C$DW$233       .dwtag  DW_TAG_TI_assign_register, DW_AT_name("AR7LC")
    1831                      .dwattr $C$DW$233, DW_AT_location[DW_OP_regx 0x59]
    1832              $C$DW$234       .dwtag  DW_TAG_TI_assign_register, DW_AT_name("CDPLC")
    1833                      .dwattr $C$DW$234, DW_AT_location[DW_OP_regx 0x5a]
    1834              $C$DW$235       .dwtag  DW_TAG_TI_assign_register, DW_AT_name("CIE_RETA")
    1835                      .dwattr $C$DW$235, DW_AT_location[DW_OP_regx 0x5b]
    1836                      .dwendtag $C$DW$CU
    1837              
    1837              
    1837              

No Assembly Errors, No Assembly Warnings
