TMS320C55x Assembler PC v4.4.1 Sun Sep 16 02:56:02 2018

Tools Copyright (c) 1996-2012 Texas Instruments Incorporated
QPeek.asm                                                            PAGE    1

    2059              ; Temporary Registers Used: None
       1              ;*******************************************************************************
       2              ;* TMS320C55x C/C++ Codegen                                          PC v4.4.1 *
       3              ;* Date/Time created: Sun Sep 16 02:56:01 2018                                 *
       4              ;*******************************************************************************
       5                      .compiler_opts --hll_source=on --mem_model:code=flat --mem_model:data=large --object_format=coff --si
       6                      .mmregs
       7                      .cpl_on
       8                      .arms_on
       9                      .c54cm_off
      10                      .asg AR6, FP
      11                      .asg XAR6, XFP
      12                      .asg DPH, MDP
      13                      .model call=c55_std
      14                      .model mem=large
      15                      .noremark 5002  ; code respects overwrite rules
      16              ;*******************************************************************************
      17              ;* GLOBAL FILE PARAMETERS                                                      *
      18              ;*                                                                             *
      19              ;*   Architecture       : TMS320C55x                                           *
      20              ;*   Optimizing for     : Speed                                                *
      21              ;*   Memory             : Large Model (23-Bit Data Pointers)                   *
      22              ;*   Calls              : Normal Library ASM calls                             *
      23              ;*   Debug Info         : Standard TI Debug Information                        *
      24              ;*******************************************************************************
      25              
      26              $C$DW$CU        .dwtag  DW_TAG_compile_unit
      27                      .dwattr $C$DW$CU, DW_AT_name("../FreeRTOS/Demo/Common/Minimal/QPeek.c")
      28                      .dwattr $C$DW$CU, DW_AT_producer("TMS320C55x C/C++ Codegen PC v4.4.1 Copyright (c) 1996-2012 Texas In
      29                      .dwattr $C$DW$CU, DW_AT_TI_version(0x01)
      30                      .dwattr $C$DW$CU, DW_AT_comp_dir("F:\eZdsp_DBG\eZDSP_5535_Files\ccsws2\test\Debug")
      31              ;******************************************************************************
      32              ;* CINIT RECORDS                                                              *
      33              ;******************************************************************************
      34 000000               .sect   ".cinit"
      35                      .align  1
      36 000000 0001          .field          1,16
      37 000001 0000-         .field          _xErrorDetected+0,24
         000002 0000 
      38 000002 0000          .field          0,8
      39 000003 0000          .field  0,16                    ; _xErrorDetected @ 0
      40              
      41 000004               .sect   ".cinit"
      42                      .align  1
      43 000004 0002          .field          2,16
      44 000005 0000-         .field          _ulLoopCounter+0,24
         000006 0200 
      45 000006 0200          .field          0,8
      46 000007 0000          .field  0,32                    ; _ulLoopCounter @ 0
         000008 0000 
      47              
      48 000009               .sect   ".cinit"
      49                      .align  1
      50 000009 0002          .field          2,16
      51 00000a 0000-         .field          _ulLastLoopCounter$1+0,24
TMS320C55x Assembler PC v4.4.1 Sun Sep 16 02:56:02 2018

Tools Copyright (c) 1996-2012 Texas Instruments Incorporated
QPeek.asm                                                            PAGE    2

         00000b 0A00 
      52 00000b 0A00          .field          0,8
      53 00000c 0000          .field  0,32                    ; _ulLastLoopCounter$1 @ 0
         00000d 0000 
      54              
      55              
      56              $C$DW$1 .dwtag  DW_TAG_subprogram, DW_AT_name("xTaskCreate")
      57                      .dwattr $C$DW$1, DW_AT_TI_symbol_name("_xTaskCreate")
      58                      .dwattr $C$DW$1, DW_AT_type(*$C$DW$T$51)
      59                      .dwattr $C$DW$1, DW_AT_declaration
      60                      .dwattr $C$DW$1, DW_AT_external
      61              $C$DW$2 .dwtag  DW_TAG_formal_parameter
      62                      .dwattr $C$DW$2, DW_AT_type(*$C$DW$T$33)
      63              $C$DW$3 .dwtag  DW_TAG_formal_parameter
      64                      .dwattr $C$DW$3, DW_AT_type(*$C$DW$T$54)
      65              $C$DW$4 .dwtag  DW_TAG_formal_parameter
      66                      .dwattr $C$DW$4, DW_AT_type(*$C$DW$T$56)
      67              $C$DW$5 .dwtag  DW_TAG_formal_parameter
      68                      .dwattr $C$DW$5, DW_AT_type(*$C$DW$T$30)
      69              $C$DW$6 .dwtag  DW_TAG_formal_parameter
      70                      .dwattr $C$DW$6, DW_AT_type(*$C$DW$T$24)
      71              $C$DW$7 .dwtag  DW_TAG_formal_parameter
      72                      .dwattr $C$DW$7, DW_AT_type(*$C$DW$T$58)
      73                      .dwendtag $C$DW$1
      74              
      75              
      76              $C$DW$8 .dwtag  DW_TAG_subprogram, DW_AT_name("vTaskDelay")
      77                      .dwattr $C$DW$8, DW_AT_TI_symbol_name("_vTaskDelay")
      78                      .dwattr $C$DW$8, DW_AT_declaration
      79                      .dwattr $C$DW$8, DW_AT_external
      80              $C$DW$9 .dwtag  DW_TAG_formal_parameter
      81                      .dwattr $C$DW$9, DW_AT_type(*$C$DW$T$35)
      82                      .dwendtag $C$DW$8
      83              
      84              
      85              $C$DW$10        .dwtag  DW_TAG_subprogram, DW_AT_name("vTaskSuspend")
      86                      .dwattr $C$DW$10, DW_AT_TI_symbol_name("_vTaskSuspend")
      87                      .dwattr $C$DW$10, DW_AT_declaration
      88                      .dwattr $C$DW$10, DW_AT_external
      89              $C$DW$11        .dwtag  DW_TAG_formal_parameter
      90                      .dwattr $C$DW$11, DW_AT_type(*$C$DW$T$39)
      91                      .dwendtag $C$DW$10
      92              
      93              
      94              $C$DW$12        .dwtag  DW_TAG_subprogram, DW_AT_name("vTaskResume")
      95                      .dwattr $C$DW$12, DW_AT_TI_symbol_name("_vTaskResume")
      96                      .dwattr $C$DW$12, DW_AT_declaration
      97                      .dwattr $C$DW$12, DW_AT_external
      98              $C$DW$13        .dwtag  DW_TAG_formal_parameter
      99                      .dwattr $C$DW$13, DW_AT_type(*$C$DW$T$39)
     100                      .dwendtag $C$DW$12
     101              
     102              
     103              $C$DW$14        .dwtag  DW_TAG_subprogram, DW_AT_name("xQueueGenericSend")
     104                      .dwattr $C$DW$14, DW_AT_TI_symbol_name("_xQueueGenericSend")
TMS320C55x Assembler PC v4.4.1 Sun Sep 16 02:56:02 2018

Tools Copyright (c) 1996-2012 Texas Instruments Incorporated
QPeek.asm                                                            PAGE    3

     105                      .dwattr $C$DW$14, DW_AT_type(*$C$DW$T$51)
     106                      .dwattr $C$DW$14, DW_AT_declaration
     107                      .dwattr $C$DW$14, DW_AT_external
     108              $C$DW$15        .dwtag  DW_TAG_formal_parameter
     109                      .dwattr $C$DW$15, DW_AT_type(*$C$DW$T$22)
     110              $C$DW$16        .dwtag  DW_TAG_formal_parameter
     111                      .dwattr $C$DW$16, DW_AT_type(*$C$DW$T$44)
     112              $C$DW$17        .dwtag  DW_TAG_formal_parameter
     113                      .dwattr $C$DW$17, DW_AT_type(*$C$DW$T$34)
     114              $C$DW$18        .dwtag  DW_TAG_formal_parameter
     115                      .dwattr $C$DW$18, DW_AT_type(*$C$DW$T$52)
     116                      .dwendtag $C$DW$14
     117              
     118              
     119              $C$DW$19        .dwtag  DW_TAG_subprogram, DW_AT_name("xQueuePeek")
     120                      .dwattr $C$DW$19, DW_AT_TI_symbol_name("_xQueuePeek")
     121                      .dwattr $C$DW$19, DW_AT_type(*$C$DW$T$51)
     122                      .dwattr $C$DW$19, DW_AT_declaration
     123                      .dwattr $C$DW$19, DW_AT_external
     124              $C$DW$20        .dwtag  DW_TAG_formal_parameter
     125                      .dwattr $C$DW$20, DW_AT_type(*$C$DW$T$22)
     126              $C$DW$21        .dwtag  DW_TAG_formal_parameter
     127                      .dwattr $C$DW$21, DW_AT_type(*$C$DW$T$30)
     128              $C$DW$22        .dwtag  DW_TAG_formal_parameter
     129                      .dwattr $C$DW$22, DW_AT_type(*$C$DW$T$34)
     130                      .dwendtag $C$DW$19
     131              
     132              
     133              $C$DW$23        .dwtag  DW_TAG_subprogram, DW_AT_name("xQueueReceive")
     134                      .dwattr $C$DW$23, DW_AT_TI_symbol_name("_xQueueReceive")
     135                      .dwattr $C$DW$23, DW_AT_type(*$C$DW$T$51)
     136                      .dwattr $C$DW$23, DW_AT_declaration
     137                      .dwattr $C$DW$23, DW_AT_external
     138              $C$DW$24        .dwtag  DW_TAG_formal_parameter
     139                      .dwattr $C$DW$24, DW_AT_type(*$C$DW$T$22)
     140              $C$DW$25        .dwtag  DW_TAG_formal_parameter
     141                      .dwattr $C$DW$25, DW_AT_type(*$C$DW$T$30)
     142              $C$DW$26        .dwtag  DW_TAG_formal_parameter
     143                      .dwattr $C$DW$26, DW_AT_type(*$C$DW$T$34)
     144                      .dwendtag $C$DW$23
     145              
     146              
     147              $C$DW$27        .dwtag  DW_TAG_subprogram, DW_AT_name("uxQueueMessagesWaiting")
     148                      .dwattr $C$DW$27, DW_AT_TI_symbol_name("_uxQueueMessagesWaiting")
     149                      .dwattr $C$DW$27, DW_AT_type(*$C$DW$T$24)
     150                      .dwattr $C$DW$27, DW_AT_declaration
     151                      .dwattr $C$DW$27, DW_AT_external
     152              $C$DW$28        .dwtag  DW_TAG_formal_parameter
     153                      .dwattr $C$DW$28, DW_AT_type(*$C$DW$T$23)
     154                      .dwendtag $C$DW$27
     155              
     156              
     157              $C$DW$29        .dwtag  DW_TAG_subprogram, DW_AT_name("vQueueAddToRegistry")
     158                      .dwattr $C$DW$29, DW_AT_TI_symbol_name("_vQueueAddToRegistry")
     159                      .dwattr $C$DW$29, DW_AT_declaration
TMS320C55x Assembler PC v4.4.1 Sun Sep 16 02:56:02 2018

Tools Copyright (c) 1996-2012 Texas Instruments Incorporated
QPeek.asm                                                            PAGE    4

     160                      .dwattr $C$DW$29, DW_AT_external
     161              $C$DW$30        .dwtag  DW_TAG_formal_parameter
     162                      .dwattr $C$DW$30, DW_AT_type(*$C$DW$T$22)
     163              $C$DW$31        .dwtag  DW_TAG_formal_parameter
     164                      .dwattr $C$DW$31, DW_AT_type(*$C$DW$T$47)
     165                      .dwendtag $C$DW$29
     166              
     167              
     168              $C$DW$32        .dwtag  DW_TAG_subprogram, DW_AT_name("xQueueGenericCreate")
     169                      .dwattr $C$DW$32, DW_AT_TI_symbol_name("_xQueueGenericCreate")
     170                      .dwattr $C$DW$32, DW_AT_type(*$C$DW$T$22)
     171                      .dwattr $C$DW$32, DW_AT_declaration
     172                      .dwattr $C$DW$32, DW_AT_external
     173              $C$DW$33        .dwtag  DW_TAG_formal_parameter
     174                      .dwattr $C$DW$33, DW_AT_type(*$C$DW$T$25)
     175              $C$DW$34        .dwtag  DW_TAG_formal_parameter
     176                      .dwattr $C$DW$34, DW_AT_type(*$C$DW$T$25)
     177              $C$DW$35        .dwtag  DW_TAG_formal_parameter
     178                      .dwattr $C$DW$35, DW_AT_type(*$C$DW$T$27)
     179                      .dwendtag $C$DW$32
     180              
     181 000000               .bss    _xErrorDetected,1,0,0
     182              $C$DW$36        .dwtag  DW_TAG_variable, DW_AT_name("xErrorDetected")
     183                      .dwattr $C$DW$36, DW_AT_TI_symbol_name("_xErrorDetected")
     184                      .dwattr $C$DW$36, DW_AT_type(*$C$DW$T$53)
     185                      .dwattr $C$DW$36, DW_AT_location[DW_OP_addr _xErrorDetected]
     186 000002               .bss    _ulLoopCounter,2,0,2
     187              $C$DW$37        .dwtag  DW_TAG_variable, DW_AT_name("ulLoopCounter")
     188                      .dwattr $C$DW$37, DW_AT_TI_symbol_name("_ulLoopCounter")
     189                      .dwattr $C$DW$37, DW_AT_type(*$C$DW$T$70)
     190                      .dwattr $C$DW$37, DW_AT_location[DW_OP_addr _ulLoopCounter]
     191                      .global _xMediumPriorityTask
     192 000004               .bss    _xMediumPriorityTask,2,0,2
     193              $C$DW$38        .dwtag  DW_TAG_variable, DW_AT_name("xMediumPriorityTask")
     194                      .dwattr $C$DW$38, DW_AT_TI_symbol_name("_xMediumPriorityTask")
     195                      .dwattr $C$DW$38, DW_AT_location[DW_OP_addr _xMediumPriorityTask]
     196                      .dwattr $C$DW$38, DW_AT_type(*$C$DW$T$39)
     197                      .dwattr $C$DW$38, DW_AT_external
     198                      .global _xHighPriorityTask
     199 000006               .bss    _xHighPriorityTask,2,0,2
     200              $C$DW$39        .dwtag  DW_TAG_variable, DW_AT_name("xHighPriorityTask")
     201                      .dwattr $C$DW$39, DW_AT_TI_symbol_name("_xHighPriorityTask")
     202                      .dwattr $C$DW$39, DW_AT_location[DW_OP_addr _xHighPriorityTask]
     203                      .dwattr $C$DW$39, DW_AT_type(*$C$DW$T$39)
     204                      .dwattr $C$DW$39, DW_AT_external
     205                      .global _xHighestPriorityTask
     206 000008               .bss    _xHighestPriorityTask,2,0,2
     207              $C$DW$40        .dwtag  DW_TAG_variable, DW_AT_name("xHighestPriorityTask")
     208                      .dwattr $C$DW$40, DW_AT_TI_symbol_name("_xHighestPriorityTask")
     209                      .dwattr $C$DW$40, DW_AT_location[DW_OP_addr _xHighestPriorityTask]
     210                      .dwattr $C$DW$40, DW_AT_type(*$C$DW$T$39)
     211                      .dwattr $C$DW$40, DW_AT_external
     212 00000a               .bss    _ulLastLoopCounter$1,2,0,2
     213              ;       F:\ti\ccs8p1\ccsv8\tools\compiler\alt-install-ti-cgt-c55x_4.4.1\bin\acp55.exe -@f:\\AppData\\Local\\T
     214 000000               .sect   ".text"
TMS320C55x Assembler PC v4.4.1 Sun Sep 16 02:56:02 2018

Tools Copyright (c) 1996-2012 Texas Instruments Incorporated
QPeek.asm                                                            PAGE    5

     215                      .align 4
     216                      .global _vStartQueuePeekTasks
     217              
     218              $C$DW$41        .dwtag  DW_TAG_subprogram, DW_AT_name("vStartQueuePeekTasks")
     219                      .dwattr $C$DW$41, DW_AT_low_pc(_vStartQueuePeekTasks)
     220                      .dwattr $C$DW$41, DW_AT_high_pc(0x00)
     221                      .dwattr $C$DW$41, DW_AT_TI_symbol_name("_vStartQueuePeekTasks")
     222                      .dwattr $C$DW$41, DW_AT_external
     223                      .dwattr $C$DW$41, DW_AT_TI_begin_file("../FreeRTOS/Demo/Common/Minimal/QPeek.c")
     224                      .dwattr $C$DW$41, DW_AT_TI_begin_line(0x51)
     225                      .dwattr $C$DW$41, DW_AT_TI_begin_column(0x06)
     226                      .dwattr $C$DW$41, DW_AT_TI_max_frame_size(0x04)
     227                      .dwpsn  file "../FreeRTOS/Demo/Common/Minimal/QPeek.c",line 82,column 1,is_stmt,address _vStartQueueP
     228              
     229                      .dwfde $C$DW$CIE, _vStartQueuePeekTasks
     230              ;*******************************************************************************
     231              ;* FUNCTION NAME: vStartQueuePeekTasks                                         *
     232              ;*                                                                             *
     233              ;*   Function Uses Regs : AC0,AC0,T0,T1,AR0,XAR0,AR1,XAR1,AR2,XAR2,AR3,XAR3,SP,*
     234              ;*                        M40,SATA,SATD,RDM,FRCT,SMUL                          *
     235              ;*   Stack Frame        : Compact (No Frame Pointer, w/ debug)                 *
     236              ;*   Total Frame Size   : 4 words                                              *
     237              ;*                        (2 return address/alignment)                         *
     238              ;*                        (2 local values)                                     *
     239              ;*   Min System Stack   : 1 word                                               *
     240              ;*******************************************************************************
     241 000000       _vStartQueuePeekTasks:
     242                      .dwcfi  cfa_offset, 1
     243                      .dwcfi  save_reg_to_mem, 91, -1
     244 000000 4EFD          AADD #-3, SP
     245                      .dwcfi  cfa_offset, 4
     246              $C$DW$42        .dwtag  DW_TAG_variable, DW_AT_name("xQueue")
     247                      .dwattr $C$DW$42, DW_AT_TI_symbol_name("_xQueue")
     248                      .dwattr $C$DW$42, DW_AT_type(*$C$DW$T$22)
     249                      .dwattr $C$DW$42, DW_AT_location[DW_OP_bregx 0x24 0]
     250                      .dwpsn  file "../FreeRTOS/Demo/Common/Minimal/QPeek.c",line 86,column 2,is_stmt
     251              
     252 000002 3C54          MOV #5, T0
     253 000004 3D25  ||      MOV #2, T1
     254              
     255              $C$DW$43        .dwtag  DW_TAG_TI_branch
     256                      .dwattr $C$DW$43, DW_AT_low_pc(0x00)
     257                      .dwattr $C$DW$43, DW_AT_name("_xQueueGenericCreate")
     258                      .dwattr $C$DW$43, DW_AT_TI_call
     259              
     260 000006 6C00          CALL #_xQueueGenericCreate ; |86| 
         000008 0000!
     261 00000a 3D08  ||      MOV #0, AR0
     262              
     263                                                      ; call occurs [#_xQueueGenericCreate] ; |86| 
     264 00000c EB00          MOV XAR0, dbl(*SP(#0))
         00000e 85   
     265                      .dwpsn  file "../FreeRTOS/Demo/Common/Minimal/QPeek.c",line 88,column 2,is_stmt
     266 00000f ED00          MOV dbl(*SP(#0)), XAR3
         000011 BF   
TMS320C55x Assembler PC v4.4.1 Sun Sep 16 02:56:02 2018

Tools Copyright (c) 1996-2012 Texas Instruments Incorporated
QPeek.asm                                                            PAGE    6

     267 000012 90B0          MOV XAR3, AC0
     268 000014 6D00          BCC $C$L1,AC0 == #0 ; |88| 
         000016 008E 
     269                                                      ; branchcc occurs ; |88| 
     270                      .dwpsn  file "../FreeRTOS/Demo/Common/Minimal/QPeek.c",line 96,column 3,is_stmt
     271 000018 EC31          AMOV #$C$FSL1, XAR1 ; |96| 
         00001a 9E00 
         00001c 0000+
     272              $C$DW$44        .dwtag  DW_TAG_TI_branch
     273                      .dwattr $C$DW$44, DW_AT_low_pc(0x00)
     274                      .dwattr $C$DW$44, DW_AT_name("_vQueueAddToRegistry")
     275                      .dwattr $C$DW$44, DW_AT_TI_call
     276 00001e 6C00          CALL #_vQueueAddToRegistry ; |96| 
         000020 0000!
     277                                                      ; call occurs [#_vQueueAddToRegistry] ; |96| 
     278                      .dwpsn  file "../FreeRTOS/Demo/Common/Minimal/QPeek.c",line 101,column 3,is_stmt
     279 000022 7A00          MOV #(_prvLowPriorityPeekTask >> 16) << #16, AC0 ; |101| 
         000024 000A%
     280 000026 7600          MOV #128, T0 ; |101| 
         000028 8048 
     281 00002a EC31          AMOV #0, XAR2 ; |101| 
         00002c AE00 
         00002e 0000 
     282 000030 EC31          AMOV #$C$FSL2, XAR0 ; |101| 
         000032 8E00 
         000034 0012+
     283 000036 ED00          MOV dbl(*SP(#0)), XAR1
         000038 9F   
     284 000039 7E00          OR #(_prvLowPriorityPeekTask & 0xffff), AC0, AC0 ; |101| 
         00003b 0000%
     285              $C$DW$45        .dwtag  DW_TAG_TI_branch
     286                      .dwattr $C$DW$45, DW_AT_low_pc(0x00)
     287                      .dwattr $C$DW$45, DW_AT_name("_xTaskCreate")
     288                      .dwattr $C$DW$45, DW_AT_TI_call
     289              
     290 00003d 6C00          CALL #_xTaskCreate ; |101| 
         00003f 0000!
     291 000041 3D05  ||      MOV #0, T1
     292              
     293                                                      ; call occurs [#_xTaskCreate] ; |101| 
     294                      .dwpsn  file "../FreeRTOS/Demo/Common/Minimal/QPeek.c",line 102,column 3,is_stmt
     295 000043 7600          MOV #128, T0 ; |102| 
         000045 8048 
     296 000047 EC31          AMOV #_xMediumPriorityTask, XAR2 ; |102| 
         000049 AE00 
         00004b 0004-
     297 00004d EC31          AMOV #$C$FSL3, XAR0 ; |102| 
         00004f 8E00 
         000051 0018+
     298 000053 ED00          MOV dbl(*SP(#0)), XAR1
         000055 9F   
     299 000056 7A00          MOV #(_prvMediumPriorityPeekTask >> 16) << #16, AC0 ; |102| 
         000058 000A%
     300 00005a 7E00          OR #(_prvMediumPriorityPeekTask & 0xffff), AC0, AC0 ; |102| 
         00005c 0000%
TMS320C55x Assembler PC v4.4.1 Sun Sep 16 02:56:02 2018

Tools Copyright (c) 1996-2012 Texas Instruments Incorporated
QPeek.asm                                                            PAGE    7

     301              $C$DW$46        .dwtag  DW_TAG_TI_branch
     302                      .dwattr $C$DW$46, DW_AT_low_pc(0x00)
     303                      .dwattr $C$DW$46, DW_AT_name("_xTaskCreate")
     304                      .dwattr $C$DW$46, DW_AT_TI_call
     305              
     306 00005e 6C00          CALL #_xTaskCreate ; |102| 
         000060 0000!
     307 000062 3D15  ||      MOV #1, T1
     308              
     309                                                      ; call occurs [#_xTaskCreate] ; |102| 
     310                      .dwpsn  file "../FreeRTOS/Demo/Common/Minimal/QPeek.c",line 103,column 3,is_stmt
     311 000064 7600          MOV #128, T0 ; |103| 
         000066 8048 
     312 000068 EC31          AMOV #_xHighPriorityTask, XAR2 ; |103| 
         00006a AE00 
         00006c 0006-
     313 00006e EC31          AMOV #$C$FSL4, XAR0 ; |103| 
         000070 8E00 
         000072 001E+
     314 000074 ED00          MOV dbl(*SP(#0)), XAR1
         000076 9F   
     315 000077 7A00          MOV #(_prvHighPriorityPeekTask >> 16) << #16, AC0 ; |103| 
         000079 000A%
     316 00007b 7E00          OR #(_prvHighPriorityPeekTask & 0xffff), AC0, AC0 ; |103| 
         00007d 0000%
     317              $C$DW$47        .dwtag  DW_TAG_TI_branch
     318                      .dwattr $C$DW$47, DW_AT_low_pc(0x00)
     319                      .dwattr $C$DW$47, DW_AT_name("_xTaskCreate")
     320                      .dwattr $C$DW$47, DW_AT_TI_call
     321              
     322 00007f 6C00          CALL #_xTaskCreate ; |103| 
         000081 0000!
     323 000083 3D25  ||      MOV #2, T1
     324              
     325                                                      ; call occurs [#_xTaskCreate] ; |103| 
     326                      .dwpsn  file "../FreeRTOS/Demo/Common/Minimal/QPeek.c",line 104,column 3,is_stmt
     327 000085 7600          MOV #128, T0 ; |104| 
         000087 8048 
     328 000089 EC31          AMOV #_xHighestPriorityTask, XAR2 ; |104| 
         00008b AE00 
         00008d 0008-
     329 00008f EC31          AMOV #$C$FSL5, XAR0 ; |104| 
         000091 8E00 
         000093 0026+
     330 000095 ED00          MOV dbl(*SP(#0)), XAR1
         000097 9F   
     331 000098 7A00          MOV #(_prvHighestPriorityPeekTask >> 16) << #16, AC0 ; |104| 
         00009a 000A%
     332              
     333 00009c 7E00          OR #(_prvHighestPriorityPeekTask & 0xffff), AC0, AC0 ; |104| 
         00009e 0000%
     334 0000a0 3D35  ||      MOV #3, T1
     335              
     336              $C$DW$48        .dwtag  DW_TAG_TI_branch
     337                      .dwattr $C$DW$48, DW_AT_low_pc(0x00)
TMS320C55x Assembler PC v4.4.1 Sun Sep 16 02:56:02 2018

Tools Copyright (c) 1996-2012 Texas Instruments Incorporated
QPeek.asm                                                            PAGE    8

     338                      .dwattr $C$DW$48, DW_AT_name("_xTaskCreate")
     339                      .dwattr $C$DW$48, DW_AT_TI_call
     340 0000a2 6C00          CALL #_xTaskCreate ; |104| 
         0000a4 0000!
     341                                                      ; call occurs [#_xTaskCreate] ; |104| 
     342                      .dwpsn  file "../FreeRTOS/Demo/Common/Minimal/QPeek.c",line 106,column 1,is_stmt
     343 0000a6       $C$L1:    
     344 0000a6 4E03          AADD #3, SP
     345                      .dwcfi  cfa_offset, 1
     346              $C$DW$49        .dwtag  DW_TAG_TI_branch
     347                      .dwattr $C$DW$49, DW_AT_low_pc(0x00)
     348                      .dwattr $C$DW$49, DW_AT_TI_return
     349 0000a8 4804          RET
     350                                                      ; return occurs
     351                      .dwattr $C$DW$41, DW_AT_TI_end_file("../FreeRTOS/Demo/Common/Minimal/QPeek.c")
     352                      .dwattr $C$DW$41, DW_AT_TI_end_line(0x6a)
     353                      .dwattr $C$DW$41, DW_AT_TI_end_column(0x01)
     354                      .dwendentry
     355                      .dwendtag $C$DW$41
     356              
     357 0000aa               .sect   ".text"
     358                      .align 4
     359              
     360              $C$DW$50        .dwtag  DW_TAG_subprogram, DW_AT_name("prvHighestPriorityPeekTask")
     361                      .dwattr $C$DW$50, DW_AT_low_pc(_prvHighestPriorityPeekTask)
     362                      .dwattr $C$DW$50, DW_AT_high_pc(0x00)
     363                      .dwattr $C$DW$50, DW_AT_TI_symbol_name("_prvHighestPriorityPeekTask")
     364                      .dwattr $C$DW$50, DW_AT_TI_begin_file("../FreeRTOS/Demo/Common/Minimal/QPeek.c")
     365                      .dwattr $C$DW$50, DW_AT_TI_begin_line(0x6d)
     366                      .dwattr $C$DW$50, DW_AT_TI_begin_column(0x0d)
     367                      .dwattr $C$DW$50, DW_AT_TI_max_frame_size(0x0c)
     368                      .dwpsn  file "../FreeRTOS/Demo/Common/Minimal/QPeek.c",line 110,column 1,is_stmt,address _prvHighestP
     369              
     370                      .dwfde $C$DW$CIE, _prvHighestPriorityPeekTask
     371              $C$DW$51        .dwtag  DW_TAG_formal_parameter, DW_AT_name("pvParameters")
     372                      .dwattr $C$DW$51, DW_AT_TI_symbol_name("_pvParameters")
     373                      .dwattr $C$DW$51, DW_AT_type(*$C$DW$T$3)
     374                      .dwattr $C$DW$51, DW_AT_location[DW_OP_reg17]
     375              ;*******************************************************************************
     376              ;* FUNCTION NAME: prvHighestPriorityPeekTask                                   *
     377              ;*                                                                             *
     378              ;*   Function Uses Regs : AC0,AC0,AC1,AC1,T0,T2,T3,AR0,XAR0,AR1,XAR1,AR3,XAR3, *
     379              ;*                        AR5,AR6,AR7,SP,TC1,M40,SATA,SATD,RDM,FRCT,SMUL       *
     380              ;*   Save On Entry Regs : T2,T3,AR5,AR6,AR7                                    *
     381              ;*   Stack Frame        : Compact (No Frame Pointer, w/ debug)                 *
     382              ;*   Total Frame Size   : 12 words                                             *
     383              ;*                        (1 return address/alignment)                         *
     384              ;*                        (6 local values)                                     *
     385              ;*                        (5 register save area)                               *
     386              ;*   Min System Stack   : 4 words                                              *
     387              ;*******************************************************************************
     388 0000ac       _prvHighestPriorityPeekTask:
     389                      .dwcfi  cfa_offset, 1
     390                      .dwcfi  save_reg_to_mem, 91, -1
     391 0000ac 5066          PSH T2
TMS320C55x Assembler PC v4.4.1 Sun Sep 16 02:56:02 2018

Tools Copyright (c) 1996-2012 Texas Instruments Incorporated
QPeek.asm                                                            PAGE    9

     392                      .dwcfi  cfa_offset, 2
     393                      .dwcfi  save_reg_to_mem, 14, -2
     394 0000ae 5076          PSH T3
     395                      .dwcfi  cfa_offset, 3
     396                      .dwcfi  save_reg_to_mem, 15, -3
     397 0000b0 50D5          PSHBOTH XAR5
     398                      .dwcfi  cfa_offset, 4
     399                      .dwcfi  save_reg_to_mem, 26, -4
     400 0000b2 50E5          PSHBOTH XAR6
     401                      .dwcfi  cfa_offset, 5
     402                      .dwcfi  save_reg_to_mem, 28, -5
     403 0000b4 50F5          PSHBOTH XAR7
     404                      .dwcfi  cfa_offset, 6
     405                      .dwcfi  save_reg_to_mem, 30, -6
     406 0000b6 4EFA          AADD #-6, SP
     407                      .dwcfi  cfa_offset, 12
     408              $C$DW$52        .dwtag  DW_TAG_variable, DW_AT_name("pvParameters")
     409                      .dwattr $C$DW$52, DW_AT_TI_symbol_name("_pvParameters")
     410                      .dwattr $C$DW$52, DW_AT_type(*$C$DW$T$3)
     411                      .dwattr $C$DW$52, DW_AT_location[DW_OP_bregx 0x24 0]
     412              $C$DW$53        .dwtag  DW_TAG_variable, DW_AT_name("xQueue")
     413                      .dwattr $C$DW$53, DW_AT_TI_symbol_name("_xQueue")
     414                      .dwattr $C$DW$53, DW_AT_type(*$C$DW$T$22)
     415                      .dwattr $C$DW$53, DW_AT_location[DW_OP_bregx 0x24 2]
     416              $C$DW$54        .dwtag  DW_TAG_variable, DW_AT_name("ulValue")
     417                      .dwattr $C$DW$54, DW_AT_TI_symbol_name("_ulValue")
     418                      .dwattr $C$DW$54, DW_AT_type(*$C$DW$T$68)
     419                      .dwattr $C$DW$54, DW_AT_location[DW_OP_bregx 0x24 4]
     420 0000b8 EB00          MOV XAR0, dbl(*SP(#0))
         0000ba 85   
     421                      .dwpsn  file "../FreeRTOS/Demo/Common/Minimal/QPeek.c",line 111,column 15,is_stmt
     422              
     423 0000bb 3C1E          MOV #1, AR6
     424 0000bd 3D1D  ||      MOV #1, AR5
     425              
     426 0000bf 3C1F          MOV #1, AR7
     427 0000c1 3D17  ||      MOV #1, T3
     428              
     429 0000c3 ED00          MOV dbl(*SP(#0)), XAR3
         0000c5 BF   
     430              
     431 0000c6 EB04          MOV XAR3, dbl(*SP(#2))
         0000c8 B5   
     432 0000c9 3D16  ||      MOV #1, T2
     433              
     434 0000cb       $C$L2:    
     435 0000cb       $C$DW$L$_prvHighestPriorityPeekTask$2$B:
     436                      .dwpsn  file "../FreeRTOS/Demo/Common/Minimal/QPeek.c",line 129,column 3,is_stmt
     437 0000cb 7AFF          MOV #-1 << #16, AC0 ; |129| 
         0000cd FF0A 
     438 0000cf ED04          MOV dbl(*SP(#2)), XAR0
         0000d1 8F   
     439 0000d2 EC08          AMAR *SP(#4), XAR1
         0000d4 9E   
     440 0000d5 7EFF          OR #0xffff, AC0, AC0 ; |129| 
TMS320C55x Assembler PC v4.4.1 Sun Sep 16 02:56:02 2018

Tools Copyright (c) 1996-2012 Texas Instruments Incorporated
QPeek.asm                                                            PAGE   10

         0000d7 FF00 
     441              $C$DW$55        .dwtag  DW_TAG_TI_branch
     442                      .dwattr $C$DW$55, DW_AT_low_pc(0x00)
     443                      .dwattr $C$DW$55, DW_AT_name("_xQueuePeek")
     444                      .dwattr $C$DW$55, DW_AT_TI_call
     445 0000d9 6C00          CALL #_xQueuePeek ; |129| 
         0000db 0000!
     446                                                      ; call occurs [#_xQueuePeek] ; |129| 
     447 0000dd 3C19          MOV #1, AR1
     448 0000df 1240          CMP T0 == AR1, TC1 ; |129| 
         0000e1 90   
     449 0000e2 6364          BCC $C$L3,TC1 ; |129| 
     450                                                      ; branchcc occurs ; |129| 
     451 0000e4       $C$DW$L$_prvHighestPriorityPeekTask$2$E:
     452 0000e4       $C$DW$L$_prvHighestPriorityPeekTask$3$B:
     453                      .dwpsn  file "../FreeRTOS/Demo/Common/Minimal/QPeek.c",line 132,column 4,is_stmt
     454 0000e4 E631          MOV #1, *(#_xErrorDetected) ; |132| 
         0000e6 0100 
         0000e8 0000-
     455 0000ea       $C$DW$L$_prvHighestPriorityPeekTask$3$E:
     456 0000ea       $C$L3:    
     457 0000ea       $C$DW$L$_prvHighestPriorityPeekTask$4$B:
     458                      .dwpsn  file "../FreeRTOS/Demo/Common/Minimal/QPeek.c",line 141,column 3,is_stmt
     459 0000ea 7A11          MOV #4386 << #16, AC0 ; |141| 
         0000ec 220A 
     460 0000ee ED08          MOV dbl(*SP(#4)), AC1 ; |141| 
         0000f0 18   
     461 0000f1 7E33          OR #0x3344, AC0, AC0 ; |141| 
         0000f3 4400 
     462 0000f5 1210          CMPU AC1 == AC0, TC1 ; |141| 
         0000f7 04   
     463 0000f8 6364          BCC $C$L4,TC1 ; |141| 
     464                                                      ; branchcc occurs ; |141| 
     465 0000fa       $C$DW$L$_prvHighestPriorityPeekTask$4$E:
     466 0000fa       $C$DW$L$_prvHighestPriorityPeekTask$5$B:
     467                      .dwpsn  file "../FreeRTOS/Demo/Common/Minimal/QPeek.c",line 144,column 4,is_stmt
     468 0000fa E631          MOV #1, *(#_xErrorDetected) ; |144| 
         0000fc 0100 
         0000fe 0000-
     469 000100       $C$DW$L$_prvHighestPriorityPeekTask$5$E:
     470 000100       $C$L4:    
     471 000100       $C$DW$L$_prvHighestPriorityPeekTask$6$B:
     472                      .dwpsn  file "../FreeRTOS/Demo/Common/Minimal/QPeek.c",line 147,column 3,is_stmt
     473 000100 ED04          MOV dbl(*SP(#2)), XAR0
         000102 8F   
     474              $C$DW$56        .dwtag  DW_TAG_TI_branch
     475                      .dwattr $C$DW$56, DW_AT_low_pc(0x00)
     476                      .dwattr $C$DW$56, DW_AT_name("_uxQueueMessagesWaiting")
     477                      .dwattr $C$DW$56, DW_AT_TI_call
     478 000103 6C00          CALL #_uxQueueMessagesWaiting ; |147| 
         000105 0000!
     479                                                      ; call occurs [#_uxQueueMessagesWaiting] ; |147| 
     480 000107 1240          CMPU T0 == AR7, TC1 ; |147| 
         000109 F4   
     481 00010a 6364          BCC $C$L5,TC1 ; |147| 
TMS320C55x Assembler PC v4.4.1 Sun Sep 16 02:56:02 2018

Tools Copyright (c) 1996-2012 Texas Instruments Incorporated
QPeek.asm                                                            PAGE   11

     482                                                      ; branchcc occurs ; |147| 
     483 00010c       $C$DW$L$_prvHighestPriorityPeekTask$6$E:
     484 00010c       $C$DW$L$_prvHighestPriorityPeekTask$7$B:
     485                      .dwpsn  file "../FreeRTOS/Demo/Common/Minimal/QPeek.c",line 150,column 4,is_stmt
     486 00010c E631          MOV #1, *(#_xErrorDetected) ; |150| 
         00010e 0100 
         000110 0000-
     487 000112       $C$DW$L$_prvHighestPriorityPeekTask$7$E:
     488 000112       $C$L5:    
     489 000112       $C$DW$L$_prvHighestPriorityPeekTask$8$B:
     490                      .dwpsn  file "../FreeRTOS/Demo/Common/Minimal/QPeek.c",line 156,column 3,is_stmt
     491 000112 3C00          MOV #0, AC0 ; |156| 
     492 000114 EB08          MOV AC0, dbl(*SP(#4)) ; |156| 
         000116 08   
     493                      .dwpsn  file "../FreeRTOS/Demo/Common/Minimal/QPeek.c",line 157,column 3,is_stmt
     494 000117 EC08          AMAR *SP(#4), XAR1
         000119 9E   
     495 00011a ED04          MOV dbl(*SP(#2)), XAR0
         00011c 8F   
     496              $C$DW$57        .dwtag  DW_TAG_TI_branch
     497                      .dwattr $C$DW$57, DW_AT_low_pc(0x00)
     498                      .dwattr $C$DW$57, DW_AT_name("_xQueueReceive")
     499                      .dwattr $C$DW$57, DW_AT_TI_call
     500 00011d 6C00          CALL #_xQueueReceive ; |157| 
         00011f 0000!
     501                                                      ; call occurs [#_xQueueReceive] ; |157| 
     502 000121 1240          CMP T0 == AR6, TC1 ; |157| 
         000123 E0   
     503 000124 6364          BCC $C$L6,TC1 ; |157| 
     504                                                      ; branchcc occurs ; |157| 
     505 000126       $C$DW$L$_prvHighestPriorityPeekTask$8$E:
     506 000126       $C$DW$L$_prvHighestPriorityPeekTask$9$B:
     507                      .dwpsn  file "../FreeRTOS/Demo/Common/Minimal/QPeek.c",line 160,column 4,is_stmt
     508 000126 E631          MOV #1, *(#_xErrorDetected) ; |160| 
         000128 0100 
         00012a 0000-
     509 00012c       $C$DW$L$_prvHighestPriorityPeekTask$9$E:
     510 00012c       $C$L6:    
     511 00012c       $C$DW$L$_prvHighestPriorityPeekTask$10$B:
     512                      .dwpsn  file "../FreeRTOS/Demo/Common/Minimal/QPeek.c",line 163,column 3,is_stmt
     513 00012c 7A11          MOV #4386 << #16, AC0 ; |163| 
         00012e 220A 
     514 000130 ED08          MOV dbl(*SP(#4)), AC1 ; |163| 
         000132 18   
     515 000133 7E33          OR #0x3344, AC0, AC0 ; |163| 
         000135 4400 
     516 000137 1210          CMPU AC1 == AC0, TC1 ; |163| 
         000139 04   
     517 00013a 6364          BCC $C$L7,TC1 ; |163| 
     518                                                      ; branchcc occurs ; |163| 
     519 00013c       $C$DW$L$_prvHighestPriorityPeekTask$10$E:
     520 00013c       $C$DW$L$_prvHighestPriorityPeekTask$11$B:
     521                      .dwpsn  file "../FreeRTOS/Demo/Common/Minimal/QPeek.c",line 167,column 4,is_stmt
     522 00013c E631          MOV #1, *(#_xErrorDetected) ; |167| 
         00013e 0100 
TMS320C55x Assembler PC v4.4.1 Sun Sep 16 02:56:02 2018

Tools Copyright (c) 1996-2012 Texas Instruments Incorporated
QPeek.asm                                                            PAGE   12

         000140 0000-
     523 000142       $C$DW$L$_prvHighestPriorityPeekTask$11$E:
     524 000142       $C$L7:    
     525 000142       $C$DW$L$_prvHighestPriorityPeekTask$12$B:
     526                      .dwpsn  file "../FreeRTOS/Demo/Common/Minimal/QPeek.c",line 172,column 3,is_stmt
     527 000142 7AFF          MOV #-1 << #16, AC0 ; |172| 
         000144 FF0A 
     528 000146 ED04          MOV dbl(*SP(#2)), XAR0
         000148 8F   
     529 000149 EC08          AMAR *SP(#4), XAR1
         00014b 9E   
     530 00014c 7EFF          OR #0xffff, AC0, AC0 ; |172| 
         00014e FF00 
     531              $C$DW$58        .dwtag  DW_TAG_TI_branch
     532                      .dwattr $C$DW$58, DW_AT_low_pc(0x00)
     533                      .dwattr $C$DW$58, DW_AT_name("_xQueuePeek")
     534                      .dwattr $C$DW$58, DW_AT_TI_call
     535 000150 6C00          CALL #_xQueuePeek ; |172| 
         000152 0000!
     536                                                      ; call occurs [#_xQueuePeek] ; |172| 
     537 000154 1240          CMP T0 == AR5, TC1 ; |172| 
         000156 D0   
     538 000157 6364          BCC $C$L8,TC1 ; |172| 
     539                                                      ; branchcc occurs ; |172| 
     540 000159       $C$DW$L$_prvHighestPriorityPeekTask$12$E:
     541 000159       $C$DW$L$_prvHighestPriorityPeekTask$13$B:
     542                      .dwpsn  file "../FreeRTOS/Demo/Common/Minimal/QPeek.c",line 175,column 4,is_stmt
     543 000159 E631          MOV #1, *(#_xErrorDetected) ; |175| 
         00015b 0100 
         00015d 0000-
     544 00015f       $C$DW$L$_prvHighestPriorityPeekTask$13$E:
     545 00015f       $C$L8:    
     546 00015f       $C$DW$L$_prvHighestPriorityPeekTask$14$B:
     547                      .dwpsn  file "../FreeRTOS/Demo/Common/Minimal/QPeek.c",line 180,column 3,is_stmt
     548 00015f 7A01          MOV #291 << #16, AC0 ; |180| 
         000161 230A 
     549 000163 ED08          MOV dbl(*SP(#4)), AC1 ; |180| 
         000165 18   
     550 000166 7E45          OR #0x4567, AC0, AC0 ; |180| 
         000168 6700 
     551 00016a 1210          CMPU AC1 == AC0, TC1 ; |180| 
         00016c 04   
     552 00016d 6364          BCC $C$L9,TC1 ; |180| 
     553                                                      ; branchcc occurs ; |180| 
     554 00016f       $C$DW$L$_prvHighestPriorityPeekTask$14$E:
     555 00016f       $C$DW$L$_prvHighestPriorityPeekTask$15$B:
     556                      .dwpsn  file "../FreeRTOS/Demo/Common/Minimal/QPeek.c",line 183,column 4,is_stmt
     557 00016f E631          MOV #1, *(#_xErrorDetected) ; |183| 
         000171 0100 
         000173 0000-
     558 000175       $C$DW$L$_prvHighestPriorityPeekTask$15$E:
     559 000175       $C$L9:    
     560 000175       $C$DW$L$_prvHighestPriorityPeekTask$16$B:
     561                      .dwpsn  file "../FreeRTOS/Demo/Common/Minimal/QPeek.c",line 186,column 3,is_stmt
     562 000175 ED04          MOV dbl(*SP(#2)), XAR0
TMS320C55x Assembler PC v4.4.1 Sun Sep 16 02:56:02 2018

Tools Copyright (c) 1996-2012 Texas Instruments Incorporated
QPeek.asm                                                            PAGE   13

         000177 8F   
     563              $C$DW$59        .dwtag  DW_TAG_TI_branch
     564                      .dwattr $C$DW$59, DW_AT_low_pc(0x00)
     565                      .dwattr $C$DW$59, DW_AT_name("_uxQueueMessagesWaiting")
     566                      .dwattr $C$DW$59, DW_AT_TI_call
     567 000178 6C00          CALL #_uxQueueMessagesWaiting ; |186| 
         00017a 0000!
     568                                                      ; call occurs [#_uxQueueMessagesWaiting] ; |186| 
     569 00017c 1240          CMPU T0 == T3, TC1 ; |186| 
         00017e 74   
     570 00017f 6364          BCC $C$L10,TC1 ; |186| 
     571                                                      ; branchcc occurs ; |186| 
     572 000181       $C$DW$L$_prvHighestPriorityPeekTask$16$E:
     573 000181       $C$DW$L$_prvHighestPriorityPeekTask$17$B:
     574                      .dwpsn  file "../FreeRTOS/Demo/Common/Minimal/QPeek.c",line 189,column 4,is_stmt
     575 000181 E631          MOV #1, *(#_xErrorDetected) ; |189| 
         000183 0100 
         000185 0000-
     576 000187       $C$DW$L$_prvHighestPriorityPeekTask$17$E:
     577 000187       $C$L10:    
     578 000187       $C$DW$L$_prvHighestPriorityPeekTask$18$B:
     579                      .dwpsn  file "../FreeRTOS/Demo/Common/Minimal/QPeek.c",line 196,column 3,is_stmt
     580 000187 EC31          AMOV #0, XAR0 ; |196| 
         000189 8E00 
         00018b 0000 
     581              $C$DW$60        .dwtag  DW_TAG_TI_branch
     582                      .dwattr $C$DW$60, DW_AT_low_pc(0x00)
     583                      .dwattr $C$DW$60, DW_AT_name("_vTaskSuspend")
     584                      .dwattr $C$DW$60, DW_AT_TI_call
     585 00018d 6C00          CALL #_vTaskSuspend ; |196| 
         00018f 0000!
     586                                                      ; call occurs [#_vTaskSuspend] ; |196| 
     587                      .dwpsn  file "../FreeRTOS/Demo/Common/Minimal/QPeek.c",line 203,column 3,is_stmt
     588 000191 7AFF          MOV #-1 << #16, AC0 ; |203| 
         000193 FF0A 
     589 000195 EC08          AMAR *SP(#4), XAR1
         000197 9E   
     590 000198 ED04          MOV dbl(*SP(#2)), XAR0
         00019a 8F   
     591 00019b 7EFF          OR #0xffff, AC0, AC0 ; |203| 
         00019d FF00 
     592              $C$DW$61        .dwtag  DW_TAG_TI_branch
     593                      .dwattr $C$DW$61, DW_AT_low_pc(0x00)
     594                      .dwattr $C$DW$61, DW_AT_name("_xQueuePeek")
     595                      .dwattr $C$DW$61, DW_AT_TI_call
     596 00019f 6C00          CALL #_xQueuePeek ; |203| 
         0001a1 0000!
     597                                                      ; call occurs [#_xQueuePeek] ; |203| 
     598 0001a3 1240          CMP T0 == T2, TC1 ; |203| 
         0001a5 60   
     599 0001a6 6364          BCC $C$L11,TC1 ; |203| 
     600                                                      ; branchcc occurs ; |203| 
     601 0001a8       $C$DW$L$_prvHighestPriorityPeekTask$18$E:
     602 0001a8       $C$DW$L$_prvHighestPriorityPeekTask$19$B:
     603                      .dwpsn  file "../FreeRTOS/Demo/Common/Minimal/QPeek.c",line 205,column 4,is_stmt
TMS320C55x Assembler PC v4.4.1 Sun Sep 16 02:56:02 2018

Tools Copyright (c) 1996-2012 Texas Instruments Incorporated
QPeek.asm                                                            PAGE   14

     604 0001a8 E631          MOV #1, *(#_xErrorDetected) ; |205| 
         0001aa 0100 
         0001ac 0000-
     605 0001ae       $C$DW$L$_prvHighestPriorityPeekTask$19$E:
     606 0001ae       $C$L11:    
     607 0001ae       $C$DW$L$_prvHighestPriorityPeekTask$20$B:
     608                      .dwpsn  file "../FreeRTOS/Demo/Common/Minimal/QPeek.c",line 208,column 3,is_stmt
     609 0001ae 7AAA          MOV #-21829 << #16, AC0 ; |208| 
         0001b0 BB0A 
     610 0001b2 ED08          MOV dbl(*SP(#4)), AC1 ; |208| 
         0001b4 18   
     611 0001b5 7EAA          OR #0xaabb, AC0, AC0 ; |208| 
         0001b7 BB00 
     612 0001b9 1210          CMPU AC1 == AC0, TC1 ; |208| 
         0001bb 04   
     613 0001bc 6364          BCC $C$L12,TC1 ; |208| 
     614                                                      ; branchcc occurs ; |208| 
     615 0001be       $C$DW$L$_prvHighestPriorityPeekTask$20$E:
     616 0001be       $C$DW$L$_prvHighestPriorityPeekTask$21$B:
     617                      .dwpsn  file "../FreeRTOS/Demo/Common/Minimal/QPeek.c",line 210,column 4,is_stmt
     618 0001be E631          MOV #1, *(#_xErrorDetected) ; |210| 
         0001c0 0100 
         0001c2 0000-
     619 0001c4       $C$DW$L$_prvHighestPriorityPeekTask$21$E:
     620 0001c4       $C$L12:    
     621 0001c4       $C$DW$L$_prvHighestPriorityPeekTask$22$B:
     622                      .dwpsn  file "../FreeRTOS/Demo/Common/Minimal/QPeek.c",line 213,column 3,is_stmt
     623 0001c4 EC31          AMOV #0, XAR0 ; |213| 
         0001c6 8E00 
         0001c8 0000 
     624              $C$DW$62        .dwtag  DW_TAG_TI_branch
     625                      .dwattr $C$DW$62, DW_AT_low_pc(0x00)
     626                      .dwattr $C$DW$62, DW_AT_name("_vTaskSuspend")
     627                      .dwattr $C$DW$62, DW_AT_TI_call
     628 0001ca 6C00          CALL #_vTaskSuspend ; |213| 
         0001cc 0000!
     629                                                      ; call occurs [#_vTaskSuspend] ; |213| 
     630                      .dwpsn  file "../FreeRTOS/Demo/Common/Minimal/QPeek.c",line 214,column 2,is_stmt
     631 0001ce 06FE          B $C$L2   ; |214| 
         0001d0 FA   
     632                                                      ; branch occurs ; |214| 
     633 0001d1       $C$DW$L$_prvHighestPriorityPeekTask$22$E:
     634                      .dwcfi  cfa_offset, 6
     635                      .dwcfi  restore_reg, 30
     636                      .dwcfi  cfa_offset, 5
     637                      .dwcfi  restore_reg, 28
     638                      .dwcfi  cfa_offset, 4
     639                      .dwcfi  restore_reg, 26
     640                      .dwcfi  cfa_offset, 3
     641                      .dwcfi  restore_reg, 15
     642                      .dwcfi  cfa_offset, 2
     643                      .dwcfi  restore_reg, 14
     644                      .dwcfi  cfa_offset, 1
     645              
     646              $C$DW$63        .dwtag  DW_TAG_TI_loop
TMS320C55x Assembler PC v4.4.1 Sun Sep 16 02:56:02 2018

Tools Copyright (c) 1996-2012 Texas Instruments Incorporated
QPeek.asm                                                            PAGE   15

     647                      .dwattr $C$DW$63, DW_AT_name("F:\eZdsp_DBG\eZDSP_5535_Files\ccsws2\test\Debug\QPeek.asm:$C$L2:1:15370
     648                      .dwattr $C$DW$63, DW_AT_TI_begin_file("../FreeRTOS/Demo/Common/Minimal/QPeek.c")
     649                      .dwattr $C$DW$63, DW_AT_TI_begin_line(0x7d)
     650                      .dwattr $C$DW$63, DW_AT_TI_end_line(0xd6)
     651              $C$DW$64        .dwtag  DW_TAG_TI_loop_range
     652                      .dwattr $C$DW$64, DW_AT_low_pc($C$DW$L$_prvHighestPriorityPeekTask$2$B)
     653                      .dwattr $C$DW$64, DW_AT_high_pc($C$DW$L$_prvHighestPriorityPeekTask$2$E)
     654              $C$DW$65        .dwtag  DW_TAG_TI_loop_range
     655                      .dwattr $C$DW$65, DW_AT_low_pc($C$DW$L$_prvHighestPriorityPeekTask$3$B)
     656                      .dwattr $C$DW$65, DW_AT_high_pc($C$DW$L$_prvHighestPriorityPeekTask$3$E)
     657              $C$DW$66        .dwtag  DW_TAG_TI_loop_range
     658                      .dwattr $C$DW$66, DW_AT_low_pc($C$DW$L$_prvHighestPriorityPeekTask$4$B)
     659                      .dwattr $C$DW$66, DW_AT_high_pc($C$DW$L$_prvHighestPriorityPeekTask$4$E)
     660              $C$DW$67        .dwtag  DW_TAG_TI_loop_range
     661                      .dwattr $C$DW$67, DW_AT_low_pc($C$DW$L$_prvHighestPriorityPeekTask$5$B)
     662                      .dwattr $C$DW$67, DW_AT_high_pc($C$DW$L$_prvHighestPriorityPeekTask$5$E)
     663              $C$DW$68        .dwtag  DW_TAG_TI_loop_range
     664                      .dwattr $C$DW$68, DW_AT_low_pc($C$DW$L$_prvHighestPriorityPeekTask$6$B)
     665                      .dwattr $C$DW$68, DW_AT_high_pc($C$DW$L$_prvHighestPriorityPeekTask$6$E)
     666              $C$DW$69        .dwtag  DW_TAG_TI_loop_range
     667                      .dwattr $C$DW$69, DW_AT_low_pc($C$DW$L$_prvHighestPriorityPeekTask$7$B)
     668                      .dwattr $C$DW$69, DW_AT_high_pc($C$DW$L$_prvHighestPriorityPeekTask$7$E)
     669              $C$DW$70        .dwtag  DW_TAG_TI_loop_range
     670                      .dwattr $C$DW$70, DW_AT_low_pc($C$DW$L$_prvHighestPriorityPeekTask$8$B)
     671                      .dwattr $C$DW$70, DW_AT_high_pc($C$DW$L$_prvHighestPriorityPeekTask$8$E)
     672              $C$DW$71        .dwtag  DW_TAG_TI_loop_range
     673                      .dwattr $C$DW$71, DW_AT_low_pc($C$DW$L$_prvHighestPriorityPeekTask$9$B)
     674                      .dwattr $C$DW$71, DW_AT_high_pc($C$DW$L$_prvHighestPriorityPeekTask$9$E)
     675              $C$DW$72        .dwtag  DW_TAG_TI_loop_range
     676                      .dwattr $C$DW$72, DW_AT_low_pc($C$DW$L$_prvHighestPriorityPeekTask$10$B)
     677                      .dwattr $C$DW$72, DW_AT_high_pc($C$DW$L$_prvHighestPriorityPeekTask$10$E)
     678              $C$DW$73        .dwtag  DW_TAG_TI_loop_range
     679                      .dwattr $C$DW$73, DW_AT_low_pc($C$DW$L$_prvHighestPriorityPeekTask$11$B)
     680                      .dwattr $C$DW$73, DW_AT_high_pc($C$DW$L$_prvHighestPriorityPeekTask$11$E)
     681              $C$DW$74        .dwtag  DW_TAG_TI_loop_range
     682                      .dwattr $C$DW$74, DW_AT_low_pc($C$DW$L$_prvHighestPriorityPeekTask$12$B)
     683                      .dwattr $C$DW$74, DW_AT_high_pc($C$DW$L$_prvHighestPriorityPeekTask$12$E)
     684              $C$DW$75        .dwtag  DW_TAG_TI_loop_range
     685                      .dwattr $C$DW$75, DW_AT_low_pc($C$DW$L$_prvHighestPriorityPeekTask$13$B)
     686                      .dwattr $C$DW$75, DW_AT_high_pc($C$DW$L$_prvHighestPriorityPeekTask$13$E)
     687              $C$DW$76        .dwtag  DW_TAG_TI_loop_range
     688                      .dwattr $C$DW$76, DW_AT_low_pc($C$DW$L$_prvHighestPriorityPeekTask$14$B)
     689                      .dwattr $C$DW$76, DW_AT_high_pc($C$DW$L$_prvHighestPriorityPeekTask$14$E)
     690              $C$DW$77        .dwtag  DW_TAG_TI_loop_range
     691                      .dwattr $C$DW$77, DW_AT_low_pc($C$DW$L$_prvHighestPriorityPeekTask$15$B)
     692                      .dwattr $C$DW$77, DW_AT_high_pc($C$DW$L$_prvHighestPriorityPeekTask$15$E)
     693              $C$DW$78        .dwtag  DW_TAG_TI_loop_range
     694                      .dwattr $C$DW$78, DW_AT_low_pc($C$DW$L$_prvHighestPriorityPeekTask$16$B)
     695                      .dwattr $C$DW$78, DW_AT_high_pc($C$DW$L$_prvHighestPriorityPeekTask$16$E)
     696              $C$DW$79        .dwtag  DW_TAG_TI_loop_range
     697                      .dwattr $C$DW$79, DW_AT_low_pc($C$DW$L$_prvHighestPriorityPeekTask$17$B)
     698                      .dwattr $C$DW$79, DW_AT_high_pc($C$DW$L$_prvHighestPriorityPeekTask$17$E)
     699              $C$DW$80        .dwtag  DW_TAG_TI_loop_range
     700                      .dwattr $C$DW$80, DW_AT_low_pc($C$DW$L$_prvHighestPriorityPeekTask$18$B)
     701                      .dwattr $C$DW$80, DW_AT_high_pc($C$DW$L$_prvHighestPriorityPeekTask$18$E)
TMS320C55x Assembler PC v4.4.1 Sun Sep 16 02:56:02 2018

Tools Copyright (c) 1996-2012 Texas Instruments Incorporated
QPeek.asm                                                            PAGE   16

     702              $C$DW$81        .dwtag  DW_TAG_TI_loop_range
     703                      .dwattr $C$DW$81, DW_AT_low_pc($C$DW$L$_prvHighestPriorityPeekTask$19$B)
     704                      .dwattr $C$DW$81, DW_AT_high_pc($C$DW$L$_prvHighestPriorityPeekTask$19$E)
     705              $C$DW$82        .dwtag  DW_TAG_TI_loop_range
     706                      .dwattr $C$DW$82, DW_AT_low_pc($C$DW$L$_prvHighestPriorityPeekTask$20$B)
     707                      .dwattr $C$DW$82, DW_AT_high_pc($C$DW$L$_prvHighestPriorityPeekTask$20$E)
     708              $C$DW$83        .dwtag  DW_TAG_TI_loop_range
     709                      .dwattr $C$DW$83, DW_AT_low_pc($C$DW$L$_prvHighestPriorityPeekTask$21$B)
     710                      .dwattr $C$DW$83, DW_AT_high_pc($C$DW$L$_prvHighestPriorityPeekTask$21$E)
     711              $C$DW$84        .dwtag  DW_TAG_TI_loop_range
     712                      .dwattr $C$DW$84, DW_AT_low_pc($C$DW$L$_prvHighestPriorityPeekTask$22$B)
     713                      .dwattr $C$DW$84, DW_AT_high_pc($C$DW$L$_prvHighestPriorityPeekTask$22$E)
     714                      .dwendtag $C$DW$63
     715              
     716                      .dwattr $C$DW$50, DW_AT_TI_end_file("../FreeRTOS/Demo/Common/Minimal/QPeek.c")
     717                      .dwattr $C$DW$50, DW_AT_TI_end_line(0xd7)
     718                      .dwattr $C$DW$50, DW_AT_TI_end_column(0x01)
     719                      .dwendentry
     720                      .dwendtag $C$DW$50
     721              
     722 0001d1               .sect   ".text"
     723                      .align 4
     724              
     725              $C$DW$85        .dwtag  DW_TAG_subprogram, DW_AT_name("prvHighPriorityPeekTask")
     726                      .dwattr $C$DW$85, DW_AT_low_pc(_prvHighPriorityPeekTask)
     727                      .dwattr $C$DW$85, DW_AT_high_pc(0x00)
     728                      .dwattr $C$DW$85, DW_AT_TI_symbol_name("_prvHighPriorityPeekTask")
     729                      .dwattr $C$DW$85, DW_AT_TI_begin_file("../FreeRTOS/Demo/Common/Minimal/QPeek.c")
     730                      .dwattr $C$DW$85, DW_AT_TI_begin_line(0xda)
     731                      .dwattr $C$DW$85, DW_AT_TI_begin_column(0x0d)
     732                      .dwattr $C$DW$85, DW_AT_TI_max_frame_size(0x0a)
     733                      .dwpsn  file "../FreeRTOS/Demo/Common/Minimal/QPeek.c",line 219,column 1,is_stmt,address _prvHighPrio
     734              
     735                      .dwfde $C$DW$CIE, _prvHighPriorityPeekTask
     736              $C$DW$86        .dwtag  DW_TAG_formal_parameter, DW_AT_name("pvParameters")
     737                      .dwattr $C$DW$86, DW_AT_TI_symbol_name("_pvParameters")
     738                      .dwattr $C$DW$86, DW_AT_type(*$C$DW$T$3)
     739                      .dwattr $C$DW$86, DW_AT_location[DW_OP_reg17]
     740              ;*******************************************************************************
     741              ;* FUNCTION NAME: prvHighPriorityPeekTask                                      *
     742              ;*                                                                             *
     743              ;*   Function Uses Regs : AC0,AC0,AC1,AC1,T0,T2,T3,AR0,XAR0,AR1,XAR1,AR3,XAR3, *
     744              ;*                        AR5,SP,TC1,M40,SATA,SATD,RDM,FRCT,SMUL               *
     745              ;*   Save On Entry Regs : T2,T3,AR5                                            *
     746              ;*   Stack Frame        : Compact (No Frame Pointer, w/ debug)                 *
     747              ;*   Total Frame Size   : 10 words                                             *
     748              ;*                        (1 return address/alignment)                         *
     749              ;*                        (6 local values)                                     *
     750              ;*                        (3 register save area)                               *
     751              ;*   Min System Stack   : 2 words                                              *
     752              ;*******************************************************************************
     753 0001d4       _prvHighPriorityPeekTask:
     754                      .dwcfi  cfa_offset, 1
     755                      .dwcfi  save_reg_to_mem, 91, -1
     756 0001d4 5066          PSH T2
TMS320C55x Assembler PC v4.4.1 Sun Sep 16 02:56:02 2018

Tools Copyright (c) 1996-2012 Texas Instruments Incorporated
QPeek.asm                                                            PAGE   17

     757                      .dwcfi  cfa_offset, 2
     758                      .dwcfi  save_reg_to_mem, 14, -2
     759 0001d6 5076          PSH T3
     760                      .dwcfi  cfa_offset, 3
     761                      .dwcfi  save_reg_to_mem, 15, -3
     762 0001d8 50D5          PSHBOTH XAR5
     763                      .dwcfi  cfa_offset, 4
     764                      .dwcfi  save_reg_to_mem, 26, -4
     765 0001da 4EFA          AADD #-6, SP
     766                      .dwcfi  cfa_offset, 10
     767              $C$DW$87        .dwtag  DW_TAG_variable, DW_AT_name("pvParameters")
     768                      .dwattr $C$DW$87, DW_AT_TI_symbol_name("_pvParameters")
     769                      .dwattr $C$DW$87, DW_AT_type(*$C$DW$T$3)
     770                      .dwattr $C$DW$87, DW_AT_location[DW_OP_bregx 0x24 0]
     771              $C$DW$88        .dwtag  DW_TAG_variable, DW_AT_name("xQueue")
     772                      .dwattr $C$DW$88, DW_AT_TI_symbol_name("_xQueue")
     773                      .dwattr $C$DW$88, DW_AT_type(*$C$DW$T$22)
     774                      .dwattr $C$DW$88, DW_AT_location[DW_OP_bregx 0x24 2]
     775              $C$DW$89        .dwtag  DW_TAG_variable, DW_AT_name("ulValue")
     776                      .dwattr $C$DW$89, DW_AT_TI_symbol_name("_ulValue")
     777                      .dwattr $C$DW$89, DW_AT_type(*$C$DW$T$68)
     778                      .dwattr $C$DW$89, DW_AT_location[DW_OP_bregx 0x24 4]
     779 0001dc EB00          MOV XAR0, dbl(*SP(#0))
         0001de 85   
     780                      .dwpsn  file "../FreeRTOS/Demo/Common/Minimal/QPeek.c",line 220,column 15,is_stmt
     781              
     782 0001df 3C1D          MOV #1, AR5
     783 0001e1 3D17  ||      MOV #1, T3
     784              
     785 0001e3 ED00          MOV dbl(*SP(#0)), XAR3
         0001e5 BF   
     786              
     787 0001e6 EB04          MOV XAR3, dbl(*SP(#2))
         0001e8 B5   
     788 0001e9 3D16  ||      MOV #1, T2
     789              
     790 0001eb       $C$L13:    
     791 0001eb       $C$DW$L$_prvHighPriorityPeekTask$2$B:
     792                      .dwpsn  file "../FreeRTOS/Demo/Common/Minimal/QPeek.c",line 228,column 3,is_stmt
     793 0001eb 7AFF          MOV #-1 << #16, AC0 ; |228| 
         0001ed FF0A 
     794 0001ef ED04          MOV dbl(*SP(#2)), XAR0
         0001f1 8F   
     795 0001f2 EC08          AMAR *SP(#4), XAR1
         0001f4 9E   
     796 0001f5 7EFF          OR #0xffff, AC0, AC0 ; |228| 
         0001f7 FF00 
     797              $C$DW$90        .dwtag  DW_TAG_TI_branch
     798                      .dwattr $C$DW$90, DW_AT_low_pc(0x00)
     799                      .dwattr $C$DW$90, DW_AT_name("_xQueuePeek")
     800                      .dwattr $C$DW$90, DW_AT_TI_call
     801 0001f9 6C00          CALL #_xQueuePeek ; |228| 
         0001fb 0000!
     802                                                      ; call occurs [#_xQueuePeek] ; |228| 
     803 0001fd 1240          CMP T0 == AR5, TC1 ; |228| 
TMS320C55x Assembler PC v4.4.1 Sun Sep 16 02:56:02 2018

Tools Copyright (c) 1996-2012 Texas Instruments Incorporated
QPeek.asm                                                            PAGE   18

         0001ff D0   
     804 000200 6364          BCC $C$L14,TC1 ; |228| 
     805                                                      ; branchcc occurs ; |228| 
     806 000202       $C$DW$L$_prvHighPriorityPeekTask$2$E:
     807 000202       $C$DW$L$_prvHighPriorityPeekTask$3$B:
     808                      .dwpsn  file "../FreeRTOS/Demo/Common/Minimal/QPeek.c",line 231,column 4,is_stmt
     809 000202 E631          MOV #1, *(#_xErrorDetected) ; |231| 
         000204 0100 
         000206 0000-
     810 000208       $C$DW$L$_prvHighPriorityPeekTask$3$E:
     811 000208       $C$L14:    
     812 000208       $C$DW$L$_prvHighPriorityPeekTask$4$B:
     813                      .dwpsn  file "../FreeRTOS/Demo/Common/Minimal/QPeek.c",line 237,column 3,is_stmt
     814 000208 7A01          MOV #291 << #16, AC0 ; |237| 
         00020a 230A 
     815 00020c ED08          MOV dbl(*SP(#4)), AC1 ; |237| 
         00020e 18   
     816 00020f 7E45          OR #0x4567, AC0, AC0 ; |237| 
         000211 6700 
     817 000213 1210          CMPU AC1 == AC0, TC1 ; |237| 
         000215 04   
     818 000216 6364          BCC $C$L15,TC1 ; |237| 
     819                                                      ; branchcc occurs ; |237| 
     820 000218       $C$DW$L$_prvHighPriorityPeekTask$4$E:
     821 000218       $C$DW$L$_prvHighPriorityPeekTask$5$B:
     822                      .dwpsn  file "../FreeRTOS/Demo/Common/Minimal/QPeek.c",line 240,column 4,is_stmt
     823 000218 E631          MOV #1, *(#_xErrorDetected) ; |240| 
         00021a 0100 
         00021c 0000-
     824 00021e       $C$DW$L$_prvHighPriorityPeekTask$5$E:
     825 00021e       $C$L15:    
     826 00021e       $C$DW$L$_prvHighPriorityPeekTask$6$B:
     827                      .dwpsn  file "../FreeRTOS/Demo/Common/Minimal/QPeek.c",line 243,column 3,is_stmt
     828 00021e ED04          MOV dbl(*SP(#2)), XAR0
         000220 8F   
     829              $C$DW$91        .dwtag  DW_TAG_TI_branch
     830                      .dwattr $C$DW$91, DW_AT_low_pc(0x00)
     831                      .dwattr $C$DW$91, DW_AT_name("_uxQueueMessagesWaiting")
     832                      .dwattr $C$DW$91, DW_AT_TI_call
     833 000221 6C00          CALL #_uxQueueMessagesWaiting ; |243| 
         000223 0000!
     834                                                      ; call occurs [#_uxQueueMessagesWaiting] ; |243| 
     835 000225 1240          CMPU T0 == T3, TC1 ; |243| 
         000227 74   
     836 000228 6364          BCC $C$L16,TC1 ; |243| 
     837                                                      ; branchcc occurs ; |243| 
     838 00022a       $C$DW$L$_prvHighPriorityPeekTask$6$E:
     839 00022a       $C$DW$L$_prvHighPriorityPeekTask$7$B:
     840                      .dwpsn  file "../FreeRTOS/Demo/Common/Minimal/QPeek.c",line 246,column 4,is_stmt
     841 00022a E631          MOV #1, *(#_xErrorDetected) ; |246| 
         00022c 0100 
         00022e 0000-
     842 000230       $C$DW$L$_prvHighPriorityPeekTask$7$E:
     843 000230       $C$L16:    
     844 000230       $C$DW$L$_prvHighPriorityPeekTask$8$B:
TMS320C55x Assembler PC v4.4.1 Sun Sep 16 02:56:02 2018

Tools Copyright (c) 1996-2012 Texas Instruments Incorporated
QPeek.asm                                                            PAGE   19

     845                      .dwpsn  file "../FreeRTOS/Demo/Common/Minimal/QPeek.c",line 253,column 3,is_stmt
     846 000230 EC31          AMOV #0, XAR0 ; |253| 
         000232 8E00 
         000234 0000 
     847              $C$DW$92        .dwtag  DW_TAG_TI_branch
     848                      .dwattr $C$DW$92, DW_AT_low_pc(0x00)
     849                      .dwattr $C$DW$92, DW_AT_name("_vTaskSuspend")
     850                      .dwattr $C$DW$92, DW_AT_TI_call
     851 000236 6C00          CALL #_vTaskSuspend ; |253| 
         000238 0000!
     852                                                      ; call occurs [#_vTaskSuspend] ; |253| 
     853                      .dwpsn  file "../FreeRTOS/Demo/Common/Minimal/QPeek.c",line 258,column 3,is_stmt
     854 00023a 7AFF          MOV #-1 << #16, AC0 ; |258| 
         00023c FF0A 
     855 00023e EC08          AMAR *SP(#4), XAR1
         000240 9E   
     856 000241 ED04          MOV dbl(*SP(#2)), XAR0
         000243 8F   
     857 000244 7EFF          OR #0xffff, AC0, AC0 ; |258| 
         000246 FF00 
     858              $C$DW$93        .dwtag  DW_TAG_TI_branch
     859                      .dwattr $C$DW$93, DW_AT_low_pc(0x00)
     860                      .dwattr $C$DW$93, DW_AT_name("_xQueueReceive")
     861                      .dwattr $C$DW$93, DW_AT_TI_call
     862 000248 6C00          CALL #_xQueueReceive ; |258| 
         00024a 0000!
     863                                                      ; call occurs [#_xQueueReceive] ; |258| 
     864 00024c 1240          CMP T0 == T2, TC1 ; |258| 
         00024e 60   
     865 00024f 6364          BCC $C$L17,TC1 ; |258| 
     866                                                      ; branchcc occurs ; |258| 
     867 000251       $C$DW$L$_prvHighPriorityPeekTask$8$E:
     868 000251       $C$DW$L$_prvHighPriorityPeekTask$9$B:
     869                      .dwpsn  file "../FreeRTOS/Demo/Common/Minimal/QPeek.c",line 260,column 4,is_stmt
     870 000251 E631          MOV #1, *(#_xErrorDetected) ; |260| 
         000253 0100 
         000255 0000-
     871 000257       $C$DW$L$_prvHighPriorityPeekTask$9$E:
     872 000257       $C$L17:    
     873 000257       $C$DW$L$_prvHighPriorityPeekTask$10$B:
     874                      .dwpsn  file "../FreeRTOS/Demo/Common/Minimal/QPeek.c",line 263,column 3,is_stmt
     875 000257 7AAA          MOV #-21829 << #16, AC0 ; |263| 
         000259 BB0A 
     876 00025b ED08          MOV dbl(*SP(#4)), AC1 ; |263| 
         00025d 18   
     877 00025e 7EAA          OR #0xaabb, AC0, AC0 ; |263| 
         000260 BB00 
     878 000262 1210          CMPU AC1 == AC0, TC1 ; |263| 
         000264 04   
     879 000265 6364          BCC $C$L18,TC1 ; |263| 
     880                                                      ; branchcc occurs ; |263| 
     881 000267       $C$DW$L$_prvHighPriorityPeekTask$10$E:
     882 000267       $C$DW$L$_prvHighPriorityPeekTask$11$B:
     883                      .dwpsn  file "../FreeRTOS/Demo/Common/Minimal/QPeek.c",line 265,column 4,is_stmt
     884 000267 E631          MOV #1, *(#_xErrorDetected) ; |265| 
TMS320C55x Assembler PC v4.4.1 Sun Sep 16 02:56:02 2018

Tools Copyright (c) 1996-2012 Texas Instruments Incorporated
QPeek.asm                                                            PAGE   20

         000269 0100 
         00026b 0000-
     885 00026d       $C$DW$L$_prvHighPriorityPeekTask$11$E:
     886 00026d       $C$L18:    
     887 00026d       $C$DW$L$_prvHighPriorityPeekTask$12$B:
     888                      .dwpsn  file "../FreeRTOS/Demo/Common/Minimal/QPeek.c",line 268,column 3,is_stmt
     889 00026d EC31          AMOV #0, XAR0 ; |268| 
         00026f 8E00 
         000271 0000 
     890              $C$DW$94        .dwtag  DW_TAG_TI_branch
     891                      .dwattr $C$DW$94, DW_AT_low_pc(0x00)
     892                      .dwattr $C$DW$94, DW_AT_name("_vTaskSuspend")
     893                      .dwattr $C$DW$94, DW_AT_TI_call
     894 000273 6C00          CALL #_vTaskSuspend ; |268| 
         000275 0000!
     895                                                      ; call occurs [#_vTaskSuspend] ; |268| 
     896                      .dwpsn  file "../FreeRTOS/Demo/Common/Minimal/QPeek.c",line 269,column 2,is_stmt
     897 000277 06FF          B $C$L13  ; |269| 
         000279 71   
     898                                                      ; branch occurs ; |269| 
     899 00027a       $C$DW$L$_prvHighPriorityPeekTask$12$E:
     900                      .dwcfi  cfa_offset, 4
     901                      .dwcfi  restore_reg, 26
     902                      .dwcfi  cfa_offset, 3
     903                      .dwcfi  restore_reg, 15
     904                      .dwcfi  cfa_offset, 2
     905                      .dwcfi  restore_reg, 14
     906                      .dwcfi  cfa_offset, 1
     907              
     908              $C$DW$95        .dwtag  DW_TAG_TI_loop
     909                      .dwattr $C$DW$95, DW_AT_name("F:\eZdsp_DBG\eZDSP_5535_Files\ccsws2\test\Debug\QPeek.asm:$C$L13:1:1537
     910                      .dwattr $C$DW$95, DW_AT_TI_begin_file("../FreeRTOS/Demo/Common/Minimal/QPeek.c")
     911                      .dwattr $C$DW$95, DW_AT_TI_begin_line(0xdf)
     912                      .dwattr $C$DW$95, DW_AT_TI_end_line(0x10d)
     913              $C$DW$96        .dwtag  DW_TAG_TI_loop_range
     914                      .dwattr $C$DW$96, DW_AT_low_pc($C$DW$L$_prvHighPriorityPeekTask$2$B)
     915                      .dwattr $C$DW$96, DW_AT_high_pc($C$DW$L$_prvHighPriorityPeekTask$2$E)
     916              $C$DW$97        .dwtag  DW_TAG_TI_loop_range
     917                      .dwattr $C$DW$97, DW_AT_low_pc($C$DW$L$_prvHighPriorityPeekTask$3$B)
     918                      .dwattr $C$DW$97, DW_AT_high_pc($C$DW$L$_prvHighPriorityPeekTask$3$E)
     919              $C$DW$98        .dwtag  DW_TAG_TI_loop_range
     920                      .dwattr $C$DW$98, DW_AT_low_pc($C$DW$L$_prvHighPriorityPeekTask$4$B)
     921                      .dwattr $C$DW$98, DW_AT_high_pc($C$DW$L$_prvHighPriorityPeekTask$4$E)
     922              $C$DW$99        .dwtag  DW_TAG_TI_loop_range
     923                      .dwattr $C$DW$99, DW_AT_low_pc($C$DW$L$_prvHighPriorityPeekTask$5$B)
     924                      .dwattr $C$DW$99, DW_AT_high_pc($C$DW$L$_prvHighPriorityPeekTask$5$E)
     925              $C$DW$100       .dwtag  DW_TAG_TI_loop_range
     926                      .dwattr $C$DW$100, DW_AT_low_pc($C$DW$L$_prvHighPriorityPeekTask$6$B)
     927                      .dwattr $C$DW$100, DW_AT_high_pc($C$DW$L$_prvHighPriorityPeekTask$6$E)
     928              $C$DW$101       .dwtag  DW_TAG_TI_loop_range
     929                      .dwattr $C$DW$101, DW_AT_low_pc($C$DW$L$_prvHighPriorityPeekTask$7$B)
     930                      .dwattr $C$DW$101, DW_AT_high_pc($C$DW$L$_prvHighPriorityPeekTask$7$E)
     931              $C$DW$102       .dwtag  DW_TAG_TI_loop_range
     932                      .dwattr $C$DW$102, DW_AT_low_pc($C$DW$L$_prvHighPriorityPeekTask$8$B)
     933                      .dwattr $C$DW$102, DW_AT_high_pc($C$DW$L$_prvHighPriorityPeekTask$8$E)
TMS320C55x Assembler PC v4.4.1 Sun Sep 16 02:56:02 2018

Tools Copyright (c) 1996-2012 Texas Instruments Incorporated
QPeek.asm                                                            PAGE   21

     934              $C$DW$103       .dwtag  DW_TAG_TI_loop_range
     935                      .dwattr $C$DW$103, DW_AT_low_pc($C$DW$L$_prvHighPriorityPeekTask$9$B)
     936                      .dwattr $C$DW$103, DW_AT_high_pc($C$DW$L$_prvHighPriorityPeekTask$9$E)
     937              $C$DW$104       .dwtag  DW_TAG_TI_loop_range
     938                      .dwattr $C$DW$104, DW_AT_low_pc($C$DW$L$_prvHighPriorityPeekTask$10$B)
     939                      .dwattr $C$DW$104, DW_AT_high_pc($C$DW$L$_prvHighPriorityPeekTask$10$E)
     940              $C$DW$105       .dwtag  DW_TAG_TI_loop_range
     941                      .dwattr $C$DW$105, DW_AT_low_pc($C$DW$L$_prvHighPriorityPeekTask$11$B)
     942                      .dwattr $C$DW$105, DW_AT_high_pc($C$DW$L$_prvHighPriorityPeekTask$11$E)
     943              $C$DW$106       .dwtag  DW_TAG_TI_loop_range
     944                      .dwattr $C$DW$106, DW_AT_low_pc($C$DW$L$_prvHighPriorityPeekTask$12$B)
     945                      .dwattr $C$DW$106, DW_AT_high_pc($C$DW$L$_prvHighPriorityPeekTask$12$E)
     946                      .dwendtag $C$DW$95
     947              
     948                      .dwattr $C$DW$85, DW_AT_TI_end_file("../FreeRTOS/Demo/Common/Minimal/QPeek.c")
     949                      .dwattr $C$DW$85, DW_AT_TI_end_line(0x10e)
     950                      .dwattr $C$DW$85, DW_AT_TI_end_column(0x01)
     951                      .dwendentry
     952                      .dwendtag $C$DW$85
     953              
     954 00027a               .sect   ".text"
     955                      .align 4
     956              
     957              $C$DW$107       .dwtag  DW_TAG_subprogram, DW_AT_name("prvMediumPriorityPeekTask")
     958                      .dwattr $C$DW$107, DW_AT_low_pc(_prvMediumPriorityPeekTask)
     959                      .dwattr $C$DW$107, DW_AT_high_pc(0x00)
     960                      .dwattr $C$DW$107, DW_AT_TI_symbol_name("_prvMediumPriorityPeekTask")
     961                      .dwattr $C$DW$107, DW_AT_TI_begin_file("../FreeRTOS/Demo/Common/Minimal/QPeek.c")
     962                      .dwattr $C$DW$107, DW_AT_TI_begin_line(0x111)
     963                      .dwattr $C$DW$107, DW_AT_TI_begin_column(0x0d)
     964                      .dwattr $C$DW$107, DW_AT_TI_max_frame_size(0x0a)
     965                      .dwpsn  file "../FreeRTOS/Demo/Common/Minimal/QPeek.c",line 274,column 1,is_stmt,address _prvMediumPr
     966              
     967                      .dwfde $C$DW$CIE, _prvMediumPriorityPeekTask
     968              $C$DW$108       .dwtag  DW_TAG_formal_parameter, DW_AT_name("pvParameters")
     969                      .dwattr $C$DW$108, DW_AT_TI_symbol_name("_pvParameters")
     970                      .dwattr $C$DW$108, DW_AT_type(*$C$DW$T$3)
     971                      .dwattr $C$DW$108, DW_AT_location[DW_OP_reg17]
     972              ;*******************************************************************************
     973              ;* FUNCTION NAME: prvMediumPriorityPeekTask                                    *
     974              ;*                                                                             *
     975              ;*   Function Uses Regs : AC0,AC0,AC1,AC1,T0,T2,T3,AR0,XAR0,AR1,XAR1,AR3,XAR3, *
     976              ;*                        SP,CARRY,TC1,M40,SATA,SATD,RDM,FRCT,SMUL             *
     977              ;*   Save On Entry Regs : T2,T3                                                *
     978              ;*   Stack Frame        : Compact (No Frame Pointer, w/ debug)                 *
     979              ;*   Total Frame Size   : 10 words                                             *
     980              ;*                        (2 return address/alignment)                         *
     981              ;*                        (6 local values)                                     *
     982              ;*                        (2 register save area)                               *
     983              ;*   Min System Stack   : 1 word                                               *
     984              ;*******************************************************************************
     985 00027c       _prvMediumPriorityPeekTask:
     986                      .dwcfi  cfa_offset, 1
     987                      .dwcfi  save_reg_to_mem, 91, -1
     988 00027c 5066          PSH T2
TMS320C55x Assembler PC v4.4.1 Sun Sep 16 02:56:02 2018

Tools Copyright (c) 1996-2012 Texas Instruments Incorporated
QPeek.asm                                                            PAGE   22

     989                      .dwcfi  cfa_offset, 2
     990                      .dwcfi  save_reg_to_mem, 14, -2
     991 00027e 5076          PSH T3
     992                      .dwcfi  cfa_offset, 3
     993                      .dwcfi  save_reg_to_mem, 15, -3
     994 000280 4EF9          AADD #-7, SP
     995                      .dwcfi  cfa_offset, 10
     996              $C$DW$109       .dwtag  DW_TAG_variable, DW_AT_name("pvParameters")
     997                      .dwattr $C$DW$109, DW_AT_TI_symbol_name("_pvParameters")
     998                      .dwattr $C$DW$109, DW_AT_type(*$C$DW$T$3)
     999                      .dwattr $C$DW$109, DW_AT_location[DW_OP_bregx 0x24 0]
    1000              $C$DW$110       .dwtag  DW_TAG_variable, DW_AT_name("xQueue")
    1001                      .dwattr $C$DW$110, DW_AT_TI_symbol_name("_xQueue")
    1002                      .dwattr $C$DW$110, DW_AT_type(*$C$DW$T$22)
    1003                      .dwattr $C$DW$110, DW_AT_location[DW_OP_bregx 0x24 2]
    1004              $C$DW$111       .dwtag  DW_TAG_variable, DW_AT_name("ulValue")
    1005                      .dwattr $C$DW$111, DW_AT_TI_symbol_name("_ulValue")
    1006                      .dwattr $C$DW$111, DW_AT_type(*$C$DW$T$68)
    1007                      .dwattr $C$DW$111, DW_AT_location[DW_OP_bregx 0x24 4]
    1008 000282 EB00          MOV XAR0, dbl(*SP(#0))
         000284 85   
    1009                      .dwpsn  file "../FreeRTOS/Demo/Common/Minimal/QPeek.c",line 275,column 15,is_stmt
    1010 000285 3C17          MOV #1, T3
    1011 000287 ED00          MOV dbl(*SP(#0)), XAR3
         000289 BF   
    1012              
    1013 00028a EB04          MOV XAR3, dbl(*SP(#2))
         00028c B5   
    1014 00028d 3D16  ||      MOV #1, T2
    1015              
    1016 00028f       $C$L19:    
    1017 00028f       $C$DW$L$_prvMediumPriorityPeekTask$2$B:
    1018                      .dwpsn  file "../FreeRTOS/Demo/Common/Minimal/QPeek.c",line 283,column 3,is_stmt
    1019 00028f 7AFF          MOV #-1 << #16, AC0 ; |283| 
         000291 FF0A 
    1020 000293 ED04          MOV dbl(*SP(#2)), XAR0
         000295 8F   
    1021 000296 EC08          AMAR *SP(#4), XAR1
         000298 9E   
    1022 000299 7EFF          OR #0xffff, AC0, AC0 ; |283| 
         00029b FF00 
    1023              $C$DW$112       .dwtag  DW_TAG_TI_branch
    1024                      .dwattr $C$DW$112, DW_AT_low_pc(0x00)
    1025                      .dwattr $C$DW$112, DW_AT_name("_xQueuePeek")
    1026                      .dwattr $C$DW$112, DW_AT_TI_call
    1027 00029d 6C00          CALL #_xQueuePeek ; |283| 
         00029f 0000!
    1028                                                      ; call occurs [#_xQueuePeek] ; |283| 
    1029 0002a1 1240          CMP T0 == T3, TC1 ; |283| 
         0002a3 70   
    1030 0002a4 6364          BCC $C$L20,TC1 ; |283| 
    1031                                                      ; branchcc occurs ; |283| 
    1032 0002a6       $C$DW$L$_prvMediumPriorityPeekTask$2$E:
    1033 0002a6       $C$DW$L$_prvMediumPriorityPeekTask$3$B:
    1034                      .dwpsn  file "../FreeRTOS/Demo/Common/Minimal/QPeek.c",line 286,column 4,is_stmt
TMS320C55x Assembler PC v4.4.1 Sun Sep 16 02:56:02 2018

Tools Copyright (c) 1996-2012 Texas Instruments Incorporated
QPeek.asm                                                            PAGE   23

    1035 0002a6 E631          MOV #1, *(#_xErrorDetected) ; |286| 
         0002a8 0100 
         0002aa 0000-
    1036 0002ac       $C$DW$L$_prvMediumPriorityPeekTask$3$E:
    1037 0002ac       $C$L20:    
    1038 0002ac       $C$DW$L$_prvMediumPriorityPeekTask$4$B:
    1039                      .dwpsn  file "../FreeRTOS/Demo/Common/Minimal/QPeek.c",line 292,column 3,is_stmt
    1040 0002ac 7A01          MOV #291 << #16, AC0 ; |292| 
         0002ae 230A 
    1041 0002b0 ED08          MOV dbl(*SP(#4)), AC1 ; |292| 
         0002b2 18   
    1042 0002b3 7E45          OR #0x4567, AC0, AC0 ; |292| 
         0002b5 6700 
    1043 0002b7 1210          CMPU AC1 == AC0, TC1 ; |292| 
         0002b9 04   
    1044 0002ba 6364          BCC $C$L21,TC1 ; |292| 
    1045                                                      ; branchcc occurs ; |292| 
    1046 0002bc       $C$DW$L$_prvMediumPriorityPeekTask$4$E:
    1047 0002bc       $C$DW$L$_prvMediumPriorityPeekTask$5$B:
    1048                      .dwpsn  file "../FreeRTOS/Demo/Common/Minimal/QPeek.c",line 295,column 4,is_stmt
    1049 0002bc E631          MOV #1, *(#_xErrorDetected) ; |295| 
         0002be 0100 
         0002c0 0000-
    1050 0002c2       $C$DW$L$_prvMediumPriorityPeekTask$5$E:
    1051 0002c2       $C$L21:    
    1052 0002c2       $C$DW$L$_prvMediumPriorityPeekTask$6$B:
    1053                      .dwpsn  file "../FreeRTOS/Demo/Common/Minimal/QPeek.c",line 298,column 3,is_stmt
    1054 0002c2 ED04          MOV dbl(*SP(#2)), XAR0
         0002c4 8F   
    1055              $C$DW$113       .dwtag  DW_TAG_TI_branch
    1056                      .dwattr $C$DW$113, DW_AT_low_pc(0x00)
    1057                      .dwattr $C$DW$113, DW_AT_name("_uxQueueMessagesWaiting")
    1058                      .dwattr $C$DW$113, DW_AT_TI_call
    1059 0002c5 6C00          CALL #_uxQueueMessagesWaiting ; |298| 
         0002c7 0000!
    1060                                                      ; call occurs [#_uxQueueMessagesWaiting] ; |298| 
    1061 0002c9 1240          CMPU T0 == T2, TC1 ; |298| 
         0002cb 64   
    1062 0002cc 6364          BCC $C$L22,TC1 ; |298| 
    1063                                                      ; branchcc occurs ; |298| 
    1064 0002ce       $C$DW$L$_prvMediumPriorityPeekTask$6$E:
    1065 0002ce       $C$DW$L$_prvMediumPriorityPeekTask$7$B:
    1066                      .dwpsn  file "../FreeRTOS/Demo/Common/Minimal/QPeek.c",line 301,column 4,is_stmt
    1067 0002ce E631          MOV #1, *(#_xErrorDetected) ; |301| 
         0002d0 0100 
         0002d2 0000-
    1068 0002d4       $C$DW$L$_prvMediumPriorityPeekTask$7$E:
    1069 0002d4       $C$L22:    
    1070 0002d4       $C$DW$L$_prvMediumPriorityPeekTask$8$B:
    1071                      .dwpsn  file "../FreeRTOS/Demo/Common/Minimal/QPeek.c",line 305,column 3,is_stmt
    1072 0002d4 ED31          MOV dbl(*(#_ulLoopCounter)), AC0 ; |305| 
         0002d6 0800 
         0002d8 0002-
    1073 0002da 4010          ADD #1, AC0 ; |305| 
    1074 0002dc EB31          MOV AC0, dbl(*(#_ulLoopCounter)) ; |305| 
TMS320C55x Assembler PC v4.4.1 Sun Sep 16 02:56:02 2018

Tools Copyright (c) 1996-2012 Texas Instruments Incorporated
QPeek.asm                                                            PAGE   24

         0002de 0800 
         0002e0 0002-
    1075                      .dwpsn  file "../FreeRTOS/Demo/Common/Minimal/QPeek.c",line 309,column 3,is_stmt
    1076 0002e2 EC31          AMOV #0, XAR0 ; |309| 
         0002e4 8E00 
         0002e6 0000 
    1077              $C$DW$114       .dwtag  DW_TAG_TI_branch
    1078                      .dwattr $C$DW$114, DW_AT_low_pc(0x00)
    1079                      .dwattr $C$DW$114, DW_AT_name("_vTaskSuspend")
    1080                      .dwattr $C$DW$114, DW_AT_TI_call
    1081 0002e8 6C00          CALL #_vTaskSuspend ; |309| 
         0002ea 0000!
    1082                                                      ; call occurs [#_vTaskSuspend] ; |309| 
    1083                      .dwpsn  file "../FreeRTOS/Demo/Common/Minimal/QPeek.c",line 310,column 2,is_stmt
    1084 0002ec 06FF          B $C$L19  ; |310| 
         0002ee A0   
    1085                                                      ; branch occurs ; |310| 
    1086 0002ef       $C$DW$L$_prvMediumPriorityPeekTask$8$E:
    1087                      .dwcfi  cfa_offset, 3
    1088                      .dwcfi  restore_reg, 15
    1089                      .dwcfi  cfa_offset, 2
    1090                      .dwcfi  restore_reg, 14
    1091                      .dwcfi  cfa_offset, 1
    1092              
    1093              $C$DW$115       .dwtag  DW_TAG_TI_loop
    1094                      .dwattr $C$DW$115, DW_AT_name("F:\eZdsp_DBG\eZDSP_5535_Files\ccsws2\test\Debug\QPeek.asm:$C$L19:1:153
    1095                      .dwattr $C$DW$115, DW_AT_TI_begin_file("../FreeRTOS/Demo/Common/Minimal/QPeek.c")
    1096                      .dwattr $C$DW$115, DW_AT_TI_begin_line(0x116)
    1097                      .dwattr $C$DW$115, DW_AT_TI_end_line(0x136)
    1098              $C$DW$116       .dwtag  DW_TAG_TI_loop_range
    1099                      .dwattr $C$DW$116, DW_AT_low_pc($C$DW$L$_prvMediumPriorityPeekTask$2$B)
    1100                      .dwattr $C$DW$116, DW_AT_high_pc($C$DW$L$_prvMediumPriorityPeekTask$2$E)
    1101              $C$DW$117       .dwtag  DW_TAG_TI_loop_range
    1102                      .dwattr $C$DW$117, DW_AT_low_pc($C$DW$L$_prvMediumPriorityPeekTask$3$B)
    1103                      .dwattr $C$DW$117, DW_AT_high_pc($C$DW$L$_prvMediumPriorityPeekTask$3$E)
    1104              $C$DW$118       .dwtag  DW_TAG_TI_loop_range
    1105                      .dwattr $C$DW$118, DW_AT_low_pc($C$DW$L$_prvMediumPriorityPeekTask$4$B)
    1106                      .dwattr $C$DW$118, DW_AT_high_pc($C$DW$L$_prvMediumPriorityPeekTask$4$E)
    1107              $C$DW$119       .dwtag  DW_TAG_TI_loop_range
    1108                      .dwattr $C$DW$119, DW_AT_low_pc($C$DW$L$_prvMediumPriorityPeekTask$5$B)
    1109                      .dwattr $C$DW$119, DW_AT_high_pc($C$DW$L$_prvMediumPriorityPeekTask$5$E)
    1110              $C$DW$120       .dwtag  DW_TAG_TI_loop_range
    1111                      .dwattr $C$DW$120, DW_AT_low_pc($C$DW$L$_prvMediumPriorityPeekTask$6$B)
    1112                      .dwattr $C$DW$120, DW_AT_high_pc($C$DW$L$_prvMediumPriorityPeekTask$6$E)
    1113              $C$DW$121       .dwtag  DW_TAG_TI_loop_range
    1114                      .dwattr $C$DW$121, DW_AT_low_pc($C$DW$L$_prvMediumPriorityPeekTask$7$B)
    1115                      .dwattr $C$DW$121, DW_AT_high_pc($C$DW$L$_prvMediumPriorityPeekTask$7$E)
    1116              $C$DW$122       .dwtag  DW_TAG_TI_loop_range
    1117                      .dwattr $C$DW$122, DW_AT_low_pc($C$DW$L$_prvMediumPriorityPeekTask$8$B)
    1118                      .dwattr $C$DW$122, DW_AT_high_pc($C$DW$L$_prvMediumPriorityPeekTask$8$E)
    1119                      .dwendtag $C$DW$115
    1120              
    1121                      .dwattr $C$DW$107, DW_AT_TI_end_file("../FreeRTOS/Demo/Common/Minimal/QPeek.c")
    1122                      .dwattr $C$DW$107, DW_AT_TI_end_line(0x137)
    1123                      .dwattr $C$DW$107, DW_AT_TI_end_column(0x01)
TMS320C55x Assembler PC v4.4.1 Sun Sep 16 02:56:02 2018

Tools Copyright (c) 1996-2012 Texas Instruments Incorporated
QPeek.asm                                                            PAGE   25

    1124                      .dwendentry
    1125                      .dwendtag $C$DW$107
    1126              
    1127 0002ef               .sect   ".text"
    1128                      .align 4
    1129              
    1130              $C$DW$123       .dwtag  DW_TAG_subprogram, DW_AT_name("prvLowPriorityPeekTask")
    1131                      .dwattr $C$DW$123, DW_AT_low_pc(_prvLowPriorityPeekTask)
    1132                      .dwattr $C$DW$123, DW_AT_high_pc(0x00)
    1133                      .dwattr $C$DW$123, DW_AT_TI_symbol_name("_prvLowPriorityPeekTask")
    1134                      .dwattr $C$DW$123, DW_AT_TI_begin_file("../FreeRTOS/Demo/Common/Minimal/QPeek.c")
    1135                      .dwattr $C$DW$123, DW_AT_TI_begin_line(0x13a)
    1136                      .dwattr $C$DW$123, DW_AT_TI_begin_column(0x0d)
    1137                      .dwattr $C$DW$123, DW_AT_TI_max_frame_size(0x0c)
    1138                      .dwpsn  file "../FreeRTOS/Demo/Common/Minimal/QPeek.c",line 315,column 1,is_stmt,address _prvLowPrior
    1139              
    1140                      .dwfde $C$DW$CIE, _prvLowPriorityPeekTask
    1141              $C$DW$124       .dwtag  DW_TAG_formal_parameter, DW_AT_name("pvParameters")
    1142                      .dwattr $C$DW$124, DW_AT_TI_symbol_name("_pvParameters")
    1143                      .dwattr $C$DW$124, DW_AT_type(*$C$DW$T$3)
    1144                      .dwattr $C$DW$124, DW_AT_location[DW_OP_reg17]
    1145              ;*******************************************************************************
    1146              ;* FUNCTION NAME: prvLowPriorityPeekTask                                       *
    1147              ;*                                                                             *
    1148              ;*   Function Uses Regs : AC0,AC0,T0,T2,T3,AR0,XAR0,AR1,XAR1,AR3,XAR3,AR5,AR6, *
    1149              ;*                        SP,TC1,M40,SATA,SATD,RDM,FRCT,SMUL                   *
    1150              ;*   Save On Entry Regs : T2,T3,AR5,AR6                                        *
    1151              ;*   Stack Frame        : Compact (No Frame Pointer, w/ debug)                 *
    1152              ;*   Total Frame Size   : 12 words                                             *
    1153              ;*                        (2 return address/alignment)                         *
    1154              ;*                        (6 local values)                                     *
    1155              ;*                        (4 register save area)                               *
    1156              ;*   Min System Stack   : 3 words                                              *
    1157              ;*******************************************************************************
    1158 0002f0       _prvLowPriorityPeekTask:
    1159                      .dwcfi  cfa_offset, 1
    1160                      .dwcfi  save_reg_to_mem, 91, -1
    1161 0002f0 5066          PSH T2
    1162                      .dwcfi  cfa_offset, 2
    1163                      .dwcfi  save_reg_to_mem, 14, -2
    1164 0002f2 5076          PSH T3
    1165                      .dwcfi  cfa_offset, 3
    1166                      .dwcfi  save_reg_to_mem, 15, -3
    1167 0002f4 50D5          PSHBOTH XAR5
    1168                      .dwcfi  cfa_offset, 4
    1169                      .dwcfi  save_reg_to_mem, 26, -4
    1170 0002f6 50E5          PSHBOTH XAR6
    1171                      .dwcfi  cfa_offset, 5
    1172                      .dwcfi  save_reg_to_mem, 28, -5
    1173 0002f8 4EF9          AADD #-7, SP
    1174                      .dwcfi  cfa_offset, 12
    1175              $C$DW$125       .dwtag  DW_TAG_variable, DW_AT_name("pvParameters")
    1176                      .dwattr $C$DW$125, DW_AT_TI_symbol_name("_pvParameters")
    1177                      .dwattr $C$DW$125, DW_AT_type(*$C$DW$T$3)
    1178                      .dwattr $C$DW$125, DW_AT_location[DW_OP_bregx 0x24 0]
TMS320C55x Assembler PC v4.4.1 Sun Sep 16 02:56:02 2018

Tools Copyright (c) 1996-2012 Texas Instruments Incorporated
QPeek.asm                                                            PAGE   26

    1179              $C$DW$126       .dwtag  DW_TAG_variable, DW_AT_name("xQueue")
    1180                      .dwattr $C$DW$126, DW_AT_TI_symbol_name("_xQueue")
    1181                      .dwattr $C$DW$126, DW_AT_type(*$C$DW$T$22)
    1182                      .dwattr $C$DW$126, DW_AT_location[DW_OP_bregx 0x24 2]
    1183              $C$DW$127       .dwtag  DW_TAG_variable, DW_AT_name("ulValue")
    1184                      .dwattr $C$DW$127, DW_AT_TI_symbol_name("_ulValue")
    1185                      .dwattr $C$DW$127, DW_AT_type(*$C$DW$T$68)
    1186                      .dwattr $C$DW$127, DW_AT_location[DW_OP_bregx 0x24 4]
    1187 0002fa EB00          MOV XAR0, dbl(*SP(#0))
         0002fc 85   
    1188                      .dwpsn  file "../FreeRTOS/Demo/Common/Minimal/QPeek.c",line 316,column 15,is_stmt
    1189 0002fd 3C1D          MOV #1, AR5
    1190              
    1191 0002ff 3C1E          MOV #1, AR6
    1192 000301 3D17  ||      MOV #1, T3
    1193              
    1194 000303 ED00          MOV dbl(*SP(#0)), XAR3
         000305 BF   
    1195              
    1196 000306 EB04          MOV XAR3, dbl(*SP(#2))
         000308 B5   
    1197 000309 3D16  ||      MOV #1, T2
    1198              
    1199 00030b       $C$L23:    
    1200 00030b       $C$DW$L$_prvLowPriorityPeekTask$2$B:
    1201                      .dwpsn  file "../FreeRTOS/Demo/Common/Minimal/QPeek.c",line 323,column 3,is_stmt
    1202 00030b 7A11          MOV #4386 << #16, AC0 ; |323| 
         00030d 220A 
    1203 00030f 7E33          OR #0x3344, AC0, AC0 ; |323| 
         000311 4400 
    1204 000313 EB08          MOV AC0, dbl(*SP(#4)) ; |323| 
         000315 08   
    1205                      .dwpsn  file "../FreeRTOS/Demo/Common/Minimal/QPeek.c",line 324,column 3,is_stmt
    1206              
    1207 000319 3D04          MOV #0, T0
    1208 000316 EC08  ||      AMAR *SP(#4), XAR1
         000318 9E   
    1209              
    1210 00031b ED04          MOV dbl(*SP(#2)), XAR0
         00031d 8F   
    1211              $C$DW$128       .dwtag  DW_TAG_TI_branch
    1212                      .dwattr $C$DW$128, DW_AT_low_pc(0x00)
    1213                      .dwattr $C$DW$128, DW_AT_name("_xQueueGenericSend")
    1214                      .dwattr $C$DW$128, DW_AT_TI_call
    1215              
    1216 00031e 6C00          CALL #_xQueueGenericSend ; |324| 
         000320 0000!
    1217 000322 3D00  ||      MOV #0, AC0 ; |324| 
    1218              
    1219                                                      ; call occurs [#_xQueueGenericSend] ; |324| 
    1220 000324 1240          CMP T0 == AR6, TC1 ; |324| 
         000326 E0   
    1221 000327 6364          BCC $C$L24,TC1 ; |324| 
    1222                                                      ; branchcc occurs ; |324| 
    1223 000329       $C$DW$L$_prvLowPriorityPeekTask$2$E:
TMS320C55x Assembler PC v4.4.1 Sun Sep 16 02:56:02 2018

Tools Copyright (c) 1996-2012 Texas Instruments Incorporated
QPeek.asm                                                            PAGE   27

    1224 000329       $C$DW$L$_prvLowPriorityPeekTask$3$B:
    1225                      .dwpsn  file "../FreeRTOS/Demo/Common/Minimal/QPeek.c",line 328,column 4,is_stmt
    1226 000329 E631          MOV #1, *(#_xErrorDetected) ; |328| 
         00032b 0100 
         00032d 0000-
    1227 00032f       $C$DW$L$_prvLowPriorityPeekTask$3$E:
    1228 00032f       $C$L24:    
    1229 00032f       $C$DW$L$_prvLowPriorityPeekTask$4$B:
    1230                      .dwpsn  file "../FreeRTOS/Demo/Common/Minimal/QPeek.c",line 337,column 3,is_stmt
    1231 00032f ED04          MOV dbl(*SP(#2)), XAR0
         000331 8F   
    1232              $C$DW$129       .dwtag  DW_TAG_TI_branch
    1233                      .dwattr $C$DW$129, DW_AT_low_pc(0x00)
    1234                      .dwattr $C$DW$129, DW_AT_name("_uxQueueMessagesWaiting")
    1235                      .dwattr $C$DW$129, DW_AT_TI_call
    1236 000332 6C00          CALL #_uxQueueMessagesWaiting ; |337| 
         000334 0000!
    1237                                                      ; call occurs [#_uxQueueMessagesWaiting] ; |337| 
    1238 000336 6304          BCC $C$L25,T0 == #0 ; |337| 
    1239                                                      ; branchcc occurs ; |337| 
    1240 000338       $C$DW$L$_prvLowPriorityPeekTask$4$E:
    1241 000338       $C$DW$L$_prvLowPriorityPeekTask$5$B:
    1242                      .dwpsn  file "../FreeRTOS/Demo/Common/Minimal/QPeek.c",line 339,column 4,is_stmt
    1243 000338 E631          MOV #1, *(#_xErrorDetected) ; |339| 
         00033a 0100 
         00033c 0000-
    1244 00033e       $C$DW$L$_prvLowPriorityPeekTask$5$E:
    1245 00033e       $C$L25:    
    1246 00033e       $C$DW$L$_prvLowPriorityPeekTask$6$B:
    1247                      .dwpsn  file "../FreeRTOS/Demo/Common/Minimal/QPeek.c",line 344,column 3,is_stmt
    1248 00033e 7A01          MOV #291 << #16, AC0 ; |344| 
         000340 230A 
    1249 000342 7E45          OR #0x4567, AC0, AC0 ; |344| 
         000344 6700 
    1250 000346 EB08          MOV AC0, dbl(*SP(#4)) ; |344| 
         000348 08   
    1251                      .dwpsn  file "../FreeRTOS/Demo/Common/Minimal/QPeek.c",line 345,column 3,is_stmt
    1252              
    1253 00034c 3D04          MOV #0, T0
    1254 000349 EC08  ||      AMAR *SP(#4), XAR1
         00034b 9E   
    1255              
    1256 00034e ED04          MOV dbl(*SP(#2)), XAR0
         000350 8F   
    1257              $C$DW$130       .dwtag  DW_TAG_TI_branch
    1258                      .dwattr $C$DW$130, DW_AT_low_pc(0x00)
    1259                      .dwattr $C$DW$130, DW_AT_name("_xQueueGenericSend")
    1260                      .dwattr $C$DW$130, DW_AT_TI_call
    1261              
    1262 000351 6C00          CALL #_xQueueGenericSend ; |345| 
         000353 0000!
    1263 000355 3D00  ||      MOV #0, AC0 ; |345| 
    1264              
    1265                                                      ; call occurs [#_xQueueGenericSend] ; |345| 
    1266 000357 1240          CMP T0 == AR5, TC1 ; |345| 
TMS320C55x Assembler PC v4.4.1 Sun Sep 16 02:56:02 2018

Tools Copyright (c) 1996-2012 Texas Instruments Incorporated
QPeek.asm                                                            PAGE   28

         000359 D0   
    1267 00035a 6364          BCC $C$L26,TC1 ; |345| 
    1268                                                      ; branchcc occurs ; |345| 
    1269 00035c       $C$DW$L$_prvLowPriorityPeekTask$6$E:
    1270 00035c       $C$DW$L$_prvLowPriorityPeekTask$7$B:
    1271                      .dwpsn  file "../FreeRTOS/Demo/Common/Minimal/QPeek.c",line 349,column 4,is_stmt
    1272 00035c E631          MOV #1, *(#_xErrorDetected) ; |349| 
         00035e 0100 
         000360 0000-
    1273 000362       $C$DW$L$_prvLowPriorityPeekTask$7$E:
    1274 000362       $C$L26:    
    1275 000362       $C$DW$L$_prvLowPriorityPeekTask$8$B:
    1276                      .dwpsn  file "../FreeRTOS/Demo/Common/Minimal/QPeek.c",line 358,column 3,is_stmt
    1277 000362 3C00          MOV #0, AC0 ; |358| 
    1278 000364 EB08          MOV AC0, dbl(*SP(#4)) ; |358| 
         000366 08   
    1279                      .dwpsn  file "../FreeRTOS/Demo/Common/Minimal/QPeek.c",line 359,column 3,is_stmt
    1280 000367 EC08          AMAR *SP(#4), XAR1
         000369 9E   
    1281 00036a ED04          MOV dbl(*SP(#2)), XAR0
         00036c 8F   
    1282              $C$DW$131       .dwtag  DW_TAG_TI_branch
    1283                      .dwattr $C$DW$131, DW_AT_low_pc(0x00)
    1284                      .dwattr $C$DW$131, DW_AT_name("_xQueueReceive")
    1285                      .dwattr $C$DW$131, DW_AT_TI_call
    1286 00036d 6C00          CALL #_xQueueReceive ; |359| 
         00036f 0000!
    1287                                                      ; call occurs [#_xQueueReceive] ; |359| 
    1288 000371 1240          CMP T0 == T3, TC1 ; |359| 
         000373 70   
    1289 000374 6364          BCC $C$L27,TC1 ; |359| 
    1290                                                      ; branchcc occurs ; |359| 
    1291 000376       $C$DW$L$_prvLowPriorityPeekTask$8$E:
    1292 000376       $C$DW$L$_prvLowPriorityPeekTask$9$B:
    1293                      .dwpsn  file "../FreeRTOS/Demo/Common/Minimal/QPeek.c",line 362,column 4,is_stmt
    1294 000376 E631          MOV #1, *(#_xErrorDetected) ; |362| 
         000378 0100 
         00037a 0000-
    1295 00037c       $C$DW$L$_prvLowPriorityPeekTask$9$E:
    1296 00037c       $C$L27:    
    1297 00037c       $C$DW$L$_prvLowPriorityPeekTask$10$B:
    1298                      .dwpsn  file "../FreeRTOS/Demo/Common/Minimal/QPeek.c",line 365,column 3,is_stmt
    1299                      .dwpsn  file "../FreeRTOS/Demo/Common/Minimal/QPeek.c",line 372,column 3,is_stmt
    1300              $C$DW$132       .dwtag  DW_TAG_TI_branch
    1301                      .dwattr $C$DW$132, DW_AT_low_pc(0x00)
    1302                      .dwattr $C$DW$132, DW_AT_name("_vTaskDelay")
    1303                      .dwattr $C$DW$132, DW_AT_TI_call
    1304              
    1305 00037c 6C00          CALL #_vTaskDelay ; |372| 
         00037e 0000!
    1306 000380 3DA0  ||      MOV #10, AC0 ; |372| 
    1307              
    1308                                                      ; call occurs [#_vTaskDelay] ; |372| 
    1309                      .dwpsn  file "../FreeRTOS/Demo/Common/Minimal/QPeek.c",line 379,column 3,is_stmt
    1310 000382 ED31          MOV dbl(*(#_xMediumPriorityTask)), XAR0
TMS320C55x Assembler PC v4.4.1 Sun Sep 16 02:56:02 2018

Tools Copyright (c) 1996-2012 Texas Instruments Incorporated
QPeek.asm                                                            PAGE   29

         000384 8F00 
         000386 0004-
    1311              $C$DW$133       .dwtag  DW_TAG_TI_branch
    1312                      .dwattr $C$DW$133, DW_AT_low_pc(0x00)
    1313                      .dwattr $C$DW$133, DW_AT_name("_vTaskResume")
    1314                      .dwattr $C$DW$133, DW_AT_TI_call
    1315 000388 6C00          CALL #_vTaskResume ; |379| 
         00038a 0000!
    1316                                                      ; call occurs [#_vTaskResume] ; |379| 
    1317                      .dwpsn  file "../FreeRTOS/Demo/Common/Minimal/QPeek.c",line 380,column 3,is_stmt
    1318 00038c ED31          MOV dbl(*(#_xHighPriorityTask)), XAR0
         00038e 8F00 
         000390 0006-
    1319              $C$DW$134       .dwtag  DW_TAG_TI_branch
    1320                      .dwattr $C$DW$134, DW_AT_low_pc(0x00)
    1321                      .dwattr $C$DW$134, DW_AT_name("_vTaskResume")
    1322                      .dwattr $C$DW$134, DW_AT_TI_call
    1323 000392 6C00          CALL #_vTaskResume ; |380| 
         000394 0000!
    1324                                                      ; call occurs [#_vTaskResume] ; |380| 
    1325                      .dwpsn  file "../FreeRTOS/Demo/Common/Minimal/QPeek.c",line 381,column 3,is_stmt
    1326 000396 ED31          MOV dbl(*(#_xHighestPriorityTask)), XAR0
         000398 8F00 
         00039a 0008-
    1327              $C$DW$135       .dwtag  DW_TAG_TI_branch
    1328                      .dwattr $C$DW$135, DW_AT_low_pc(0x00)
    1329                      .dwattr $C$DW$135, DW_AT_name("_vTaskResume")
    1330                      .dwattr $C$DW$135, DW_AT_TI_call
    1331 00039c 6C00          CALL #_vTaskResume ; |381| 
         00039e 0000!
    1332                                                      ; call occurs [#_vTaskResume] ; |381| 
    1333                      .dwpsn  file "../FreeRTOS/Demo/Common/Minimal/QPeek.c",line 387,column 3,is_stmt
    1334 0003a0 7AAA          MOV #-21829 << #16, AC0 ; |387| 
         0003a2 BB0A 
    1335 0003a4 7EAA          OR #0xaabb, AC0, AC0 ; |387| 
         0003a6 BB00 
    1336 0003a8 EB08          MOV AC0, dbl(*SP(#4)) ; |387| 
         0003aa 08   
    1337                      .dwpsn  file "../FreeRTOS/Demo/Common/Minimal/QPeek.c",line 388,column 3,is_stmt
    1338 0003ab ED04          MOV dbl(*SP(#2)), XAR0
         0003ad 8F   
    1339              
    1340 0003ae EC08          AMAR *SP(#4), XAR1
         0003b0 9E   
    1341 0003b1 3D00  ||      MOV #0, AC0 ; |388| 
    1342              
    1343              $C$DW$136       .dwtag  DW_TAG_TI_branch
    1344                      .dwattr $C$DW$136, DW_AT_low_pc(0x00)
    1345                      .dwattr $C$DW$136, DW_AT_name("_xQueueGenericSend")
    1346                      .dwattr $C$DW$136, DW_AT_TI_call
    1347              
    1348 0003b3 6C00          CALL #_xQueueGenericSend ; |388| 
         0003b5 0000!
    1349 0003b7 3D14  ||      MOV #1, T0
    1350              
TMS320C55x Assembler PC v4.4.1 Sun Sep 16 02:56:02 2018

Tools Copyright (c) 1996-2012 Texas Instruments Incorporated
QPeek.asm                                                            PAGE   30

    1351                                                      ; call occurs [#_xQueueGenericSend] ; |388| 
    1352 0003b9 1240          CMP T0 == T2, TC1 ; |388| 
         0003bb 60   
    1353 0003bc 6364          BCC $C$L28,TC1 ; |388| 
    1354                                                      ; branchcc occurs ; |388| 
    1355 0003be       $C$DW$L$_prvLowPriorityPeekTask$10$E:
    1356 0003be       $C$DW$L$_prvLowPriorityPeekTask$11$B:
    1357                      .dwpsn  file "../FreeRTOS/Demo/Common/Minimal/QPeek.c",line 392,column 4,is_stmt
    1358 0003be E631          MOV #1, *(#_xErrorDetected) ; |392| 
         0003c0 0100 
         0003c2 0000-
    1359 0003c4       $C$DW$L$_prvLowPriorityPeekTask$11$E:
    1360 0003c4       $C$L28:    
    1361 0003c4       $C$DW$L$_prvLowPriorityPeekTask$12$B:
    1362                      .dwpsn  file "../FreeRTOS/Demo/Common/Minimal/QPeek.c",line 401,column 3,is_stmt
    1363 0003c4 ED04          MOV dbl(*SP(#2)), XAR0
         0003c6 8F   
    1364 0003c7 EC08          AMAR *SP(#4), XAR1
         0003c9 9E   
    1365              $C$DW$137       .dwtag  DW_TAG_TI_branch
    1366                      .dwattr $C$DW$137, DW_AT_low_pc(0x00)
    1367                      .dwattr $C$DW$137, DW_AT_name("_xQueuePeek")
    1368                      .dwattr $C$DW$137, DW_AT_TI_call
    1369              
    1370 0003ca 6C00          CALL #_xQueuePeek ; |401| 
         0003cc 0000!
    1371 0003ce 3D00  ||      MOV #0, AC0 ; |401| 
    1372              
    1373                                                      ; call occurs [#_xQueuePeek] ; |401| 
    1374 0003d0 6304          BCC $C$L29,T0 == #0 ; |401| 
    1375                                                      ; branchcc occurs ; |401| 
    1376 0003d2       $C$DW$L$_prvLowPriorityPeekTask$12$E:
    1377 0003d2       $C$DW$L$_prvLowPriorityPeekTask$13$B:
    1378                      .dwpsn  file "../FreeRTOS/Demo/Common/Minimal/QPeek.c",line 404,column 4,is_stmt
    1379 0003d2 E631          MOV #1, *(#_xErrorDetected) ; |404| 
         0003d4 0100 
         0003d6 0000-
    1380 0003d8       $C$DW$L$_prvLowPriorityPeekTask$13$E:
    1381 0003d8       $C$L29:    
    1382 0003d8       $C$DW$L$_prvLowPriorityPeekTask$14$B:
    1383                      .dwpsn  file "../FreeRTOS/Demo/Common/Minimal/QPeek.c",line 410,column 3,is_stmt
    1384 0003d8 ED31          MOV dbl(*(#_xHighPriorityTask)), XAR0
         0003da 8F00 
         0003dc 0006-
    1385              $C$DW$138       .dwtag  DW_TAG_TI_branch
    1386                      .dwattr $C$DW$138, DW_AT_low_pc(0x00)
    1387                      .dwattr $C$DW$138, DW_AT_name("_vTaskResume")
    1388                      .dwattr $C$DW$138, DW_AT_TI_call
    1389 0003de 6C00          CALL #_vTaskResume ; |410| 
         0003e0 0000!
    1390                                                      ; call occurs [#_vTaskResume] ; |410| 
    1391                      .dwpsn  file "../FreeRTOS/Demo/Common/Minimal/QPeek.c",line 411,column 3,is_stmt
    1392 0003e2 ED31          MOV dbl(*(#_xHighestPriorityTask)), XAR0
         0003e4 8F00 
         0003e6 0008-
TMS320C55x Assembler PC v4.4.1 Sun Sep 16 02:56:02 2018

Tools Copyright (c) 1996-2012 Texas Instruments Incorporated
QPeek.asm                                                            PAGE   31

    1393              $C$DW$139       .dwtag  DW_TAG_TI_branch
    1394                      .dwattr $C$DW$139, DW_AT_low_pc(0x00)
    1395                      .dwattr $C$DW$139, DW_AT_name("_vTaskResume")
    1396                      .dwattr $C$DW$139, DW_AT_TI_call
    1397 0003e8 6C00          CALL #_vTaskResume ; |411| 
         0003ea 0000!
    1398                                                      ; call occurs [#_vTaskResume] ; |411| 
    1399                      .dwpsn  file "../FreeRTOS/Demo/Common/Minimal/QPeek.c",line 415,column 3,is_stmt
    1400              $C$DW$140       .dwtag  DW_TAG_TI_branch
    1401                      .dwattr $C$DW$140, DW_AT_low_pc(0x00)
    1402                      .dwattr $C$DW$140, DW_AT_name("_vTaskDelay")
    1403                      .dwattr $C$DW$140, DW_AT_TI_call
    1404              
    1405 0003ec 6C00          CALL #_vTaskDelay ; |415| 
         0003ee 0000!
    1406 0003f0 3DA0  ||      MOV #10, AC0 ; |415| 
    1407              
    1408                                                      ; call occurs [#_vTaskDelay] ; |415| 
    1409                      .dwpsn  file "../FreeRTOS/Demo/Common/Minimal/QPeek.c",line 416,column 2,is_stmt
    1410 0003f2 06FF          B $C$L23  ; |416| 
         0003f4 16   
    1411                                                      ; branch occurs ; |416| 
    1412 0003f5       $C$DW$L$_prvLowPriorityPeekTask$14$E:
    1413                      .dwcfi  cfa_offset, 5
    1414                      .dwcfi  restore_reg, 28
    1415                      .dwcfi  cfa_offset, 4
    1416                      .dwcfi  restore_reg, 26
    1417                      .dwcfi  cfa_offset, 3
    1418                      .dwcfi  restore_reg, 15
    1419                      .dwcfi  cfa_offset, 2
    1420                      .dwcfi  restore_reg, 14
    1421                      .dwcfi  cfa_offset, 1
    1422              
    1423              $C$DW$141       .dwtag  DW_TAG_TI_loop
    1424                      .dwattr $C$DW$141, DW_AT_name("F:\eZdsp_DBG\eZDSP_5535_Files\ccsws2\test\Debug\QPeek.asm:$C$L23:1:153
    1425                      .dwattr $C$DW$141, DW_AT_TI_begin_file("../FreeRTOS/Demo/Common/Minimal/QPeek.c")
    1426                      .dwattr $C$DW$141, DW_AT_TI_begin_line(0x13f)
    1427                      .dwattr $C$DW$141, DW_AT_TI_end_line(0x1a0)
    1428              $C$DW$142       .dwtag  DW_TAG_TI_loop_range
    1429                      .dwattr $C$DW$142, DW_AT_low_pc($C$DW$L$_prvLowPriorityPeekTask$2$B)
    1430                      .dwattr $C$DW$142, DW_AT_high_pc($C$DW$L$_prvLowPriorityPeekTask$2$E)
    1431              $C$DW$143       .dwtag  DW_TAG_TI_loop_range
    1432                      .dwattr $C$DW$143, DW_AT_low_pc($C$DW$L$_prvLowPriorityPeekTask$3$B)
    1433                      .dwattr $C$DW$143, DW_AT_high_pc($C$DW$L$_prvLowPriorityPeekTask$3$E)
    1434              $C$DW$144       .dwtag  DW_TAG_TI_loop_range
    1435                      .dwattr $C$DW$144, DW_AT_low_pc($C$DW$L$_prvLowPriorityPeekTask$4$B)
    1436                      .dwattr $C$DW$144, DW_AT_high_pc($C$DW$L$_prvLowPriorityPeekTask$4$E)
    1437              $C$DW$145       .dwtag  DW_TAG_TI_loop_range
    1438                      .dwattr $C$DW$145, DW_AT_low_pc($C$DW$L$_prvLowPriorityPeekTask$5$B)
    1439                      .dwattr $C$DW$145, DW_AT_high_pc($C$DW$L$_prvLowPriorityPeekTask$5$E)
    1440              $C$DW$146       .dwtag  DW_TAG_TI_loop_range
    1441                      .dwattr $C$DW$146, DW_AT_low_pc($C$DW$L$_prvLowPriorityPeekTask$6$B)
    1442                      .dwattr $C$DW$146, DW_AT_high_pc($C$DW$L$_prvLowPriorityPeekTask$6$E)
    1443              $C$DW$147       .dwtag  DW_TAG_TI_loop_range
    1444                      .dwattr $C$DW$147, DW_AT_low_pc($C$DW$L$_prvLowPriorityPeekTask$7$B)
TMS320C55x Assembler PC v4.4.1 Sun Sep 16 02:56:02 2018

Tools Copyright (c) 1996-2012 Texas Instruments Incorporated
QPeek.asm                                                            PAGE   32

    1445                      .dwattr $C$DW$147, DW_AT_high_pc($C$DW$L$_prvLowPriorityPeekTask$7$E)
    1446              $C$DW$148       .dwtag  DW_TAG_TI_loop_range
    1447                      .dwattr $C$DW$148, DW_AT_low_pc($C$DW$L$_prvLowPriorityPeekTask$8$B)
    1448                      .dwattr $C$DW$148, DW_AT_high_pc($C$DW$L$_prvLowPriorityPeekTask$8$E)
    1449              $C$DW$149       .dwtag  DW_TAG_TI_loop_range
    1450                      .dwattr $C$DW$149, DW_AT_low_pc($C$DW$L$_prvLowPriorityPeekTask$9$B)
    1451                      .dwattr $C$DW$149, DW_AT_high_pc($C$DW$L$_prvLowPriorityPeekTask$9$E)
    1452              $C$DW$150       .dwtag  DW_TAG_TI_loop_range
    1453                      .dwattr $C$DW$150, DW_AT_low_pc($C$DW$L$_prvLowPriorityPeekTask$10$B)
    1454                      .dwattr $C$DW$150, DW_AT_high_pc($C$DW$L$_prvLowPriorityPeekTask$10$E)
    1455              $C$DW$151       .dwtag  DW_TAG_TI_loop_range
    1456                      .dwattr $C$DW$151, DW_AT_low_pc($C$DW$L$_prvLowPriorityPeekTask$11$B)
    1457                      .dwattr $C$DW$151, DW_AT_high_pc($C$DW$L$_prvLowPriorityPeekTask$11$E)
    1458              $C$DW$152       .dwtag  DW_TAG_TI_loop_range
    1459                      .dwattr $C$DW$152, DW_AT_low_pc($C$DW$L$_prvLowPriorityPeekTask$12$B)
    1460                      .dwattr $C$DW$152, DW_AT_high_pc($C$DW$L$_prvLowPriorityPeekTask$12$E)
    1461              $C$DW$153       .dwtag  DW_TAG_TI_loop_range
    1462                      .dwattr $C$DW$153, DW_AT_low_pc($C$DW$L$_prvLowPriorityPeekTask$13$B)
    1463                      .dwattr $C$DW$153, DW_AT_high_pc($C$DW$L$_prvLowPriorityPeekTask$13$E)
    1464              $C$DW$154       .dwtag  DW_TAG_TI_loop_range
    1465                      .dwattr $C$DW$154, DW_AT_low_pc($C$DW$L$_prvLowPriorityPeekTask$14$B)
    1466                      .dwattr $C$DW$154, DW_AT_high_pc($C$DW$L$_prvLowPriorityPeekTask$14$E)
    1467                      .dwendtag $C$DW$141
    1468              
    1469                      .dwattr $C$DW$123, DW_AT_TI_end_file("../FreeRTOS/Demo/Common/Minimal/QPeek.c")
    1470                      .dwattr $C$DW$123, DW_AT_TI_end_line(0x1a1)
    1471                      .dwattr $C$DW$123, DW_AT_TI_end_column(0x01)
    1472                      .dwendentry
    1473                      .dwendtag $C$DW$123
    1474              
    1475 0003f5               .sect   ".text"
    1476                      .align 4
    1477                      .global _xAreQueuePeekTasksStillRunning
    1478              
    1479              $C$DW$155       .dwtag  DW_TAG_subprogram, DW_AT_name("xAreQueuePeekTasksStillRunning")
    1480                      .dwattr $C$DW$155, DW_AT_low_pc(_xAreQueuePeekTasksStillRunning)
    1481                      .dwattr $C$DW$155, DW_AT_high_pc(0x00)
    1482                      .dwattr $C$DW$155, DW_AT_TI_symbol_name("_xAreQueuePeekTasksStillRunning")
    1483                      .dwattr $C$DW$155, DW_AT_external
    1484                      .dwattr $C$DW$155, DW_AT_type(*$C$DW$T$51)
    1485                      .dwattr $C$DW$155, DW_AT_TI_begin_file("../FreeRTOS/Demo/Common/Minimal/QPeek.c")
    1486                      .dwattr $C$DW$155, DW_AT_TI_begin_line(0x1a5)
    1487                      .dwattr $C$DW$155, DW_AT_TI_begin_column(0x0c)
    1488                      .dwattr $C$DW$155, DW_AT_TI_max_frame_size(0x01)
    1489                      .dwpsn  file "../FreeRTOS/Demo/Common/Minimal/QPeek.c",line 422,column 1,is_stmt,address _xAreQueuePe
    1490              
    1491                      .dwfde $C$DW$CIE, _xAreQueuePeekTasksStillRunning
    1492              $C$DW$156       .dwtag  DW_TAG_variable, DW_AT_name("ulLastLoopCounter")
    1493                      .dwattr $C$DW$156, DW_AT_TI_symbol_name("_ulLastLoopCounter$1")
    1494                      .dwattr $C$DW$156, DW_AT_type(*$C$DW$T$68)
    1495                      .dwattr $C$DW$156, DW_AT_location[DW_OP_addr _ulLastLoopCounter$1]
    1496              ;*******************************************************************************
    1497              ;* FUNCTION NAME: xAreQueuePeekTasksStillRunning                               *
    1498              ;*                                                                             *
    1499              ;*   Function Uses Regs : AC0,AC0,AC1,AC1,T0,AR1,AR2,SP,TC1,M40,SATA,SATD,RDM, *
TMS320C55x Assembler PC v4.4.1 Sun Sep 16 02:56:02 2018

Tools Copyright (c) 1996-2012 Texas Instruments Incorporated
QPeek.asm                                                            PAGE   33

    1500              ;*                        FRCT,SMUL                                            *
    1501              ;*   Stack Frame        : Compact (No Frame Pointer, w/ debug)                 *
    1502              ;*   Total Frame Size   : 1 word                                               *
    1503              ;*                        (1 return address/alignment)                         *
    1504              ;*   Min System Stack   : 1 word                                               *
    1505              ;*******************************************************************************
    1506 0003f8       _xAreQueuePeekTasksStillRunning:
    1507                      .dwcfi  cfa_offset, 1
    1508                      .dwcfi  save_reg_to_mem, 91, -1
    1509                      .dwpsn  file "../FreeRTOS/Demo/Common/Minimal/QPeek.c",line 427,column 2,is_stmt
    1510 0003f8 ED31          MOV dbl(*(#_ulLoopCounter)), AC0 ; |427| 
         0003fa 0800 
         0003fc 0002-
    1511 0003fe ED31          MOV dbl(*(#_ulLastLoopCounter$1)), AC1 ; |427| 
         000400 1800 
         000402 000A-
    1512 000404 121C          CMPU AC1 != AC0, TC1 ; |427| 
         000406 04   
    1513 000407 6364          BCC $C$L30,TC1 ; |427| 
    1514                                                      ; branchcc occurs ; |427| 
    1515                      .dwpsn  file "../FreeRTOS/Demo/Common/Minimal/QPeek.c",line 429,column 3,is_stmt
    1516 000409 E631          MOV #1, *(#_xErrorDetected) ; |429| 
         00040b 0100 
         00040d 0000-
    1517 00040f       $C$L30:    
    1518                      .dwpsn  file "../FreeRTOS/Demo/Common/Minimal/QPeek.c",line 432,column 2,is_stmt
    1519 00040f ED31          MOV dbl(*(#_ulLoopCounter)), AC0 ; |432| 
         000411 0800 
         000413 0002-
    1520 000415 EB31          MOV AC0, dbl(*(#_ulLastLoopCounter$1)) ; |432| 
         000417 0800 
         000419 000A-
    1521                      .dwpsn  file "../FreeRTOS/Demo/Common/Minimal/QPeek.c",line 437,column 2,is_stmt
    1522              
    1523 00041b 3C04          MOV #0, T0
    1524 00041d 3D09  ||      MOV #0, AR1
    1525              
    1526 00041f AA31          MOV *(#_xErrorDetected), AR2 ; |437| 
         000421 0000 
         000423 00-  
    1527 000424 610A          BCC $C$L31,AR2 == #0 ; |437| 
    1528                                                      ; branchcc occurs ; |437| 
    1529 000426 3C19          MOV #1, AR1
    1530 000428       $C$L31:    
    1531 000428 6119          BCC $C$L32,AR1 != #0 ; |437| 
    1532                                                      ; branchcc occurs ; |437| 
    1533 00042a 3C14          MOV #1, T0
    1534 00042c       $C$L32:    
    1535                      .dwpsn  file "../FreeRTOS/Demo/Common/Minimal/QPeek.c",line 438,column 1,is_stmt
    1536              $C$DW$157       .dwtag  DW_TAG_TI_branch
    1537                      .dwattr $C$DW$157, DW_AT_low_pc(0x00)
    1538                      .dwattr $C$DW$157, DW_AT_TI_return
    1539 00042c 4804          RET
    1540                                                      ; return occurs
    1541                      .dwattr $C$DW$155, DW_AT_TI_end_file("../FreeRTOS/Demo/Common/Minimal/QPeek.c")
TMS320C55x Assembler PC v4.4.1 Sun Sep 16 02:56:02 2018

Tools Copyright (c) 1996-2012 Texas Instruments Incorporated
QPeek.asm                                                            PAGE   34

    1542                      .dwattr $C$DW$155, DW_AT_TI_end_line(0x1b6)
    1543                      .dwattr $C$DW$155, DW_AT_TI_end_column(0x01)
    1544                      .dwendentry
    1545                      .dwendtag $C$DW$155
    1546              
    1547              ;*******************************************************************************
    1548              ;* FAR STRINGS                                                                 *
    1549              ;*******************************************************************************
    1550 000000               .sect   ".const:.string"
    1551                      .align  2
    1552 000000 0051  $C$FSL1:        .string "QPeek_Test_Queue",0
         000001 0050 
         000002 0065 
         000003 0065 
         000004 006B 
         000005 005F 
         000006 0054 
         000007 0065 
         000008 0073 
         000009 0074 
         00000a 005F 
         00000b 0051 
         00000c 0075 
         00000d 0065 
         00000e 0075 
         00000f 0065 
         000010 0000 
    1553                      .align  2
    1554 000012 0050  $C$FSL2:        .string "PeekL",0
         000013 0065 
         000014 0065 
         000015 006B 
         000016 004C 
         000017 0000 
    1555                      .align  2
    1556 000018 0050  $C$FSL3:        .string "PeekM",0
         000019 0065 
         00001a 0065 
         00001b 006B 
         00001c 004D 
         00001d 0000 
    1557                      .align  2
    1558 00001e 0050  $C$FSL4:        .string "PeekH1",0
         00001f 0065 
         000020 0065 
         000021 006B 
         000022 0048 
         000023 0031 
         000024 0000 
    1559                      .align  2
    1560 000026 0050  $C$FSL5:        .string "PeekH2",0
         000027 0065 
         000028 0065 
         000029 006B 
         00002a 0048 
TMS320C55x Assembler PC v4.4.1 Sun Sep 16 02:56:02 2018

Tools Copyright (c) 1996-2012 Texas Instruments Incorporated
QPeek.asm                                                            PAGE   35

         00002b 0032 
         00002c 0000 
    1561              ;******************************************************************************
    1562              ;* UNDEFINED EXTERNAL REFERENCES                                              *
    1563              ;******************************************************************************
    1564                      .global _xTaskCreate
    1565                      .global _vTaskDelay
    1566                      .global _vTaskSuspend
    1567                      .global _vTaskResume
    1568                      .global _xQueueGenericSend
    1569                      .global _xQueuePeek
    1570                      .global _xQueueReceive
    1571                      .global _uxQueueMessagesWaiting
    1572                      .global _vQueueAddToRegistry
    1573                      .global _xQueueGenericCreate
    1574              
    1575              ;*******************************************************************************
    1576              ;* TYPE INFORMATION                                                            *
    1577              ;*******************************************************************************
    1578              
    1579              $C$DW$T$19      .dwtag  DW_TAG_structure_type
    1580                      .dwattr $C$DW$T$19, DW_AT_name("QueueDefinition")
    1581                      .dwattr $C$DW$T$19, DW_AT_declaration
    1582                      .dwendtag $C$DW$T$19
    1583              
    1584              $C$DW$T$21      .dwtag  DW_TAG_pointer_type
    1585                      .dwattr $C$DW$T$21, DW_AT_type(*$C$DW$T$19)
    1586                      .dwattr $C$DW$T$21, DW_AT_address_class(0x17)
    1587              $C$DW$T$22      .dwtag  DW_TAG_typedef, DW_AT_name("QueueHandle_t")
    1588                      .dwattr $C$DW$T$22, DW_AT_type(*$C$DW$T$21)
    1589                      .dwattr $C$DW$T$22, DW_AT_language(DW_LANG_C)
    1590              $C$DW$158       .dwtag  DW_TAG_TI_far_type
    1591                      .dwattr $C$DW$158, DW_AT_type(*$C$DW$T$22)
    1592              $C$DW$T$23      .dwtag  DW_TAG_const_type
    1593                      .dwattr $C$DW$T$23, DW_AT_type(*$C$DW$158)
    1594              $C$DW$T$3       .dwtag  DW_TAG_pointer_type
    1595                      .dwattr $C$DW$T$3, DW_AT_address_class(0x17)
    1596              $C$DW$159       .dwtag  DW_TAG_TI_far_type
    1597                      .dwattr $C$DW$159, DW_AT_type(*$C$DW$T$3)
    1598              $C$DW$T$30      .dwtag  DW_TAG_const_type
    1599                      .dwattr $C$DW$T$30, DW_AT_type(*$C$DW$159)
    1600              
    1601              $C$DW$T$31      .dwtag  DW_TAG_subroutine_type
    1602                      .dwattr $C$DW$T$31, DW_AT_language(DW_LANG_C)
    1603              $C$DW$160       .dwtag  DW_TAG_formal_parameter
    1604                      .dwattr $C$DW$160, DW_AT_type(*$C$DW$T$3)
    1605                      .dwendtag $C$DW$T$31
    1606              
    1607              $C$DW$T$32      .dwtag  DW_TAG_pointer_type
    1608                      .dwattr $C$DW$T$32, DW_AT_type(*$C$DW$T$31)
    1609                      .dwattr $C$DW$T$32, DW_AT_address_class(0x20)
    1610              $C$DW$T$33      .dwtag  DW_TAG_typedef, DW_AT_name("TaskFunction_t")
    1611                      .dwattr $C$DW$T$33, DW_AT_type(*$C$DW$T$32)
    1612                      .dwattr $C$DW$T$33, DW_AT_language(DW_LANG_C)
    1613              $C$DW$161       .dwtag  DW_TAG_TI_far_type
TMS320C55x Assembler PC v4.4.1 Sun Sep 16 02:56:02 2018

Tools Copyright (c) 1996-2012 Texas Instruments Incorporated
QPeek.asm                                                            PAGE   36

    1614              $C$DW$T$42      .dwtag  DW_TAG_const_type
    1615                      .dwattr $C$DW$T$42, DW_AT_type(*$C$DW$161)
    1616              $C$DW$T$43      .dwtag  DW_TAG_pointer_type
    1617                      .dwattr $C$DW$T$43, DW_AT_type(*$C$DW$T$42)
    1618                      .dwattr $C$DW$T$43, DW_AT_address_class(0x17)
    1619              $C$DW$162       .dwtag  DW_TAG_TI_far_type
    1620                      .dwattr $C$DW$162, DW_AT_type(*$C$DW$T$43)
    1621              $C$DW$T$44      .dwtag  DW_TAG_const_type
    1622                      .dwattr $C$DW$T$44, DW_AT_type(*$C$DW$162)
    1623              $C$DW$T$4       .dwtag  DW_TAG_base_type
    1624                      .dwattr $C$DW$T$4, DW_AT_encoding(DW_ATE_boolean)
    1625                      .dwattr $C$DW$T$4, DW_AT_name("bool")
    1626                      .dwattr $C$DW$T$4, DW_AT_byte_size(0x01)
    1627              $C$DW$T$5       .dwtag  DW_TAG_base_type
    1628                      .dwattr $C$DW$T$5, DW_AT_encoding(DW_ATE_signed_char)
    1629                      .dwattr $C$DW$T$5, DW_AT_name("signed char")
    1630                      .dwattr $C$DW$T$5, DW_AT_byte_size(0x01)
    1631              $C$DW$T$6       .dwtag  DW_TAG_base_type
    1632                      .dwattr $C$DW$T$6, DW_AT_encoding(DW_ATE_unsigned_char)
    1633                      .dwattr $C$DW$T$6, DW_AT_name("unsigned char")
    1634                      .dwattr $C$DW$T$6, DW_AT_byte_size(0x01)
    1635              $C$DW$T$26      .dwtag  DW_TAG_typedef, DW_AT_name("uint8_t")
    1636                      .dwattr $C$DW$T$26, DW_AT_type(*$C$DW$T$6)
    1637                      .dwattr $C$DW$T$26, DW_AT_language(DW_LANG_C)
    1638              $C$DW$163       .dwtag  DW_TAG_TI_far_type
    1639                      .dwattr $C$DW$163, DW_AT_type(*$C$DW$T$26)
    1640              $C$DW$T$27      .dwtag  DW_TAG_const_type
    1641                      .dwattr $C$DW$T$27, DW_AT_type(*$C$DW$163)
    1642              $C$DW$T$7       .dwtag  DW_TAG_base_type
    1643                      .dwattr $C$DW$T$7, DW_AT_encoding(DW_ATE_signed_char)
    1644                      .dwattr $C$DW$T$7, DW_AT_name("wchar_t")
    1645                      .dwattr $C$DW$T$7, DW_AT_byte_size(0x01)
    1646              $C$DW$T$8       .dwtag  DW_TAG_base_type
    1647                      .dwattr $C$DW$T$8, DW_AT_encoding(DW_ATE_signed)
    1648                      .dwattr $C$DW$T$8, DW_AT_name("short")
    1649                      .dwattr $C$DW$T$8, DW_AT_byte_size(0x01)
    1650              $C$DW$T$51      .dwtag  DW_TAG_typedef, DW_AT_name("BaseType_t")
    1651                      .dwattr $C$DW$T$51, DW_AT_type(*$C$DW$T$8)
    1652                      .dwattr $C$DW$T$51, DW_AT_language(DW_LANG_C)
    1653              $C$DW$164       .dwtag  DW_TAG_TI_far_type
    1654                      .dwattr $C$DW$164, DW_AT_type(*$C$DW$T$51)
    1655              $C$DW$T$52      .dwtag  DW_TAG_const_type
    1656                      .dwattr $C$DW$T$52, DW_AT_type(*$C$DW$164)
    1657              $C$DW$165       .dwtag  DW_TAG_TI_far_type
    1658                      .dwattr $C$DW$165, DW_AT_type(*$C$DW$T$51)
    1659              $C$DW$T$53      .dwtag  DW_TAG_volatile_type
    1660                      .dwattr $C$DW$T$53, DW_AT_type(*$C$DW$165)
    1661              $C$DW$T$9       .dwtag  DW_TAG_base_type
    1662                      .dwattr $C$DW$T$9, DW_AT_encoding(DW_ATE_unsigned)
    1663                      .dwattr $C$DW$T$9, DW_AT_name("unsigned short")
    1664                      .dwattr $C$DW$T$9, DW_AT_byte_size(0x01)
    1665              $C$DW$T$24      .dwtag  DW_TAG_typedef, DW_AT_name("UBaseType_t")
    1666                      .dwattr $C$DW$T$24, DW_AT_type(*$C$DW$T$9)
    1667                      .dwattr $C$DW$T$24, DW_AT_language(DW_LANG_C)
    1668              $C$DW$166       .dwtag  DW_TAG_TI_far_type
TMS320C55x Assembler PC v4.4.1 Sun Sep 16 02:56:02 2018

Tools Copyright (c) 1996-2012 Texas Instruments Incorporated
QPeek.asm                                                            PAGE   37

    1669                      .dwattr $C$DW$166, DW_AT_type(*$C$DW$T$24)
    1670              $C$DW$T$25      .dwtag  DW_TAG_const_type
    1671                      .dwattr $C$DW$T$25, DW_AT_type(*$C$DW$166)
    1672              $C$DW$T$10      .dwtag  DW_TAG_base_type
    1673                      .dwattr $C$DW$T$10, DW_AT_encoding(DW_ATE_signed)
    1674                      .dwattr $C$DW$T$10, DW_AT_name("int")
    1675                      .dwattr $C$DW$T$10, DW_AT_byte_size(0x01)
    1676              $C$DW$T$11      .dwtag  DW_TAG_base_type
    1677                      .dwattr $C$DW$T$11, DW_AT_encoding(DW_ATE_unsigned)
    1678                      .dwattr $C$DW$T$11, DW_AT_name("unsigned int")
    1679                      .dwattr $C$DW$T$11, DW_AT_byte_size(0x01)
    1680              $C$DW$T$55      .dwtag  DW_TAG_typedef, DW_AT_name("uint16_t")
    1681                      .dwattr $C$DW$T$55, DW_AT_type(*$C$DW$T$11)
    1682                      .dwattr $C$DW$T$55, DW_AT_language(DW_LANG_C)
    1683              $C$DW$167       .dwtag  DW_TAG_TI_far_type
    1684                      .dwattr $C$DW$167, DW_AT_type(*$C$DW$T$55)
    1685              $C$DW$T$56      .dwtag  DW_TAG_const_type
    1686                      .dwattr $C$DW$T$56, DW_AT_type(*$C$DW$167)
    1687              $C$DW$T$12      .dwtag  DW_TAG_base_type
    1688                      .dwattr $C$DW$T$12, DW_AT_encoding(DW_ATE_signed)
    1689                      .dwattr $C$DW$T$12, DW_AT_name("long")
    1690                      .dwattr $C$DW$T$12, DW_AT_byte_size(0x02)
    1691              $C$DW$T$13      .dwtag  DW_TAG_base_type
    1692                      .dwattr $C$DW$T$13, DW_AT_encoding(DW_ATE_unsigned)
    1693                      .dwattr $C$DW$T$13, DW_AT_name("unsigned long")
    1694                      .dwattr $C$DW$T$13, DW_AT_byte_size(0x02)
    1695              $C$DW$T$34      .dwtag  DW_TAG_typedef, DW_AT_name("TickType_t")
    1696                      .dwattr $C$DW$T$34, DW_AT_type(*$C$DW$T$13)
    1697                      .dwattr $C$DW$T$34, DW_AT_language(DW_LANG_C)
    1698              $C$DW$168       .dwtag  DW_TAG_TI_far_type
    1699                      .dwattr $C$DW$168, DW_AT_type(*$C$DW$T$34)
    1700              $C$DW$T$35      .dwtag  DW_TAG_const_type
    1701                      .dwattr $C$DW$T$35, DW_AT_type(*$C$DW$168)
    1702              $C$DW$T$68      .dwtag  DW_TAG_typedef, DW_AT_name("uint32_t")
    1703                      .dwattr $C$DW$T$68, DW_AT_type(*$C$DW$T$13)
    1704                      .dwattr $C$DW$T$68, DW_AT_language(DW_LANG_C)
    1705              $C$DW$169       .dwtag  DW_TAG_TI_far_type
    1706                      .dwattr $C$DW$169, DW_AT_type(*$C$DW$T$68)
    1707              $C$DW$T$70      .dwtag  DW_TAG_volatile_type
    1708                      .dwattr $C$DW$T$70, DW_AT_type(*$C$DW$169)
    1709              $C$DW$T$14      .dwtag  DW_TAG_base_type
    1710                      .dwattr $C$DW$T$14, DW_AT_encoding(DW_ATE_signed)
    1711                      .dwattr $C$DW$T$14, DW_AT_name("long long")
    1712                      .dwattr $C$DW$T$14, DW_AT_byte_size(0x04)
    1713                      .dwattr $C$DW$T$14, DW_AT_bit_size(0x28)
    1714                      .dwattr $C$DW$T$14, DW_AT_bit_offset(0x18)
    1715              $C$DW$T$15      .dwtag  DW_TAG_base_type
    1716                      .dwattr $C$DW$T$15, DW_AT_encoding(DW_ATE_unsigned)
    1717                      .dwattr $C$DW$T$15, DW_AT_name("unsigned long long")
    1718                      .dwattr $C$DW$T$15, DW_AT_byte_size(0x04)
    1719                      .dwattr $C$DW$T$15, DW_AT_bit_size(0x28)
    1720                      .dwattr $C$DW$T$15, DW_AT_bit_offset(0x18)
    1721              $C$DW$T$16      .dwtag  DW_TAG_base_type
    1722                      .dwattr $C$DW$T$16, DW_AT_encoding(DW_ATE_float)
    1723                      .dwattr $C$DW$T$16, DW_AT_name("float")
TMS320C55x Assembler PC v4.4.1 Sun Sep 16 02:56:02 2018

Tools Copyright (c) 1996-2012 Texas Instruments Incorporated
QPeek.asm                                                            PAGE   38

    1724                      .dwattr $C$DW$T$16, DW_AT_byte_size(0x02)
    1725              $C$DW$T$17      .dwtag  DW_TAG_base_type
    1726                      .dwattr $C$DW$T$17, DW_AT_encoding(DW_ATE_float)
    1727                      .dwattr $C$DW$T$17, DW_AT_name("double")
    1728                      .dwattr $C$DW$T$17, DW_AT_byte_size(0x02)
    1729              $C$DW$T$18      .dwtag  DW_TAG_base_type
    1730                      .dwattr $C$DW$T$18, DW_AT_encoding(DW_ATE_float)
    1731                      .dwattr $C$DW$T$18, DW_AT_name("long double")
    1732                      .dwattr $C$DW$T$18, DW_AT_byte_size(0x02)
    1733              $C$DW$T$45      .dwtag  DW_TAG_base_type
    1734                      .dwattr $C$DW$T$45, DW_AT_encoding(DW_ATE_signed_char)
    1735                      .dwattr $C$DW$T$45, DW_AT_name("signed char")
    1736                      .dwattr $C$DW$T$45, DW_AT_byte_size(0x01)
    1737              $C$DW$170       .dwtag  DW_TAG_TI_far_type
    1738                      .dwattr $C$DW$170, DW_AT_type(*$C$DW$T$45)
    1739              $C$DW$T$46      .dwtag  DW_TAG_const_type
    1740                      .dwattr $C$DW$T$46, DW_AT_type(*$C$DW$170)
    1741              $C$DW$T$47      .dwtag  DW_TAG_pointer_type
    1742                      .dwattr $C$DW$T$47, DW_AT_type(*$C$DW$T$46)
    1743                      .dwattr $C$DW$T$47, DW_AT_address_class(0x17)
    1744              $C$DW$171       .dwtag  DW_TAG_TI_far_type
    1745                      .dwattr $C$DW$171, DW_AT_type(*$C$DW$T$47)
    1746              $C$DW$T$54      .dwtag  DW_TAG_const_type
    1747                      .dwattr $C$DW$T$54, DW_AT_type(*$C$DW$171)
    1748              
    1749              $C$DW$T$20      .dwtag  DW_TAG_structure_type
    1750                      .dwattr $C$DW$T$20, DW_AT_name("tskTaskControlBlock")
    1751                      .dwattr $C$DW$T$20, DW_AT_declaration
    1752                      .dwendtag $C$DW$T$20
    1753              
    1754              $C$DW$T$38      .dwtag  DW_TAG_pointer_type
    1755                      .dwattr $C$DW$T$38, DW_AT_type(*$C$DW$T$20)
    1756                      .dwattr $C$DW$T$38, DW_AT_address_class(0x17)
    1757              $C$DW$T$39      .dwtag  DW_TAG_typedef, DW_AT_name("TaskHandle_t")
    1758                      .dwattr $C$DW$T$39, DW_AT_type(*$C$DW$T$38)
    1759                      .dwattr $C$DW$T$39, DW_AT_language(DW_LANG_C)
    1760              $C$DW$T$57      .dwtag  DW_TAG_pointer_type
    1761                      .dwattr $C$DW$T$57, DW_AT_type(*$C$DW$T$39)
    1762                      .dwattr $C$DW$T$57, DW_AT_address_class(0x17)
    1763              $C$DW$172       .dwtag  DW_TAG_TI_far_type
    1764                      .dwattr $C$DW$172, DW_AT_type(*$C$DW$T$57)
    1765              $C$DW$T$58      .dwtag  DW_TAG_const_type
    1766                      .dwattr $C$DW$T$58, DW_AT_type(*$C$DW$172)
    1767                      .dwattr $C$DW$CU, DW_AT_language(DW_LANG_C)
    1768              
    1769              ;***************************************************************
    1770              ;* DWARF CIE ENTRIES                                           *
    1771              ;***************************************************************
    1772              
    1773              $C$DW$CIE       .dwcie 91
    1774                      .dwcfi  cfa_register, 36
    1775                      .dwcfi  cfa_offset, 0
    1776                      .dwcfi  undefined, 0
    1777                      .dwcfi  undefined, 1
    1778                      .dwcfi  undefined, 2
TMS320C55x Assembler PC v4.4.1 Sun Sep 16 02:56:02 2018

Tools Copyright (c) 1996-2012 Texas Instruments Incorporated
QPeek.asm                                                            PAGE   39

    1779                      .dwcfi  undefined, 3
    1780                      .dwcfi  undefined, 4
    1781                      .dwcfi  undefined, 5
    1782                      .dwcfi  undefined, 6
    1783                      .dwcfi  undefined, 7
    1784                      .dwcfi  undefined, 8
    1785                      .dwcfi  undefined, 9
    1786                      .dwcfi  undefined, 10
    1787                      .dwcfi  undefined, 11
    1788                      .dwcfi  undefined, 12
    1789                      .dwcfi  undefined, 13
    1790                      .dwcfi  same_value, 14
    1791                      .dwcfi  same_value, 15
    1792                      .dwcfi  undefined, 16
    1793                      .dwcfi  undefined, 17
    1794                      .dwcfi  undefined, 18
    1795                      .dwcfi  undefined, 19
    1796                      .dwcfi  undefined, 20
    1797                      .dwcfi  undefined, 21
    1798                      .dwcfi  undefined, 22
    1799                      .dwcfi  undefined, 23
    1800                      .dwcfi  undefined, 24
    1801                      .dwcfi  undefined, 25
    1802                      .dwcfi  same_value, 26
    1803                      .dwcfi  same_value, 27
    1804                      .dwcfi  same_value, 28
    1805                      .dwcfi  same_value, 29
    1806                      .dwcfi  same_value, 30
    1807                      .dwcfi  same_value, 31
    1808                      .dwcfi  undefined, 32
    1809                      .dwcfi  undefined, 33
    1810                      .dwcfi  undefined, 34
    1811                      .dwcfi  undefined, 35
    1812                      .dwcfi  undefined, 36
    1813                      .dwcfi  undefined, 37
    1814                      .dwcfi  undefined, 38
    1815                      .dwcfi  undefined, 39
    1816                      .dwcfi  undefined, 40
    1817                      .dwcfi  undefined, 41
    1818                      .dwcfi  undefined, 42
    1819                      .dwcfi  undefined, 43
    1820                      .dwcfi  undefined, 44
    1821                      .dwcfi  undefined, 45
    1822                      .dwcfi  undefined, 46
    1823                      .dwcfi  undefined, 47
    1824                      .dwcfi  undefined, 48
    1825                      .dwcfi  undefined, 49
    1826                      .dwcfi  undefined, 50
    1827                      .dwcfi  undefined, 51
    1828                      .dwcfi  undefined, 52
    1829                      .dwcfi  undefined, 53
    1830                      .dwcfi  undefined, 54
    1831                      .dwcfi  undefined, 55
    1832                      .dwcfi  undefined, 56
    1833                      .dwcfi  undefined, 57
TMS320C55x Assembler PC v4.4.1 Sun Sep 16 02:56:02 2018

Tools Copyright (c) 1996-2012 Texas Instruments Incorporated
QPeek.asm                                                            PAGE   40

    1834                      .dwcfi  undefined, 58
    1835                      .dwcfi  undefined, 59
    1836                      .dwcfi  undefined, 60
    1837                      .dwcfi  undefined, 61
    1838                      .dwcfi  undefined, 62
    1839                      .dwcfi  undefined, 63
    1840                      .dwcfi  undefined, 64
    1841                      .dwcfi  undefined, 65
    1842                      .dwcfi  undefined, 66
    1843                      .dwcfi  undefined, 67
    1844                      .dwcfi  undefined, 68
    1845                      .dwcfi  undefined, 69
    1846                      .dwcfi  undefined, 70
    1847                      .dwcfi  undefined, 71
    1848                      .dwcfi  undefined, 72
    1849                      .dwcfi  undefined, 73
    1850                      .dwcfi  undefined, 74
    1851                      .dwcfi  undefined, 75
    1852                      .dwcfi  undefined, 76
    1853                      .dwcfi  undefined, 77
    1854                      .dwcfi  undefined, 78
    1855                      .dwcfi  undefined, 79
    1856                      .dwcfi  undefined, 80
    1857                      .dwcfi  undefined, 81
    1858                      .dwcfi  undefined, 82
    1859                      .dwcfi  undefined, 83
    1860                      .dwcfi  undefined, 84
    1861                      .dwcfi  undefined, 85
    1862                      .dwcfi  undefined, 86
    1863                      .dwcfi  undefined, 87
    1864                      .dwcfi  undefined, 88
    1865                      .dwcfi  undefined, 89
    1866                      .dwcfi  undefined, 90
    1867                      .dwcfi  undefined, 91
    1868                      .dwendentry
    1869              
    1870              ;***************************************************************
    1871              ;* DWARF REGISTER MAP                                          *
    1872              ;***************************************************************
    1873              
    1874              $C$DW$173       .dwtag  DW_TAG_TI_assign_register, DW_AT_name("AC0")
    1875                      .dwattr $C$DW$173, DW_AT_location[DW_OP_reg0]
    1876              $C$DW$174       .dwtag  DW_TAG_TI_assign_register, DW_AT_name("AC0")
    1877                      .dwattr $C$DW$174, DW_AT_location[DW_OP_reg1]
    1878              $C$DW$175       .dwtag  DW_TAG_TI_assign_register, DW_AT_name("AC0_G")
    1879                      .dwattr $C$DW$175, DW_AT_location[DW_OP_reg2]
    1880              $C$DW$176       .dwtag  DW_TAG_TI_assign_register, DW_AT_name("AC1")
    1881                      .dwattr $C$DW$176, DW_AT_location[DW_OP_reg3]
    1882              $C$DW$177       .dwtag  DW_TAG_TI_assign_register, DW_AT_name("AC1")
    1883                      .dwattr $C$DW$177, DW_AT_location[DW_OP_reg4]
    1884              $C$DW$178       .dwtag  DW_TAG_TI_assign_register, DW_AT_name("AC1_G")
    1885                      .dwattr $C$DW$178, DW_AT_location[DW_OP_reg5]
    1886              $C$DW$179       .dwtag  DW_TAG_TI_assign_register, DW_AT_name("AC2")
    1887                      .dwattr $C$DW$179, DW_AT_location[DW_OP_reg6]
    1888              $C$DW$180       .dwtag  DW_TAG_TI_assign_register, DW_AT_name("AC2")
TMS320C55x Assembler PC v4.4.1 Sun Sep 16 02:56:02 2018

Tools Copyright (c) 1996-2012 Texas Instruments Incorporated
QPeek.asm                                                            PAGE   41

    1889                      .dwattr $C$DW$180, DW_AT_location[DW_OP_reg7]
    1890              $C$DW$181       .dwtag  DW_TAG_TI_assign_register, DW_AT_name("AC2_G")
    1891                      .dwattr $C$DW$181, DW_AT_location[DW_OP_reg8]
    1892              $C$DW$182       .dwtag  DW_TAG_TI_assign_register, DW_AT_name("AC3")
    1893                      .dwattr $C$DW$182, DW_AT_location[DW_OP_reg9]
    1894              $C$DW$183       .dwtag  DW_TAG_TI_assign_register, DW_AT_name("AC3")
    1895                      .dwattr $C$DW$183, DW_AT_location[DW_OP_reg10]
    1896              $C$DW$184       .dwtag  DW_TAG_TI_assign_register, DW_AT_name("AC3_G")
    1897                      .dwattr $C$DW$184, DW_AT_location[DW_OP_reg11]
    1898              $C$DW$185       .dwtag  DW_TAG_TI_assign_register, DW_AT_name("T0")
    1899                      .dwattr $C$DW$185, DW_AT_location[DW_OP_reg12]
    1900              $C$DW$186       .dwtag  DW_TAG_TI_assign_register, DW_AT_name("T1")
    1901                      .dwattr $C$DW$186, DW_AT_location[DW_OP_reg13]
    1902              $C$DW$187       .dwtag  DW_TAG_TI_assign_register, DW_AT_name("T2")
    1903                      .dwattr $C$DW$187, DW_AT_location[DW_OP_reg14]
    1904              $C$DW$188       .dwtag  DW_TAG_TI_assign_register, DW_AT_name("T3")
    1905                      .dwattr $C$DW$188, DW_AT_location[DW_OP_reg15]
    1906              $C$DW$189       .dwtag  DW_TAG_TI_assign_register, DW_AT_name("AR0")
    1907                      .dwattr $C$DW$189, DW_AT_location[DW_OP_reg16]
    1908              $C$DW$190       .dwtag  DW_TAG_TI_assign_register, DW_AT_name("XAR0")
    1909                      .dwattr $C$DW$190, DW_AT_location[DW_OP_reg17]
    1910              $C$DW$191       .dwtag  DW_TAG_TI_assign_register, DW_AT_name("AR1")
    1911                      .dwattr $C$DW$191, DW_AT_location[DW_OP_reg18]
    1912              $C$DW$192       .dwtag  DW_TAG_TI_assign_register, DW_AT_name("XAR1")
    1913                      .dwattr $C$DW$192, DW_AT_location[DW_OP_reg19]
    1914              $C$DW$193       .dwtag  DW_TAG_TI_assign_register, DW_AT_name("AR2")
    1915                      .dwattr $C$DW$193, DW_AT_location[DW_OP_reg20]
    1916              $C$DW$194       .dwtag  DW_TAG_TI_assign_register, DW_AT_name("XAR2")
    1917                      .dwattr $C$DW$194, DW_AT_location[DW_OP_reg21]
    1918              $C$DW$195       .dwtag  DW_TAG_TI_assign_register, DW_AT_name("AR3")
    1919                      .dwattr $C$DW$195, DW_AT_location[DW_OP_reg22]
    1920              $C$DW$196       .dwtag  DW_TAG_TI_assign_register, DW_AT_name("XAR3")
    1921                      .dwattr $C$DW$196, DW_AT_location[DW_OP_reg23]
    1922              $C$DW$197       .dwtag  DW_TAG_TI_assign_register, DW_AT_name("AR4")
    1923                      .dwattr $C$DW$197, DW_AT_location[DW_OP_reg24]
    1924              $C$DW$198       .dwtag  DW_TAG_TI_assign_register, DW_AT_name("XAR4")
    1925                      .dwattr $C$DW$198, DW_AT_location[DW_OP_reg25]
    1926              $C$DW$199       .dwtag  DW_TAG_TI_assign_register, DW_AT_name("AR5")
    1927                      .dwattr $C$DW$199, DW_AT_location[DW_OP_reg26]
    1928              $C$DW$200       .dwtag  DW_TAG_TI_assign_register, DW_AT_name("XAR5")
    1929                      .dwattr $C$DW$200, DW_AT_location[DW_OP_reg27]
    1930              $C$DW$201       .dwtag  DW_TAG_TI_assign_register, DW_AT_name("AR6")
    1931                      .dwattr $C$DW$201, DW_AT_location[DW_OP_reg28]
    1932              $C$DW$202       .dwtag  DW_TAG_TI_assign_register, DW_AT_name("XAR6")
    1933                      .dwattr $C$DW$202, DW_AT_location[DW_OP_reg29]
    1934              $C$DW$203       .dwtag  DW_TAG_TI_assign_register, DW_AT_name("AR7")
    1935                      .dwattr $C$DW$203, DW_AT_location[DW_OP_reg30]
    1936              $C$DW$204       .dwtag  DW_TAG_TI_assign_register, DW_AT_name("XAR7")
    1937                      .dwattr $C$DW$204, DW_AT_location[DW_OP_reg31]
    1938              $C$DW$205       .dwtag  DW_TAG_TI_assign_register, DW_AT_name("FP")
    1939                      .dwattr $C$DW$205, DW_AT_location[DW_OP_regx 0x20]
    1940              $C$DW$206       .dwtag  DW_TAG_TI_assign_register, DW_AT_name("XFP")
    1941                      .dwattr $C$DW$206, DW_AT_location[DW_OP_regx 0x21]
    1942              $C$DW$207       .dwtag  DW_TAG_TI_assign_register, DW_AT_name("PC")
    1943                      .dwattr $C$DW$207, DW_AT_location[DW_OP_regx 0x22]
TMS320C55x Assembler PC v4.4.1 Sun Sep 16 02:56:02 2018

Tools Copyright (c) 1996-2012 Texas Instruments Incorporated
QPeek.asm                                                            PAGE   42

    1944              $C$DW$208       .dwtag  DW_TAG_TI_assign_register, DW_AT_name("SP")
    1945                      .dwattr $C$DW$208, DW_AT_location[DW_OP_regx 0x23]
    1946              $C$DW$209       .dwtag  DW_TAG_TI_assign_register, DW_AT_name("XSP")
    1947                      .dwattr $C$DW$209, DW_AT_location[DW_OP_regx 0x24]
    1948              $C$DW$210       .dwtag  DW_TAG_TI_assign_register, DW_AT_name("BKC")
    1949                      .dwattr $C$DW$210, DW_AT_location[DW_OP_regx 0x25]
    1950              $C$DW$211       .dwtag  DW_TAG_TI_assign_register, DW_AT_name("BK03")
    1951                      .dwattr $C$DW$211, DW_AT_location[DW_OP_regx 0x26]
    1952              $C$DW$212       .dwtag  DW_TAG_TI_assign_register, DW_AT_name("BK47")
    1953                      .dwattr $C$DW$212, DW_AT_location[DW_OP_regx 0x27]
    1954              $C$DW$213       .dwtag  DW_TAG_TI_assign_register, DW_AT_name("ST0")
    1955                      .dwattr $C$DW$213, DW_AT_location[DW_OP_regx 0x28]
    1956              $C$DW$214       .dwtag  DW_TAG_TI_assign_register, DW_AT_name("ST1")
    1957                      .dwattr $C$DW$214, DW_AT_location[DW_OP_regx 0x29]
    1958              $C$DW$215       .dwtag  DW_TAG_TI_assign_register, DW_AT_name("ST2")
    1959                      .dwattr $C$DW$215, DW_AT_location[DW_OP_regx 0x2a]
    1960              $C$DW$216       .dwtag  DW_TAG_TI_assign_register, DW_AT_name("ST3")
    1961                      .dwattr $C$DW$216, DW_AT_location[DW_OP_regx 0x2b]
    1962              $C$DW$217       .dwtag  DW_TAG_TI_assign_register, DW_AT_name("MDP")
    1963                      .dwattr $C$DW$217, DW_AT_location[DW_OP_regx 0x2c]
    1964              $C$DW$218       .dwtag  DW_TAG_TI_assign_register, DW_AT_name("MDP05")
    1965                      .dwattr $C$DW$218, DW_AT_location[DW_OP_regx 0x2d]
    1966              $C$DW$219       .dwtag  DW_TAG_TI_assign_register, DW_AT_name("MDP67")
    1967                      .dwattr $C$DW$219, DW_AT_location[DW_OP_regx 0x2e]
    1968              $C$DW$220       .dwtag  DW_TAG_TI_assign_register, DW_AT_name("BRC0")
    1969                      .dwattr $C$DW$220, DW_AT_location[DW_OP_regx 0x2f]
    1970              $C$DW$221       .dwtag  DW_TAG_TI_assign_register, DW_AT_name("RSA0")
    1971                      .dwattr $C$DW$221, DW_AT_location[DW_OP_regx 0x30]
    1972              $C$DW$222       .dwtag  DW_TAG_TI_assign_register, DW_AT_name("RSA0_H")
    1973                      .dwattr $C$DW$222, DW_AT_location[DW_OP_regx 0x31]
    1974              $C$DW$223       .dwtag  DW_TAG_TI_assign_register, DW_AT_name("REA0")
    1975                      .dwattr $C$DW$223, DW_AT_location[DW_OP_regx 0x32]
    1976              $C$DW$224       .dwtag  DW_TAG_TI_assign_register, DW_AT_name("REA0_H")
    1977                      .dwattr $C$DW$224, DW_AT_location[DW_OP_regx 0x33]
    1978              $C$DW$225       .dwtag  DW_TAG_TI_assign_register, DW_AT_name("BRS1")
    1979                      .dwattr $C$DW$225, DW_AT_location[DW_OP_regx 0x34]
    1980              $C$DW$226       .dwtag  DW_TAG_TI_assign_register, DW_AT_name("BRC1")
    1981                      .dwattr $C$DW$226, DW_AT_location[DW_OP_regx 0x35]
    1982              $C$DW$227       .dwtag  DW_TAG_TI_assign_register, DW_AT_name("RSA1")
    1983                      .dwattr $C$DW$227, DW_AT_location[DW_OP_regx 0x36]
    1984              $C$DW$228       .dwtag  DW_TAG_TI_assign_register, DW_AT_name("RSA1_H")
    1985                      .dwattr $C$DW$228, DW_AT_location[DW_OP_regx 0x37]
    1986              $C$DW$229       .dwtag  DW_TAG_TI_assign_register, DW_AT_name("REA1")
    1987                      .dwattr $C$DW$229, DW_AT_location[DW_OP_regx 0x38]
    1988              $C$DW$230       .dwtag  DW_TAG_TI_assign_register, DW_AT_name("REA1_H")
    1989                      .dwattr $C$DW$230, DW_AT_location[DW_OP_regx 0x39]
    1990              $C$DW$231       .dwtag  DW_TAG_TI_assign_register, DW_AT_name("CSR")
    1991                      .dwattr $C$DW$231, DW_AT_location[DW_OP_regx 0x3a]
    1992              $C$DW$232       .dwtag  DW_TAG_TI_assign_register, DW_AT_name("RPTC")
    1993                      .dwattr $C$DW$232, DW_AT_location[DW_OP_regx 0x3b]
    1994              $C$DW$233       .dwtag  DW_TAG_TI_assign_register, DW_AT_name("CDP")
    1995                      .dwattr $C$DW$233, DW_AT_location[DW_OP_regx 0x3c]
    1996              $C$DW$234       .dwtag  DW_TAG_TI_assign_register, DW_AT_name("XCDP")
    1997                      .dwattr $C$DW$234, DW_AT_location[DW_OP_regx 0x3d]
    1998              $C$DW$235       .dwtag  DW_TAG_TI_assign_register, DW_AT_name("TRN0")
TMS320C55x Assembler PC v4.4.1 Sun Sep 16 02:56:02 2018

Tools Copyright (c) 1996-2012 Texas Instruments Incorporated
QPeek.asm                                                            PAGE   43

    1999                      .dwattr $C$DW$235, DW_AT_location[DW_OP_regx 0x3e]
    2000              $C$DW$236       .dwtag  DW_TAG_TI_assign_register, DW_AT_name("TRN1")
    2001                      .dwattr $C$DW$236, DW_AT_location[DW_OP_regx 0x3f]
    2002              $C$DW$237       .dwtag  DW_TAG_TI_assign_register, DW_AT_name("BSA01")
    2003                      .dwattr $C$DW$237, DW_AT_location[DW_OP_regx 0x40]
    2004              $C$DW$238       .dwtag  DW_TAG_TI_assign_register, DW_AT_name("BSA23")
    2005                      .dwattr $C$DW$238, DW_AT_location[DW_OP_regx 0x41]
    2006              $C$DW$239       .dwtag  DW_TAG_TI_assign_register, DW_AT_name("BSA45")
    2007                      .dwattr $C$DW$239, DW_AT_location[DW_OP_regx 0x42]
    2008              $C$DW$240       .dwtag  DW_TAG_TI_assign_register, DW_AT_name("BSA67")
    2009                      .dwattr $C$DW$240, DW_AT_location[DW_OP_regx 0x43]
    2010              $C$DW$241       .dwtag  DW_TAG_TI_assign_register, DW_AT_name("BSAC")
    2011                      .dwattr $C$DW$241, DW_AT_location[DW_OP_regx 0x44]
    2012              $C$DW$242       .dwtag  DW_TAG_TI_assign_register, DW_AT_name("CARRY")
    2013                      .dwattr $C$DW$242, DW_AT_location[DW_OP_regx 0x45]
    2014              $C$DW$243       .dwtag  DW_TAG_TI_assign_register, DW_AT_name("TC1")
    2015                      .dwattr $C$DW$243, DW_AT_location[DW_OP_regx 0x46]
    2016              $C$DW$244       .dwtag  DW_TAG_TI_assign_register, DW_AT_name("TC2")
    2017                      .dwattr $C$DW$244, DW_AT_location[DW_OP_regx 0x47]
    2018              $C$DW$245       .dwtag  DW_TAG_TI_assign_register, DW_AT_name("M40")
    2019                      .dwattr $C$DW$245, DW_AT_location[DW_OP_regx 0x48]
    2020              $C$DW$246       .dwtag  DW_TAG_TI_assign_register, DW_AT_name("SXMD")
    2021                      .dwattr $C$DW$246, DW_AT_location[DW_OP_regx 0x49]
    2022              $C$DW$247       .dwtag  DW_TAG_TI_assign_register, DW_AT_name("ARMS")
    2023                      .dwattr $C$DW$247, DW_AT_location[DW_OP_regx 0x4a]
    2024              $C$DW$248       .dwtag  DW_TAG_TI_assign_register, DW_AT_name("C54CM")
    2025                      .dwattr $C$DW$248, DW_AT_location[DW_OP_regx 0x4b]
    2026              $C$DW$249       .dwtag  DW_TAG_TI_assign_register, DW_AT_name("SATA")
    2027                      .dwattr $C$DW$249, DW_AT_location[DW_OP_regx 0x4c]
    2028              $C$DW$250       .dwtag  DW_TAG_TI_assign_register, DW_AT_name("SATD")
    2029                      .dwattr $C$DW$250, DW_AT_location[DW_OP_regx 0x4d]
    2030              $C$DW$251       .dwtag  DW_TAG_TI_assign_register, DW_AT_name("RDM")
    2031                      .dwattr $C$DW$251, DW_AT_location[DW_OP_regx 0x4e]
    2032              $C$DW$252       .dwtag  DW_TAG_TI_assign_register, DW_AT_name("FRCT")
    2033                      .dwattr $C$DW$252, DW_AT_location[DW_OP_regx 0x4f]
    2034              $C$DW$253       .dwtag  DW_TAG_TI_assign_register, DW_AT_name("SMUL")
    2035                      .dwattr $C$DW$253, DW_AT_location[DW_OP_regx 0x50]
    2036              $C$DW$254       .dwtag  DW_TAG_TI_assign_register, DW_AT_name("INTM")
    2037                      .dwattr $C$DW$254, DW_AT_location[DW_OP_regx 0x51]
    2038              $C$DW$255       .dwtag  DW_TAG_TI_assign_register, DW_AT_name("AR0LC")
    2039                      .dwattr $C$DW$255, DW_AT_location[DW_OP_regx 0x52]
    2040              $C$DW$256       .dwtag  DW_TAG_TI_assign_register, DW_AT_name("AR1LC")
    2041                      .dwattr $C$DW$256, DW_AT_location[DW_OP_regx 0x53]
    2042              $C$DW$257       .dwtag  DW_TAG_TI_assign_register, DW_AT_name("AR2LC")
    2043                      .dwattr $C$DW$257, DW_AT_location[DW_OP_regx 0x54]
    2044              $C$DW$258       .dwtag  DW_TAG_TI_assign_register, DW_AT_name("AR3LC")
    2045                      .dwattr $C$DW$258, DW_AT_location[DW_OP_regx 0x55]
    2046              $C$DW$259       .dwtag  DW_TAG_TI_assign_register, DW_AT_name("AR4LC")
    2047                      .dwattr $C$DW$259, DW_AT_location[DW_OP_regx 0x56]
    2048              $C$DW$260       .dwtag  DW_TAG_TI_assign_register, DW_AT_name("AR5LC")
    2049                      .dwattr $C$DW$260, DW_AT_location[DW_OP_regx 0x57]
    2050              $C$DW$261       .dwtag  DW_TAG_TI_assign_register, DW_AT_name("AR6LC")
    2051                      .dwattr $C$DW$261, DW_AT_location[DW_OP_regx 0x58]
    2052              $C$DW$262       .dwtag  DW_TAG_TI_assign_register, DW_AT_name("AR7LC")
    2053                      .dwattr $C$DW$262, DW_AT_location[DW_OP_regx 0x59]
TMS320C55x Assembler PC v4.4.1 Sun Sep 16 02:56:02 2018

Tools Copyright (c) 1996-2012 Texas Instruments Incorporated
QPeek.asm                                                            PAGE   44

    2054              $C$DW$263       .dwtag  DW_TAG_TI_assign_register, DW_AT_name("CDPLC")
    2055                      .dwattr $C$DW$263, DW_AT_location[DW_OP_regx 0x5a]
    2056              $C$DW$264       .dwtag  DW_TAG_TI_assign_register, DW_AT_name("CIE_RETA")
    2057                      .dwattr $C$DW$264, DW_AT_location[DW_OP_regx 0x5b]
    2058                      .dwendtag $C$DW$CU
    2059              
    2059              
    2059              

No Assembly Errors, No Assembly Warnings
