TMS320C55x Assembler PC v4.4.1 Sun Sep 09 02:24:41 2018

Tools Copyright (c) 1996-2012 Texas Instruments Incorporated
StreamBufferInterrupt.asm                                            PAGE    1

    1169              ; Temporary Registers Used: None
       1              ;*******************************************************************************
       2              ;* TMS320C55x C/C++ Codegen                                          PC v4.4.1 *
       3              ;* Date/Time created: Sun Sep 09 02:24:40 2018                                 *
       4              ;*******************************************************************************
       5                      .compiler_opts --hll_source=on --mem_model:code=flat --mem_model:data=large --object_format=coff --si
       6                      .mmregs
       7                      .cpl_on
       8                      .arms_on
       9                      .c54cm_off
      10                      .asg AR6, FP
      11                      .asg XAR6, XFP
      12                      .asg DPH, MDP
      13                      .model call=c55_std
      14                      .model mem=large
      15                      .noremark 5002  ; code respects overwrite rules
      16              ;*******************************************************************************
      17              ;* GLOBAL FILE PARAMETERS                                                      *
      18              ;*                                                                             *
      19              ;*   Architecture       : TMS320C55x                                           *
      20              ;*   Optimizing for     : Speed                                                *
      21              ;*   Memory             : Large Model (23-Bit Data Pointers)                   *
      22              ;*   Calls              : Normal Library ASM calls                             *
      23              ;*   Debug Info         : Standard TI Debug Information                        *
      24              ;*******************************************************************************
      25              
      26              $C$DW$CU        .dwtag  DW_TAG_compile_unit
      27                      .dwattr $C$DW$CU, DW_AT_name("../FreeRTOS/Demo/Common/Minimal/StreamBufferInterrupt.c")
      28                      .dwattr $C$DW$CU, DW_AT_producer("TMS320C55x C/C++ Codegen PC v4.4.1 Copyright (c) 1996-2012 Texas In
      29                      .dwattr $C$DW$CU, DW_AT_TI_version(0x01)
      30                      .dwattr $C$DW$CU, DW_AT_comp_dir("F:\eZdsp_DBG\eZDSP_5535_Files\ccsws2\test\Debug")
      31              ;******************************************************************************
      32              ;* CINIT RECORDS                                                              *
      33              ;******************************************************************************
      34 000000               .sect   ".cinit"
      35                      .align  1
      36 000000 0002          .field          2,16
      37 000001 0000-         .field          _xStreamBuffer+0,24
         000002 0000 
      38 000002 0000          .field          0,8
      39 000003 0000          .field  0,32                    ; _xStreamBuffer @ 0
         000004 0000 
      40              
      41 000005               .sect   ".cinit"
      42                      .align  1
      43 000005 0002          .field          2,16
      44 000006 0000-         .field          _pcStringToSend+0,24
         000007 0200 
      45 000007 0200          .field          0,8
      46 000008 0000+         .field  $C$FSL1,32              ; _pcStringToSend @ 0
         000009 0000 
      47              
      48 00000a               .sect   ".cinit"
      49                      .align  1
      50 00000a 0002          .field          2,16
TMS320C55x Assembler PC v4.4.1 Sun Sep 09 02:24:41 2018

Tools Copyright (c) 1996-2012 Texas Instruments Incorporated
StreamBufferInterrupt.asm                                            PAGE    2

      51 00000b 0000-         .field          _pcStringToReceive+0,24
         00000c 0400 
      52 00000c 0400          .field          0,8
      53 00000d 0000+         .field  $C$FSL2,32              ; _pcStringToReceive @ 0
         00000e 001A 
      54              
      55 00000f               .sect   ".cinit"
      56                      .align  1
      57 00000f 0001          .field          1,16
      58 000010 0000-         .field          _xDemoStatus+0,24
         000011 0600 
      59 000011 0600          .field          0,8
      60 000012 0001          .field  1,16                    ; _xDemoStatus @ 0
      61              
      62 000013               .sect   ".cinit"
      63                      .align  1
      64 000013 0002          .field          2,16
      65 000014 0000-         .field          _ulCycleCount+0,24
         000015 0800 
      66 000015 0800          .field          0,8
      67 000016 0000          .field  0,32                    ; _ulCycleCount @ 0
         000017 0000 
      68              
      69 000018               .sect   ".cinit"
      70                      .align  1
      71 000018 0001          .field          1,16
      72 000019 0000-         .field          _xNextByteToSend$1+0,24
         00001a 0700 
      73 00001a 0700          .field          0,8
      74 00001b 0000          .field  0,16                    ; _xNextByteToSend$1 @ 0
      75              
      76 00001c               .sect   ".cinit"
      77                      .align  1
      78 00001c 0001          .field          1,16
      79 00001d 0000-         .field          _xCallCount$2+0,24
         00001e 0A00 
      80 00001e 0A00          .field          0,8
      81 00001f 0000          .field  0,16                    ; _xCallCount$2 @ 0
      82              
      83              
      84              $C$DW$1 .dwtag  DW_TAG_subprogram, DW_AT_name("strlen")
      85                      .dwattr $C$DW$1, DW_AT_TI_symbol_name("_strlen")
      86                      .dwattr $C$DW$1, DW_AT_type(*$C$DW$T$23)
      87                      .dwattr $C$DW$1, DW_AT_declaration
      88                      .dwattr $C$DW$1, DW_AT_external
      89              $C$DW$2 .dwtag  DW_TAG_formal_parameter
      90                      .dwattr $C$DW$2, DW_AT_type(*$C$DW$T$39)
      91                      .dwendtag $C$DW$1
      92              
      93              
      94              $C$DW$3 .dwtag  DW_TAG_subprogram, DW_AT_name("strcmp")
      95                      .dwattr $C$DW$3, DW_AT_TI_symbol_name("_strcmp")
      96                      .dwattr $C$DW$3, DW_AT_type(*$C$DW$T$10)
      97                      .dwattr $C$DW$3, DW_AT_declaration
      98                      .dwattr $C$DW$3, DW_AT_external
TMS320C55x Assembler PC v4.4.1 Sun Sep 09 02:24:41 2018

Tools Copyright (c) 1996-2012 Texas Instruments Incorporated
StreamBufferInterrupt.asm                                            PAGE    3

      99              $C$DW$4 .dwtag  DW_TAG_formal_parameter
     100                      .dwattr $C$DW$4, DW_AT_type(*$C$DW$T$39)
     101              $C$DW$5 .dwtag  DW_TAG_formal_parameter
     102                      .dwattr $C$DW$5, DW_AT_type(*$C$DW$T$39)
     103                      .dwendtag $C$DW$3
     104              
     105              
     106              $C$DW$6 .dwtag  DW_TAG_subprogram, DW_AT_name("memset")
     107                      .dwattr $C$DW$6, DW_AT_TI_symbol_name("_memset")
     108                      .dwattr $C$DW$6, DW_AT_type(*$C$DW$T$3)
     109                      .dwattr $C$DW$6, DW_AT_declaration
     110                      .dwattr $C$DW$6, DW_AT_external
     111              $C$DW$7 .dwtag  DW_TAG_formal_parameter
     112                      .dwattr $C$DW$7, DW_AT_type(*$C$DW$T$3)
     113              $C$DW$8 .dwtag  DW_TAG_formal_parameter
     114                      .dwattr $C$DW$8, DW_AT_type(*$C$DW$T$10)
     115              $C$DW$9 .dwtag  DW_TAG_formal_parameter
     116                      .dwattr $C$DW$9, DW_AT_type(*$C$DW$T$23)
     117                      .dwendtag $C$DW$6
     118              
     119              
     120              $C$DW$10        .dwtag  DW_TAG_subprogram, DW_AT_name("xTaskCreate")
     121                      .dwattr $C$DW$10, DW_AT_TI_symbol_name("_xTaskCreate")
     122                      .dwattr $C$DW$10, DW_AT_type(*$C$DW$T$24)
     123                      .dwattr $C$DW$10, DW_AT_declaration
     124                      .dwattr $C$DW$10, DW_AT_external
     125              $C$DW$11        .dwtag  DW_TAG_formal_parameter
     126                      .dwattr $C$DW$11, DW_AT_type(*$C$DW$T$32)
     127              $C$DW$12        .dwtag  DW_TAG_formal_parameter
     128                      .dwattr $C$DW$12, DW_AT_type(*$C$DW$T$40)
     129              $C$DW$13        .dwtag  DW_TAG_formal_parameter
     130                      .dwattr $C$DW$13, DW_AT_type(*$C$DW$T$42)
     131              $C$DW$14        .dwtag  DW_TAG_formal_parameter
     132                      .dwattr $C$DW$14, DW_AT_type(*$C$DW$T$29)
     133              $C$DW$15        .dwtag  DW_TAG_formal_parameter
     134                      .dwattr $C$DW$15, DW_AT_type(*$C$DW$T$43)
     135              $C$DW$16        .dwtag  DW_TAG_formal_parameter
     136                      .dwattr $C$DW$16, DW_AT_type(*$C$DW$T$47)
     137                      .dwendtag $C$DW$10
     138              
     139              
     140              $C$DW$17        .dwtag  DW_TAG_subprogram, DW_AT_name("xStreamBufferSendFromISR")
     141                      .dwattr $C$DW$17, DW_AT_TI_symbol_name("_xStreamBufferSendFromISR")
     142                      .dwattr $C$DW$17, DW_AT_type(*$C$DW$T$23)
     143                      .dwattr $C$DW$17, DW_AT_declaration
     144                      .dwattr $C$DW$17, DW_AT_external
     145              $C$DW$18        .dwtag  DW_TAG_formal_parameter
     146                      .dwattr $C$DW$18, DW_AT_type(*$C$DW$T$22)
     147              $C$DW$19        .dwtag  DW_TAG_formal_parameter
     148                      .dwattr $C$DW$19, DW_AT_type(*$C$DW$T$34)
     149              $C$DW$20        .dwtag  DW_TAG_formal_parameter
     150                      .dwattr $C$DW$20, DW_AT_type(*$C$DW$T$23)
     151              $C$DW$21        .dwtag  DW_TAG_formal_parameter
     152                      .dwattr $C$DW$21, DW_AT_type(*$C$DW$T$51)
     153                      .dwendtag $C$DW$17
TMS320C55x Assembler PC v4.4.1 Sun Sep 09 02:24:41 2018

Tools Copyright (c) 1996-2012 Texas Instruments Incorporated
StreamBufferInterrupt.asm                                            PAGE    4

     154              
     155              
     156              $C$DW$22        .dwtag  DW_TAG_subprogram, DW_AT_name("xStreamBufferReceive")
     157                      .dwattr $C$DW$22, DW_AT_TI_symbol_name("_xStreamBufferReceive")
     158                      .dwattr $C$DW$22, DW_AT_type(*$C$DW$T$23)
     159                      .dwattr $C$DW$22, DW_AT_declaration
     160                      .dwattr $C$DW$22, DW_AT_external
     161              $C$DW$23        .dwtag  DW_TAG_formal_parameter
     162                      .dwattr $C$DW$23, DW_AT_type(*$C$DW$T$22)
     163              $C$DW$24        .dwtag  DW_TAG_formal_parameter
     164                      .dwattr $C$DW$24, DW_AT_type(*$C$DW$T$3)
     165              $C$DW$25        .dwtag  DW_TAG_formal_parameter
     166                      .dwattr $C$DW$25, DW_AT_type(*$C$DW$T$23)
     167              $C$DW$26        .dwtag  DW_TAG_formal_parameter
     168                      .dwattr $C$DW$26, DW_AT_type(*$C$DW$T$55)
     169                      .dwendtag $C$DW$22
     170              
     171              
     172              $C$DW$27        .dwtag  DW_TAG_subprogram, DW_AT_name("xStreamBufferGenericCreate")
     173                      .dwattr $C$DW$27, DW_AT_TI_symbol_name("_xStreamBufferGenericCreate")
     174                      .dwattr $C$DW$27, DW_AT_type(*$C$DW$T$22)
     175                      .dwattr $C$DW$27, DW_AT_declaration
     176                      .dwattr $C$DW$27, DW_AT_external
     177              $C$DW$28        .dwtag  DW_TAG_formal_parameter
     178                      .dwattr $C$DW$28, DW_AT_type(*$C$DW$T$23)
     179              $C$DW$29        .dwtag  DW_TAG_formal_parameter
     180                      .dwattr $C$DW$29, DW_AT_type(*$C$DW$T$23)
     181              $C$DW$30        .dwtag  DW_TAG_formal_parameter
     182                      .dwattr $C$DW$30, DW_AT_type(*$C$DW$T$24)
     183                      .dwendtag $C$DW$27
     184              
     185 000000               .bss    _xStreamBuffer,2,0,2
     186              $C$DW$31        .dwtag  DW_TAG_variable, DW_AT_name("xStreamBuffer")
     187                      .dwattr $C$DW$31, DW_AT_TI_symbol_name("_xStreamBuffer")
     188                      .dwattr $C$DW$31, DW_AT_type(*$C$DW$T$22)
     189                      .dwattr $C$DW$31, DW_AT_location[DW_OP_addr _xStreamBuffer]
     190 000002               .bss    _pcStringToSend,2,0,2
     191              $C$DW$32        .dwtag  DW_TAG_variable, DW_AT_name("pcStringToSend")
     192                      .dwattr $C$DW$32, DW_AT_TI_symbol_name("_pcStringToSend")
     193                      .dwattr $C$DW$32, DW_AT_type(*$C$DW$T$39)
     194                      .dwattr $C$DW$32, DW_AT_location[DW_OP_addr _pcStringToSend]
     195 000004               .bss    _pcStringToReceive,2,0,2
     196              $C$DW$33        .dwtag  DW_TAG_variable, DW_AT_name("pcStringToReceive")
     197                      .dwattr $C$DW$33, DW_AT_TI_symbol_name("_pcStringToReceive")
     198                      .dwattr $C$DW$33, DW_AT_type(*$C$DW$T$39)
     199                      .dwattr $C$DW$33, DW_AT_location[DW_OP_addr _pcStringToReceive]
     200 000006               .bss    _xDemoStatus,1,0,0
     201              $C$DW$34        .dwtag  DW_TAG_variable, DW_AT_name("xDemoStatus")
     202                      .dwattr $C$DW$34, DW_AT_TI_symbol_name("_xDemoStatus")
     203                      .dwattr $C$DW$34, DW_AT_type(*$C$DW$T$24)
     204                      .dwattr $C$DW$34, DW_AT_location[DW_OP_addr _xDemoStatus]
     205 000008               .bss    _ulCycleCount,2,0,2
     206              $C$DW$35        .dwtag  DW_TAG_variable, DW_AT_name("ulCycleCount")
     207                      .dwattr $C$DW$35, DW_AT_TI_symbol_name("_ulCycleCount")
     208                      .dwattr $C$DW$35, DW_AT_type(*$C$DW$T$62)
TMS320C55x Assembler PC v4.4.1 Sun Sep 09 02:24:41 2018

Tools Copyright (c) 1996-2012 Texas Instruments Incorporated
StreamBufferInterrupt.asm                                            PAGE    5

     209                      .dwattr $C$DW$35, DW_AT_location[DW_OP_addr _ulCycleCount]
     210 000007               .bss    _xNextByteToSend$1,1,0,0
     211 00000a               .bss    _xCallCount$2,1,0,0
     212              ;       F:\TI_CCS_7P4\ccsv7\tools\compiler\c5500_4.4.1\bin\acp55.exe -@f:\\AppData\\Local\\Temp\\0859212 
     213 000000               .sect   ".text"
     214                      .align 4
     215                      .global _vStartStreamBufferInterruptDemo
     216              
     217              $C$DW$36        .dwtag  DW_TAG_subprogram, DW_AT_name("vStartStreamBufferInterruptDemo")
     218                      .dwattr $C$DW$36, DW_AT_low_pc(_vStartStreamBufferInterruptDemo)
     219                      .dwattr $C$DW$36, DW_AT_high_pc(0x00)
     220                      .dwattr $C$DW$36, DW_AT_TI_symbol_name("_vStartStreamBufferInterruptDemo")
     221                      .dwattr $C$DW$36, DW_AT_external
     222                      .dwattr $C$DW$36, DW_AT_TI_begin_file("../FreeRTOS/Demo/Common/Minimal/StreamBufferInterrupt.c")
     223                      .dwattr $C$DW$36, DW_AT_TI_begin_line(0x52)
     224                      .dwattr $C$DW$36, DW_AT_TI_begin_column(0x06)
     225                      .dwattr $C$DW$36, DW_AT_TI_max_frame_size(0x02)
     226                      .dwpsn  file "../FreeRTOS/Demo/Common/Minimal/StreamBufferInterrupt.c",line 83,column 1,is_stmt,addre
     227              
     228                      .dwfde $C$DW$CIE, _vStartStreamBufferInterruptDemo
     229              ;*******************************************************************************
     230              ;* FUNCTION NAME: vStartStreamBufferInterruptDemo                              *
     231              ;*                                                                             *
     232              ;*   Function Uses Regs : AC0,AC0,T0,T1,AR0,XAR0,AR1,XAR1,AR2,XAR2,SP,M40,SATA,*
     233              ;*                        SATD,RDM,FRCT,SMUL                                   *
     234              ;*   Stack Frame        : Compact (No Frame Pointer, w/ debug)                 *
     235              ;*   Total Frame Size   : 2 words                                              *
     236              ;*                        (2 return address/alignment)                         *
     237              ;*   Min System Stack   : 1 word                                               *
     238              ;*******************************************************************************
     239 000000       _vStartStreamBufferInterruptDemo:
     240                      .dwcfi  cfa_offset, 1
     241                      .dwcfi  save_reg_to_mem, 91, -1
     242 000000 4EFF          AADD #-1, SP
     243                      .dwcfi  cfa_offset, 2
     244                      .dwpsn  file "../FreeRTOS/Demo/Common/Minimal/StreamBufferInterrupt.c",line 86,column 2,is_stmt
     245              
     246 000002 7600          MOV #100, T0 ; |86| 
         000004 6448 
     247 000006 3DA5  ||      MOV #10, T1
     248              
     249              $C$DW$37        .dwtag  DW_TAG_TI_branch
     250                      .dwattr $C$DW$37, DW_AT_low_pc(0x00)
     251                      .dwattr $C$DW$37, DW_AT_name("_xStreamBufferGenericCreate")
     252                      .dwattr $C$DW$37, DW_AT_TI_call
     253              
     254 000008 6C00          CALL #_xStreamBufferGenericCreate ; |86| 
         00000a 0000!
     255 00000c 3D08  ||      MOV #0, AR0
     256              
     257                                                      ; call occurs [#_xStreamBufferGenericCreate] ; |86| 
     258 00000e EB31          MOV XAR0, dbl(*(#_xStreamBuffer))
         000010 8500 
         000012 0000-
     259                      .dwpsn  file "../FreeRTOS/Demo/Common/Minimal/StreamBufferInterrupt.c",line 91,column 2,is_stmt
TMS320C55x Assembler PC v4.4.1 Sun Sep 09 02:24:41 2018

Tools Copyright (c) 1996-2012 Texas Instruments Incorporated
StreamBufferInterrupt.asm                                            PAGE    6

     260 000014 7A00          MOV #(_prvReceivingTask >> 16) << #16, AC0 ; |91| 
         000016 000A%
     261 000018 EC31          AMOV #0, XAR2 ; |91| 
         00001a AE00 
         00001c 0000 
     262 00001e EC31          AMOV #0, XAR1 ; |91| 
         000020 9E00 
         000022 0000 
     263 000024 7600          MOV #128, T0 ; |91| 
         000026 8048 
     264              
     265 000028 7E00          OR #(_prvReceivingTask & 0xffff), AC0, AC0 ; |91| 
         00002a 0000%
     266 00002c 3D25  ||      MOV #2, T1
     267              
     268 00002e EC31          AMOV #$C$FSL3, XAR0 ; |91| 
         000030 8E00 
         000032 002A+
     269              $C$DW$38        .dwtag  DW_TAG_TI_branch
     270                      .dwattr $C$DW$38, DW_AT_low_pc(0x00)
     271                      .dwattr $C$DW$38, DW_AT_name("_xTaskCreate")
     272                      .dwattr $C$DW$38, DW_AT_TI_call
     273 000034 6C00          CALL #_xTaskCreate ; |91| 
         000036 0000!
     274                                                      ; call occurs [#_xTaskCreate] ; |91| 
     275                      .dwpsn  file "../FreeRTOS/Demo/Common/Minimal/StreamBufferInterrupt.c",line 97,column 1,is_stmt
     276 000038 4E01          AADD #1, SP
     277                      .dwcfi  cfa_offset, 1
     278              $C$DW$39        .dwtag  DW_TAG_TI_branch
     279                      .dwattr $C$DW$39, DW_AT_low_pc(0x00)
     280                      .dwattr $C$DW$39, DW_AT_TI_return
     281 00003a 4804          RET
     282                                                      ; return occurs
     283                      .dwattr $C$DW$36, DW_AT_TI_end_file("../FreeRTOS/Demo/Common/Minimal/StreamBufferInterrupt.c")
     284                      .dwattr $C$DW$36, DW_AT_TI_end_line(0x61)
     285                      .dwattr $C$DW$36, DW_AT_TI_end_column(0x01)
     286                      .dwendentry
     287                      .dwendtag $C$DW$36
     288              
     289 00003c               .sect   ".text"
     290                      .align 4
     291              
     292              $C$DW$40        .dwtag  DW_TAG_subprogram, DW_AT_name("prvReceivingTask")
     293                      .dwattr $C$DW$40, DW_AT_low_pc(_prvReceivingTask)
     294                      .dwattr $C$DW$40, DW_AT_high_pc(0x00)
     295                      .dwattr $C$DW$40, DW_AT_TI_symbol_name("_prvReceivingTask")
     296                      .dwattr $C$DW$40, DW_AT_TI_begin_file("../FreeRTOS/Demo/Common/Minimal/StreamBufferInterrupt.c")
     297                      .dwattr $C$DW$40, DW_AT_TI_begin_line(0x64)
     298                      .dwattr $C$DW$40, DW_AT_TI_begin_column(0x0d)
     299                      .dwattr $C$DW$40, DW_AT_TI_max_frame_size(0x18)
     300                      .dwpsn  file "../FreeRTOS/Demo/Common/Minimal/StreamBufferInterrupt.c",line 101,column 1,is_stmt,addr
     301              
     302                      .dwfde $C$DW$CIE, _prvReceivingTask
     303              $C$DW$41        .dwtag  DW_TAG_formal_parameter, DW_AT_name("pvParameters")
     304                      .dwattr $C$DW$41, DW_AT_TI_symbol_name("_pvParameters")
TMS320C55x Assembler PC v4.4.1 Sun Sep 09 02:24:41 2018

Tools Copyright (c) 1996-2012 Texas Instruments Incorporated
StreamBufferInterrupt.asm                                            PAGE    7

     305                      .dwattr $C$DW$41, DW_AT_type(*$C$DW$T$3)
     306                      .dwattr $C$DW$41, DW_AT_location[DW_OP_reg17]
     307              ;*******************************************************************************
     308              ;* FUNCTION NAME: prvReceivingTask                                             *
     309              ;*                                                                             *
     310              ;*   Function Uses Regs : AC0,AC0,T0,T1,AR0,XAR0,AR1,XAR1,AR2,AR3,XAR3,SP,     *
     311              ;*                        CARRY,TC1,M40,SATA,SATD,RDM,FRCT,SMUL                *
     312              ;*   Stack Frame        : Compact (No Frame Pointer, w/ debug)                 *
     313              ;*   Total Frame Size   : 24 words                                             *
     314              ;*                        (1 return address/alignment)                         *
     315              ;*                        (23 local values)                                    *
     316              ;*   Min System Stack   : 1 word                                               *
     317              ;*******************************************************************************
     318 00003c       _prvReceivingTask:
     319                      .dwcfi  cfa_offset, 1
     320                      .dwcfi  save_reg_to_mem, 91, -1
     321 00003c 4EE9          AADD #-23, SP
     322                      .dwcfi  cfa_offset, 24
     323              $C$DW$42        .dwtag  DW_TAG_variable, DW_AT_name("pvParameters")
     324                      .dwattr $C$DW$42, DW_AT_TI_symbol_name("_pvParameters")
     325                      .dwattr $C$DW$42, DW_AT_type(*$C$DW$T$3)
     326                      .dwattr $C$DW$42, DW_AT_location[DW_OP_bregx 0x24 0]
     327              $C$DW$43        .dwtag  DW_TAG_variable, DW_AT_name("cRxBuffer")
     328                      .dwattr $C$DW$43, DW_AT_TI_symbol_name("_cRxBuffer")
     329                      .dwattr $C$DW$43, DW_AT_type(*$C$DW$T$65)
     330                      .dwattr $C$DW$43, DW_AT_location[DW_OP_bregx 0x24 2]
     331              $C$DW$44        .dwtag  DW_TAG_variable, DW_AT_name("xNextByte")
     332                      .dwattr $C$DW$44, DW_AT_TI_symbol_name("_xNextByte")
     333                      .dwattr $C$DW$44, DW_AT_type(*$C$DW$T$24)
     334                      .dwattr $C$DW$44, DW_AT_location[DW_OP_bregx 0x24 22]
     335 00003e EB00          MOV XAR0, dbl(*SP(#0))
         000040 85   
     336                      .dwpsn  file "../FreeRTOS/Demo/Common/Minimal/StreamBufferInterrupt.c",line 103,column 12,is_stmt
     337 000041 E62C          MOV #0, *SP(#22) ; |103| 
         000043 00   
     338                      .dwpsn  file "../FreeRTOS/Demo/Common/Minimal/StreamBufferInterrupt.c",line 106,column 2,is_stmt
     339                      .dwpsn  file "../FreeRTOS/Demo/Common/Minimal/StreamBufferInterrupt.c",line 116,column 2,is_stmt
     340 000044 7600          MOV #20, T1 ; |116| 
         000046 1458 
     341 000048 EC04          AMAR *SP(#2), XAR0
         00004a 8E   
     342              $C$DW$45        .dwtag  DW_TAG_TI_branch
     343                      .dwattr $C$DW$45, DW_AT_low_pc(0x00)
     344                      .dwattr $C$DW$45, DW_AT_name("_memset")
     345                      .dwattr $C$DW$45, DW_AT_TI_call
     346              
     347 00004b 6C00          CALL #_memset ; |116| 
         00004d 0000!
     348 00004f 3D04  ||      MOV #0, T0
     349              
     350                                                      ; call occurs [#_memset] ; |116| 
     351 000051       $C$L1:    
     352 000051       $C$DW$L$_prvReceivingTask$2$B:
     353                      .dwpsn  file "../FreeRTOS/Demo/Common/Minimal/StreamBufferInterrupt.c",line 124,column 3,is_stmt
     354 000051 AA2C          MOV *SP(#22), AR2 ; |124| 
TMS320C55x Assembler PC v4.4.1 Sun Sep 09 02:24:41 2018

Tools Copyright (c) 1996-2012 Texas Instruments Incorporated
StreamBufferInterrupt.asm                                            PAGE    8

     355 000053 EC04          AMAR *SP(#2), XAR1
         000055 9E   
     356 000056 ED31          MOV dbl(*(#_xStreamBuffer)), XAR0
         000058 8F00 
         00005a 0000-
     357 00005c 76FF          MOV #65535, T1 ; |124| 
         00005e FF58 
     358 000060 14A0          AADD AR2, AR1 ; |124| 
         000062 90   
     359              $C$DW$46        .dwtag  DW_TAG_TI_branch
     360                      .dwattr $C$DW$46, DW_AT_low_pc(0x00)
     361                      .dwattr $C$DW$46, DW_AT_name("_xStreamBufferReceive")
     362                      .dwattr $C$DW$46, DW_AT_TI_call
     363              
     364 000063 6C00          CALL #_xStreamBufferReceive ; |124| 
         000065 0000!
     365 000067 3D14  ||      MOV #1, T0
     366              
     367                                                      ; call occurs [#_xStreamBufferReceive] ; |124| 
     368                      .dwpsn  file "../FreeRTOS/Demo/Common/Minimal/StreamBufferInterrupt.c",line 136,column 3,is_stmt
     369 000069 A92C          MOV *SP(#22), AR1 ; |136| 
     370 00006b 0419          BCC $C$L2,AR1 != #0 ; |136| 
         00006d 12   
     371                                                      ; branchcc occurs ; |136| 
     372 00006e       $C$DW$L$_prvReceivingTask$2$E:
     373 00006e       $C$DW$L$_prvReceivingTask$3$B:
     374                      .dwpsn  file "../FreeRTOS/Demo/Common/Minimal/StreamBufferInterrupt.c",line 138,column 4,is_stmt
     375 00006e 2294          MOV AR1, T0
     376 000070 EC04          AMAR *SP(#2), XAR3
         000072 BE   
     377 000073 F06B          CMP *AR3(T0) == #72, TC1 ; |138| 
         000075 0048 
     378 000077 0474          BCC $C$L1,!TC1 ; |138| 
         000079 D7   
     379                                                      ; branchcc occurs ; |138| 
     380 00007a       $C$DW$L$_prvReceivingTask$3$E:
     381 00007a       $C$DW$L$_prvReceivingTask$4$B:
     382                      .dwpsn  file "../FreeRTOS/Demo/Common/Minimal/StreamBufferInterrupt.c",line 142,column 5,is_stmt
     383 00007a F72C          ADD #1, *SP(#22) ; |142| 
         00007c 0001 
     384                      .dwpsn  file "../FreeRTOS/Demo/Common/Minimal/StreamBufferInterrupt.c",line 144,column 3,is_stmt
     385 00007e 4A51          B $C$L1   ; |144| 
     386                                                      ; branch occurs ; |144| 
     387 000080       $C$DW$L$_prvReceivingTask$4$E:
     388 000080       $C$L2:    
     389 000080       $C$DW$L$_prvReceivingTask$5$B:
     390                      .dwpsn  file "../FreeRTOS/Demo/Common/Minimal/StreamBufferInterrupt.c",line 149,column 4,is_stmt
     391 000080 2294          MOV AR1, T0
     392 000082 EC04          AMAR *SP(#2), XAR3
         000084 BE   
     393 000085 F06B          CMP *AR3(T0) == #83, TC1 ; |149| 
         000087 0053 
     394 000089 0474          BCC $C$L4,!TC1 ; |149| 
         00008b 40   
     395                                                      ; branchcc occurs ; |149| 
TMS320C55x Assembler PC v4.4.1 Sun Sep 09 02:24:41 2018

Tools Copyright (c) 1996-2012 Texas Instruments Incorporated
StreamBufferInterrupt.asm                                            PAGE    9

     396 00008c       $C$DW$L$_prvReceivingTask$5$E:
     397 00008c       $C$DW$L$_prvReceivingTask$6$B:
     398                      .dwpsn  file "../FreeRTOS/Demo/Common/Minimal/StreamBufferInterrupt.c",line 152,column 5,is_stmt
     399 00008c EC04          AMAR *SP(#2), XAR0
         00008e 8E   
     400 00008f ED31          MOV dbl(*(#_pcStringToReceive)), XAR1
         000091 9F00 
         000093 0004-
     401              $C$DW$47        .dwtag  DW_TAG_TI_branch
     402                      .dwattr $C$DW$47, DW_AT_low_pc(0x00)
     403                      .dwattr $C$DW$47, DW_AT_name("_strcmp")
     404                      .dwattr $C$DW$47, DW_AT_TI_call
     405 000095 6C00          CALL #_strcmp ; |152| 
         000097 0000!
     406                                                      ; call occurs [#_strcmp] ; |152| 
     407 000099 6304          BCC $C$L3,T0 == #0 ; |152| 
     408                                                      ; branchcc occurs ; |152| 
     409 00009b       $C$DW$L$_prvReceivingTask$6$E:
     410 00009b       $C$DW$L$_prvReceivingTask$7$B:
     411                      .dwpsn  file "../FreeRTOS/Demo/Common/Minimal/StreamBufferInterrupt.c",line 154,column 6,is_stmt
     412 00009b E631          MOV #0, *(#_xDemoStatus) ; |154| 
         00009d 0000 
         00009f 0006-
     413 0000a1       $C$DW$L$_prvReceivingTask$7$E:
     414 0000a1       $C$L3:    
     415 0000a1       $C$DW$L$_prvReceivingTask$8$B:
     416                      .dwpsn  file "../FreeRTOS/Demo/Common/Minimal/StreamBufferInterrupt.c",line 159,column 5,is_stmt
     417 0000a1 EC04          AMAR *SP(#2), XAR0
         0000a3 8E   
     418 0000a4 7600          MOV #20, T1 ; |159| 
         0000a6 1458 
     419              $C$DW$48        .dwtag  DW_TAG_TI_branch
     420                      .dwattr $C$DW$48, DW_AT_low_pc(0x00)
     421                      .dwattr $C$DW$48, DW_AT_name("_memset")
     422                      .dwattr $C$DW$48, DW_AT_TI_call
     423              
     424 0000a8 6C00          CALL #_memset ; |159| 
         0000aa 0000!
     425 0000ac 3D04  ||      MOV #0, T0
     426              
     427                                                      ; call occurs [#_memset] ; |159| 
     428                      .dwpsn  file "../FreeRTOS/Demo/Common/Minimal/StreamBufferInterrupt.c",line 160,column 5,is_stmt
     429 0000ae E62C          MOV #0, *SP(#22) ; |160| 
         0000b0 00   
     430                      .dwpsn  file "../FreeRTOS/Demo/Common/Minimal/StreamBufferInterrupt.c",line 164,column 5,is_stmt
     431 0000b1 F031          CMP *(#_xDemoStatus) == #1, TC1 ; |164| 
         0000b3 0001 
         0000b5 0000 
         0000b7 06-  
     432 0000b8 0474          BCC $C$L1,!TC1 ; |164| 
         0000ba 96   
     433                                                      ; branchcc occurs ; |164| 
     434 0000bb       $C$DW$L$_prvReceivingTask$8$E:
     435 0000bb       $C$DW$L$_prvReceivingTask$9$B:
     436                      .dwpsn  file "../FreeRTOS/Demo/Common/Minimal/StreamBufferInterrupt.c",line 166,column 6,is_stmt
TMS320C55x Assembler PC v4.4.1 Sun Sep 09 02:24:41 2018

Tools Copyright (c) 1996-2012 Texas Instruments Incorporated
StreamBufferInterrupt.asm                                            PAGE   10

     437 0000bb ED31          MOV dbl(*(#_ulCycleCount)), AC0 ; |166| 
         0000bd 0800 
         0000bf 0008-
     438 0000c1 4010          ADD #1, AC0 ; |166| 
     439 0000c3 EB31          MOV AC0, dbl(*(#_ulCycleCount)) ; |166| 
         0000c5 0800 
         0000c7 0008-
     440                      .dwpsn  file "../FreeRTOS/Demo/Common/Minimal/StreamBufferInterrupt.c",line 168,column 4,is_stmt
     441 0000c9 06FF          B $C$L1   ; |168| 
         0000cb 85   
     442                                                      ; branch occurs ; |168| 
     443 0000cc       $C$DW$L$_prvReceivingTask$9$E:
     444 0000cc       $C$L4:    
     445 0000cc       $C$DW$L$_prvReceivingTask$10$B:
     446                      .dwpsn  file "../FreeRTOS/Demo/Common/Minimal/StreamBufferInterrupt.c",line 173,column 5,is_stmt
     447 0000cc F72C          ADD #1, *SP(#22) ; |173| 
         0000ce 0001 
     448                      .dwpsn  file "../FreeRTOS/Demo/Common/Minimal/StreamBufferInterrupt.c",line 178,column 2,is_stmt
     449 0000d0 06FF          B $C$L1   ; |178| 
         0000d2 7E   
     450                                                      ; branch occurs ; |178| 
     451 0000d3       $C$DW$L$_prvReceivingTask$10$E:
     452                      .dwcfi  cfa_offset, 1
     453              
     454              $C$DW$49        .dwtag  DW_TAG_TI_loop
     455                      .dwattr $C$DW$49, DW_AT_name("F:\eZdsp_DBG\eZDSP_5535_Files\ccsws2\test\Debug\StreamBufferInterrupt.a
     456                      .dwattr $C$DW$49, DW_AT_TI_begin_file("../FreeRTOS/Demo/Common/Minimal/StreamBufferInterrupt.c")
     457                      .dwattr $C$DW$49, DW_AT_TI_begin_line(0x76)
     458                      .dwattr $C$DW$49, DW_AT_TI_end_line(0xb2)
     459              $C$DW$50        .dwtag  DW_TAG_TI_loop_range
     460                      .dwattr $C$DW$50, DW_AT_low_pc($C$DW$L$_prvReceivingTask$2$B)
     461                      .dwattr $C$DW$50, DW_AT_high_pc($C$DW$L$_prvReceivingTask$2$E)
     462              $C$DW$51        .dwtag  DW_TAG_TI_loop_range
     463                      .dwattr $C$DW$51, DW_AT_low_pc($C$DW$L$_prvReceivingTask$5$B)
     464                      .dwattr $C$DW$51, DW_AT_high_pc($C$DW$L$_prvReceivingTask$5$E)
     465              $C$DW$52        .dwtag  DW_TAG_TI_loop_range
     466                      .dwattr $C$DW$52, DW_AT_low_pc($C$DW$L$_prvReceivingTask$6$B)
     467                      .dwattr $C$DW$52, DW_AT_high_pc($C$DW$L$_prvReceivingTask$6$E)
     468              $C$DW$53        .dwtag  DW_TAG_TI_loop_range
     469                      .dwattr $C$DW$53, DW_AT_low_pc($C$DW$L$_prvReceivingTask$7$B)
     470                      .dwattr $C$DW$53, DW_AT_high_pc($C$DW$L$_prvReceivingTask$7$E)
     471              $C$DW$54        .dwtag  DW_TAG_TI_loop_range
     472                      .dwattr $C$DW$54, DW_AT_low_pc($C$DW$L$_prvReceivingTask$10$B)
     473                      .dwattr $C$DW$54, DW_AT_high_pc($C$DW$L$_prvReceivingTask$10$E)
     474              $C$DW$55        .dwtag  DW_TAG_TI_loop_range
     475                      .dwattr $C$DW$55, DW_AT_low_pc($C$DW$L$_prvReceivingTask$9$B)
     476                      .dwattr $C$DW$55, DW_AT_high_pc($C$DW$L$_prvReceivingTask$9$E)
     477              $C$DW$56        .dwtag  DW_TAG_TI_loop_range
     478                      .dwattr $C$DW$56, DW_AT_low_pc($C$DW$L$_prvReceivingTask$8$B)
     479                      .dwattr $C$DW$56, DW_AT_high_pc($C$DW$L$_prvReceivingTask$8$E)
     480              $C$DW$57        .dwtag  DW_TAG_TI_loop_range
     481                      .dwattr $C$DW$57, DW_AT_low_pc($C$DW$L$_prvReceivingTask$4$B)
     482                      .dwattr $C$DW$57, DW_AT_high_pc($C$DW$L$_prvReceivingTask$4$E)
     483              $C$DW$58        .dwtag  DW_TAG_TI_loop_range
     484                      .dwattr $C$DW$58, DW_AT_low_pc($C$DW$L$_prvReceivingTask$3$B)
TMS320C55x Assembler PC v4.4.1 Sun Sep 09 02:24:41 2018

Tools Copyright (c) 1996-2012 Texas Instruments Incorporated
StreamBufferInterrupt.asm                                            PAGE   11

     485                      .dwattr $C$DW$58, DW_AT_high_pc($C$DW$L$_prvReceivingTask$3$E)
     486                      .dwendtag $C$DW$49
     487              
     488                      .dwattr $C$DW$40, DW_AT_TI_end_file("../FreeRTOS/Demo/Common/Minimal/StreamBufferInterrupt.c")
     489                      .dwattr $C$DW$40, DW_AT_TI_end_line(0xb3)
     490                      .dwattr $C$DW$40, DW_AT_TI_end_column(0x01)
     491                      .dwendentry
     492                      .dwendtag $C$DW$40
     493              
     494 0000d3               .sect   ".text"
     495                      .align 4
     496                      .global _vBasicStreamBufferSendFromISR
     497              
     498              $C$DW$59        .dwtag  DW_TAG_subprogram, DW_AT_name("vBasicStreamBufferSendFromISR")
     499                      .dwattr $C$DW$59, DW_AT_low_pc(_vBasicStreamBufferSendFromISR)
     500                      .dwattr $C$DW$59, DW_AT_high_pc(0x00)
     501                      .dwattr $C$DW$59, DW_AT_TI_symbol_name("_vBasicStreamBufferSendFromISR")
     502                      .dwattr $C$DW$59, DW_AT_external
     503                      .dwattr $C$DW$59, DW_AT_TI_begin_file("../FreeRTOS/Demo/Common/Minimal/StreamBufferInterrupt.c")
     504                      .dwattr $C$DW$59, DW_AT_TI_begin_line(0xb6)
     505                      .dwattr $C$DW$59, DW_AT_TI_begin_column(0x06)
     506                      .dwattr $C$DW$59, DW_AT_TI_max_frame_size(0x04)
     507                      .dwpsn  file "../FreeRTOS/Demo/Common/Minimal/StreamBufferInterrupt.c",line 183,column 1,is_stmt,addr
     508              
     509                      .dwfde $C$DW$CIE, _vBasicStreamBufferSendFromISR
     510              $C$DW$60        .dwtag  DW_TAG_variable, DW_AT_name("xNextByteToSend")
     511                      .dwattr $C$DW$60, DW_AT_TI_symbol_name("_xNextByteToSend$1")
     512                      .dwattr $C$DW$60, DW_AT_type(*$C$DW$T$23)
     513                      .dwattr $C$DW$60, DW_AT_location[DW_OP_addr _xNextByteToSend$1]
     514              $C$DW$61        .dwtag  DW_TAG_variable, DW_AT_name("xCallCount")
     515                      .dwattr $C$DW$61, DW_AT_TI_symbol_name("_xCallCount$2")
     516                      .dwattr $C$DW$61, DW_AT_type(*$C$DW$T$24)
     517                      .dwattr $C$DW$61, DW_AT_location[DW_OP_addr _xCallCount$2]
     518              ;*******************************************************************************
     519              ;* FUNCTION NAME: vBasicStreamBufferSendFromISR                                *
     520              ;*                                                                             *
     521              ;*   Function Uses Regs : T0,AR0,XAR0,AR1,XAR1,AR2,XAR2,SP,CARRY,TC1,M40,SATA, *
     522              ;*                        SATD,RDM,FRCT,SMUL                                   *
     523              ;*   Stack Frame        : Compact (No Frame Pointer, w/ debug)                 *
     524              ;*   Total Frame Size   : 4 words                                              *
     525              ;*                        (2 return address/alignment)                         *
     526              ;*                        (2 local values)                                     *
     527              ;*   Min System Stack   : 1 word                                               *
     528              ;*******************************************************************************
     529 0000d4       _vBasicStreamBufferSendFromISR:
     530                      .dwcfi  cfa_offset, 1
     531                      .dwcfi  save_reg_to_mem, 91, -1
     532 0000d4 4EFD          AADD #-3, SP
     533                      .dwcfi  cfa_offset, 4
     534              $C$DW$62        .dwtag  DW_TAG_variable, DW_AT_name("xCallsBetweenSends")
     535                      .dwattr $C$DW$62, DW_AT_TI_symbol_name("_xCallsBetweenSends")
     536                      .dwattr $C$DW$62, DW_AT_type(*$C$DW$T$36)
     537                      .dwattr $C$DW$62, DW_AT_location[DW_OP_bregx 0x24 0]
     538              $C$DW$63        .dwtag  DW_TAG_variable, DW_AT_name("xBytesToSend")
     539                      .dwattr $C$DW$63, DW_AT_TI_symbol_name("_xBytesToSend")
TMS320C55x Assembler PC v4.4.1 Sun Sep 09 02:24:41 2018

Tools Copyright (c) 1996-2012 Texas Instruments Incorporated
StreamBufferInterrupt.asm                                            PAGE   12

     540                      .dwattr $C$DW$63, DW_AT_type(*$C$DW$T$36)
     541                      .dwattr $C$DW$63, DW_AT_location[DW_OP_bregx 0x24 1]
     542                      .dwpsn  file "../FreeRTOS/Demo/Common/Minimal/StreamBufferInterrupt.c",line 185,column 18,is_stmt
     543 0000d6 E600          MOV #100, *SP(#0) ; |185| 
         0000d8 64   
     544                      .dwpsn  file "../FreeRTOS/Demo/Common/Minimal/StreamBufferInterrupt.c",line 185,column 44,is_stmt
     545 0000d9 E602          MOV #4, *SP(#1) ; |185| 
         0000db 04   
     546                      .dwpsn  file "../FreeRTOS/Demo/Common/Minimal/StreamBufferInterrupt.c",line 189,column 2,is_stmt
     547 0000dc F731          ADD #1, *(#_xCallCount$2) ; |189| 
         0000de 0001 
         0000e0 0000 
         0000e2 0A-  
     548                      .dwpsn  file "../FreeRTOS/Demo/Common/Minimal/StreamBufferInterrupt.c",line 190,column 2,is_stmt
     549 0000e3 AA31          MOV *(#_xCallCount$2), AR2 ; |190| 
         0000e5 0000 
         0000e7 0A-  
     550 0000e8 A900          MOV *SP(#0), AR1 ; |190| 
     551 0000ea 1298          CMP AR2 <= AR1, TC1 ; |190| 
         0000ec A0   
     552 0000ed 0464          BCC $C$L5,TC1 ; |190| 
         0000ef 4D   
     553                                                      ; branchcc occurs ; |190| 
     554                      .dwpsn  file "../FreeRTOS/Demo/Common/Minimal/StreamBufferInterrupt.c",line 192,column 3,is_stmt
     555 0000f0 E631          MOV #0, *(#_xCallCount$2) ; |192| 
         0000f2 0000 
         0000f4 000A-
     556                      .dwpsn  file "../FreeRTOS/Demo/Common/Minimal/StreamBufferInterrupt.c",line 195,column 3,is_stmt
     557 0000f6 ED31          MOV dbl(*(#_pcStringToSend)), XAR1
         0000f8 9F00 
         0000fa 0002-
     558 0000fc AA31          MOV *(#_xNextByteToSend$1), AR2 ; |195| 
         0000fe 0000 
         000100 07-  
     559 000101 ED31          MOV dbl(*(#_xStreamBuffer)), XAR0
         000103 8F00 
         000105 0000-
     560              
     561                      AADD AR2, AR1 ; |195| 
     562 000107 8A02  ||      MOV *SP(#1), T0 ; |195| 
         000109 9418 
         00010b A0   
     563              
     564 00010c EC31          AMOV #0, XAR2 ; |195| 
         00010e AE00 
         000110 0000 
     565              $C$DW$64        .dwtag  DW_TAG_TI_branch
     566                      .dwattr $C$DW$64, DW_AT_low_pc(0x00)
     567                      .dwattr $C$DW$64, DW_AT_name("_xStreamBufferSendFromISR")
     568                      .dwattr $C$DW$64, DW_AT_TI_call
     569 000112 6C00          CALL #_xStreamBufferSendFromISR ; |195| 
         000114 0000!
     570                                                      ; call occurs [#_xStreamBufferSendFromISR] ; |195| 
     571                      .dwpsn  file "../FreeRTOS/Demo/Common/Minimal/StreamBufferInterrupt.c",line 202,column 3,is_stmt
     572 000116 A902          MOV *SP(#1), AR1 ; |202| 
TMS320C55x Assembler PC v4.4.1 Sun Sep 09 02:24:41 2018

Tools Copyright (c) 1996-2012 Texas Instruments Incorporated
StreamBufferInterrupt.asm                                            PAGE   13

     573 000118 D631          ADD *(#_xNextByteToSend$1), AR1, AR1 ; |202| 
         00011a 9900 
         00011c 0007-
     574 00011e C931          MOV AR1, *(#_xNextByteToSend$1) ; |202| 
         000120 0000 
         000122 07-  
     575                      .dwpsn  file "../FreeRTOS/Demo/Common/Minimal/StreamBufferInterrupt.c",line 204,column 3,is_stmt
     576 000123 ED31          MOV dbl(*(#_pcStringToSend)), XAR0
         000125 8F00 
         000127 0002-
     577              $C$DW$65        .dwtag  DW_TAG_TI_branch
     578                      .dwattr $C$DW$65, DW_AT_low_pc(0x00)
     579                      .dwattr $C$DW$65, DW_AT_name("_strlen")
     580                      .dwattr $C$DW$65, DW_AT_TI_call
     581 000129 6C00          CALL #_strlen ; |204| 
         00012b 0000!
     582                                                      ; call occurs [#_strlen] ; |204| 
     583 00012d A931          MOV *(#_xNextByteToSend$1), AR1 ; |204| 
         00012f 0000 
         000131 07-  
     584 000132 1294          CMPU AR1 < T0, TC1 ; |204| 
         000134 44   
     585 000135 6364          BCC $C$L5,TC1 ; |204| 
     586                                                      ; branchcc occurs ; |204| 
     587                      .dwpsn  file "../FreeRTOS/Demo/Common/Minimal/StreamBufferInterrupt.c",line 206,column 4,is_stmt
     588 000137 E631          MOV #0, *(#_xNextByteToSend$1) ; |206| 
         000139 0000 
         00013b 0007-
     589                      .dwpsn  file "../FreeRTOS/Demo/Common/Minimal/StreamBufferInterrupt.c",line 209,column 1,is_stmt
     590 00013d       $C$L5:    
     591 00013d 4E03          AADD #3, SP
     592                      .dwcfi  cfa_offset, 1
     593              $C$DW$66        .dwtag  DW_TAG_TI_branch
     594                      .dwattr $C$DW$66, DW_AT_low_pc(0x00)
     595                      .dwattr $C$DW$66, DW_AT_TI_return
     596 00013f 4804          RET
     597                                                      ; return occurs
     598                      .dwattr $C$DW$59, DW_AT_TI_end_file("../FreeRTOS/Demo/Common/Minimal/StreamBufferInterrupt.c")
     599                      .dwattr $C$DW$59, DW_AT_TI_end_line(0xd1)
     600                      .dwattr $C$DW$59, DW_AT_TI_end_column(0x01)
     601                      .dwendentry
     602                      .dwendtag $C$DW$59
     603              
     604 000141               .sect   ".text"
     605                      .align 4
     606                      .global _xIsInterruptStreamBufferDemoStillRunning
     607              
     608              $C$DW$67        .dwtag  DW_TAG_subprogram, DW_AT_name("xIsInterruptStreamBufferDemoStillRunning")
     609                      .dwattr $C$DW$67, DW_AT_low_pc(_xIsInterruptStreamBufferDemoStillRunning)
     610                      .dwattr $C$DW$67, DW_AT_high_pc(0x00)
     611                      .dwattr $C$DW$67, DW_AT_TI_symbol_name("_xIsInterruptStreamBufferDemoStillRunning")
     612                      .dwattr $C$DW$67, DW_AT_external
     613                      .dwattr $C$DW$67, DW_AT_type(*$C$DW$T$24)
     614                      .dwattr $C$DW$67, DW_AT_TI_begin_file("../FreeRTOS/Demo/Common/Minimal/StreamBufferInterrupt.c")
     615                      .dwattr $C$DW$67, DW_AT_TI_begin_line(0xd4)
TMS320C55x Assembler PC v4.4.1 Sun Sep 09 02:24:41 2018

Tools Copyright (c) 1996-2012 Texas Instruments Incorporated
StreamBufferInterrupt.asm                                            PAGE   14

     616                      .dwattr $C$DW$67, DW_AT_TI_begin_column(0x0c)
     617                      .dwattr $C$DW$67, DW_AT_TI_max_frame_size(0x04)
     618                      .dwpsn  file "../FreeRTOS/Demo/Common/Minimal/StreamBufferInterrupt.c",line 213,column 1,is_stmt,addr
     619              
     620                      .dwfde $C$DW$CIE, _xIsInterruptStreamBufferDemoStillRunning
     621              ;*******************************************************************************
     622              ;* FUNCTION NAME: xIsInterruptStreamBufferDemoStillRunning                     *
     623              ;*                                                                             *
     624              ;*   Function Uses Regs : AC0,AC0,AC1,AC1,T0,SP,TC1,M40,SATA,SATD,RDM,FRCT,    *
     625              ;*                        SMUL                                                 *
     626              ;*   Stack Frame        : Compact (No Frame Pointer, w/ debug)                 *
     627              ;*   Total Frame Size   : 4 words                                              *
     628              ;*                        (2 return address/alignment)                         *
     629              ;*                        (2 local values)                                     *
     630              ;*   Min System Stack   : 1 word                                               *
     631              ;*******************************************************************************
     632 000144       _xIsInterruptStreamBufferDemoStillRunning:
     633                      .dwcfi  cfa_offset, 1
     634                      .dwcfi  save_reg_to_mem, 91, -1
     635 000144 4EFD          AADD #-3, SP
     636                      .dwcfi  cfa_offset, 4
     637              $C$DW$68        .dwtag  DW_TAG_variable, DW_AT_name("ulLastCycleCount")
     638                      .dwattr $C$DW$68, DW_AT_TI_symbol_name("_ulLastCycleCount")
     639                      .dwattr $C$DW$68, DW_AT_type(*$C$DW$T$62)
     640                      .dwattr $C$DW$68, DW_AT_location[DW_OP_bregx 0x24 0]
     641                      .dwpsn  file "../FreeRTOS/Demo/Common/Minimal/StreamBufferInterrupt.c",line 214,column 10,is_stmt
     642 000146 3C00          MOV #0, AC0 ; |214| 
     643 000148 EB00          MOV AC0, dbl(*SP(#0)) ; |214| 
         00014a 08   
     644                      .dwpsn  file "../FreeRTOS/Demo/Common/Minimal/StreamBufferInterrupt.c",line 217,column 2,is_stmt
     645 00014b ED00          MOV dbl(*SP(#0)), AC1 ; |217| 
         00014d 18   
     646 00014e ED31          MOV dbl(*(#_ulCycleCount)), AC0 ; |217| 
         000150 0800 
         000152 0008-
     647 000154 121C          CMPU AC1 != AC0, TC1 ; |217| 
         000156 04   
     648 000157 6464          BCC $C$L6,TC1 ; |217| 
     649                                                      ; branchcc occurs ; |217| 
     650                      .dwpsn  file "../FreeRTOS/Demo/Common/Minimal/StreamBufferInterrupt.c",line 219,column 3,is_stmt
     651 000159 E631          MOV #0, *(#_xDemoStatus) ; |219| 
         00015b 0000 
         00015d 0006-
     652                      .dwpsn  file "../FreeRTOS/Demo/Common/Minimal/StreamBufferInterrupt.c",line 220,column 2,is_stmt
     653 00015f 4A09          B $C$L7   ; |220| 
     654                                                      ; branch occurs ; |220| 
     655 000161       $C$L6:    
     656                      .dwpsn  file "../FreeRTOS/Demo/Common/Minimal/StreamBufferInterrupt.c",line 223,column 3,is_stmt
     657 000161 ED31          MOV dbl(*(#_ulCycleCount)), AC0 ; |223| 
         000163 0800 
         000165 0008-
     658 000167 EB00          MOV AC0, dbl(*SP(#0)) ; |223| 
         000169 08   
     659 00016a       $C$L7:    
     660                      .dwpsn  file "../FreeRTOS/Demo/Common/Minimal/StreamBufferInterrupt.c",line 226,column 2,is_stmt
TMS320C55x Assembler PC v4.4.1 Sun Sep 09 02:24:41 2018

Tools Copyright (c) 1996-2012 Texas Instruments Incorporated
StreamBufferInterrupt.asm                                            PAGE   15

     661 00016a A431          MOV *(#_xDemoStatus), T0 ; |226| 
         00016c 0000 
         00016e 06-  
     662                      .dwpsn  file "../FreeRTOS/Demo/Common/Minimal/StreamBufferInterrupt.c",line 227,column 1,is_stmt
     663 00016f 4E03          AADD #3, SP
     664                      .dwcfi  cfa_offset, 1
     665              $C$DW$69        .dwtag  DW_TAG_TI_branch
     666                      .dwattr $C$DW$69, DW_AT_low_pc(0x00)
     667                      .dwattr $C$DW$69, DW_AT_TI_return
     668 000171 4804          RET
     669                                                      ; return occurs
     670                      .dwattr $C$DW$67, DW_AT_TI_end_file("../FreeRTOS/Demo/Common/Minimal/StreamBufferInterrupt.c")
     671                      .dwattr $C$DW$67, DW_AT_TI_end_line(0xe3)
     672                      .dwattr $C$DW$67, DW_AT_TI_end_column(0x01)
     673                      .dwendentry
     674                      .dwendtag $C$DW$67
     675              
     676              ;*******************************************************************************
     677              ;* FAR STRINGS                                                                 *
     678              ;*******************************************************************************
     679 000000               .sect   ".const:.string"
     680                      .align  2
     681 000000 005F  $C$FSL1:        .string "_____Hello FreeRTOS_____",0
         000001 005F 
         000002 005F 
         000003 005F 
         000004 005F 
         000005 0048 
         000006 0065 
         000007 006C 
         000008 006C 
         000009 006F 
         00000a 0020 
         00000b 0046 
         00000c 0072 
         00000d 0065 
         00000e 0065 
         00000f 0052 
         000010 0054 
         000011 004F 
         000012 0053 
         000013 005F 
         000014 005F 
         000015 005F 
         000016 005F 
         000017 005F 
         000018 0000 
     682                      .align  2
     683 00001a 0048  $C$FSL2:        .string "Hello FreeRTOS",0
         00001b 0065 
         00001c 006C 
         00001d 006C 
         00001e 006F 
         00001f 0020 
         000020 0046 
TMS320C55x Assembler PC v4.4.1 Sun Sep 09 02:24:41 2018

Tools Copyright (c) 1996-2012 Texas Instruments Incorporated
StreamBufferInterrupt.asm                                            PAGE   16

         000021 0072 
         000022 0065 
         000023 0065 
         000024 0052 
         000025 0054 
         000026 004F 
         000027 0053 
         000028 0000 
     684                      .align  2
     685 00002a 0053  $C$FSL3:        .string "StrIntRx",0
         00002b 0074 
         00002c 0072 
         00002d 0049 
         00002e 006E 
         00002f 0074 
         000030 0052 
         000031 0078 
         000032 0000 
     686              ;******************************************************************************
     687              ;* UNDEFINED EXTERNAL REFERENCES                                              *
     688              ;******************************************************************************
     689                      .global _strlen
     690                      .global _strcmp
     691                      .global _memset
     692                      .global _xTaskCreate
     693                      .global _xStreamBufferSendFromISR
     694                      .global _xStreamBufferReceive
     695                      .global _xStreamBufferGenericCreate
     696              
     697              ;*******************************************************************************
     698              ;* TYPE INFORMATION                                                            *
     699              ;*******************************************************************************
     700              
     701              $C$DW$T$19      .dwtag  DW_TAG_structure_type
     702                      .dwattr $C$DW$T$19, DW_AT_name("StreamBufferDef_t")
     703                      .dwattr $C$DW$T$19, DW_AT_declaration
     704                      .dwendtag $C$DW$T$19
     705              
     706              $C$DW$T$21      .dwtag  DW_TAG_pointer_type
     707                      .dwattr $C$DW$T$21, DW_AT_type(*$C$DW$T$19)
     708                      .dwattr $C$DW$T$21, DW_AT_address_class(0x17)
     709              $C$DW$T$22      .dwtag  DW_TAG_typedef, DW_AT_name("StreamBufferHandle_t")
     710                      .dwattr $C$DW$T$22, DW_AT_type(*$C$DW$T$21)
     711                      .dwattr $C$DW$T$22, DW_AT_language(DW_LANG_C)
     712              $C$DW$T$3       .dwtag  DW_TAG_pointer_type
     713                      .dwattr $C$DW$T$3, DW_AT_address_class(0x17)
     714              $C$DW$70        .dwtag  DW_TAG_TI_far_type
     715                      .dwattr $C$DW$70, DW_AT_type(*$C$DW$T$3)
     716              $C$DW$T$29      .dwtag  DW_TAG_const_type
     717                      .dwattr $C$DW$T$29, DW_AT_type(*$C$DW$70)
     718              
     719              $C$DW$T$30      .dwtag  DW_TAG_subroutine_type
     720                      .dwattr $C$DW$T$30, DW_AT_language(DW_LANG_C)
     721              $C$DW$71        .dwtag  DW_TAG_formal_parameter
     722                      .dwattr $C$DW$71, DW_AT_type(*$C$DW$T$3)
TMS320C55x Assembler PC v4.4.1 Sun Sep 09 02:24:41 2018

Tools Copyright (c) 1996-2012 Texas Instruments Incorporated
StreamBufferInterrupt.asm                                            PAGE   17

     723                      .dwendtag $C$DW$T$30
     724              
     725              $C$DW$T$31      .dwtag  DW_TAG_pointer_type
     726                      .dwattr $C$DW$T$31, DW_AT_type(*$C$DW$T$30)
     727                      .dwattr $C$DW$T$31, DW_AT_address_class(0x20)
     728              $C$DW$T$32      .dwtag  DW_TAG_typedef, DW_AT_name("TaskFunction_t")
     729                      .dwattr $C$DW$T$32, DW_AT_type(*$C$DW$T$31)
     730                      .dwattr $C$DW$T$32, DW_AT_language(DW_LANG_C)
     731              $C$DW$72        .dwtag  DW_TAG_TI_far_type
     732              $C$DW$T$33      .dwtag  DW_TAG_const_type
     733                      .dwattr $C$DW$T$33, DW_AT_type(*$C$DW$72)
     734              $C$DW$T$34      .dwtag  DW_TAG_pointer_type
     735                      .dwattr $C$DW$T$34, DW_AT_type(*$C$DW$T$33)
     736                      .dwattr $C$DW$T$34, DW_AT_address_class(0x17)
     737              $C$DW$T$4       .dwtag  DW_TAG_base_type
     738                      .dwattr $C$DW$T$4, DW_AT_encoding(DW_ATE_boolean)
     739                      .dwattr $C$DW$T$4, DW_AT_name("bool")
     740                      .dwattr $C$DW$T$4, DW_AT_byte_size(0x01)
     741              $C$DW$T$5       .dwtag  DW_TAG_base_type
     742                      .dwattr $C$DW$T$5, DW_AT_encoding(DW_ATE_signed_char)
     743                      .dwattr $C$DW$T$5, DW_AT_name("signed char")
     744                      .dwattr $C$DW$T$5, DW_AT_byte_size(0x01)
     745              $C$DW$T$6       .dwtag  DW_TAG_base_type
     746                      .dwattr $C$DW$T$6, DW_AT_encoding(DW_ATE_unsigned_char)
     747                      .dwattr $C$DW$T$6, DW_AT_name("unsigned char")
     748                      .dwattr $C$DW$T$6, DW_AT_byte_size(0x01)
     749              $C$DW$T$7       .dwtag  DW_TAG_base_type
     750                      .dwattr $C$DW$T$7, DW_AT_encoding(DW_ATE_signed_char)
     751                      .dwattr $C$DW$T$7, DW_AT_name("wchar_t")
     752                      .dwattr $C$DW$T$7, DW_AT_byte_size(0x01)
     753              $C$DW$T$8       .dwtag  DW_TAG_base_type
     754                      .dwattr $C$DW$T$8, DW_AT_encoding(DW_ATE_signed)
     755                      .dwattr $C$DW$T$8, DW_AT_name("short")
     756                      .dwattr $C$DW$T$8, DW_AT_byte_size(0x01)
     757              $C$DW$T$24      .dwtag  DW_TAG_typedef, DW_AT_name("BaseType_t")
     758                      .dwattr $C$DW$T$24, DW_AT_type(*$C$DW$T$8)
     759                      .dwattr $C$DW$T$24, DW_AT_language(DW_LANG_C)
     760              $C$DW$73        .dwtag  DW_TAG_TI_far_type
     761                      .dwattr $C$DW$73, DW_AT_type(*$C$DW$T$24)
     762              $C$DW$T$36      .dwtag  DW_TAG_const_type
     763                      .dwattr $C$DW$T$36, DW_AT_type(*$C$DW$73)
     764              $C$DW$T$50      .dwtag  DW_TAG_pointer_type
     765                      .dwattr $C$DW$T$50, DW_AT_type(*$C$DW$T$24)
     766                      .dwattr $C$DW$T$50, DW_AT_address_class(0x17)
     767              $C$DW$74        .dwtag  DW_TAG_TI_far_type
     768                      .dwattr $C$DW$74, DW_AT_type(*$C$DW$T$50)
     769              $C$DW$T$51      .dwtag  DW_TAG_const_type
     770                      .dwattr $C$DW$T$51, DW_AT_type(*$C$DW$74)
     771              $C$DW$T$9       .dwtag  DW_TAG_base_type
     772                      .dwattr $C$DW$T$9, DW_AT_encoding(DW_ATE_unsigned)
     773                      .dwattr $C$DW$T$9, DW_AT_name("unsigned short")
     774                      .dwattr $C$DW$T$9, DW_AT_byte_size(0x01)
     775              $C$DW$T$43      .dwtag  DW_TAG_typedef, DW_AT_name("UBaseType_t")
     776                      .dwattr $C$DW$T$43, DW_AT_type(*$C$DW$T$9)
     777                      .dwattr $C$DW$T$43, DW_AT_language(DW_LANG_C)
TMS320C55x Assembler PC v4.4.1 Sun Sep 09 02:24:41 2018

Tools Copyright (c) 1996-2012 Texas Instruments Incorporated
StreamBufferInterrupt.asm                                            PAGE   18

     778              $C$DW$T$10      .dwtag  DW_TAG_base_type
     779                      .dwattr $C$DW$T$10, DW_AT_encoding(DW_ATE_signed)
     780                      .dwattr $C$DW$T$10, DW_AT_name("int")
     781                      .dwattr $C$DW$T$10, DW_AT_byte_size(0x01)
     782              $C$DW$T$11      .dwtag  DW_TAG_base_type
     783                      .dwattr $C$DW$T$11, DW_AT_encoding(DW_ATE_unsigned)
     784                      .dwattr $C$DW$T$11, DW_AT_name("unsigned int")
     785                      .dwattr $C$DW$T$11, DW_AT_byte_size(0x01)
     786              $C$DW$T$55      .dwtag  DW_TAG_typedef, DW_AT_name("TickType_t")
     787                      .dwattr $C$DW$T$55, DW_AT_type(*$C$DW$T$11)
     788                      .dwattr $C$DW$T$55, DW_AT_language(DW_LANG_C)
     789              $C$DW$T$23      .dwtag  DW_TAG_typedef, DW_AT_name("size_t")
     790                      .dwattr $C$DW$T$23, DW_AT_type(*$C$DW$T$11)
     791                      .dwattr $C$DW$T$23, DW_AT_language(DW_LANG_C)
     792              $C$DW$T$41      .dwtag  DW_TAG_typedef, DW_AT_name("uint16_t")
     793                      .dwattr $C$DW$T$41, DW_AT_type(*$C$DW$T$11)
     794                      .dwattr $C$DW$T$41, DW_AT_language(DW_LANG_C)
     795              $C$DW$75        .dwtag  DW_TAG_TI_far_type
     796                      .dwattr $C$DW$75, DW_AT_type(*$C$DW$T$41)
     797              $C$DW$T$42      .dwtag  DW_TAG_const_type
     798                      .dwattr $C$DW$T$42, DW_AT_type(*$C$DW$75)
     799              $C$DW$T$12      .dwtag  DW_TAG_base_type
     800                      .dwattr $C$DW$T$12, DW_AT_encoding(DW_ATE_signed)
     801                      .dwattr $C$DW$T$12, DW_AT_name("long")
     802                      .dwattr $C$DW$T$12, DW_AT_byte_size(0x02)
     803              $C$DW$T$13      .dwtag  DW_TAG_base_type
     804                      .dwattr $C$DW$T$13, DW_AT_encoding(DW_ATE_unsigned)
     805                      .dwattr $C$DW$T$13, DW_AT_name("unsigned long")
     806                      .dwattr $C$DW$T$13, DW_AT_byte_size(0x02)
     807              $C$DW$T$62      .dwtag  DW_TAG_typedef, DW_AT_name("uint32_t")
     808                      .dwattr $C$DW$T$62, DW_AT_type(*$C$DW$T$13)
     809                      .dwattr $C$DW$T$62, DW_AT_language(DW_LANG_C)
     810              $C$DW$T$14      .dwtag  DW_TAG_base_type
     811                      .dwattr $C$DW$T$14, DW_AT_encoding(DW_ATE_signed)
     812                      .dwattr $C$DW$T$14, DW_AT_name("long long")
     813                      .dwattr $C$DW$T$14, DW_AT_byte_size(0x04)
     814                      .dwattr $C$DW$T$14, DW_AT_bit_size(0x28)
     815                      .dwattr $C$DW$T$14, DW_AT_bit_offset(0x18)
     816              $C$DW$T$15      .dwtag  DW_TAG_base_type
     817                      .dwattr $C$DW$T$15, DW_AT_encoding(DW_ATE_unsigned)
     818                      .dwattr $C$DW$T$15, DW_AT_name("unsigned long long")
     819                      .dwattr $C$DW$T$15, DW_AT_byte_size(0x04)
     820                      .dwattr $C$DW$T$15, DW_AT_bit_size(0x28)
     821                      .dwattr $C$DW$T$15, DW_AT_bit_offset(0x18)
     822              $C$DW$T$16      .dwtag  DW_TAG_base_type
     823                      .dwattr $C$DW$T$16, DW_AT_encoding(DW_ATE_float)
     824                      .dwattr $C$DW$T$16, DW_AT_name("float")
     825                      .dwattr $C$DW$T$16, DW_AT_byte_size(0x02)
     826              $C$DW$T$17      .dwtag  DW_TAG_base_type
     827                      .dwattr $C$DW$T$17, DW_AT_encoding(DW_ATE_float)
     828                      .dwattr $C$DW$T$17, DW_AT_name("double")
     829                      .dwattr $C$DW$T$17, DW_AT_byte_size(0x02)
     830              $C$DW$T$18      .dwtag  DW_TAG_base_type
     831                      .dwattr $C$DW$T$18, DW_AT_encoding(DW_ATE_float)
     832                      .dwattr $C$DW$T$18, DW_AT_name("long double")
TMS320C55x Assembler PC v4.4.1 Sun Sep 09 02:24:41 2018

Tools Copyright (c) 1996-2012 Texas Instruments Incorporated
StreamBufferInterrupt.asm                                            PAGE   19

     833                      .dwattr $C$DW$T$18, DW_AT_byte_size(0x02)
     834              $C$DW$T$37      .dwtag  DW_TAG_base_type
     835                      .dwattr $C$DW$T$37, DW_AT_encoding(DW_ATE_signed_char)
     836                      .dwattr $C$DW$T$37, DW_AT_name("signed char")
     837                      .dwattr $C$DW$T$37, DW_AT_byte_size(0x01)
     838              $C$DW$76        .dwtag  DW_TAG_TI_far_type
     839                      .dwattr $C$DW$76, DW_AT_type(*$C$DW$T$37)
     840              $C$DW$T$38      .dwtag  DW_TAG_const_type
     841                      .dwattr $C$DW$T$38, DW_AT_type(*$C$DW$76)
     842              $C$DW$T$39      .dwtag  DW_TAG_pointer_type
     843                      .dwattr $C$DW$T$39, DW_AT_type(*$C$DW$T$38)
     844                      .dwattr $C$DW$T$39, DW_AT_address_class(0x17)
     845              $C$DW$77        .dwtag  DW_TAG_TI_far_type
     846                      .dwattr $C$DW$77, DW_AT_type(*$C$DW$T$39)
     847              $C$DW$T$40      .dwtag  DW_TAG_const_type
     848                      .dwattr $C$DW$T$40, DW_AT_type(*$C$DW$77)
     849              
     850              $C$DW$T$65      .dwtag  DW_TAG_array_type
     851                      .dwattr $C$DW$T$65, DW_AT_type(*$C$DW$T$37)
     852                      .dwattr $C$DW$T$65, DW_AT_language(DW_LANG_C)
     853                      .dwattr $C$DW$T$65, DW_AT_byte_size(0x14)
     854              $C$DW$78        .dwtag  DW_TAG_subrange_type
     855                      .dwattr $C$DW$78, DW_AT_upper_bound(0x13)
     856                      .dwendtag $C$DW$T$65
     857              
     858              
     859              $C$DW$T$20      .dwtag  DW_TAG_structure_type
     860                      .dwattr $C$DW$T$20, DW_AT_name("tskTaskControlBlock")
     861                      .dwattr $C$DW$T$20, DW_AT_declaration
     862                      .dwendtag $C$DW$T$20
     863              
     864              $C$DW$T$44      .dwtag  DW_TAG_pointer_type
     865                      .dwattr $C$DW$T$44, DW_AT_type(*$C$DW$T$20)
     866                      .dwattr $C$DW$T$44, DW_AT_address_class(0x17)
     867              $C$DW$T$45      .dwtag  DW_TAG_typedef, DW_AT_name("TaskHandle_t")
     868                      .dwattr $C$DW$T$45, DW_AT_type(*$C$DW$T$44)
     869                      .dwattr $C$DW$T$45, DW_AT_language(DW_LANG_C)
     870              $C$DW$T$46      .dwtag  DW_TAG_pointer_type
     871                      .dwattr $C$DW$T$46, DW_AT_type(*$C$DW$T$45)
     872                      .dwattr $C$DW$T$46, DW_AT_address_class(0x17)
     873              $C$DW$79        .dwtag  DW_TAG_TI_far_type
     874                      .dwattr $C$DW$79, DW_AT_type(*$C$DW$T$46)
     875              $C$DW$T$47      .dwtag  DW_TAG_const_type
     876                      .dwattr $C$DW$T$47, DW_AT_type(*$C$DW$79)
     877                      .dwattr $C$DW$CU, DW_AT_language(DW_LANG_C)
     878              
     879              ;***************************************************************
     880              ;* DWARF CIE ENTRIES                                           *
     881              ;***************************************************************
     882              
     883              $C$DW$CIE       .dwcie 91
     884                      .dwcfi  cfa_register, 36
     885                      .dwcfi  cfa_offset, 0
     886                      .dwcfi  undefined, 0
     887                      .dwcfi  undefined, 1
TMS320C55x Assembler PC v4.4.1 Sun Sep 09 02:24:41 2018

Tools Copyright (c) 1996-2012 Texas Instruments Incorporated
StreamBufferInterrupt.asm                                            PAGE   20

     888                      .dwcfi  undefined, 2
     889                      .dwcfi  undefined, 3
     890                      .dwcfi  undefined, 4
     891                      .dwcfi  undefined, 5
     892                      .dwcfi  undefined, 6
     893                      .dwcfi  undefined, 7
     894                      .dwcfi  undefined, 8
     895                      .dwcfi  undefined, 9
     896                      .dwcfi  undefined, 10
     897                      .dwcfi  undefined, 11
     898                      .dwcfi  undefined, 12
     899                      .dwcfi  undefined, 13
     900                      .dwcfi  same_value, 14
     901                      .dwcfi  same_value, 15
     902                      .dwcfi  undefined, 16
     903                      .dwcfi  undefined, 17
     904                      .dwcfi  undefined, 18
     905                      .dwcfi  undefined, 19
     906                      .dwcfi  undefined, 20
     907                      .dwcfi  undefined, 21
     908                      .dwcfi  undefined, 22
     909                      .dwcfi  undefined, 23
     910                      .dwcfi  undefined, 24
     911                      .dwcfi  undefined, 25
     912                      .dwcfi  same_value, 26
     913                      .dwcfi  same_value, 27
     914                      .dwcfi  same_value, 28
     915                      .dwcfi  same_value, 29
     916                      .dwcfi  same_value, 30
     917                      .dwcfi  same_value, 31
     918                      .dwcfi  undefined, 32
     919                      .dwcfi  undefined, 33
     920                      .dwcfi  undefined, 34
     921                      .dwcfi  undefined, 35
     922                      .dwcfi  undefined, 36
     923                      .dwcfi  undefined, 37
     924                      .dwcfi  undefined, 38
     925                      .dwcfi  undefined, 39
     926                      .dwcfi  undefined, 40
     927                      .dwcfi  undefined, 41
     928                      .dwcfi  undefined, 42
     929                      .dwcfi  undefined, 43
     930                      .dwcfi  undefined, 44
     931                      .dwcfi  undefined, 45
     932                      .dwcfi  undefined, 46
     933                      .dwcfi  undefined, 47
     934                      .dwcfi  undefined, 48
     935                      .dwcfi  undefined, 49
     936                      .dwcfi  undefined, 50
     937                      .dwcfi  undefined, 51
     938                      .dwcfi  undefined, 52
     939                      .dwcfi  undefined, 53
     940                      .dwcfi  undefined, 54
     941                      .dwcfi  undefined, 55
     942                      .dwcfi  undefined, 56
TMS320C55x Assembler PC v4.4.1 Sun Sep 09 02:24:41 2018

Tools Copyright (c) 1996-2012 Texas Instruments Incorporated
StreamBufferInterrupt.asm                                            PAGE   21

     943                      .dwcfi  undefined, 57
     944                      .dwcfi  undefined, 58
     945                      .dwcfi  undefined, 59
     946                      .dwcfi  undefined, 60
     947                      .dwcfi  undefined, 61
     948                      .dwcfi  undefined, 62
     949                      .dwcfi  undefined, 63
     950                      .dwcfi  undefined, 64
     951                      .dwcfi  undefined, 65
     952                      .dwcfi  undefined, 66
     953                      .dwcfi  undefined, 67
     954                      .dwcfi  undefined, 68
     955                      .dwcfi  undefined, 69
     956                      .dwcfi  undefined, 70
     957                      .dwcfi  undefined, 71
     958                      .dwcfi  undefined, 72
     959                      .dwcfi  undefined, 73
     960                      .dwcfi  undefined, 74
     961                      .dwcfi  undefined, 75
     962                      .dwcfi  undefined, 76
     963                      .dwcfi  undefined, 77
     964                      .dwcfi  undefined, 78
     965                      .dwcfi  undefined, 79
     966                      .dwcfi  undefined, 80
     967                      .dwcfi  undefined, 81
     968                      .dwcfi  undefined, 82
     969                      .dwcfi  undefined, 83
     970                      .dwcfi  undefined, 84
     971                      .dwcfi  undefined, 85
     972                      .dwcfi  undefined, 86
     973                      .dwcfi  undefined, 87
     974                      .dwcfi  undefined, 88
     975                      .dwcfi  undefined, 89
     976                      .dwcfi  undefined, 90
     977                      .dwcfi  undefined, 91
     978                      .dwendentry
     979              
     980              ;***************************************************************
     981              ;* DWARF REGISTER MAP                                          *
     982              ;***************************************************************
     983              
     984              $C$DW$80        .dwtag  DW_TAG_TI_assign_register, DW_AT_name("AC0")
     985                      .dwattr $C$DW$80, DW_AT_location[DW_OP_reg0]
     986              $C$DW$81        .dwtag  DW_TAG_TI_assign_register, DW_AT_name("AC0")
     987                      .dwattr $C$DW$81, DW_AT_location[DW_OP_reg1]
     988              $C$DW$82        .dwtag  DW_TAG_TI_assign_register, DW_AT_name("AC0_G")
     989                      .dwattr $C$DW$82, DW_AT_location[DW_OP_reg2]
     990              $C$DW$83        .dwtag  DW_TAG_TI_assign_register, DW_AT_name("AC1")
     991                      .dwattr $C$DW$83, DW_AT_location[DW_OP_reg3]
     992              $C$DW$84        .dwtag  DW_TAG_TI_assign_register, DW_AT_name("AC1")
     993                      .dwattr $C$DW$84, DW_AT_location[DW_OP_reg4]
     994              $C$DW$85        .dwtag  DW_TAG_TI_assign_register, DW_AT_name("AC1_G")
     995                      .dwattr $C$DW$85, DW_AT_location[DW_OP_reg5]
     996              $C$DW$86        .dwtag  DW_TAG_TI_assign_register, DW_AT_name("AC2")
     997                      .dwattr $C$DW$86, DW_AT_location[DW_OP_reg6]
TMS320C55x Assembler PC v4.4.1 Sun Sep 09 02:24:41 2018

Tools Copyright (c) 1996-2012 Texas Instruments Incorporated
StreamBufferInterrupt.asm                                            PAGE   22

     998              $C$DW$87        .dwtag  DW_TAG_TI_assign_register, DW_AT_name("AC2")
     999                      .dwattr $C$DW$87, DW_AT_location[DW_OP_reg7]
    1000              $C$DW$88        .dwtag  DW_TAG_TI_assign_register, DW_AT_name("AC2_G")
    1001                      .dwattr $C$DW$88, DW_AT_location[DW_OP_reg8]
    1002              $C$DW$89        .dwtag  DW_TAG_TI_assign_register, DW_AT_name("AC3")
    1003                      .dwattr $C$DW$89, DW_AT_location[DW_OP_reg9]
    1004              $C$DW$90        .dwtag  DW_TAG_TI_assign_register, DW_AT_name("AC3")
    1005                      .dwattr $C$DW$90, DW_AT_location[DW_OP_reg10]
    1006              $C$DW$91        .dwtag  DW_TAG_TI_assign_register, DW_AT_name("AC3_G")
    1007                      .dwattr $C$DW$91, DW_AT_location[DW_OP_reg11]
    1008              $C$DW$92        .dwtag  DW_TAG_TI_assign_register, DW_AT_name("T0")
    1009                      .dwattr $C$DW$92, DW_AT_location[DW_OP_reg12]
    1010              $C$DW$93        .dwtag  DW_TAG_TI_assign_register, DW_AT_name("T1")
    1011                      .dwattr $C$DW$93, DW_AT_location[DW_OP_reg13]
    1012              $C$DW$94        .dwtag  DW_TAG_TI_assign_register, DW_AT_name("T2")
    1013                      .dwattr $C$DW$94, DW_AT_location[DW_OP_reg14]
    1014              $C$DW$95        .dwtag  DW_TAG_TI_assign_register, DW_AT_name("T3")
    1015                      .dwattr $C$DW$95, DW_AT_location[DW_OP_reg15]
    1016              $C$DW$96        .dwtag  DW_TAG_TI_assign_register, DW_AT_name("AR0")
    1017                      .dwattr $C$DW$96, DW_AT_location[DW_OP_reg16]
    1018              $C$DW$97        .dwtag  DW_TAG_TI_assign_register, DW_AT_name("XAR0")
    1019                      .dwattr $C$DW$97, DW_AT_location[DW_OP_reg17]
    1020              $C$DW$98        .dwtag  DW_TAG_TI_assign_register, DW_AT_name("AR1")
    1021                      .dwattr $C$DW$98, DW_AT_location[DW_OP_reg18]
    1022              $C$DW$99        .dwtag  DW_TAG_TI_assign_register, DW_AT_name("XAR1")
    1023                      .dwattr $C$DW$99, DW_AT_location[DW_OP_reg19]
    1024              $C$DW$100       .dwtag  DW_TAG_TI_assign_register, DW_AT_name("AR2")
    1025                      .dwattr $C$DW$100, DW_AT_location[DW_OP_reg20]
    1026              $C$DW$101       .dwtag  DW_TAG_TI_assign_register, DW_AT_name("XAR2")
    1027                      .dwattr $C$DW$101, DW_AT_location[DW_OP_reg21]
    1028              $C$DW$102       .dwtag  DW_TAG_TI_assign_register, DW_AT_name("AR3")
    1029                      .dwattr $C$DW$102, DW_AT_location[DW_OP_reg22]
    1030              $C$DW$103       .dwtag  DW_TAG_TI_assign_register, DW_AT_name("XAR3")
    1031                      .dwattr $C$DW$103, DW_AT_location[DW_OP_reg23]
    1032              $C$DW$104       .dwtag  DW_TAG_TI_assign_register, DW_AT_name("AR4")
    1033                      .dwattr $C$DW$104, DW_AT_location[DW_OP_reg24]
    1034              $C$DW$105       .dwtag  DW_TAG_TI_assign_register, DW_AT_name("XAR4")
    1035                      .dwattr $C$DW$105, DW_AT_location[DW_OP_reg25]
    1036              $C$DW$106       .dwtag  DW_TAG_TI_assign_register, DW_AT_name("AR5")
    1037                      .dwattr $C$DW$106, DW_AT_location[DW_OP_reg26]
    1038              $C$DW$107       .dwtag  DW_TAG_TI_assign_register, DW_AT_name("XAR5")
    1039                      .dwattr $C$DW$107, DW_AT_location[DW_OP_reg27]
    1040              $C$DW$108       .dwtag  DW_TAG_TI_assign_register, DW_AT_name("AR6")
    1041                      .dwattr $C$DW$108, DW_AT_location[DW_OP_reg28]
    1042              $C$DW$109       .dwtag  DW_TAG_TI_assign_register, DW_AT_name("XAR6")
    1043                      .dwattr $C$DW$109, DW_AT_location[DW_OP_reg29]
    1044              $C$DW$110       .dwtag  DW_TAG_TI_assign_register, DW_AT_name("AR7")
    1045                      .dwattr $C$DW$110, DW_AT_location[DW_OP_reg30]
    1046              $C$DW$111       .dwtag  DW_TAG_TI_assign_register, DW_AT_name("XAR7")
    1047                      .dwattr $C$DW$111, DW_AT_location[DW_OP_reg31]
    1048              $C$DW$112       .dwtag  DW_TAG_TI_assign_register, DW_AT_name("FP")
    1049                      .dwattr $C$DW$112, DW_AT_location[DW_OP_regx 0x20]
    1050              $C$DW$113       .dwtag  DW_TAG_TI_assign_register, DW_AT_name("XFP")
    1051                      .dwattr $C$DW$113, DW_AT_location[DW_OP_regx 0x21]
    1052              $C$DW$114       .dwtag  DW_TAG_TI_assign_register, DW_AT_name("PC")
TMS320C55x Assembler PC v4.4.1 Sun Sep 09 02:24:41 2018

Tools Copyright (c) 1996-2012 Texas Instruments Incorporated
StreamBufferInterrupt.asm                                            PAGE   23

    1053                      .dwattr $C$DW$114, DW_AT_location[DW_OP_regx 0x22]
    1054              $C$DW$115       .dwtag  DW_TAG_TI_assign_register, DW_AT_name("SP")
    1055                      .dwattr $C$DW$115, DW_AT_location[DW_OP_regx 0x23]
    1056              $C$DW$116       .dwtag  DW_TAG_TI_assign_register, DW_AT_name("XSP")
    1057                      .dwattr $C$DW$116, DW_AT_location[DW_OP_regx 0x24]
    1058              $C$DW$117       .dwtag  DW_TAG_TI_assign_register, DW_AT_name("BKC")
    1059                      .dwattr $C$DW$117, DW_AT_location[DW_OP_regx 0x25]
    1060              $C$DW$118       .dwtag  DW_TAG_TI_assign_register, DW_AT_name("BK03")
    1061                      .dwattr $C$DW$118, DW_AT_location[DW_OP_regx 0x26]
    1062              $C$DW$119       .dwtag  DW_TAG_TI_assign_register, DW_AT_name("BK47")
    1063                      .dwattr $C$DW$119, DW_AT_location[DW_OP_regx 0x27]
    1064              $C$DW$120       .dwtag  DW_TAG_TI_assign_register, DW_AT_name("ST0")
    1065                      .dwattr $C$DW$120, DW_AT_location[DW_OP_regx 0x28]
    1066              $C$DW$121       .dwtag  DW_TAG_TI_assign_register, DW_AT_name("ST1")
    1067                      .dwattr $C$DW$121, DW_AT_location[DW_OP_regx 0x29]
    1068              $C$DW$122       .dwtag  DW_TAG_TI_assign_register, DW_AT_name("ST2")
    1069                      .dwattr $C$DW$122, DW_AT_location[DW_OP_regx 0x2a]
    1070              $C$DW$123       .dwtag  DW_TAG_TI_assign_register, DW_AT_name("ST3")
    1071                      .dwattr $C$DW$123, DW_AT_location[DW_OP_regx 0x2b]
    1072              $C$DW$124       .dwtag  DW_TAG_TI_assign_register, DW_AT_name("MDP")
    1073                      .dwattr $C$DW$124, DW_AT_location[DW_OP_regx 0x2c]
    1074              $C$DW$125       .dwtag  DW_TAG_TI_assign_register, DW_AT_name("MDP05")
    1075                      .dwattr $C$DW$125, DW_AT_location[DW_OP_regx 0x2d]
    1076              $C$DW$126       .dwtag  DW_TAG_TI_assign_register, DW_AT_name("MDP67")
    1077                      .dwattr $C$DW$126, DW_AT_location[DW_OP_regx 0x2e]
    1078              $C$DW$127       .dwtag  DW_TAG_TI_assign_register, DW_AT_name("BRC0")
    1079                      .dwattr $C$DW$127, DW_AT_location[DW_OP_regx 0x2f]
    1080              $C$DW$128       .dwtag  DW_TAG_TI_assign_register, DW_AT_name("RSA0")
    1081                      .dwattr $C$DW$128, DW_AT_location[DW_OP_regx 0x30]
    1082              $C$DW$129       .dwtag  DW_TAG_TI_assign_register, DW_AT_name("RSA0_H")
    1083                      .dwattr $C$DW$129, DW_AT_location[DW_OP_regx 0x31]
    1084              $C$DW$130       .dwtag  DW_TAG_TI_assign_register, DW_AT_name("REA0")
    1085                      .dwattr $C$DW$130, DW_AT_location[DW_OP_regx 0x32]
    1086              $C$DW$131       .dwtag  DW_TAG_TI_assign_register, DW_AT_name("REA0_H")
    1087                      .dwattr $C$DW$131, DW_AT_location[DW_OP_regx 0x33]
    1088              $C$DW$132       .dwtag  DW_TAG_TI_assign_register, DW_AT_name("BRS1")
    1089                      .dwattr $C$DW$132, DW_AT_location[DW_OP_regx 0x34]
    1090              $C$DW$133       .dwtag  DW_TAG_TI_assign_register, DW_AT_name("BRC1")
    1091                      .dwattr $C$DW$133, DW_AT_location[DW_OP_regx 0x35]
    1092              $C$DW$134       .dwtag  DW_TAG_TI_assign_register, DW_AT_name("RSA1")
    1093                      .dwattr $C$DW$134, DW_AT_location[DW_OP_regx 0x36]
    1094              $C$DW$135       .dwtag  DW_TAG_TI_assign_register, DW_AT_name("RSA1_H")
    1095                      .dwattr $C$DW$135, DW_AT_location[DW_OP_regx 0x37]
    1096              $C$DW$136       .dwtag  DW_TAG_TI_assign_register, DW_AT_name("REA1")
    1097                      .dwattr $C$DW$136, DW_AT_location[DW_OP_regx 0x38]
    1098              $C$DW$137       .dwtag  DW_TAG_TI_assign_register, DW_AT_name("REA1_H")
    1099                      .dwattr $C$DW$137, DW_AT_location[DW_OP_regx 0x39]
    1100              $C$DW$138       .dwtag  DW_TAG_TI_assign_register, DW_AT_name("CSR")
    1101                      .dwattr $C$DW$138, DW_AT_location[DW_OP_regx 0x3a]
    1102              $C$DW$139       .dwtag  DW_TAG_TI_assign_register, DW_AT_name("RPTC")
    1103                      .dwattr $C$DW$139, DW_AT_location[DW_OP_regx 0x3b]
    1104              $C$DW$140       .dwtag  DW_TAG_TI_assign_register, DW_AT_name("CDP")
    1105                      .dwattr $C$DW$140, DW_AT_location[DW_OP_regx 0x3c]
    1106              $C$DW$141       .dwtag  DW_TAG_TI_assign_register, DW_AT_name("XCDP")
    1107                      .dwattr $C$DW$141, DW_AT_location[DW_OP_regx 0x3d]
TMS320C55x Assembler PC v4.4.1 Sun Sep 09 02:24:41 2018

Tools Copyright (c) 1996-2012 Texas Instruments Incorporated
StreamBufferInterrupt.asm                                            PAGE   24

    1108              $C$DW$142       .dwtag  DW_TAG_TI_assign_register, DW_AT_name("TRN0")
    1109                      .dwattr $C$DW$142, DW_AT_location[DW_OP_regx 0x3e]
    1110              $C$DW$143       .dwtag  DW_TAG_TI_assign_register, DW_AT_name("TRN1")
    1111                      .dwattr $C$DW$143, DW_AT_location[DW_OP_regx 0x3f]
    1112              $C$DW$144       .dwtag  DW_TAG_TI_assign_register, DW_AT_name("BSA01")
    1113                      .dwattr $C$DW$144, DW_AT_location[DW_OP_regx 0x40]
    1114              $C$DW$145       .dwtag  DW_TAG_TI_assign_register, DW_AT_name("BSA23")
    1115                      .dwattr $C$DW$145, DW_AT_location[DW_OP_regx 0x41]
    1116              $C$DW$146       .dwtag  DW_TAG_TI_assign_register, DW_AT_name("BSA45")
    1117                      .dwattr $C$DW$146, DW_AT_location[DW_OP_regx 0x42]
    1118              $C$DW$147       .dwtag  DW_TAG_TI_assign_register, DW_AT_name("BSA67")
    1119                      .dwattr $C$DW$147, DW_AT_location[DW_OP_regx 0x43]
    1120              $C$DW$148       .dwtag  DW_TAG_TI_assign_register, DW_AT_name("BSAC")
    1121                      .dwattr $C$DW$148, DW_AT_location[DW_OP_regx 0x44]
    1122              $C$DW$149       .dwtag  DW_TAG_TI_assign_register, DW_AT_name("CARRY")
    1123                      .dwattr $C$DW$149, DW_AT_location[DW_OP_regx 0x45]
    1124              $C$DW$150       .dwtag  DW_TAG_TI_assign_register, DW_AT_name("TC1")
    1125                      .dwattr $C$DW$150, DW_AT_location[DW_OP_regx 0x46]
    1126              $C$DW$151       .dwtag  DW_TAG_TI_assign_register, DW_AT_name("TC2")
    1127                      .dwattr $C$DW$151, DW_AT_location[DW_OP_regx 0x47]
    1128              $C$DW$152       .dwtag  DW_TAG_TI_assign_register, DW_AT_name("M40")
    1129                      .dwattr $C$DW$152, DW_AT_location[DW_OP_regx 0x48]
    1130              $C$DW$153       .dwtag  DW_TAG_TI_assign_register, DW_AT_name("SXMD")
    1131                      .dwattr $C$DW$153, DW_AT_location[DW_OP_regx 0x49]
    1132              $C$DW$154       .dwtag  DW_TAG_TI_assign_register, DW_AT_name("ARMS")
    1133                      .dwattr $C$DW$154, DW_AT_location[DW_OP_regx 0x4a]
    1134              $C$DW$155       .dwtag  DW_TAG_TI_assign_register, DW_AT_name("C54CM")
    1135                      .dwattr $C$DW$155, DW_AT_location[DW_OP_regx 0x4b]
    1136              $C$DW$156       .dwtag  DW_TAG_TI_assign_register, DW_AT_name("SATA")
    1137                      .dwattr $C$DW$156, DW_AT_location[DW_OP_regx 0x4c]
    1138              $C$DW$157       .dwtag  DW_TAG_TI_assign_register, DW_AT_name("SATD")
    1139                      .dwattr $C$DW$157, DW_AT_location[DW_OP_regx 0x4d]
    1140              $C$DW$158       .dwtag  DW_TAG_TI_assign_register, DW_AT_name("RDM")
    1141                      .dwattr $C$DW$158, DW_AT_location[DW_OP_regx 0x4e]
    1142              $C$DW$159       .dwtag  DW_TAG_TI_assign_register, DW_AT_name("FRCT")
    1143                      .dwattr $C$DW$159, DW_AT_location[DW_OP_regx 0x4f]
    1144              $C$DW$160       .dwtag  DW_TAG_TI_assign_register, DW_AT_name("SMUL")
    1145                      .dwattr $C$DW$160, DW_AT_location[DW_OP_regx 0x50]
    1146              $C$DW$161       .dwtag  DW_TAG_TI_assign_register, DW_AT_name("INTM")
    1147                      .dwattr $C$DW$161, DW_AT_location[DW_OP_regx 0x51]
    1148              $C$DW$162       .dwtag  DW_TAG_TI_assign_register, DW_AT_name("AR0LC")
    1149                      .dwattr $C$DW$162, DW_AT_location[DW_OP_regx 0x52]
    1150              $C$DW$163       .dwtag  DW_TAG_TI_assign_register, DW_AT_name("AR1LC")
    1151                      .dwattr $C$DW$163, DW_AT_location[DW_OP_regx 0x53]
    1152              $C$DW$164       .dwtag  DW_TAG_TI_assign_register, DW_AT_name("AR2LC")
    1153                      .dwattr $C$DW$164, DW_AT_location[DW_OP_regx 0x54]
    1154              $C$DW$165       .dwtag  DW_TAG_TI_assign_register, DW_AT_name("AR3LC")
    1155                      .dwattr $C$DW$165, DW_AT_location[DW_OP_regx 0x55]
    1156              $C$DW$166       .dwtag  DW_TAG_TI_assign_register, DW_AT_name("AR4LC")
    1157                      .dwattr $C$DW$166, DW_AT_location[DW_OP_regx 0x56]
    1158              $C$DW$167       .dwtag  DW_TAG_TI_assign_register, DW_AT_name("AR5LC")
    1159                      .dwattr $C$DW$167, DW_AT_location[DW_OP_regx 0x57]
    1160              $C$DW$168       .dwtag  DW_TAG_TI_assign_register, DW_AT_name("AR6LC")
    1161                      .dwattr $C$DW$168, DW_AT_location[DW_OP_regx 0x58]
    1162              $C$DW$169       .dwtag  DW_TAG_TI_assign_register, DW_AT_name("AR7LC")
TMS320C55x Assembler PC v4.4.1 Sun Sep 09 02:24:41 2018

Tools Copyright (c) 1996-2012 Texas Instruments Incorporated
StreamBufferInterrupt.asm                                            PAGE   25

    1163                      .dwattr $C$DW$169, DW_AT_location[DW_OP_regx 0x59]
    1164              $C$DW$170       .dwtag  DW_TAG_TI_assign_register, DW_AT_name("CDPLC")
    1165                      .dwattr $C$DW$170, DW_AT_location[DW_OP_regx 0x5a]
    1166              $C$DW$171       .dwtag  DW_TAG_TI_assign_register, DW_AT_name("CIE_RETA")
    1167                      .dwattr $C$DW$171, DW_AT_location[DW_OP_regx 0x5b]
    1168                      .dwendtag $C$DW$CU
    1169              
    1169              
    1169              

No Assembly Errors, No Assembly Warnings
