TMS320C55x Assembler PC v4.4.1 Sun Sep 09 02:20:41 2018

Tools Copyright (c) 1996-2012 Texas Instruments Incorporated
TaskNotify.asm                                                       PAGE    1

    2728              ; Temporary Registers Used: None
       1              ;*******************************************************************************
       2              ;* TMS320C55x C/C++ Codegen                                          PC v4.4.1 *
       3              ;* Date/Time created: Sun Sep 09 02:20:40 2018                                 *
       4              ;*******************************************************************************
       5                      .compiler_opts --hll_source=on --mem_model:code=flat --mem_model:data=large --object_format=coff --si
       6                      .mmregs
       7                      .cpl_on
       8                      .arms_on
       9                      .c54cm_off
      10                      .asg AR6, FP
      11                      .asg XAR6, XFP
      12                      .asg DPH, MDP
      13                      .model call=c55_std
      14                      .model mem=large
      15                      .noremark 5002  ; code respects overwrite rules
      16              ;*******************************************************************************
      17              ;* GLOBAL FILE PARAMETERS                                                      *
      18              ;*                                                                             *
      19              ;*   Architecture       : TMS320C55x                                           *
      20              ;*   Optimizing for     : Speed                                                *
      21              ;*   Memory             : Large Model (23-Bit Data Pointers)                   *
      22              ;*   Calls              : Normal Library ASM calls                             *
      23              ;*   Debug Info         : Standard TI Debug Information                        *
      24              ;*******************************************************************************
      25              
      26              $C$DW$CU        .dwtag  DW_TAG_compile_unit
      27                      .dwattr $C$DW$CU, DW_AT_name("../FreeRTOS/Demo/Common/Minimal/TaskNotify.c")
      28                      .dwattr $C$DW$CU, DW_AT_producer("TMS320C55x C/C++ Codegen PC v4.4.1 Copyright (c) 1996-2012 Texas In
      29                      .dwattr $C$DW$CU, DW_AT_TI_version(0x01)
      30                      .dwattr $C$DW$CU, DW_AT_comp_dir("F:\eZdsp_DBG\eZDSP_5535_Files\ccsws2\test\Debug")
      31              ;******************************************************************************
      32              ;* CINIT RECORDS                                                              *
      33              ;******************************************************************************
      34 000000               .sect   ".cinit"
      35                      .align  1
      36 000000 0001          .field          1,16
      37 000001 0000-         .field          _xErrorStatus+0,24
         000002 0000 
      38 000002 0000          .field          0,8
      39 000003 0001          .field  1,16                    ; _xErrorStatus @ 0
      40              
      41 000004               .sect   ".cinit"
      42                      .align  1
      43 000004 0002          .field          2,16
      44 000005 0000-         .field          _ulNotifyCycleCount+0,24
         000006 0200 
      45 000006 0200          .field          0,8
      46 000007 0000          .field  0,32                    ; _ulNotifyCycleCount @ 0
         000008 0000 
      47              
      48 000009               .sect   ".cinit"
      49                      .align  1
      50 000009 0002          .field          2,16
      51 00000a 0000-         .field          _xTaskToNotify+0,24
TMS320C55x Assembler PC v4.4.1 Sun Sep 09 02:20:41 2018

Tools Copyright (c) 1996-2012 Texas Instruments Incorporated
TaskNotify.asm                                                       PAGE    2

         00000b 0400 
      52 00000b 0400          .field          0,8
      53 00000c 0000          .field  0,32                    ; _xTaskToNotify @ 0
         00000d 0000 
      54              
      55 00000e               .sect   ".cinit"
      56                      .align  1
      57 00000e 0002          .field          2,16
      58 00000f 0000-         .field          _ulTimerNotificationsReceived+0,24
         000010 0600 
      59 000010 0600          .field          0,8
      60 000011 0000          .field  0,32                    ; _ulTimerNotificationsReceived @ 0
         000012 0000 
      61              
      62 000013               .sect   ".cinit"
      63                      .align  1
      64 000013 0002          .field          2,16
      65 000014 0000-         .field          _ulTimerNotificationsSent+0,24
         000015 0800 
      66 000015 0800          .field          0,8
      67 000016 0000          .field  0,32                    ; _ulTimerNotificationsSent @ 0
         000017 0000 
      68              
      69 000018               .sect   ".cinit"
      70                      .align  1
      71 000018 0002          .field          2,16
      72 000019 0000-         .field          _xTimer+0,24
         00001a 0A00 
      73 00001a 0A00          .field          0,8
      74 00001b 0000          .field  0,32                    ; _xTimer @ 0
         00001c 0000 
      75              
      76 00001d               .sect   ".cinit"
      77                      .align  1
      78 00001d 0001          .field          1,16
      79 00001e 0000-         .field          _uxNextRand+0,24
         00001f 0100 
      80 00001f 0100          .field          0,8
      81 000020 0000          .field  0,16                    ; _uxNextRand @ 0
      82              
      83 000021               .sect   ".cinit"
      84                      .align  1
      85 000021 0002          .field          2,16
      86 000022 0000-         .field          _ulCallCount$1+0,24
         000023 0C00 
      87 000023 0C00          .field          0,8
      88 000024 0000          .field  0,32                    ; _ulCallCount$1 @ 0
         000025 0000 
      89              
      90 000026               .sect   ".cinit"
      91                      .align  1
      92 000026 0001          .field          1,16
      93 000027 0000-         .field          _xCallCount$2+0,24
         000028 0E00 
      94 000028 0E00          .field          0,8
TMS320C55x Assembler PC v4.4.1 Sun Sep 09 02:20:41 2018

Tools Copyright (c) 1996-2012 Texas Instruments Incorporated
TaskNotify.asm                                                       PAGE    3

      95 000029 0000          .field  0,16                    ; _xCallCount$2 @ 0
      96              
      97 00002a               .sect   ".cinit"
      98                      .align  1
      99 00002a 0001          .field          1,16
     100 00002b 0000-         .field          _xAPIToUse$3+0,24
         00002c 0F00 
     101 00002c 0F00          .field          0,8
     102 00002d 0000          .field  0,16                    ; _xAPIToUse$3 @ 0
     103              
     104 00002e               .sect   ".cinit"
     105                      .align  1
     106 00002e 0002          .field          2,16
     107 00002f 0000-         .field          _ulLastNotifyCycleCount$4+0,24
         000030 1000 
     108 000030 1000          .field          0,8
     109 000031 0000          .field  0,32                    ; _ulLastNotifyCycleCount$4 @ 0
         000032 0000 
     110              
     111              
     112              $C$DW$1 .dwtag  DW_TAG_subprogram, DW_AT_name("xTaskCreate")
     113                      .dwattr $C$DW$1, DW_AT_TI_symbol_name("_xTaskCreate")
     114                      .dwattr $C$DW$1, DW_AT_type(*$C$DW$T$34)
     115                      .dwattr $C$DW$1, DW_AT_declaration
     116                      .dwattr $C$DW$1, DW_AT_external
     117              $C$DW$2 .dwtag  DW_TAG_formal_parameter
     118                      .dwattr $C$DW$2, DW_AT_type(*$C$DW$T$26)
     119              $C$DW$3 .dwtag  DW_TAG_formal_parameter
     120                      .dwattr $C$DW$3, DW_AT_type(*$C$DW$T$49)
     121              $C$DW$4 .dwtag  DW_TAG_formal_parameter
     122                      .dwattr $C$DW$4, DW_AT_type(*$C$DW$T$51)
     123              $C$DW$5 .dwtag  DW_TAG_formal_parameter
     124                      .dwattr $C$DW$5, DW_AT_type(*$C$DW$T$23)
     125              $C$DW$6 .dwtag  DW_TAG_formal_parameter
     126                      .dwattr $C$DW$6, DW_AT_type(*$C$DW$T$29)
     127              $C$DW$7 .dwtag  DW_TAG_formal_parameter
     128                      .dwattr $C$DW$7, DW_AT_type(*$C$DW$T$53)
     129                      .dwendtag $C$DW$1
     130              
     131              
     132              $C$DW$8 .dwtag  DW_TAG_subprogram, DW_AT_name("vTaskPrioritySet")
     133                      .dwattr $C$DW$8, DW_AT_TI_symbol_name("_vTaskPrioritySet")
     134                      .dwattr $C$DW$8, DW_AT_declaration
     135                      .dwattr $C$DW$8, DW_AT_external
     136              $C$DW$9 .dwtag  DW_TAG_formal_parameter
     137                      .dwattr $C$DW$9, DW_AT_type(*$C$DW$T$28)
     138              $C$DW$10        .dwtag  DW_TAG_formal_parameter
     139                      .dwattr $C$DW$10, DW_AT_type(*$C$DW$T$29)
     140                      .dwendtag $C$DW$8
     141              
     142              
     143              $C$DW$11        .dwtag  DW_TAG_subprogram, DW_AT_name("vTaskSuspend")
     144                      .dwattr $C$DW$11, DW_AT_TI_symbol_name("_vTaskSuspend")
     145                      .dwattr $C$DW$11, DW_AT_declaration
     146                      .dwattr $C$DW$11, DW_AT_external
TMS320C55x Assembler PC v4.4.1 Sun Sep 09 02:20:41 2018

Tools Copyright (c) 1996-2012 Texas Instruments Incorporated
TaskNotify.asm                                                       PAGE    4

     147              $C$DW$12        .dwtag  DW_TAG_formal_parameter
     148                      .dwattr $C$DW$12, DW_AT_type(*$C$DW$T$28)
     149                      .dwendtag $C$DW$11
     150              
     151              
     152              $C$DW$13        .dwtag  DW_TAG_subprogram, DW_AT_name("vTaskResume")
     153                      .dwattr $C$DW$13, DW_AT_TI_symbol_name("_vTaskResume")
     154                      .dwattr $C$DW$13, DW_AT_declaration
     155                      .dwattr $C$DW$13, DW_AT_external
     156              $C$DW$14        .dwtag  DW_TAG_formal_parameter
     157                      .dwattr $C$DW$14, DW_AT_type(*$C$DW$T$28)
     158                      .dwendtag $C$DW$13
     159              
     160              
     161              $C$DW$15        .dwtag  DW_TAG_subprogram, DW_AT_name("xTaskGetTickCount")
     162                      .dwattr $C$DW$15, DW_AT_TI_symbol_name("_xTaskGetTickCount")
     163                      .dwattr $C$DW$15, DW_AT_type(*$C$DW$T$63)
     164                      .dwattr $C$DW$15, DW_AT_declaration
     165                      .dwattr $C$DW$15, DW_AT_external
     166              
     167              $C$DW$16        .dwtag  DW_TAG_subprogram, DW_AT_name("xTaskGenericNotify")
     168                      .dwattr $C$DW$16, DW_AT_TI_symbol_name("_xTaskGenericNotify")
     169                      .dwattr $C$DW$16, DW_AT_type(*$C$DW$T$34)
     170                      .dwattr $C$DW$16, DW_AT_declaration
     171                      .dwattr $C$DW$16, DW_AT_external
     172              $C$DW$17        .dwtag  DW_TAG_formal_parameter
     173                      .dwattr $C$DW$17, DW_AT_type(*$C$DW$T$28)
     174              $C$DW$18        .dwtag  DW_TAG_formal_parameter
     175                      .dwattr $C$DW$18, DW_AT_type(*$C$DW$T$56)
     176              $C$DW$19        .dwtag  DW_TAG_formal_parameter
     177                      .dwattr $C$DW$19, DW_AT_type(*$C$DW$T$22)
     178              $C$DW$20        .dwtag  DW_TAG_formal_parameter
     179                      .dwattr $C$DW$20, DW_AT_type(*$C$DW$T$57)
     180                      .dwendtag $C$DW$16
     181              
     182              
     183              $C$DW$21        .dwtag  DW_TAG_subprogram, DW_AT_name("xTaskGenericNotifyFromISR")
     184                      .dwattr $C$DW$21, DW_AT_TI_symbol_name("_xTaskGenericNotifyFromISR")
     185                      .dwattr $C$DW$21, DW_AT_type(*$C$DW$T$34)
     186                      .dwattr $C$DW$21, DW_AT_declaration
     187                      .dwattr $C$DW$21, DW_AT_external
     188              $C$DW$22        .dwtag  DW_TAG_formal_parameter
     189                      .dwattr $C$DW$22, DW_AT_type(*$C$DW$T$28)
     190              $C$DW$23        .dwtag  DW_TAG_formal_parameter
     191                      .dwattr $C$DW$23, DW_AT_type(*$C$DW$T$56)
     192              $C$DW$24        .dwtag  DW_TAG_formal_parameter
     193                      .dwattr $C$DW$24, DW_AT_type(*$C$DW$T$22)
     194              $C$DW$25        .dwtag  DW_TAG_formal_parameter
     195                      .dwattr $C$DW$25, DW_AT_type(*$C$DW$T$57)
     196              $C$DW$26        .dwtag  DW_TAG_formal_parameter
     197                      .dwattr $C$DW$26, DW_AT_type(*$C$DW$T$35)
     198                      .dwendtag $C$DW$21
     199              
     200              
     201              $C$DW$27        .dwtag  DW_TAG_subprogram, DW_AT_name("xTaskNotifyWait")
TMS320C55x Assembler PC v4.4.1 Sun Sep 09 02:20:41 2018

Tools Copyright (c) 1996-2012 Texas Instruments Incorporated
TaskNotify.asm                                                       PAGE    5

     202                      .dwattr $C$DW$27, DW_AT_TI_symbol_name("_xTaskNotifyWait")
     203                      .dwattr $C$DW$27, DW_AT_type(*$C$DW$T$34)
     204                      .dwattr $C$DW$27, DW_AT_declaration
     205                      .dwattr $C$DW$27, DW_AT_external
     206              $C$DW$28        .dwtag  DW_TAG_formal_parameter
     207                      .dwattr $C$DW$28, DW_AT_type(*$C$DW$T$56)
     208              $C$DW$29        .dwtag  DW_TAG_formal_parameter
     209                      .dwattr $C$DW$29, DW_AT_type(*$C$DW$T$56)
     210              $C$DW$30        .dwtag  DW_TAG_formal_parameter
     211                      .dwattr $C$DW$30, DW_AT_type(*$C$DW$T$57)
     212              $C$DW$31        .dwtag  DW_TAG_formal_parameter
     213                      .dwattr $C$DW$31, DW_AT_type(*$C$DW$T$63)
     214                      .dwendtag $C$DW$27
     215              
     216              
     217              $C$DW$32        .dwtag  DW_TAG_subprogram, DW_AT_name("vTaskNotifyGiveFromISR")
     218                      .dwattr $C$DW$32, DW_AT_TI_symbol_name("_vTaskNotifyGiveFromISR")
     219                      .dwattr $C$DW$32, DW_AT_declaration
     220                      .dwattr $C$DW$32, DW_AT_external
     221              $C$DW$33        .dwtag  DW_TAG_formal_parameter
     222                      .dwattr $C$DW$33, DW_AT_type(*$C$DW$T$28)
     223              $C$DW$34        .dwtag  DW_TAG_formal_parameter
     224                      .dwattr $C$DW$34, DW_AT_type(*$C$DW$T$35)
     225                      .dwendtag $C$DW$32
     226              
     227              
     228              $C$DW$35        .dwtag  DW_TAG_subprogram, DW_AT_name("ulTaskNotifyTake")
     229                      .dwattr $C$DW$35, DW_AT_TI_symbol_name("_ulTaskNotifyTake")
     230                      .dwattr $C$DW$35, DW_AT_type(*$C$DW$T$56)
     231                      .dwattr $C$DW$35, DW_AT_declaration
     232                      .dwattr $C$DW$35, DW_AT_external
     233              $C$DW$36        .dwtag  DW_TAG_formal_parameter
     234                      .dwattr $C$DW$36, DW_AT_type(*$C$DW$T$34)
     235              $C$DW$37        .dwtag  DW_TAG_formal_parameter
     236                      .dwattr $C$DW$37, DW_AT_type(*$C$DW$T$63)
     237                      .dwendtag $C$DW$35
     238              
     239              
     240              $C$DW$38        .dwtag  DW_TAG_subprogram, DW_AT_name("xTimerCreate")
     241                      .dwattr $C$DW$38, DW_AT_TI_symbol_name("_xTimerCreate")
     242                      .dwattr $C$DW$38, DW_AT_type(*$C$DW$T$39)
     243                      .dwattr $C$DW$38, DW_AT_declaration
     244                      .dwattr $C$DW$38, DW_AT_external
     245              $C$DW$39        .dwtag  DW_TAG_formal_parameter
     246                      .dwattr $C$DW$39, DW_AT_type(*$C$DW$T$49)
     247              $C$DW$40        .dwtag  DW_TAG_formal_parameter
     248                      .dwattr $C$DW$40, DW_AT_type(*$C$DW$T$66)
     249              $C$DW$41        .dwtag  DW_TAG_formal_parameter
     250                      .dwattr $C$DW$41, DW_AT_type(*$C$DW$T$70)
     251              $C$DW$42        .dwtag  DW_TAG_formal_parameter
     252                      .dwattr $C$DW$42, DW_AT_type(*$C$DW$T$23)
     253              $C$DW$43        .dwtag  DW_TAG_formal_parameter
     254                      .dwattr $C$DW$43, DW_AT_type(*$C$DW$T$42)
     255                      .dwendtag $C$DW$38
     256              
TMS320C55x Assembler PC v4.4.1 Sun Sep 09 02:20:41 2018

Tools Copyright (c) 1996-2012 Texas Instruments Incorporated
TaskNotify.asm                                                       PAGE    6

     257              
     258              $C$DW$44        .dwtag  DW_TAG_subprogram, DW_AT_name("xTimerGenericCommand")
     259                      .dwattr $C$DW$44, DW_AT_TI_symbol_name("_xTimerGenericCommand")
     260                      .dwattr $C$DW$44, DW_AT_type(*$C$DW$T$34)
     261                      .dwattr $C$DW$44, DW_AT_declaration
     262                      .dwattr $C$DW$44, DW_AT_external
     263              $C$DW$45        .dwtag  DW_TAG_formal_parameter
     264                      .dwattr $C$DW$45, DW_AT_type(*$C$DW$T$39)
     265              $C$DW$46        .dwtag  DW_TAG_formal_parameter
     266                      .dwattr $C$DW$46, DW_AT_type(*$C$DW$T$45)
     267              $C$DW$47        .dwtag  DW_TAG_formal_parameter
     268                      .dwattr $C$DW$47, DW_AT_type(*$C$DW$T$66)
     269              $C$DW$48        .dwtag  DW_TAG_formal_parameter
     270                      .dwattr $C$DW$48, DW_AT_type(*$C$DW$T$60)
     271              $C$DW$49        .dwtag  DW_TAG_formal_parameter
     272                      .dwattr $C$DW$49, DW_AT_type(*$C$DW$T$66)
     273                      .dwendtag $C$DW$44
     274              
     275 000000               .bss    _xErrorStatus,1,0,0
     276              $C$DW$50        .dwtag  DW_TAG_variable, DW_AT_name("xErrorStatus")
     277                      .dwattr $C$DW$50, DW_AT_TI_symbol_name("_xErrorStatus")
     278                      .dwattr $C$DW$50, DW_AT_type(*$C$DW$T$34)
     279                      .dwattr $C$DW$50, DW_AT_location[DW_OP_addr _xErrorStatus]
     280 000002               .bss    _ulNotifyCycleCount,2,0,2
     281              $C$DW$51        .dwtag  DW_TAG_variable, DW_AT_name("ulNotifyCycleCount")
     282                      .dwattr $C$DW$51, DW_AT_TI_symbol_name("_ulNotifyCycleCount")
     283                      .dwattr $C$DW$51, DW_AT_type(*$C$DW$T$80)
     284                      .dwattr $C$DW$51, DW_AT_location[DW_OP_addr _ulNotifyCycleCount]
     285 000004               .bss    _xTaskToNotify,2,0,2
     286              $C$DW$52        .dwtag  DW_TAG_variable, DW_AT_name("xTaskToNotify")
     287                      .dwattr $C$DW$52, DW_AT_TI_symbol_name("_xTaskToNotify")
     288                      .dwattr $C$DW$52, DW_AT_type(*$C$DW$T$28)
     289                      .dwattr $C$DW$52, DW_AT_location[DW_OP_addr _xTaskToNotify]
     290 000006               .bss    _ulTimerNotificationsReceived,2,0,2
     291              $C$DW$53        .dwtag  DW_TAG_variable, DW_AT_name("ulTimerNotificationsReceived")
     292                      .dwattr $C$DW$53, DW_AT_TI_symbol_name("_ulTimerNotificationsReceived")
     293                      .dwattr $C$DW$53, DW_AT_type(*$C$DW$T$56)
     294                      .dwattr $C$DW$53, DW_AT_location[DW_OP_addr _ulTimerNotificationsReceived]
     295 000008               .bss    _ulTimerNotificationsSent,2,0,2
     296              $C$DW$54        .dwtag  DW_TAG_variable, DW_AT_name("ulTimerNotificationsSent")
     297                      .dwattr $C$DW$54, DW_AT_TI_symbol_name("_ulTimerNotificationsSent")
     298                      .dwattr $C$DW$54, DW_AT_type(*$C$DW$T$56)
     299                      .dwattr $C$DW$54, DW_AT_location[DW_OP_addr _ulTimerNotificationsSent]
     300 00000a               .bss    _xTimer,2,0,2
     301              $C$DW$55        .dwtag  DW_TAG_variable, DW_AT_name("xTimer")
     302                      .dwattr $C$DW$55, DW_AT_TI_symbol_name("_xTimer")
     303                      .dwattr $C$DW$55, DW_AT_type(*$C$DW$T$39)
     304                      .dwattr $C$DW$55, DW_AT_location[DW_OP_addr _xTimer]
     305 000001               .bss    _uxNextRand,1,0,0
     306              $C$DW$56        .dwtag  DW_TAG_variable, DW_AT_name("uxNextRand")
     307                      .dwattr $C$DW$56, DW_AT_TI_symbol_name("_uxNextRand")
     308                      .dwattr $C$DW$56, DW_AT_type(*$C$DW$T$76)
     309                      .dwattr $C$DW$56, DW_AT_location[DW_OP_addr _uxNextRand]
     310              $C$DW$57        .dwtag  DW_TAG_variable, DW_AT_name("usCriticalNesting")
     311                      .dwattr $C$DW$57, DW_AT_TI_symbol_name("_usCriticalNesting")
TMS320C55x Assembler PC v4.4.1 Sun Sep 09 02:20:41 2018

Tools Copyright (c) 1996-2012 Texas Instruments Incorporated
TaskNotify.asm                                                       PAGE    7

     312                      .dwattr $C$DW$57, DW_AT_type(*$C$DW$T$75)
     313                      .dwattr $C$DW$57, DW_AT_declaration
     314                      .dwattr $C$DW$57, DW_AT_external
     315 00000c               .bss    _ulCallCount$1,2,0,2
     316 00000e               .bss    _xCallCount$2,1,0,0
     317 00000f               .bss    _xAPIToUse$3,1,0,0
     318 000010               .bss    _ulLastNotifyCycleCount$4,2,0,2
     319              ;       F:\TI_CCS_7P4\ccsv7\tools\compiler\c5500_4.4.1\bin\acp55.exe -@f:\\AppData\\Local\\Temp\\2362412 
     320 000000               .sect   ".text"
     321                      .align 4
     322                      .global _vStartTaskNotifyTask
     323              
     324              $C$DW$58        .dwtag  DW_TAG_subprogram, DW_AT_name("vStartTaskNotifyTask")
     325                      .dwattr $C$DW$58, DW_AT_low_pc(_vStartTaskNotifyTask)
     326                      .dwattr $C$DW$58, DW_AT_high_pc(0x00)
     327                      .dwattr $C$DW$58, DW_AT_TI_symbol_name("_vStartTaskNotifyTask")
     328                      .dwattr $C$DW$58, DW_AT_external
     329                      .dwattr $C$DW$58, DW_AT_TI_begin_file("../FreeRTOS/Demo/Common/Minimal/TaskNotify.c")
     330                      .dwattr $C$DW$58, DW_AT_TI_begin_line(0x67)
     331                      .dwattr $C$DW$58, DW_AT_TI_begin_column(0x06)
     332                      .dwattr $C$DW$58, DW_AT_TI_max_frame_size(0x02)
     333                      .dwpsn  file "../FreeRTOS/Demo/Common/Minimal/TaskNotify.c",line 104,column 1,is_stmt,address _vStart
     334              
     335                      .dwfde $C$DW$CIE, _vStartTaskNotifyTask
     336              ;*******************************************************************************
     337              ;* FUNCTION NAME: vStartTaskNotifyTask                                         *
     338              ;*                                                                             *
     339              ;*   Function Uses Regs : AC0,AC0,T0,T1,AR0,XAR0,AR1,XAR1,AR2,XAR2,SP,M40,SATA,*
     340              ;*                        SATD,RDM,FRCT,SMUL                                   *
     341              ;*   Stack Frame        : Compact (No Frame Pointer, w/ debug)                 *
     342              ;*   Total Frame Size   : 2 words                                              *
     343              ;*                        (2 return address/alignment)                         *
     344              ;*   Min System Stack   : 1 word                                               *
     345              ;*******************************************************************************
     346 000000       _vStartTaskNotifyTask:
     347                      .dwcfi  cfa_offset, 1
     348                      .dwcfi  save_reg_to_mem, 91, -1
     349 000000 4EFF          AADD #-1, SP
     350                      .dwcfi  cfa_offset, 2
     351                      .dwpsn  file "../FreeRTOS/Demo/Common/Minimal/TaskNotify.c",line 107,column 2,is_stmt
     352 000002 7A00          MOV #(_prvNotifiedTask >> 16) << #16, AC0 ; |107| 
         000004 000A%
     353 000006 EC31          AMOV #_xTaskToNotify, XAR2 ; |107| 
         000008 AE00 
         00000a 0004-
     354 00000c EC31          AMOV #0, XAR1 ; |107| 
         00000e 9E00 
         000010 0000 
     355 000012 EC31          AMOV #$C$FSL1, XAR0 ; |107| 
         000014 8E00 
         000016 0000+
     356 000018 7600          MOV #128, T0 ; |107| 
         00001a 8048 
     357 00001c 7E00          OR #(_prvNotifiedTask & 0xffff), AC0, AC0 ; |107| 
         00001e 0000%
TMS320C55x Assembler PC v4.4.1 Sun Sep 09 02:20:41 2018

Tools Copyright (c) 1996-2012 Texas Instruments Incorporated
TaskNotify.asm                                                       PAGE    8

     358              $C$DW$59        .dwtag  DW_TAG_TI_branch
     359                      .dwattr $C$DW$59, DW_AT_low_pc(0x00)
     360                      .dwattr $C$DW$59, DW_AT_name("_xTaskCreate")
     361                      .dwattr $C$DW$59, DW_AT_TI_call
     362              
     363 000020 6C00          CALL #_xTaskCreate ; |107| 
         000022 0000!
     364 000024 3D05  ||      MOV #0, T1
     365              
     366                                                      ; call occurs [#_xTaskCreate] ; |107| 
     367                      .dwpsn  file "../FreeRTOS/Demo/Common/Minimal/TaskNotify.c",line 110,column 2,is_stmt
     368 000026 FB31          MOV #_prvRand, *(#_uxNextRand) ; |110| 
         000028 0770 
         00002a 0000'
         00002c 01-  
     369                      .dwpsn  file "../FreeRTOS/Demo/Common/Minimal/TaskNotify.c",line 111,column 1,is_stmt
     370 00002d 4E01          AADD #1, SP
     371                      .dwcfi  cfa_offset, 1
     372              $C$DW$60        .dwtag  DW_TAG_TI_branch
     373                      .dwattr $C$DW$60, DW_AT_low_pc(0x00)
     374                      .dwattr $C$DW$60, DW_AT_TI_return
     375 00002f 4804          RET
     376                                                      ; return occurs
     377                      .dwattr $C$DW$58, DW_AT_TI_end_file("../FreeRTOS/Demo/Common/Minimal/TaskNotify.c")
     378                      .dwattr $C$DW$58, DW_AT_TI_end_line(0x6f)
     379                      .dwattr $C$DW$58, DW_AT_TI_end_column(0x01)
     380                      .dwendentry
     381                      .dwendtag $C$DW$58
     382              
     383 000031               .sect   ".text"
     384                      .align 4
     385              
     386              $C$DW$61        .dwtag  DW_TAG_subprogram, DW_AT_name("prvSingleTaskTests")
     387                      .dwattr $C$DW$61, DW_AT_low_pc(_prvSingleTaskTests)
     388                      .dwattr $C$DW$61, DW_AT_high_pc(0x00)
     389                      .dwattr $C$DW$61, DW_AT_TI_symbol_name("_prvSingleTaskTests")
     390                      .dwattr $C$DW$61, DW_AT_TI_begin_file("../FreeRTOS/Demo/Common/Minimal/TaskNotify.c")
     391                      .dwattr $C$DW$61, DW_AT_TI_begin_line(0x72)
     392                      .dwattr $C$DW$61, DW_AT_TI_begin_column(0x0d)
     393                      .dwattr $C$DW$61, DW_AT_TI_max_frame_size(0x1c)
     394                      .dwpsn  file "../FreeRTOS/Demo/Common/Minimal/TaskNotify.c",line 115,column 1,is_stmt,address _prvSin
     395              
     396                      .dwfde $C$DW$CIE, _prvSingleTaskTests
     397              ;*******************************************************************************
     398              ;* FUNCTION NAME: prvSingleTaskTests                                           *
     399              ;*                                                                             *
     400              ;*   Function Uses Regs : AC0,AC0,AC1,AC1,T0,T1,AR0,XAR0,AR1,XAR1,AR2,AR3,XAR3,*
     401              ;*                        SP,CARRY,TC1,M40,SATA,SATD,RDM,FRCT,SMUL             *
     402              ;*   Stack Frame        : Compact (No Frame Pointer, w/ debug)                 *
     403              ;*   Total Frame Size   : 28 words                                             *
     404              ;*                        (2 return address/alignment)                         *
     405              ;*                        (26 local values)                                    *
     406              ;*   Min System Stack   : 1 word                                               *
     407              ;*******************************************************************************
     408 000034       _prvSingleTaskTests:
TMS320C55x Assembler PC v4.4.1 Sun Sep 09 02:20:41 2018

Tools Copyright (c) 1996-2012 Texas Instruments Incorporated
TaskNotify.asm                                                       PAGE    9

     409                      .dwcfi  cfa_offset, 1
     410                      .dwcfi  save_reg_to_mem, 91, -1
     411 000034 4EE5          AADD #-27, SP
     412                      .dwcfi  cfa_offset, 28
     413              $C$DW$62        .dwtag  DW_TAG_variable, DW_AT_name("xTicksToWait")
     414                      .dwattr $C$DW$62, DW_AT_TI_symbol_name("_xTicksToWait")
     415                      .dwattr $C$DW$62, DW_AT_type(*$C$DW$T$66)
     416                      .dwattr $C$DW$62, DW_AT_location[DW_OP_bregx 0x24 0]
     417              $C$DW$63        .dwtag  DW_TAG_variable, DW_AT_name("xReturned")
     418                      .dwattr $C$DW$63, DW_AT_TI_symbol_name("_xReturned")
     419                      .dwattr $C$DW$63, DW_AT_type(*$C$DW$T$34)
     420                      .dwattr $C$DW$63, DW_AT_location[DW_OP_bregx 0x24 1]
     421              $C$DW$64        .dwtag  DW_TAG_variable, DW_AT_name("ulNotifiedValue")
     422                      .dwattr $C$DW$64, DW_AT_TI_symbol_name("_ulNotifiedValue")
     423                      .dwattr $C$DW$64, DW_AT_type(*$C$DW$T$56)
     424                      .dwattr $C$DW$64, DW_AT_location[DW_OP_bregx 0x24 2]
     425              $C$DW$65        .dwtag  DW_TAG_variable, DW_AT_name("ulLoop")
     426                      .dwattr $C$DW$65, DW_AT_TI_symbol_name("_ulLoop")
     427                      .dwattr $C$DW$65, DW_AT_type(*$C$DW$T$56)
     428                      .dwattr $C$DW$65, DW_AT_location[DW_OP_bregx 0x24 4]
     429              $C$DW$66        .dwtag  DW_TAG_variable, DW_AT_name("ulNotifyingValue")
     430                      .dwattr $C$DW$66, DW_AT_TI_symbol_name("_ulNotifyingValue")
     431                      .dwattr $C$DW$66, DW_AT_type(*$C$DW$T$56)
     432                      .dwattr $C$DW$66, DW_AT_location[DW_OP_bregx 0x24 6]
     433              $C$DW$67        .dwtag  DW_TAG_variable, DW_AT_name("ulPreviousValue")
     434                      .dwattr $C$DW$67, DW_AT_TI_symbol_name("_ulPreviousValue")
     435                      .dwattr $C$DW$67, DW_AT_type(*$C$DW$T$56)
     436                      .dwattr $C$DW$67, DW_AT_location[DW_OP_bregx 0x24 8]
     437              $C$DW$68        .dwtag  DW_TAG_variable, DW_AT_name("ulExpectedValue")
     438                      .dwattr $C$DW$68, DW_AT_TI_symbol_name("_ulExpectedValue")
     439                      .dwattr $C$DW$68, DW_AT_type(*$C$DW$T$56)
     440                      .dwattr $C$DW$68, DW_AT_location[DW_OP_bregx 0x24 10]
     441              $C$DW$69        .dwtag  DW_TAG_variable, DW_AT_name("xTimeOnEntering")
     442                      .dwattr $C$DW$69, DW_AT_TI_symbol_name("_xTimeOnEntering")
     443                      .dwattr $C$DW$69, DW_AT_type(*$C$DW$T$63)
     444                      .dwattr $C$DW$69, DW_AT_location[DW_OP_bregx 0x24 12]
     445              $C$DW$70        .dwtag  DW_TAG_variable, DW_AT_name("ulFirstNotifiedConst")
     446                      .dwattr $C$DW$70, DW_AT_TI_symbol_name("_ulFirstNotifiedConst")
     447                      .dwattr $C$DW$70, DW_AT_type(*$C$DW$T$81)
     448                      .dwattr $C$DW$70, DW_AT_location[DW_OP_bregx 0x24 14]
     449              $C$DW$71        .dwtag  DW_TAG_variable, DW_AT_name("ulSecondNotifiedValueConst")
     450                      .dwattr $C$DW$71, DW_AT_TI_symbol_name("_ulSecondNotifiedValueConst")
     451                      .dwattr $C$DW$71, DW_AT_type(*$C$DW$T$81)
     452                      .dwattr $C$DW$71, DW_AT_location[DW_OP_bregx 0x24 16]
     453              $C$DW$72        .dwtag  DW_TAG_variable, DW_AT_name("ulMaxLoops")
     454                      .dwattr $C$DW$72, DW_AT_TI_symbol_name("_ulMaxLoops")
     455                      .dwattr $C$DW$72, DW_AT_type(*$C$DW$T$81)
     456                      .dwattr $C$DW$72, DW_AT_location[DW_OP_bregx 0x24 18]
     457              $C$DW$73        .dwtag  DW_TAG_variable, DW_AT_name("ulBit0")
     458                      .dwattr $C$DW$73, DW_AT_TI_symbol_name("_ulBit0")
     459                      .dwattr $C$DW$73, DW_AT_type(*$C$DW$T$81)
     460                      .dwattr $C$DW$73, DW_AT_location[DW_OP_bregx 0x24 20]
     461              $C$DW$74        .dwtag  DW_TAG_variable, DW_AT_name("ulBit1")
     462                      .dwattr $C$DW$74, DW_AT_TI_symbol_name("_ulBit1")
     463                      .dwattr $C$DW$74, DW_AT_type(*$C$DW$T$81)
TMS320C55x Assembler PC v4.4.1 Sun Sep 09 02:20:41 2018

Tools Copyright (c) 1996-2012 Texas Instruments Incorporated
TaskNotify.asm                                                       PAGE   10

     464                      .dwattr $C$DW$74, DW_AT_location[DW_OP_bregx 0x24 22]
     465              $C$DW$75        .dwtag  DW_TAG_variable, DW_AT_name("xSingleTaskTimer")
     466                      .dwattr $C$DW$75, DW_AT_TI_symbol_name("_xSingleTaskTimer")
     467                      .dwattr $C$DW$75, DW_AT_type(*$C$DW$T$39)
     468                      .dwattr $C$DW$75, DW_AT_location[DW_OP_bregx 0x24 24]
     469                      .dwpsn  file "../FreeRTOS/Demo/Common/Minimal/TaskNotify.c",line 116,column 18,is_stmt
     470 000036 E600          MOV #34, *SP(#0) ; |116| 
         000038 22   
     471                      .dwpsn  file "../FreeRTOS/Demo/Common/Minimal/TaskNotify.c",line 120,column 16,is_stmt
     472 000039 EC31          AMOV #100001, XAR3 ; |120| 
         00003b BE01 
         00003d 86A1 
     473 00003f 90B0          MOV XAR3, AC0
     474 000041 EB1C          MOV AC0, dbl(*SP(#14)) ; |120| 
         000043 08   
     475                      .dwpsn  file "../FreeRTOS/Demo/Common/Minimal/TaskNotify.c",line 120,column 49,is_stmt
     476 000044 7615          MOV #5555, AC0 ; |120| 
         000046 B308 
     477 000048 EB20          MOV AC0, dbl(*SP(#16)) ; |120| 
         00004a 08   
     478                      .dwpsn  file "../FreeRTOS/Demo/Common/Minimal/TaskNotify.c",line 120,column 86,is_stmt
     479 00004b 3C50          MOV #5, AC0 ; |120| 
     480 00004d EB24          MOV AC0, dbl(*SP(#18)) ; |120| 
         00004f 08   
     481                      .dwpsn  file "../FreeRTOS/Demo/Common/Minimal/TaskNotify.c",line 121,column 16,is_stmt
     482 000050 3C10          MOV #1, AC0 ; |121| 
     483 000052 EB28          MOV AC0, dbl(*SP(#20)) ; |121| 
         000054 08   
     484                      .dwpsn  file "../FreeRTOS/Demo/Common/Minimal/TaskNotify.c",line 121,column 33,is_stmt
     485 000055 3C20          MOV #2, AC0 ; |121| 
     486 000057 EB2C          MOV AC0, dbl(*SP(#22)) ; |121| 
         000059 08   
     487                      .dwpsn  file "../FreeRTOS/Demo/Common/Minimal/TaskNotify.c",line 127,column 2,is_stmt
     488              $C$DW$76        .dwtag  DW_TAG_TI_branch
     489                      .dwattr $C$DW$76, DW_AT_low_pc(0x00)
     490                      .dwattr $C$DW$76, DW_AT_name("_xTaskGetTickCount")
     491                      .dwattr $C$DW$76, DW_AT_TI_call
     492 00005a 6C00          CALL #_xTaskGetTickCount ; |127| 
         00005c 0000!
     493                                                      ; call occurs [#_xTaskGetTickCount] ; |127| 
     494 00005e C418          MOV T0, *SP(#12) ; |127| 
     495                      .dwpsn  file "../FreeRTOS/Demo/Common/Minimal/TaskNotify.c",line 128,column 2,is_stmt
     496 000060 EC04          AMAR *SP(#2), XAR0
         000062 8E   
     497 000063 7AFF          MOV #-1 << #16, AC0 ; |128| 
         000065 FF0A 
     498 000067 A400          MOV *SP(#0), T0 ; |128| 
     499 000069 7EFF          OR #0xffff, AC0, AC0 ; |128| 
         00006b FF00 
     500              $C$DW$77        .dwtag  DW_TAG_TI_branch
     501                      .dwattr $C$DW$77, DW_AT_low_pc(0x00)
     502                      .dwattr $C$DW$77, DW_AT_name("_xTaskNotifyWait")
     503                      .dwattr $C$DW$77, DW_AT_TI_call
     504              
     505 00006d 6C00          CALL #_xTaskNotifyWait ; |128| 
TMS320C55x Assembler PC v4.4.1 Sun Sep 09 02:20:41 2018

Tools Copyright (c) 1996-2012 Texas Instruments Incorporated
TaskNotify.asm                                                       PAGE   11

         00006f 0000!
     506 000071 3D01  ||      MOV #0, AC1 ; |128| 
     507              
     508                                                      ; call occurs [#_xTaskNotifyWait] ; |128| 
     509 000073 C402          MOV T0, *SP(#1) ; |128| 
     510                      .dwpsn  file "../FreeRTOS/Demo/Common/Minimal/TaskNotify.c",line 129,column 2,is_stmt
     511                      .dwpsn  file "../FreeRTOS/Demo/Common/Minimal/TaskNotify.c",line 132,column 2,is_stmt
     512              $C$DW$78        .dwtag  DW_TAG_TI_branch
     513                      .dwattr $C$DW$78, DW_AT_low_pc(0x00)
     514                      .dwattr $C$DW$78, DW_AT_name("_xTaskGetTickCount")
     515                      .dwattr $C$DW$78, DW_AT_TI_call
     516 000075 6C00          CALL #_xTaskGetTickCount ; |132| 
         000077 0000!
     517                                                      ; call occurs [#_xTaskGetTickCount] ; |132| 
     518 000079 2240          MOV T0, AC0 ; |132| 
     519 00007b DF18          SUB uns(*SP(#12)), AC0, AC0 ; |132| 
         00007d 0F   
     520              
     521 000080 2309          MOV AC0, AR1 ; |132| 
     522 00007e AA00  ||      MOV *SP(#0), AR2 ; |132| 
     523              
     524 000082 1298          CMPU AR1 >= AR2, TC1 ; |132| 
         000084 A4   
     525 000085 6364          BCC $C$L1,TC1 ; |132| 
     526                                                      ; branchcc occurs ; |132| 
     527                      .dwpsn  file "../FreeRTOS/Demo/Common/Minimal/TaskNotify.c",line 134,column 3,is_stmt
     528 000087 E631          MOV #0, *(#_xErrorStatus) ; |134| 
         000089 0000 
         00008b 0000-
     529 00008d       $C$L1:    
     530                      .dwpsn  file "../FreeRTOS/Demo/Common/Minimal/TaskNotify.c",line 138,column 2,is_stmt
     531                      .dwpsn  file "../FreeRTOS/Demo/Common/Minimal/TaskNotify.c",line 139,column 2,is_stmt
     532                      .dwpsn  file "../FreeRTOS/Demo/Common/Minimal/TaskNotify.c",line 148,column 2,is_stmt
     533 00008d ED1C          MOV dbl(*SP(#14)), AC0 ; |148| 
         00008f 08   
     534 000090 EC10          AMAR *SP(#8), XAR1
         000092 9E   
     535 000093 ED31          MOV dbl(*(#_xTaskToNotify)), XAR0
         000095 8F00 
         000097 0004-
     536              $C$DW$79        .dwtag  DW_TAG_TI_branch
     537                      .dwattr $C$DW$79, DW_AT_low_pc(0x00)
     538                      .dwattr $C$DW$79, DW_AT_name("_xTaskGenericNotify")
     539                      .dwattr $C$DW$79, DW_AT_TI_call
     540              
     541 000099 6C00          CALL #_xTaskGenericNotify ; |148| 
         00009b 0000!
     542 00009d 3D44  ||      MOV #4, T0
     543              
     544                                                      ; call occurs [#_xTaskGenericNotify] ; |148| 
     545 00009f C402          MOV T0, *SP(#1) ; |148| 
     546                      .dwpsn  file "../FreeRTOS/Demo/Common/Minimal/TaskNotify.c",line 153,column 2,is_stmt
     547                      .dwpsn  file "../FreeRTOS/Demo/Common/Minimal/TaskNotify.c",line 157,column 2,is_stmt
     548                      .dwpsn  file "../FreeRTOS/Demo/Common/Minimal/TaskNotify.c",line 160,column 2,is_stmt
     549              $C$DW$80        .dwtag  DW_TAG_TI_branch
TMS320C55x Assembler PC v4.4.1 Sun Sep 09 02:20:41 2018

Tools Copyright (c) 1996-2012 Texas Instruments Incorporated
TaskNotify.asm                                                       PAGE   12

     550                      .dwattr $C$DW$80, DW_AT_low_pc(0x00)
     551                      .dwattr $C$DW$80, DW_AT_name("_xTaskGetTickCount")
     552                      .dwattr $C$DW$80, DW_AT_TI_call
     553 0000a1 6C00          CALL #_xTaskGetTickCount ; |160| 
         0000a3 0000!
     554                                                      ; call occurs [#_xTaskGetTickCount] ; |160| 
     555 0000a5 C418          MOV T0, *SP(#12) ; |160| 
     556                      .dwpsn  file "../FreeRTOS/Demo/Common/Minimal/TaskNotify.c",line 161,column 2,is_stmt
     557 0000a7 A400          MOV *SP(#0), T0 ; |161| 
     558 0000a9 EC04          AMAR *SP(#2), XAR0
         0000ab 8E   
     559 0000ac 7AFF          MOV #-1 << #16, AC0 ; |161| 
         0000ae FF0A 
     560 0000b0 7EFF          OR #0xffff, AC0, AC0 ; |161| 
         0000b2 FF00 
     561              $C$DW$81        .dwtag  DW_TAG_TI_branch
     562                      .dwattr $C$DW$81, DW_AT_low_pc(0x00)
     563                      .dwattr $C$DW$81, DW_AT_name("_xTaskNotifyWait")
     564                      .dwattr $C$DW$81, DW_AT_TI_call
     565              
     566 0000b4 6C00          CALL #_xTaskNotifyWait ; |161| 
         0000b6 0000!
     567 0000b8 3D01  ||      MOV #0, AC1 ; |161| 
     568              
     569                                                      ; call occurs [#_xTaskNotifyWait] ; |161| 
     570 0000ba C402          MOV T0, *SP(#1) ; |161| 
     571                      .dwpsn  file "../FreeRTOS/Demo/Common/Minimal/TaskNotify.c",line 163,column 2,is_stmt
     572              $C$DW$82        .dwtag  DW_TAG_TI_branch
     573                      .dwattr $C$DW$82, DW_AT_low_pc(0x00)
     574                      .dwattr $C$DW$82, DW_AT_name("_xTaskGetTickCount")
     575                      .dwattr $C$DW$82, DW_AT_TI_call
     576 0000bc 6C00          CALL #_xTaskGetTickCount ; |163| 
         0000be 0000!
     577                                                      ; call occurs [#_xTaskGetTickCount] ; |163| 
     578 0000c0 2240          MOV T0, AC0 ; |163| 
     579 0000c2 DF18          SUB uns(*SP(#12)), AC0, AC0 ; |163| 
         0000c4 0F   
     580              
     581 0000c7 2309          MOV AC0, AR1 ; |163| 
     582 0000c5 AA00  ||      MOV *SP(#0), AR2 ; |163| 
     583              
     584 0000c9 1294          CMPU AR1 < AR2, TC1 ; |163| 
         0000cb A4   
     585 0000cc 6364          BCC $C$L2,TC1 ; |163| 
     586                                                      ; branchcc occurs ; |163| 
     587                      .dwpsn  file "../FreeRTOS/Demo/Common/Minimal/TaskNotify.c",line 165,column 3,is_stmt
     588 0000ce E631          MOV #0, *(#_xErrorStatus) ; |165| 
         0000d0 0000 
         0000d2 0000-
     589 0000d4       $C$L2:    
     590                      .dwpsn  file "../FreeRTOS/Demo/Common/Minimal/TaskNotify.c",line 172,column 2,is_stmt
     591                      .dwpsn  file "../FreeRTOS/Demo/Common/Minimal/TaskNotify.c",line 173,column 2,is_stmt
     592                      .dwpsn  file "../FreeRTOS/Demo/Common/Minimal/TaskNotify.c",line 176,column 2,is_stmt
     593 0000d4 ED31          MOV dbl(*(#_ulNotifyCycleCount)), AC0 ; |176| 
         0000d6 0800 
TMS320C55x Assembler PC v4.4.1 Sun Sep 09 02:20:41 2018

Tools Copyright (c) 1996-2012 Texas Instruments Incorporated
TaskNotify.asm                                                       PAGE   13

         0000d8 0002-
     594 0000da 4010          ADD #1, AC0 ; |176| 
     595 0000dc EB31          MOV AC0, dbl(*(#_ulNotifyCycleCount)) ; |176| 
         0000de 0800 
         0000e0 0002-
     596                      .dwpsn  file "../FreeRTOS/Demo/Common/Minimal/TaskNotify.c",line 187,column 2,is_stmt
     597 0000e2 ED31          MOV dbl(*(#_xTaskToNotify)), XAR0
         0000e4 8F00 
         0000e6 0004-
     598 0000e8 EC31          AMOV #0, XAR1 ; |187| 
         0000ea 9E00 
         0000ec 0000 
     599 0000ee ED1C          MOV dbl(*SP(#14)), AC0 ; |187| 
         0000f0 08   
     600              $C$DW$83        .dwtag  DW_TAG_TI_branch
     601                      .dwattr $C$DW$83, DW_AT_low_pc(0x00)
     602                      .dwattr $C$DW$83, DW_AT_name("_xTaskGenericNotify")
     603                      .dwattr $C$DW$83, DW_AT_TI_call
     604              
     605 0000f1 6C00          CALL #_xTaskGenericNotify ; |187| 
         0000f3 0000!
     606 0000f5 3D44  ||      MOV #4, T0
     607              
     608                                                      ; call occurs [#_xTaskGenericNotify] ; |187| 
     609 0000f7 C402          MOV T0, *SP(#1) ; |187| 
     610                      .dwpsn  file "../FreeRTOS/Demo/Common/Minimal/TaskNotify.c",line 189,column 2,is_stmt
     611                      .dwpsn  file "../FreeRTOS/Demo/Common/Minimal/TaskNotify.c",line 191,column 2,is_stmt
     612 0000f9 EC31          AMOV #0, XAR1 ; |191| 
         0000fb 9E00 
         0000fd 0000 
     613 0000ff ED31          MOV dbl(*(#_xTaskToNotify)), XAR0
         000101 8F00 
         000103 0004-
     614 000105 ED20          MOV dbl(*SP(#16)), AC0 ; |191| 
         000107 08   
     615              $C$DW$84        .dwtag  DW_TAG_TI_branch
     616                      .dwattr $C$DW$84, DW_AT_low_pc(0x00)
     617                      .dwattr $C$DW$84, DW_AT_name("_xTaskGenericNotify")
     618                      .dwattr $C$DW$84, DW_AT_TI_call
     619              
     620 000108 6C00          CALL #_xTaskGenericNotify ; |191| 
         00010a 0000!
     621 00010c 3D44  ||      MOV #4, T0
     622              
     623                                                      ; call occurs [#_xTaskGenericNotify] ; |191| 
     624 00010e C402          MOV T0, *SP(#1) ; |191| 
     625                      .dwpsn  file "../FreeRTOS/Demo/Common/Minimal/TaskNotify.c",line 193,column 2,is_stmt
     626                      .dwpsn  file "../FreeRTOS/Demo/Common/Minimal/TaskNotify.c",line 197,column 2,is_stmt
     627 000110 EC04          AMAR *SP(#2), XAR0
         000112 8E   
     628 000113 7AFF          MOV #-1 << #16, AC0 ; |197| 
         000115 FF0A 
     629              
     630 000117 7EFF          OR #0xffff, AC0, AC0 ; |197| 
         000119 FF00 
TMS320C55x Assembler PC v4.4.1 Sun Sep 09 02:20:41 2018

Tools Copyright (c) 1996-2012 Texas Instruments Incorporated
TaskNotify.asm                                                       PAGE   14

     631 00011b 3D04  ||      MOV #0, T0
     632              
     633              $C$DW$85        .dwtag  DW_TAG_TI_branch
     634                      .dwattr $C$DW$85, DW_AT_low_pc(0x00)
     635                      .dwattr $C$DW$85, DW_AT_name("_xTaskNotifyWait")
     636                      .dwattr $C$DW$85, DW_AT_TI_call
     637              
     638 00011d 6C00          CALL #_xTaskNotifyWait ; |197| 
         00011f 0000!
     639 000121 3D01  ||      MOV #0, AC1 ; |197| 
     640              
     641                                                      ; call occurs [#_xTaskNotifyWait] ; |197| 
     642 000123 C402          MOV T0, *SP(#1) ; |197| 
     643                      .dwpsn  file "../FreeRTOS/Demo/Common/Minimal/TaskNotify.c",line 201,column 2,is_stmt
     644                      .dwpsn  file "../FreeRTOS/Demo/Common/Minimal/TaskNotify.c",line 202,column 2,is_stmt
     645                      .dwpsn  file "../FreeRTOS/Demo/Common/Minimal/TaskNotify.c",line 213,column 2,is_stmt
     646 000125 ED31          MOV dbl(*(#_xTaskToNotify)), XAR0
         000127 8F00 
         000129 0004-
     647 00012b EC31          AMOV #0, XAR1 ; |213| 
         00012d 9E00 
         00012f 0000 
     648 000131 ED1C          MOV dbl(*SP(#14)), AC0 ; |213| 
         000133 08   
     649              $C$DW$86        .dwtag  DW_TAG_TI_branch
     650                      .dwattr $C$DW$86, DW_AT_low_pc(0x00)
     651                      .dwattr $C$DW$86, DW_AT_name("_xTaskGenericNotify")
     652                      .dwattr $C$DW$86, DW_AT_TI_call
     653              
     654 000134 6C00          CALL #_xTaskGenericNotify ; |213| 
         000136 0000!
     655 000138 3D34  ||      MOV #3, T0
     656              
     657                                                      ; call occurs [#_xTaskGenericNotify] ; |213| 
     658 00013a C402          MOV T0, *SP(#1) ; |213| 
     659                      .dwpsn  file "../FreeRTOS/Demo/Common/Minimal/TaskNotify.c",line 215,column 2,is_stmt
     660                      .dwpsn  file "../FreeRTOS/Demo/Common/Minimal/TaskNotify.c",line 216,column 2,is_stmt
     661 00013c EC31          AMOV #0, XAR1 ; |216| 
         00013e 9E00 
         000140 0000 
     662 000142 ED31          MOV dbl(*(#_xTaskToNotify)), XAR0
         000144 8F00 
         000146 0004-
     663 000148 ED20          MOV dbl(*SP(#16)), AC0 ; |216| 
         00014a 08   
     664              $C$DW$87        .dwtag  DW_TAG_TI_branch
     665                      .dwattr $C$DW$87, DW_AT_low_pc(0x00)
     666                      .dwattr $C$DW$87, DW_AT_name("_xTaskGenericNotify")
     667                      .dwattr $C$DW$87, DW_AT_TI_call
     668              
     669 00014b 6C00          CALL #_xTaskGenericNotify ; |216| 
         00014d 0000!
     670 00014f 3D34  ||      MOV #3, T0
     671              
     672                                                      ; call occurs [#_xTaskGenericNotify] ; |216| 
TMS320C55x Assembler PC v4.4.1 Sun Sep 09 02:20:41 2018

Tools Copyright (c) 1996-2012 Texas Instruments Incorporated
TaskNotify.asm                                                       PAGE   15

     673 000151 C402          MOV T0, *SP(#1) ; |216| 
     674                      .dwpsn  file "../FreeRTOS/Demo/Common/Minimal/TaskNotify.c",line 218,column 2,is_stmt
     675                      .dwpsn  file "../FreeRTOS/Demo/Common/Minimal/TaskNotify.c",line 219,column 2,is_stmt
     676 000153 EC04          AMAR *SP(#2), XAR0
         000155 8E   
     677 000156 7AFF          MOV #-1 << #16, AC0 ; |219| 
         000158 FF0A 
     678              
     679 00015a 7EFF          OR #0xffff, AC0, AC0 ; |219| 
         00015c FF00 
     680 00015e 3D04  ||      MOV #0, T0
     681              
     682              $C$DW$88        .dwtag  DW_TAG_TI_branch
     683                      .dwattr $C$DW$88, DW_AT_low_pc(0x00)
     684                      .dwattr $C$DW$88, DW_AT_name("_xTaskNotifyWait")
     685                      .dwattr $C$DW$88, DW_AT_TI_call
     686              
     687 000160 6C00          CALL #_xTaskNotifyWait ; |219| 
         000162 0000!
     688 000164 3D01  ||      MOV #0, AC1 ; |219| 
     689              
     690                                                      ; call occurs [#_xTaskNotifyWait] ; |219| 
     691 000166 C402          MOV T0, *SP(#1) ; |219| 
     692                      .dwpsn  file "../FreeRTOS/Demo/Common/Minimal/TaskNotify.c",line 221,column 2,is_stmt
     693                      .dwpsn  file "../FreeRTOS/Demo/Common/Minimal/TaskNotify.c",line 223,column 2,is_stmt
     694                      .dwpsn  file "../FreeRTOS/Demo/Common/Minimal/TaskNotify.c",line 232,column 2,is_stmt
     695 000168 ED31          MOV dbl(*(#_xTaskToNotify)), XAR0
         00016a 8F00 
         00016c 0004-
     696 00016e EC31          AMOV #0, XAR1 ; |232| 
         000170 9E00 
         000172 0000 
     697 000174 ED1C          MOV dbl(*SP(#14)), AC0 ; |232| 
         000176 08   
     698              $C$DW$89        .dwtag  DW_TAG_TI_branch
     699                      .dwattr $C$DW$89, DW_AT_low_pc(0x00)
     700                      .dwattr $C$DW$89, DW_AT_name("_xTaskGenericNotify")
     701                      .dwattr $C$DW$89, DW_AT_TI_call
     702              
     703 000177 6C00          CALL #_xTaskGenericNotify ; |232| 
         000179 0000!
     704 00017b 3D04  ||      MOV #0, T0
     705              
     706                                                      ; call occurs [#_xTaskGenericNotify] ; |232| 
     707 00017d C402          MOV T0, *SP(#1) ; |232| 
     708                      .dwpsn  file "../FreeRTOS/Demo/Common/Minimal/TaskNotify.c",line 234,column 2,is_stmt
     709                      .dwpsn  file "../FreeRTOS/Demo/Common/Minimal/TaskNotify.c",line 235,column 2,is_stmt
     710 00017f EC04          AMAR *SP(#2), XAR0
         000181 8E   
     711 000182 7AFF          MOV #-1 << #16, AC0 ; |235| 
         000184 FF0A 
     712              
     713 000186 7EFF          OR #0xffff, AC0, AC0 ; |235| 
         000188 FF00 
     714 00018a 3D04  ||      MOV #0, T0
TMS320C55x Assembler PC v4.4.1 Sun Sep 09 02:20:41 2018

Tools Copyright (c) 1996-2012 Texas Instruments Incorporated
TaskNotify.asm                                                       PAGE   16

     715              
     716              $C$DW$90        .dwtag  DW_TAG_TI_branch
     717                      .dwattr $C$DW$90, DW_AT_low_pc(0x00)
     718                      .dwattr $C$DW$90, DW_AT_name("_xTaskNotifyWait")
     719                      .dwattr $C$DW$90, DW_AT_TI_call
     720              
     721 00018c 6C00          CALL #_xTaskNotifyWait ; |235| 
         00018e 0000!
     722 000190 3D01  ||      MOV #0, AC1 ; |235| 
     723              
     724                                                      ; call occurs [#_xTaskNotifyWait] ; |235| 
     725 000192 C402          MOV T0, *SP(#1) ; |235| 
     726                      .dwpsn  file "../FreeRTOS/Demo/Common/Minimal/TaskNotify.c",line 237,column 2,is_stmt
     727                      .dwpsn  file "../FreeRTOS/Demo/Common/Minimal/TaskNotify.c",line 246,column 7,is_stmt
     728 000194 3C00          MOV #0, AC0 ; |246| 
     729 000196 EB08          MOV AC0, dbl(*SP(#4)) ; |246| 
         000198 08   
     730                      .dwpsn  file "../FreeRTOS/Demo/Common/Minimal/TaskNotify.c",line 246,column 19,is_stmt
     731 000199 ED24          MOV dbl(*SP(#18)), AC0 ; |246| 
         00019b 08   
     732 00019c ED08          MOV dbl(*SP(#4)), AC1 ; |246| 
         00019e 18   
     733 00019f 1218          CMPU AC1 >= AC0, TC1 ; |246| 
         0001a1 04   
     734 0001a2 0464          BCC $C$L4,TC1 ; |246| 
         0001a4 2A   
     735                                                      ; branchcc occurs ; |246| 
     736 0001a5       $C$L3:    
     737 0001a5       $C$DW$L$_prvSingleTaskTests$6$B:
     738                      .dwpsn  file "../FreeRTOS/Demo/Common/Minimal/TaskNotify.c",line 248,column 3,is_stmt
     739 0001a5 ED31          MOV dbl(*(#_xTaskToNotify)), XAR0
         0001a7 8F00 
         0001a9 0004-
     740 0001ab EC31          AMOV #0, XAR1 ; |248| 
         0001ad 9E00 
         0001af 0000 
     741 0001b1 3C00          MOV #0, AC0 ; |248| 
     742              $C$DW$91        .dwtag  DW_TAG_TI_branch
     743                      .dwattr $C$DW$91, DW_AT_low_pc(0x00)
     744                      .dwattr $C$DW$91, DW_AT_name("_xTaskGenericNotify")
     745                      .dwattr $C$DW$91, DW_AT_TI_call
     746              
     747 0001b3 6C00          CALL #_xTaskGenericNotify ; |248| 
         0001b5 0000!
     748 0001b7 3D24  ||      MOV #2, T0
     749              
     750                                                      ; call occurs [#_xTaskGenericNotify] ; |248| 
     751 0001b9 C402          MOV T0, *SP(#1) ; |248| 
     752                      .dwpsn  file "../FreeRTOS/Demo/Common/Minimal/TaskNotify.c",line 250,column 3,is_stmt
     753                      .dwpsn  file "../FreeRTOS/Demo/Common/Minimal/TaskNotify.c",line 246,column 40,is_stmt
     754 0001bb ED08          MOV dbl(*SP(#4)), AC0 ; |246| 
         0001bd 08   
     755 0001be 4010          ADD #1, AC0 ; |246| 
     756 0001c0 EB08          MOV AC0, dbl(*SP(#4)) ; |246| 
         0001c2 08   
TMS320C55x Assembler PC v4.4.1 Sun Sep 09 02:20:41 2018

Tools Copyright (c) 1996-2012 Texas Instruments Incorporated
TaskNotify.asm                                                       PAGE   17

     757                      .dwpsn  file "../FreeRTOS/Demo/Common/Minimal/TaskNotify.c",line 246,column 19,is_stmt
     758 0001c3 ED24          MOV dbl(*SP(#18)), AC0 ; |246| 
         0001c5 08   
     759 0001c6 ED08          MOV dbl(*SP(#4)), AC1 ; |246| 
         0001c8 18   
     760 0001c9 1214          CMPU AC1 < AC0, TC1 ; |246| 
         0001cb 04   
     761 0001cc 0464          BCC $C$L3,TC1 ; |246| 
         0001ce D6   
     762                                                      ; branchcc occurs ; |246| 
     763 0001cf       $C$DW$L$_prvSingleTaskTests$6$E:
     764 0001cf       $C$L4:    
     765                      .dwpsn  file "../FreeRTOS/Demo/Common/Minimal/TaskNotify.c",line 253,column 2,is_stmt
     766 0001cf 7AFF          MOV #-1 << #16, AC0 ; |253| 
         0001d1 FF0A 
     767 0001d3 EC04          AMAR *SP(#2), XAR0
         0001d5 8E   
     768              
     769 0001d6 7EFF          OR #0xffff, AC0, AC0 ; |253| 
         0001d8 FF00 
     770 0001da 3D01  ||      MOV #0, AC1 ; |253| 
     771              
     772              $C$DW$92        .dwtag  DW_TAG_TI_branch
     773                      .dwattr $C$DW$92, DW_AT_low_pc(0x00)
     774                      .dwattr $C$DW$92, DW_AT_name("_xTaskNotifyWait")
     775                      .dwattr $C$DW$92, DW_AT_TI_call
     776              
     777 0001dc 6C00          CALL #_xTaskNotifyWait ; |253| 
         0001de 0000!
     778 0001e0 3D04  ||      MOV #0, T0
     779              
     780                                                      ; call occurs [#_xTaskNotifyWait] ; |253| 
     781 0001e2 C402          MOV T0, *SP(#1) ; |253| 
     782                      .dwpsn  file "../FreeRTOS/Demo/Common/Minimal/TaskNotify.c",line 256,column 2,is_stmt
     783                      .dwpsn  file "../FreeRTOS/Demo/Common/Minimal/TaskNotify.c",line 257,column 2,is_stmt
     784                      .dwpsn  file "../FreeRTOS/Demo/Common/Minimal/TaskNotify.c",line 260,column 2,is_stmt
     785 0001e4 3C04          MOV #0, T0
     786              
     787 0001e9 3D01          MOV #0, AC1 ; |260| 
     788 0001e6 EC04  ||      AMAR *SP(#2), XAR0
         0001e8 8E   
     789              
     790              $C$DW$93        .dwtag  DW_TAG_TI_branch
     791                      .dwattr $C$DW$93, DW_AT_low_pc(0x00)
     792                      .dwattr $C$DW$93, DW_AT_name("_xTaskNotifyWait")
     793                      .dwattr $C$DW$93, DW_AT_TI_call
     794              
     795 0001eb 6C00          CALL #_xTaskNotifyWait ; |260| 
         0001ed 0000!
     796 0001ef 3D00  ||      MOV #0, AC0 ; |260| 
     797              
     798                                                      ; call occurs [#_xTaskNotifyWait] ; |260| 
     799 0001f1 C402          MOV T0, *SP(#1) ; |260| 
     800                      .dwpsn  file "../FreeRTOS/Demo/Common/Minimal/TaskNotify.c",line 262,column 2,is_stmt
     801                      .dwpsn  file "../FreeRTOS/Demo/Common/Minimal/TaskNotify.c",line 263,column 2,is_stmt
TMS320C55x Assembler PC v4.4.1 Sun Sep 09 02:20:41 2018

Tools Copyright (c) 1996-2012 Texas Instruments Incorporated
TaskNotify.asm                                                       PAGE   18

     802                      .dwpsn  file "../FreeRTOS/Demo/Common/Minimal/TaskNotify.c",line 273,column 2,is_stmt
     803 0001f3 3C10          MOV #1, AC0 ; |273| 
     804 0001f5 EB0C          MOV AC0, dbl(*SP(#6)) ; |273| 
         0001f7 08   
     805                      .dwpsn  file "../FreeRTOS/Demo/Common/Minimal/TaskNotify.c",line 274,column 2,is_stmt
     806 0001f8 3C00          MOV #0, AC0 ; |274| 
     807 0001fa EB08          MOV AC0, dbl(*SP(#4)) ; |274| 
         0001fc 08   
     808                      .dwpsn  file "../FreeRTOS/Demo/Common/Minimal/TaskNotify.c",line 277,column 2,is_stmt
     809 0001fd 7AFF          MOV #-1 << #16, AC0 ; |277| 
         0001ff FF0A 
     810 000201 EC04          AMAR *SP(#2), XAR0
         000203 8E   
     811              
     812 000204 7EFF          OR #0xffff, AC0, AC0 ; |277| 
         000206 FF00 
     813 000208 3D04  ||      MOV #0, T0
     814              
     815              $C$DW$94        .dwtag  DW_TAG_TI_branch
     816                      .dwattr $C$DW$94, DW_AT_low_pc(0x00)
     817                      .dwattr $C$DW$94, DW_AT_name("_xTaskNotifyWait")
     818                      .dwattr $C$DW$94, DW_AT_TI_call
     819              
     820 00020a 6C00          CALL #_xTaskNotifyWait ; |277| 
         00020c 0000!
     821 00020e 3D01  ||      MOV #0, AC1 ; |277| 
     822              
     823                                                      ; call occurs [#_xTaskNotifyWait] ; |277| 
     824 000210       $C$L5:    
     825 000210       $C$DW$L$_prvSingleTaskTests$8$B:
     826                      .dwpsn  file "../FreeRTOS/Demo/Common/Minimal/TaskNotify.c",line 282,column 3,is_stmt
     827 000210 ED0C          MOV dbl(*SP(#6)), AC0 ; |282| 
         000212 08   
     828 000213 ED31          MOV dbl(*(#_xTaskToNotify)), XAR0
         000215 8F00 
         000217 0004-
     829 000219 EC31          AMOV #0, XAR1 ; |282| 
         00021b 9E00 
         00021d 0000 
     830              $C$DW$95        .dwtag  DW_TAG_TI_branch
     831                      .dwattr $C$DW$95, DW_AT_low_pc(0x00)
     832                      .dwattr $C$DW$95, DW_AT_name("_xTaskGenericNotify")
     833                      .dwattr $C$DW$95, DW_AT_TI_call
     834              
     835 00021f 6C00          CALL #_xTaskGenericNotify ; |282| 
         000221 0000!
     836 000223 3D14  ||      MOV #1, T0
     837              
     838                                                      ; call occurs [#_xTaskGenericNotify] ; |282| 
     839                      .dwpsn  file "../FreeRTOS/Demo/Common/Minimal/TaskNotify.c",line 287,column 3,is_stmt
     840 000225 3C01          MOV #0, AC1 ; |287| 
     841              
     842 000227 EC04          AMAR *SP(#2), XAR0
         000229 8E   
     843 00022a 3D04  ||      MOV #0, T0
TMS320C55x Assembler PC v4.4.1 Sun Sep 09 02:20:41 2018

Tools Copyright (c) 1996-2012 Texas Instruments Incorporated
TaskNotify.asm                                                       PAGE   19

     844              
     845              $C$DW$96        .dwtag  DW_TAG_TI_branch
     846                      .dwattr $C$DW$96, DW_AT_low_pc(0x00)
     847                      .dwattr $C$DW$96, DW_AT_name("_xTaskNotifyWait")
     848                      .dwattr $C$DW$96, DW_AT_TI_call
     849              
     850 00022c 6C00          CALL #_xTaskNotifyWait ; |287| 
         00022e 0000!
     851 000230 3D00  ||      MOV #0, AC0 ; |287| 
     852              
     853                                                      ; call occurs [#_xTaskNotifyWait] ; |287| 
     854 000232 C402          MOV T0, *SP(#1) ; |287| 
     855                      .dwpsn  file "../FreeRTOS/Demo/Common/Minimal/TaskNotify.c",line 289,column 3,is_stmt
     856                      .dwpsn  file "../FreeRTOS/Demo/Common/Minimal/TaskNotify.c",line 291,column 3,is_stmt
     857 000234 ED08          MOV dbl(*SP(#4)), AC0 ; |291| 
         000236 08   
     858 000237 4010          ADD #1, AC0 ; |291| 
     859 000239 EB08          MOV AC0, dbl(*SP(#4)) ; |291| 
         00023b 08   
     860                      .dwpsn  file "../FreeRTOS/Demo/Common/Minimal/TaskNotify.c",line 294,column 3,is_stmt
     861 00023c ED0C          MOV dbl(*SP(#6)), AC0 ; |294| 
         00023e 08   
     862 00023f 5000          SFTL AC0, #1 ; |294| 
     863 000241 EB0C          MOV AC0, dbl(*SP(#6)) ; |294| 
         000243 08   
     864                      .dwpsn  file "../FreeRTOS/Demo/Common/Minimal/TaskNotify.c",line 296,column 12,is_stmt
     865 000244 7AFF          MOV #-1 << #16, AC0 ; |296| 
         000246 FF0A 
     866 000248 7EFF          OR #0xffff, AC0, AC0 ; |296| 
         00024a FF00 
     867 00024c ED04          MOV dbl(*SP(#2)), AC1 ; |296| 
         00024e 18   
     868 00024f 121C          CMPU AC1 != AC0, TC1 ; |296| 
         000251 04   
     869 000252 0464          BCC $C$L5,TC1 ; |296| 
         000254 BB   
     870                                                      ; branchcc occurs ; |296| 
     871 000255       $C$DW$L$_prvSingleTaskTests$8$E:
     872                      .dwpsn  file "../FreeRTOS/Demo/Common/Minimal/TaskNotify.c",line 312,column 2,is_stmt
     873 000255 ED28          MOV dbl(*SP(#20)), AC0 ; |312| 
         000257 08   
     874 000258 ED2C          MOV dbl(*SP(#22)), AC1 ; |312| 
         00025a 18   
     875 00025b EC04          AMAR *SP(#2), XAR0
         00025d 8E   
     876 00025e A400          MOV *SP(#0), T0 ; |312| 
     877              $C$DW$97        .dwtag  DW_TAG_TI_branch
     878                      .dwattr $C$DW$97, DW_AT_low_pc(0x00)
     879                      .dwattr $C$DW$97, DW_AT_name("_xTaskNotifyWait")
     880                      .dwattr $C$DW$97, DW_AT_TI_call
     881 000260 6C00          CALL #_xTaskNotifyWait ; |312| 
         000262 0000!
     882                                                      ; call occurs [#_xTaskNotifyWait] ; |312| 
     883 000264 C402          MOV T0, *SP(#1) ; |312| 
     884                      .dwpsn  file "../FreeRTOS/Demo/Common/Minimal/TaskNotify.c",line 314,column 2,is_stmt
TMS320C55x Assembler PC v4.4.1 Sun Sep 09 02:20:41 2018

Tools Copyright (c) 1996-2012 Texas Instruments Incorporated
TaskNotify.asm                                                       PAGE   20

     885                      .dwpsn  file "../FreeRTOS/Demo/Common/Minimal/TaskNotify.c",line 318,column 2,is_stmt
     886 000266 EC31          AMOV #0, XAR1 ; |318| 
         000268 9E00 
         00026a 0000 
     887 00026c ED31          MOV dbl(*(#_xTaskToNotify)), XAR0
         00026e 8F00 
         000270 0004-
     888 000272 7AFF          MOV #-1 << #16, AC0 ; |318| 
         000274 FF0A 
     889 000276 7EFF          OR #0xffff, AC0, AC0 ; |318| 
         000278 FF00 
     890              $C$DW$98        .dwtag  DW_TAG_TI_branch
     891                      .dwattr $C$DW$98, DW_AT_low_pc(0x00)
     892                      .dwattr $C$DW$98, DW_AT_name("_xTaskGenericNotify")
     893                      .dwattr $C$DW$98, DW_AT_TI_call
     894              
     895 00027a 6C00          CALL #_xTaskGenericNotify ; |318| 
         00027c 0000!
     896 00027e 3D04  ||      MOV #0, T0
     897              
     898                                                      ; call occurs [#_xTaskGenericNotify] ; |318| 
     899                      .dwpsn  file "../FreeRTOS/Demo/Common/Minimal/TaskNotify.c",line 323,column 2,is_stmt
     900 000280 3C04          MOV #0, T0
     901              
     902 000285 3D00          MOV #0, AC0 ; |323| 
     903 000282 EC04  ||      AMAR *SP(#2), XAR0
         000284 8E   
     904              
     905              $C$DW$99        .dwtag  DW_TAG_TI_branch
     906                      .dwattr $C$DW$99, DW_AT_low_pc(0x00)
     907                      .dwattr $C$DW$99, DW_AT_name("_xTaskNotifyWait")
     908                      .dwattr $C$DW$99, DW_AT_TI_call
     909              
     910 000287 6C00          CALL #_xTaskNotifyWait ; |323| 
         000289 0000!
     911 00028b 3D01  ||      MOV #0, AC1 ; |323| 
     912              
     913                                                      ; call occurs [#_xTaskNotifyWait] ; |323| 
     914 00028d C402          MOV T0, *SP(#1) ; |323| 
     915                      .dwpsn  file "../FreeRTOS/Demo/Common/Minimal/TaskNotify.c",line 326,column 2,is_stmt
     916                      .dwpsn  file "../FreeRTOS/Demo/Common/Minimal/TaskNotify.c",line 335,column 2,is_stmt
     917 00028f 3C04          MOV #0, T0
     918 000291 ED31          MOV dbl(*(#_xTaskToNotify)), XAR0
         000293 8F00 
         000295 0004-
     919 000297 EC31          AMOV #0, XAR1 ; |335| 
         000299 9E00 
         00029b 0000 
     920              $C$DW$100       .dwtag  DW_TAG_TI_branch
     921                      .dwattr $C$DW$100, DW_AT_low_pc(0x00)
     922                      .dwattr $C$DW$100, DW_AT_name("_xTaskGenericNotify")
     923                      .dwattr $C$DW$100, DW_AT_TI_call
     924              
     925 00029d 6C00          CALL #_xTaskGenericNotify ; |335| 
         00029f 0000!
TMS320C55x Assembler PC v4.4.1 Sun Sep 09 02:20:41 2018

Tools Copyright (c) 1996-2012 Texas Instruments Incorporated
TaskNotify.asm                                                       PAGE   21

     926 0002a1 3D00  ||      MOV #0, AC0 ; |335| 
     927              
     928                                                      ; call occurs [#_xTaskGenericNotify] ; |335| 
     929                      .dwpsn  file "../FreeRTOS/Demo/Common/Minimal/TaskNotify.c",line 336,column 2,is_stmt
     930 0002a3 EC04          AMAR *SP(#2), XAR0
         0002a5 8E   
     931              
     932 0002a6 ED2C          MOV dbl(*SP(#22)), AC1 ; |336| 
         0002a8 18   
     933 0002a9 3D04  ||      MOV #0, T0
     934              
     935              $C$DW$101       .dwtag  DW_TAG_TI_branch
     936                      .dwattr $C$DW$101, DW_AT_low_pc(0x00)
     937                      .dwattr $C$DW$101, DW_AT_name("_xTaskNotifyWait")
     938                      .dwattr $C$DW$101, DW_AT_TI_call
     939              
     940 0002ab 6C00          CALL #_xTaskNotifyWait ; |336| 
         0002ad 0000!
     941 0002af 3D00  ||      MOV #0, AC0 ; |336| 
     942              
     943                                                      ; call occurs [#_xTaskNotifyWait] ; |336| 
     944                      .dwpsn  file "../FreeRTOS/Demo/Common/Minimal/TaskNotify.c",line 346,column 2,is_stmt
     945 0002b1 3C04          MOV #0, T0
     946              
     947 0002b6 3D00          MOV #0, AC0 ; |346| 
     948 0002b3 EC04  ||      AMAR *SP(#2), XAR0
         0002b5 8E   
     949              
     950              $C$DW$102       .dwtag  DW_TAG_TI_branch
     951                      .dwattr $C$DW$102, DW_AT_low_pc(0x00)
     952                      .dwattr $C$DW$102, DW_AT_name("_xTaskNotifyWait")
     953                      .dwattr $C$DW$102, DW_AT_TI_call
     954              
     955 0002b8 6C00          CALL #_xTaskNotifyWait ; |346| 
         0002ba 0000!
     956 0002bc 3D01  ||      MOV #0, AC1 ; |346| 
     957              
     958                                                      ; call occurs [#_xTaskNotifyWait] ; |346| 
     959 0002be C402          MOV T0, *SP(#1) ; |346| 
     960                      .dwpsn  file "../FreeRTOS/Demo/Common/Minimal/TaskNotify.c",line 349,column 2,is_stmt
     961                      .dwpsn  file "../FreeRTOS/Demo/Common/Minimal/TaskNotify.c",line 356,column 2,is_stmt
     962 0002c0 ED31          MOV dbl(*(#_xTaskToNotify)), XAR0
         0002c2 8F00 
         0002c4 0004-
     963              
     964 0002c6 EC10          AMAR *SP(#8), XAR1
         0002c8 9E   
     965 0002c9 3D14  ||      MOV #1, T0
     966              
     967              $C$DW$103       .dwtag  DW_TAG_TI_branch
     968                      .dwattr $C$DW$103, DW_AT_low_pc(0x00)
     969                      .dwattr $C$DW$103, DW_AT_name("_xTaskGenericNotify")
     970                      .dwattr $C$DW$103, DW_AT_TI_call
     971              
     972 0002cb 6C00          CALL #_xTaskGenericNotify ; |356| 
TMS320C55x Assembler PC v4.4.1 Sun Sep 09 02:20:41 2018

Tools Copyright (c) 1996-2012 Texas Instruments Incorporated
TaskNotify.asm                                                       PAGE   22

         0002cd 0000!
     973 0002cf 3D00  ||      MOV #0, AC0 ; |356| 
     974              
     975                                                      ; call occurs [#_xTaskGenericNotify] ; |356| 
     976                      .dwpsn  file "../FreeRTOS/Demo/Common/Minimal/TaskNotify.c",line 360,column 2,is_stmt
     977 0002d1 EC04          AMAR *SP(#2), XAR0
         0002d3 8E   
     978 0002d4 7AFF          MOV #-1 << #16, AC1 ; |360| 
         0002d6 FF1A 
     979              
     980 0002d8 7EFF          OR #0xffff, AC1, AC1 ; |360| 
         0002da FF11 
     981 0002dc 3D04  ||      MOV #0, T0
     982              
     983              $C$DW$104       .dwtag  DW_TAG_TI_branch
     984                      .dwattr $C$DW$104, DW_AT_low_pc(0x00)
     985                      .dwattr $C$DW$104, DW_AT_name("_xTaskNotifyWait")
     986                      .dwattr $C$DW$104, DW_AT_TI_call
     987              
     988 0002de 6C00          CALL #_xTaskNotifyWait ; |360| 
         0002e0 0000!
     989 0002e2 3D00  ||      MOV #0, AC0 ; |360| 
     990              
     991                                                      ; call occurs [#_xTaskNotifyWait] ; |360| 
     992                      .dwpsn  file "../FreeRTOS/Demo/Common/Minimal/TaskNotify.c",line 361,column 2,is_stmt
     993 0002e4 ED31          MOV dbl(*(#_xTaskToNotify)), XAR0
         0002e6 8F00 
         0002e8 0004-
     994              
     995 0002ea EC10          AMAR *SP(#8), XAR1
         0002ec 9E   
     996 0002ed 3D14  ||      MOV #1, T0
     997              
     998              $C$DW$105       .dwtag  DW_TAG_TI_branch
     999                      .dwattr $C$DW$105, DW_AT_low_pc(0x00)
    1000                      .dwattr $C$DW$105, DW_AT_name("_xTaskGenericNotify")
    1001                      .dwattr $C$DW$105, DW_AT_TI_call
    1002              
    1003 0002ef 6C00          CALL #_xTaskGenericNotify ; |361| 
         0002f1 0000!
    1004 0002f3 3D00  ||      MOV #0, AC0 ; |361| 
    1005              
    1006                                                      ; call occurs [#_xTaskGenericNotify] ; |361| 
    1007                      .dwpsn  file "../FreeRTOS/Demo/Common/Minimal/TaskNotify.c",line 364,column 2,is_stmt
    1008 0002f5 3C00          MOV #0, AC0 ; |364| 
    1009 0002f7 EB14          MOV AC0, dbl(*SP(#10)) ; |364| 
         0002f9 08   
    1010                      .dwpsn  file "../FreeRTOS/Demo/Common/Minimal/TaskNotify.c",line 365,column 7,is_stmt
    1011 0002fa 3C10          MOV #1, AC0 ; |365| 
    1012 0002fc EB08          MOV AC0, dbl(*SP(#4)) ; |365| 
         0002fe 08   
    1013                      .dwpsn  file "../FreeRTOS/Demo/Common/Minimal/TaskNotify.c",line 365,column 22,is_stmt
    1014 0002ff 7600          MOV #128, AC0 ; |365| 
         000301 8008 
    1015 000303 ED08          MOV dbl(*SP(#4)), AC1 ; |365| 
TMS320C55x Assembler PC v4.4.1 Sun Sep 09 02:20:41 2018

Tools Copyright (c) 1996-2012 Texas Instruments Incorporated
TaskNotify.asm                                                       PAGE   23

         000305 18   
    1016 000306 1218          CMPU AC1 >= AC0, TC1 ; |365| 
         000308 04   
    1017 000309 0464          BCC $C$L7,TC1 ; |365| 
         00030b 32   
    1018                                                      ; branchcc occurs ; |365| 
    1019 00030c       $C$L6:    
    1020 00030c       $C$DW$L$_prvSingleTaskTests$10$B:
    1021                      .dwpsn  file "../FreeRTOS/Demo/Common/Minimal/TaskNotify.c",line 370,column 3,is_stmt
    1022 00030c ED08          MOV dbl(*SP(#4)), AC0 ; |370| 
         00030e 08   
    1023 00030f EC10          AMAR *SP(#8), XAR1
         000311 9E   
    1024 000312 ED31          MOV dbl(*(#_xTaskToNotify)), XAR0
         000314 8F00 
         000316 0004-
    1025              $C$DW$106       .dwtag  DW_TAG_TI_branch
    1026                      .dwattr $C$DW$106, DW_AT_low_pc(0x00)
    1027                      .dwattr $C$DW$106, DW_AT_name("_xTaskGenericNotify")
    1028                      .dwattr $C$DW$106, DW_AT_TI_call
    1029              
    1030 000318 6C00          CALL #_xTaskGenericNotify ; |370| 
         00031a 0000!
    1031 00031c 3D14  ||      MOV #1, T0
    1032              
    1033                                                      ; call occurs [#_xTaskGenericNotify] ; |370| 
    1034                      .dwpsn  file "../FreeRTOS/Demo/Common/Minimal/TaskNotify.c",line 372,column 3,is_stmt
    1035 00031e ED14          MOV dbl(*SP(#10)), AC1 ; |372| 
         000320 18   
    1036 000321 ED08          MOV dbl(*SP(#4)), AC0 ; |372| 
         000323 08   
    1037 000324 2A10          OR AC1, AC0 ; |372| 
    1038 000326 EB14          MOV AC0, dbl(*SP(#10)) ; |372| 
         000328 08   
    1039                      .dwpsn  file "../FreeRTOS/Demo/Common/Minimal/TaskNotify.c",line 365,column 39,is_stmt
    1040 000329 ED08          MOV dbl(*SP(#4)), AC0 ; |365| 
         00032b 08   
    1041 00032c 5000          SFTL AC0, #1 ; |365| 
    1042 00032e EB08          MOV AC0, dbl(*SP(#4)) ; |365| 
         000330 08   
    1043                      .dwpsn  file "../FreeRTOS/Demo/Common/Minimal/TaskNotify.c",line 365,column 22,is_stmt
    1044 000331 7600          MOV #128, AC0 ; |365| 
         000333 8008 
    1045 000335 ED08          MOV dbl(*SP(#4)), AC1 ; |365| 
         000337 18   
    1046 000338 1214          CMPU AC1 < AC0, TC1 ; |365| 
         00033a 04   
    1047 00033b 0464          BCC $C$L6,TC1 ; |365| 
         00033d CE   
    1048                                                      ; branchcc occurs ; |365| 
    1049 00033e       $C$DW$L$_prvSingleTaskTests$10$E:
    1050 00033e       $C$L7:    
    1051                      .dwpsn  file "../FreeRTOS/Demo/Common/Minimal/TaskNotify.c",line 379,column 2,is_stmt
    1052 00033e 7AFF          MOV #-1 << #16, AC0 ; |379| 
         000340 FF0A 
TMS320C55x Assembler PC v4.4.1 Sun Sep 09 02:20:41 2018

Tools Copyright (c) 1996-2012 Texas Instruments Incorporated
TaskNotify.asm                                                       PAGE   24

    1053 000342 EC04          AMAR *SP(#2), XAR0
         000344 8E   
    1054              
    1055 000345 7EFF          OR #0xffff, AC0, AC0 ; |379| 
         000347 FF00 
    1056 000349 3D01  ||      MOV #0, AC1 ; |379| 
    1057              
    1058              $C$DW$107       .dwtag  DW_TAG_TI_branch
    1059                      .dwattr $C$DW$107, DW_AT_low_pc(0x00)
    1060                      .dwattr $C$DW$107, DW_AT_name("_xTaskNotifyWait")
    1061                      .dwattr $C$DW$107, DW_AT_TI_call
    1062              
    1063 00034b 6C00          CALL #_xTaskNotifyWait ; |379| 
         00034d 0000!
    1064 00034f 3D04  ||      MOV #0, T0
    1065              
    1066                                                      ; call occurs [#_xTaskNotifyWait] ; |379| 
    1067                      .dwpsn  file "../FreeRTOS/Demo/Common/Minimal/TaskNotify.c",line 387,column 2,is_stmt
    1068 000351 EC10          AMAR *SP(#8), XAR1
         000353 9E   
    1069 000354 ED31          MOV dbl(*(#_xTaskToNotify)), XAR0
         000356 8F00 
         000358 0004-
    1070 00035a ED1C          MOV dbl(*SP(#14)), AC0 ; |387| 
         00035c 08   
    1071              $C$DW$108       .dwtag  DW_TAG_TI_branch
    1072                      .dwattr $C$DW$108, DW_AT_low_pc(0x00)
    1073                      .dwattr $C$DW$108, DW_AT_name("_xTaskGenericNotify")
    1074                      .dwattr $C$DW$108, DW_AT_TI_call
    1075              
    1076 00035d 6C00          CALL #_xTaskGenericNotify ; |387| 
         00035f 0000!
    1077 000361 3D44  ||      MOV #4, T0
    1078              
    1079                                                      ; call occurs [#_xTaskGenericNotify] ; |387| 
    1080                      .dwpsn  file "../FreeRTOS/Demo/Common/Minimal/TaskNotify.c",line 398,column 2,is_stmt
    1081 000363 7600          MOV #50, T0 ; |398| 
         000365 3248 
    1082 000367 EC31          AMOV #0, XAR1 ; |398| 
         000369 9E00 
         00036b 0000 
    1083 00036d 7A00          MOV #(_prvSuspendedTaskTimerTestCallback >> 16) << #16, AC0 ; |398| 
         00036f 000A%
    1084 000371 EC31          AMOV #$C$FSL2, XAR0 ; |398| 
         000373 8E00 
         000375 000A+
    1085 000377 7E00          OR #(_prvSuspendedTaskTimerTestCallback & 0xffff), AC0, AC0 ; |398| 
         000379 0000%
    1086              $C$DW$109       .dwtag  DW_TAG_TI_branch
    1087                      .dwattr $C$DW$109, DW_AT_low_pc(0x00)
    1088                      .dwattr $C$DW$109, DW_AT_name("_xTimerCreate")
    1089                      .dwattr $C$DW$109, DW_AT_TI_call
    1090              
    1091 00037b 6C00          CALL #_xTimerCreate ; |398| 
         00037d 0000!
TMS320C55x Assembler PC v4.4.1 Sun Sep 09 02:20:41 2018

Tools Copyright (c) 1996-2012 Texas Instruments Incorporated
TaskNotify.asm                                                       PAGE   25

    1092 00037f 3D05  ||      MOV #0, T1
    1093              
    1094                                                      ; call occurs [#_xTimerCreate] ; |398| 
    1095 000381 EB30          MOV XAR0, dbl(*SP(#24))
         000383 85   
    1096                      .dwpsn  file "../FreeRTOS/Demo/Common/Minimal/TaskNotify.c",line 402,column 2,is_stmt
    1097 000384 ED31          MOV dbl(*(#_ulNotifyCycleCount)), AC0 ; |402| 
         000386 0800 
         000388 0002-
    1098 00038a 4010          ADD #1, AC0 ; |402| 
    1099 00038c EB31          MOV AC0, dbl(*(#_ulNotifyCycleCount)) ; |402| 
         00038e 0800 
         000390 0002-
    1100                      .dwpsn  file "../FreeRTOS/Demo/Common/Minimal/TaskNotify.c",line 405,column 2,is_stmt
    1101 000392 7AFF          MOV #-1 << #16, AC0 ; |405| 
         000394 FF0A 
    1102              
    1103 000396 7EFF          OR #0xffff, AC0, AC0 ; |405| 
         000398 FF00 
    1104 00039a 3D04  ||      MOV #0, T0
    1105              
    1106 00039c EC31          AMOV #0, XAR0 ; |405| 
         00039e 8E00 
         0003a0 0000 
    1107              $C$DW$110       .dwtag  DW_TAG_TI_branch
    1108                      .dwattr $C$DW$110, DW_AT_low_pc(0x00)
    1109                      .dwattr $C$DW$110, DW_AT_name("_xTaskNotifyWait")
    1110                      .dwattr $C$DW$110, DW_AT_TI_call
    1111              
    1112 0003a2 6C00          CALL #_xTaskNotifyWait ; |405| 
         0003a4 0000!
    1113 0003a6 3D01  ||      MOV #0, AC1 ; |405| 
    1114              
    1115                                                      ; call occurs [#_xTaskNotifyWait] ; |405| 
    1116                      .dwpsn  file "../FreeRTOS/Demo/Common/Minimal/TaskNotify.c",line 409,column 2,is_stmt
    1117 0003a8 EC31          AMOV #0, XAR0 ; |409| 
         0003aa 8E00 
         0003ac 0000 
    1118              $C$DW$111       .dwtag  DW_TAG_TI_branch
    1119                      .dwattr $C$DW$111, DW_AT_low_pc(0x00)
    1120                      .dwattr $C$DW$111, DW_AT_name("_vTaskPrioritySet")
    1121                      .dwattr $C$DW$111, DW_AT_TI_call
    1122              
    1123 0003ae 6C00          CALL #_vTaskPrioritySet ; |409| 
         0003b0 0000!
    1124 0003b2 3D34  ||      MOV #3, T0
    1125              
    1126                                                      ; call occurs [#_vTaskPrioritySet] ; |409| 
    1127                      .dwpsn  file "../FreeRTOS/Demo/Common/Minimal/TaskNotify.c",line 415,column 2,is_stmt
    1128 0003b4 3C00          MOV #0, AC0 ; |415| 
    1129 0003b6 EB04          MOV AC0, dbl(*SP(#2)) ; |415| 
         0003b8 08   
    1130                      .dwpsn  file "../FreeRTOS/Demo/Common/Minimal/TaskNotify.c",line 416,column 2,is_stmt
    1131              $C$DW$112       .dwtag  DW_TAG_TI_branch
    1132                      .dwattr $C$DW$112, DW_AT_low_pc(0x00)
TMS320C55x Assembler PC v4.4.1 Sun Sep 09 02:20:41 2018

Tools Copyright (c) 1996-2012 Texas Instruments Incorporated
TaskNotify.asm                                                       PAGE   26

    1133                      .dwattr $C$DW$112, DW_AT_name("_xTaskGetTickCount")
    1134                      .dwattr $C$DW$112, DW_AT_TI_call
    1135 0003b9 6C00          CALL #_xTaskGetTickCount ; |416| 
         0003bb 0000!
    1136                                                      ; call occurs [#_xTaskGetTickCount] ; |416| 
    1137              
    1138 0003bd 76FF          MOV #65535, AR2 ; |416| 
         0003bf FFA8 
    1139 0003c1 2345  ||      MOV T0, T1 ; |416| 
    1140              
    1141 0003c3 ED30          MOV dbl(*SP(#24)), XAR0
         0003c5 8F   
    1142 0003c6 EC31          AMOV #0, XAR1 ; |416| 
         0003c8 9E00 
         0003ca 0000 
    1143              $C$DW$113       .dwtag  DW_TAG_TI_branch
    1144                      .dwattr $C$DW$113, DW_AT_low_pc(0x00)
    1145                      .dwattr $C$DW$113, DW_AT_name("_xTimerGenericCommand")
    1146                      .dwattr $C$DW$113, DW_AT_TI_call
    1147              
    1148 0003cc 6C00          CALL #_xTimerGenericCommand ; |416| 
         0003ce 0000!
    1149 0003d0 3D14  ||      MOV #1, T0
    1150              
    1151                                                      ; call occurs [#_xTimerGenericCommand] ; |416| 
    1152                      .dwpsn  file "../FreeRTOS/Demo/Common/Minimal/TaskNotify.c",line 419,column 2,is_stmt
    1153 0003d2 76FF          MOV #65535, T0 ; |419| 
         0003d4 FF48 
    1154              
    1155 0003d6 EC04          AMAR *SP(#2), XAR0
         0003d8 8E   
    1156 0003d9 3D00  ||      MOV #0, AC0 ; |419| 
    1157              
    1158              $C$DW$114       .dwtag  DW_TAG_TI_branch
    1159                      .dwattr $C$DW$114, DW_AT_low_pc(0x00)
    1160                      .dwattr $C$DW$114, DW_AT_name("_xTaskNotifyWait")
    1161                      .dwattr $C$DW$114, DW_AT_TI_call
    1162              
    1163 0003db 6C00          CALL #_xTaskNotifyWait ; |419| 
         0003dd 0000!
    1164 0003df 3D01  ||      MOV #0, AC1 ; |419| 
    1165              
    1166                                                      ; call occurs [#_xTaskNotifyWait] ; |419| 
    1167 0003e1 C402          MOV T0, *SP(#1) ; |419| 
    1168                      .dwpsn  file "../FreeRTOS/Demo/Common/Minimal/TaskNotify.c",line 422,column 2,is_stmt
    1169                      .dwpsn  file "../FreeRTOS/Demo/Common/Minimal/TaskNotify.c",line 425,column 2,is_stmt
    1170 0003e3 ED31          MOV dbl(*(#_ulNotifyCycleCount)), AC0 ; |425| 
         0003e5 0800 
         0003e7 0002-
    1171 0003e9 4010          ADD #1, AC0 ; |425| 
    1172 0003eb EB31          MOV AC0, dbl(*(#_ulNotifyCycleCount)) ; |425| 
         0003ed 0800 
         0003ef 0002-
    1173                      .dwpsn  file "../FreeRTOS/Demo/Common/Minimal/TaskNotify.c",line 431,column 2,is_stmt
    1174              $C$DW$115       .dwtag  DW_TAG_TI_branch
TMS320C55x Assembler PC v4.4.1 Sun Sep 09 02:20:41 2018

Tools Copyright (c) 1996-2012 Texas Instruments Incorporated
TaskNotify.asm                                                       PAGE   27

    1175                      .dwattr $C$DW$115, DW_AT_low_pc(0x00)
    1176                      .dwattr $C$DW$115, DW_AT_name("_xTaskGetTickCount")
    1177                      .dwattr $C$DW$115, DW_AT_TI_call
    1178 0003f1 6C00          CALL #_xTaskGetTickCount ; |431| 
         0003f3 0000!
    1179                                                      ; call occurs [#_xTaskGetTickCount] ; |431| 
    1180              
    1181 0003f9 2345          MOV T0, T1 ; |431| 
    1182 0003f5 76FF  ||      MOV #65535, AR2 ; |431| 
         0003f7 FFA8 
    1183              
    1184 0003fb ED30          MOV dbl(*SP(#24)), XAR0
         0003fd 8F   
    1185 0003fe EC31          AMOV #0, XAR1 ; |431| 
         000400 9E00 
         000402 0000 
    1186              $C$DW$116       .dwtag  DW_TAG_TI_branch
    1187                      .dwattr $C$DW$116, DW_AT_low_pc(0x00)
    1188                      .dwattr $C$DW$116, DW_AT_name("_xTimerGenericCommand")
    1189                      .dwattr $C$DW$116, DW_AT_TI_call
    1190              
    1191 000404 6C00          CALL #_xTimerGenericCommand ; |431| 
         000406 0000!
    1192 000408 3D14  ||      MOV #1, T0
    1193              
    1194                                                      ; call occurs [#_xTimerGenericCommand] ; |431| 
    1195                      .dwpsn  file "../FreeRTOS/Demo/Common/Minimal/TaskNotify.c",line 434,column 2,is_stmt
    1196 00040a 76FF          MOV #65535, T0 ; |434| 
         00040c FF48 
    1197              
    1198 00040e EC04          AMAR *SP(#2), XAR0
         000410 8E   
    1199 000411 3D00  ||      MOV #0, AC0 ; |434| 
    1200              
    1201              $C$DW$117       .dwtag  DW_TAG_TI_branch
    1202                      .dwattr $C$DW$117, DW_AT_low_pc(0x00)
    1203                      .dwattr $C$DW$117, DW_AT_name("_xTaskNotifyWait")
    1204                      .dwattr $C$DW$117, DW_AT_TI_call
    1205              
    1206 000413 6C00          CALL #_xTaskNotifyWait ; |434| 
         000415 0000!
    1207 000417 3D01  ||      MOV #0, AC1 ; |434| 
    1208              
    1209                                                      ; call occurs [#_xTaskNotifyWait] ; |434| 
    1210 000419 C402          MOV T0, *SP(#1) ; |434| 
    1211                      .dwpsn  file "../FreeRTOS/Demo/Common/Minimal/TaskNotify.c",line 436,column 2,is_stmt
    1212                      .dwpsn  file "../FreeRTOS/Demo/Common/Minimal/TaskNotify.c",line 441,column 2,is_stmt
    1213 00041b EC31          AMOV #0, XAR0 ; |441| 
         00041d 8E00 
         00041f 0000 
    1214              $C$DW$118       .dwtag  DW_TAG_TI_branch
    1215                      .dwattr $C$DW$118, DW_AT_low_pc(0x00)
    1216                      .dwattr $C$DW$118, DW_AT_name("_vTaskPrioritySet")
    1217                      .dwattr $C$DW$118, DW_AT_TI_call
    1218              
TMS320C55x Assembler PC v4.4.1 Sun Sep 09 02:20:41 2018

Tools Copyright (c) 1996-2012 Texas Instruments Incorporated
TaskNotify.asm                                                       PAGE   28

    1219 000421 6C00          CALL #_vTaskPrioritySet ; |441| 
         000423 0000!
    1220 000425 3D04  ||      MOV #0, T0
    1221              
    1222                                                      ; call occurs [#_vTaskPrioritySet] ; |441| 
    1223                      .dwpsn  file "../FreeRTOS/Demo/Common/Minimal/TaskNotify.c",line 442,column 2,is_stmt
    1224              
    1225 00042b 3D05          MOV #0, T1
    1226 000427 76FF  ||      MOV #65535, AR2 ; |442| 
         000429 FFA8 
    1227              
    1228 00042d EC31          AMOV #0, XAR1 ; |442| 
         00042f 9E00 
         000431 0000 
    1229 000433 ED30          MOV dbl(*SP(#24)), XAR0
         000435 8F   
    1230              $C$DW$119       .dwtag  DW_TAG_TI_branch
    1231                      .dwattr $C$DW$119, DW_AT_low_pc(0x00)
    1232                      .dwattr $C$DW$119, DW_AT_name("_xTimerGenericCommand")
    1233                      .dwattr $C$DW$119, DW_AT_TI_call
    1234              
    1235 000436 6C00          CALL #_xTimerGenericCommand ; |442| 
         000438 0000!
    1236 00043a 3D54  ||      MOV #5, T0
    1237              
    1238                                                      ; call occurs [#_xTimerGenericCommand] ; |442| 
    1239                      .dwpsn  file "../FreeRTOS/Demo/Common/Minimal/TaskNotify.c",line 445,column 2,is_stmt
    1240 00043c ED31          MOV dbl(*(#_ulNotifyCycleCount)), AC0 ; |445| 
         00043e 0800 
         000440 0002-
    1241 000442 4010          ADD #1, AC0 ; |445| 
    1242 000444 EB31          MOV AC0, dbl(*(#_ulNotifyCycleCount)) ; |445| 
         000446 0800 
         000448 0002-
    1243                      .dwpsn  file "../FreeRTOS/Demo/Common/Minimal/TaskNotify.c",line 448,column 2,is_stmt
    1244              
    1245 00044e 3D04          MOV #0, T0
    1246 00044a 7AFF  ||      MOV #-1 << #16, AC0 ; |448| 
         00044c FF0A 
    1247              
    1248 000450 EC31          AMOV #0, XAR0 ; |448| 
         000452 8E00 
         000454 0000 
    1249              
    1250 000456 7EFF          OR #0xffff, AC0, AC0 ; |448| 
         000458 FF00 
    1251 00045a 3D01  ||      MOV #0, AC1 ; |448| 
    1252              
    1253              $C$DW$120       .dwtag  DW_TAG_TI_branch
    1254                      .dwattr $C$DW$120, DW_AT_low_pc(0x00)
    1255                      .dwattr $C$DW$120, DW_AT_name("_xTaskNotifyWait")
    1256                      .dwattr $C$DW$120, DW_AT_TI_call
    1257 00045c 6C00          CALL #_xTaskNotifyWait ; |448| 
         00045e 0000!
    1258                                                      ; call occurs [#_xTaskNotifyWait] ; |448| 
TMS320C55x Assembler PC v4.4.1 Sun Sep 09 02:20:41 2018

Tools Copyright (c) 1996-2012 Texas Instruments Incorporated
TaskNotify.asm                                                       PAGE   29

    1259                      .dwpsn  file "../FreeRTOS/Demo/Common/Minimal/TaskNotify.c",line 449,column 1,is_stmt
    1260 000460 4E1B          AADD #27, SP
    1261                      .dwcfi  cfa_offset, 1
    1262              $C$DW$121       .dwtag  DW_TAG_TI_branch
    1263                      .dwattr $C$DW$121, DW_AT_low_pc(0x00)
    1264                      .dwattr $C$DW$121, DW_AT_TI_return
    1265 000462 4804          RET
    1266                                                      ; return occurs
    1267              
    1268              $C$DW$122       .dwtag  DW_TAG_TI_loop
    1269                      .dwattr $C$DW$122, DW_AT_name("F:\eZdsp_DBG\eZDSP_5535_Files\ccsws2\test\Debug\TaskNotify.asm:$C$L6:1
    1270                      .dwattr $C$DW$122, DW_AT_TI_begin_file("../FreeRTOS/Demo/Common/Minimal/TaskNotify.c")
    1271                      .dwattr $C$DW$122, DW_AT_TI_begin_line(0x16d)
    1272                      .dwattr $C$DW$122, DW_AT_TI_end_line(0x175)
    1273              $C$DW$123       .dwtag  DW_TAG_TI_loop_range
    1274                      .dwattr $C$DW$123, DW_AT_low_pc($C$DW$L$_prvSingleTaskTests$10$B)
    1275                      .dwattr $C$DW$123, DW_AT_high_pc($C$DW$L$_prvSingleTaskTests$10$E)
    1276                      .dwendtag $C$DW$122
    1277              
    1278              
    1279              $C$DW$124       .dwtag  DW_TAG_TI_loop
    1280                      .dwattr $C$DW$124, DW_AT_name("F:\eZdsp_DBG\eZDSP_5535_Files\ccsws2\test\Debug\TaskNotify.asm:$C$L5:1
    1281                      .dwattr $C$DW$124, DW_AT_TI_begin_file("../FreeRTOS/Demo/Common/Minimal/TaskNotify.c")
    1282                      .dwattr $C$DW$124, DW_AT_TI_begin_line(0x117)
    1283                      .dwattr $C$DW$124, DW_AT_TI_end_line(0x128)
    1284              $C$DW$125       .dwtag  DW_TAG_TI_loop_range
    1285                      .dwattr $C$DW$125, DW_AT_low_pc($C$DW$L$_prvSingleTaskTests$8$B)
    1286                      .dwattr $C$DW$125, DW_AT_high_pc($C$DW$L$_prvSingleTaskTests$8$E)
    1287                      .dwendtag $C$DW$124
    1288              
    1289              
    1290              $C$DW$126       .dwtag  DW_TAG_TI_loop
    1291                      .dwattr $C$DW$126, DW_AT_name("F:\eZdsp_DBG\eZDSP_5535_Files\ccsws2\test\Debug\TaskNotify.asm:$C$L3:1
    1292                      .dwattr $C$DW$126, DW_AT_TI_begin_file("../FreeRTOS/Demo/Common/Minimal/TaskNotify.c")
    1293                      .dwattr $C$DW$126, DW_AT_TI_begin_line(0xf6)
    1294                      .dwattr $C$DW$126, DW_AT_TI_end_line(0xfb)
    1295              $C$DW$127       .dwtag  DW_TAG_TI_loop_range
    1296                      .dwattr $C$DW$127, DW_AT_low_pc($C$DW$L$_prvSingleTaskTests$6$B)
    1297                      .dwattr $C$DW$127, DW_AT_high_pc($C$DW$L$_prvSingleTaskTests$6$E)
    1298                      .dwendtag $C$DW$126
    1299              
    1300                      .dwattr $C$DW$61, DW_AT_TI_end_file("../FreeRTOS/Demo/Common/Minimal/TaskNotify.c")
    1301                      .dwattr $C$DW$61, DW_AT_TI_end_line(0x1c1)
    1302                      .dwattr $C$DW$61, DW_AT_TI_end_column(0x01)
    1303                      .dwendentry
    1304                      .dwendtag $C$DW$61
    1305              
    1306 000464               .sect   ".text"
    1307                      .align 4
    1308              
    1309              $C$DW$128       .dwtag  DW_TAG_subprogram, DW_AT_name("prvSuspendedTaskTimerTestCallback")
    1310                      .dwattr $C$DW$128, DW_AT_low_pc(_prvSuspendedTaskTimerTestCallback)
    1311                      .dwattr $C$DW$128, DW_AT_high_pc(0x00)
    1312                      .dwattr $C$DW$128, DW_AT_TI_symbol_name("_prvSuspendedTaskTimerTestCallback")
    1313                      .dwattr $C$DW$128, DW_AT_TI_begin_file("../FreeRTOS/Demo/Common/Minimal/TaskNotify.c")
TMS320C55x Assembler PC v4.4.1 Sun Sep 09 02:20:41 2018

Tools Copyright (c) 1996-2012 Texas Instruments Incorporated
TaskNotify.asm                                                       PAGE   30

    1314                      .dwattr $C$DW$128, DW_AT_TI_begin_line(0x1c4)
    1315                      .dwattr $C$DW$128, DW_AT_TI_begin_column(0x0d)
    1316                      .dwattr $C$DW$128, DW_AT_TI_max_frame_size(0x04)
    1317                      .dwpsn  file "../FreeRTOS/Demo/Common/Minimal/TaskNotify.c",line 453,column 1,is_stmt,address _prvSus
    1318              
    1319                      .dwfde $C$DW$CIE, _prvSuspendedTaskTimerTestCallback
    1320              $C$DW$129       .dwtag  DW_TAG_variable, DW_AT_name("ulCallCount")
    1321                      .dwattr $C$DW$129, DW_AT_TI_symbol_name("_ulCallCount$1")
    1322                      .dwattr $C$DW$129, DW_AT_type(*$C$DW$T$56)
    1323                      .dwattr $C$DW$129, DW_AT_location[DW_OP_addr _ulCallCount$1]
    1324              $C$DW$130       .dwtag  DW_TAG_formal_parameter, DW_AT_name("xExpiredTimer")
    1325                      .dwattr $C$DW$130, DW_AT_TI_symbol_name("_xExpiredTimer")
    1326                      .dwattr $C$DW$130, DW_AT_type(*$C$DW$T$39)
    1327                      .dwattr $C$DW$130, DW_AT_location[DW_OP_reg17]
    1328              ;*******************************************************************************
    1329              ;* FUNCTION NAME: prvSuspendedTaskTimerTestCallback                            *
    1330              ;*                                                                             *
    1331              ;*   Function Uses Regs : AC0,AC0,T0,AR0,XAR0,AR1,XAR1,SP,CARRY,M40,SATA,SATD, *
    1332              ;*                        RDM,FRCT,SMUL                                        *
    1333              ;*   Stack Frame        : Compact (No Frame Pointer, w/ debug)                 *
    1334              ;*   Total Frame Size   : 4 words                                              *
    1335              ;*                        (2 return address/alignment)                         *
    1336              ;*                        (2 local values)                                     *
    1337              ;*   Min System Stack   : 1 word                                               *
    1338              ;*******************************************************************************
    1339 000464       _prvSuspendedTaskTimerTestCallback:
    1340                      .dwcfi  cfa_offset, 1
    1341                      .dwcfi  save_reg_to_mem, 91, -1
    1342 000464 4EFD          AADD #-3, SP
    1343                      .dwcfi  cfa_offset, 4
    1344              $C$DW$131       .dwtag  DW_TAG_variable, DW_AT_name("xExpiredTimer")
    1345                      .dwattr $C$DW$131, DW_AT_TI_symbol_name("_xExpiredTimer")
    1346                      .dwattr $C$DW$131, DW_AT_type(*$C$DW$T$39)
    1347                      .dwattr $C$DW$131, DW_AT_location[DW_OP_bregx 0x24 0]
    1348 000466 EB00          MOV XAR0, dbl(*SP(#0))
         000468 85   
    1349                      .dwpsn  file "../FreeRTOS/Demo/Common/Minimal/TaskNotify.c",line 457,column 2,is_stmt
    1350                      .dwpsn  file "../FreeRTOS/Demo/Common/Minimal/TaskNotify.c",line 464,column 2,is_stmt
    1351 000469 ED31          MOV dbl(*(#_ulCallCount$1)), AC0 ; |464| 
         00046b 0800 
         00046d 000C-
    1352 00046f 0410          BCC $C$L8,AC0 != #0 ; |464| 
         000471 16   
    1353                                                      ; branchcc occurs ; |464| 
    1354                      .dwpsn  file "../FreeRTOS/Demo/Common/Minimal/TaskNotify.c",line 466,column 3,is_stmt
    1355 000472 ED31          MOV dbl(*(#_xTaskToNotify)), XAR0
         000474 8F00 
         000476 0004-
    1356              $C$DW$132       .dwtag  DW_TAG_TI_branch
    1357                      .dwattr $C$DW$132, DW_AT_low_pc(0x00)
    1358                      .dwattr $C$DW$132, DW_AT_name("_vTaskSuspend")
    1359                      .dwattr $C$DW$132, DW_AT_TI_call
    1360 000478 6C00          CALL #_vTaskSuspend ; |466| 
         00047a 0000!
    1361                                                      ; call occurs [#_vTaskSuspend] ; |466| 
TMS320C55x Assembler PC v4.4.1 Sun Sep 09 02:20:41 2018

Tools Copyright (c) 1996-2012 Texas Instruments Incorporated
TaskNotify.asm                                                       PAGE   31

    1362                      .dwpsn  file "../FreeRTOS/Demo/Common/Minimal/TaskNotify.c",line 468,column 3,is_stmt
    1363 00047c ED31          MOV dbl(*(#_xTaskToNotify)), XAR0
         00047e 8F00 
         000480 0004-
    1364              $C$DW$133       .dwtag  DW_TAG_TI_branch
    1365                      .dwattr $C$DW$133, DW_AT_low_pc(0x00)
    1366                      .dwattr $C$DW$133, DW_AT_name("_vTaskResume")
    1367                      .dwattr $C$DW$133, DW_AT_TI_call
    1368 000482 6C00          CALL #_vTaskResume ; |468| 
         000484 0000!
    1369                                                      ; call occurs [#_vTaskResume] ; |468| 
    1370                      .dwpsn  file "../FreeRTOS/Demo/Common/Minimal/TaskNotify.c",line 469,column 2,is_stmt
    1371 000486 4A2C          B $C$L9   ; |469| 
    1372                                                      ; branch occurs ; |469| 
    1373 000488       $C$L8:    
    1374                      .dwpsn  file "../FreeRTOS/Demo/Common/Minimal/TaskNotify.c",line 472,column 3,is_stmt
    1375 000488 ED31          MOV dbl(*(#_xTaskToNotify)), XAR0
         00048a 8F00 
         00048c 0004-
    1376              $C$DW$134       .dwtag  DW_TAG_TI_branch
    1377                      .dwattr $C$DW$134, DW_AT_low_pc(0x00)
    1378                      .dwattr $C$DW$134, DW_AT_name("_vTaskSuspend")
    1379                      .dwattr $C$DW$134, DW_AT_TI_call
    1380 00048e 6C00          CALL #_vTaskSuspend ; |472| 
         000490 0000!
    1381                                                      ; call occurs [#_vTaskSuspend] ; |472| 
    1382                      .dwpsn  file "../FreeRTOS/Demo/Common/Minimal/TaskNotify.c",line 477,column 3,is_stmt
    1383 000492 EC31          AMOV #0, XAR1 ; |477| 
         000494 9E00 
         000496 0000 
    1384 000498 ED31          MOV dbl(*(#_ulCallCount$1)), AC0 ; |477| 
         00049a 0800 
         00049c 000C-
    1385 00049e ED31          MOV dbl(*(#_xTaskToNotify)), XAR0
         0004a0 8F00 
         0004a2 0004-
    1386              $C$DW$135       .dwtag  DW_TAG_TI_branch
    1387                      .dwattr $C$DW$135, DW_AT_low_pc(0x00)
    1388                      .dwattr $C$DW$135, DW_AT_name("_xTaskGenericNotify")
    1389                      .dwattr $C$DW$135, DW_AT_TI_call
    1390              
    1391 0004a4 6C00          CALL #_xTaskGenericNotify ; |477| 
         0004a6 0000!
    1392 0004a8 3D34  ||      MOV #3, T0
    1393              
    1394                                                      ; call occurs [#_xTaskGenericNotify] ; |477| 
    1395                      .dwpsn  file "../FreeRTOS/Demo/Common/Minimal/TaskNotify.c",line 482,column 3,is_stmt
    1396 0004aa ED31          MOV dbl(*(#_xTaskToNotify)), XAR0
         0004ac 8F00 
         0004ae 0004-
    1397              $C$DW$136       .dwtag  DW_TAG_TI_branch
    1398                      .dwattr $C$DW$136, DW_AT_low_pc(0x00)
    1399                      .dwattr $C$DW$136, DW_AT_name("_vTaskResume")
    1400                      .dwattr $C$DW$136, DW_AT_TI_call
    1401 0004b0 6C00          CALL #_vTaskResume ; |482| 
TMS320C55x Assembler PC v4.4.1 Sun Sep 09 02:20:41 2018

Tools Copyright (c) 1996-2012 Texas Instruments Incorporated
TaskNotify.asm                                                       PAGE   32

         0004b2 0000!
    1402                                                      ; call occurs [#_vTaskResume] ; |482| 
    1403 0004b4       $C$L9:    
    1404                      .dwpsn  file "../FreeRTOS/Demo/Common/Minimal/TaskNotify.c",line 485,column 2,is_stmt
    1405 0004b4 ED31          MOV dbl(*(#_ulCallCount$1)), AC0 ; |485| 
         0004b6 0800 
         0004b8 000C-
    1406 0004ba 4010          ADD #1, AC0 ; |485| 
    1407 0004bc EB31          MOV AC0, dbl(*(#_ulCallCount$1)) ; |485| 
         0004be 0800 
         0004c0 000C-
    1408                      .dwpsn  file "../FreeRTOS/Demo/Common/Minimal/TaskNotify.c",line 486,column 1,is_stmt
    1409 0004c2 4E03          AADD #3, SP
    1410                      .dwcfi  cfa_offset, 1
    1411              $C$DW$137       .dwtag  DW_TAG_TI_branch
    1412                      .dwattr $C$DW$137, DW_AT_low_pc(0x00)
    1413                      .dwattr $C$DW$137, DW_AT_TI_return
    1414 0004c4 4804          RET
    1415                                                      ; return occurs
    1416                      .dwattr $C$DW$128, DW_AT_TI_end_file("../FreeRTOS/Demo/Common/Minimal/TaskNotify.c")
    1417                      .dwattr $C$DW$128, DW_AT_TI_end_line(0x1e6)
    1418                      .dwattr $C$DW$128, DW_AT_TI_end_column(0x01)
    1419                      .dwendentry
    1420                      .dwendtag $C$DW$128
    1421              
    1422 0004c6               .sect   ".text"
    1423                      .align 4
    1424              
    1425              $C$DW$138       .dwtag  DW_TAG_subprogram, DW_AT_name("prvNotifyingTimer")
    1426                      .dwattr $C$DW$138, DW_AT_low_pc(_prvNotifyingTimer)
    1427                      .dwattr $C$DW$138, DW_AT_high_pc(0x00)
    1428                      .dwattr $C$DW$138, DW_AT_TI_symbol_name("_prvNotifyingTimer")
    1429                      .dwattr $C$DW$138, DW_AT_TI_begin_file("../FreeRTOS/Demo/Common/Minimal/TaskNotify.c")
    1430                      .dwattr $C$DW$138, DW_AT_TI_begin_line(0x1e9)
    1431                      .dwattr $C$DW$138, DW_AT_TI_begin_column(0x0d)
    1432                      .dwattr $C$DW$138, DW_AT_TI_max_frame_size(0x04)
    1433                      .dwpsn  file "../FreeRTOS/Demo/Common/Minimal/TaskNotify.c",line 490,column 1,is_stmt,address _prvNot
    1434              
    1435                      .dwfde $C$DW$CIE, _prvNotifyingTimer
    1436              $C$DW$139       .dwtag  DW_TAG_formal_parameter, DW_AT_name("xNotUsed")
    1437                      .dwattr $C$DW$139, DW_AT_TI_symbol_name("_xNotUsed")
    1438                      .dwattr $C$DW$139, DW_AT_type(*$C$DW$T$39)
    1439                      .dwattr $C$DW$139, DW_AT_location[DW_OP_reg17]
    1440              ;*******************************************************************************
    1441              ;* FUNCTION NAME: prvNotifyingTimer                                            *
    1442              ;*                                                                             *
    1443              ;*   Function Uses Regs : AC0,AC0,T0,AR0,XAR0,AR1,XAR1,SP,CARRY,M40,SATA,SATD, *
    1444              ;*                        RDM,FRCT,SMUL                                        *
    1445              ;*   Stack Frame        : Compact (No Frame Pointer, w/ debug)                 *
    1446              ;*   Total Frame Size   : 4 words                                              *
    1447              ;*                        (2 return address/alignment)                         *
    1448              ;*                        (2 local values)                                     *
    1449              ;*   Min System Stack   : 1 word                                               *
    1450              ;*******************************************************************************
    1451 0004c8       _prvNotifyingTimer:
TMS320C55x Assembler PC v4.4.1 Sun Sep 09 02:20:41 2018

Tools Copyright (c) 1996-2012 Texas Instruments Incorporated
TaskNotify.asm                                                       PAGE   33

    1452                      .dwcfi  cfa_offset, 1
    1453                      .dwcfi  save_reg_to_mem, 91, -1
    1454 0004c8 4EFD          AADD #-3, SP
    1455                      .dwcfi  cfa_offset, 4
    1456              $C$DW$140       .dwtag  DW_TAG_variable, DW_AT_name("xNotUsed")
    1457                      .dwattr $C$DW$140, DW_AT_TI_symbol_name("_xNotUsed")
    1458                      .dwattr $C$DW$140, DW_AT_type(*$C$DW$T$39)
    1459                      .dwattr $C$DW$140, DW_AT_location[DW_OP_bregx 0x24 0]
    1460 0004ca EB00          MOV XAR0, dbl(*SP(#0))
         0004cc 85   
    1461                      .dwpsn  file "../FreeRTOS/Demo/Common/Minimal/TaskNotify.c",line 491,column 2,is_stmt
    1462                      .dwpsn  file "../FreeRTOS/Demo/Common/Minimal/TaskNotify.c",line 493,column 2,is_stmt
    1463 0004cd EC31          AMOV #0, XAR1 ; |493| 
         0004cf 9E00 
         0004d1 0000 
    1464 0004d3 3C00          MOV #0, AC0 ; |493| 
    1465 0004d5 ED31          MOV dbl(*(#_xTaskToNotify)), XAR0
         0004d7 8F00 
         0004d9 0004-
    1466              $C$DW$141       .dwtag  DW_TAG_TI_branch
    1467                      .dwattr $C$DW$141, DW_AT_low_pc(0x00)
    1468                      .dwattr $C$DW$141, DW_AT_name("_xTaskGenericNotify")
    1469                      .dwattr $C$DW$141, DW_AT_TI_call
    1470              
    1471 0004db 6C00          CALL #_xTaskGenericNotify ; |493| 
         0004dd 0000!
    1472 0004df 3D24  ||      MOV #2, T0
    1473              
    1474                                                      ; call occurs [#_xTaskGenericNotify] ; |493| 
    1475                      .dwpsn  file "../FreeRTOS/Demo/Common/Minimal/TaskNotify.c",line 496,column 2,is_stmt
    1476 0004e1 20     nop
    1477 0004e2 46B3   bset INTM
    1478 0004e4 F731          ADD #1, *(#_usCriticalNesting) ; |496| 
         0004e6 0001 
         0004e8 0000 
         0004ea 00!  
    1479                      .dwpsn  file "../FreeRTOS/Demo/Common/Minimal/TaskNotify.c",line 498,column 3,is_stmt
    1480 0004eb ED31          MOV dbl(*(#_ulTimerNotificationsSent)), AC0 ; |498| 
         0004ed 0800 
         0004ef 0008-
    1481 0004f1 4010          ADD #1, AC0 ; |498| 
    1482 0004f3 EB31          MOV AC0, dbl(*(#_ulTimerNotificationsSent)) ; |498| 
         0004f5 0800 
         0004f7 0008-
    1483                      .dwpsn  file "../FreeRTOS/Demo/Common/Minimal/TaskNotify.c",line 500,column 2,is_stmt
    1484 0004f9 A931          MOV *(#_usCriticalNesting), AR1 ; |500| 
         0004fb 0000 
         0004fd 00!  
    1485 0004fe 0409          BCC $C$L10,AR1 == #0 ; |500| 
         000500 14   
    1486                                                      ; branchcc occurs ; |500| 
    1487 000501 F731          SUB #1, *(#_usCriticalNesting) ; |500| 
         000503 FFFF 
         000505 0000 
         000507 00!  
TMS320C55x Assembler PC v4.4.1 Sun Sep 09 02:20:41 2018

Tools Copyright (c) 1996-2012 Texas Instruments Incorporated
TaskNotify.asm                                                       PAGE   34

    1488 000508 20            NOP
    1489 000509 20            NOP
    1490 00050a 20            NOP
    1491 00050b A931          MOV *(#_usCriticalNesting), AR1 ; |500| 
         00050d 0000 
         00050f 00!  
    1492 000510 6199          BCC $C$L10,AR1 != #0 ; |500| 
    1493                                                      ; branchcc occurs ; |500| 
    1494 000512 20     nop
    1495 000513 46B2   bclr INTM
    1496                      .dwpsn  file "../FreeRTOS/Demo/Common/Minimal/TaskNotify.c",line 501,column 1,is_stmt
    1497 000515       $C$L10:    
    1498 000515 4E03          AADD #3, SP
    1499                      .dwcfi  cfa_offset, 1
    1500              $C$DW$142       .dwtag  DW_TAG_TI_branch
    1501                      .dwattr $C$DW$142, DW_AT_low_pc(0x00)
    1502                      .dwattr $C$DW$142, DW_AT_TI_return
    1503 000517 4804          RET
    1504                                                      ; return occurs
    1505                      .dwattr $C$DW$138, DW_AT_TI_end_file("../FreeRTOS/Demo/Common/Minimal/TaskNotify.c")
    1506                      .dwattr $C$DW$138, DW_AT_TI_end_line(0x1f5)
    1507                      .dwattr $C$DW$138, DW_AT_TI_end_column(0x01)
    1508                      .dwendentry
    1509                      .dwendtag $C$DW$138
    1510              
    1511 000519               .sect   ".text"
    1512                      .align 4
    1513              
    1514              $C$DW$143       .dwtag  DW_TAG_subprogram, DW_AT_name("prvNotifiedTask")
    1515                      .dwattr $C$DW$143, DW_AT_low_pc(_prvNotifiedTask)
    1516                      .dwattr $C$DW$143, DW_AT_high_pc(0x00)
    1517                      .dwattr $C$DW$143, DW_AT_TI_symbol_name("_prvNotifiedTask")
    1518                      .dwattr $C$DW$143, DW_AT_TI_begin_file("../FreeRTOS/Demo/Common/Minimal/TaskNotify.c")
    1519                      .dwattr $C$DW$143, DW_AT_TI_begin_line(0x1f8)
    1520                      .dwattr $C$DW$143, DW_AT_TI_begin_column(0x0d)
    1521                      .dwattr $C$DW$143, DW_AT_TI_max_frame_size(0x0a)
    1522                      .dwpsn  file "../FreeRTOS/Demo/Common/Minimal/TaskNotify.c",line 505,column 1,is_stmt,address _prvNot
    1523              
    1524                      .dwfde $C$DW$CIE, _prvNotifiedTask
    1525              $C$DW$144       .dwtag  DW_TAG_formal_parameter, DW_AT_name("pvParameters")
    1526                      .dwattr $C$DW$144, DW_AT_TI_symbol_name("_pvParameters")
    1527                      .dwattr $C$DW$144, DW_AT_type(*$C$DW$T$3)
    1528                      .dwattr $C$DW$144, DW_AT_location[DW_OP_reg17]
    1529              ;*******************************************************************************
    1530              ;* FUNCTION NAME: prvNotifiedTask                                              *
    1531              ;*                                                                             *
    1532              ;*   Function Uses Regs : AC0,AC0,AC1,AC1,T0,T1,AR0,XAR0,AR1,XAR1,AR2,SP,CARRY,*
    1533              ;*                        TC1,M40,SATA,SATD,RDM,FRCT,SMUL                      *
    1534              ;*   Stack Frame        : Compact (No Frame Pointer, w/ debug)                 *
    1535              ;*   Total Frame Size   : 10 words                                             *
    1536              ;*                        (2 return address/alignment)                         *
    1537              ;*                        (8 local values)                                     *
    1538              ;*   Min System Stack   : 1 word                                               *
    1539              ;*******************************************************************************
    1540 00051c       _prvNotifiedTask:
TMS320C55x Assembler PC v4.4.1 Sun Sep 09 02:20:41 2018

Tools Copyright (c) 1996-2012 Texas Instruments Incorporated
TaskNotify.asm                                                       PAGE   35

    1541                      .dwcfi  cfa_offset, 1
    1542                      .dwcfi  save_reg_to_mem, 91, -1
    1543 00051c 4EF7          AADD #-9, SP
    1544                      .dwcfi  cfa_offset, 10
    1545              $C$DW$145       .dwtag  DW_TAG_variable, DW_AT_name("pvParameters")
    1546                      .dwattr $C$DW$145, DW_AT_TI_symbol_name("_pvParameters")
    1547                      .dwattr $C$DW$145, DW_AT_type(*$C$DW$T$3)
    1548                      .dwattr $C$DW$145, DW_AT_location[DW_OP_bregx 0x24 0]
    1549              $C$DW$146       .dwtag  DW_TAG_variable, DW_AT_name("xMaxPeriod")
    1550                      .dwattr $C$DW$146, DW_AT_TI_symbol_name("_xMaxPeriod")
    1551                      .dwattr $C$DW$146, DW_AT_type(*$C$DW$T$66)
    1552                      .dwattr $C$DW$146, DW_AT_location[DW_OP_bregx 0x24 2]
    1553              $C$DW$147       .dwtag  DW_TAG_variable, DW_AT_name("xMinPeriod")
    1554                      .dwattr $C$DW$147, DW_AT_TI_symbol_name("_xMinPeriod")
    1555                      .dwattr $C$DW$147, DW_AT_type(*$C$DW$T$66)
    1556                      .dwattr $C$DW$147, DW_AT_location[DW_OP_bregx 0x24 3]
    1557              $C$DW$148       .dwtag  DW_TAG_variable, DW_AT_name("xDontBlock")
    1558                      .dwattr $C$DW$148, DW_AT_TI_symbol_name("_xDontBlock")
    1559                      .dwattr $C$DW$148, DW_AT_type(*$C$DW$T$66)
    1560                      .dwattr $C$DW$148, DW_AT_location[DW_OP_bregx 0x24 4]
    1561              $C$DW$149       .dwtag  DW_TAG_variable, DW_AT_name("xPeriod")
    1562                      .dwattr $C$DW$149, DW_AT_TI_symbol_name("_xPeriod")
    1563                      .dwattr $C$DW$149, DW_AT_type(*$C$DW$T$63)
    1564                      .dwattr $C$DW$149, DW_AT_location[DW_OP_bregx 0x24 5]
    1565              $C$DW$150       .dwtag  DW_TAG_variable, DW_AT_name("ulCyclesToRaisePriority")
    1566                      .dwattr $C$DW$150, DW_AT_TI_symbol_name("_ulCyclesToRaisePriority")
    1567                      .dwattr $C$DW$150, DW_AT_type(*$C$DW$T$81)
    1568                      .dwattr $C$DW$150, DW_AT_location[DW_OP_bregx 0x24 6]
    1569 00051e EB00          MOV XAR0, dbl(*SP(#0))
         000520 85   
    1570                      .dwpsn  file "../FreeRTOS/Demo/Common/Minimal/TaskNotify.c",line 506,column 18,is_stmt
    1571 000521 E604          MOV #24, *SP(#2) ; |506| 
         000523 18   
    1572                      .dwpsn  file "../FreeRTOS/Demo/Common/Minimal/TaskNotify.c",line 506,column 52,is_stmt
    1573 000524 E606          MOV #10, *SP(#3) ; |506| 
         000526 0A   
    1574                      .dwpsn  file "../FreeRTOS/Demo/Common/Minimal/TaskNotify.c",line 506,column 86,is_stmt
    1575 000527 E608          MOV #0, *SP(#4) ; |506| 
         000529 00   
    1576                      .dwpsn  file "../FreeRTOS/Demo/Common/Minimal/TaskNotify.c",line 508,column 16,is_stmt
    1577 00052a 7600          MOV #50, AC0 ; |508| 
         00052c 3208 
    1578 00052e EB0C          MOV AC0, dbl(*SP(#6)) ; |508| 
         000530 08   
    1579                      .dwpsn  file "../FreeRTOS/Demo/Common/Minimal/TaskNotify.c",line 511,column 2,is_stmt
    1580                      .dwpsn  file "../FreeRTOS/Demo/Common/Minimal/TaskNotify.c",line 515,column 2,is_stmt
    1581              $C$DW$151       .dwtag  DW_TAG_TI_branch
    1582                      .dwattr $C$DW$151, DW_AT_low_pc(0x00)
    1583                      .dwattr $C$DW$151, DW_AT_name("_prvSingleTaskTests")
    1584                      .dwattr $C$DW$151, DW_AT_TI_call
    1585 000531 08FB          CALL #_prvSingleTaskTests ; |515| 
         000533 00   
    1586                                                      ; call occurs [#_prvSingleTaskTests] ; |515| 
    1587                      .dwpsn  file "../FreeRTOS/Demo/Common/Minimal/TaskNotify.c",line 519,column 2,is_stmt
    1588 000534 EC31          AMOV #0, XAR1 ; |519| 
TMS320C55x Assembler PC v4.4.1 Sun Sep 09 02:20:41 2018

Tools Copyright (c) 1996-2012 Texas Instruments Incorporated
TaskNotify.asm                                                       PAGE   36

         000536 9E00 
         000538 0000 
    1589 00053a A404          MOV *SP(#2), T0 ; |519| 
    1590 00053c 7A00          MOV #(_prvNotifyingTimer >> 16) << #16, AC0 ; |519| 
         00053e 000A%
    1591 000540 EC31          AMOV #$C$FSL3, XAR0 ; |519| 
         000542 8E00 
         000544 0018+
    1592 000546 7E00          OR #(_prvNotifyingTimer & 0xffff), AC0, AC0 ; |519| 
         000548 0000%
    1593              $C$DW$152       .dwtag  DW_TAG_TI_branch
    1594                      .dwattr $C$DW$152, DW_AT_low_pc(0x00)
    1595                      .dwattr $C$DW$152, DW_AT_name("_xTimerCreate")
    1596                      .dwattr $C$DW$152, DW_AT_TI_call
    1597              
    1598 00054a 6C00          CALL #_xTimerCreate ; |519| 
         00054c 0000!
    1599 00054e 3D05  ||      MOV #0, T1
    1600              
    1601                                                      ; call occurs [#_xTimerCreate] ; |519| 
    1602 000550 EB31          MOV XAR0, dbl(*(#_xTimer))
         000552 8500 
         000554 000A-
    1603 000556       $C$L11:    
    1604 000556       $C$DW$L$_prvNotifiedTask$2$B:
    1605                      .dwpsn  file "../FreeRTOS/Demo/Common/Minimal/TaskNotify.c",line 526,column 3,is_stmt
    1606              $C$DW$153       .dwtag  DW_TAG_TI_branch
    1607                      .dwattr $C$DW$153, DW_AT_low_pc(0x00)
    1608                      .dwattr $C$DW$153, DW_AT_name("_prvRand")
    1609                      .dwattr $C$DW$153, DW_AT_TI_call
    1610 000556 0802          CALL #_prvRand ; |526| 
         000558 17   
    1611                                                      ; call occurs [#_prvRand] ; |526| 
    1612 000559 A504          MOV *SP(#2), T1 ; |526| 
    1613              $C$DW$154       .dwtag  DW_TAG_TI_branch
    1614                      .dwattr $C$DW$154, DW_AT_low_pc(0x00)
    1615                      .dwattr $C$DW$154, DW_AT_name("__remu")
    1616                      .dwattr $C$DW$154, DW_AT_TI_call
    1617 00055b 6C00          CALL #__remu ; |526| 
         00055d 0000!
    1618                                                      ; call occurs [#__remu] ; |526| 
    1619 00055f C40A          MOV T0, *SP(#5) ; |526| 
    1620                      .dwpsn  file "../FreeRTOS/Demo/Common/Minimal/TaskNotify.c",line 527,column 3,is_stmt
    1621              
    1622 000561 A906          MOV *SP(#3), AR1 ; |527| 
    1623 000563 234A  ||      MOV T0, AR2 ; |527| 
    1624              
    1625 000565 12A8          CMPU AR2 >= AR1, TC1 ; |527| 
         000567 94   
    1626 000568 6164          BCC $C$L12,TC1 ; |527| 
    1627                                                      ; branchcc occurs ; |527| 
    1628 00056a       $C$DW$L$_prvNotifiedTask$2$E:
    1629 00056a       $C$DW$L$_prvNotifiedTask$3$B:
    1630                      .dwpsn  file "../FreeRTOS/Demo/Common/Minimal/TaskNotify.c",line 529,column 4,is_stmt
    1631 00056a C90A          MOV AR1, *SP(#5) ; |529| 
TMS320C55x Assembler PC v4.4.1 Sun Sep 09 02:20:41 2018

Tools Copyright (c) 1996-2012 Texas Instruments Incorporated
TaskNotify.asm                                                       PAGE   37

    1632 00056c       $C$DW$L$_prvNotifiedTask$3$E:
    1633 00056c       $C$L12:    
    1634 00056c       $C$DW$L$_prvNotifiedTask$4$B:
    1635                      .dwpsn  file "../FreeRTOS/Demo/Common/Minimal/TaskNotify.c",line 533,column 3,is_stmt
    1636 00056c A50A          MOV *SP(#5), T1 ; |533| 
    1637 00056e ED31          MOV dbl(*(#_xTimer)), XAR0
         000570 8F00 
         000572 000A-
    1638 000574 EC31          AMOV #0, XAR1 ; |533| 
         000576 9E00 
         000578 0000 
    1639 00057a 76FF          MOV #65535, AR2 ; |533| 
         00057c FFA8 
    1640              $C$DW$155       .dwtag  DW_TAG_TI_branch
    1641                      .dwattr $C$DW$155, DW_AT_low_pc(0x00)
    1642                      .dwattr $C$DW$155, DW_AT_name("_xTimerGenericCommand")
    1643                      .dwattr $C$DW$155, DW_AT_TI_call
    1644              
    1645 00057e 6C00          CALL #_xTimerGenericCommand ; |533| 
         000580 0000!
    1646 000582 3D44  ||      MOV #4, T0
    1647              
    1648                                                      ; call occurs [#_xTimerGenericCommand] ; |533| 
    1649                      .dwpsn  file "../FreeRTOS/Demo/Common/Minimal/TaskNotify.c",line 538,column 3,is_stmt
    1650              $C$DW$156       .dwtag  DW_TAG_TI_branch
    1651                      .dwattr $C$DW$156, DW_AT_low_pc(0x00)
    1652                      .dwattr $C$DW$156, DW_AT_name("_prvRand")
    1653                      .dwattr $C$DW$156, DW_AT_TI_call
    1654 000584 0801          CALL #_prvRand ; |538| 
         000586 E9   
    1655                                                      ; call occurs [#_prvRand] ; |538| 
    1656 000587 A504          MOV *SP(#2), T1 ; |538| 
    1657              $C$DW$157       .dwtag  DW_TAG_TI_branch
    1658                      .dwattr $C$DW$157, DW_AT_low_pc(0x00)
    1659                      .dwattr $C$DW$157, DW_AT_name("__remu")
    1660                      .dwattr $C$DW$157, DW_AT_TI_call
    1661 000589 6C00          CALL #__remu ; |538| 
         00058b 0000!
    1662                                                      ; call occurs [#__remu] ; |538| 
    1663 00058d C40A          MOV T0, *SP(#5) ; |538| 
    1664                      .dwpsn  file "../FreeRTOS/Demo/Common/Minimal/TaskNotify.c",line 539,column 3,is_stmt
    1665              
    1666 00058f A906          MOV *SP(#3), AR1 ; |539| 
    1667 000591 234A  ||      MOV T0, AR2 ; |539| 
    1668              
    1669 000593 12A8          CMPU AR2 >= AR1, TC1 ; |539| 
         000595 94   
    1670 000596 6164          BCC $C$L13,TC1 ; |539| 
    1671                                                      ; branchcc occurs ; |539| 
    1672 000598       $C$DW$L$_prvNotifiedTask$4$E:
    1673 000598       $C$DW$L$_prvNotifiedTask$5$B:
    1674                      .dwpsn  file "../FreeRTOS/Demo/Common/Minimal/TaskNotify.c",line 541,column 4,is_stmt
    1675 000598 C90A          MOV AR1, *SP(#5) ; |541| 
    1676 00059a       $C$DW$L$_prvNotifiedTask$5$E:
    1677 00059a       $C$L13:    
TMS320C55x Assembler PC v4.4.1 Sun Sep 09 02:20:41 2018

Tools Copyright (c) 1996-2012 Texas Instruments Incorporated
TaskNotify.asm                                                       PAGE   38

    1678 00059a       $C$DW$L$_prvNotifiedTask$6$B:
    1679                      .dwpsn  file "../FreeRTOS/Demo/Common/Minimal/TaskNotify.c",line 547,column 3,is_stmt
    1680 00059a A50A          MOV *SP(#5), T1 ; |547| 
    1681              $C$DW$158       .dwtag  DW_TAG_TI_branch
    1682                      .dwattr $C$DW$158, DW_AT_low_pc(0x00)
    1683                      .dwattr $C$DW$158, DW_AT_name("_ulTaskNotifyTake")
    1684                      .dwattr $C$DW$158, DW_AT_TI_call
    1685              
    1686 00059c 6C00          CALL #_ulTaskNotifyTake ; |547| 
         00059e 0000!
    1687 0005a0 3D04  ||      MOV #0, T0
    1688              
    1689                                                      ; call occurs [#_ulTaskNotifyTake] ; |547| 
    1690 0005a2 6700          BCC $C$L14,AC0 == #0 ; |547| 
    1691                                                      ; branchcc occurs ; |547| 
    1692 0005a4       $C$DW$L$_prvNotifiedTask$6$E:
    1693 0005a4       $C$DW$L$_prvNotifiedTask$7$B:
    1694                      .dwpsn  file "../FreeRTOS/Demo/Common/Minimal/TaskNotify.c",line 549,column 4,is_stmt
    1695 0005a4 ED31          MOV dbl(*(#_ulTimerNotificationsReceived)), AC0 ; |549| 
         0005a6 0800 
         0005a8 0006-
    1696 0005aa 4010          ADD #1, AC0 ; |549| 
    1697 0005ac EB31          MOV AC0, dbl(*(#_ulTimerNotificationsReceived)) ; |549| 
         0005ae 0800 
         0005b0 0006-
    1698 0005b2       $C$DW$L$_prvNotifiedTask$7$E:
    1699 0005b2       $C$L14:    
    1700 0005b2       $C$DW$L$_prvNotifiedTask$8$B:
    1701                      .dwpsn  file "../FreeRTOS/Demo/Common/Minimal/TaskNotify.c",line 555,column 3,is_stmt
    1702 0005b2 A508          MOV *SP(#4), T1 ; |555| 
    1703              $C$DW$159       .dwtag  DW_TAG_TI_branch
    1704                      .dwattr $C$DW$159, DW_AT_low_pc(0x00)
    1705                      .dwattr $C$DW$159, DW_AT_name("_ulTaskNotifyTake")
    1706                      .dwattr $C$DW$159, DW_AT_TI_call
    1707              
    1708 0005b4 6C00          CALL #_ulTaskNotifyTake ; |555| 
         0005b6 0000!
    1709 0005b8 3D04  ||      MOV #0, T0
    1710              
    1711                                                      ; call occurs [#_ulTaskNotifyTake] ; |555| 
    1712 0005ba 6700          BCC $C$L15,AC0 == #0 ; |555| 
    1713                                                      ; branchcc occurs ; |555| 
    1714 0005bc       $C$DW$L$_prvNotifiedTask$8$E:
    1715 0005bc       $C$DW$L$_prvNotifiedTask$9$B:
    1716                      .dwpsn  file "../FreeRTOS/Demo/Common/Minimal/TaskNotify.c",line 557,column 4,is_stmt
    1717 0005bc ED31          MOV dbl(*(#_ulTimerNotificationsReceived)), AC0 ; |557| 
         0005be 0800 
         0005c0 0006-
    1718 0005c2 4010          ADD #1, AC0 ; |557| 
    1719 0005c4 EB31          MOV AC0, dbl(*(#_ulTimerNotificationsReceived)) ; |557| 
         0005c6 0800 
         0005c8 0006-
    1720 0005ca       $C$DW$L$_prvNotifiedTask$9$E:
    1721 0005ca       $C$L15:    
    1722 0005ca       $C$DW$L$_prvNotifiedTask$10$B:
TMS320C55x Assembler PC v4.4.1 Sun Sep 09 02:20:41 2018

Tools Copyright (c) 1996-2012 Texas Instruments Incorporated
TaskNotify.asm                                                       PAGE   39

    1723                      .dwpsn  file "../FreeRTOS/Demo/Common/Minimal/TaskNotify.c",line 564,column 3,is_stmt
    1724 0005ca A50A          MOV *SP(#5), T1 ; |564| 
    1725              $C$DW$160       .dwtag  DW_TAG_TI_branch
    1726                      .dwattr $C$DW$160, DW_AT_low_pc(0x00)
    1727                      .dwattr $C$DW$160, DW_AT_name("_ulTaskNotifyTake")
    1728                      .dwattr $C$DW$160, DW_AT_TI_call
    1729              
    1730 0005cc 6C00          CALL #_ulTaskNotifyTake ; |564| 
         0005ce 0000!
    1731 0005d0 3D14  ||      MOV #1, T0
    1732              
    1733                                                      ; call occurs [#_ulTaskNotifyTake] ; |564| 
    1734 0005d2 ED31          ADD dbl(*(#_ulTimerNotificationsReceived)), AC0, AC0 ; |564| 
         0005d4 0000 
         0005d6 0006-
    1735 0005d8 EB31          MOV AC0, dbl(*(#_ulTimerNotificationsReceived)) ; |564| 
         0005da 0800 
         0005dc 0006-
    1736                      .dwpsn  file "../FreeRTOS/Demo/Common/Minimal/TaskNotify.c",line 571,column 3,is_stmt
    1737 0005de ED0C          MOV dbl(*SP(#6)), AC1 ; |571| 
         0005e0 18   
    1738 0005e1 ED31          MOV dbl(*(#_ulNotifyCycleCount)), AC0 ; |571| 
         0005e3 0800 
         0005e5 0002-
    1739              $C$DW$161       .dwtag  DW_TAG_TI_branch
    1740                      .dwattr $C$DW$161, DW_AT_low_pc(0x00)
    1741                      .dwattr $C$DW$161, DW_AT_name("__remul")
    1742                      .dwattr $C$DW$161, DW_AT_TI_call
    1743 0005e7 6C00          CALL #__remul ; |571| 
         0005e9 0000!
    1744                                                      ; call occurs [#__remul] ; |571| 
    1745 0005eb 0410          BCC $C$L16,AC0 != #0 ; |571| 
         0005ed 30   
    1746                                                      ; branchcc occurs ; |571| 
    1747 0005ee       $C$DW$L$_prvNotifiedTask$10$E:
    1748 0005ee       $C$DW$L$_prvNotifiedTask$11$B:
    1749                      .dwpsn  file "../FreeRTOS/Demo/Common/Minimal/TaskNotify.c",line 573,column 4,is_stmt
    1750 0005ee ED31          MOV dbl(*(#_xTaskToNotify)), XAR0
         0005f0 8F00 
         0005f2 0004-
    1751              $C$DW$162       .dwtag  DW_TAG_TI_branch
    1752                      .dwattr $C$DW$162, DW_AT_low_pc(0x00)
    1753                      .dwattr $C$DW$162, DW_AT_name("_vTaskPrioritySet")
    1754                      .dwattr $C$DW$162, DW_AT_TI_call
    1755              
    1756 0005f4 6C00          CALL #_vTaskPrioritySet ; |573| 
         0005f6 0000!
    1757 0005f8 3D34  ||      MOV #3, T0
    1758              
    1759                                                      ; call occurs [#_vTaskPrioritySet] ; |573| 
    1760                      .dwpsn  file "../FreeRTOS/Demo/Common/Minimal/TaskNotify.c",line 577,column 4,is_stmt
    1761 0005fa 76FF          MOV #65535, T1 ; |577| 
         0005fc FF58 
    1762              $C$DW$163       .dwtag  DW_TAG_TI_branch
    1763                      .dwattr $C$DW$163, DW_AT_low_pc(0x00)
TMS320C55x Assembler PC v4.4.1 Sun Sep 09 02:20:41 2018

Tools Copyright (c) 1996-2012 Texas Instruments Incorporated
TaskNotify.asm                                                       PAGE   40

    1764                      .dwattr $C$DW$163, DW_AT_name("_ulTaskNotifyTake")
    1765                      .dwattr $C$DW$163, DW_AT_TI_call
    1766              
    1767 0005fe 6C00          CALL #_ulTaskNotifyTake ; |577| 
         000600 0000!
    1768 000602 3D14  ||      MOV #1, T0
    1769              
    1770                                                      ; call occurs [#_ulTaskNotifyTake] ; |577| 
    1771 000604 ED31          ADD dbl(*(#_ulTimerNotificationsReceived)), AC0, AC0 ; |577| 
         000606 0000 
         000608 0006-
    1772 00060a EB31          MOV AC0, dbl(*(#_ulTimerNotificationsReceived)) ; |577| 
         00060c 0800 
         00060e 0006-
    1773                      .dwpsn  file "../FreeRTOS/Demo/Common/Minimal/TaskNotify.c",line 580,column 4,is_stmt
    1774 000610 ED31          MOV dbl(*(#_xTaskToNotify)), XAR0
         000612 8F00 
         000614 0004-
    1775              $C$DW$164       .dwtag  DW_TAG_TI_branch
    1776                      .dwattr $C$DW$164, DW_AT_low_pc(0x00)
    1777                      .dwattr $C$DW$164, DW_AT_name("_vTaskPrioritySet")
    1778                      .dwattr $C$DW$164, DW_AT_TI_call
    1779              
    1780 000616 6C00          CALL #_vTaskPrioritySet ; |580| 
         000618 0000!
    1781 00061a 3D04  ||      MOV #0, T0
    1782              
    1783                                                      ; call occurs [#_vTaskPrioritySet] ; |580| 
    1784                      .dwpsn  file "../FreeRTOS/Demo/Common/Minimal/TaskNotify.c",line 581,column 3,is_stmt
    1785 00061c 4A16          B $C$L17  ; |581| 
    1786                                                      ; branch occurs ; |581| 
    1787 00061e       $C$DW$L$_prvNotifiedTask$11$E:
    1788 00061e       $C$L16:    
    1789 00061e       $C$DW$L$_prvNotifiedTask$12$B:
    1790                      .dwpsn  file "../FreeRTOS/Demo/Common/Minimal/TaskNotify.c",line 586,column 4,is_stmt
    1791 00061e 76FF          MOV #65535, T1 ; |586| 
         000620 FF58 
    1792              $C$DW$165       .dwtag  DW_TAG_TI_branch
    1793                      .dwattr $C$DW$165, DW_AT_low_pc(0x00)
    1794                      .dwattr $C$DW$165, DW_AT_name("_ulTaskNotifyTake")
    1795                      .dwattr $C$DW$165, DW_AT_TI_call
    1796              
    1797 000622 6C00          CALL #_ulTaskNotifyTake ; |586| 
         000624 0000!
    1798 000626 3D14  ||      MOV #1, T0
    1799              
    1800                                                      ; call occurs [#_ulTaskNotifyTake] ; |586| 
    1801 000628 ED31          ADD dbl(*(#_ulTimerNotificationsReceived)), AC0, AC0 ; |586| 
         00062a 0000 
         00062c 0006-
    1802 00062e EB31          MOV AC0, dbl(*(#_ulTimerNotificationsReceived)) ; |586| 
         000630 0800 
         000632 0006-
    1803 000634       $C$DW$L$_prvNotifiedTask$12$E:
    1804 000634       $C$L17:    
TMS320C55x Assembler PC v4.4.1 Sun Sep 09 02:20:41 2018

Tools Copyright (c) 1996-2012 Texas Instruments Incorporated
TaskNotify.asm                                                       PAGE   41

    1805 000634       $C$DW$L$_prvNotifiedTask$13$B:
    1806                      .dwpsn  file "../FreeRTOS/Demo/Common/Minimal/TaskNotify.c",line 590,column 3,is_stmt
    1807 000634 ED31          MOV dbl(*(#_ulNotifyCycleCount)), AC0 ; |590| 
         000636 0800 
         000638 0002-
    1808 00063a 4010          ADD #1, AC0 ; |590| 
    1809 00063c EB31          MOV AC0, dbl(*(#_ulNotifyCycleCount)) ; |590| 
         00063e 0800 
         000640 0002-
    1810                      .dwpsn  file "../FreeRTOS/Demo/Common/Minimal/TaskNotify.c",line 591,column 2,is_stmt
    1811 000642 06FF          B $C$L11  ; |591| 
         000644 11   
    1812                                                      ; branch occurs ; |591| 
    1813 000645       $C$DW$L$_prvNotifiedTask$13$E:
    1814                      .dwcfi  cfa_offset, 1
    1815              
    1816              $C$DW$166       .dwtag  DW_TAG_TI_loop
    1817                      .dwattr $C$DW$166, DW_AT_name("F:\eZdsp_DBG\eZDSP_5535_Files\ccsws2\test\Debug\TaskNotify.asm:$C$L11:
    1818                      .dwattr $C$DW$166, DW_AT_TI_begin_file("../FreeRTOS/Demo/Common/Minimal/TaskNotify.c")
    1819                      .dwattr $C$DW$166, DW_AT_TI_begin_line(0x209)
    1820                      .dwattr $C$DW$166, DW_AT_TI_end_line(0x24f)
    1821              $C$DW$167       .dwtag  DW_TAG_TI_loop_range
    1822                      .dwattr $C$DW$167, DW_AT_low_pc($C$DW$L$_prvNotifiedTask$2$B)
    1823                      .dwattr $C$DW$167, DW_AT_high_pc($C$DW$L$_prvNotifiedTask$2$E)
    1824              $C$DW$168       .dwtag  DW_TAG_TI_loop_range
    1825                      .dwattr $C$DW$168, DW_AT_low_pc($C$DW$L$_prvNotifiedTask$3$B)
    1826                      .dwattr $C$DW$168, DW_AT_high_pc($C$DW$L$_prvNotifiedTask$3$E)
    1827              $C$DW$169       .dwtag  DW_TAG_TI_loop_range
    1828                      .dwattr $C$DW$169, DW_AT_low_pc($C$DW$L$_prvNotifiedTask$4$B)
    1829                      .dwattr $C$DW$169, DW_AT_high_pc($C$DW$L$_prvNotifiedTask$4$E)
    1830              $C$DW$170       .dwtag  DW_TAG_TI_loop_range
    1831                      .dwattr $C$DW$170, DW_AT_low_pc($C$DW$L$_prvNotifiedTask$5$B)
    1832                      .dwattr $C$DW$170, DW_AT_high_pc($C$DW$L$_prvNotifiedTask$5$E)
    1833              $C$DW$171       .dwtag  DW_TAG_TI_loop_range
    1834                      .dwattr $C$DW$171, DW_AT_low_pc($C$DW$L$_prvNotifiedTask$6$B)
    1835                      .dwattr $C$DW$171, DW_AT_high_pc($C$DW$L$_prvNotifiedTask$6$E)
    1836              $C$DW$172       .dwtag  DW_TAG_TI_loop_range
    1837                      .dwattr $C$DW$172, DW_AT_low_pc($C$DW$L$_prvNotifiedTask$7$B)
    1838                      .dwattr $C$DW$172, DW_AT_high_pc($C$DW$L$_prvNotifiedTask$7$E)
    1839              $C$DW$173       .dwtag  DW_TAG_TI_loop_range
    1840                      .dwattr $C$DW$173, DW_AT_low_pc($C$DW$L$_prvNotifiedTask$8$B)
    1841                      .dwattr $C$DW$173, DW_AT_high_pc($C$DW$L$_prvNotifiedTask$8$E)
    1842              $C$DW$174       .dwtag  DW_TAG_TI_loop_range
    1843                      .dwattr $C$DW$174, DW_AT_low_pc($C$DW$L$_prvNotifiedTask$9$B)
    1844                      .dwattr $C$DW$174, DW_AT_high_pc($C$DW$L$_prvNotifiedTask$9$E)
    1845              $C$DW$175       .dwtag  DW_TAG_TI_loop_range
    1846                      .dwattr $C$DW$175, DW_AT_low_pc($C$DW$L$_prvNotifiedTask$10$B)
    1847                      .dwattr $C$DW$175, DW_AT_high_pc($C$DW$L$_prvNotifiedTask$10$E)
    1848              $C$DW$176       .dwtag  DW_TAG_TI_loop_range
    1849                      .dwattr $C$DW$176, DW_AT_low_pc($C$DW$L$_prvNotifiedTask$11$B)
    1850                      .dwattr $C$DW$176, DW_AT_high_pc($C$DW$L$_prvNotifiedTask$11$E)
    1851              $C$DW$177       .dwtag  DW_TAG_TI_loop_range
    1852                      .dwattr $C$DW$177, DW_AT_low_pc($C$DW$L$_prvNotifiedTask$12$B)
    1853                      .dwattr $C$DW$177, DW_AT_high_pc($C$DW$L$_prvNotifiedTask$12$E)
    1854              $C$DW$178       .dwtag  DW_TAG_TI_loop_range
TMS320C55x Assembler PC v4.4.1 Sun Sep 09 02:20:41 2018

Tools Copyright (c) 1996-2012 Texas Instruments Incorporated
TaskNotify.asm                                                       PAGE   42

    1855                      .dwattr $C$DW$178, DW_AT_low_pc($C$DW$L$_prvNotifiedTask$13$B)
    1856                      .dwattr $C$DW$178, DW_AT_high_pc($C$DW$L$_prvNotifiedTask$13$E)
    1857                      .dwendtag $C$DW$166
    1858              
    1859                      .dwattr $C$DW$143, DW_AT_TI_end_file("../FreeRTOS/Demo/Common/Minimal/TaskNotify.c")
    1860                      .dwattr $C$DW$143, DW_AT_TI_end_line(0x250)
    1861                      .dwattr $C$DW$143, DW_AT_TI_end_column(0x01)
    1862                      .dwendentry
    1863                      .dwendtag $C$DW$143
    1864              
    1865 000645               .sect   ".text"
    1866                      .align 4
    1867                      .global _xNotifyTaskFromISR
    1868              
    1869              $C$DW$179       .dwtag  DW_TAG_subprogram, DW_AT_name("xNotifyTaskFromISR")
    1870                      .dwattr $C$DW$179, DW_AT_low_pc(_xNotifyTaskFromISR)
    1871                      .dwattr $C$DW$179, DW_AT_high_pc(0x00)
    1872                      .dwattr $C$DW$179, DW_AT_TI_symbol_name("_xNotifyTaskFromISR")
    1873                      .dwattr $C$DW$179, DW_AT_external
    1874                      .dwattr $C$DW$179, DW_AT_TI_begin_file("../FreeRTOS/Demo/Common/Minimal/TaskNotify.c")
    1875                      .dwattr $C$DW$179, DW_AT_TI_begin_line(0x253)
    1876                      .dwattr $C$DW$179, DW_AT_TI_begin_column(0x06)
    1877                      .dwattr $C$DW$179, DW_AT_TI_max_frame_size(0x08)
    1878                      .dwpsn  file "../FreeRTOS/Demo/Common/Minimal/TaskNotify.c",line 596,column 1,is_stmt,address _xNotif
    1879              
    1880                      .dwfde $C$DW$CIE, _xNotifyTaskFromISR
    1881              $C$DW$180       .dwtag  DW_TAG_variable, DW_AT_name("xCallCount")
    1882                      .dwattr $C$DW$180, DW_AT_TI_symbol_name("_xCallCount$2")
    1883                      .dwattr $C$DW$180, DW_AT_type(*$C$DW$T$34)
    1884                      .dwattr $C$DW$180, DW_AT_location[DW_OP_addr _xCallCount$2]
    1885              $C$DW$181       .dwtag  DW_TAG_variable, DW_AT_name("xAPIToUse")
    1886                      .dwattr $C$DW$181, DW_AT_TI_symbol_name("_xAPIToUse$3")
    1887                      .dwattr $C$DW$181, DW_AT_type(*$C$DW$T$34)
    1888                      .dwattr $C$DW$181, DW_AT_location[DW_OP_addr _xAPIToUse$3]
    1889              ;*******************************************************************************
    1890              ;* FUNCTION NAME: xNotifyTaskFromISR                                           *
    1891              ;*                                                                             *
    1892              ;*   Function Uses Regs : AC0,AC0,T0,AR0,XAR0,AR1,XAR1,AR2,XAR2,AR3,XAR3,SP,   *
    1893              ;*                        CARRY,TC1,M40,SATA,SATD,RDM,FRCT,SMUL                *
    1894              ;*   Stack Frame        : Compact (No Frame Pointer, w/ debug)                 *
    1895              ;*   Total Frame Size   : 8 words                                              *
    1896              ;*                        (2 return address/alignment)                         *
    1897              ;*                        (6 local values)                                     *
    1898              ;*   Min System Stack   : 1 word                                               *
    1899              ;*******************************************************************************
    1900 000648       _xNotifyTaskFromISR:
    1901                      .dwcfi  cfa_offset, 1
    1902                      .dwcfi  save_reg_to_mem, 91, -1
    1903 000648 4EF9          AADD #-7, SP
    1904                      .dwcfi  cfa_offset, 8
    1905              $C$DW$182       .dwtag  DW_TAG_variable, DW_AT_name("xCallInterval")
    1906                      .dwattr $C$DW$182, DW_AT_TI_symbol_name("_xCallInterval")
    1907                      .dwattr $C$DW$182, DW_AT_type(*$C$DW$T$45)
    1908                      .dwattr $C$DW$182, DW_AT_location[DW_OP_bregx 0x24 0]
    1909              $C$DW$183       .dwtag  DW_TAG_variable, DW_AT_name("ulPreviousValue")
TMS320C55x Assembler PC v4.4.1 Sun Sep 09 02:20:41 2018

Tools Copyright (c) 1996-2012 Texas Instruments Incorporated
TaskNotify.asm                                                       PAGE   43

    1910                      .dwattr $C$DW$183, DW_AT_TI_symbol_name("_ulPreviousValue")
    1911                      .dwattr $C$DW$183, DW_AT_type(*$C$DW$T$56)
    1912                      .dwattr $C$DW$183, DW_AT_location[DW_OP_bregx 0x24 2]
    1913              $C$DW$184       .dwtag  DW_TAG_variable, DW_AT_name("ulUnexpectedValue")
    1914                      .dwattr $C$DW$184, DW_AT_TI_symbol_name("_ulUnexpectedValue")
    1915                      .dwattr $C$DW$184, DW_AT_type(*$C$DW$T$81)
    1916                      .dwattr $C$DW$184, DW_AT_location[DW_OP_bregx 0x24 4]
    1917                      .dwpsn  file "../FreeRTOS/Demo/Common/Minimal/TaskNotify.c",line 598,column 18,is_stmt
    1918 00064a E600          MOV #50, *SP(#0) ; |598| 
         00064c 32   
    1919                      .dwpsn  file "../FreeRTOS/Demo/Common/Minimal/TaskNotify.c",line 600,column 16,is_stmt
    1920 00064d 7600          MOV #255, AC0 ; |600| 
         00064f FF08 
    1921 000651 EB08          MOV AC0, dbl(*SP(#4)) ; |600| 
         000653 08   
    1922                      .dwpsn  file "../FreeRTOS/Demo/Common/Minimal/TaskNotify.c",line 606,column 2,is_stmt
    1923 000654 ED31          MOV dbl(*(#_xTimer)), XAR3
         000656 BF00 
         000658 000A-
    1924 00065a 90B0          MOV XAR3, AC0
    1925 00065c 6D00          BCC $C$L23,AC0 == #0 ; |606| 
         00065e 00A6 
    1926                                                      ; branchcc occurs ; |606| 
    1927                      .dwpsn  file "../FreeRTOS/Demo/Common/Minimal/TaskNotify.c",line 608,column 3,is_stmt
    1928 000660 F731          ADD #1, *(#_xCallCount$2) ; |608| 
         000662 0001 
         000664 0000 
         000666 0E-  
    1929                      .dwpsn  file "../FreeRTOS/Demo/Common/Minimal/TaskNotify.c",line 610,column 3,is_stmt
    1930 000667 A900          MOV *SP(#0), AR1 ; |610| 
    1931 000669 AA31          MOV *(#_xCallCount$2), AR2 ; |610| 
         00066b 0000 
         00066d 0E-  
    1932 00066e 12A4          CMP AR2 < AR1, TC1 ; |610| 
         000670 90   
    1933 000671 6D64          BCC $C$L23,TC1 ; |610| 
         000673 0091 
    1934                                                      ; branchcc occurs ; |610| 
    1935                      .dwpsn  file "../FreeRTOS/Demo/Common/Minimal/TaskNotify.c",line 613,column 4,is_stmt
    1936 000675 E631          MOV #0, *(#_xCallCount$2) ; |613| 
         000677 0000 
         000679 000E-
    1937                      .dwpsn  file "../FreeRTOS/Demo/Common/Minimal/TaskNotify.c",line 617,column 4,is_stmt
    1938 00067b 0600          B $C$L21  ; |617| 
         00067d 62   
    1939                                                      ; branch occurs ; |617| 
    1940 00067e       $C$L18:    
    1941                      .dwpsn  file "../FreeRTOS/Demo/Common/Minimal/TaskNotify.c",line 619,column 13,is_stmt
    1942 00067e ED31          MOV dbl(*(#_xTaskToNotify)), XAR0
         000680 8F00 
         000682 0004-
    1943 000684 EC31          AMOV #0, XAR1 ; |619| 
         000686 9E00 
         000688 0000 
    1944              $C$DW$185       .dwtag  DW_TAG_TI_branch
TMS320C55x Assembler PC v4.4.1 Sun Sep 09 02:20:41 2018

Tools Copyright (c) 1996-2012 Texas Instruments Incorporated
TaskNotify.asm                                                       PAGE   44

    1945                      .dwattr $C$DW$185, DW_AT_low_pc(0x00)
    1946                      .dwattr $C$DW$185, DW_AT_name("_vTaskNotifyGiveFromISR")
    1947                      .dwattr $C$DW$185, DW_AT_TI_call
    1948 00068a 6C00          CALL #_vTaskNotifyGiveFromISR ; |619| 
         00068c 0000!
    1949                                                      ; call occurs [#_vTaskNotifyGiveFromISR] ; |619| 
    1950                      .dwpsn  file "../FreeRTOS/Demo/Common/Minimal/TaskNotify.c",line 620,column 7,is_stmt
    1951 00068e F731          ADD #1, *(#_xAPIToUse$3) ; |620| 
         000690 0001 
         000692 0000 
         000694 0F-  
    1952                      .dwpsn  file "../FreeRTOS/Demo/Common/Minimal/TaskNotify.c",line 621,column 12,is_stmt
    1953 000695 0600          B $C$L22  ; |621| 
         000697 60   
    1954                                                      ; branch occurs ; |621| 
    1955 000698       $C$L19:    
    1956                      .dwpsn  file "../FreeRTOS/Demo/Common/Minimal/TaskNotify.c",line 623,column 13,is_stmt
    1957 000698 ED31          MOV dbl(*(#_xTaskToNotify)), XAR0
         00069a 8F00 
         00069c 0004-
    1958 00069e EC31          AMOV #0, XAR2 ; |623| 
         0006a0 AE00 
         0006a2 0000 
    1959 0006a4 EC31          AMOV #0, XAR1 ; |623| 
         0006a6 9E00 
         0006a8 0000 
    1960 0006aa 3C00          MOV #0, AC0 ; |623| 
    1961              $C$DW$186       .dwtag  DW_TAG_TI_branch
    1962                      .dwattr $C$DW$186, DW_AT_low_pc(0x00)
    1963                      .dwattr $C$DW$186, DW_AT_name("_xTaskGenericNotifyFromISR")
    1964                      .dwattr $C$DW$186, DW_AT_TI_call
    1965              
    1966 0006ac 6C00          CALL #_xTaskGenericNotifyFromISR ; |623| 
         0006ae 0000!
    1967 0006b0 3D24  ||      MOV #2, T0
    1968              
    1969                                                      ; call occurs [#_xTaskGenericNotifyFromISR] ; |623| 
    1970                      .dwpsn  file "../FreeRTOS/Demo/Common/Minimal/TaskNotify.c",line 624,column 7,is_stmt
    1971 0006b2 F731          ADD #1, *(#_xAPIToUse$3) ; |624| 
         0006b4 0001 
         0006b6 0000 
         0006b8 0F-  
    1972                      .dwpsn  file "../FreeRTOS/Demo/Common/Minimal/TaskNotify.c",line 625,column 12,is_stmt
    1973 0006b9 4A3D          B $C$L22  ; |625| 
    1974                                                      ; branch occurs ; |625| 
    1975 0006bb       $C$L20:    
    1976                      .dwpsn  file "../FreeRTOS/Demo/Common/Minimal/TaskNotify.c",line 627,column 13,is_stmt
    1977 0006bb ED08          MOV dbl(*SP(#4)), AC0 ; |627| 
         0006bd 08   
    1978 0006be EB04          MOV AC0, dbl(*SP(#2)) ; |627| 
         0006c0 08   
    1979                      .dwpsn  file "../FreeRTOS/Demo/Common/Minimal/TaskNotify.c",line 628,column 7,is_stmt
    1980 0006c1 ED31          MOV dbl(*(#_xTaskToNotify)), XAR0
         0006c3 8F00 
         0006c5 0004-
TMS320C55x Assembler PC v4.4.1 Sun Sep 09 02:20:41 2018

Tools Copyright (c) 1996-2012 Texas Instruments Incorporated
TaskNotify.asm                                                       PAGE   45

    1981 0006c7 EC31          AMOV #0, XAR2 ; |628| 
         0006c9 AE00 
         0006cb 0000 
    1982              
    1983 0006d0 3D24          MOV #2, T0
    1984 0006cd EC04  ||      AMAR *SP(#2), XAR1
         0006cf 9E   
    1985              
    1986              $C$DW$187       .dwtag  DW_TAG_TI_branch
    1987                      .dwattr $C$DW$187, DW_AT_low_pc(0x00)
    1988                      .dwattr $C$DW$187, DW_AT_name("_xTaskGenericNotifyFromISR")
    1989                      .dwattr $C$DW$187, DW_AT_TI_call
    1990              
    1991 0006d2 6C00          CALL #_xTaskGenericNotifyFromISR ; |628| 
         0006d4 0000!
    1992 0006d6 3D00  ||      MOV #0, AC0 ; |628| 
    1993              
    1994                                                      ; call occurs [#_xTaskGenericNotifyFromISR] ; |628| 
    1995                      .dwpsn  file "../FreeRTOS/Demo/Common/Minimal/TaskNotify.c",line 630,column 7,is_stmt
    1996 0006d8 E631          MOV #0, *(#_xAPIToUse$3) ; |630| 
         0006da 0000 
         0006dc 000F-
    1997                      .dwpsn  file "../FreeRTOS/Demo/Common/Minimal/TaskNotify.c",line 631,column 12,is_stmt
    1998 0006de 4A18          B $C$L22  ; |631| 
    1999                                                      ; branch occurs ; |631| 
    2000 0006e0       $C$L21:    
    2001                      .dwpsn  file "../FreeRTOS/Demo/Common/Minimal/TaskNotify.c",line 617,column 4,is_stmt
    2002 0006e0 A931          MOV *(#_xAPIToUse$3), AR1 ; |617| 
         0006e2 0000 
         0006e4 0F-  
    2003 0006e5 0409          BCC $C$L18,AR1 == #0 ; |617| 
         0006e7 96   
    2004                                                      ; branchcc occurs ; |617| 
    2005 0006e8 3C1A          MOV #1, AR2
    2006 0006ea 1290          CMP AR1 == AR2, TC1 ; |617| 
         0006ec A0   
    2007 0006ed 0464          BCC $C$L19,TC1 ; |617| 
         0006ef A8   
    2008                                                      ; branchcc occurs ; |617| 
    2009 0006f0 3C2A          MOV #2, AR2
    2010 0006f2 1290          CMP AR1 == AR2, TC1 ; |617| 
         0006f4 A0   
    2011 0006f5 0464          BCC $C$L20,TC1 ; |617| 
         0006f7 C3   
    2012                                                      ; branchcc occurs ; |617| 
    2013 0006f8       $C$L22:    
    2014                      .dwpsn  file "../FreeRTOS/Demo/Common/Minimal/TaskNotify.c",line 637,column 4,is_stmt
    2015 0006f8 ED31          MOV dbl(*(#_ulTimerNotificationsSent)), AC0 ; |637| 
         0006fa 0800 
         0006fc 0008-
    2016 0006fe 4010          ADD #1, AC0 ; |637| 
    2017 000700 EB31          MOV AC0, dbl(*(#_ulTimerNotificationsSent)) ; |637| 
         000702 0800 
         000704 0008-
    2018                      .dwpsn  file "../FreeRTOS/Demo/Common/Minimal/TaskNotify.c",line 640,column 1,is_stmt
TMS320C55x Assembler PC v4.4.1 Sun Sep 09 02:20:41 2018

Tools Copyright (c) 1996-2012 Texas Instruments Incorporated
TaskNotify.asm                                                       PAGE   46

    2019 000706       $C$L23:    
    2020 000706 4E07          AADD #7, SP
    2021                      .dwcfi  cfa_offset, 1
    2022              $C$DW$188       .dwtag  DW_TAG_TI_branch
    2023                      .dwattr $C$DW$188, DW_AT_low_pc(0x00)
    2024                      .dwattr $C$DW$188, DW_AT_TI_return
    2025 000708 4804          RET
    2026                                                      ; return occurs
    2027                      .dwattr $C$DW$179, DW_AT_TI_end_file("../FreeRTOS/Demo/Common/Minimal/TaskNotify.c")
    2028                      .dwattr $C$DW$179, DW_AT_TI_end_line(0x280)
    2029                      .dwattr $C$DW$179, DW_AT_TI_end_column(0x01)
    2030                      .dwendentry
    2031                      .dwendtag $C$DW$179
    2032              
    2033 00070a               .sect   ".text"
    2034                      .align 4
    2035                      .global _xAreTaskNotificationTasksStillRunning
    2036              
    2037              $C$DW$189       .dwtag  DW_TAG_subprogram, DW_AT_name("xAreTaskNotificationTasksStillRunning")
    2038                      .dwattr $C$DW$189, DW_AT_low_pc(_xAreTaskNotificationTasksStillRunning)
    2039                      .dwattr $C$DW$189, DW_AT_high_pc(0x00)
    2040                      .dwattr $C$DW$189, DW_AT_TI_symbol_name("_xAreTaskNotificationTasksStillRunning")
    2041                      .dwattr $C$DW$189, DW_AT_external
    2042                      .dwattr $C$DW$189, DW_AT_type(*$C$DW$T$34)
    2043                      .dwattr $C$DW$189, DW_AT_TI_begin_file("../FreeRTOS/Demo/Common/Minimal/TaskNotify.c")
    2044                      .dwattr $C$DW$189, DW_AT_TI_begin_line(0x285)
    2045                      .dwattr $C$DW$189, DW_AT_TI_begin_column(0x0c)
    2046                      .dwattr $C$DW$189, DW_AT_TI_max_frame_size(0x04)
    2047                      .dwpsn  file "../FreeRTOS/Demo/Common/Minimal/TaskNotify.c",line 646,column 1,is_stmt,address _xAreTa
    2048              
    2049                      .dwfde $C$DW$CIE, _xAreTaskNotificationTasksStillRunning
    2050              $C$DW$190       .dwtag  DW_TAG_variable, DW_AT_name("ulLastNotifyCycleCount")
    2051                      .dwattr $C$DW$190, DW_AT_TI_symbol_name("_ulLastNotifyCycleCount$4")
    2052                      .dwattr $C$DW$190, DW_AT_type(*$C$DW$T$56)
    2053                      .dwattr $C$DW$190, DW_AT_location[DW_OP_addr _ulLastNotifyCycleCount$4]
    2054              ;*******************************************************************************
    2055              ;* FUNCTION NAME: xAreTaskNotificationTasksStillRunning                        *
    2056              ;*                                                                             *
    2057              ;*   Function Uses Regs : AC0,AC0,AC1,AC1,T0,SP,CARRY,TC1,M40,SATA,SATD,RDM,   *
    2058              ;*                        FRCT,SMUL                                            *
    2059              ;*   Stack Frame        : Compact (No Frame Pointer, w/ debug)                 *
    2060              ;*   Total Frame Size   : 4 words                                              *
    2061              ;*                        (2 return address/alignment)                         *
    2062              ;*                        (2 local values)                                     *
    2063              ;*   Min System Stack   : 1 word                                               *
    2064              ;*******************************************************************************
    2065 00070c       _xAreTaskNotificationTasksStillRunning:
    2066                      .dwcfi  cfa_offset, 1
    2067                      .dwcfi  save_reg_to_mem, 91, -1
    2068 00070c 4EFD          AADD #-3, SP
    2069                      .dwcfi  cfa_offset, 4
    2070              $C$DW$191       .dwtag  DW_TAG_variable, DW_AT_name("ulMaxSendReceiveDeviation")
    2071                      .dwattr $C$DW$191, DW_AT_TI_symbol_name("_ulMaxSendReceiveDeviation")
    2072                      .dwattr $C$DW$191, DW_AT_type(*$C$DW$T$81)
    2073                      .dwattr $C$DW$191, DW_AT_location[DW_OP_bregx 0x24 0]
TMS320C55x Assembler PC v4.4.1 Sun Sep 09 02:20:41 2018

Tools Copyright (c) 1996-2012 Texas Instruments Incorporated
TaskNotify.asm                                                       PAGE   47

    2074                      .dwpsn  file "../FreeRTOS/Demo/Common/Minimal/TaskNotify.c",line 648,column 16,is_stmt
    2075 00070e 3C50          MOV #5, AC0 ; |648| 
    2076 000710 EB00          MOV AC0, dbl(*SP(#0)) ; |648| 
         000712 08   
    2077                      .dwpsn  file "../FreeRTOS/Demo/Common/Minimal/TaskNotify.c",line 652,column 2,is_stmt
    2078 000713 ED31          MOV dbl(*(#_ulLastNotifyCycleCount$4)), AC1 ; |652| 
         000715 1800 
         000717 0010-
    2079 000719 ED31          MOV dbl(*(#_ulNotifyCycleCount)), AC0 ; |652| 
         00071b 0800 
         00071d 0002-
    2080 00071f 121C          CMPU AC1 != AC0, TC1 ; |652| 
         000721 04   
    2081 000722 6464          BCC $C$L24,TC1 ; |652| 
    2082                                                      ; branchcc occurs ; |652| 
    2083                      .dwpsn  file "../FreeRTOS/Demo/Common/Minimal/TaskNotify.c",line 654,column 3,is_stmt
    2084 000724 E631          MOV #0, *(#_xErrorStatus) ; |654| 
         000726 0000 
         000728 0000-
    2085                      .dwpsn  file "../FreeRTOS/Demo/Common/Minimal/TaskNotify.c",line 655,column 2,is_stmt
    2086 00072a 4A0C          B $C$L25  ; |655| 
    2087                                                      ; branch occurs ; |655| 
    2088 00072c       $C$L24:    
    2089                      .dwpsn  file "../FreeRTOS/Demo/Common/Minimal/TaskNotify.c",line 658,column 3,is_stmt
    2090 00072c ED31          MOV dbl(*(#_ulNotifyCycleCount)), AC0 ; |658| 
         00072e 0800 
         000730 0002-
    2091 000732 EB31          MOV AC0, dbl(*(#_ulLastNotifyCycleCount$4)) ; |658| 
         000734 0800 
         000736 0010-
    2092 000738       $C$L25:    
    2093                      .dwpsn  file "../FreeRTOS/Demo/Common/Minimal/TaskNotify.c",line 663,column 2,is_stmt
    2094 000738 ED31          MOV dbl(*(#_ulTimerNotificationsReceived)), AC0 ; |663| 
         00073a 0800 
         00073c 0006-
    2095 00073e ED31          MOV dbl(*(#_ulTimerNotificationsSent)), AC1 ; |663| 
         000740 1800 
         000742 0008-
    2096 000744 1208          CMPU AC1 <= AC0, TC1 ; |663| 
         000746 14   
    2097 000747 0464          BCC $C$L26,TC1 ; |663| 
         000749 1A   
    2098                                                      ; branchcc occurs ; |663| 
    2099                      .dwpsn  file "../FreeRTOS/Demo/Common/Minimal/TaskNotify.c",line 665,column 3,is_stmt
    2100 00074a ED31          MOV dbl(*(#_ulTimerNotificationsReceived)), AC1 ; |665| 
         00074c 1800 
         00074e 0006-
    2101 000750 ED00          MOV dbl(*SP(#0)), AC0 ; |665| 
         000752 08   
    2102 000753 ED31          SUB AC1, dbl(*(#_ulTimerNotificationsSent)), AC1 ; |665| 
         000755 5400 
         000757 0008-
    2103 000759 1208          CMPU AC1 <= AC0, TC1 ; |665| 
         00075b 14   
    2104 00075c 6364          BCC $C$L26,TC1 ; |665| 
TMS320C55x Assembler PC v4.4.1 Sun Sep 09 02:20:41 2018

Tools Copyright (c) 1996-2012 Texas Instruments Incorporated
TaskNotify.asm                                                       PAGE   48

    2105                                                      ; branchcc occurs ; |665| 
    2106                      .dwpsn  file "../FreeRTOS/Demo/Common/Minimal/TaskNotify.c",line 667,column 4,is_stmt
    2107 00075e E631          MOV #0, *(#_xErrorStatus) ; |667| 
         000760 0000 
         000762 0000-
    2108 000764       $C$L26:    
    2109                      .dwpsn  file "../FreeRTOS/Demo/Common/Minimal/TaskNotify.c",line 671,column 2,is_stmt
    2110 000764 A431          MOV *(#_xErrorStatus), T0 ; |671| 
         000766 0000 
         000768 00-  
    2111                      .dwpsn  file "../FreeRTOS/Demo/Common/Minimal/TaskNotify.c",line 672,column 1,is_stmt
    2112 000769 4E03          AADD #3, SP
    2113                      .dwcfi  cfa_offset, 1
    2114              $C$DW$192       .dwtag  DW_TAG_TI_branch
    2115                      .dwattr $C$DW$192, DW_AT_low_pc(0x00)
    2116                      .dwattr $C$DW$192, DW_AT_TI_return
    2117 00076b 4804          RET
    2118                                                      ; return occurs
    2119                      .dwattr $C$DW$189, DW_AT_TI_end_file("../FreeRTOS/Demo/Common/Minimal/TaskNotify.c")
    2120                      .dwattr $C$DW$189, DW_AT_TI_end_line(0x2a0)
    2121                      .dwattr $C$DW$189, DW_AT_TI_end_column(0x01)
    2122                      .dwendentry
    2123                      .dwendtag $C$DW$189
    2124              
    2125 00076d               .sect   ".text"
    2126                      .align 4
    2127              
    2128              $C$DW$193       .dwtag  DW_TAG_subprogram, DW_AT_name("prvRand")
    2129                      .dwattr $C$DW$193, DW_AT_low_pc(_prvRand)
    2130                      .dwattr $C$DW$193, DW_AT_high_pc(0x00)
    2131                      .dwattr $C$DW$193, DW_AT_TI_symbol_name("_prvRand")
    2132                      .dwattr $C$DW$193, DW_AT_type(*$C$DW$T$29)
    2133                      .dwattr $C$DW$193, DW_AT_TI_begin_file("../FreeRTOS/Demo/Common/Minimal/TaskNotify.c")
    2134                      .dwattr $C$DW$193, DW_AT_TI_begin_line(0x2a3)
    2135                      .dwattr $C$DW$193, DW_AT_TI_begin_column(0x14)
    2136                      .dwattr $C$DW$193, DW_AT_TI_max_frame_size(0x04)
    2137                      .dwpsn  file "../FreeRTOS/Demo/Common/Minimal/TaskNotify.c",line 676,column 1,is_stmt,address _prvRan
    2138              
    2139                      .dwfde $C$DW$CIE, _prvRand
    2140              ;*******************************************************************************
    2141              ;* FUNCTION NAME: prvRand                                                      *
    2142              ;*                                                                             *
    2143              ;*   Function Uses Regs : AC0,T0,T1,AR1,SP,M40,SATA,SATD,RDM,FRCT,SMUL         *
    2144              ;*   Stack Frame        : Compact (No Frame Pointer, w/ debug)                 *
    2145              ;*   Total Frame Size   : 4 words                                              *
    2146              ;*                        (2 return address/alignment)                         *
    2147              ;*                        (2 local values)                                     *
    2148              ;*   Min System Stack   : 1 word                                               *
    2149              ;*******************************************************************************
    2150 000770       _prvRand:
    2151                      .dwcfi  cfa_offset, 1
    2152                      .dwcfi  save_reg_to_mem, 91, -1
    2153 000770 4EFD          AADD #-3, SP
    2154                      .dwcfi  cfa_offset, 4
    2155              $C$DW$194       .dwtag  DW_TAG_variable, DW_AT_name("uxMultiplier")
TMS320C55x Assembler PC v4.4.1 Sun Sep 09 02:20:41 2018

Tools Copyright (c) 1996-2012 Texas Instruments Incorporated
TaskNotify.asm                                                       PAGE   49

    2156                      .dwattr $C$DW$194, DW_AT_TI_symbol_name("_uxMultiplier")
    2157                      .dwattr $C$DW$194, DW_AT_type(*$C$DW$T$77)
    2158                      .dwattr $C$DW$194, DW_AT_location[DW_OP_bregx 0x24 0]
    2159              $C$DW$195       .dwtag  DW_TAG_variable, DW_AT_name("uxIncrement")
    2160                      .dwattr $C$DW$195, DW_AT_TI_symbol_name("_uxIncrement")
    2161                      .dwattr $C$DW$195, DW_AT_type(*$C$DW$T$77)
    2162                      .dwattr $C$DW$195, DW_AT_location[DW_OP_bregx 0x24 1]
    2163                      .dwpsn  file "../FreeRTOS/Demo/Common/Minimal/TaskNotify.c",line 677,column 14,is_stmt
    2164 000772 FB00          MOV #20021, *SP(#0) ; |677| 
         000774 4E35 
    2165                      .dwpsn  file "../FreeRTOS/Demo/Common/Minimal/TaskNotify.c",line 677,column 52,is_stmt
    2166 000776 E602          MOV #1, *SP(#1) ; |677| 
         000778 01   
    2167                      .dwpsn  file "../FreeRTOS/Demo/Common/Minimal/TaskNotify.c",line 680,column 2,is_stmt
    2168 000779 A531          MOV *(#_uxNextRand), T1 ; |680| 
         00077b 0000 
         00077d 01-  
    2169 00077e A002          MOV *SP(#1), AC0 ; |680| 
    2170 000780 D400          MACM *SP(#0), T1, AC0, AC0 ; |680| 
         000782 04   
    2171 000783 C031          MOV AC0, *(#_uxNextRand) ; |680| 
         000785 0000 
         000787 01-  
    2172                      .dwpsn  file "../FreeRTOS/Demo/Common/Minimal/TaskNotify.c",line 681,column 2,is_stmt
    2173 000788 2209          MOV AC0, AR1
    2174 00078a 7D7F          AND #0x7fff, AR1, T0 ; |681| 
         00078c FF49 
    2175                      .dwpsn  file "../FreeRTOS/Demo/Common/Minimal/TaskNotify.c",line 682,column 1,is_stmt
    2176 00078e 4E03          AADD #3, SP
    2177                      .dwcfi  cfa_offset, 1
    2178              $C$DW$196       .dwtag  DW_TAG_TI_branch
    2179                      .dwattr $C$DW$196, DW_AT_low_pc(0x00)
    2180                      .dwattr $C$DW$196, DW_AT_TI_return
    2181 000790 4804          RET
    2182                                                      ; return occurs
    2183                      .dwattr $C$DW$193, DW_AT_TI_end_file("../FreeRTOS/Demo/Common/Minimal/TaskNotify.c")
    2184                      .dwattr $C$DW$193, DW_AT_TI_end_line(0x2aa)
    2185                      .dwattr $C$DW$193, DW_AT_TI_end_column(0x01)
    2186                      .dwendentry
    2187                      .dwendtag $C$DW$193
    2188              
    2189              ;*******************************************************************************
    2190              ;* FAR STRINGS                                                                 *
    2191              ;*******************************************************************************
    2192 000000               .sect   ".const:.string"
    2193                      .align  2
    2194 000000 004E  $C$FSL1:        .string "Notified",0
         000001 006F 
         000002 0074 
         000003 0069 
         000004 0066 
         000005 0069 
         000006 0065 
         000007 0064 
         000008 0000 
TMS320C55x Assembler PC v4.4.1 Sun Sep 09 02:20:41 2018

Tools Copyright (c) 1996-2012 Texas Instruments Incorporated
TaskNotify.asm                                                       PAGE   50

    2195                      .align  2
    2196 00000a 0053  $C$FSL2:        .string "SingleNotify",0
         00000b 0069 
         00000c 006E 
         00000d 0067 
         00000e 006C 
         00000f 0065 
         000010 004E 
         000011 006F 
         000012 0074 
         000013 0069 
         000014 0066 
         000015 0079 
         000016 0000 
    2197                      .align  2
    2198 000018 004E  $C$FSL3:        .string "Notifier",0
         000019 006F 
         00001a 0074 
         00001b 0069 
         00001c 0066 
         00001d 0069 
         00001e 0065 
         00001f 0072 
         000020 0000 
    2199              ;******************************************************************************
    2200              ;* UNDEFINED EXTERNAL REFERENCES                                              *
    2201              ;******************************************************************************
    2202                      .global _xTaskCreate
    2203                      .global _vTaskPrioritySet
    2204                      .global _vTaskSuspend
    2205                      .global _vTaskResume
    2206                      .global _xTaskGetTickCount
    2207                      .global _xTaskGenericNotify
    2208                      .global _xTaskGenericNotifyFromISR
    2209                      .global _xTaskNotifyWait
    2210                      .global _vTaskNotifyGiveFromISR
    2211                      .global _ulTaskNotifyTake
    2212                      .global _xTimerCreate
    2213                      .global _xTimerGenericCommand
    2214                      .global _usCriticalNesting
    2215                      .global __remu
    2216                      .global __remul
    2217              
    2218              ;*******************************************************************************
    2219              ;* TYPE INFORMATION                                                            *
    2220              ;*******************************************************************************
    2221              
    2222              $C$DW$T$21      .dwtag  DW_TAG_enumeration_type
    2223                      .dwattr $C$DW$T$21, DW_AT_byte_size(0x01)
    2224              $C$DW$197       .dwtag  DW_TAG_enumerator, DW_AT_name("eNoAction"), DW_AT_const_value(0x00)
    2225              $C$DW$198       .dwtag  DW_TAG_enumerator, DW_AT_name("eSetBits"), DW_AT_const_value(0x01)
    2226              $C$DW$199       .dwtag  DW_TAG_enumerator, DW_AT_name("eIncrement"), DW_AT_const_value(0x02)
    2227              $C$DW$200       .dwtag  DW_TAG_enumerator, DW_AT_name("eSetValueWithOverwrite"), DW_AT_const_value(0x03)
    2228              $C$DW$201       .dwtag  DW_TAG_enumerator, DW_AT_name("eSetValueWithoutOverwrite"), DW_AT_const_value(0x04)
    2229                      .dwendtag $C$DW$T$21
TMS320C55x Assembler PC v4.4.1 Sun Sep 09 02:20:41 2018

Tools Copyright (c) 1996-2012 Texas Instruments Incorporated
TaskNotify.asm                                                       PAGE   51

    2230              
    2231              $C$DW$T$22      .dwtag  DW_TAG_typedef, DW_AT_name("eNotifyAction")
    2232                      .dwattr $C$DW$T$22, DW_AT_type(*$C$DW$T$21)
    2233                      .dwattr $C$DW$T$22, DW_AT_language(DW_LANG_C)
    2234              $C$DW$T$3       .dwtag  DW_TAG_pointer_type
    2235                      .dwattr $C$DW$T$3, DW_AT_address_class(0x17)
    2236              $C$DW$202       .dwtag  DW_TAG_TI_far_type
    2237                      .dwattr $C$DW$202, DW_AT_type(*$C$DW$T$3)
    2238              $C$DW$T$23      .dwtag  DW_TAG_const_type
    2239                      .dwattr $C$DW$T$23, DW_AT_type(*$C$DW$202)
    2240              
    2241              $C$DW$T$24      .dwtag  DW_TAG_subroutine_type
    2242                      .dwattr $C$DW$T$24, DW_AT_language(DW_LANG_C)
    2243              $C$DW$203       .dwtag  DW_TAG_formal_parameter
    2244                      .dwattr $C$DW$203, DW_AT_type(*$C$DW$T$3)
    2245                      .dwendtag $C$DW$T$24
    2246              
    2247              $C$DW$T$25      .dwtag  DW_TAG_pointer_type
    2248                      .dwattr $C$DW$T$25, DW_AT_type(*$C$DW$T$24)
    2249                      .dwattr $C$DW$T$25, DW_AT_address_class(0x20)
    2250              $C$DW$T$26      .dwtag  DW_TAG_typedef, DW_AT_name("TaskFunction_t")
    2251                      .dwattr $C$DW$T$26, DW_AT_type(*$C$DW$T$25)
    2252                      .dwattr $C$DW$T$26, DW_AT_language(DW_LANG_C)
    2253              
    2254              $C$DW$T$40      .dwtag  DW_TAG_subroutine_type
    2255                      .dwattr $C$DW$T$40, DW_AT_language(DW_LANG_C)
    2256              $C$DW$204       .dwtag  DW_TAG_formal_parameter
    2257                      .dwattr $C$DW$204, DW_AT_type(*$C$DW$T$39)
    2258                      .dwendtag $C$DW$T$40
    2259              
    2260              $C$DW$T$41      .dwtag  DW_TAG_pointer_type
    2261                      .dwattr $C$DW$T$41, DW_AT_type(*$C$DW$T$40)
    2262                      .dwattr $C$DW$T$41, DW_AT_address_class(0x20)
    2263              $C$DW$T$42      .dwtag  DW_TAG_typedef, DW_AT_name("TimerCallbackFunction_t")
    2264                      .dwattr $C$DW$T$42, DW_AT_type(*$C$DW$T$41)
    2265                      .dwattr $C$DW$T$42, DW_AT_language(DW_LANG_C)
    2266              $C$DW$T$4       .dwtag  DW_TAG_base_type
    2267                      .dwattr $C$DW$T$4, DW_AT_encoding(DW_ATE_boolean)
    2268                      .dwattr $C$DW$T$4, DW_AT_name("bool")
    2269                      .dwattr $C$DW$T$4, DW_AT_byte_size(0x01)
    2270              $C$DW$T$5       .dwtag  DW_TAG_base_type
    2271                      .dwattr $C$DW$T$5, DW_AT_encoding(DW_ATE_signed_char)
    2272                      .dwattr $C$DW$T$5, DW_AT_name("signed char")
    2273                      .dwattr $C$DW$T$5, DW_AT_byte_size(0x01)
    2274              $C$DW$T$6       .dwtag  DW_TAG_base_type
    2275                      .dwattr $C$DW$T$6, DW_AT_encoding(DW_ATE_unsigned_char)
    2276                      .dwattr $C$DW$T$6, DW_AT_name("unsigned char")
    2277                      .dwattr $C$DW$T$6, DW_AT_byte_size(0x01)
    2278              $C$DW$T$7       .dwtag  DW_TAG_base_type
    2279                      .dwattr $C$DW$T$7, DW_AT_encoding(DW_ATE_signed_char)
    2280                      .dwattr $C$DW$T$7, DW_AT_name("wchar_t")
    2281                      .dwattr $C$DW$T$7, DW_AT_byte_size(0x01)
    2282              $C$DW$T$8       .dwtag  DW_TAG_base_type
    2283                      .dwattr $C$DW$T$8, DW_AT_encoding(DW_ATE_signed)
    2284                      .dwattr $C$DW$T$8, DW_AT_name("short")
TMS320C55x Assembler PC v4.4.1 Sun Sep 09 02:20:41 2018

Tools Copyright (c) 1996-2012 Texas Instruments Incorporated
TaskNotify.asm                                                       PAGE   52

    2285                      .dwattr $C$DW$T$8, DW_AT_byte_size(0x01)
    2286              $C$DW$T$34      .dwtag  DW_TAG_typedef, DW_AT_name("BaseType_t")
    2287                      .dwattr $C$DW$T$34, DW_AT_type(*$C$DW$T$8)
    2288                      .dwattr $C$DW$T$34, DW_AT_language(DW_LANG_C)
    2289              $C$DW$205       .dwtag  DW_TAG_TI_far_type
    2290                      .dwattr $C$DW$205, DW_AT_type(*$C$DW$T$34)
    2291              $C$DW$T$45      .dwtag  DW_TAG_const_type
    2292                      .dwattr $C$DW$T$45, DW_AT_type(*$C$DW$205)
    2293              $C$DW$T$35      .dwtag  DW_TAG_pointer_type
    2294                      .dwattr $C$DW$T$35, DW_AT_type(*$C$DW$T$34)
    2295                      .dwattr $C$DW$T$35, DW_AT_address_class(0x17)
    2296              $C$DW$206       .dwtag  DW_TAG_TI_far_type
    2297                      .dwattr $C$DW$206, DW_AT_type(*$C$DW$T$35)
    2298              $C$DW$T$60      .dwtag  DW_TAG_const_type
    2299                      .dwattr $C$DW$T$60, DW_AT_type(*$C$DW$206)
    2300              $C$DW$T$9       .dwtag  DW_TAG_base_type
    2301                      .dwattr $C$DW$T$9, DW_AT_encoding(DW_ATE_unsigned)
    2302                      .dwattr $C$DW$T$9, DW_AT_name("unsigned short")
    2303                      .dwattr $C$DW$T$9, DW_AT_byte_size(0x01)
    2304              $C$DW$T$29      .dwtag  DW_TAG_typedef, DW_AT_name("UBaseType_t")
    2305                      .dwattr $C$DW$T$29, DW_AT_type(*$C$DW$T$9)
    2306                      .dwattr $C$DW$T$29, DW_AT_language(DW_LANG_C)
    2307              $C$DW$207       .dwtag  DW_TAG_TI_far_type
    2308                      .dwattr $C$DW$207, DW_AT_type(*$C$DW$T$29)
    2309              $C$DW$T$70      .dwtag  DW_TAG_const_type
    2310                      .dwattr $C$DW$T$70, DW_AT_type(*$C$DW$207)
    2311              $C$DW$T$10      .dwtag  DW_TAG_base_type
    2312                      .dwattr $C$DW$T$10, DW_AT_encoding(DW_ATE_signed)
    2313                      .dwattr $C$DW$T$10, DW_AT_name("int")
    2314                      .dwattr $C$DW$T$10, DW_AT_byte_size(0x01)
    2315              $C$DW$T$11      .dwtag  DW_TAG_base_type
    2316                      .dwattr $C$DW$T$11, DW_AT_encoding(DW_ATE_unsigned)
    2317                      .dwattr $C$DW$T$11, DW_AT_name("unsigned int")
    2318                      .dwattr $C$DW$T$11, DW_AT_byte_size(0x01)
    2319              $C$DW$T$63      .dwtag  DW_TAG_typedef, DW_AT_name("TickType_t")
    2320                      .dwattr $C$DW$T$63, DW_AT_type(*$C$DW$T$11)
    2321                      .dwattr $C$DW$T$63, DW_AT_language(DW_LANG_C)
    2322              $C$DW$208       .dwtag  DW_TAG_TI_far_type
    2323                      .dwattr $C$DW$208, DW_AT_type(*$C$DW$T$63)
    2324              $C$DW$T$66      .dwtag  DW_TAG_const_type
    2325                      .dwattr $C$DW$T$66, DW_AT_type(*$C$DW$208)
    2326              $C$DW$209       .dwtag  DW_TAG_TI_far_type
    2327                      .dwattr $C$DW$209, DW_AT_type(*$C$DW$T$11)
    2328              $C$DW$T$75      .dwtag  DW_TAG_volatile_type
    2329                      .dwattr $C$DW$T$75, DW_AT_type(*$C$DW$209)
    2330              $C$DW$T$76      .dwtag  DW_TAG_typedef, DW_AT_name("size_t")
    2331                      .dwattr $C$DW$T$76, DW_AT_type(*$C$DW$T$11)
    2332                      .dwattr $C$DW$T$76, DW_AT_language(DW_LANG_C)
    2333              $C$DW$210       .dwtag  DW_TAG_TI_far_type
    2334                      .dwattr $C$DW$210, DW_AT_type(*$C$DW$T$76)
    2335              $C$DW$T$77      .dwtag  DW_TAG_const_type
    2336                      .dwattr $C$DW$T$77, DW_AT_type(*$C$DW$210)
    2337              $C$DW$T$50      .dwtag  DW_TAG_typedef, DW_AT_name("uint16_t")
    2338                      .dwattr $C$DW$T$50, DW_AT_type(*$C$DW$T$11)
    2339                      .dwattr $C$DW$T$50, DW_AT_language(DW_LANG_C)
TMS320C55x Assembler PC v4.4.1 Sun Sep 09 02:20:41 2018

Tools Copyright (c) 1996-2012 Texas Instruments Incorporated
TaskNotify.asm                                                       PAGE   53

    2340              $C$DW$211       .dwtag  DW_TAG_TI_far_type
    2341                      .dwattr $C$DW$211, DW_AT_type(*$C$DW$T$50)
    2342              $C$DW$T$51      .dwtag  DW_TAG_const_type
    2343                      .dwattr $C$DW$T$51, DW_AT_type(*$C$DW$211)
    2344              $C$DW$T$12      .dwtag  DW_TAG_base_type
    2345                      .dwattr $C$DW$T$12, DW_AT_encoding(DW_ATE_signed)
    2346                      .dwattr $C$DW$T$12, DW_AT_name("long")
    2347                      .dwattr $C$DW$T$12, DW_AT_byte_size(0x02)
    2348              $C$DW$T$13      .dwtag  DW_TAG_base_type
    2349                      .dwattr $C$DW$T$13, DW_AT_encoding(DW_ATE_unsigned)
    2350                      .dwattr $C$DW$T$13, DW_AT_name("unsigned long")
    2351                      .dwattr $C$DW$T$13, DW_AT_byte_size(0x02)
    2352              $C$DW$T$56      .dwtag  DW_TAG_typedef, DW_AT_name("uint32_t")
    2353                      .dwattr $C$DW$T$56, DW_AT_type(*$C$DW$T$13)
    2354                      .dwattr $C$DW$T$56, DW_AT_language(DW_LANG_C)
    2355              $C$DW$T$57      .dwtag  DW_TAG_pointer_type
    2356                      .dwattr $C$DW$T$57, DW_AT_type(*$C$DW$T$56)
    2357                      .dwattr $C$DW$T$57, DW_AT_address_class(0x17)
    2358              $C$DW$212       .dwtag  DW_TAG_TI_far_type
    2359                      .dwattr $C$DW$212, DW_AT_type(*$C$DW$T$56)
    2360              $C$DW$T$80      .dwtag  DW_TAG_volatile_type
    2361                      .dwattr $C$DW$T$80, DW_AT_type(*$C$DW$212)
    2362              $C$DW$213       .dwtag  DW_TAG_TI_far_type
    2363                      .dwattr $C$DW$213, DW_AT_type(*$C$DW$T$56)
    2364              $C$DW$T$81      .dwtag  DW_TAG_const_type
    2365                      .dwattr $C$DW$T$81, DW_AT_type(*$C$DW$213)
    2366              $C$DW$T$14      .dwtag  DW_TAG_base_type
    2367                      .dwattr $C$DW$T$14, DW_AT_encoding(DW_ATE_signed)
    2368                      .dwattr $C$DW$T$14, DW_AT_name("long long")
    2369                      .dwattr $C$DW$T$14, DW_AT_byte_size(0x04)
    2370                      .dwattr $C$DW$T$14, DW_AT_bit_size(0x28)
    2371                      .dwattr $C$DW$T$14, DW_AT_bit_offset(0x18)
    2372              $C$DW$T$15      .dwtag  DW_TAG_base_type
    2373                      .dwattr $C$DW$T$15, DW_AT_encoding(DW_ATE_unsigned)
    2374                      .dwattr $C$DW$T$15, DW_AT_name("unsigned long long")
    2375                      .dwattr $C$DW$T$15, DW_AT_byte_size(0x04)
    2376                      .dwattr $C$DW$T$15, DW_AT_bit_size(0x28)
    2377                      .dwattr $C$DW$T$15, DW_AT_bit_offset(0x18)
    2378              $C$DW$T$16      .dwtag  DW_TAG_base_type
    2379                      .dwattr $C$DW$T$16, DW_AT_encoding(DW_ATE_float)
    2380                      .dwattr $C$DW$T$16, DW_AT_name("float")
    2381                      .dwattr $C$DW$T$16, DW_AT_byte_size(0x02)
    2382              $C$DW$T$17      .dwtag  DW_TAG_base_type
    2383                      .dwattr $C$DW$T$17, DW_AT_encoding(DW_ATE_float)
    2384                      .dwattr $C$DW$T$17, DW_AT_name("double")
    2385                      .dwattr $C$DW$T$17, DW_AT_byte_size(0x02)
    2386              $C$DW$T$18      .dwtag  DW_TAG_base_type
    2387                      .dwattr $C$DW$T$18, DW_AT_encoding(DW_ATE_float)
    2388                      .dwattr $C$DW$T$18, DW_AT_name("long double")
    2389                      .dwattr $C$DW$T$18, DW_AT_byte_size(0x02)
    2390              $C$DW$T$46      .dwtag  DW_TAG_base_type
    2391                      .dwattr $C$DW$T$46, DW_AT_encoding(DW_ATE_signed_char)
    2392                      .dwattr $C$DW$T$46, DW_AT_name("signed char")
    2393                      .dwattr $C$DW$T$46, DW_AT_byte_size(0x01)
    2394              $C$DW$214       .dwtag  DW_TAG_TI_far_type
TMS320C55x Assembler PC v4.4.1 Sun Sep 09 02:20:41 2018

Tools Copyright (c) 1996-2012 Texas Instruments Incorporated
TaskNotify.asm                                                       PAGE   54

    2395                      .dwattr $C$DW$214, DW_AT_type(*$C$DW$T$46)
    2396              $C$DW$T$47      .dwtag  DW_TAG_const_type
    2397                      .dwattr $C$DW$T$47, DW_AT_type(*$C$DW$214)
    2398              $C$DW$T$48      .dwtag  DW_TAG_pointer_type
    2399                      .dwattr $C$DW$T$48, DW_AT_type(*$C$DW$T$47)
    2400                      .dwattr $C$DW$T$48, DW_AT_address_class(0x17)
    2401              $C$DW$215       .dwtag  DW_TAG_TI_far_type
    2402                      .dwattr $C$DW$215, DW_AT_type(*$C$DW$T$48)
    2403              $C$DW$T$49      .dwtag  DW_TAG_const_type
    2404                      .dwattr $C$DW$T$49, DW_AT_type(*$C$DW$215)
    2405              
    2406              $C$DW$T$19      .dwtag  DW_TAG_structure_type
    2407                      .dwattr $C$DW$T$19, DW_AT_name("tmrTimerControl")
    2408                      .dwattr $C$DW$T$19, DW_AT_declaration
    2409                      .dwendtag $C$DW$T$19
    2410              
    2411              $C$DW$T$38      .dwtag  DW_TAG_pointer_type
    2412                      .dwattr $C$DW$T$38, DW_AT_type(*$C$DW$T$19)
    2413                      .dwattr $C$DW$T$38, DW_AT_address_class(0x17)
    2414              $C$DW$T$39      .dwtag  DW_TAG_typedef, DW_AT_name("TimerHandle_t")
    2415                      .dwattr $C$DW$T$39, DW_AT_type(*$C$DW$T$38)
    2416                      .dwattr $C$DW$T$39, DW_AT_language(DW_LANG_C)
    2417              
    2418              $C$DW$T$20      .dwtag  DW_TAG_structure_type
    2419                      .dwattr $C$DW$T$20, DW_AT_name("tskTaskControlBlock")
    2420                      .dwattr $C$DW$T$20, DW_AT_declaration
    2421                      .dwendtag $C$DW$T$20
    2422              
    2423              $C$DW$T$27      .dwtag  DW_TAG_pointer_type
    2424                      .dwattr $C$DW$T$27, DW_AT_type(*$C$DW$T$20)
    2425                      .dwattr $C$DW$T$27, DW_AT_address_class(0x17)
    2426              $C$DW$T$28      .dwtag  DW_TAG_typedef, DW_AT_name("TaskHandle_t")
    2427                      .dwattr $C$DW$T$28, DW_AT_type(*$C$DW$T$27)
    2428                      .dwattr $C$DW$T$28, DW_AT_language(DW_LANG_C)
    2429              $C$DW$T$52      .dwtag  DW_TAG_pointer_type
    2430                      .dwattr $C$DW$T$52, DW_AT_type(*$C$DW$T$28)
    2431                      .dwattr $C$DW$T$52, DW_AT_address_class(0x17)
    2432              $C$DW$216       .dwtag  DW_TAG_TI_far_type
    2433                      .dwattr $C$DW$216, DW_AT_type(*$C$DW$T$52)
    2434              $C$DW$T$53      .dwtag  DW_TAG_const_type
    2435                      .dwattr $C$DW$T$53, DW_AT_type(*$C$DW$216)
    2436                      .dwattr $C$DW$CU, DW_AT_language(DW_LANG_C)
    2437              
    2438              ;***************************************************************
    2439              ;* DWARF CIE ENTRIES                                           *
    2440              ;***************************************************************
    2441              
    2442              $C$DW$CIE       .dwcie 91
    2443                      .dwcfi  cfa_register, 36
    2444                      .dwcfi  cfa_offset, 0
    2445                      .dwcfi  undefined, 0
    2446                      .dwcfi  undefined, 1
    2447                      .dwcfi  undefined, 2
    2448                      .dwcfi  undefined, 3
    2449                      .dwcfi  undefined, 4
TMS320C55x Assembler PC v4.4.1 Sun Sep 09 02:20:41 2018

Tools Copyright (c) 1996-2012 Texas Instruments Incorporated
TaskNotify.asm                                                       PAGE   55

    2450                      .dwcfi  undefined, 5
    2451                      .dwcfi  undefined, 6
    2452                      .dwcfi  undefined, 7
    2453                      .dwcfi  undefined, 8
    2454                      .dwcfi  undefined, 9
    2455                      .dwcfi  undefined, 10
    2456                      .dwcfi  undefined, 11
    2457                      .dwcfi  undefined, 12
    2458                      .dwcfi  undefined, 13
    2459                      .dwcfi  same_value, 14
    2460                      .dwcfi  same_value, 15
    2461                      .dwcfi  undefined, 16
    2462                      .dwcfi  undefined, 17
    2463                      .dwcfi  undefined, 18
    2464                      .dwcfi  undefined, 19
    2465                      .dwcfi  undefined, 20
    2466                      .dwcfi  undefined, 21
    2467                      .dwcfi  undefined, 22
    2468                      .dwcfi  undefined, 23
    2469                      .dwcfi  undefined, 24
    2470                      .dwcfi  undefined, 25
    2471                      .dwcfi  same_value, 26
    2472                      .dwcfi  same_value, 27
    2473                      .dwcfi  same_value, 28
    2474                      .dwcfi  same_value, 29
    2475                      .dwcfi  same_value, 30
    2476                      .dwcfi  same_value, 31
    2477                      .dwcfi  undefined, 32
    2478                      .dwcfi  undefined, 33
    2479                      .dwcfi  undefined, 34
    2480                      .dwcfi  undefined, 35
    2481                      .dwcfi  undefined, 36
    2482                      .dwcfi  undefined, 37
    2483                      .dwcfi  undefined, 38
    2484                      .dwcfi  undefined, 39
    2485                      .dwcfi  undefined, 40
    2486                      .dwcfi  undefined, 41
    2487                      .dwcfi  undefined, 42
    2488                      .dwcfi  undefined, 43
    2489                      .dwcfi  undefined, 44
    2490                      .dwcfi  undefined, 45
    2491                      .dwcfi  undefined, 46
    2492                      .dwcfi  undefined, 47
    2493                      .dwcfi  undefined, 48
    2494                      .dwcfi  undefined, 49
    2495                      .dwcfi  undefined, 50
    2496                      .dwcfi  undefined, 51
    2497                      .dwcfi  undefined, 52
    2498                      .dwcfi  undefined, 53
    2499                      .dwcfi  undefined, 54
    2500                      .dwcfi  undefined, 55
    2501                      .dwcfi  undefined, 56
    2502                      .dwcfi  undefined, 57
    2503                      .dwcfi  undefined, 58
    2504                      .dwcfi  undefined, 59
TMS320C55x Assembler PC v4.4.1 Sun Sep 09 02:20:41 2018

Tools Copyright (c) 1996-2012 Texas Instruments Incorporated
TaskNotify.asm                                                       PAGE   56

    2505                      .dwcfi  undefined, 60
    2506                      .dwcfi  undefined, 61
    2507                      .dwcfi  undefined, 62
    2508                      .dwcfi  undefined, 63
    2509                      .dwcfi  undefined, 64
    2510                      .dwcfi  undefined, 65
    2511                      .dwcfi  undefined, 66
    2512                      .dwcfi  undefined, 67
    2513                      .dwcfi  undefined, 68
    2514                      .dwcfi  undefined, 69
    2515                      .dwcfi  undefined, 70
    2516                      .dwcfi  undefined, 71
    2517                      .dwcfi  undefined, 72
    2518                      .dwcfi  undefined, 73
    2519                      .dwcfi  undefined, 74
    2520                      .dwcfi  undefined, 75
    2521                      .dwcfi  undefined, 76
    2522                      .dwcfi  undefined, 77
    2523                      .dwcfi  undefined, 78
    2524                      .dwcfi  undefined, 79
    2525                      .dwcfi  undefined, 80
    2526                      .dwcfi  undefined, 81
    2527                      .dwcfi  undefined, 82
    2528                      .dwcfi  undefined, 83
    2529                      .dwcfi  undefined, 84
    2530                      .dwcfi  undefined, 85
    2531                      .dwcfi  undefined, 86
    2532                      .dwcfi  undefined, 87
    2533                      .dwcfi  undefined, 88
    2534                      .dwcfi  undefined, 89
    2535                      .dwcfi  undefined, 90
    2536                      .dwcfi  undefined, 91
    2537                      .dwendentry
    2538              
    2539              ;***************************************************************
    2540              ;* DWARF REGISTER MAP                                          *
    2541              ;***************************************************************
    2542              
    2543              $C$DW$217       .dwtag  DW_TAG_TI_assign_register, DW_AT_name("AC0")
    2544                      .dwattr $C$DW$217, DW_AT_location[DW_OP_reg0]
    2545              $C$DW$218       .dwtag  DW_TAG_TI_assign_register, DW_AT_name("AC0")
    2546                      .dwattr $C$DW$218, DW_AT_location[DW_OP_reg1]
    2547              $C$DW$219       .dwtag  DW_TAG_TI_assign_register, DW_AT_name("AC0_G")
    2548                      .dwattr $C$DW$219, DW_AT_location[DW_OP_reg2]
    2549              $C$DW$220       .dwtag  DW_TAG_TI_assign_register, DW_AT_name("AC1")
    2550                      .dwattr $C$DW$220, DW_AT_location[DW_OP_reg3]
    2551              $C$DW$221       .dwtag  DW_TAG_TI_assign_register, DW_AT_name("AC1")
    2552                      .dwattr $C$DW$221, DW_AT_location[DW_OP_reg4]
    2553              $C$DW$222       .dwtag  DW_TAG_TI_assign_register, DW_AT_name("AC1_G")
    2554                      .dwattr $C$DW$222, DW_AT_location[DW_OP_reg5]
    2555              $C$DW$223       .dwtag  DW_TAG_TI_assign_register, DW_AT_name("AC2")
    2556                      .dwattr $C$DW$223, DW_AT_location[DW_OP_reg6]
    2557              $C$DW$224       .dwtag  DW_TAG_TI_assign_register, DW_AT_name("AC2")
    2558                      .dwattr $C$DW$224, DW_AT_location[DW_OP_reg7]
    2559              $C$DW$225       .dwtag  DW_TAG_TI_assign_register, DW_AT_name("AC2_G")
TMS320C55x Assembler PC v4.4.1 Sun Sep 09 02:20:41 2018

Tools Copyright (c) 1996-2012 Texas Instruments Incorporated
TaskNotify.asm                                                       PAGE   57

    2560                      .dwattr $C$DW$225, DW_AT_location[DW_OP_reg8]
    2561              $C$DW$226       .dwtag  DW_TAG_TI_assign_register, DW_AT_name("AC3")
    2562                      .dwattr $C$DW$226, DW_AT_location[DW_OP_reg9]
    2563              $C$DW$227       .dwtag  DW_TAG_TI_assign_register, DW_AT_name("AC3")
    2564                      .dwattr $C$DW$227, DW_AT_location[DW_OP_reg10]
    2565              $C$DW$228       .dwtag  DW_TAG_TI_assign_register, DW_AT_name("AC3_G")
    2566                      .dwattr $C$DW$228, DW_AT_location[DW_OP_reg11]
    2567              $C$DW$229       .dwtag  DW_TAG_TI_assign_register, DW_AT_name("T0")
    2568                      .dwattr $C$DW$229, DW_AT_location[DW_OP_reg12]
    2569              $C$DW$230       .dwtag  DW_TAG_TI_assign_register, DW_AT_name("T1")
    2570                      .dwattr $C$DW$230, DW_AT_location[DW_OP_reg13]
    2571              $C$DW$231       .dwtag  DW_TAG_TI_assign_register, DW_AT_name("T2")
    2572                      .dwattr $C$DW$231, DW_AT_location[DW_OP_reg14]
    2573              $C$DW$232       .dwtag  DW_TAG_TI_assign_register, DW_AT_name("T3")
    2574                      .dwattr $C$DW$232, DW_AT_location[DW_OP_reg15]
    2575              $C$DW$233       .dwtag  DW_TAG_TI_assign_register, DW_AT_name("AR0")
    2576                      .dwattr $C$DW$233, DW_AT_location[DW_OP_reg16]
    2577              $C$DW$234       .dwtag  DW_TAG_TI_assign_register, DW_AT_name("XAR0")
    2578                      .dwattr $C$DW$234, DW_AT_location[DW_OP_reg17]
    2579              $C$DW$235       .dwtag  DW_TAG_TI_assign_register, DW_AT_name("AR1")
    2580                      .dwattr $C$DW$235, DW_AT_location[DW_OP_reg18]
    2581              $C$DW$236       .dwtag  DW_TAG_TI_assign_register, DW_AT_name("XAR1")
    2582                      .dwattr $C$DW$236, DW_AT_location[DW_OP_reg19]
    2583              $C$DW$237       .dwtag  DW_TAG_TI_assign_register, DW_AT_name("AR2")
    2584                      .dwattr $C$DW$237, DW_AT_location[DW_OP_reg20]
    2585              $C$DW$238       .dwtag  DW_TAG_TI_assign_register, DW_AT_name("XAR2")
    2586                      .dwattr $C$DW$238, DW_AT_location[DW_OP_reg21]
    2587              $C$DW$239       .dwtag  DW_TAG_TI_assign_register, DW_AT_name("AR3")
    2588                      .dwattr $C$DW$239, DW_AT_location[DW_OP_reg22]
    2589              $C$DW$240       .dwtag  DW_TAG_TI_assign_register, DW_AT_name("XAR3")
    2590                      .dwattr $C$DW$240, DW_AT_location[DW_OP_reg23]
    2591              $C$DW$241       .dwtag  DW_TAG_TI_assign_register, DW_AT_name("AR4")
    2592                      .dwattr $C$DW$241, DW_AT_location[DW_OP_reg24]
    2593              $C$DW$242       .dwtag  DW_TAG_TI_assign_register, DW_AT_name("XAR4")
    2594                      .dwattr $C$DW$242, DW_AT_location[DW_OP_reg25]
    2595              $C$DW$243       .dwtag  DW_TAG_TI_assign_register, DW_AT_name("AR5")
    2596                      .dwattr $C$DW$243, DW_AT_location[DW_OP_reg26]
    2597              $C$DW$244       .dwtag  DW_TAG_TI_assign_register, DW_AT_name("XAR5")
    2598                      .dwattr $C$DW$244, DW_AT_location[DW_OP_reg27]
    2599              $C$DW$245       .dwtag  DW_TAG_TI_assign_register, DW_AT_name("AR6")
    2600                      .dwattr $C$DW$245, DW_AT_location[DW_OP_reg28]
    2601              $C$DW$246       .dwtag  DW_TAG_TI_assign_register, DW_AT_name("XAR6")
    2602                      .dwattr $C$DW$246, DW_AT_location[DW_OP_reg29]
    2603              $C$DW$247       .dwtag  DW_TAG_TI_assign_register, DW_AT_name("AR7")
    2604                      .dwattr $C$DW$247, DW_AT_location[DW_OP_reg30]
    2605              $C$DW$248       .dwtag  DW_TAG_TI_assign_register, DW_AT_name("XAR7")
    2606                      .dwattr $C$DW$248, DW_AT_location[DW_OP_reg31]
    2607              $C$DW$249       .dwtag  DW_TAG_TI_assign_register, DW_AT_name("FP")
    2608                      .dwattr $C$DW$249, DW_AT_location[DW_OP_regx 0x20]
    2609              $C$DW$250       .dwtag  DW_TAG_TI_assign_register, DW_AT_name("XFP")
    2610                      .dwattr $C$DW$250, DW_AT_location[DW_OP_regx 0x21]
    2611              $C$DW$251       .dwtag  DW_TAG_TI_assign_register, DW_AT_name("PC")
    2612                      .dwattr $C$DW$251, DW_AT_location[DW_OP_regx 0x22]
    2613              $C$DW$252       .dwtag  DW_TAG_TI_assign_register, DW_AT_name("SP")
    2614                      .dwattr $C$DW$252, DW_AT_location[DW_OP_regx 0x23]
TMS320C55x Assembler PC v4.4.1 Sun Sep 09 02:20:41 2018

Tools Copyright (c) 1996-2012 Texas Instruments Incorporated
TaskNotify.asm                                                       PAGE   58

    2615              $C$DW$253       .dwtag  DW_TAG_TI_assign_register, DW_AT_name("XSP")
    2616                      .dwattr $C$DW$253, DW_AT_location[DW_OP_regx 0x24]
    2617              $C$DW$254       .dwtag  DW_TAG_TI_assign_register, DW_AT_name("BKC")
    2618                      .dwattr $C$DW$254, DW_AT_location[DW_OP_regx 0x25]
    2619              $C$DW$255       .dwtag  DW_TAG_TI_assign_register, DW_AT_name("BK03")
    2620                      .dwattr $C$DW$255, DW_AT_location[DW_OP_regx 0x26]
    2621              $C$DW$256       .dwtag  DW_TAG_TI_assign_register, DW_AT_name("BK47")
    2622                      .dwattr $C$DW$256, DW_AT_location[DW_OP_regx 0x27]
    2623              $C$DW$257       .dwtag  DW_TAG_TI_assign_register, DW_AT_name("ST0")
    2624                      .dwattr $C$DW$257, DW_AT_location[DW_OP_regx 0x28]
    2625              $C$DW$258       .dwtag  DW_TAG_TI_assign_register, DW_AT_name("ST1")
    2626                      .dwattr $C$DW$258, DW_AT_location[DW_OP_regx 0x29]
    2627              $C$DW$259       .dwtag  DW_TAG_TI_assign_register, DW_AT_name("ST2")
    2628                      .dwattr $C$DW$259, DW_AT_location[DW_OP_regx 0x2a]
    2629              $C$DW$260       .dwtag  DW_TAG_TI_assign_register, DW_AT_name("ST3")
    2630                      .dwattr $C$DW$260, DW_AT_location[DW_OP_regx 0x2b]
    2631              $C$DW$261       .dwtag  DW_TAG_TI_assign_register, DW_AT_name("MDP")
    2632                      .dwattr $C$DW$261, DW_AT_location[DW_OP_regx 0x2c]
    2633              $C$DW$262       .dwtag  DW_TAG_TI_assign_register, DW_AT_name("MDP05")
    2634                      .dwattr $C$DW$262, DW_AT_location[DW_OP_regx 0x2d]
    2635              $C$DW$263       .dwtag  DW_TAG_TI_assign_register, DW_AT_name("MDP67")
    2636                      .dwattr $C$DW$263, DW_AT_location[DW_OP_regx 0x2e]
    2637              $C$DW$264       .dwtag  DW_TAG_TI_assign_register, DW_AT_name("BRC0")
    2638                      .dwattr $C$DW$264, DW_AT_location[DW_OP_regx 0x2f]
    2639              $C$DW$265       .dwtag  DW_TAG_TI_assign_register, DW_AT_name("RSA0")
    2640                      .dwattr $C$DW$265, DW_AT_location[DW_OP_regx 0x30]
    2641              $C$DW$266       .dwtag  DW_TAG_TI_assign_register, DW_AT_name("RSA0_H")
    2642                      .dwattr $C$DW$266, DW_AT_location[DW_OP_regx 0x31]
    2643              $C$DW$267       .dwtag  DW_TAG_TI_assign_register, DW_AT_name("REA0")
    2644                      .dwattr $C$DW$267, DW_AT_location[DW_OP_regx 0x32]
    2645              $C$DW$268       .dwtag  DW_TAG_TI_assign_register, DW_AT_name("REA0_H")
    2646                      .dwattr $C$DW$268, DW_AT_location[DW_OP_regx 0x33]
    2647              $C$DW$269       .dwtag  DW_TAG_TI_assign_register, DW_AT_name("BRS1")
    2648                      .dwattr $C$DW$269, DW_AT_location[DW_OP_regx 0x34]
    2649              $C$DW$270       .dwtag  DW_TAG_TI_assign_register, DW_AT_name("BRC1")
    2650                      .dwattr $C$DW$270, DW_AT_location[DW_OP_regx 0x35]
    2651              $C$DW$271       .dwtag  DW_TAG_TI_assign_register, DW_AT_name("RSA1")
    2652                      .dwattr $C$DW$271, DW_AT_location[DW_OP_regx 0x36]
    2653              $C$DW$272       .dwtag  DW_TAG_TI_assign_register, DW_AT_name("RSA1_H")
    2654                      .dwattr $C$DW$272, DW_AT_location[DW_OP_regx 0x37]
    2655              $C$DW$273       .dwtag  DW_TAG_TI_assign_register, DW_AT_name("REA1")
    2656                      .dwattr $C$DW$273, DW_AT_location[DW_OP_regx 0x38]
    2657              $C$DW$274       .dwtag  DW_TAG_TI_assign_register, DW_AT_name("REA1_H")
    2658                      .dwattr $C$DW$274, DW_AT_location[DW_OP_regx 0x39]
    2659              $C$DW$275       .dwtag  DW_TAG_TI_assign_register, DW_AT_name("CSR")
    2660                      .dwattr $C$DW$275, DW_AT_location[DW_OP_regx 0x3a]
    2661              $C$DW$276       .dwtag  DW_TAG_TI_assign_register, DW_AT_name("RPTC")
    2662                      .dwattr $C$DW$276, DW_AT_location[DW_OP_regx 0x3b]
    2663              $C$DW$277       .dwtag  DW_TAG_TI_assign_register, DW_AT_name("CDP")
    2664                      .dwattr $C$DW$277, DW_AT_location[DW_OP_regx 0x3c]
    2665              $C$DW$278       .dwtag  DW_TAG_TI_assign_register, DW_AT_name("XCDP")
    2666                      .dwattr $C$DW$278, DW_AT_location[DW_OP_regx 0x3d]
    2667              $C$DW$279       .dwtag  DW_TAG_TI_assign_register, DW_AT_name("TRN0")
    2668                      .dwattr $C$DW$279, DW_AT_location[DW_OP_regx 0x3e]
    2669              $C$DW$280       .dwtag  DW_TAG_TI_assign_register, DW_AT_name("TRN1")
TMS320C55x Assembler PC v4.4.1 Sun Sep 09 02:20:41 2018

Tools Copyright (c) 1996-2012 Texas Instruments Incorporated
TaskNotify.asm                                                       PAGE   59

    2670                      .dwattr $C$DW$280, DW_AT_location[DW_OP_regx 0x3f]
    2671              $C$DW$281       .dwtag  DW_TAG_TI_assign_register, DW_AT_name("BSA01")
    2672                      .dwattr $C$DW$281, DW_AT_location[DW_OP_regx 0x40]
    2673              $C$DW$282       .dwtag  DW_TAG_TI_assign_register, DW_AT_name("BSA23")
    2674                      .dwattr $C$DW$282, DW_AT_location[DW_OP_regx 0x41]
    2675              $C$DW$283       .dwtag  DW_TAG_TI_assign_register, DW_AT_name("BSA45")
    2676                      .dwattr $C$DW$283, DW_AT_location[DW_OP_regx 0x42]
    2677              $C$DW$284       .dwtag  DW_TAG_TI_assign_register, DW_AT_name("BSA67")
    2678                      .dwattr $C$DW$284, DW_AT_location[DW_OP_regx 0x43]
    2679              $C$DW$285       .dwtag  DW_TAG_TI_assign_register, DW_AT_name("BSAC")
    2680                      .dwattr $C$DW$285, DW_AT_location[DW_OP_regx 0x44]
    2681              $C$DW$286       .dwtag  DW_TAG_TI_assign_register, DW_AT_name("CARRY")
    2682                      .dwattr $C$DW$286, DW_AT_location[DW_OP_regx 0x45]
    2683              $C$DW$287       .dwtag  DW_TAG_TI_assign_register, DW_AT_name("TC1")
    2684                      .dwattr $C$DW$287, DW_AT_location[DW_OP_regx 0x46]
    2685              $C$DW$288       .dwtag  DW_TAG_TI_assign_register, DW_AT_name("TC2")
    2686                      .dwattr $C$DW$288, DW_AT_location[DW_OP_regx 0x47]
    2687              $C$DW$289       .dwtag  DW_TAG_TI_assign_register, DW_AT_name("M40")
    2688                      .dwattr $C$DW$289, DW_AT_location[DW_OP_regx 0x48]
    2689              $C$DW$290       .dwtag  DW_TAG_TI_assign_register, DW_AT_name("SXMD")
    2690                      .dwattr $C$DW$290, DW_AT_location[DW_OP_regx 0x49]
    2691              $C$DW$291       .dwtag  DW_TAG_TI_assign_register, DW_AT_name("ARMS")
    2692                      .dwattr $C$DW$291, DW_AT_location[DW_OP_regx 0x4a]
    2693              $C$DW$292       .dwtag  DW_TAG_TI_assign_register, DW_AT_name("C54CM")
    2694                      .dwattr $C$DW$292, DW_AT_location[DW_OP_regx 0x4b]
    2695              $C$DW$293       .dwtag  DW_TAG_TI_assign_register, DW_AT_name("SATA")
    2696                      .dwattr $C$DW$293, DW_AT_location[DW_OP_regx 0x4c]
    2697              $C$DW$294       .dwtag  DW_TAG_TI_assign_register, DW_AT_name("SATD")
    2698                      .dwattr $C$DW$294, DW_AT_location[DW_OP_regx 0x4d]
    2699              $C$DW$295       .dwtag  DW_TAG_TI_assign_register, DW_AT_name("RDM")
    2700                      .dwattr $C$DW$295, DW_AT_location[DW_OP_regx 0x4e]
    2701              $C$DW$296       .dwtag  DW_TAG_TI_assign_register, DW_AT_name("FRCT")
    2702                      .dwattr $C$DW$296, DW_AT_location[DW_OP_regx 0x4f]
    2703              $C$DW$297       .dwtag  DW_TAG_TI_assign_register, DW_AT_name("SMUL")
    2704                      .dwattr $C$DW$297, DW_AT_location[DW_OP_regx 0x50]
    2705              $C$DW$298       .dwtag  DW_TAG_TI_assign_register, DW_AT_name("INTM")
    2706                      .dwattr $C$DW$298, DW_AT_location[DW_OP_regx 0x51]
    2707              $C$DW$299       .dwtag  DW_TAG_TI_assign_register, DW_AT_name("AR0LC")
    2708                      .dwattr $C$DW$299, DW_AT_location[DW_OP_regx 0x52]
    2709              $C$DW$300       .dwtag  DW_TAG_TI_assign_register, DW_AT_name("AR1LC")
    2710                      .dwattr $C$DW$300, DW_AT_location[DW_OP_regx 0x53]
    2711              $C$DW$301       .dwtag  DW_TAG_TI_assign_register, DW_AT_name("AR2LC")
    2712                      .dwattr $C$DW$301, DW_AT_location[DW_OP_regx 0x54]
    2713              $C$DW$302       .dwtag  DW_TAG_TI_assign_register, DW_AT_name("AR3LC")
    2714                      .dwattr $C$DW$302, DW_AT_location[DW_OP_regx 0x55]
    2715              $C$DW$303       .dwtag  DW_TAG_TI_assign_register, DW_AT_name("AR4LC")
    2716                      .dwattr $C$DW$303, DW_AT_location[DW_OP_regx 0x56]
    2717              $C$DW$304       .dwtag  DW_TAG_TI_assign_register, DW_AT_name("AR5LC")
    2718                      .dwattr $C$DW$304, DW_AT_location[DW_OP_regx 0x57]
    2719              $C$DW$305       .dwtag  DW_TAG_TI_assign_register, DW_AT_name("AR6LC")
    2720                      .dwattr $C$DW$305, DW_AT_location[DW_OP_regx 0x58]
    2721              $C$DW$306       .dwtag  DW_TAG_TI_assign_register, DW_AT_name("AR7LC")
    2722                      .dwattr $C$DW$306, DW_AT_location[DW_OP_regx 0x59]
    2723              $C$DW$307       .dwtag  DW_TAG_TI_assign_register, DW_AT_name("CDPLC")
    2724                      .dwattr $C$DW$307, DW_AT_location[DW_OP_regx 0x5a]
TMS320C55x Assembler PC v4.4.1 Sun Sep 09 02:20:41 2018

Tools Copyright (c) 1996-2012 Texas Instruments Incorporated
TaskNotify.asm                                                       PAGE   60

    2725              $C$DW$308       .dwtag  DW_TAG_TI_assign_register, DW_AT_name("CIE_RETA")
    2726                      .dwattr $C$DW$308, DW_AT_location[DW_OP_regx 0x5b]
    2727                      .dwendtag $C$DW$CU
    2728              
    2728              
    2728              

No Assembly Errors, No Assembly Warnings
