TMS320C55x Assembler PC v4.4.1 Sat Sep 15 12:23:51 2018

Tools Copyright (c) 1996-2012 Texas Instruments Incorporated
ezdsp5535_sdcard.asm                                                 PAGE    1

    3467              ; Temporary Registers Used: None
       1              ;*******************************************************************************
       2              ;* TMS320C55x C/C++ Codegen                                          PC v4.4.1 *
       3              ;* Date/Time created: Sat Sep 15 12:23:51 2018                                 *
       4              ;*******************************************************************************
       5                      .compiler_opts --hll_source=on --mem_model:code=flat --mem_model:data=large --object_format=coff --si
       6                      .mmregs
       7                      .cpl_on
       8                      .arms_on
       9                      .c54cm_off
      10                      .asg AR6, FP
      11                      .asg XAR6, XFP
      12                      .asg DPH, MDP
      13                      .model call=c55_std
      14                      .model mem=large
      15                      .noremark 5002  ; code respects overwrite rules
      16              ;*******************************************************************************
      17              ;* GLOBAL FILE PARAMETERS                                                      *
      18              ;*                                                                             *
      19              ;*   Architecture       : TMS320C55x                                           *
      20              ;*   Optimizing for     : Speed                                                *
      21              ;*   Memory             : Large Model (23-Bit Data Pointers)                   *
      22              ;*   Calls              : Normal Library ASM calls                             *
      23              ;*   Debug Info         : Standard TI Debug Information                        *
      24              ;*******************************************************************************
      25              
      26              $C$DW$CU        .dwtag  DW_TAG_compile_unit
      27                      .dwattr $C$DW$CU, DW_AT_name("../c5535_bsl_revc/ezdsp5535_v1/lib/bsl/ezdsp5535_sdcard.c")
      28                      .dwattr $C$DW$CU, DW_AT_producer("TMS320C55x C/C++ Codegen PC v4.4.1 Copyright (c) 1996-2012 Texas In
      29                      .dwattr $C$DW$CU, DW_AT_TI_version(0x01)
      30                      .dwattr $C$DW$CU, DW_AT_comp_dir("F:\eZdsp_DBG\eZDSP_5535_Files\ccsws2\test\Debug")
      31              
      32              $C$DW$1 .dwtag  DW_TAG_subprogram, DW_AT_name("MMC_init")
      33                      .dwattr $C$DW$1, DW_AT_TI_symbol_name("_MMC_init")
      34                      .dwattr $C$DW$1, DW_AT_type(*$C$DW$T$105)
      35                      .dwattr $C$DW$1, DW_AT_declaration
      36                      .dwattr $C$DW$1, DW_AT_external
      37              
      38              $C$DW$2 .dwtag  DW_TAG_subprogram, DW_AT_name("MMC_open")
      39                      .dwattr $C$DW$2, DW_AT_TI_symbol_name("_MMC_open")
      40                      .dwattr $C$DW$2, DW_AT_type(*$C$DW$T$103)
      41                      .dwattr $C$DW$2, DW_AT_declaration
      42                      .dwattr $C$DW$2, DW_AT_external
      43              $C$DW$3 .dwtag  DW_TAG_formal_parameter
      44                      .dwattr $C$DW$3, DW_AT_type(*$C$DW$T$102)
      45              $C$DW$4 .dwtag  DW_TAG_formal_parameter
      46                      .dwattr $C$DW$4, DW_AT_type(*$C$DW$T$100)
      47              $C$DW$5 .dwtag  DW_TAG_formal_parameter
      48                      .dwattr $C$DW$5, DW_AT_type(*$C$DW$T$86)
      49              $C$DW$6 .dwtag  DW_TAG_formal_parameter
      50                      .dwattr $C$DW$6, DW_AT_type(*$C$DW$T$106)
      51                      .dwendtag $C$DW$2
      52              
      53              
      54              $C$DW$7 .dwtag  DW_TAG_subprogram, DW_AT_name("MMC_close")
TMS320C55x Assembler PC v4.4.1 Sat Sep 15 12:23:51 2018

Tools Copyright (c) 1996-2012 Texas Instruments Incorporated
ezdsp5535_sdcard.asm                                                 PAGE    2

      55                      .dwattr $C$DW$7, DW_AT_TI_symbol_name("_MMC_close")
      56                      .dwattr $C$DW$7, DW_AT_type(*$C$DW$T$105)
      57                      .dwattr $C$DW$7, DW_AT_declaration
      58                      .dwattr $C$DW$7, DW_AT_external
      59              $C$DW$8 .dwtag  DW_TAG_formal_parameter
      60                      .dwattr $C$DW$8, DW_AT_type(*$C$DW$T$103)
      61                      .dwendtag $C$DW$7
      62              
      63              
      64              $C$DW$9 .dwtag  DW_TAG_subprogram, DW_AT_name("MMC_setCardType")
      65                      .dwattr $C$DW$9, DW_AT_TI_symbol_name("_MMC_setCardType")
      66                      .dwattr $C$DW$9, DW_AT_type(*$C$DW$T$105)
      67                      .dwattr $C$DW$9, DW_AT_declaration
      68                      .dwattr $C$DW$9, DW_AT_external
      69              $C$DW$10        .dwtag  DW_TAG_formal_parameter
      70                      .dwattr $C$DW$10, DW_AT_type(*$C$DW$T$82)
      71              $C$DW$11        .dwtag  DW_TAG_formal_parameter
      72                      .dwattr $C$DW$11, DW_AT_type(*$C$DW$T$33)
      73                      .dwendtag $C$DW$9
      74              
      75              
      76              $C$DW$12        .dwtag  DW_TAG_subprogram, DW_AT_name("MMC_setCardPtr")
      77                      .dwattr $C$DW$12, DW_AT_TI_symbol_name("_MMC_setCardPtr")
      78                      .dwattr $C$DW$12, DW_AT_type(*$C$DW$T$105)
      79                      .dwattr $C$DW$12, DW_AT_declaration
      80                      .dwattr $C$DW$12, DW_AT_external
      81              $C$DW$13        .dwtag  DW_TAG_formal_parameter
      82                      .dwattr $C$DW$13, DW_AT_type(*$C$DW$T$103)
      83              $C$DW$14        .dwtag  DW_TAG_formal_parameter
      84                      .dwattr $C$DW$14, DW_AT_type(*$C$DW$T$82)
      85                      .dwendtag $C$DW$12
      86              
      87              
      88              $C$DW$15        .dwtag  DW_TAG_subprogram, DW_AT_name("MMC_getNumberOfCards")
      89                      .dwattr $C$DW$15, DW_AT_TI_symbol_name("_MMC_getNumberOfCards")
      90                      .dwattr $C$DW$15, DW_AT_type(*$C$DW$T$105)
      91                      .dwattr $C$DW$15, DW_AT_declaration
      92                      .dwattr $C$DW$15, DW_AT_external
      93              $C$DW$16        .dwtag  DW_TAG_formal_parameter
      94                      .dwattr $C$DW$16, DW_AT_type(*$C$DW$T$103)
      95              $C$DW$17        .dwtag  DW_TAG_formal_parameter
      96                      .dwattr $C$DW$17, DW_AT_type(*$C$DW$T$117)
      97                      .dwendtag $C$DW$15
      98              
      99              
     100              $C$DW$18        .dwtag  DW_TAG_subprogram, DW_AT_name("MMC_clearResponse")
     101                      .dwattr $C$DW$18, DW_AT_TI_symbol_name("_MMC_clearResponse")
     102                      .dwattr $C$DW$18, DW_AT_type(*$C$DW$T$105)
     103                      .dwattr $C$DW$18, DW_AT_declaration
     104                      .dwattr $C$DW$18, DW_AT_external
     105              $C$DW$19        .dwtag  DW_TAG_formal_parameter
     106                      .dwattr $C$DW$19, DW_AT_type(*$C$DW$T$103)
     107                      .dwendtag $C$DW$18
     108              
     109              
TMS320C55x Assembler PC v4.4.1 Sat Sep 15 12:23:51 2018

Tools Copyright (c) 1996-2012 Texas Instruments Incorporated
ezdsp5535_sdcard.asm                                                 PAGE    3

     110              $C$DW$20        .dwtag  DW_TAG_subprogram, DW_AT_name("MMC_sendCmd")
     111                      .dwattr $C$DW$20, DW_AT_TI_symbol_name("_MMC_sendCmd")
     112                      .dwattr $C$DW$20, DW_AT_type(*$C$DW$T$105)
     113                      .dwattr $C$DW$20, DW_AT_declaration
     114                      .dwattr $C$DW$20, DW_AT_external
     115              $C$DW$21        .dwtag  DW_TAG_formal_parameter
     116                      .dwattr $C$DW$21, DW_AT_type(*$C$DW$T$103)
     117              $C$DW$22        .dwtag  DW_TAG_formal_parameter
     118                      .dwattr $C$DW$22, DW_AT_type(*$C$DW$T$28)
     119              $C$DW$23        .dwtag  DW_TAG_formal_parameter
     120                      .dwattr $C$DW$23, DW_AT_type(*$C$DW$T$28)
     121              $C$DW$24        .dwtag  DW_TAG_formal_parameter
     122                      .dwattr $C$DW$24, DW_AT_type(*$C$DW$T$19)
     123                      .dwendtag $C$DW$20
     124              
     125              
     126              $C$DW$25        .dwtag  DW_TAG_subprogram, DW_AT_name("MMC_sendGoIdle")
     127                      .dwattr $C$DW$25, DW_AT_TI_symbol_name("_MMC_sendGoIdle")
     128                      .dwattr $C$DW$25, DW_AT_type(*$C$DW$T$105)
     129                      .dwattr $C$DW$25, DW_AT_declaration
     130                      .dwattr $C$DW$25, DW_AT_external
     131              $C$DW$26        .dwtag  DW_TAG_formal_parameter
     132                      .dwattr $C$DW$26, DW_AT_type(*$C$DW$T$103)
     133                      .dwendtag $C$DW$25
     134              
     135              
     136              $C$DW$27        .dwtag  DW_TAG_subprogram, DW_AT_name("MMC_deselectCard")
     137                      .dwattr $C$DW$27, DW_AT_TI_symbol_name("_MMC_deselectCard")
     138                      .dwattr $C$DW$27, DW_AT_type(*$C$DW$T$105)
     139                      .dwattr $C$DW$27, DW_AT_declaration
     140                      .dwattr $C$DW$27, DW_AT_external
     141              $C$DW$28        .dwtag  DW_TAG_formal_parameter
     142                      .dwattr $C$DW$28, DW_AT_type(*$C$DW$T$103)
     143              $C$DW$29        .dwtag  DW_TAG_formal_parameter
     144                      .dwattr $C$DW$29, DW_AT_type(*$C$DW$T$82)
     145                      .dwendtag $C$DW$27
     146              
     147              
     148              $C$DW$30        .dwtag  DW_TAG_subprogram, DW_AT_name("MMC_selectCard")
     149                      .dwattr $C$DW$30, DW_AT_TI_symbol_name("_MMC_selectCard")
     150                      .dwattr $C$DW$30, DW_AT_type(*$C$DW$T$105)
     151                      .dwattr $C$DW$30, DW_AT_declaration
     152                      .dwattr $C$DW$30, DW_AT_external
     153              $C$DW$31        .dwtag  DW_TAG_formal_parameter
     154                      .dwattr $C$DW$31, DW_AT_type(*$C$DW$T$103)
     155              $C$DW$32        .dwtag  DW_TAG_formal_parameter
     156                      .dwattr $C$DW$32, DW_AT_type(*$C$DW$T$82)
     157                      .dwendtag $C$DW$30
     158              
     159              
     160              $C$DW$33        .dwtag  DW_TAG_subprogram, DW_AT_name("MMC_sendOpCond")
     161                      .dwattr $C$DW$33, DW_AT_TI_symbol_name("_MMC_sendOpCond")
     162                      .dwattr $C$DW$33, DW_AT_type(*$C$DW$T$105)
     163                      .dwattr $C$DW$33, DW_AT_declaration
     164                      .dwattr $C$DW$33, DW_AT_external
TMS320C55x Assembler PC v4.4.1 Sat Sep 15 12:23:51 2018

Tools Copyright (c) 1996-2012 Texas Instruments Incorporated
ezdsp5535_sdcard.asm                                                 PAGE    4

     165              $C$DW$34        .dwtag  DW_TAG_formal_parameter
     166                      .dwattr $C$DW$34, DW_AT_type(*$C$DW$T$103)
     167              $C$DW$35        .dwtag  DW_TAG_formal_parameter
     168                      .dwattr $C$DW$35, DW_AT_type(*$C$DW$T$19)
     169                      .dwendtag $C$DW$33
     170              
     171              
     172              $C$DW$36        .dwtag  DW_TAG_subprogram, DW_AT_name("SD_sendRca")
     173                      .dwattr $C$DW$36, DW_AT_TI_symbol_name("_SD_sendRca")
     174                      .dwattr $C$DW$36, DW_AT_type(*$C$DW$T$105)
     175                      .dwattr $C$DW$36, DW_AT_declaration
     176                      .dwattr $C$DW$36, DW_AT_external
     177              $C$DW$37        .dwtag  DW_TAG_formal_parameter
     178                      .dwattr $C$DW$37, DW_AT_type(*$C$DW$T$103)
     179              $C$DW$38        .dwtag  DW_TAG_formal_parameter
     180                      .dwattr $C$DW$38, DW_AT_type(*$C$DW$T$82)
     181              $C$DW$39        .dwtag  DW_TAG_formal_parameter
     182                      .dwattr $C$DW$39, DW_AT_type(*$C$DW$T$117)
     183                      .dwendtag $C$DW$36
     184              
     185              
     186              $C$DW$40        .dwtag  DW_TAG_subprogram, DW_AT_name("SD_sendAllCID")
     187                      .dwattr $C$DW$40, DW_AT_TI_symbol_name("_SD_sendAllCID")
     188                      .dwattr $C$DW$40, DW_AT_type(*$C$DW$T$105)
     189                      .dwattr $C$DW$40, DW_AT_declaration
     190                      .dwattr $C$DW$40, DW_AT_external
     191              $C$DW$41        .dwtag  DW_TAG_formal_parameter
     192                      .dwattr $C$DW$41, DW_AT_type(*$C$DW$T$103)
     193              $C$DW$42        .dwtag  DW_TAG_formal_parameter
     194                      .dwattr $C$DW$42, DW_AT_type(*$C$DW$T$35)
     195                      .dwendtag $C$DW$40
     196              
     197              
     198              $C$DW$43        .dwtag  DW_TAG_subprogram, DW_AT_name("SD_getCardCsd")
     199                      .dwattr $C$DW$43, DW_AT_TI_symbol_name("_SD_getCardCsd")
     200                      .dwattr $C$DW$43, DW_AT_type(*$C$DW$T$105)
     201                      .dwattr $C$DW$43, DW_AT_declaration
     202                      .dwattr $C$DW$43, DW_AT_external
     203              $C$DW$44        .dwtag  DW_TAG_formal_parameter
     204                      .dwattr $C$DW$44, DW_AT_type(*$C$DW$T$103)
     205              $C$DW$45        .dwtag  DW_TAG_formal_parameter
     206                      .dwattr $C$DW$45, DW_AT_type(*$C$DW$T$37)
     207                      .dwendtag $C$DW$43
     208              
     209              
     210              $C$DW$46        .dwtag  DW_TAG_subprogram, DW_AT_name("MMC_read")
     211                      .dwattr $C$DW$46, DW_AT_TI_symbol_name("_MMC_read")
     212                      .dwattr $C$DW$46, DW_AT_type(*$C$DW$T$105)
     213                      .dwattr $C$DW$46, DW_AT_declaration
     214                      .dwattr $C$DW$46, DW_AT_external
     215              $C$DW$47        .dwtag  DW_TAG_formal_parameter
     216                      .dwattr $C$DW$47, DW_AT_type(*$C$DW$T$103)
     217              $C$DW$48        .dwtag  DW_TAG_formal_parameter
     218                      .dwattr $C$DW$48, DW_AT_type(*$C$DW$T$28)
     219              $C$DW$49        .dwtag  DW_TAG_formal_parameter
TMS320C55x Assembler PC v4.4.1 Sat Sep 15 12:23:51 2018

Tools Copyright (c) 1996-2012 Texas Instruments Incorporated
ezdsp5535_sdcard.asm                                                 PAGE    5

     220                      .dwattr $C$DW$49, DW_AT_type(*$C$DW$T$19)
     221              $C$DW$50        .dwtag  DW_TAG_formal_parameter
     222                      .dwattr $C$DW$50, DW_AT_type(*$C$DW$T$117)
     223                      .dwendtag $C$DW$46
     224              
     225              
     226              $C$DW$51        .dwtag  DW_TAG_subprogram, DW_AT_name("MMC_write")
     227                      .dwattr $C$DW$51, DW_AT_TI_symbol_name("_MMC_write")
     228                      .dwattr $C$DW$51, DW_AT_type(*$C$DW$T$105)
     229                      .dwattr $C$DW$51, DW_AT_declaration
     230                      .dwattr $C$DW$51, DW_AT_external
     231              $C$DW$52        .dwtag  DW_TAG_formal_parameter
     232                      .dwattr $C$DW$52, DW_AT_type(*$C$DW$T$103)
     233              $C$DW$53        .dwtag  DW_TAG_formal_parameter
     234                      .dwattr $C$DW$53, DW_AT_type(*$C$DW$T$28)
     235              $C$DW$54        .dwtag  DW_TAG_formal_parameter
     236                      .dwattr $C$DW$54, DW_AT_type(*$C$DW$T$19)
     237              $C$DW$55        .dwtag  DW_TAG_formal_parameter
     238                      .dwattr $C$DW$55, DW_AT_type(*$C$DW$T$117)
     239                      .dwendtag $C$DW$51
     240              
     241              
     242              $C$DW$56        .dwtag  DW_TAG_subprogram, DW_AT_name("MMC_setEndianMode")
     243                      .dwattr $C$DW$56, DW_AT_TI_symbol_name("_MMC_setEndianMode")
     244                      .dwattr $C$DW$56, DW_AT_type(*$C$DW$T$105)
     245                      .dwattr $C$DW$56, DW_AT_declaration
     246                      .dwattr $C$DW$56, DW_AT_external
     247              $C$DW$57        .dwtag  DW_TAG_formal_parameter
     248                      .dwattr $C$DW$57, DW_AT_type(*$C$DW$T$103)
     249              $C$DW$58        .dwtag  DW_TAG_formal_parameter
     250                      .dwattr $C$DW$58, DW_AT_type(*$C$DW$T$97)
     251              $C$DW$59        .dwtag  DW_TAG_formal_parameter
     252                      .dwattr $C$DW$59, DW_AT_type(*$C$DW$T$97)
     253                      .dwendtag $C$DW$56
     254              
     255              
     256              $C$DW$60        .dwtag  DW_TAG_subprogram, DW_AT_name("MMC_setBlockLength")
     257                      .dwattr $C$DW$60, DW_AT_TI_symbol_name("_MMC_setBlockLength")
     258                      .dwattr $C$DW$60, DW_AT_type(*$C$DW$T$105)
     259                      .dwattr $C$DW$60, DW_AT_declaration
     260                      .dwattr $C$DW$60, DW_AT_external
     261              $C$DW$61        .dwtag  DW_TAG_formal_parameter
     262                      .dwattr $C$DW$61, DW_AT_type(*$C$DW$T$103)
     263              $C$DW$62        .dwtag  DW_TAG_formal_parameter
     264                      .dwattr $C$DW$62, DW_AT_type(*$C$DW$T$28)
     265                      .dwendtag $C$DW$60
     266              
     267              
     268              $C$DW$63        .dwtag  DW_TAG_subprogram, DW_AT_name("SD_setBusWidth")
     269                      .dwattr $C$DW$63, DW_AT_TI_symbol_name("_SD_setBusWidth")
     270                      .dwattr $C$DW$63, DW_AT_type(*$C$DW$T$105)
     271                      .dwattr $C$DW$63, DW_AT_declaration
     272                      .dwattr $C$DW$63, DW_AT_external
     273              $C$DW$64        .dwtag  DW_TAG_formal_parameter
     274                      .dwattr $C$DW$64, DW_AT_type(*$C$DW$T$103)
TMS320C55x Assembler PC v4.4.1 Sat Sep 15 12:23:51 2018

Tools Copyright (c) 1996-2012 Texas Instruments Incorporated
ezdsp5535_sdcard.asm                                                 PAGE    6

     275              $C$DW$65        .dwtag  DW_TAG_formal_parameter
     276                      .dwattr $C$DW$65, DW_AT_type(*$C$DW$T$26)
     277                      .dwendtag $C$DW$63
     278              
     279              
     280              $C$DW$66        .dwtag  DW_TAG_subprogram, DW_AT_name("SD_configurePullup")
     281                      .dwattr $C$DW$66, DW_AT_TI_symbol_name("_SD_configurePullup")
     282                      .dwattr $C$DW$66, DW_AT_type(*$C$DW$T$105)
     283                      .dwattr $C$DW$66, DW_AT_declaration
     284                      .dwattr $C$DW$66, DW_AT_external
     285              $C$DW$67        .dwtag  DW_TAG_formal_parameter
     286                      .dwattr $C$DW$67, DW_AT_type(*$C$DW$T$103)
     287              $C$DW$68        .dwtag  DW_TAG_formal_parameter
     288                      .dwattr $C$DW$68, DW_AT_type(*$C$DW$T$40)
     289                      .dwendtag $C$DW$66
     290              
     291              
     292              $C$DW$69        .dwtag  DW_TAG_subprogram, DW_AT_name("printf")
     293                      .dwattr $C$DW$69, DW_AT_TI_symbol_name("_printf")
     294                      .dwattr $C$DW$69, DW_AT_type(*$C$DW$T$10)
     295                      .dwattr $C$DW$69, DW_AT_declaration
     296                      .dwattr $C$DW$69, DW_AT_external
     297              $C$DW$70        .dwtag  DW_TAG_formal_parameter
     298                      .dwattr $C$DW$70, DW_AT_type(*$C$DW$T$144)
     299              $C$DW$71        .dwtag  DW_TAG_unspecified_parameters
     300                      .dwendtag $C$DW$69
     301              
     302                      .global _pMmcsdContObj
     303 000000               .bss    _pMmcsdContObj,64,0,2
     304              $C$DW$72        .dwtag  DW_TAG_variable, DW_AT_name("pMmcsdContObj")
     305                      .dwattr $C$DW$72, DW_AT_TI_symbol_name("_pMmcsdContObj")
     306                      .dwattr $C$DW$72, DW_AT_location[DW_OP_addr _pMmcsdContObj]
     307                      .dwattr $C$DW$72, DW_AT_type(*$C$DW$T$101)
     308                      .dwattr $C$DW$72, DW_AT_external
     309                      .global _mmcsdHandle
     310 000040               .bss    _mmcsdHandle,2,0,2
     311              $C$DW$73        .dwtag  DW_TAG_variable, DW_AT_name("mmcsdHandle")
     312                      .dwattr $C$DW$73, DW_AT_TI_symbol_name("_mmcsdHandle")
     313                      .dwattr $C$DW$73, DW_AT_location[DW_OP_addr _mmcsdHandle]
     314                      .dwattr $C$DW$73, DW_AT_type(*$C$DW$T$103)
     315                      .dwattr $C$DW$73, DW_AT_external
     316                      .global _mmcCardObj
     317 000042               .bss    _mmcCardObj,30,0,2
     318              $C$DW$74        .dwtag  DW_TAG_variable, DW_AT_name("mmcCardObj")
     319                      .dwattr $C$DW$74, DW_AT_TI_symbol_name("_mmcCardObj")
     320                      .dwattr $C$DW$74, DW_AT_location[DW_OP_addr _mmcCardObj]
     321                      .dwattr $C$DW$74, DW_AT_type(*$C$DW$T$81)
     322                      .dwattr $C$DW$74, DW_AT_external
     323                      .global _sdCardIdObj
     324 000060               .bss    _sdCardIdObj,16,0,2
     325              $C$DW$75        .dwtag  DW_TAG_variable, DW_AT_name("sdCardIdObj")
     326                      .dwattr $C$DW$75, DW_AT_TI_symbol_name("_sdCardIdObj")
     327                      .dwattr $C$DW$75, DW_AT_location[DW_OP_addr _sdCardIdObj]
     328                      .dwattr $C$DW$75, DW_AT_type(*$C$DW$T$34)
     329                      .dwattr $C$DW$75, DW_AT_external
TMS320C55x Assembler PC v4.4.1 Sat Sep 15 12:23:51 2018

Tools Copyright (c) 1996-2012 Texas Instruments Incorporated
ezdsp5535_sdcard.asm                                                 PAGE    7

     330                      .global _sdCardCsdObj
     331 000070               .bss    _sdCardCsdObj,34,0,0
     332              $C$DW$76        .dwtag  DW_TAG_variable, DW_AT_name("sdCardCsdObj")
     333                      .dwattr $C$DW$76, DW_AT_TI_symbol_name("_sdCardCsdObj")
     334                      .dwattr $C$DW$76, DW_AT_location[DW_OP_addr _sdCardCsdObj]
     335                      .dwattr $C$DW$76, DW_AT_type(*$C$DW$T$36)
     336                      .dwattr $C$DW$76, DW_AT_external
     337                      .global _cardAddr
     338 000092               .bss    _cardAddr,2,0,2
     339              $C$DW$77        .dwtag  DW_TAG_variable, DW_AT_name("cardAddr")
     340                      .dwattr $C$DW$77, DW_AT_TI_symbol_name("_cardAddr")
     341                      .dwattr $C$DW$77, DW_AT_location[DW_OP_addr _cardAddr]
     342                      .dwattr $C$DW$77, DW_AT_type(*$C$DW$T$28)
     343                      .dwattr $C$DW$77, DW_AT_external
     344                      .global _mmcStatus
     345 000094               .bss    _mmcStatus,1,0,0
     346              $C$DW$78        .dwtag  DW_TAG_variable, DW_AT_name("mmcStatus")
     347                      .dwattr $C$DW$78, DW_AT_TI_symbol_name("_mmcStatus")
     348                      .dwattr $C$DW$78, DW_AT_location[DW_OP_addr _mmcStatus]
     349                      .dwattr $C$DW$78, DW_AT_type(*$C$DW$T$105)
     350                      .dwattr $C$DW$78, DW_AT_external
     351              ;       F:\ti\ccs8p1\ccsv8\tools\compiler\alt-install-ti-cgt-c55x_4.4.1\bin\acp55.exe -@f:\\AppData\\Local\\T
     352 000000               .sect   ".text"
     353                      .align 4
     354                      .global _EZDSP5535_SDCARD_init
     355              
     356              $C$DW$79        .dwtag  DW_TAG_subprogram, DW_AT_name("EZDSP5535_SDCARD_init")
     357                      .dwattr $C$DW$79, DW_AT_low_pc(_EZDSP5535_SDCARD_init)
     358                      .dwattr $C$DW$79, DW_AT_high_pc(0x00)
     359                      .dwattr $C$DW$79, DW_AT_TI_symbol_name("_EZDSP5535_SDCARD_init")
     360                      .dwattr $C$DW$79, DW_AT_external
     361                      .dwattr $C$DW$79, DW_AT_type(*$C$DW$T$104)
     362                      .dwattr $C$DW$79, DW_AT_TI_begin_file("../c5535_bsl_revc/ezdsp5535_v1/lib/bsl/ezdsp5535_sdcard.c")
     363                      .dwattr $C$DW$79, DW_AT_TI_begin_line(0x3c)
     364                      .dwattr $C$DW$79, DW_AT_TI_begin_column(0x07)
     365                      .dwattr $C$DW$79, DW_AT_TI_max_frame_size(0x08)
     366                      .dwpsn  file "../c5535_bsl_revc/ezdsp5535_v1/lib/bsl/ezdsp5535_sdcard.c",line 61,column 1,is_stmt,add
     367              
     368                      .dwfde $C$DW$CIE, _EZDSP5535_SDCARD_init
     369              ;*******************************************************************************
     370              ;* FUNCTION NAME: EZDSP5535_SDCARD_init                                        *
     371              ;*                                                                             *
     372              ;*   Function Uses Regs : AC0,AC0,T0,T1,AR0,XAR0,AR1,XAR1,AR2,XAR2,AR3,XAR3,SP,*
     373              ;*                        CARRY,TC1,M40,SATA,SATD,RDM,FRCT,SMUL                *
     374              ;*   Stack Frame        : Compact (No Frame Pointer, w/ debug)                 *
     375              ;*   Total Frame Size   : 8 words                                              *
     376              ;*                        (1 return address/alignment)                         *
     377              ;*                        (2 function parameters)                              *
     378              ;*                        (5 local values)                                     *
     379              ;*   Min System Stack   : 1 word                                               *
     380              ;*******************************************************************************
     381 000000       _EZDSP5535_SDCARD_init:
     382                      .dwcfi  cfa_offset, 1
     383                      .dwcfi  save_reg_to_mem, 91, -1
     384 000000 4EF9          AADD #-7, SP
TMS320C55x Assembler PC v4.4.1 Sat Sep 15 12:23:51 2018

Tools Copyright (c) 1996-2012 Texas Instruments Incorporated
ezdsp5535_sdcard.asm                                                 PAGE    8

     385                      .dwcfi  cfa_offset, 8
     386              $C$DW$80        .dwtag  DW_TAG_variable, DW_AT_name("actCard")
     387                      .dwattr $C$DW$80, DW_AT_TI_symbol_name("_actCard")
     388                      .dwattr $C$DW$80, DW_AT_type(*$C$DW$T$19)
     389                      .dwattr $C$DW$80, DW_AT_location[DW_OP_bregx 0x24 2]
     390              $C$DW$81        .dwtag  DW_TAG_variable, DW_AT_name("sectCount")
     391                      .dwattr $C$DW$81, DW_AT_TI_symbol_name("_sectCount")
     392                      .dwattr $C$DW$81, DW_AT_type(*$C$DW$T$28)
     393                      .dwattr $C$DW$81, DW_AT_location[DW_OP_bregx 0x24 4]
     394              $C$DW$82        .dwtag  DW_TAG_variable, DW_AT_name("rca")
     395                      .dwattr $C$DW$82, DW_AT_TI_symbol_name("_rca")
     396                      .dwattr $C$DW$82, DW_AT_type(*$C$DW$T$19)
     397                      .dwattr $C$DW$82, DW_AT_location[DW_OP_bregx 0x24 6]
     398                      .dwpsn  file "../c5535_bsl_revc/ezdsp5535_v1/lib/bsl/ezdsp5535_sdcard.c",line 66,column 2,is_stmt
     399 000002 3C00          MOV #0, AC0 ; |66| 
     400 000004 EB08          MOV AC0, dbl(*SP(#4)) ; |66| 
         000006 08   
     401                      .dwpsn  file "../c5535_bsl_revc/ezdsp5535_v1/lib/bsl/ezdsp5535_sdcard.c",line 69,column 2,is_stmt
     402              $C$DW$83        .dwtag  DW_TAG_TI_branch
     403                      .dwattr $C$DW$83, DW_AT_low_pc(0x00)
     404                      .dwattr $C$DW$83, DW_AT_name("_MMC_init")
     405                      .dwattr $C$DW$83, DW_AT_TI_call
     406 000007 6C00          CALL #_MMC_init ; |69| 
         000009 0000!
     407                                                      ; call occurs [#_MMC_init] ; |69| 
     408 00000b C431          MOV T0, *(#_mmcStatus) ; |69| 
         00000d 0000 
         00000f 94-  
     409                      .dwpsn  file "../c5535_bsl_revc/ezdsp5535_v1/lib/bsl/ezdsp5535_sdcard.c",line 70,column 2,is_stmt
     410 000010 2249          MOV T0, AR1
     411 000012 0409          BCC $C$L1,AR1 == #0 ; |70| 
         000014 15   
     412                                                      ; branchcc occurs ; |70| 
     413                      .dwpsn  file "../c5535_bsl_revc/ezdsp5535_v1/lib/bsl/ezdsp5535_sdcard.c",line 72,column 3,is_stmt
     414 000015 EC31          AMOV #$C$FSL1, XAR3 ; |72| 
         000017 BE00 
         000019 0000+
     415 00001b EB00          MOV XAR3, dbl(*SP(#0))
         00001d B5   
     416              $C$DW$84        .dwtag  DW_TAG_TI_branch
     417                      .dwattr $C$DW$84, DW_AT_low_pc(0x00)
     418                      .dwattr $C$DW$84, DW_AT_name("_printf")
     419                      .dwattr $C$DW$84, DW_AT_TI_call
     420 00001e 6C00          CALL #_printf ; |72| 
         000020 0000!
     421                                                      ; call occurs [#_printf] ; |72| 
     422                      .dwpsn  file "../c5535_bsl_revc/ezdsp5535_v1/lib/bsl/ezdsp5535_sdcard.c",line 73,column 3,is_stmt
     423 000022 A431          MOV *(#_mmcStatus), T0 ; |73| 
         000024 0000 
         000026 94-  
     424 000027 0603          B $C$L23  ; |73| 
         000029 77   
     425                                                      ; branch occurs ; |73| 
     426 00002a       $C$L1:    
     427                      .dwpsn  file "../c5535_bsl_revc/ezdsp5535_v1/lib/bsl/ezdsp5535_sdcard.c",line 78,column 2,is_stmt
TMS320C55x Assembler PC v4.4.1 Sat Sep 15 12:23:51 2018

Tools Copyright (c) 1996-2012 Texas Instruments Incorporated
ezdsp5535_sdcard.asm                                                 PAGE    9

     428 00002a EC31          AMOV #_pMmcsdContObj, XAR0 ; |78| 
         00002c 8E00 
         00002e 0000-
     429 000030 EC31          AMOV #_mmcStatus, XAR1 ; |78| 
         000032 9E00 
         000034 0094-
     430 000036 3C04          MOV #0, T0
     431              $C$DW$85        .dwtag  DW_TAG_TI_branch
     432                      .dwattr $C$DW$85, DW_AT_low_pc(0x00)
     433                      .dwattr $C$DW$85, DW_AT_name("_MMC_open")
     434                      .dwattr $C$DW$85, DW_AT_TI_call
     435              
     436 000038 6C00          CALL #_MMC_open ; |78| 
         00003a 0000!
     437 00003c 3D05  ||      MOV #0, T1
     438              
     439                                                      ; call occurs [#_MMC_open] ; |78| 
     440 00003e EB31          MOV XAR0, dbl(*(#_mmcsdHandle))
         000040 8500 
         000042 0040-
     441                      .dwpsn  file "../c5535_bsl_revc/ezdsp5535_v1/lib/bsl/ezdsp5535_sdcard.c",line 80,column 2,is_stmt
     442 000044 A931          MOV *(#_mmcStatus), AR1 ; |80| 
         000046 0000 
         000048 94-  
     443 000049 0409          BCC $C$L2,AR1 == #0 ; |80| 
         00004b 15   
     444                                                      ; branchcc occurs ; |80| 
     445                      .dwpsn  file "../c5535_bsl_revc/ezdsp5535_v1/lib/bsl/ezdsp5535_sdcard.c",line 82,column 3,is_stmt
     446 00004c EC31          AMOV #$C$FSL2, XAR3 ; |82| 
         00004e BE00 
         000050 0016+
     447 000052 EB00          MOV XAR3, dbl(*SP(#0))
         000054 B5   
     448              $C$DW$86        .dwtag  DW_TAG_TI_branch
     449                      .dwattr $C$DW$86, DW_AT_low_pc(0x00)
     450                      .dwattr $C$DW$86, DW_AT_name("_printf")
     451                      .dwattr $C$DW$86, DW_AT_TI_call
     452 000055 6C00          CALL #_printf ; |82| 
         000057 0000!
     453                                                      ; call occurs [#_printf] ; |82| 
     454                      .dwpsn  file "../c5535_bsl_revc/ezdsp5535_v1/lib/bsl/ezdsp5535_sdcard.c",line 83,column 3,is_stmt
     455 000059 A431          MOV *(#_mmcStatus), T0 ; |83| 
         00005b 0000 
         00005d 94-  
     456 00005e 0603          B $C$L23  ; |83| 
         000060 40   
     457                                                      ; branch occurs ; |83| 
     458 000061       $C$L2:    
     459                      .dwpsn  file "../c5535_bsl_revc/ezdsp5535_v1/lib/bsl/ezdsp5535_sdcard.c",line 87,column 3,is_stmt
     460 000061 EC31          AMOV #$C$FSL3, XAR3 ; |87| 
         000063 BE00 
         000065 002C+
     461 000067 EB00          MOV XAR3, dbl(*SP(#0))
         000069 B5   
     462              $C$DW$87        .dwtag  DW_TAG_TI_branch
TMS320C55x Assembler PC v4.4.1 Sat Sep 15 12:23:51 2018

Tools Copyright (c) 1996-2012 Texas Instruments Incorporated
ezdsp5535_sdcard.asm                                                 PAGE   10

     463                      .dwattr $C$DW$87, DW_AT_low_pc(0x00)
     464                      .dwattr $C$DW$87, DW_AT_name("_printf")
     465                      .dwattr $C$DW$87, DW_AT_TI_call
     466 00006a 6C00          CALL #_printf ; |87| 
         00006c 0000!
     467                                                      ; call occurs [#_printf] ; |87| 
     468                      .dwpsn  file "../c5535_bsl_revc/ezdsp5535_v1/lib/bsl/ezdsp5535_sdcard.c",line 91,column 2,is_stmt
     469 00006e ED31          MOV dbl(*(#_mmcsdHandle)), XAR0
         000070 8F00 
         000072 0040-
     470              $C$DW$88        .dwtag  DW_TAG_TI_branch
     471                      .dwattr $C$DW$88, DW_AT_low_pc(0x00)
     472                      .dwattr $C$DW$88, DW_AT_name("_MMC_sendGoIdle")
     473                      .dwattr $C$DW$88, DW_AT_TI_call
     474 000074 6C00          CALL #_MMC_sendGoIdle ; |91| 
         000076 0000!
     475                                                      ; call occurs [#_MMC_sendGoIdle] ; |91| 
     476 000078 C431          MOV T0, *(#_mmcStatus) ; |91| 
         00007a 0000 
         00007c 94-  
     477                      .dwpsn  file "../c5535_bsl_revc/ezdsp5535_v1/lib/bsl/ezdsp5535_sdcard.c",line 92,column 2,is_stmt
     478 00007d 2249          MOV T0, AR1
     479 00007f 0409          BCC $C$L3,AR1 == #0 ; |92| 
         000081 15   
     480                                                      ; branchcc occurs ; |92| 
     481                      .dwpsn  file "../c5535_bsl_revc/ezdsp5535_v1/lib/bsl/ezdsp5535_sdcard.c",line 94,column 3,is_stmt
     482 000082 EC31          AMOV #$C$FSL4, XAR3 ; |94| 
         000084 BE00 
         000086 0046+
     483 000088 EB00          MOV XAR3, dbl(*SP(#0))
         00008a B5   
     484              $C$DW$89        .dwtag  DW_TAG_TI_branch
     485                      .dwattr $C$DW$89, DW_AT_low_pc(0x00)
     486                      .dwattr $C$DW$89, DW_AT_name("_printf")
     487                      .dwattr $C$DW$89, DW_AT_TI_call
     488 00008b 6C00          CALL #_printf ; |94| 
         00008d 0000!
     489                                                      ; call occurs [#_printf] ; |94| 
     490                      .dwpsn  file "../c5535_bsl_revc/ezdsp5535_v1/lib/bsl/ezdsp5535_sdcard.c",line 95,column 3,is_stmt
     491 00008f A431          MOV *(#_mmcStatus), T0 ; |95| 
         000091 0000 
         000093 94-  
     492 000094 0603          B $C$L23  ; |95| 
         000096 0A   
     493                                                      ; branch occurs ; |95| 
     494 000097       $C$L3:    
     495                      .dwpsn  file "../c5535_bsl_revc/ezdsp5535_v1/lib/bsl/ezdsp5535_sdcard.c",line 99,column 5,is_stmt
     496 000097 ED31          MOV dbl(*(#_mmcsdHandle)), XAR0
         000099 8F00 
         00009b 0040-
     497 00009d EC31          AMOV #_mmcCardObj, XAR1 ; |99| 
         00009f 9E00 
         0000a1 0042-
     498              $C$DW$90        .dwtag  DW_TAG_TI_branch
     499                      .dwattr $C$DW$90, DW_AT_low_pc(0x00)
TMS320C55x Assembler PC v4.4.1 Sat Sep 15 12:23:51 2018

Tools Copyright (c) 1996-2012 Texas Instruments Incorporated
ezdsp5535_sdcard.asm                                                 PAGE   11

     500                      .dwattr $C$DW$90, DW_AT_name("_MMC_selectCard")
     501                      .dwattr $C$DW$90, DW_AT_TI_call
     502 0000a3 6C00          CALL #_MMC_selectCard ; |99| 
         0000a5 0000!
     503                                                      ; call occurs [#_MMC_selectCard] ; |99| 
     504 0000a7 C431          MOV T0, *(#_mmcStatus) ; |99| 
         0000a9 0000 
         0000ab 94-  
     505                      .dwpsn  file "../c5535_bsl_revc/ezdsp5535_v1/lib/bsl/ezdsp5535_sdcard.c",line 100,column 2,is_stmt
     506 0000ac F031          CMP *(#_mmcStatus) == #-5, TC1 ; |100| 
         0000ae FFFB 
         0000b0 0000 
         0000b2 94-  
     507 0000b3 6564          BCC $C$L4,TC1 ; |100| 
     508                                                      ; branchcc occurs ; |100| 
     509 0000b5 F031          CMP *(#_mmcStatus) == #-6, TC1 ; |100| 
         0000b7 FFFA 
         0000b9 0000 
         0000bb 94-  
     510 0000bc 0474          BCC $C$L5,!TC1 ; |100| 
         0000be 15   
     511                                                      ; branchcc occurs ; |100| 
     512 0000bf       $C$L4:    
     513                      .dwpsn  file "../c5535_bsl_revc/ezdsp5535_v1/lib/bsl/ezdsp5535_sdcard.c",line 103,column 3,is_stmt
     514 0000bf EC31          AMOV #$C$FSL5, XAR3 ; |103| 
         0000c1 BE00 
         0000c3 0062+
     515 0000c5 EB00          MOV XAR3, dbl(*SP(#0))
         0000c7 B5   
     516              $C$DW$91        .dwtag  DW_TAG_TI_branch
     517                      .dwattr $C$DW$91, DW_AT_low_pc(0x00)
     518                      .dwattr $C$DW$91, DW_AT_name("_printf")
     519                      .dwattr $C$DW$91, DW_AT_TI_call
     520 0000c8 6C00          CALL #_printf ; |103| 
         0000ca 0000!
     521                                                      ; call occurs [#_printf] ; |103| 
     522                      .dwpsn  file "../c5535_bsl_revc/ezdsp5535_v1/lib/bsl/ezdsp5535_sdcard.c",line 104,column 3,is_stmt
     523 0000cc A431          MOV *(#_mmcStatus), T0 ; |104| 
         0000ce 0000 
         0000d0 94-  
     524 0000d1 0602          B $C$L23  ; |104| 
         0000d3 CD   
     525                                                      ; branch occurs ; |104| 
     526 0000d4       $C$L5:    
     527                      .dwpsn  file "../c5535_bsl_revc/ezdsp5535_v1/lib/bsl/ezdsp5535_sdcard.c",line 108,column 2,is_stmt
     528 0000d4 F031          CMP *(#(_mmcCardObj+18)) == #1, TC1 ; |108| 
         0000d6 0001 
         0000d8 0000 
         0000da 54-  
     529 0000db 0474          BCC $C$L7,!TC1 ; |108| 
         0000dd 6D   
     530                                                      ; branchcc occurs ; |108| 
     531                      .dwpsn  file "../c5535_bsl_revc/ezdsp5535_v1/lib/bsl/ezdsp5535_sdcard.c",line 110,column 3,is_stmt
     532 0000de EC31          AMOV #$C$FSL6, XAR3 ; |110| 
         0000e0 BE00 
TMS320C55x Assembler PC v4.4.1 Sat Sep 15 12:23:51 2018

Tools Copyright (c) 1996-2012 Texas Instruments Incorporated
ezdsp5535_sdcard.asm                                                 PAGE   12

         0000e2 007E+
     533 0000e4 EB00          MOV XAR3, dbl(*SP(#0))
         0000e6 B5   
     534              $C$DW$92        .dwtag  DW_TAG_TI_branch
     535                      .dwattr $C$DW$92, DW_AT_low_pc(0x00)
     536                      .dwattr $C$DW$92, DW_AT_name("_printf")
     537                      .dwattr $C$DW$92, DW_AT_TI_call
     538 0000e7 6C00          CALL #_printf ; |110| 
         0000e9 0000!
     539                                                      ; call occurs [#_printf] ; |110| 
     540                      .dwpsn  file "../c5535_bsl_revc/ezdsp5535_v1/lib/bsl/ezdsp5535_sdcard.c",line 113,column 3,is_stmt
     541 0000eb ED31          MOV dbl(*(#_mmcsdHandle)), XAR3
         0000ed BF00 
         0000ef 0040-
     542 0000f1 ED75          MOV dbl(*AR3(short(#2))), XAR3
         0000f3 BF   
     543 0000f4 F06D          CMP *AR3(#26) == #1, TC1 ; |113| 
         0000f6 0001 
         0000f8 001A 
     544 0000fa 0474          BCC $C$L6,!TC1 ; |113| 
         0000fc 26   
     545                                                      ; branchcc occurs ; |113| 
     546                      .dwpsn  file "../c5535_bsl_revc/ezdsp5535_v1/lib/bsl/ezdsp5535_sdcard.c",line 115,column 4,is_stmt
     547 0000fd EC31          AMOV #$C$FSL7, XAR3 ; |115| 
         0000ff BE00 
         000101 0096+
     548 000103 EB00          MOV XAR3, dbl(*SP(#0))
         000105 B5   
     549              $C$DW$93        .dwtag  DW_TAG_TI_branch
     550                      .dwattr $C$DW$93, DW_AT_low_pc(0x00)
     551                      .dwattr $C$DW$93, DW_AT_name("_printf")
     552                      .dwattr $C$DW$93, DW_AT_TI_call
     553 000106 6C00          CALL #_printf ; |115| 
         000108 0000!
     554                                                      ; call occurs [#_printf] ; |115| 
     555                      .dwpsn  file "../c5535_bsl_revc/ezdsp5535_v1/lib/bsl/ezdsp5535_sdcard.c",line 116,column 4,is_stmt
     556 00010a EC31          AMOV #$C$FSL8, XAR3 ; |116| 
         00010c BE00 
         00010e 00BA+
     557 000110 EB00          MOV XAR3, dbl(*SP(#0))
         000112 B5   
     558              $C$DW$94        .dwtag  DW_TAG_TI_branch
     559                      .dwattr $C$DW$94, DW_AT_low_pc(0x00)
     560                      .dwattr $C$DW$94, DW_AT_name("_printf")
     561                      .dwattr $C$DW$94, DW_AT_TI_call
     562 000113 6C00          CALL #_printf ; |116| 
         000115 0000!
     563                                                      ; call occurs [#_printf] ; |116| 
     564                      .dwpsn  file "../c5535_bsl_revc/ezdsp5535_v1/lib/bsl/ezdsp5535_sdcard.c",line 120,column 4,is_stmt
     565 000117 ED08          MOV dbl(*SP(#4)), AC0 ; |120| 
         000119 08   
     566 00011a EB31          MOV AC0, dbl(*(#_cardAddr)) ; |120| 
         00011c 0800 
         00011e 0092-
     567                      .dwpsn  file "../c5535_bsl_revc/ezdsp5535_v1/lib/bsl/ezdsp5535_sdcard.c",line 121,column 3,is_stmt
TMS320C55x Assembler PC v4.4.1 Sat Sep 15 12:23:51 2018

Tools Copyright (c) 1996-2012 Texas Instruments Incorporated
ezdsp5535_sdcard.asm                                                 PAGE   13

     568 000120 0600          B $C$L10  ; |121| 
         000122 5D   
     569                                                      ; branch occurs ; |121| 
     570 000123       $C$L6:    
     571                      .dwpsn  file "../c5535_bsl_revc/ezdsp5535_v1/lib/bsl/ezdsp5535_sdcard.c",line 124,column 4,is_stmt
     572 000123 EC31          AMOV #$C$FSL9, XAR3 ; |124| 
         000125 BE00 
         000127 00E8+
     573 000129 EB00          MOV XAR3, dbl(*SP(#0))
         00012b B5   
     574              $C$DW$95        .dwtag  DW_TAG_TI_branch
     575                      .dwattr $C$DW$95, DW_AT_low_pc(0x00)
     576                      .dwattr $C$DW$95, DW_AT_name("_printf")
     577                      .dwattr $C$DW$95, DW_AT_TI_call
     578 00012c 6C00          CALL #_printf ; |124| 
         00012e 0000!
     579                                                      ; call occurs [#_printf] ; |124| 
     580                      .dwpsn  file "../c5535_bsl_revc/ezdsp5535_v1/lib/bsl/ezdsp5535_sdcard.c",line 125,column 4,is_stmt
     581 000130 EC31          AMOV #$C$FSL10, XAR3 ; |125| 
         000132 BE00 
         000134 0110+
     582 000136 EB00          MOV XAR3, dbl(*SP(#0))
         000138 B5   
     583              $C$DW$96        .dwtag  DW_TAG_TI_branch
     584                      .dwattr $C$DW$96, DW_AT_low_pc(0x00)
     585                      .dwattr $C$DW$96, DW_AT_name("_printf")
     586                      .dwattr $C$DW$96, DW_AT_TI_call
     587 000139 6C00          CALL #_printf ; |125| 
         00013b 0000!
     588                                                      ; call occurs [#_printf] ; |125| 
     589                      .dwpsn  file "../c5535_bsl_revc/ezdsp5535_v1/lib/bsl/ezdsp5535_sdcard.c",line 130,column 4,is_stmt
     590 00013d ED08          MOV dbl(*SP(#4)), AC0 ; |130| 
         00013f 08   
     591 000140 1007          SFTL AC0, #9, AC0 ; |130| 
         000142 09   
     592 000143 EB31          MOV AC0, dbl(*(#_cardAddr)) ; |130| 
         000145 0800 
         000147 0092-
     593                      .dwpsn  file "../c5535_bsl_revc/ezdsp5535_v1/lib/bsl/ezdsp5535_sdcard.c",line 132,column 2,is_stmt
     594 000149 4A35          B $C$L10  ; |132| 
     595                                                      ; branch occurs ; |132| 
     596 00014b       $C$L7:    
     597                      .dwpsn  file "../c5535_bsl_revc/ezdsp5535_v1/lib/bsl/ezdsp5535_sdcard.c",line 136,column 3,is_stmt
     598 00014b A931          MOV *(#(_mmcCardObj+18)), AR1 ; |136| 
         00014d 0000 
         00014f 54-  
     599 000150 6799          BCC $C$L8,AR1 != #0 ; |136| 
     600                                                      ; branchcc occurs ; |136| 
     601                      .dwpsn  file "../c5535_bsl_revc/ezdsp5535_v1/lib/bsl/ezdsp5535_sdcard.c",line 138,column 4,is_stmt
     602 000152 EC31          AMOV #$C$FSL11, XAR3 ; |138| 
         000154 BE00 
         000156 013E+
     603 000158 EB00          MOV XAR3, dbl(*SP(#0))
         00015a B5   
     604              $C$DW$97        .dwtag  DW_TAG_TI_branch
TMS320C55x Assembler PC v4.4.1 Sat Sep 15 12:23:51 2018

Tools Copyright (c) 1996-2012 Texas Instruments Incorporated
ezdsp5535_sdcard.asm                                                 PAGE   14

     605                      .dwattr $C$DW$97, DW_AT_low_pc(0x00)
     606                      .dwattr $C$DW$97, DW_AT_name("_printf")
     607                      .dwattr $C$DW$97, DW_AT_TI_call
     608 00015b 6C00          CALL #_printf ; |138| 
         00015d 0000!
     609                                                      ; call occurs [#_printf] ; |138| 
     610                      .dwpsn  file "../c5535_bsl_revc/ezdsp5535_v1/lib/bsl/ezdsp5535_sdcard.c",line 139,column 3,is_stmt
     611 00015f 4A0D          B $C$L9   ; |139| 
     612                                                      ; branch occurs ; |139| 
     613 000161       $C$L8:    
     614                      .dwpsn  file "../c5535_bsl_revc/ezdsp5535_v1/lib/bsl/ezdsp5535_sdcard.c",line 142,column 4,is_stmt
     615 000161 EC31          AMOV #$C$FSL12, XAR3 ; |142| 
         000163 BE00 
         000165 0152+
     616 000167 EB00          MOV XAR3, dbl(*SP(#0))
         000169 B5   
     617              $C$DW$98        .dwtag  DW_TAG_TI_branch
     618                      .dwattr $C$DW$98, DW_AT_low_pc(0x00)
     619                      .dwattr $C$DW$98, DW_AT_name("_printf")
     620                      .dwattr $C$DW$98, DW_AT_TI_call
     621 00016a 6C00          CALL #_printf ; |142| 
         00016c 0000!
     622                                                      ; call occurs [#_printf] ; |142| 
     623 00016e       $C$L9:    
     624                      .dwpsn  file "../c5535_bsl_revc/ezdsp5535_v1/lib/bsl/ezdsp5535_sdcard.c",line 145,column 3,is_stmt
     625 00016e EC31          AMOV #$C$FSL13, XAR3 ; |145| 
         000170 BE00 
         000172 016C+
     626 000174 EB00          MOV XAR3, dbl(*SP(#0))
         000176 B5   
     627              $C$DW$99        .dwtag  DW_TAG_TI_branch
     628                      .dwattr $C$DW$99, DW_AT_low_pc(0x00)
     629                      .dwattr $C$DW$99, DW_AT_name("_printf")
     630                      .dwattr $C$DW$99, DW_AT_TI_call
     631 000177 6C00          CALL #_printf ; |145| 
         000179 0000!
     632                                                      ; call occurs [#_printf] ; |145| 
     633                      .dwpsn  file "../c5535_bsl_revc/ezdsp5535_v1/lib/bsl/ezdsp5535_sdcard.c",line 146,column 3,is_stmt
     634 00017b 3E14          MOV #-1, T0
     635 00017d 0602          B $C$L23  ; |146| 
         00017f 21   
     636                                                      ; branch occurs ; |146| 
     637 000180       $C$L10:    
     638                      .dwpsn  file "../c5535_bsl_revc/ezdsp5535_v1/lib/bsl/ezdsp5535_sdcard.c",line 150,column 5,is_stmt
     639 000180 ED31          MOV dbl(*(#_mmcsdHandle)), XAR0
         000182 8F00 
         000184 0040-
     640 000186 7600          MOV #70, T0 ; |150| 
         000188 4648 
     641              $C$DW$100       .dwtag  DW_TAG_TI_branch
     642                      .dwattr $C$DW$100, DW_AT_low_pc(0x00)
     643                      .dwattr $C$DW$100, DW_AT_name("_MMC_sendOpCond")
     644                      .dwattr $C$DW$100, DW_AT_TI_call
     645 00018a 6C00          CALL #_MMC_sendOpCond ; |150| 
         00018c 0000!
TMS320C55x Assembler PC v4.4.1 Sat Sep 15 12:23:51 2018

Tools Copyright (c) 1996-2012 Texas Instruments Incorporated
ezdsp5535_sdcard.asm                                                 PAGE   15

     646                                                      ; call occurs [#_MMC_sendOpCond] ; |150| 
     647 00018e C431          MOV T0, *(#_mmcStatus) ; |150| 
         000190 0000 
         000192 94-  
     648                      .dwpsn  file "../c5535_bsl_revc/ezdsp5535_v1/lib/bsl/ezdsp5535_sdcard.c",line 151,column 2,is_stmt
     649 000193 2249          MOV T0, AR1
     650 000195 0409          BCC $C$L11,AR1 == #0 ; |151| 
         000197 15   
     651                                                      ; branchcc occurs ; |151| 
     652                      .dwpsn  file "../c5535_bsl_revc/ezdsp5535_v1/lib/bsl/ezdsp5535_sdcard.c",line 153,column 3,is_stmt
     653 000198 EC31          AMOV #$C$FSL14, XAR3 ; |153| 
         00019a BE00 
         00019c 0186+
     654 00019e EB00          MOV XAR3, dbl(*SP(#0))
         0001a0 B5   
     655              $C$DW$101       .dwtag  DW_TAG_TI_branch
     656                      .dwattr $C$DW$101, DW_AT_low_pc(0x00)
     657                      .dwattr $C$DW$101, DW_AT_name("_printf")
     658                      .dwattr $C$DW$101, DW_AT_TI_call
     659 0001a1 6C00          CALL #_printf ; |153| 
         0001a3 0000!
     660                                                      ; call occurs [#_printf] ; |153| 
     661                      .dwpsn  file "../c5535_bsl_revc/ezdsp5535_v1/lib/bsl/ezdsp5535_sdcard.c",line 154,column 3,is_stmt
     662 0001a5 A431          MOV *(#_mmcStatus), T0 ; |154| 
         0001a7 0000 
         0001a9 94-  
     663 0001aa 0601          B $C$L23  ; |154| 
         0001ac F4   
     664                                                      ; branch occurs ; |154| 
     665 0001ad       $C$L11:    
     666                      .dwpsn  file "../c5535_bsl_revc/ezdsp5535_v1/lib/bsl/ezdsp5535_sdcard.c",line 158,column 2,is_stmt
     667 0001ad ED31          MOV dbl(*(#_mmcsdHandle)), XAR0
         0001af 8F00 
         0001b1 0040-
     668 0001b3 EC31          AMOV #_sdCardIdObj, XAR1 ; |158| 
         0001b5 9E00 
         0001b7 0060-
     669              $C$DW$102       .dwtag  DW_TAG_TI_branch
     670                      .dwattr $C$DW$102, DW_AT_low_pc(0x00)
     671                      .dwattr $C$DW$102, DW_AT_name("_SD_sendAllCID")
     672                      .dwattr $C$DW$102, DW_AT_TI_call
     673 0001b9 6C00          CALL #_SD_sendAllCID ; |158| 
         0001bb 0000!
     674                                                      ; call occurs [#_SD_sendAllCID] ; |158| 
     675 0001bd C431          MOV T0, *(#_mmcStatus) ; |158| 
         0001bf 0000 
         0001c1 94-  
     676                      .dwpsn  file "../c5535_bsl_revc/ezdsp5535_v1/lib/bsl/ezdsp5535_sdcard.c",line 159,column 2,is_stmt
     677 0001c2 2249          MOV T0, AR1
     678 0001c4 0409          BCC $C$L12,AR1 == #0 ; |159| 
         0001c6 15   
     679                                                      ; branchcc occurs ; |159| 
     680                      .dwpsn  file "../c5535_bsl_revc/ezdsp5535_v1/lib/bsl/ezdsp5535_sdcard.c",line 161,column 3,is_stmt
     681 0001c7 EC31          AMOV #$C$FSL15, XAR3 ; |161| 
         0001c9 BE00 
TMS320C55x Assembler PC v4.4.1 Sat Sep 15 12:23:51 2018

Tools Copyright (c) 1996-2012 Texas Instruments Incorporated
ezdsp5535_sdcard.asm                                                 PAGE   16

         0001cb 01A2+
     682 0001cd EB00          MOV XAR3, dbl(*SP(#0))
         0001cf B5   
     683              $C$DW$103       .dwtag  DW_TAG_TI_branch
     684                      .dwattr $C$DW$103, DW_AT_low_pc(0x00)
     685                      .dwattr $C$DW$103, DW_AT_name("_printf")
     686                      .dwattr $C$DW$103, DW_AT_TI_call
     687 0001d0 6C00          CALL #_printf ; |161| 
         0001d2 0000!
     688                                                      ; call occurs [#_printf] ; |161| 
     689                      .dwpsn  file "../c5535_bsl_revc/ezdsp5535_v1/lib/bsl/ezdsp5535_sdcard.c",line 162,column 3,is_stmt
     690 0001d4 A431          MOV *(#_mmcStatus), T0 ; |162| 
         0001d6 0000 
         0001d8 94-  
     691 0001d9 0601          B $C$L23  ; |162| 
         0001db C5   
     692                                                      ; branch occurs ; |162| 
     693 0001dc       $C$L12:    
     694                      .dwpsn  file "../c5535_bsl_revc/ezdsp5535_v1/lib/bsl/ezdsp5535_sdcard.c",line 166,column 2,is_stmt
     695 0001dc EC0C          AMAR *SP(#6), XAR2
         0001de AE   
     696 0001df ED31          MOV dbl(*(#_mmcsdHandle)), XAR0
         0001e1 8F00 
         0001e3 0040-
     697 0001e5 EC31          AMOV #_mmcCardObj, XAR1 ; |166| 
         0001e7 9E00 
         0001e9 0042-
     698              $C$DW$104       .dwtag  DW_TAG_TI_branch
     699                      .dwattr $C$DW$104, DW_AT_low_pc(0x00)
     700                      .dwattr $C$DW$104, DW_AT_name("_SD_sendRca")
     701                      .dwattr $C$DW$104, DW_AT_TI_call
     702 0001eb 6C00          CALL #_SD_sendRca ; |166| 
         0001ed 0000!
     703                                                      ; call occurs [#_SD_sendRca] ; |166| 
     704 0001ef C431          MOV T0, *(#_mmcStatus) ; |166| 
         0001f1 0000 
         0001f3 94-  
     705                      .dwpsn  file "../c5535_bsl_revc/ezdsp5535_v1/lib/bsl/ezdsp5535_sdcard.c",line 167,column 2,is_stmt
     706 0001f4 2249          MOV T0, AR1
     707 0001f6 0409          BCC $C$L13,AR1 == #0 ; |167| 
         0001f8 15   
     708                                                      ; branchcc occurs ; |167| 
     709                      .dwpsn  file "../c5535_bsl_revc/ezdsp5535_v1/lib/bsl/ezdsp5535_sdcard.c",line 169,column 3,is_stmt
     710 0001f9 EC31          AMOV #$C$FSL16, XAR3 ; |169| 
         0001fb BE00 
         0001fd 01BC+
     711 0001ff EB00          MOV XAR3, dbl(*SP(#0))
         000201 B5   
     712              $C$DW$105       .dwtag  DW_TAG_TI_branch
     713                      .dwattr $C$DW$105, DW_AT_low_pc(0x00)
     714                      .dwattr $C$DW$105, DW_AT_name("_printf")
     715                      .dwattr $C$DW$105, DW_AT_TI_call
     716 000202 6C00          CALL #_printf ; |169| 
         000204 0000!
     717                                                      ; call occurs [#_printf] ; |169| 
TMS320C55x Assembler PC v4.4.1 Sat Sep 15 12:23:51 2018

Tools Copyright (c) 1996-2012 Texas Instruments Incorporated
ezdsp5535_sdcard.asm                                                 PAGE   17

     718                      .dwpsn  file "../c5535_bsl_revc/ezdsp5535_v1/lib/bsl/ezdsp5535_sdcard.c",line 170,column 3,is_stmt
     719 000206 A431          MOV *(#_mmcStatus), T0 ; |170| 
         000208 0000 
         00020a 94-  
     720 00020b 0601          B $C$L23  ; |170| 
         00020d 93   
     721                                                      ; branch occurs ; |170| 
     722 00020e       $C$L13:    
     723                      .dwpsn  file "../c5535_bsl_revc/ezdsp5535_v1/lib/bsl/ezdsp5535_sdcard.c",line 174,column 2,is_stmt
     724 00020e ED31          MOV dbl(*(#_mmcsdHandle)), XAR0
         000210 8F00 
         000212 0040-
     725 000214 EC31          AMOV #_sdCardCsdObj, XAR1 ; |174| 
         000216 9E00 
         000218 0070-
     726              $C$DW$106       .dwtag  DW_TAG_TI_branch
     727                      .dwattr $C$DW$106, DW_AT_low_pc(0x00)
     728                      .dwattr $C$DW$106, DW_AT_name("_SD_getCardCsd")
     729                      .dwattr $C$DW$106, DW_AT_TI_call
     730 00021a 6C00          CALL #_SD_getCardCsd ; |174| 
         00021c 0000!
     731                                                      ; call occurs [#_SD_getCardCsd] ; |174| 
     732 00021e C431          MOV T0, *(#_mmcStatus) ; |174| 
         000220 0000 
         000222 94-  
     733                      .dwpsn  file "../c5535_bsl_revc/ezdsp5535_v1/lib/bsl/ezdsp5535_sdcard.c",line 175,column 2,is_stmt
     734 000223 2249          MOV T0, AR1
     735 000225 0409          BCC $C$L14,AR1 == #0 ; |175| 
         000227 15   
     736                                                      ; branchcc occurs ; |175| 
     737                      .dwpsn  file "../c5535_bsl_revc/ezdsp5535_v1/lib/bsl/ezdsp5535_sdcard.c",line 177,column 3,is_stmt
     738 000228 EC31          AMOV #$C$FSL17, XAR3 ; |177| 
         00022a BE00 
         00022c 01D4+
     739 00022e EB00          MOV XAR3, dbl(*SP(#0))
         000230 B5   
     740              $C$DW$107       .dwtag  DW_TAG_TI_branch
     741                      .dwattr $C$DW$107, DW_AT_low_pc(0x00)
     742                      .dwattr $C$DW$107, DW_AT_name("_printf")
     743                      .dwattr $C$DW$107, DW_AT_TI_call
     744 000231 6C00          CALL #_printf ; |177| 
         000233 0000!
     745                                                      ; call occurs [#_printf] ; |177| 
     746                      .dwpsn  file "../c5535_bsl_revc/ezdsp5535_v1/lib/bsl/ezdsp5535_sdcard.c",line 178,column 3,is_stmt
     747 000235 A431          MOV *(#_mmcStatus), T0 ; |178| 
         000237 0000 
         000239 94-  
     748 00023a 0601          B $C$L23  ; |178| 
         00023c 64   
     749                                                      ; branch occurs ; |178| 
     750 00023d       $C$L14:    
     751                      .dwpsn  file "../c5535_bsl_revc/ezdsp5535_v1/lib/bsl/ezdsp5535_sdcard.c",line 182,column 2,is_stmt
     752 00023d ED31          MOV dbl(*(#_mmcsdHandle)), XAR0
         00023f 8F00 
         000241 0040-
TMS320C55x Assembler PC v4.4.1 Sat Sep 15 12:23:51 2018

Tools Copyright (c) 1996-2012 Texas Instruments Incorporated
ezdsp5535_sdcard.asm                                                 PAGE   18

     753              $C$DW$108       .dwtag  DW_TAG_TI_branch
     754                      .dwattr $C$DW$108, DW_AT_low_pc(0x00)
     755                      .dwattr $C$DW$108, DW_AT_name("_SD_setBusWidth")
     756                      .dwattr $C$DW$108, DW_AT_TI_call
     757              
     758 000243 6C00          CALL #_SD_setBusWidth ; |182| 
         000245 0000!
     759 000247 3D14  ||      MOV #1, T0
     760              
     761                                                      ; call occurs [#_SD_setBusWidth] ; |182| 
     762 000249 C431          MOV T0, *(#_mmcStatus) ; |182| 
         00024b 0000 
         00024d 94-  
     763                      .dwpsn  file "../c5535_bsl_revc/ezdsp5535_v1/lib/bsl/ezdsp5535_sdcard.c",line 183,column 2,is_stmt
     764 00024e 2249          MOV T0, AR1
     765 000250 0409          BCC $C$L15,AR1 == #0 ; |183| 
         000252 15   
     766                                                      ; branchcc occurs ; |183| 
     767                      .dwpsn  file "../c5535_bsl_revc/ezdsp5535_v1/lib/bsl/ezdsp5535_sdcard.c",line 185,column 3,is_stmt
     768 000253 EC31          AMOV #$C$FSL18, XAR3 ; |185| 
         000255 BE00 
         000257 01EE+
     769 000259 EB00          MOV XAR3, dbl(*SP(#0))
         00025b B5   
     770              $C$DW$109       .dwtag  DW_TAG_TI_branch
     771                      .dwattr $C$DW$109, DW_AT_low_pc(0x00)
     772                      .dwattr $C$DW$109, DW_AT_name("_printf")
     773                      .dwattr $C$DW$109, DW_AT_TI_call
     774 00025c 6C00          CALL #_printf ; |185| 
         00025e 0000!
     775                                                      ; call occurs [#_printf] ; |185| 
     776                      .dwpsn  file "../c5535_bsl_revc/ezdsp5535_v1/lib/bsl/ezdsp5535_sdcard.c",line 186,column 3,is_stmt
     777 000260 A431          MOV *(#_mmcStatus), T0 ; |186| 
         000262 0000 
         000264 94-  
     778 000265 0601          B $C$L23  ; |186| 
         000267 39   
     779                                                      ; branch occurs ; |186| 
     780 000268       $C$L15:    
     781                      .dwpsn  file "../c5535_bsl_revc/ezdsp5535_v1/lib/bsl/ezdsp5535_sdcard.c",line 190,column 2,is_stmt
     782 000268 ED31          MOV dbl(*(#_mmcsdHandle)), XAR0
         00026a 8F00 
         00026c 0040-
     783              $C$DW$110       .dwtag  DW_TAG_TI_branch
     784                      .dwattr $C$DW$110, DW_AT_low_pc(0x00)
     785                      .dwattr $C$DW$110, DW_AT_name("_SD_configurePullup")
     786                      .dwattr $C$DW$110, DW_AT_TI_call
     787              
     788 00026e 6C00          CALL #_SD_configurePullup ; |190| 
         000270 0000!
     789 000272 3D04  ||      MOV #0, T0
     790              
     791                                                      ; call occurs [#_SD_configurePullup] ; |190| 
     792 000274 C431          MOV T0, *(#_mmcStatus) ; |190| 
         000276 0000 
TMS320C55x Assembler PC v4.4.1 Sat Sep 15 12:23:51 2018

Tools Copyright (c) 1996-2012 Texas Instruments Incorporated
ezdsp5535_sdcard.asm                                                 PAGE   19

         000278 94-  
     793                      .dwpsn  file "../c5535_bsl_revc/ezdsp5535_v1/lib/bsl/ezdsp5535_sdcard.c",line 191,column 2,is_stmt
     794 000279 2249          MOV T0, AR1
     795 00027b 0409          BCC $C$L16,AR1 == #0 ; |191| 
         00027d 15   
     796                                                      ; branchcc occurs ; |191| 
     797                      .dwpsn  file "../c5535_bsl_revc/ezdsp5535_v1/lib/bsl/ezdsp5535_sdcard.c",line 193,column 3,is_stmt
     798 00027e EC31          AMOV #$C$FSL19, XAR3 ; |193| 
         000280 BE00 
         000282 020A+
     799 000284 EB00          MOV XAR3, dbl(*SP(#0))
         000286 B5   
     800              $C$DW$111       .dwtag  DW_TAG_TI_branch
     801                      .dwattr $C$DW$111, DW_AT_low_pc(0x00)
     802                      .dwattr $C$DW$111, DW_AT_name("_printf")
     803                      .dwattr $C$DW$111, DW_AT_TI_call
     804 000287 6C00          CALL #_printf ; |193| 
         000289 0000!
     805                                                      ; call occurs [#_printf] ; |193| 
     806                      .dwpsn  file "../c5535_bsl_revc/ezdsp5535_v1/lib/bsl/ezdsp5535_sdcard.c",line 194,column 3,is_stmt
     807 00028b A431          MOV *(#_mmcStatus), T0 ; |194| 
         00028d 0000 
         00028f 94-  
     808 000290 0601          B $C$L23  ; |194| 
         000292 0E   
     809                                                      ; branch occurs ; |194| 
     810 000293       $C$L16:    
     811                      .dwpsn  file "../c5535_bsl_revc/ezdsp5535_v1/lib/bsl/ezdsp5535_sdcard.c",line 198,column 2,is_stmt
     812 000293 A431          MOV *(#(_mmcCardObj+18)), T0 ; |198| 
         000295 0000 
         000297 54-  
     813 000298 EC31          AMOV #_mmcCardObj, XAR0 ; |198| 
         00029a 8E00 
         00029c 0042-
     814              $C$DW$112       .dwtag  DW_TAG_TI_branch
     815                      .dwattr $C$DW$112, DW_AT_low_pc(0x00)
     816                      .dwattr $C$DW$112, DW_AT_name("_MMC_setCardType")
     817                      .dwattr $C$DW$112, DW_AT_TI_call
     818 00029e 6C00          CALL #_MMC_setCardType ; |198| 
         0002a0 0000!
     819                                                      ; call occurs [#_MMC_setCardType] ; |198| 
     820 0002a2 C431          MOV T0, *(#_mmcStatus) ; |198| 
         0002a4 0000 
         0002a6 94-  
     821                      .dwpsn  file "../c5535_bsl_revc/ezdsp5535_v1/lib/bsl/ezdsp5535_sdcard.c",line 199,column 2,is_stmt
     822 0002a7 2249          MOV T0, AR1
     823 0002a9 0409          BCC $C$L17,AR1 == #0 ; |199| 
         0002ab 15   
     824                                                      ; branchcc occurs ; |199| 
     825                      .dwpsn  file "../c5535_bsl_revc/ezdsp5535_v1/lib/bsl/ezdsp5535_sdcard.c",line 201,column 3,is_stmt
     826 0002ac EC31          AMOV #$C$FSL20, XAR3 ; |201| 
         0002ae BE00 
         0002b0 022A+
     827 0002b2 EB00          MOV XAR3, dbl(*SP(#0))
         0002b4 B5   
TMS320C55x Assembler PC v4.4.1 Sat Sep 15 12:23:51 2018

Tools Copyright (c) 1996-2012 Texas Instruments Incorporated
ezdsp5535_sdcard.asm                                                 PAGE   20

     828              $C$DW$113       .dwtag  DW_TAG_TI_branch
     829                      .dwattr $C$DW$113, DW_AT_low_pc(0x00)
     830                      .dwattr $C$DW$113, DW_AT_name("_printf")
     831                      .dwattr $C$DW$113, DW_AT_TI_call
     832 0002b5 6C00          CALL #_printf ; |201| 
         0002b7 0000!
     833                                                      ; call occurs [#_printf] ; |201| 
     834                      .dwpsn  file "../c5535_bsl_revc/ezdsp5535_v1/lib/bsl/ezdsp5535_sdcard.c",line 202,column 3,is_stmt
     835 0002b9 A431          MOV *(#_mmcStatus), T0 ; |202| 
         0002bb 0000 
         0002bd 94-  
     836 0002be 0600          B $C$L23  ; |202| 
         0002c0 E0   
     837                                                      ; branch occurs ; |202| 
     838 0002c1       $C$L17:    
     839                      .dwpsn  file "../c5535_bsl_revc/ezdsp5535_v1/lib/bsl/ezdsp5535_sdcard.c",line 206,column 2,is_stmt
     840 0002c1 ED31          MOV dbl(*(#_mmcsdHandle)), XAR0
         0002c3 8F00 
         0002c5 0040-
     841 0002c7 EC31          AMOV #_mmcCardObj, XAR1 ; |206| 
         0002c9 9E00 
         0002cb 0042-
     842              $C$DW$114       .dwtag  DW_TAG_TI_branch
     843                      .dwattr $C$DW$114, DW_AT_low_pc(0x00)
     844                      .dwattr $C$DW$114, DW_AT_name("_MMC_setCardPtr")
     845                      .dwattr $C$DW$114, DW_AT_TI_call
     846 0002cd 6C00          CALL #_MMC_setCardPtr ; |206| 
         0002cf 0000!
     847                                                      ; call occurs [#_MMC_setCardPtr] ; |206| 
     848 0002d1 C431          MOV T0, *(#_mmcStatus) ; |206| 
         0002d3 0000 
         0002d5 94-  
     849                      .dwpsn  file "../c5535_bsl_revc/ezdsp5535_v1/lib/bsl/ezdsp5535_sdcard.c",line 207,column 2,is_stmt
     850 0002d6 2249          MOV T0, AR1
     851 0002d8 0409          BCC $C$L18,AR1 == #0 ; |207| 
         0002da 15   
     852                                                      ; branchcc occurs ; |207| 
     853                      .dwpsn  file "../c5535_bsl_revc/ezdsp5535_v1/lib/bsl/ezdsp5535_sdcard.c",line 209,column 3,is_stmt
     854 0002db EC31          AMOV #$C$FSL21, XAR3 ; |209| 
         0002dd BE00 
         0002df 0246+
     855 0002e1 EB00          MOV XAR3, dbl(*SP(#0))
         0002e3 B5   
     856              $C$DW$115       .dwtag  DW_TAG_TI_branch
     857                      .dwattr $C$DW$115, DW_AT_low_pc(0x00)
     858                      .dwattr $C$DW$115, DW_AT_name("_printf")
     859                      .dwattr $C$DW$115, DW_AT_TI_call
     860 0002e4 6C00          CALL #_printf ; |209| 
         0002e6 0000!
     861                                                      ; call occurs [#_printf] ; |209| 
     862                      .dwpsn  file "../c5535_bsl_revc/ezdsp5535_v1/lib/bsl/ezdsp5535_sdcard.c",line 210,column 3,is_stmt
     863 0002e8 A431          MOV *(#_mmcStatus), T0 ; |210| 
         0002ea 0000 
         0002ec 94-  
     864 0002ed 0600          B $C$L23  ; |210| 
TMS320C55x Assembler PC v4.4.1 Sat Sep 15 12:23:51 2018

Tools Copyright (c) 1996-2012 Texas Instruments Incorporated
ezdsp5535_sdcard.asm                                                 PAGE   21

         0002ef B1   
     865                                                      ; branch occurs ; |210| 
     866 0002f0       $C$L18:    
     867                      .dwpsn  file "../c5535_bsl_revc/ezdsp5535_v1/lib/bsl/ezdsp5535_sdcard.c",line 214,column 2,is_stmt
     868 0002f0 EC04          AMAR *SP(#2), XAR1
         0002f2 9E   
     869 0002f3 ED31          MOV dbl(*(#_mmcsdHandle)), XAR0
         0002f5 8F00 
         0002f7 0040-
     870              $C$DW$116       .dwtag  DW_TAG_TI_branch
     871                      .dwattr $C$DW$116, DW_AT_low_pc(0x00)
     872                      .dwattr $C$DW$116, DW_AT_name("_MMC_getNumberOfCards")
     873                      .dwattr $C$DW$116, DW_AT_TI_call
     874 0002f9 6C00          CALL #_MMC_getNumberOfCards ; |214| 
         0002fb 0000!
     875                                                      ; call occurs [#_MMC_getNumberOfCards] ; |214| 
     876 0002fd C431          MOV T0, *(#_mmcStatus) ; |214| 
         0002ff 0000 
         000301 94-  
     877                      .dwpsn  file "../c5535_bsl_revc/ezdsp5535_v1/lib/bsl/ezdsp5535_sdcard.c",line 215,column 2,is_stmt
     878 000302 2249          MOV T0, AR1
     879 000304 0409          BCC $C$L19,AR1 == #0 ; |215| 
         000306 15   
     880                                                      ; branchcc occurs ; |215| 
     881                      .dwpsn  file "../c5535_bsl_revc/ezdsp5535_v1/lib/bsl/ezdsp5535_sdcard.c",line 217,column 3,is_stmt
     882 000307 EC31          AMOV #$C$FSL22, XAR3 ; |217| 
         000309 BE00 
         00030b 0262+
     883 00030d EB00          MOV XAR3, dbl(*SP(#0))
         00030f B5   
     884              $C$DW$117       .dwtag  DW_TAG_TI_branch
     885                      .dwattr $C$DW$117, DW_AT_low_pc(0x00)
     886                      .dwattr $C$DW$117, DW_AT_name("_printf")
     887                      .dwattr $C$DW$117, DW_AT_TI_call
     888 000310 6C00          CALL #_printf ; |217| 
         000312 0000!
     889                                                      ; call occurs [#_printf] ; |217| 
     890                      .dwpsn  file "../c5535_bsl_revc/ezdsp5535_v1/lib/bsl/ezdsp5535_sdcard.c",line 218,column 3,is_stmt
     891 000314 A431          MOV *(#_mmcStatus), T0 ; |218| 
         000316 0000 
         000318 94-  
     892 000319 0600          B $C$L23  ; |218| 
         00031b 85   
     893                                                      ; branch occurs ; |218| 
     894 00031c       $C$L19:    
     895                      .dwpsn  file "../c5535_bsl_revc/ezdsp5535_v1/lib/bsl/ezdsp5535_sdcard.c",line 222,column 5,is_stmt
     896 00031c ED31          MOV dbl(*(#_mmcsdHandle)), XAR0
         00031e 8F00 
         000320 0040-
     897              $C$DW$118       .dwtag  DW_TAG_TI_branch
     898                      .dwattr $C$DW$118, DW_AT_low_pc(0x00)
     899                      .dwattr $C$DW$118, DW_AT_name("_MMC_sendOpCond")
     900                      .dwattr $C$DW$118, DW_AT_TI_call
     901              
     902 000322 6C00          CALL #_MMC_sendOpCond ; |222| 
TMS320C55x Assembler PC v4.4.1 Sat Sep 15 12:23:51 2018

Tools Copyright (c) 1996-2012 Texas Instruments Incorporated
ezdsp5535_sdcard.asm                                                 PAGE   22

         000324 0000!
     903 000326 3D24  ||      MOV #2, T0
     904              
     905                                                      ; call occurs [#_MMC_sendOpCond] ; |222| 
     906 000328 C431          MOV T0, *(#_mmcStatus) ; |222| 
         00032a 0000 
         00032c 94-  
     907                      .dwpsn  file "../c5535_bsl_revc/ezdsp5535_v1/lib/bsl/ezdsp5535_sdcard.c",line 223,column 2,is_stmt
     908 00032d 2249          MOV T0, AR1
     909 00032f 0409          BCC $C$L20,AR1 == #0 ; |223| 
         000331 15   
     910                                                      ; branchcc occurs ; |223| 
     911                      .dwpsn  file "../c5535_bsl_revc/ezdsp5535_v1/lib/bsl/ezdsp5535_sdcard.c",line 225,column 3,is_stmt
     912 000332 EC31          AMOV #$C$FSL14, XAR3 ; |225| 
         000334 BE00 
         000336 0186+
     913 000338 EB00          MOV XAR3, dbl(*SP(#0))
         00033a B5   
     914              $C$DW$119       .dwtag  DW_TAG_TI_branch
     915                      .dwattr $C$DW$119, DW_AT_low_pc(0x00)
     916                      .dwattr $C$DW$119, DW_AT_name("_printf")
     917                      .dwattr $C$DW$119, DW_AT_TI_call
     918 00033b 6C00          CALL #_printf ; |225| 
         00033d 0000!
     919                                                      ; call occurs [#_printf] ; |225| 
     920                      .dwpsn  file "../c5535_bsl_revc/ezdsp5535_v1/lib/bsl/ezdsp5535_sdcard.c",line 226,column 3,is_stmt
     921 00033f A431          MOV *(#_mmcStatus), T0 ; |226| 
         000341 0000 
         000343 94-  
     922 000344 0600          B $C$L23  ; |226| 
         000346 5A   
     923                                                      ; branch occurs ; |226| 
     924 000347       $C$L20:    
     925                      .dwpsn  file "../c5535_bsl_revc/ezdsp5535_v1/lib/bsl/ezdsp5535_sdcard.c",line 230,column 4,is_stmt
     926 000347 ED31          MOV dbl(*(#_mmcsdHandle)), XAR0
         000349 8F00 
         00034b 0040-
     927 00034d 3C04          MOV #0, T0
     928              $C$DW$120       .dwtag  DW_TAG_TI_branch
     929                      .dwattr $C$DW$120, DW_AT_low_pc(0x00)
     930                      .dwattr $C$DW$120, DW_AT_name("_MMC_setEndianMode")
     931                      .dwattr $C$DW$120, DW_AT_TI_call
     932              
     933 00034f 6C00          CALL #_MMC_setEndianMode ; |230| 
         000351 0000!
     934 000353 3D05  ||      MOV #0, T1
     935              
     936                                                      ; call occurs [#_MMC_setEndianMode] ; |230| 
     937 000355 C431          MOV T0, *(#_mmcStatus) ; |230| 
         000357 0000 
         000359 94-  
     938                      .dwpsn  file "../c5535_bsl_revc/ezdsp5535_v1/lib/bsl/ezdsp5535_sdcard.c",line 232,column 2,is_stmt
     939 00035a 2249          MOV T0, AR1
     940 00035c 0409          BCC $C$L21,AR1 == #0 ; |232| 
         00035e 14   
TMS320C55x Assembler PC v4.4.1 Sat Sep 15 12:23:51 2018

Tools Copyright (c) 1996-2012 Texas Instruments Incorporated
ezdsp5535_sdcard.asm                                                 PAGE   23

     941                                                      ; branchcc occurs ; |232| 
     942                      .dwpsn  file "../c5535_bsl_revc/ezdsp5535_v1/lib/bsl/ezdsp5535_sdcard.c",line 234,column 3,is_stmt
     943 00035f EC31          AMOV #$C$FSL23, XAR3 ; |234| 
         000361 BE00 
         000363 0284+
     944 000365 EB00          MOV XAR3, dbl(*SP(#0))
         000367 B5   
     945              $C$DW$121       .dwtag  DW_TAG_TI_branch
     946                      .dwattr $C$DW$121, DW_AT_low_pc(0x00)
     947                      .dwattr $C$DW$121, DW_AT_name("_printf")
     948                      .dwattr $C$DW$121, DW_AT_TI_call
     949 000368 6C00          CALL #_printf ; |234| 
         00036a 0000!
     950                                                      ; call occurs [#_printf] ; |234| 
     951                      .dwpsn  file "../c5535_bsl_revc/ezdsp5535_v1/lib/bsl/ezdsp5535_sdcard.c",line 235,column 3,is_stmt
     952 00036c A431          MOV *(#_mmcStatus), T0 ; |235| 
         00036e 0000 
         000370 94-  
     953 000371 4A2E          B $C$L23  ; |235| 
     954                                                      ; branch occurs ; |235| 
     955 000373       $C$L21:    
     956                      .dwpsn  file "../c5535_bsl_revc/ezdsp5535_v1/lib/bsl/ezdsp5535_sdcard.c",line 242,column 2,is_stmt
     957 000373 ED31          MOV dbl(*(#_mmcsdHandle)), XAR0
         000375 8F00 
         000377 0040-
     958 000379 7602          MOV #512, AC0 ; |242| 
         00037b 0008 
     959              $C$DW$122       .dwtag  DW_TAG_TI_branch
     960                      .dwattr $C$DW$122, DW_AT_low_pc(0x00)
     961                      .dwattr $C$DW$122, DW_AT_name("_MMC_setBlockLength")
     962                      .dwattr $C$DW$122, DW_AT_TI_call
     963 00037d 6C00          CALL #_MMC_setBlockLength ; |242| 
         00037f 0000!
     964                                                      ; call occurs [#_MMC_setBlockLength] ; |242| 
     965 000381 C431          MOV T0, *(#_mmcStatus) ; |242| 
         000383 0000 
         000385 94-  
     966                      .dwpsn  file "../c5535_bsl_revc/ezdsp5535_v1/lib/bsl/ezdsp5535_sdcard.c",line 243,column 2,is_stmt
     967 000386 2249          MOV T0, AR1
     968 000388 0409          BCC $C$L22,AR1 == #0 ; |243| 
         00038a 14   
     969                                                      ; branchcc occurs ; |243| 
     970                      .dwpsn  file "../c5535_bsl_revc/ezdsp5535_v1/lib/bsl/ezdsp5535_sdcard.c",line 245,column 3,is_stmt
     971 00038b EC31          AMOV #$C$FSL24, XAR3 ; |245| 
         00038d BE00 
         00038f 02A2+
     972 000391 EB00          MOV XAR3, dbl(*SP(#0))
         000393 B5   
     973              $C$DW$123       .dwtag  DW_TAG_TI_branch
     974                      .dwattr $C$DW$123, DW_AT_low_pc(0x00)
     975                      .dwattr $C$DW$123, DW_AT_name("_printf")
     976                      .dwattr $C$DW$123, DW_AT_TI_call
     977 000394 6C00          CALL #_printf ; |245| 
         000396 0000!
     978                                                      ; call occurs [#_printf] ; |245| 
TMS320C55x Assembler PC v4.4.1 Sat Sep 15 12:23:51 2018

Tools Copyright (c) 1996-2012 Texas Instruments Incorporated
ezdsp5535_sdcard.asm                                                 PAGE   24

     979                      .dwpsn  file "../c5535_bsl_revc/ezdsp5535_v1/lib/bsl/ezdsp5535_sdcard.c",line 246,column 3,is_stmt
     980 000398 A431          MOV *(#_mmcStatus), T0 ; |246| 
         00039a 0000 
         00039c 94-  
     981 00039d 4A02          B $C$L23  ; |246| 
     982                                                      ; branch occurs ; |246| 
     983 00039f       $C$L22:    
     984                      .dwpsn  file "../c5535_bsl_revc/ezdsp5535_v1/lib/bsl/ezdsp5535_sdcard.c",line 249,column 2,is_stmt
     985 00039f 3C04          MOV #0, T0
     986 0003a1       $C$L23:    
     987                      .dwpsn  file "../c5535_bsl_revc/ezdsp5535_v1/lib/bsl/ezdsp5535_sdcard.c",line 250,column 1,is_stmt
     988 0003a1 4E07          AADD #7, SP
     989                      .dwcfi  cfa_offset, 1
     990              $C$DW$124       .dwtag  DW_TAG_TI_branch
     991                      .dwattr $C$DW$124, DW_AT_low_pc(0x00)
     992                      .dwattr $C$DW$124, DW_AT_TI_return
     993 0003a3 4804          RET
     994                                                      ; return occurs
     995                      .dwattr $C$DW$79, DW_AT_TI_end_file("../c5535_bsl_revc/ezdsp5535_v1/lib/bsl/ezdsp5535_sdcard.c")
     996                      .dwattr $C$DW$79, DW_AT_TI_end_line(0xfa)
     997                      .dwattr $C$DW$79, DW_AT_TI_end_column(0x01)
     998                      .dwendentry
     999                      .dwendtag $C$DW$79
    1000              
    1001 0003a5               .sect   ".text"
    1002                      .align 4
    1003                      .global _EZDSP5535_SDCARD_read
    1004              
    1005              $C$DW$125       .dwtag  DW_TAG_subprogram, DW_AT_name("EZDSP5535_SDCARD_read")
    1006                      .dwattr $C$DW$125, DW_AT_low_pc(_EZDSP5535_SDCARD_read)
    1007                      .dwattr $C$DW$125, DW_AT_high_pc(0x00)
    1008                      .dwattr $C$DW$125, DW_AT_TI_symbol_name("_EZDSP5535_SDCARD_read")
    1009                      .dwattr $C$DW$125, DW_AT_external
    1010                      .dwattr $C$DW$125, DW_AT_type(*$C$DW$T$104)
    1011                      .dwattr $C$DW$125, DW_AT_TI_begin_file("../c5535_bsl_revc/ezdsp5535_v1/lib/bsl/ezdsp5535_sdcard.c")
    1012                      .dwattr $C$DW$125, DW_AT_TI_begin_line(0x105)
    1013                      .dwattr $C$DW$125, DW_AT_TI_begin_column(0x07)
    1014                      .dwattr $C$DW$125, DW_AT_TI_max_frame_size(0x08)
    1015                      .dwpsn  file "../c5535_bsl_revc/ezdsp5535_v1/lib/bsl/ezdsp5535_sdcard.c",line 262,column 1,is_stmt,ad
    1016              
    1017                      .dwfde $C$DW$CIE, _EZDSP5535_SDCARD_read
    1018              $C$DW$126       .dwtag  DW_TAG_formal_parameter, DW_AT_name("addr")
    1019                      .dwattr $C$DW$126, DW_AT_TI_symbol_name("_addr")
    1020                      .dwattr $C$DW$126, DW_AT_type(*$C$DW$T$28)
    1021                      .dwattr $C$DW$126, DW_AT_location[DW_OP_reg0]
    1022              $C$DW$127       .dwtag  DW_TAG_formal_parameter, DW_AT_name("len")
    1023                      .dwattr $C$DW$127, DW_AT_TI_symbol_name("_len")
    1024                      .dwattr $C$DW$127, DW_AT_type(*$C$DW$T$28)
    1025                      .dwattr $C$DW$127, DW_AT_location[DW_OP_reg3]
    1026              $C$DW$128       .dwtag  DW_TAG_formal_parameter, DW_AT_name("pReadBuff")
    1027                      .dwattr $C$DW$128, DW_AT_TI_symbol_name("_pReadBuff")
    1028                      .dwattr $C$DW$128, DW_AT_type(*$C$DW$T$117)
    1029                      .dwattr $C$DW$128, DW_AT_location[DW_OP_reg17]
    1030              ;*******************************************************************************
    1031              ;* FUNCTION NAME: EZDSP5535_SDCARD_read                                        *
TMS320C55x Assembler PC v4.4.1 Sat Sep 15 12:23:51 2018

Tools Copyright (c) 1996-2012 Texas Instruments Incorporated
ezdsp5535_sdcard.asm                                                 PAGE   25

    1032              ;*                                                                             *
    1033              ;*   Function Uses Regs : AC0,AC0,AC1,AC1,T0,AR0,XAR0,AR1,XAR1,SP,M40,SATA,    *
    1034              ;*                        SATD,RDM,FRCT,SMUL                                   *
    1035              ;*   Stack Frame        : Compact (No Frame Pointer, w/ debug)                 *
    1036              ;*   Total Frame Size   : 8 words                                              *
    1037              ;*                        (2 return address/alignment)                         *
    1038              ;*                        (6 local values)                                     *
    1039              ;*   Min System Stack   : 1 word                                               *
    1040              ;*******************************************************************************
    1041 0003a8       _EZDSP5535_SDCARD_read:
    1042                      .dwcfi  cfa_offset, 1
    1043                      .dwcfi  save_reg_to_mem, 91, -1
    1044 0003a8 4EF9          AADD #-7, SP
    1045                      .dwcfi  cfa_offset, 8
    1046              $C$DW$129       .dwtag  DW_TAG_variable, DW_AT_name("addr")
    1047                      .dwattr $C$DW$129, DW_AT_TI_symbol_name("_addr")
    1048                      .dwattr $C$DW$129, DW_AT_type(*$C$DW$T$28)
    1049                      .dwattr $C$DW$129, DW_AT_location[DW_OP_bregx 0x24 0]
    1050              $C$DW$130       .dwtag  DW_TAG_variable, DW_AT_name("len")
    1051                      .dwattr $C$DW$130, DW_AT_TI_symbol_name("_len")
    1052                      .dwattr $C$DW$130, DW_AT_type(*$C$DW$T$28)
    1053                      .dwattr $C$DW$130, DW_AT_location[DW_OP_bregx 0x24 2]
    1054              $C$DW$131       .dwtag  DW_TAG_variable, DW_AT_name("pReadBuff")
    1055                      .dwattr $C$DW$131, DW_AT_TI_symbol_name("_pReadBuff")
    1056                      .dwattr $C$DW$131, DW_AT_type(*$C$DW$T$117)
    1057                      .dwattr $C$DW$131, DW_AT_location[DW_OP_bregx 0x24 4]
    1058 0003aa EB08          MOV XAR0, dbl(*SP(#4))
         0003ac 85   
    1059 0003ad EB04          MOV AC1, dbl(*SP(#2)) ; |262| 
         0003af 18   
    1060 0003b0 EB00          MOV AC0, dbl(*SP(#0)) ; |262| 
         0003b2 08   
    1061                      .dwpsn  file "../c5535_bsl_revc/ezdsp5535_v1/lib/bsl/ezdsp5535_sdcard.c",line 263,column 2,is_stmt
    1062 0003b3 ED00          MOV dbl(*SP(#0)), AC0 ; |263| 
         0003b5 08   
    1063 0003b6 EB31          MOV AC0, dbl(*(#_cardAddr)) ; |263| 
         0003b8 0800 
         0003ba 0092-
    1064                      .dwpsn  file "../c5535_bsl_revc/ezdsp5535_v1/lib/bsl/ezdsp5535_sdcard.c",line 266,column 2,is_stmt
    1065 0003bc ED31          MOV dbl(*(#_mmcsdHandle)), XAR0
         0003be 8F00 
         0003c0 0040-
    1066 0003c2 A406          MOV *SP(#3), T0 ; |266| 
    1067 0003c4 ED08          MOV dbl(*SP(#4)), XAR1
         0003c6 9F   
    1068 0003c7 ED31          MOV dbl(*(#_cardAddr)), AC0 ; |266| 
         0003c9 0800 
         0003cb 0092-
    1069              $C$DW$132       .dwtag  DW_TAG_TI_branch
    1070                      .dwattr $C$DW$132, DW_AT_low_pc(0x00)
    1071                      .dwattr $C$DW$132, DW_AT_name("_MMC_read")
    1072                      .dwattr $C$DW$132, DW_AT_TI_call
    1073 0003cd 6C00          CALL #_MMC_read ; |266| 
         0003cf 0000!
    1074                                                      ; call occurs [#_MMC_read] ; |266| 
TMS320C55x Assembler PC v4.4.1 Sat Sep 15 12:23:51 2018

Tools Copyright (c) 1996-2012 Texas Instruments Incorporated
ezdsp5535_sdcard.asm                                                 PAGE   26

    1075 0003d1 C431          MOV T0, *(#_mmcStatus) ; |266| 
         0003d3 0000 
         0003d5 94-  
    1076                      .dwpsn  file "../c5535_bsl_revc/ezdsp5535_v1/lib/bsl/ezdsp5535_sdcard.c",line 268,column 5,is_stmt
    1077                      .dwpsn  file "../c5535_bsl_revc/ezdsp5535_v1/lib/bsl/ezdsp5535_sdcard.c",line 269,column 1,is_stmt
    1078 0003d6 4E07          AADD #7, SP
    1079                      .dwcfi  cfa_offset, 1
    1080              $C$DW$133       .dwtag  DW_TAG_TI_branch
    1081                      .dwattr $C$DW$133, DW_AT_low_pc(0x00)
    1082                      .dwattr $C$DW$133, DW_AT_TI_return
    1083 0003d8 4804          RET
    1084                                                      ; return occurs
    1085                      .dwattr $C$DW$125, DW_AT_TI_end_file("../c5535_bsl_revc/ezdsp5535_v1/lib/bsl/ezdsp5535_sdcard.c")
    1086                      .dwattr $C$DW$125, DW_AT_TI_end_line(0x10d)
    1087                      .dwattr $C$DW$125, DW_AT_TI_end_column(0x01)
    1088                      .dwendentry
    1089                      .dwendtag $C$DW$125
    1090              
    1091 0003da               .sect   ".text"
    1092                      .align 4
    1093                      .global _EZDSP5535_SDCARD_write
    1094              
    1095              $C$DW$134       .dwtag  DW_TAG_subprogram, DW_AT_name("EZDSP5535_SDCARD_write")
    1096                      .dwattr $C$DW$134, DW_AT_low_pc(_EZDSP5535_SDCARD_write)
    1097                      .dwattr $C$DW$134, DW_AT_high_pc(0x00)
    1098                      .dwattr $C$DW$134, DW_AT_TI_symbol_name("_EZDSP5535_SDCARD_write")
    1099                      .dwattr $C$DW$134, DW_AT_external
    1100                      .dwattr $C$DW$134, DW_AT_type(*$C$DW$T$104)
    1101                      .dwattr $C$DW$134, DW_AT_TI_begin_file("../c5535_bsl_revc/ezdsp5535_v1/lib/bsl/ezdsp5535_sdcard.c")
    1102                      .dwattr $C$DW$134, DW_AT_TI_begin_line(0x118)
    1103                      .dwattr $C$DW$134, DW_AT_TI_begin_column(0x07)
    1104                      .dwattr $C$DW$134, DW_AT_TI_max_frame_size(0x08)
    1105                      .dwpsn  file "../c5535_bsl_revc/ezdsp5535_v1/lib/bsl/ezdsp5535_sdcard.c",line 281,column 1,is_stmt,ad
    1106              
    1107                      .dwfde $C$DW$CIE, _EZDSP5535_SDCARD_write
    1108              $C$DW$135       .dwtag  DW_TAG_formal_parameter, DW_AT_name("addr")
    1109                      .dwattr $C$DW$135, DW_AT_TI_symbol_name("_addr")
    1110                      .dwattr $C$DW$135, DW_AT_type(*$C$DW$T$28)
    1111                      .dwattr $C$DW$135, DW_AT_location[DW_OP_reg0]
    1112              $C$DW$136       .dwtag  DW_TAG_formal_parameter, DW_AT_name("len")
    1113                      .dwattr $C$DW$136, DW_AT_TI_symbol_name("_len")
    1114                      .dwattr $C$DW$136, DW_AT_type(*$C$DW$T$28)
    1115                      .dwattr $C$DW$136, DW_AT_location[DW_OP_reg3]
    1116              $C$DW$137       .dwtag  DW_TAG_formal_parameter, DW_AT_name("pWriteBuff")
    1117                      .dwattr $C$DW$137, DW_AT_TI_symbol_name("_pWriteBuff")
    1118                      .dwattr $C$DW$137, DW_AT_type(*$C$DW$T$117)
    1119                      .dwattr $C$DW$137, DW_AT_location[DW_OP_reg17]
    1120              ;*******************************************************************************
    1121              ;* FUNCTION NAME: EZDSP5535_SDCARD_write                                       *
    1122              ;*                                                                             *
    1123              ;*   Function Uses Regs : AC0,AC0,AC1,AC1,T0,AR0,XAR0,AR1,XAR1,SP,M40,SATA,    *
    1124              ;*                        SATD,RDM,FRCT,SMUL                                   *
    1125              ;*   Stack Frame        : Compact (No Frame Pointer, w/ debug)                 *
    1126              ;*   Total Frame Size   : 8 words                                              *
    1127              ;*                        (2 return address/alignment)                         *
TMS320C55x Assembler PC v4.4.1 Sat Sep 15 12:23:51 2018

Tools Copyright (c) 1996-2012 Texas Instruments Incorporated
ezdsp5535_sdcard.asm                                                 PAGE   27

    1128              ;*                        (6 local values)                                     *
    1129              ;*   Min System Stack   : 1 word                                               *
    1130              ;*******************************************************************************
    1131 0003dc       _EZDSP5535_SDCARD_write:
    1132                      .dwcfi  cfa_offset, 1
    1133                      .dwcfi  save_reg_to_mem, 91, -1
    1134 0003dc 4EF9          AADD #-7, SP
    1135                      .dwcfi  cfa_offset, 8
    1136              $C$DW$138       .dwtag  DW_TAG_variable, DW_AT_name("addr")
    1137                      .dwattr $C$DW$138, DW_AT_TI_symbol_name("_addr")
    1138                      .dwattr $C$DW$138, DW_AT_type(*$C$DW$T$28)
    1139                      .dwattr $C$DW$138, DW_AT_location[DW_OP_bregx 0x24 0]
    1140              $C$DW$139       .dwtag  DW_TAG_variable, DW_AT_name("len")
    1141                      .dwattr $C$DW$139, DW_AT_TI_symbol_name("_len")
    1142                      .dwattr $C$DW$139, DW_AT_type(*$C$DW$T$28)
    1143                      .dwattr $C$DW$139, DW_AT_location[DW_OP_bregx 0x24 2]
    1144              $C$DW$140       .dwtag  DW_TAG_variable, DW_AT_name("pWriteBuff")
    1145                      .dwattr $C$DW$140, DW_AT_TI_symbol_name("_pWriteBuff")
    1146                      .dwattr $C$DW$140, DW_AT_type(*$C$DW$T$117)
    1147                      .dwattr $C$DW$140, DW_AT_location[DW_OP_bregx 0x24 4]
    1148 0003de EB08          MOV XAR0, dbl(*SP(#4))
         0003e0 85   
    1149 0003e1 EB04          MOV AC1, dbl(*SP(#2)) ; |281| 
         0003e3 18   
    1150 0003e4 EB00          MOV AC0, dbl(*SP(#0)) ; |281| 
         0003e6 08   
    1151                      .dwpsn  file "../c5535_bsl_revc/ezdsp5535_v1/lib/bsl/ezdsp5535_sdcard.c",line 282,column 2,is_stmt
    1152 0003e7 ED00          MOV dbl(*SP(#0)), AC0 ; |282| 
         0003e9 08   
    1153 0003ea EB31          MOV AC0, dbl(*(#_cardAddr)) ; |282| 
         0003ec 0800 
         0003ee 0092-
    1154                      .dwpsn  file "../c5535_bsl_revc/ezdsp5535_v1/lib/bsl/ezdsp5535_sdcard.c",line 285,column 4,is_stmt
    1155 0003f0 ED31          MOV dbl(*(#_mmcsdHandle)), XAR0
         0003f2 8F00 
         0003f4 0040-
    1156 0003f6 A406          MOV *SP(#3), T0 ; |285| 
    1157 0003f8 ED08          MOV dbl(*SP(#4)), XAR1
         0003fa 9F   
    1158 0003fb ED31          MOV dbl(*(#_cardAddr)), AC0 ; |285| 
         0003fd 0800 
         0003ff 0092-
    1159              $C$DW$141       .dwtag  DW_TAG_TI_branch
    1160                      .dwattr $C$DW$141, DW_AT_low_pc(0x00)
    1161                      .dwattr $C$DW$141, DW_AT_name("_MMC_write")
    1162                      .dwattr $C$DW$141, DW_AT_TI_call
    1163 000401 6C00          CALL #_MMC_write ; |285| 
         000403 0000!
    1164                                                      ; call occurs [#_MMC_write] ; |285| 
    1165 000405 C431          MOV T0, *(#_mmcStatus) ; |285| 
         000407 0000 
         000409 94-  
    1166                      .dwpsn  file "../c5535_bsl_revc/ezdsp5535_v1/lib/bsl/ezdsp5535_sdcard.c",line 287,column 5,is_stmt
    1167                      .dwpsn  file "../c5535_bsl_revc/ezdsp5535_v1/lib/bsl/ezdsp5535_sdcard.c",line 288,column 1,is_stmt
    1168 00040a 4E07          AADD #7, SP
TMS320C55x Assembler PC v4.4.1 Sat Sep 15 12:23:51 2018

Tools Copyright (c) 1996-2012 Texas Instruments Incorporated
ezdsp5535_sdcard.asm                                                 PAGE   28

    1169                      .dwcfi  cfa_offset, 1
    1170              $C$DW$142       .dwtag  DW_TAG_TI_branch
    1171                      .dwattr $C$DW$142, DW_AT_low_pc(0x00)
    1172                      .dwattr $C$DW$142, DW_AT_TI_return
    1173 00040c 4804          RET
    1174                                                      ; return occurs
    1175                      .dwattr $C$DW$134, DW_AT_TI_end_file("../c5535_bsl_revc/ezdsp5535_v1/lib/bsl/ezdsp5535_sdcard.c")
    1176                      .dwattr $C$DW$134, DW_AT_TI_end_line(0x120)
    1177                      .dwattr $C$DW$134, DW_AT_TI_end_column(0x01)
    1178                      .dwendentry
    1179                      .dwendtag $C$DW$134
    1180              
    1181 00040e               .sect   ".text"
    1182                      .align 4
    1183                      .global _EZDSP5535_SDCARD_close
    1184              
    1185              $C$DW$143       .dwtag  DW_TAG_subprogram, DW_AT_name("EZDSP5535_SDCARD_close")
    1186                      .dwattr $C$DW$143, DW_AT_low_pc(_EZDSP5535_SDCARD_close)
    1187                      .dwattr $C$DW$143, DW_AT_high_pc(0x00)
    1188                      .dwattr $C$DW$143, DW_AT_TI_symbol_name("_EZDSP5535_SDCARD_close")
    1189                      .dwattr $C$DW$143, DW_AT_external
    1190                      .dwattr $C$DW$143, DW_AT_type(*$C$DW$T$104)
    1191                      .dwattr $C$DW$143, DW_AT_TI_begin_file("../c5535_bsl_revc/ezdsp5535_v1/lib/bsl/ezdsp5535_sdcard.c")
    1192                      .dwattr $C$DW$143, DW_AT_TI_begin_line(0x127)
    1193                      .dwattr $C$DW$143, DW_AT_TI_begin_column(0x07)
    1194                      .dwattr $C$DW$143, DW_AT_TI_max_frame_size(0x04)
    1195                      .dwpsn  file "../c5535_bsl_revc/ezdsp5535_v1/lib/bsl/ezdsp5535_sdcard.c",line 296,column 1,is_stmt,ad
    1196              
    1197                      .dwfde $C$DW$CIE, _EZDSP5535_SDCARD_close
    1198              ;*******************************************************************************
    1199              ;* FUNCTION NAME: EZDSP5535_SDCARD_close                                       *
    1200              ;*                                                                             *
    1201              ;*   Function Uses Regs : AC0,AC0,AC1,AC1,T0,AR0,XAR0,AR1,XAR1,AR3,XAR3,SP,M40,*
    1202              ;*                        SATA,SATD,RDM,FRCT,SMUL                              *
    1203              ;*   Stack Frame        : Compact (No Frame Pointer, w/ debug)                 *
    1204              ;*   Total Frame Size   : 4 words                                              *
    1205              ;*                        (2 return address/alignment)                         *
    1206              ;*                        (2 function parameters)                              *
    1207              ;*   Min System Stack   : 1 word                                               *
    1208              ;*******************************************************************************
    1209 000410       _EZDSP5535_SDCARD_close:
    1210                      .dwcfi  cfa_offset, 1
    1211                      .dwcfi  save_reg_to_mem, 91, -1
    1212 000410 4EFD          AADD #-3, SP
    1213                      .dwcfi  cfa_offset, 4
    1214                      .dwpsn  file "../c5535_bsl_revc/ezdsp5535_v1/lib/bsl/ezdsp5535_sdcard.c",line 298,column 2,is_stmt
    1215 000412 ED31          MOV dbl(*(#_mmcsdHandle)), XAR0
         000414 8F00 
         000416 0040-
    1216 000418 EC31          AMOV #_mmcCardObj, XAR1 ; |298| 
         00041a 9E00 
         00041c 0042-
    1217              $C$DW$144       .dwtag  DW_TAG_TI_branch
    1218                      .dwattr $C$DW$144, DW_AT_low_pc(0x00)
    1219                      .dwattr $C$DW$144, DW_AT_name("_MMC_deselectCard")
TMS320C55x Assembler PC v4.4.1 Sat Sep 15 12:23:51 2018

Tools Copyright (c) 1996-2012 Texas Instruments Incorporated
ezdsp5535_sdcard.asm                                                 PAGE   29

    1220                      .dwattr $C$DW$144, DW_AT_TI_call
    1221 00041e 6C00          CALL #_MMC_deselectCard ; |298| 
         000420 0000!
    1222                                                      ; call occurs [#_MMC_deselectCard] ; |298| 
    1223 000422 C431          MOV T0, *(#_mmcStatus) ; |298| 
         000424 0000 
         000426 94-  
    1224                      .dwpsn  file "../c5535_bsl_revc/ezdsp5535_v1/lib/bsl/ezdsp5535_sdcard.c",line 299,column 2,is_stmt
    1225 000427 2249          MOV T0, AR1
    1226 000429 0409          BCC $C$L24,AR1 == #0 ; |299| 
         00042b 15   
    1227                                                      ; branchcc occurs ; |299| 
    1228                      .dwpsn  file "../c5535_bsl_revc/ezdsp5535_v1/lib/bsl/ezdsp5535_sdcard.c",line 301,column 3,is_stmt
    1229 00042c EC31          AMOV #$C$FSL25, XAR3 ; |301| 
         00042e BE00 
         000430 02C2+
    1230 000432 EB00          MOV XAR3, dbl(*SP(#0))
         000434 B5   
    1231              $C$DW$145       .dwtag  DW_TAG_TI_branch
    1232                      .dwattr $C$DW$145, DW_AT_low_pc(0x00)
    1233                      .dwattr $C$DW$145, DW_AT_name("_printf")
    1234                      .dwattr $C$DW$145, DW_AT_TI_call
    1235 000435 6C00          CALL #_printf ; |301| 
         000437 0000!
    1236                                                      ; call occurs [#_printf] ; |301| 
    1237                      .dwpsn  file "../c5535_bsl_revc/ezdsp5535_v1/lib/bsl/ezdsp5535_sdcard.c",line 302,column 3,is_stmt
    1238 000439 A431          MOV *(#_mmcStatus), T0 ; |302| 
         00043b 0000 
         00043d 94-  
    1239 00043e 0600          B $C$L28  ; |302| 
         000440 90   
    1240                                                      ; branch occurs ; |302| 
    1241 000441       $C$L24:    
    1242                      .dwpsn  file "../c5535_bsl_revc/ezdsp5535_v1/lib/bsl/ezdsp5535_sdcard.c",line 306,column 2,is_stmt
    1243 000441 ED31          MOV dbl(*(#_mmcsdHandle)), XAR0
         000443 8F00 
         000445 0040-
    1244              $C$DW$146       .dwtag  DW_TAG_TI_branch
    1245                      .dwattr $C$DW$146, DW_AT_low_pc(0x00)
    1246                      .dwattr $C$DW$146, DW_AT_name("_MMC_clearResponse")
    1247                      .dwattr $C$DW$146, DW_AT_TI_call
    1248 000447 6C00          CALL #_MMC_clearResponse ; |306| 
         000449 0000!
    1249                                                      ; call occurs [#_MMC_clearResponse] ; |306| 
    1250 00044b C431          MOV T0, *(#_mmcStatus) ; |306| 
         00044d 0000 
         00044f 94-  
    1251                      .dwpsn  file "../c5535_bsl_revc/ezdsp5535_v1/lib/bsl/ezdsp5535_sdcard.c",line 307,column 2,is_stmt
    1252 000450 2249          MOV T0, AR1
    1253 000452 0409          BCC $C$L25,AR1 == #0 ; |307| 
         000454 15   
    1254                                                      ; branchcc occurs ; |307| 
    1255                      .dwpsn  file "../c5535_bsl_revc/ezdsp5535_v1/lib/bsl/ezdsp5535_sdcard.c",line 309,column 3,is_stmt
    1256 000455 EC31          AMOV #$C$FSL26, XAR3 ; |309| 
         000457 BE00 
TMS320C55x Assembler PC v4.4.1 Sat Sep 15 12:23:51 2018

Tools Copyright (c) 1996-2012 Texas Instruments Incorporated
ezdsp5535_sdcard.asm                                                 PAGE   30

         000459 02E0+
    1257 00045b EB00          MOV XAR3, dbl(*SP(#0))
         00045d B5   
    1258              $C$DW$147       .dwtag  DW_TAG_TI_branch
    1259                      .dwattr $C$DW$147, DW_AT_low_pc(0x00)
    1260                      .dwattr $C$DW$147, DW_AT_name("_printf")
    1261                      .dwattr $C$DW$147, DW_AT_TI_call
    1262 00045e 6C00          CALL #_printf ; |309| 
         000460 0000!
    1263                                                      ; call occurs [#_printf] ; |309| 
    1264                      .dwpsn  file "../c5535_bsl_revc/ezdsp5535_v1/lib/bsl/ezdsp5535_sdcard.c",line 310,column 3,is_stmt
    1265 000462 A431          MOV *(#_mmcStatus), T0 ; |310| 
         000464 0000 
         000466 94-  
    1266 000467 0600          B $C$L28  ; |310| 
         000469 67   
    1267                                                      ; branch occurs ; |310| 
    1268 00046a       $C$L25:    
    1269                      .dwpsn  file "../c5535_bsl_revc/ezdsp5535_v1/lib/bsl/ezdsp5535_sdcard.c",line 314,column 2,is_stmt
    1270 00046a ED31          MOV dbl(*(#_mmcsdHandle)), XAR0
         00046c 8F00 
         00046e 0040-
    1271              
    1272 000474 3D00          MOV #0, AC0 ; |314| 
    1273 000470 76FF  ||      MOV #65535, T0 ; |314| 
         000472 FF48 
    1274              
    1275              $C$DW$148       .dwtag  DW_TAG_TI_branch
    1276                      .dwattr $C$DW$148, DW_AT_low_pc(0x00)
    1277                      .dwattr $C$DW$148, DW_AT_name("_MMC_sendCmd")
    1278                      .dwattr $C$DW$148, DW_AT_TI_call
    1279              
    1280 000476 6C00          CALL #_MMC_sendCmd ; |314| 
         000478 0000!
    1281 00047a 3D01  ||      MOV #0, AC1 ; |314| 
    1282              
    1283                                                      ; call occurs [#_MMC_sendCmd] ; |314| 
    1284 00047c C431          MOV T0, *(#_mmcStatus) ; |314| 
         00047e 0000 
         000480 94-  
    1285                      .dwpsn  file "../c5535_bsl_revc/ezdsp5535_v1/lib/bsl/ezdsp5535_sdcard.c",line 315,column 2,is_stmt
    1286 000481 2249          MOV T0, AR1
    1287 000483 0409          BCC $C$L26,AR1 == #0 ; |315| 
         000485 14   
    1288                                                      ; branchcc occurs ; |315| 
    1289                      .dwpsn  file "../c5535_bsl_revc/ezdsp5535_v1/lib/bsl/ezdsp5535_sdcard.c",line 317,column 3,is_stmt
    1290 000486 EC31          AMOV #$C$FSL27, XAR3 ; |317| 
         000488 BE00 
         00048a 02FE+
    1291 00048c EB00          MOV XAR3, dbl(*SP(#0))
         00048e B5   
    1292              $C$DW$149       .dwtag  DW_TAG_TI_branch
    1293                      .dwattr $C$DW$149, DW_AT_low_pc(0x00)
    1294                      .dwattr $C$DW$149, DW_AT_name("_printf")
    1295                      .dwattr $C$DW$149, DW_AT_TI_call
TMS320C55x Assembler PC v4.4.1 Sat Sep 15 12:23:51 2018

Tools Copyright (c) 1996-2012 Texas Instruments Incorporated
ezdsp5535_sdcard.asm                                                 PAGE   31

    1296 00048f 6C00          CALL #_printf ; |317| 
         000491 0000!
    1297                                                      ; call occurs [#_printf] ; |317| 
    1298                      .dwpsn  file "../c5535_bsl_revc/ezdsp5535_v1/lib/bsl/ezdsp5535_sdcard.c",line 318,column 3,is_stmt
    1299 000493 A431          MOV *(#_mmcStatus), T0 ; |318| 
         000495 0000 
         000497 94-  
    1300 000498 4A37          B $C$L28  ; |318| 
    1301                                                      ; branch occurs ; |318| 
    1302 00049a       $C$L26:    
    1303                      .dwpsn  file "../c5535_bsl_revc/ezdsp5535_v1/lib/bsl/ezdsp5535_sdcard.c",line 322,column 2,is_stmt
    1304 00049a ED31          MOV dbl(*(#_mmcsdHandle)), XAR0
         00049c 8F00 
         00049e 0040-
    1305              $C$DW$150       .dwtag  DW_TAG_TI_branch
    1306                      .dwattr $C$DW$150, DW_AT_low_pc(0x00)
    1307                      .dwattr $C$DW$150, DW_AT_name("_MMC_close")
    1308                      .dwattr $C$DW$150, DW_AT_TI_call
    1309 0004a0 6C00          CALL #_MMC_close ; |322| 
         0004a2 0000!
    1310                                                      ; call occurs [#_MMC_close] ; |322| 
    1311 0004a4 C431          MOV T0, *(#_mmcStatus) ; |322| 
         0004a6 0000 
         0004a8 94-  
    1312                      .dwpsn  file "../c5535_bsl_revc/ezdsp5535_v1/lib/bsl/ezdsp5535_sdcard.c",line 323,column 2,is_stmt
    1313 0004a9 2249          MOV T0, AR1
    1314 0004ab 0409          BCC $C$L27,AR1 == #0 ; |323| 
         0004ad 14   
    1315                                                      ; branchcc occurs ; |323| 
    1316                      .dwpsn  file "../c5535_bsl_revc/ezdsp5535_v1/lib/bsl/ezdsp5535_sdcard.c",line 325,column 3,is_stmt
    1317 0004ae EC31          AMOV #$C$FSL28, XAR3 ; |325| 
         0004b0 BE00 
         0004b2 0316+
    1318 0004b4 EB00          MOV XAR3, dbl(*SP(#0))
         0004b6 B5   
    1319              $C$DW$151       .dwtag  DW_TAG_TI_branch
    1320                      .dwattr $C$DW$151, DW_AT_low_pc(0x00)
    1321                      .dwattr $C$DW$151, DW_AT_name("_printf")
    1322                      .dwattr $C$DW$151, DW_AT_TI_call
    1323 0004b7 6C00          CALL #_printf ; |325| 
         0004b9 0000!
    1324                                                      ; call occurs [#_printf] ; |325| 
    1325                      .dwpsn  file "../c5535_bsl_revc/ezdsp5535_v1/lib/bsl/ezdsp5535_sdcard.c",line 326,column 3,is_stmt
    1326 0004bb A431          MOV *(#_mmcStatus), T0 ; |326| 
         0004bd 0000 
         0004bf 94-  
    1327 0004c0 4A0F          B $C$L28  ; |326| 
    1328                                                      ; branch occurs ; |326| 
    1329 0004c2       $C$L27:    
    1330                      .dwpsn  file "../c5535_bsl_revc/ezdsp5535_v1/lib/bsl/ezdsp5535_sdcard.c",line 330,column 3,is_stmt
    1331 0004c2 EC31          AMOV #$C$FSL29, XAR3 ; |330| 
         0004c4 BE00 
         0004c6 032C+
    1332 0004c8 EB00          MOV XAR3, dbl(*SP(#0))
         0004ca B5   
TMS320C55x Assembler PC v4.4.1 Sat Sep 15 12:23:51 2018

Tools Copyright (c) 1996-2012 Texas Instruments Incorporated
ezdsp5535_sdcard.asm                                                 PAGE   32

    1333              $C$DW$152       .dwtag  DW_TAG_TI_branch
    1334                      .dwattr $C$DW$152, DW_AT_low_pc(0x00)
    1335                      .dwattr $C$DW$152, DW_AT_name("_printf")
    1336                      .dwattr $C$DW$152, DW_AT_TI_call
    1337 0004cb 6C00          CALL #_printf ; |330| 
         0004cd 0000!
    1338                                                      ; call occurs [#_printf] ; |330| 
    1339                      .dwpsn  file "../c5535_bsl_revc/ezdsp5535_v1/lib/bsl/ezdsp5535_sdcard.c",line 333,column 2,is_stmt
    1340 0004cf 3C04          MOV #0, T0
    1341 0004d1       $C$L28:    
    1342                      .dwpsn  file "../c5535_bsl_revc/ezdsp5535_v1/lib/bsl/ezdsp5535_sdcard.c",line 334,column 1,is_stmt
    1343 0004d1 4E03          AADD #3, SP
    1344                      .dwcfi  cfa_offset, 1
    1345              $C$DW$153       .dwtag  DW_TAG_TI_branch
    1346                      .dwattr $C$DW$153, DW_AT_low_pc(0x00)
    1347                      .dwattr $C$DW$153, DW_AT_TI_return
    1348 0004d3 4804          RET
    1349                                                      ; return occurs
    1350                      .dwattr $C$DW$143, DW_AT_TI_end_file("../c5535_bsl_revc/ezdsp5535_v1/lib/bsl/ezdsp5535_sdcard.c")
    1351                      .dwattr $C$DW$143, DW_AT_TI_end_line(0x14e)
    1352                      .dwattr $C$DW$143, DW_AT_TI_end_column(0x01)
    1353                      .dwendentry
    1354                      .dwendtag $C$DW$143
    1355              
    1356              ;*******************************************************************************
    1357              ;* FAR STRINGS                                                                 *
    1358              ;*******************************************************************************
    1359 000000               .sect   ".const:.string"
    1360                      .align  2
    1361 000000 0020  $C$FSL1:        .string "    MMC_init Failed",10,0
         000001 0020 
         000002 0020 
         000003 0020 
         000004 004D 
         000005 004D 
         000006 0043 
         000007 005F 
         000008 0069 
         000009 006E 
         00000a 0069 
         00000b 0074 
         00000c 0020 
         00000d 0046 
         00000e 0061 
         00000f 0069 
         000010 006C 
         000011 0065 
         000012 0064 
         000013 000A 
         000014 0000 
    1362                      .align  2
    1363 000016 0020  $C$FSL2:        .string "    MMC_open Failed",10,0
         000017 0020 
         000018 0020 
         000019 0020 
TMS320C55x Assembler PC v4.4.1 Sat Sep 15 12:23:51 2018

Tools Copyright (c) 1996-2012 Texas Instruments Incorporated
ezdsp5535_sdcard.asm                                                 PAGE   33

         00001a 004D 
         00001b 004D 
         00001c 0043 
         00001d 005F 
         00001e 006F 
         00001f 0070 
         000020 0065 
         000021 006E 
         000022 0020 
         000023 0046 
         000024 0061 
         000025 0069 
         000026 006C 
         000027 0065 
         000028 0064 
         000029 000A 
         00002a 0000 
    1364                      .align  2
    1365 00002c 0020  $C$FSL3:        .string "    MMC_open Successful",10,0
         00002d 0020 
         00002e 0020 
         00002f 0020 
         000030 004D 
         000031 004D 
         000032 0043 
         000033 005F 
         000034 006F 
         000035 0070 
         000036 0065 
         000037 006E 
         000038 0020 
         000039 0053 
         00003a 0075 
         00003b 0063 
         00003c 0063 
         00003d 0065 
         00003e 0073 
         00003f 0073 
         000040 0066 
         000041 0075 
         000042 006C 
         000043 000A 
         000044 0000 
    1366                      .align  2
    1367 000046 0020  $C$FSL4:        .string "    MMC_sendGoIdle Failed",10,0
         000047 0020 
         000048 0020 
         000049 0020 
         00004a 004D 
         00004b 004D 
         00004c 0043 
         00004d 005F 
         00004e 0073 
         00004f 0065 
         000050 006E 
TMS320C55x Assembler PC v4.4.1 Sat Sep 15 12:23:51 2018

Tools Copyright (c) 1996-2012 Texas Instruments Incorporated
ezdsp5535_sdcard.asm                                                 PAGE   34

         000051 0064 
         000052 0047 
         000053 006F 
         000054 0049 
         000055 0064 
         000056 006C 
         000057 0065 
         000058 0020 
         000059 0046 
         00005a 0061 
         00005b 0069 
         00005c 006C 
         00005d 0065 
         00005e 0064 
         00005f 000A 
         000060 0000 
    1368                      .align  2
    1369 000062 0020  $C$FSL5:        .string "    MMC_selectCard Failed",10,0
         000063 0020 
         000064 0020 
         000065 0020 
         000066 004D 
         000067 004D 
         000068 0043 
         000069 005F 
         00006a 0073 
         00006b 0065 
         00006c 006C 
         00006d 0065 
         00006e 0063 
         00006f 0074 
         000070 0043 
         000071 0061 
         000072 0072 
         000073 0064 
         000074 0020 
         000075 0046 
         000076 0061 
         000077 0069 
         000078 006C 
         000079 0065 
         00007a 0064 
         00007b 000A 
         00007c 0000 
    1370                      .align  2
    1371 00007e 0020  $C$FSL6:        .string "    SD card Detected!",10,0
         00007f 0020 
         000080 0020 
         000081 0020 
         000082 0053 
         000083 0044 
         000084 0020 
         000085 0063 
         000086 0061 
         000087 0072 
TMS320C55x Assembler PC v4.4.1 Sat Sep 15 12:23:51 2018

Tools Copyright (c) 1996-2012 Texas Instruments Incorporated
ezdsp5535_sdcard.asm                                                 PAGE   35

         000088 0064 
         000089 0020 
         00008a 0044 
         00008b 0065 
         00008c 0074 
         00008d 0065 
         00008e 0063 
         00008f 0074 
         000090 0065 
         000091 0064 
         000092 0021 
         000093 000A 
         000094 0000 
    1372                      .align  2
    1373 000096 0020  $C$FSL7:        .string "    SD card is High Capacity Card",10,0
         000097 0020 
         000098 0020 
         000099 0020 
         00009a 0053 
         00009b 0044 
         00009c 0020 
         00009d 0063 
         00009e 0061 
         00009f 0072 
         0000a0 0064 
         0000a1 0020 
         0000a2 0069 
         0000a3 0073 
         0000a4 0020 
         0000a5 0048 
         0000a6 0069 
         0000a7 0067 
         0000a8 0068 
         0000a9 0020 
         0000aa 0043 
         0000ab 0061 
         0000ac 0070 
         0000ad 0061 
         0000ae 0063 
         0000af 0069 
         0000b0 0074 
         0000b1 0079 
         0000b2 0020 
         0000b3 0043 
         0000b4 0061 
         0000b5 0072 
         0000b6 0064 
         0000b7 000A 
         0000b8 0000 
    1374                      .align  2
    1375 0000ba 0020  $C$FSL8:        .string "    Memory Access will use Block Addressing",10,10,0
         0000bb 0020 
         0000bc 0020 
         0000bd 0020 
         0000be 004D 
TMS320C55x Assembler PC v4.4.1 Sat Sep 15 12:23:51 2018

Tools Copyright (c) 1996-2012 Texas Instruments Incorporated
ezdsp5535_sdcard.asm                                                 PAGE   36

         0000bf 0065 
         0000c0 006D 
         0000c1 006F 
         0000c2 0072 
         0000c3 0079 
         0000c4 0020 
         0000c5 0041 
         0000c6 0063 
         0000c7 0063 
         0000c8 0065 
         0000c9 0073 
         0000ca 0073 
         0000cb 0020 
         0000cc 0077 
         0000cd 0069 
         0000ce 006C 
         0000cf 006C 
         0000d0 0020 
         0000d1 0075 
         0000d2 0073 
         0000d3 0065 
         0000d4 0020 
         0000d5 0042 
         0000d6 006C 
         0000d7 006F 
         0000d8 0063 
         0000d9 006B 
         0000da 0020 
         0000db 0041 
         0000dc 0064 
         0000dd 0064 
         0000de 0072 
         0000df 0065 
         0000e0 0073 
         0000e1 0073 
         0000e2 0069 
         0000e3 006E 
         0000e4 0067 
         0000e5 000A 
         0000e6 000A 
         0000e7 0000 
    1376                      .align  2
    1377 0000e8 0020  $C$FSL9:        .string "    SD card is Standard Capacity Card",10,0
         0000e9 0020 
         0000ea 0020 
         0000eb 0020 
         0000ec 0053 
         0000ed 0044 
         0000ee 0020 
         0000ef 0063 
         0000f0 0061 
         0000f1 0072 
         0000f2 0064 
         0000f3 0020 
         0000f4 0069 
TMS320C55x Assembler PC v4.4.1 Sat Sep 15 12:23:51 2018

Tools Copyright (c) 1996-2012 Texas Instruments Incorporated
ezdsp5535_sdcard.asm                                                 PAGE   37

         0000f5 0073 
         0000f6 0020 
         0000f7 0053 
         0000f8 0074 
         0000f9 0061 
         0000fa 006E 
         0000fb 0064 
         0000fc 0061 
         0000fd 0072 
         0000fe 0064 
         0000ff 0020 
         000100 0043 
         000101 0061 
         000102 0070 
         000103 0061 
         000104 0063 
         000105 0069 
         000106 0074 
         000107 0079 
         000108 0020 
         000109 0043 
         00010a 0061 
         00010b 0072 
         00010c 0064 
         00010d 000A 
         00010e 0000 
    1378                      .align  2
    1379 000110 0020  $C$FSL10:       .string "    Memory Access will use Byte Addressing",10,10,0
         000111 0020 
         000112 0020 
         000113 0020 
         000114 004D 
         000115 0065 
         000116 006D 
         000117 006F 
         000118 0072 
         000119 0079 
         00011a 0020 
         00011b 0041 
         00011c 0063 
         00011d 0063 
         00011e 0065 
         00011f 0073 
         000120 0073 
         000121 0020 
         000122 0077 
         000123 0069 
         000124 006C 
         000125 006C 
         000126 0020 
         000127 0075 
         000128 0073 
         000129 0065 
         00012a 0020 
         00012b 0042 
TMS320C55x Assembler PC v4.4.1 Sat Sep 15 12:23:51 2018

Tools Copyright (c) 1996-2012 Texas Instruments Incorporated
ezdsp5535_sdcard.asm                                                 PAGE   38

         00012c 0079 
         00012d 0074 
         00012e 0065 
         00012f 0020 
         000130 0041 
         000131 0064 
         000132 0064 
         000133 0072 
         000134 0065 
         000135 0073 
         000136 0073 
         000137 0069 
         000138 006E 
         000139 0067 
         00013a 000A 
         00013b 000A 
         00013c 0000 
    1380                      .align  2
    1381 00013e 004E  $C$FSL11:       .string "No Card Detected!",10,0
         00013f 006F 
         000140 0020 
         000141 0043 
         000142 0061 
         000143 0072 
         000144 0064 
         000145 0020 
         000146 0044 
         000147 0065 
         000148 0074 
         000149 0065 
         00014a 0063 
         00014b 0074 
         00014c 0065 
         00014d 0064 
         00014e 0021 
         00014f 000A 
         000150 0000 
    1382                      .align  2
    1383 000152 0053  $C$FSL12:       .string "SD card is not Detected!",10,0
         000153 0044 
         000154 0020 
         000155 0063 
         000156 0061 
         000157 0072 
         000158 0064 
         000159 0020 
         00015a 0069 
         00015b 0073 
         00015c 0020 
         00015d 006E 
         00015e 006F 
         00015f 0074 
         000160 0020 
         000161 0044 
         000162 0065 
TMS320C55x Assembler PC v4.4.1 Sat Sep 15 12:23:51 2018

Tools Copyright (c) 1996-2012 Texas Instruments Incorporated
ezdsp5535_sdcard.asm                                                 PAGE   39

         000163 0074 
         000164 0065 
         000165 0063 
         000166 0074 
         000167 0065 
         000168 0064 
         000169 0021 
         00016a 000A 
         00016b 0000 
    1384                      .align  2
    1385 00016c 0050  $C$FSL13:       .string "Please Insert SD card!!",10,0
         00016d 006C 
         00016e 0065 
         00016f 0061 
         000170 0073 
         000171 0065 
         000172 0020 
         000173 0049 
         000174 006E 
         000175 0073 
         000176 0065 
         000177 0072 
         000178 0074 
         000179 0020 
         00017a 0053 
         00017b 0044 
         00017c 0020 
         00017d 0063 
         00017e 0061 
         00017f 0072 
         000180 0064 
         000181 0021 
         000182 0021 
         000183 000A 
         000184 0000 
    1386                      .align  2
    1387 000186 0020  $C$FSL14:       .string "    MMC_sendOpCond Failed",10,0
         000187 0020 
         000188 0020 
         000189 0020 
         00018a 004D 
         00018b 004D 
         00018c 0043 
         00018d 005F 
         00018e 0073 
         00018f 0065 
         000190 006E 
         000191 0064 
         000192 004F 
         000193 0070 
         000194 0043 
         000195 006F 
         000196 006E 
         000197 0064 
         000198 0020 
TMS320C55x Assembler PC v4.4.1 Sat Sep 15 12:23:51 2018

Tools Copyright (c) 1996-2012 Texas Instruments Incorporated
ezdsp5535_sdcard.asm                                                 PAGE   40

         000199 0046 
         00019a 0061 
         00019b 0069 
         00019c 006C 
         00019d 0065 
         00019e 0064 
         00019f 000A 
         0001a0 0000 
    1388                      .align  2
    1389 0001a2 0020  $C$FSL15:       .string "    SD_sendAllCID Failed",10,0
         0001a3 0020 
         0001a4 0020 
         0001a5 0020 
         0001a6 0053 
         0001a7 0044 
         0001a8 005F 
         0001a9 0073 
         0001aa 0065 
         0001ab 006E 
         0001ac 0064 
         0001ad 0041 
         0001ae 006C 
         0001af 006C 
         0001b0 0043 
         0001b1 0049 
         0001b2 0044 
         0001b3 0020 
         0001b4 0046 
         0001b5 0061 
         0001b6 0069 
         0001b7 006C 
         0001b8 0065 
         0001b9 0064 
         0001ba 000A 
         0001bb 0000 
    1390                      .align  2
    1391 0001bc 0020  $C$FSL16:       .string "    SD_sendRca Failed",10,0
         0001bd 0020 
         0001be 0020 
         0001bf 0020 
         0001c0 0053 
         0001c1 0044 
         0001c2 005F 
         0001c3 0073 
         0001c4 0065 
         0001c5 006E 
         0001c6 0064 
         0001c7 0052 
         0001c8 0063 
         0001c9 0061 
         0001ca 0020 
         0001cb 0046 
         0001cc 0061 
         0001cd 0069 
         0001ce 006C 
TMS320C55x Assembler PC v4.4.1 Sat Sep 15 12:23:51 2018

Tools Copyright (c) 1996-2012 Texas Instruments Incorporated
ezdsp5535_sdcard.asm                                                 PAGE   41

         0001cf 0065 
         0001d0 0064 
         0001d1 000A 
         0001d2 0000 
    1392                      .align  2
    1393 0001d4 0020  $C$FSL17:       .string "    SD_getCardCsd Failed",10,0
         0001d5 0020 
         0001d6 0020 
         0001d7 0020 
         0001d8 0053 
         0001d9 0044 
         0001da 005F 
         0001db 0067 
         0001dc 0065 
         0001dd 0074 
         0001de 0043 
         0001df 0061 
         0001e0 0072 
         0001e1 0064 
         0001e2 0043 
         0001e3 0073 
         0001e4 0064 
         0001e5 0020 
         0001e6 0046 
         0001e7 0061 
         0001e8 0069 
         0001e9 006C 
         0001ea 0065 
         0001eb 0064 
         0001ec 000A 
         0001ed 0000 
    1394                      .align  2
    1395 0001ee 0020  $C$FSL18:       .string "    SD_setBusWidth Failed",10,0
         0001ef 0020 
         0001f0 0020 
         0001f1 0020 
         0001f2 0053 
         0001f3 0044 
         0001f4 005F 
         0001f5 0073 
         0001f6 0065 
         0001f7 0074 
         0001f8 0042 
         0001f9 0075 
         0001fa 0073 
         0001fb 0057 
         0001fc 0069 
         0001fd 0064 
         0001fe 0074 
         0001ff 0068 
         000200 0020 
         000201 0046 
         000202 0061 
         000203 0069 
         000204 006C 
TMS320C55x Assembler PC v4.4.1 Sat Sep 15 12:23:51 2018

Tools Copyright (c) 1996-2012 Texas Instruments Incorporated
ezdsp5535_sdcard.asm                                                 PAGE   42

         000205 0065 
         000206 0064 
         000207 000A 
         000208 0000 
    1396                      .align  2
    1397 00020a 0020  $C$FSL19:       .string "    SD_configurePullup Failed",10,0
         00020b 0020 
         00020c 0020 
         00020d 0020 
         00020e 0053 
         00020f 0044 
         000210 005F 
         000211 0063 
         000212 006F 
         000213 006E 
         000214 0066 
         000215 0069 
         000216 0067 
         000217 0075 
         000218 0072 
         000219 0065 
         00021a 0050 
         00021b 0075 
         00021c 006C 
         00021d 006C 
         00021e 0075 
         00021f 0070 
         000220 0020 
         000221 0046 
         000222 0061 
         000223 0069 
         000224 006C 
         000225 0065 
         000226 0064 
         000227 000A 
         000228 0000 
    1398                      .align  2
    1399 00022a 0020  $C$FSL20:       .string "    MMC_setCardType Failed",10,0
         00022b 0020 
         00022c 0020 
         00022d 0020 
         00022e 004D 
         00022f 004D 
         000230 0043 
         000231 005F 
         000232 0073 
         000233 0065 
         000234 0074 
         000235 0043 
         000236 0061 
         000237 0072 
         000238 0064 
         000239 0054 
         00023a 0079 
         00023b 0070 
TMS320C55x Assembler PC v4.4.1 Sat Sep 15 12:23:51 2018

Tools Copyright (c) 1996-2012 Texas Instruments Incorporated
ezdsp5535_sdcard.asm                                                 PAGE   43

         00023c 0065 
         00023d 0020 
         00023e 0046 
         00023f 0061 
         000240 0069 
         000241 006C 
         000242 0065 
         000243 0064 
         000244 000A 
         000245 0000 
    1400                      .align  2
    1401 000246 0020  $C$FSL21:       .string "    MMC_setCardPtr Failed",10,0
         000247 0020 
         000248 0020 
         000249 0020 
         00024a 004D 
         00024b 004D 
         00024c 0043 
         00024d 005F 
         00024e 0073 
         00024f 0065 
         000250 0074 
         000251 0043 
         000252 0061 
         000253 0072 
         000254 0064 
         000255 0050 
         000256 0074 
         000257 0072 
         000258 0020 
         000259 0046 
         00025a 0061 
         00025b 0069 
         00025c 006C 
         00025d 0065 
         00025e 0064 
         00025f 000A 
         000260 0000 
    1402                      .align  2
    1403 000262 0020  $C$FSL22:       .string "    MMC_getNumberOfCards Failed",10,0
         000263 0020 
         000264 0020 
         000265 0020 
         000266 004D 
         000267 004D 
         000268 0043 
         000269 005F 
         00026a 0067 
         00026b 0065 
         00026c 0074 
         00026d 004E 
         00026e 0075 
         00026f 006D 
         000270 0062 
         000271 0065 
TMS320C55x Assembler PC v4.4.1 Sat Sep 15 12:23:51 2018

Tools Copyright (c) 1996-2012 Texas Instruments Incorporated
ezdsp5535_sdcard.asm                                                 PAGE   44

         000272 0072 
         000273 004F 
         000274 0066 
         000275 0043 
         000276 0061 
         000277 0072 
         000278 0064 
         000279 0073 
         00027a 0020 
         00027b 0046 
         00027c 0061 
         00027d 0069 
         00027e 006C 
         00027f 0065 
         000280 0064 
         000281 000A 
         000282 0000 
    1404                      .align  2
    1405 000284 0020  $C$FSL23:       .string "    MMC_setEndianMode Failed",10,0
         000285 0020 
         000286 0020 
         000287 0020 
         000288 004D 
         000289 004D 
         00028a 0043 
         00028b 005F 
         00028c 0073 
         00028d 0065 
         00028e 0074 
         00028f 0045 
         000290 006E 
         000291 0064 
         000292 0069 
         000293 0061 
         000294 006E 
         000295 004D 
         000296 006F 
         000297 0064 
         000298 0065 
         000299 0020 
         00029a 0046 
         00029b 0061 
         00029c 0069 
         00029d 006C 
         00029e 0065 
         00029f 0064 
         0002a0 000A 
         0002a1 0000 
    1406                      .align  2
    1407 0002a2 0020  $C$FSL24:       .string "    MMC_setBlockLength Failed",10,0
         0002a3 0020 
         0002a4 0020 
         0002a5 0020 
         0002a6 004D 
         0002a7 004D 
TMS320C55x Assembler PC v4.4.1 Sat Sep 15 12:23:51 2018

Tools Copyright (c) 1996-2012 Texas Instruments Incorporated
ezdsp5535_sdcard.asm                                                 PAGE   45

         0002a8 0043 
         0002a9 005F 
         0002aa 0073 
         0002ab 0065 
         0002ac 0074 
         0002ad 0042 
         0002ae 006C 
         0002af 006F 
         0002b0 0063 
         0002b1 006B 
         0002b2 004C 
         0002b3 0065 
         0002b4 006E 
         0002b5 0067 
         0002b6 0074 
         0002b7 0068 
         0002b8 0020 
         0002b9 0046 
         0002ba 0061 
         0002bb 0069 
         0002bc 006C 
         0002bd 0065 
         0002be 0064 
         0002bf 000A 
         0002c0 0000 
    1408                      .align  2
    1409 0002c2 0020  $C$FSL25:       .string "    MMC_deselectCard Failed",10,0
         0002c3 0020 
         0002c4 0020 
         0002c5 0020 
         0002c6 004D 
         0002c7 004D 
         0002c8 0043 
         0002c9 005F 
         0002ca 0064 
         0002cb 0065 
         0002cc 0073 
         0002cd 0065 
         0002ce 006C 
         0002cf 0065 
         0002d0 0063 
         0002d1 0074 
         0002d2 0043 
         0002d3 0061 
         0002d4 0072 
         0002d5 0064 
         0002d6 0020 
         0002d7 0046 
         0002d8 0061 
         0002d9 0069 
         0002da 006C 
         0002db 0065 
         0002dc 0064 
         0002dd 000A 
         0002de 0000 
TMS320C55x Assembler PC v4.4.1 Sat Sep 15 12:23:51 2018

Tools Copyright (c) 1996-2012 Texas Instruments Incorporated
ezdsp5535_sdcard.asm                                                 PAGE   46

    1410                      .align  2
    1411 0002e0 0020  $C$FSL26:       .string "    MMC_clearResponse Failed",10,0
         0002e1 0020 
         0002e2 0020 
         0002e3 0020 
         0002e4 004D 
         0002e5 004D 
         0002e6 0043 
         0002e7 005F 
         0002e8 0063 
         0002e9 006C 
         0002ea 0065 
         0002eb 0061 
         0002ec 0072 
         0002ed 0052 
         0002ee 0065 
         0002ef 0073 
         0002f0 0070 
         0002f1 006F 
         0002f2 006E 
         0002f3 0073 
         0002f4 0065 
         0002f5 0020 
         0002f6 0046 
         0002f7 0061 
         0002f8 0069 
         0002f9 006C 
         0002fa 0065 
         0002fb 0064 
         0002fc 000A 
         0002fd 0000 
    1412                      .align  2
    1413 0002fe 0020  $C$FSL27:       .string "    MMC_sendCmd Failed",10,0
         0002ff 0020 
         000300 0020 
         000301 0020 
         000302 004D 
         000303 004D 
         000304 0043 
         000305 005F 
         000306 0073 
         000307 0065 
         000308 006E 
         000309 0064 
         00030a 0043 
         00030b 006D 
         00030c 0064 
         00030d 0020 
         00030e 0046 
         00030f 0061 
         000310 0069 
         000311 006C 
         000312 0065 
         000313 0064 
         000314 000A 
TMS320C55x Assembler PC v4.4.1 Sat Sep 15 12:23:51 2018

Tools Copyright (c) 1996-2012 Texas Instruments Incorporated
ezdsp5535_sdcard.asm                                                 PAGE   47

         000315 0000 
    1414                      .align  2
    1415 000316 0020  $C$FSL28:       .string "    MMC_close Failed",10,0
         000317 0020 
         000318 0020 
         000319 0020 
         00031a 004D 
         00031b 004D 
         00031c 0043 
         00031d 005F 
         00031e 0063 
         00031f 006C 
         000320 006F 
         000321 0073 
         000322 0065 
         000323 0020 
         000324 0046 
         000325 0061 
         000326 0069 
         000327 006C 
         000328 0065 
         000329 0064 
         00032a 000A 
         00032b 0000 
    1416                      .align  2
    1417 00032c 0020  $C$FSL29:       .string "    MMC_close Successful",10,0
         00032d 0020 
         00032e 0020 
         00032f 0020 
         000330 004D 
         000331 004D 
         000332 0043 
         000333 005F 
         000334 0063 
         000335 006C 
         000336 006F 
         000337 0073 
         000338 0065 
         000339 0020 
         00033a 0053 
         00033b 0075 
         00033c 0063 
         00033d 0063 
         00033e 0065 
         00033f 0073 
         000340 0073 
         000341 0066 
         000342 0075 
         000343 006C 
         000344 000A 
         000345 0000 
    1418              ;******************************************************************************
    1419              ;* UNDEFINED EXTERNAL REFERENCES                                              *
    1420              ;******************************************************************************
    1421                      .global _MMC_init
TMS320C55x Assembler PC v4.4.1 Sat Sep 15 12:23:51 2018

Tools Copyright (c) 1996-2012 Texas Instruments Incorporated
ezdsp5535_sdcard.asm                                                 PAGE   48

    1422                      .global _MMC_open
    1423                      .global _MMC_close
    1424                      .global _MMC_setCardType
    1425                      .global _MMC_setCardPtr
    1426                      .global _MMC_getNumberOfCards
    1427                      .global _MMC_clearResponse
    1428                      .global _MMC_sendCmd
    1429                      .global _MMC_sendGoIdle
    1430                      .global _MMC_deselectCard
    1431                      .global _MMC_selectCard
    1432                      .global _MMC_sendOpCond
    1433                      .global _SD_sendRca
    1434                      .global _SD_sendAllCID
    1435                      .global _SD_getCardCsd
    1436                      .global _MMC_read
    1437                      .global _MMC_write
    1438                      .global _MMC_setEndianMode
    1439                      .global _MMC_setBlockLength
    1440                      .global _SD_setBusWidth
    1441                      .global _SD_configurePullup
    1442                      .global _printf
    1443              
    1444              ;*******************************************************************************
    1445              ;* TYPE INFORMATION                                                            *
    1446              ;*******************************************************************************
    1447              
    1448              $C$DW$T$32      .dwtag  DW_TAG_enumeration_type
    1449                      .dwattr $C$DW$T$32, DW_AT_byte_size(0x01)
    1450              $C$DW$154       .dwtag  DW_TAG_enumerator, DW_AT_name("CSL_CARD_NONE"), DW_AT_const_value(0x00)
    1451              $C$DW$155       .dwtag  DW_TAG_enumerator, DW_AT_name("CSL_SD_CARD"), DW_AT_const_value(0x01)
    1452              $C$DW$156       .dwtag  DW_TAG_enumerator, DW_AT_name("CSL_MMC_CARD"), DW_AT_const_value(0x02)
    1453                      .dwendtag $C$DW$T$32
    1454              
    1455              $C$DW$T$33      .dwtag  DW_TAG_typedef, DW_AT_name("CSL_CardType")
    1456                      .dwattr $C$DW$T$33, DW_AT_type(*$C$DW$T$32)
    1457                      .dwattr $C$DW$T$33, DW_AT_language(DW_LANG_C)
    1458              
    1459              $C$DW$T$53      .dwtag  DW_TAG_enumeration_type
    1460                      .dwattr $C$DW$T$53, DW_AT_byte_size(0x01)
    1461              $C$DW$157       .dwtag  DW_TAG_enumerator, DW_AT_name("CSL_DMA_CHAN0"), DW_AT_const_value(0x00)
    1462              $C$DW$158       .dwtag  DW_TAG_enumerator, DW_AT_name("CSL_DMA_CHAN1"), DW_AT_const_value(0x01)
    1463              $C$DW$159       .dwtag  DW_TAG_enumerator, DW_AT_name("CSL_DMA_CHAN2"), DW_AT_const_value(0x02)
    1464              $C$DW$160       .dwtag  DW_TAG_enumerator, DW_AT_name("CSL_DMA_CHAN3"), DW_AT_const_value(0x03)
    1465              $C$DW$161       .dwtag  DW_TAG_enumerator, DW_AT_name("CSL_DMA_CHAN4"), DW_AT_const_value(0x04)
    1466              $C$DW$162       .dwtag  DW_TAG_enumerator, DW_AT_name("CSL_DMA_CHAN5"), DW_AT_const_value(0x05)
    1467              $C$DW$163       .dwtag  DW_TAG_enumerator, DW_AT_name("CSL_DMA_CHAN6"), DW_AT_const_value(0x06)
    1468              $C$DW$164       .dwtag  DW_TAG_enumerator, DW_AT_name("CSL_DMA_CHAN7"), DW_AT_const_value(0x07)
    1469              $C$DW$165       .dwtag  DW_TAG_enumerator, DW_AT_name("CSL_DMA_CHAN8"), DW_AT_const_value(0x08)
    1470              $C$DW$166       .dwtag  DW_TAG_enumerator, DW_AT_name("CSL_DMA_CHAN9"), DW_AT_const_value(0x09)
    1471              $C$DW$167       .dwtag  DW_TAG_enumerator, DW_AT_name("CSL_DMA_CHAN10"), DW_AT_const_value(0x0a)
    1472              $C$DW$168       .dwtag  DW_TAG_enumerator, DW_AT_name("CSL_DMA_CHAN11"), DW_AT_const_value(0x0b)
    1473              $C$DW$169       .dwtag  DW_TAG_enumerator, DW_AT_name("CSL_DMA_CHAN12"), DW_AT_const_value(0x0c)
    1474              $C$DW$170       .dwtag  DW_TAG_enumerator, DW_AT_name("CSL_DMA_CHAN13"), DW_AT_const_value(0x0d)
    1475              $C$DW$171       .dwtag  DW_TAG_enumerator, DW_AT_name("CSL_DMA_CHAN14"), DW_AT_const_value(0x0e)
    1476              $C$DW$172       .dwtag  DW_TAG_enumerator, DW_AT_name("CSL_DMA_CHAN15"), DW_AT_const_value(0x0f)
TMS320C55x Assembler PC v4.4.1 Sat Sep 15 12:23:51 2018

Tools Copyright (c) 1996-2012 Texas Instruments Incorporated
ezdsp5535_sdcard.asm                                                 PAGE   49

    1477              $C$DW$173       .dwtag  DW_TAG_enumerator, DW_AT_name("CSL_DMA_CHAN_INV"), DW_AT_const_value(0x10)
    1478                      .dwendtag $C$DW$T$53
    1479              
    1480              $C$DW$T$54      .dwtag  DW_TAG_typedef, DW_AT_name("CSL_DMAChanNum")
    1481                      .dwattr $C$DW$T$54, DW_AT_type(*$C$DW$T$53)
    1482                      .dwattr $C$DW$T$54, DW_AT_language(DW_LANG_C)
    1483              
    1484              $C$DW$T$55      .dwtag  DW_TAG_enumeration_type
    1485                      .dwattr $C$DW$T$55, DW_AT_byte_size(0x01)
    1486              $C$DW$174       .dwtag  DW_TAG_enumerator, DW_AT_name("CSL_DMA_ENGINE0"), DW_AT_const_value(0x00)
    1487              $C$DW$175       .dwtag  DW_TAG_enumerator, DW_AT_name("CSL_DMA_ENGINE1"), DW_AT_const_value(0x01)
    1488              $C$DW$176       .dwtag  DW_TAG_enumerator, DW_AT_name("CSL_DMA_ENGINE2"), DW_AT_const_value(0x02)
    1489              $C$DW$177       .dwtag  DW_TAG_enumerator, DW_AT_name("CSL_DMA_ENGINE3"), DW_AT_const_value(0x03)
    1490              $C$DW$178       .dwtag  DW_TAG_enumerator, DW_AT_name("CSL_DMA_ENGINEINV"), DW_AT_const_value(0x04)
    1491                      .dwendtag $C$DW$T$55
    1492              
    1493              $C$DW$T$56      .dwtag  DW_TAG_typedef, DW_AT_name("CSL_DMAEngineId")
    1494                      .dwattr $C$DW$T$56, DW_AT_type(*$C$DW$T$55)
    1495                      .dwattr $C$DW$T$56, DW_AT_language(DW_LANG_C)
    1496              
    1497              $C$DW$T$57      .dwtag  DW_TAG_enumeration_type
    1498                      .dwattr $C$DW$T$57, DW_AT_byte_size(0x01)
    1499              $C$DW$179       .dwtag  DW_TAG_enumerator, DW_AT_name("CSL_DMA_READ"), DW_AT_const_value(0x00)
    1500              $C$DW$180       .dwtag  DW_TAG_enumerator, DW_AT_name("CSL_DMA_WRITE"), DW_AT_const_value(0x01)
    1501                      .dwendtag $C$DW$T$57
    1502              
    1503              $C$DW$T$58      .dwtag  DW_TAG_typedef, DW_AT_name("CSL_DMAChanDir")
    1504                      .dwattr $C$DW$T$58, DW_AT_type(*$C$DW$T$57)
    1505                      .dwattr $C$DW$T$58, DW_AT_language(DW_LANG_C)
    1506              
    1507              $C$DW$T$59      .dwtag  DW_TAG_enumeration_type
    1508                      .dwattr $C$DW$T$59, DW_AT_byte_size(0x01)
    1509              $C$DW$181       .dwtag  DW_TAG_enumerator, DW_AT_name("CSL_DMA_SOFTWARE_TRIGGER"), DW_AT_const_value(0x00)
    1510              $C$DW$182       .dwtag  DW_TAG_enumerator, DW_AT_name("CSL_DMA_EVENT_TRIGGER"), DW_AT_const_value(0x01)
    1511                      .dwendtag $C$DW$T$59
    1512              
    1513              $C$DW$T$60      .dwtag  DW_TAG_typedef, DW_AT_name("CSL_DMATriggerType")
    1514                      .dwattr $C$DW$T$60, DW_AT_type(*$C$DW$T$59)
    1515                      .dwattr $C$DW$T$60, DW_AT_language(DW_LANG_C)
    1516              
    1517              $C$DW$T$61      .dwtag  DW_TAG_enumeration_type
    1518                      .dwattr $C$DW$T$61, DW_AT_byte_size(0x01)
    1519              $C$DW$183       .dwtag  DW_TAG_enumerator, DW_AT_name("CSL_DMA_TRANSFER_IO_MEMORY"), DW_AT_const_value(0x00)
    1520              $C$DW$184       .dwtag  DW_TAG_enumerator, DW_AT_name("CSL_DMA_TRANSFER_MEMORY"), DW_AT_const_value(0x01)
    1521                      .dwendtag $C$DW$T$61
    1522              
    1523              $C$DW$T$62      .dwtag  DW_TAG_typedef, DW_AT_name("CSL_DMATransferType")
    1524                      .dwattr $C$DW$T$62, DW_AT_type(*$C$DW$T$61)
    1525                      .dwattr $C$DW$T$62, DW_AT_language(DW_LANG_C)
    1526              
    1527              $C$DW$T$63      .dwtag  DW_TAG_enumeration_type
    1528                      .dwattr $C$DW$T$63, DW_AT_byte_size(0x01)
    1529              $C$DW$185       .dwtag  DW_TAG_enumerator, DW_AT_name("CSL_DMA_INTERRUPT_DISABLE"), DW_AT_const_value(0x00)
    1530              $C$DW$186       .dwtag  DW_TAG_enumerator, DW_AT_name("CSL_DMA_INTERRUPT_ENABLE"), DW_AT_const_value(0x01)
    1531                      .dwendtag $C$DW$T$63
TMS320C55x Assembler PC v4.4.1 Sat Sep 15 12:23:51 2018

Tools Copyright (c) 1996-2012 Texas Instruments Incorporated
ezdsp5535_sdcard.asm                                                 PAGE   50

    1532              
    1533              $C$DW$T$64      .dwtag  DW_TAG_typedef, DW_AT_name("CSL_DMAInterruptState")
    1534                      .dwattr $C$DW$T$64, DW_AT_type(*$C$DW$T$63)
    1535                      .dwattr $C$DW$T$64, DW_AT_language(DW_LANG_C)
    1536              
    1537              $C$DW$T$66      .dwtag  DW_TAG_enumeration_type
    1538                      .dwattr $C$DW$T$66, DW_AT_byte_size(0x01)
    1539              $C$DW$187       .dwtag  DW_TAG_enumerator, DW_AT_name("CSL_DMA_PING_PONG_DISABLE"), DW_AT_const_value(0x00)
    1540              $C$DW$188       .dwtag  DW_TAG_enumerator, DW_AT_name("CSL_DMA_PING_PONG_ENABLE"), DW_AT_const_value(0x01)
    1541                      .dwendtag $C$DW$T$66
    1542              
    1543              $C$DW$T$67      .dwtag  DW_TAG_typedef, DW_AT_name("CSL_DMAPingPongMode")
    1544                      .dwattr $C$DW$T$67, DW_AT_type(*$C$DW$T$66)
    1545                      .dwattr $C$DW$T$67, DW_AT_language(DW_LANG_C)
    1546              
    1547              $C$DW$T$68      .dwtag  DW_TAG_enumeration_type
    1548                      .dwattr $C$DW$T$68, DW_AT_byte_size(0x01)
    1549              $C$DW$189       .dwtag  DW_TAG_enumerator, DW_AT_name("CSL_DMA_AUTORELOAD_DISABLE"), DW_AT_const_value(0x00)
    1550              $C$DW$190       .dwtag  DW_TAG_enumerator, DW_AT_name("CSL_DMA_AUTORELOAD_ENABLE"), DW_AT_const_value(0x01)
    1551                      .dwendtag $C$DW$T$68
    1552              
    1553              $C$DW$T$69      .dwtag  DW_TAG_typedef, DW_AT_name("CSL_DMAAutoReloadMode")
    1554                      .dwattr $C$DW$T$69, DW_AT_type(*$C$DW$T$68)
    1555                      .dwattr $C$DW$T$69, DW_AT_language(DW_LANG_C)
    1556              
    1557              $C$DW$T$70      .dwtag  DW_TAG_enumeration_type
    1558                      .dwattr $C$DW$T$70, DW_AT_byte_size(0x01)
    1559              $C$DW$191       .dwtag  DW_TAG_enumerator, DW_AT_name("CSL_DMA_TXBURST_1WORD"), DW_AT_const_value(0x00)
    1560              $C$DW$192       .dwtag  DW_TAG_enumerator, DW_AT_name("CSL_DMA_TXBURST_2WORD"), DW_AT_const_value(0x01)
    1561              $C$DW$193       .dwtag  DW_TAG_enumerator, DW_AT_name("CSL_DMA_TXBURST_4WORD"), DW_AT_const_value(0x02)
    1562              $C$DW$194       .dwtag  DW_TAG_enumerator, DW_AT_name("CSL_DMA_TXBURST_8WORD"), DW_AT_const_value(0x03)
    1563              $C$DW$195       .dwtag  DW_TAG_enumerator, DW_AT_name("CSL_DMA_TXBURST_16WORD"), DW_AT_const_value(0x04)
    1564                      .dwendtag $C$DW$T$70
    1565              
    1566              $C$DW$T$71      .dwtag  DW_TAG_typedef, DW_AT_name("CSL_DMATxBurstLen")
    1567                      .dwattr $C$DW$T$71, DW_AT_type(*$C$DW$T$70)
    1568                      .dwattr $C$DW$T$71, DW_AT_language(DW_LANG_C)
    1569              
    1570              $C$DW$T$72      .dwtag  DW_TAG_enumeration_type
    1571                      .dwattr $C$DW$T$72, DW_AT_byte_size(0x01)
    1572              $C$DW$196       .dwtag  DW_TAG_enumerator, DW_AT_name("CSL_DMA_EVT_NONE"), DW_AT_const_value(0x00)
    1573              $C$DW$197       .dwtag  DW_TAG_enumerator, DW_AT_name("CSL_DMA_EVT_I2S0_TX"), DW_AT_const_value(0x01)
    1574              $C$DW$198       .dwtag  DW_TAG_enumerator, DW_AT_name("CSL_DMA_EVT_I2S0_RX"), DW_AT_const_value(0x02)
    1575              $C$DW$199       .dwtag  DW_TAG_enumerator, DW_AT_name("CSL_DMA_EVT_I2S1_TX"), DW_AT_const_value(0x01)
    1576              $C$DW$200       .dwtag  DW_TAG_enumerator, DW_AT_name("CSL_DMA_EVT_I2S1_RX"), DW_AT_const_value(0x02)
    1577              $C$DW$201       .dwtag  DW_TAG_enumerator, DW_AT_name("CSL_DMA_EVT_I2S2_TX"), DW_AT_const_value(0x01)
    1578              $C$DW$202       .dwtag  DW_TAG_enumerator, DW_AT_name("CSL_DMA_EVT_I2S2_RX"), DW_AT_const_value(0x02)
    1579              $C$DW$203       .dwtag  DW_TAG_enumerator, DW_AT_name("CSL_DMA_EVT_I2S3_TX"), DW_AT_const_value(0x04)
    1580              $C$DW$204       .dwtag  DW_TAG_enumerator, DW_AT_name("CSL_DMA_EVT_I2S3_RX"), DW_AT_const_value(0x05)
    1581              $C$DW$205       .dwtag  DW_TAG_enumerator, DW_AT_name("CSL_DMA_EVT_MMC_SD0_TX"), DW_AT_const_value(0x05)
    1582              $C$DW$206       .dwtag  DW_TAG_enumerator, DW_AT_name("CSL_DMA_EVT_MMC_SD0_RX"), DW_AT_const_value(0x06)
    1583              $C$DW$207       .dwtag  DW_TAG_enumerator, DW_AT_name("CSL_DMA_EVT_MMC_SD1_TX"), DW_AT_const_value(0x07)
    1584              $C$DW$208       .dwtag  DW_TAG_enumerator, DW_AT_name("CSL_DMA_EVT_MMC_SD1_RX"), DW_AT_const_value(0x08)
    1585              $C$DW$209       .dwtag  DW_TAG_enumerator, DW_AT_name("CSL_DMA_EVT_TIMER0"), DW_AT_const_value(0x0c)
    1586              $C$DW$210       .dwtag  DW_TAG_enumerator, DW_AT_name("CSL_DMA_EVT_TIMER1"), DW_AT_const_value(0x0d)
TMS320C55x Assembler PC v4.4.1 Sat Sep 15 12:23:51 2018

Tools Copyright (c) 1996-2012 Texas Instruments Incorporated
ezdsp5535_sdcard.asm                                                 PAGE   51

    1587              $C$DW$211       .dwtag  DW_TAG_enumerator, DW_AT_name("CSL_DMA_EVT_TIMER2"), DW_AT_const_value(0x0e)
    1588              $C$DW$212       .dwtag  DW_TAG_enumerator, DW_AT_name("CSL_DMA_EVT_UART_TX"), DW_AT_const_value(0x05)
    1589              $C$DW$213       .dwtag  DW_TAG_enumerator, DW_AT_name("CSL_DMA_EVT_UART_RX"), DW_AT_const_value(0x06)
    1590              $C$DW$214       .dwtag  DW_TAG_enumerator, DW_AT_name("CSL_DMA_EVT_I2C_TX"), DW_AT_const_value(0x01)
    1591              $C$DW$215       .dwtag  DW_TAG_enumerator, DW_AT_name("CSL_DMA_EVT_I2C_RX"), DW_AT_const_value(0x02)
    1592              $C$DW$216       .dwtag  DW_TAG_enumerator, DW_AT_name("CSL_DMA_EVT_SAR_AD"), DW_AT_const_value(0x03)
    1593              $C$DW$217       .dwtag  DW_TAG_enumerator, DW_AT_name("CSL_DMA_EVT_INVALID"), DW_AT_const_value(0x04)
    1594                      .dwendtag $C$DW$T$72
    1595              
    1596              $C$DW$T$73      .dwtag  DW_TAG_typedef, DW_AT_name("CSL_DMAEvtType")
    1597                      .dwattr $C$DW$T$73, DW_AT_type(*$C$DW$T$72)
    1598                      .dwattr $C$DW$T$73, DW_AT_language(DW_LANG_C)
    1599              
    1600              $C$DW$T$85      .dwtag  DW_TAG_enumeration_type
    1601                      .dwattr $C$DW$T$85, DW_AT_byte_size(0x01)
    1602              $C$DW$218       .dwtag  DW_TAG_enumerator, DW_AT_name("CSL_MMCSD_OPMODE_POLLED"), DW_AT_const_value(0x00)
    1603              $C$DW$219       .dwtag  DW_TAG_enumerator, DW_AT_name("CSL_MMCSD_OPMODE_INTERRUPT"), DW_AT_const_value(0x01)
    1604              $C$DW$220       .dwtag  DW_TAG_enumerator, DW_AT_name("CSL_MMCSD_OPMODE_DMA"), DW_AT_const_value(0x02)
    1605              $C$DW$221       .dwtag  DW_TAG_enumerator, DW_AT_name("CSL_MMCSD_OPMODE_NONE"), DW_AT_const_value(0x03)
    1606                      .dwendtag $C$DW$T$85
    1607              
    1608              $C$DW$T$86      .dwtag  DW_TAG_typedef, DW_AT_name("CSL_MMCSDOpMode")
    1609                      .dwattr $C$DW$T$86, DW_AT_type(*$C$DW$T$85)
    1610                      .dwattr $C$DW$T$86, DW_AT_language(DW_LANG_C)
    1611              
    1612              $C$DW$T$96      .dwtag  DW_TAG_enumeration_type
    1613                      .dwattr $C$DW$T$96, DW_AT_byte_size(0x01)
    1614              $C$DW$222       .dwtag  DW_TAG_enumerator, DW_AT_name("CSL_MMCSD_ENDIAN_LITTLE"), DW_AT_const_value(0x00)
    1615              $C$DW$223       .dwtag  DW_TAG_enumerator, DW_AT_name("CSL_MMCSD_ENDIAN_BIG"), DW_AT_const_value(0x01)
    1616                      .dwendtag $C$DW$T$96
    1617              
    1618              $C$DW$T$97      .dwtag  DW_TAG_typedef, DW_AT_name("CSL_MmcsdEndianMode")
    1619                      .dwattr $C$DW$T$97, DW_AT_type(*$C$DW$T$96)
    1620                      .dwattr $C$DW$T$97, DW_AT_language(DW_LANG_C)
    1621              
    1622              $C$DW$T$99      .dwtag  DW_TAG_enumeration_type
    1623                      .dwattr $C$DW$T$99, DW_AT_byte_size(0x01)
    1624              $C$DW$224       .dwtag  DW_TAG_enumerator, DW_AT_name("CSL_MMCSD0_INST"), DW_AT_const_value(0x00)
    1625              $C$DW$225       .dwtag  DW_TAG_enumerator, DW_AT_name("CSL_MMCSD1_INST"), DW_AT_const_value(0x01)
    1626              $C$DW$226       .dwtag  DW_TAG_enumerator, DW_AT_name("CSL_MMCSD_INST_INV"), DW_AT_const_value(0x02)
    1627                      .dwendtag $C$DW$T$99
    1628              
    1629              $C$DW$T$100     .dwtag  DW_TAG_typedef, DW_AT_name("CSL_MmcsdInstId")
    1630                      .dwattr $C$DW$T$100, DW_AT_type(*$C$DW$T$99)
    1631                      .dwattr $C$DW$T$100, DW_AT_language(DW_LANG_C)
    1632              
    1633              $C$DW$T$25      .dwtag  DW_TAG_structure_type
    1634                      .dwattr $C$DW$T$25, DW_AT_byte_size(0x75)
    1635              $C$DW$227       .dwtag  DW_TAG_member
    1636                      .dwattr $C$DW$227, DW_AT_type(*$C$DW$T$20)
    1637                      .dwattr $C$DW$227, DW_AT_name("MMCCTL")
    1638                      .dwattr $C$DW$227, DW_AT_TI_symbol_name("_MMCCTL")
    1639                      .dwattr $C$DW$227, DW_AT_data_member_location[DW_OP_plus_uconst 0x0]
    1640                      .dwattr $C$DW$227, DW_AT_accessibility(DW_ACCESS_public)
    1641              $C$DW$228       .dwtag  DW_TAG_member
TMS320C55x Assembler PC v4.4.1 Sat Sep 15 12:23:51 2018

Tools Copyright (c) 1996-2012 Texas Instruments Incorporated
ezdsp5535_sdcard.asm                                                 PAGE   52

    1642                      .dwattr $C$DW$228, DW_AT_type(*$C$DW$T$21)
    1643                      .dwattr $C$DW$228, DW_AT_name("RSVD0")
    1644                      .dwattr $C$DW$228, DW_AT_TI_symbol_name("_RSVD0")
    1645                      .dwattr $C$DW$228, DW_AT_data_member_location[DW_OP_plus_uconst 0x1]
    1646                      .dwattr $C$DW$228, DW_AT_accessibility(DW_ACCESS_public)
    1647              $C$DW$229       .dwtag  DW_TAG_member
    1648                      .dwattr $C$DW$229, DW_AT_type(*$C$DW$T$20)
    1649                      .dwattr $C$DW$229, DW_AT_name("MMCCLK")
    1650                      .dwattr $C$DW$229, DW_AT_TI_symbol_name("_MMCCLK")
    1651                      .dwattr $C$DW$229, DW_AT_data_member_location[DW_OP_plus_uconst 0x4]
    1652                      .dwattr $C$DW$229, DW_AT_accessibility(DW_ACCESS_public)
    1653              $C$DW$230       .dwtag  DW_TAG_member
    1654                      .dwattr $C$DW$230, DW_AT_type(*$C$DW$T$21)
    1655                      .dwattr $C$DW$230, DW_AT_name("RSVD1")
    1656                      .dwattr $C$DW$230, DW_AT_TI_symbol_name("_RSVD1")
    1657                      .dwattr $C$DW$230, DW_AT_data_member_location[DW_OP_plus_uconst 0x5]
    1658                      .dwattr $C$DW$230, DW_AT_accessibility(DW_ACCESS_public)
    1659              $C$DW$231       .dwtag  DW_TAG_member
    1660                      .dwattr $C$DW$231, DW_AT_type(*$C$DW$T$20)
    1661                      .dwattr $C$DW$231, DW_AT_name("MMCST0")
    1662                      .dwattr $C$DW$231, DW_AT_TI_symbol_name("_MMCST0")
    1663                      .dwattr $C$DW$231, DW_AT_data_member_location[DW_OP_plus_uconst 0x8]
    1664                      .dwattr $C$DW$231, DW_AT_accessibility(DW_ACCESS_public)
    1665              $C$DW$232       .dwtag  DW_TAG_member
    1666                      .dwattr $C$DW$232, DW_AT_type(*$C$DW$T$21)
    1667                      .dwattr $C$DW$232, DW_AT_name("RSVD2")
    1668                      .dwattr $C$DW$232, DW_AT_TI_symbol_name("_RSVD2")
    1669                      .dwattr $C$DW$232, DW_AT_data_member_location[DW_OP_plus_uconst 0x9]
    1670                      .dwattr $C$DW$232, DW_AT_accessibility(DW_ACCESS_public)
    1671              $C$DW$233       .dwtag  DW_TAG_member
    1672                      .dwattr $C$DW$233, DW_AT_type(*$C$DW$T$20)
    1673                      .dwattr $C$DW$233, DW_AT_name("MMCST1")
    1674                      .dwattr $C$DW$233, DW_AT_TI_symbol_name("_MMCST1")
    1675                      .dwattr $C$DW$233, DW_AT_data_member_location[DW_OP_plus_uconst 0xc]
    1676                      .dwattr $C$DW$233, DW_AT_accessibility(DW_ACCESS_public)
    1677              $C$DW$234       .dwtag  DW_TAG_member
    1678                      .dwattr $C$DW$234, DW_AT_type(*$C$DW$T$21)
    1679                      .dwattr $C$DW$234, DW_AT_name("RSVD3")
    1680                      .dwattr $C$DW$234, DW_AT_TI_symbol_name("_RSVD3")
    1681                      .dwattr $C$DW$234, DW_AT_data_member_location[DW_OP_plus_uconst 0xd]
    1682                      .dwattr $C$DW$234, DW_AT_accessibility(DW_ACCESS_public)
    1683              $C$DW$235       .dwtag  DW_TAG_member
    1684                      .dwattr $C$DW$235, DW_AT_type(*$C$DW$T$20)
    1685                      .dwattr $C$DW$235, DW_AT_name("MMCIM")
    1686                      .dwattr $C$DW$235, DW_AT_TI_symbol_name("_MMCIM")
    1687                      .dwattr $C$DW$235, DW_AT_data_member_location[DW_OP_plus_uconst 0x10]
    1688                      .dwattr $C$DW$235, DW_AT_accessibility(DW_ACCESS_public)
    1689              $C$DW$236       .dwtag  DW_TAG_member
    1690                      .dwattr $C$DW$236, DW_AT_type(*$C$DW$T$21)
    1691                      .dwattr $C$DW$236, DW_AT_name("RSVD4")
    1692                      .dwattr $C$DW$236, DW_AT_TI_symbol_name("_RSVD4")
    1693                      .dwattr $C$DW$236, DW_AT_data_member_location[DW_OP_plus_uconst 0x11]
    1694                      .dwattr $C$DW$236, DW_AT_accessibility(DW_ACCESS_public)
    1695              $C$DW$237       .dwtag  DW_TAG_member
    1696                      .dwattr $C$DW$237, DW_AT_type(*$C$DW$T$20)
TMS320C55x Assembler PC v4.4.1 Sat Sep 15 12:23:51 2018

Tools Copyright (c) 1996-2012 Texas Instruments Incorporated
ezdsp5535_sdcard.asm                                                 PAGE   53

    1697                      .dwattr $C$DW$237, DW_AT_name("MMCTOR")
    1698                      .dwattr $C$DW$237, DW_AT_TI_symbol_name("_MMCTOR")
    1699                      .dwattr $C$DW$237, DW_AT_data_member_location[DW_OP_plus_uconst 0x14]
    1700                      .dwattr $C$DW$237, DW_AT_accessibility(DW_ACCESS_public)
    1701              $C$DW$238       .dwtag  DW_TAG_member
    1702                      .dwattr $C$DW$238, DW_AT_type(*$C$DW$T$21)
    1703                      .dwattr $C$DW$238, DW_AT_name("RSVD5")
    1704                      .dwattr $C$DW$238, DW_AT_TI_symbol_name("_RSVD5")
    1705                      .dwattr $C$DW$238, DW_AT_data_member_location[DW_OP_plus_uconst 0x15]
    1706                      .dwattr $C$DW$238, DW_AT_accessibility(DW_ACCESS_public)
    1707              $C$DW$239       .dwtag  DW_TAG_member
    1708                      .dwattr $C$DW$239, DW_AT_type(*$C$DW$T$20)
    1709                      .dwattr $C$DW$239, DW_AT_name("MMCTOD")
    1710                      .dwattr $C$DW$239, DW_AT_TI_symbol_name("_MMCTOD")
    1711                      .dwattr $C$DW$239, DW_AT_data_member_location[DW_OP_plus_uconst 0x18]
    1712                      .dwattr $C$DW$239, DW_AT_accessibility(DW_ACCESS_public)
    1713              $C$DW$240       .dwtag  DW_TAG_member
    1714                      .dwattr $C$DW$240, DW_AT_type(*$C$DW$T$21)
    1715                      .dwattr $C$DW$240, DW_AT_name("RSVD6")
    1716                      .dwattr $C$DW$240, DW_AT_TI_symbol_name("_RSVD6")
    1717                      .dwattr $C$DW$240, DW_AT_data_member_location[DW_OP_plus_uconst 0x19]
    1718                      .dwattr $C$DW$240, DW_AT_accessibility(DW_ACCESS_public)
    1719              $C$DW$241       .dwtag  DW_TAG_member
    1720                      .dwattr $C$DW$241, DW_AT_type(*$C$DW$T$20)
    1721                      .dwattr $C$DW$241, DW_AT_name("MMCBLEN")
    1722                      .dwattr $C$DW$241, DW_AT_TI_symbol_name("_MMCBLEN")
    1723                      .dwattr $C$DW$241, DW_AT_data_member_location[DW_OP_plus_uconst 0x1c]
    1724                      .dwattr $C$DW$241, DW_AT_accessibility(DW_ACCESS_public)
    1725              $C$DW$242       .dwtag  DW_TAG_member
    1726                      .dwattr $C$DW$242, DW_AT_type(*$C$DW$T$21)
    1727                      .dwattr $C$DW$242, DW_AT_name("RSVD7")
    1728                      .dwattr $C$DW$242, DW_AT_TI_symbol_name("_RSVD7")
    1729                      .dwattr $C$DW$242, DW_AT_data_member_location[DW_OP_plus_uconst 0x1d]
    1730                      .dwattr $C$DW$242, DW_AT_accessibility(DW_ACCESS_public)
    1731              $C$DW$243       .dwtag  DW_TAG_member
    1732                      .dwattr $C$DW$243, DW_AT_type(*$C$DW$T$20)
    1733                      .dwattr $C$DW$243, DW_AT_name("MMCNBLK")
    1734                      .dwattr $C$DW$243, DW_AT_TI_symbol_name("_MMCNBLK")
    1735                      .dwattr $C$DW$243, DW_AT_data_member_location[DW_OP_plus_uconst 0x20]
    1736                      .dwattr $C$DW$243, DW_AT_accessibility(DW_ACCESS_public)
    1737              $C$DW$244       .dwtag  DW_TAG_member
    1738                      .dwattr $C$DW$244, DW_AT_type(*$C$DW$T$21)
    1739                      .dwattr $C$DW$244, DW_AT_name("RSVD8")
    1740                      .dwattr $C$DW$244, DW_AT_TI_symbol_name("_RSVD8")
    1741                      .dwattr $C$DW$244, DW_AT_data_member_location[DW_OP_plus_uconst 0x21]
    1742                      .dwattr $C$DW$244, DW_AT_accessibility(DW_ACCESS_public)
    1743              $C$DW$245       .dwtag  DW_TAG_member
    1744                      .dwattr $C$DW$245, DW_AT_type(*$C$DW$T$20)
    1745                      .dwattr $C$DW$245, DW_AT_name("MMCNBLC")
    1746                      .dwattr $C$DW$245, DW_AT_TI_symbol_name("_MMCNBLC")
    1747                      .dwattr $C$DW$245, DW_AT_data_member_location[DW_OP_plus_uconst 0x24]
    1748                      .dwattr $C$DW$245, DW_AT_accessibility(DW_ACCESS_public)
    1749              $C$DW$246       .dwtag  DW_TAG_member
    1750                      .dwattr $C$DW$246, DW_AT_type(*$C$DW$T$21)
    1751                      .dwattr $C$DW$246, DW_AT_name("RSVD9")
TMS320C55x Assembler PC v4.4.1 Sat Sep 15 12:23:51 2018

Tools Copyright (c) 1996-2012 Texas Instruments Incorporated
ezdsp5535_sdcard.asm                                                 PAGE   54

    1752                      .dwattr $C$DW$246, DW_AT_TI_symbol_name("_RSVD9")
    1753                      .dwattr $C$DW$246, DW_AT_data_member_location[DW_OP_plus_uconst 0x25]
    1754                      .dwattr $C$DW$246, DW_AT_accessibility(DW_ACCESS_public)
    1755              $C$DW$247       .dwtag  DW_TAG_member
    1756                      .dwattr $C$DW$247, DW_AT_type(*$C$DW$T$20)
    1757                      .dwattr $C$DW$247, DW_AT_name("MMCDRR1")
    1758                      .dwattr $C$DW$247, DW_AT_TI_symbol_name("_MMCDRR1")
    1759                      .dwattr $C$DW$247, DW_AT_data_member_location[DW_OP_plus_uconst 0x28]
    1760                      .dwattr $C$DW$247, DW_AT_accessibility(DW_ACCESS_public)
    1761              $C$DW$248       .dwtag  DW_TAG_member
    1762                      .dwattr $C$DW$248, DW_AT_type(*$C$DW$T$20)
    1763                      .dwattr $C$DW$248, DW_AT_name("MMCDRR2")
    1764                      .dwattr $C$DW$248, DW_AT_TI_symbol_name("_MMCDRR2")
    1765                      .dwattr $C$DW$248, DW_AT_data_member_location[DW_OP_plus_uconst 0x29]
    1766                      .dwattr $C$DW$248, DW_AT_accessibility(DW_ACCESS_public)
    1767              $C$DW$249       .dwtag  DW_TAG_member
    1768                      .dwattr $C$DW$249, DW_AT_type(*$C$DW$T$22)
    1769                      .dwattr $C$DW$249, DW_AT_name("RSVD10")
    1770                      .dwattr $C$DW$249, DW_AT_TI_symbol_name("_RSVD10")
    1771                      .dwattr $C$DW$249, DW_AT_data_member_location[DW_OP_plus_uconst 0x2a]
    1772                      .dwattr $C$DW$249, DW_AT_accessibility(DW_ACCESS_public)
    1773              $C$DW$250       .dwtag  DW_TAG_member
    1774                      .dwattr $C$DW$250, DW_AT_type(*$C$DW$T$20)
    1775                      .dwattr $C$DW$250, DW_AT_name("MMCDXR1")
    1776                      .dwattr $C$DW$250, DW_AT_TI_symbol_name("_MMCDXR1")
    1777                      .dwattr $C$DW$250, DW_AT_data_member_location[DW_OP_plus_uconst 0x2c]
    1778                      .dwattr $C$DW$250, DW_AT_accessibility(DW_ACCESS_public)
    1779              $C$DW$251       .dwtag  DW_TAG_member
    1780                      .dwattr $C$DW$251, DW_AT_type(*$C$DW$T$20)
    1781                      .dwattr $C$DW$251, DW_AT_name("MMCDXR2")
    1782                      .dwattr $C$DW$251, DW_AT_TI_symbol_name("_MMCDXR2")
    1783                      .dwattr $C$DW$251, DW_AT_data_member_location[DW_OP_plus_uconst 0x2d]
    1784                      .dwattr $C$DW$251, DW_AT_accessibility(DW_ACCESS_public)
    1785              $C$DW$252       .dwtag  DW_TAG_member
    1786                      .dwattr $C$DW$252, DW_AT_type(*$C$DW$T$22)
    1787                      .dwattr $C$DW$252, DW_AT_name("RSVD11")
    1788                      .dwattr $C$DW$252, DW_AT_TI_symbol_name("_RSVD11")
    1789                      .dwattr $C$DW$252, DW_AT_data_member_location[DW_OP_plus_uconst 0x2e]
    1790                      .dwattr $C$DW$252, DW_AT_accessibility(DW_ACCESS_public)
    1791              $C$DW$253       .dwtag  DW_TAG_member
    1792                      .dwattr $C$DW$253, DW_AT_type(*$C$DW$T$20)
    1793                      .dwattr $C$DW$253, DW_AT_name("MMCCMD1")
    1794                      .dwattr $C$DW$253, DW_AT_TI_symbol_name("_MMCCMD1")
    1795                      .dwattr $C$DW$253, DW_AT_data_member_location[DW_OP_plus_uconst 0x30]
    1796                      .dwattr $C$DW$253, DW_AT_accessibility(DW_ACCESS_public)
    1797              $C$DW$254       .dwtag  DW_TAG_member
    1798                      .dwattr $C$DW$254, DW_AT_type(*$C$DW$T$20)
    1799                      .dwattr $C$DW$254, DW_AT_name("MMCCMD2")
    1800                      .dwattr $C$DW$254, DW_AT_TI_symbol_name("_MMCCMD2")
    1801                      .dwattr $C$DW$254, DW_AT_data_member_location[DW_OP_plus_uconst 0x31]
    1802                      .dwattr $C$DW$254, DW_AT_accessibility(DW_ACCESS_public)
    1803              $C$DW$255       .dwtag  DW_TAG_member
    1804                      .dwattr $C$DW$255, DW_AT_type(*$C$DW$T$22)
    1805                      .dwattr $C$DW$255, DW_AT_name("RSVD12")
    1806                      .dwattr $C$DW$255, DW_AT_TI_symbol_name("_RSVD12")
TMS320C55x Assembler PC v4.4.1 Sat Sep 15 12:23:51 2018

Tools Copyright (c) 1996-2012 Texas Instruments Incorporated
ezdsp5535_sdcard.asm                                                 PAGE   55

    1807                      .dwattr $C$DW$255, DW_AT_data_member_location[DW_OP_plus_uconst 0x32]
    1808                      .dwattr $C$DW$255, DW_AT_accessibility(DW_ACCESS_public)
    1809              $C$DW$256       .dwtag  DW_TAG_member
    1810                      .dwattr $C$DW$256, DW_AT_type(*$C$DW$T$20)
    1811                      .dwattr $C$DW$256, DW_AT_name("MMCARG1")
    1812                      .dwattr $C$DW$256, DW_AT_TI_symbol_name("_MMCARG1")
    1813                      .dwattr $C$DW$256, DW_AT_data_member_location[DW_OP_plus_uconst 0x34]
    1814                      .dwattr $C$DW$256, DW_AT_accessibility(DW_ACCESS_public)
    1815              $C$DW$257       .dwtag  DW_TAG_member
    1816                      .dwattr $C$DW$257, DW_AT_type(*$C$DW$T$20)
    1817                      .dwattr $C$DW$257, DW_AT_name("MMCARG2")
    1818                      .dwattr $C$DW$257, DW_AT_TI_symbol_name("_MMCARG2")
    1819                      .dwattr $C$DW$257, DW_AT_data_member_location[DW_OP_plus_uconst 0x35]
    1820                      .dwattr $C$DW$257, DW_AT_accessibility(DW_ACCESS_public)
    1821              $C$DW$258       .dwtag  DW_TAG_member
    1822                      .dwattr $C$DW$258, DW_AT_type(*$C$DW$T$22)
    1823                      .dwattr $C$DW$258, DW_AT_name("RSVD13")
    1824                      .dwattr $C$DW$258, DW_AT_TI_symbol_name("_RSVD13")
    1825                      .dwattr $C$DW$258, DW_AT_data_member_location[DW_OP_plus_uconst 0x36]
    1826                      .dwattr $C$DW$258, DW_AT_accessibility(DW_ACCESS_public)
    1827              $C$DW$259       .dwtag  DW_TAG_member
    1828                      .dwattr $C$DW$259, DW_AT_type(*$C$DW$T$20)
    1829                      .dwattr $C$DW$259, DW_AT_name("MMCRSP0")
    1830                      .dwattr $C$DW$259, DW_AT_TI_symbol_name("_MMCRSP0")
    1831                      .dwattr $C$DW$259, DW_AT_data_member_location[DW_OP_plus_uconst 0x38]
    1832                      .dwattr $C$DW$259, DW_AT_accessibility(DW_ACCESS_public)
    1833              $C$DW$260       .dwtag  DW_TAG_member
    1834                      .dwattr $C$DW$260, DW_AT_type(*$C$DW$T$20)
    1835                      .dwattr $C$DW$260, DW_AT_name("MMCRSP1")
    1836                      .dwattr $C$DW$260, DW_AT_TI_symbol_name("_MMCRSP1")
    1837                      .dwattr $C$DW$260, DW_AT_data_member_location[DW_OP_plus_uconst 0x39]
    1838                      .dwattr $C$DW$260, DW_AT_accessibility(DW_ACCESS_public)
    1839              $C$DW$261       .dwtag  DW_TAG_member
    1840                      .dwattr $C$DW$261, DW_AT_type(*$C$DW$T$22)
    1841                      .dwattr $C$DW$261, DW_AT_name("RSVD14")
    1842                      .dwattr $C$DW$261, DW_AT_TI_symbol_name("_RSVD14")
    1843                      .dwattr $C$DW$261, DW_AT_data_member_location[DW_OP_plus_uconst 0x3a]
    1844                      .dwattr $C$DW$261, DW_AT_accessibility(DW_ACCESS_public)
    1845              $C$DW$262       .dwtag  DW_TAG_member
    1846                      .dwattr $C$DW$262, DW_AT_type(*$C$DW$T$20)
    1847                      .dwattr $C$DW$262, DW_AT_name("MMCRSP2")
    1848                      .dwattr $C$DW$262, DW_AT_TI_symbol_name("_MMCRSP2")
    1849                      .dwattr $C$DW$262, DW_AT_data_member_location[DW_OP_plus_uconst 0x3c]
    1850                      .dwattr $C$DW$262, DW_AT_accessibility(DW_ACCESS_public)
    1851              $C$DW$263       .dwtag  DW_TAG_member
    1852                      .dwattr $C$DW$263, DW_AT_type(*$C$DW$T$20)
    1853                      .dwattr $C$DW$263, DW_AT_name("MMCRSP3")
    1854                      .dwattr $C$DW$263, DW_AT_TI_symbol_name("_MMCRSP3")
    1855                      .dwattr $C$DW$263, DW_AT_data_member_location[DW_OP_plus_uconst 0x3d]
    1856                      .dwattr $C$DW$263, DW_AT_accessibility(DW_ACCESS_public)
    1857              $C$DW$264       .dwtag  DW_TAG_member
    1858                      .dwattr $C$DW$264, DW_AT_type(*$C$DW$T$22)
    1859                      .dwattr $C$DW$264, DW_AT_name("RSVD15")
    1860                      .dwattr $C$DW$264, DW_AT_TI_symbol_name("_RSVD15")
    1861                      .dwattr $C$DW$264, DW_AT_data_member_location[DW_OP_plus_uconst 0x3e]
TMS320C55x Assembler PC v4.4.1 Sat Sep 15 12:23:51 2018

Tools Copyright (c) 1996-2012 Texas Instruments Incorporated
ezdsp5535_sdcard.asm                                                 PAGE   56

    1862                      .dwattr $C$DW$264, DW_AT_accessibility(DW_ACCESS_public)
    1863              $C$DW$265       .dwtag  DW_TAG_member
    1864                      .dwattr $C$DW$265, DW_AT_type(*$C$DW$T$20)
    1865                      .dwattr $C$DW$265, DW_AT_name("MMCRSP4")
    1866                      .dwattr $C$DW$265, DW_AT_TI_symbol_name("_MMCRSP4")
    1867                      .dwattr $C$DW$265, DW_AT_data_member_location[DW_OP_plus_uconst 0x40]
    1868                      .dwattr $C$DW$265, DW_AT_accessibility(DW_ACCESS_public)
    1869              $C$DW$266       .dwtag  DW_TAG_member
    1870                      .dwattr $C$DW$266, DW_AT_type(*$C$DW$T$20)
    1871                      .dwattr $C$DW$266, DW_AT_name("MMCRSP5")
    1872                      .dwattr $C$DW$266, DW_AT_TI_symbol_name("_MMCRSP5")
    1873                      .dwattr $C$DW$266, DW_AT_data_member_location[DW_OP_plus_uconst 0x41]
    1874                      .dwattr $C$DW$266, DW_AT_accessibility(DW_ACCESS_public)
    1875              $C$DW$267       .dwtag  DW_TAG_member
    1876                      .dwattr $C$DW$267, DW_AT_type(*$C$DW$T$22)
    1877                      .dwattr $C$DW$267, DW_AT_name("RSVD16")
    1878                      .dwattr $C$DW$267, DW_AT_TI_symbol_name("_RSVD16")
    1879                      .dwattr $C$DW$267, DW_AT_data_member_location[DW_OP_plus_uconst 0x42]
    1880                      .dwattr $C$DW$267, DW_AT_accessibility(DW_ACCESS_public)
    1881              $C$DW$268       .dwtag  DW_TAG_member
    1882                      .dwattr $C$DW$268, DW_AT_type(*$C$DW$T$20)
    1883                      .dwattr $C$DW$268, DW_AT_name("MMCRSP6")
    1884                      .dwattr $C$DW$268, DW_AT_TI_symbol_name("_MMCRSP6")
    1885                      .dwattr $C$DW$268, DW_AT_data_member_location[DW_OP_plus_uconst 0x44]
    1886                      .dwattr $C$DW$268, DW_AT_accessibility(DW_ACCESS_public)
    1887              $C$DW$269       .dwtag  DW_TAG_member
    1888                      .dwattr $C$DW$269, DW_AT_type(*$C$DW$T$20)
    1889                      .dwattr $C$DW$269, DW_AT_name("MMCRSP7")
    1890                      .dwattr $C$DW$269, DW_AT_TI_symbol_name("_MMCRSP7")
    1891                      .dwattr $C$DW$269, DW_AT_data_member_location[DW_OP_plus_uconst 0x45]
    1892                      .dwattr $C$DW$269, DW_AT_accessibility(DW_ACCESS_public)
    1893              $C$DW$270       .dwtag  DW_TAG_member
    1894                      .dwattr $C$DW$270, DW_AT_type(*$C$DW$T$22)
    1895                      .dwattr $C$DW$270, DW_AT_name("RSVD17")
    1896                      .dwattr $C$DW$270, DW_AT_TI_symbol_name("_RSVD17")
    1897                      .dwattr $C$DW$270, DW_AT_data_member_location[DW_OP_plus_uconst 0x46]
    1898                      .dwattr $C$DW$270, DW_AT_accessibility(DW_ACCESS_public)
    1899              $C$DW$271       .dwtag  DW_TAG_member
    1900                      .dwattr $C$DW$271, DW_AT_type(*$C$DW$T$20)
    1901                      .dwattr $C$DW$271, DW_AT_name("MMCDRSP")
    1902                      .dwattr $C$DW$271, DW_AT_TI_symbol_name("_MMCDRSP")
    1903                      .dwattr $C$DW$271, DW_AT_data_member_location[DW_OP_plus_uconst 0x48]
    1904                      .dwattr $C$DW$271, DW_AT_accessibility(DW_ACCESS_public)
    1905              $C$DW$272       .dwtag  DW_TAG_member
    1906                      .dwattr $C$DW$272, DW_AT_type(*$C$DW$T$23)
    1907                      .dwattr $C$DW$272, DW_AT_name("RSVD18")
    1908                      .dwattr $C$DW$272, DW_AT_TI_symbol_name("_RSVD18")
    1909                      .dwattr $C$DW$272, DW_AT_data_member_location[DW_OP_plus_uconst 0x49]
    1910                      .dwattr $C$DW$272, DW_AT_accessibility(DW_ACCESS_public)
    1911              $C$DW$273       .dwtag  DW_TAG_member
    1912                      .dwattr $C$DW$273, DW_AT_type(*$C$DW$T$20)
    1913                      .dwattr $C$DW$273, DW_AT_name("MMCCIDX")
    1914                      .dwattr $C$DW$273, DW_AT_TI_symbol_name("_MMCCIDX")
    1915                      .dwattr $C$DW$273, DW_AT_data_member_location[DW_OP_plus_uconst 0x50]
    1916                      .dwattr $C$DW$273, DW_AT_accessibility(DW_ACCESS_public)
TMS320C55x Assembler PC v4.4.1 Sat Sep 15 12:23:51 2018

Tools Copyright (c) 1996-2012 Texas Instruments Incorporated
ezdsp5535_sdcard.asm                                                 PAGE   57

    1917              $C$DW$274       .dwtag  DW_TAG_member
    1918                      .dwattr $C$DW$274, DW_AT_type(*$C$DW$T$24)
    1919                      .dwattr $C$DW$274, DW_AT_name("RSVD19")
    1920                      .dwattr $C$DW$274, DW_AT_TI_symbol_name("_RSVD19")
    1921                      .dwattr $C$DW$274, DW_AT_data_member_location[DW_OP_plus_uconst 0x51]
    1922                      .dwattr $C$DW$274, DW_AT_accessibility(DW_ACCESS_public)
    1923              $C$DW$275       .dwtag  DW_TAG_member
    1924                      .dwattr $C$DW$275, DW_AT_type(*$C$DW$T$20)
    1925                      .dwattr $C$DW$275, DW_AT_name("SDIOCTL")
    1926                      .dwattr $C$DW$275, DW_AT_TI_symbol_name("_SDIOCTL")
    1927                      .dwattr $C$DW$275, DW_AT_data_member_location[DW_OP_plus_uconst 0x64]
    1928                      .dwattr $C$DW$275, DW_AT_accessibility(DW_ACCESS_public)
    1929              $C$DW$276       .dwtag  DW_TAG_member
    1930                      .dwattr $C$DW$276, DW_AT_type(*$C$DW$T$21)
    1931                      .dwattr $C$DW$276, DW_AT_name("RSVD20")
    1932                      .dwattr $C$DW$276, DW_AT_TI_symbol_name("_RSVD20")
    1933                      .dwattr $C$DW$276, DW_AT_data_member_location[DW_OP_plus_uconst 0x65]
    1934                      .dwattr $C$DW$276, DW_AT_accessibility(DW_ACCESS_public)
    1935              $C$DW$277       .dwtag  DW_TAG_member
    1936                      .dwattr $C$DW$277, DW_AT_type(*$C$DW$T$20)
    1937                      .dwattr $C$DW$277, DW_AT_name("SDIOST0")
    1938                      .dwattr $C$DW$277, DW_AT_TI_symbol_name("_SDIOST0")
    1939                      .dwattr $C$DW$277, DW_AT_data_member_location[DW_OP_plus_uconst 0x68]
    1940                      .dwattr $C$DW$277, DW_AT_accessibility(DW_ACCESS_public)
    1941              $C$DW$278       .dwtag  DW_TAG_member
    1942                      .dwattr $C$DW$278, DW_AT_type(*$C$DW$T$21)
    1943                      .dwattr $C$DW$278, DW_AT_name("RSVD21")
    1944                      .dwattr $C$DW$278, DW_AT_TI_symbol_name("_RSVD21")
    1945                      .dwattr $C$DW$278, DW_AT_data_member_location[DW_OP_plus_uconst 0x69]
    1946                      .dwattr $C$DW$278, DW_AT_accessibility(DW_ACCESS_public)
    1947              $C$DW$279       .dwtag  DW_TAG_member
    1948                      .dwattr $C$DW$279, DW_AT_type(*$C$DW$T$20)
    1949                      .dwattr $C$DW$279, DW_AT_name("SDIOIEN")
    1950                      .dwattr $C$DW$279, DW_AT_TI_symbol_name("_SDIOIEN")
    1951                      .dwattr $C$DW$279, DW_AT_data_member_location[DW_OP_plus_uconst 0x6c]
    1952                      .dwattr $C$DW$279, DW_AT_accessibility(DW_ACCESS_public)
    1953              $C$DW$280       .dwtag  DW_TAG_member
    1954                      .dwattr $C$DW$280, DW_AT_type(*$C$DW$T$21)
    1955                      .dwattr $C$DW$280, DW_AT_name("RSVD22")
    1956                      .dwattr $C$DW$280, DW_AT_TI_symbol_name("_RSVD22")
    1957                      .dwattr $C$DW$280, DW_AT_data_member_location[DW_OP_plus_uconst 0x6d]
    1958                      .dwattr $C$DW$280, DW_AT_accessibility(DW_ACCESS_public)
    1959              $C$DW$281       .dwtag  DW_TAG_member
    1960                      .dwattr $C$DW$281, DW_AT_type(*$C$DW$T$20)
    1961                      .dwattr $C$DW$281, DW_AT_name("SDIOIST")
    1962                      .dwattr $C$DW$281, DW_AT_TI_symbol_name("_SDIOIST")
    1963                      .dwattr $C$DW$281, DW_AT_data_member_location[DW_OP_plus_uconst 0x70]
    1964                      .dwattr $C$DW$281, DW_AT_accessibility(DW_ACCESS_public)
    1965              $C$DW$282       .dwtag  DW_TAG_member
    1966                      .dwattr $C$DW$282, DW_AT_type(*$C$DW$T$21)
    1967                      .dwattr $C$DW$282, DW_AT_name("RSVD23")
    1968                      .dwattr $C$DW$282, DW_AT_TI_symbol_name("_RSVD23")
    1969                      .dwattr $C$DW$282, DW_AT_data_member_location[DW_OP_plus_uconst 0x71]
    1970                      .dwattr $C$DW$282, DW_AT_accessibility(DW_ACCESS_public)
    1971              $C$DW$283       .dwtag  DW_TAG_member
TMS320C55x Assembler PC v4.4.1 Sat Sep 15 12:23:51 2018

Tools Copyright (c) 1996-2012 Texas Instruments Incorporated
ezdsp5535_sdcard.asm                                                 PAGE   58

    1972                      .dwattr $C$DW$283, DW_AT_type(*$C$DW$T$20)
    1973                      .dwattr $C$DW$283, DW_AT_name("MMCFIFOCTL")
    1974                      .dwattr $C$DW$283, DW_AT_TI_symbol_name("_MMCFIFOCTL")
    1975                      .dwattr $C$DW$283, DW_AT_data_member_location[DW_OP_plus_uconst 0x74]
    1976                      .dwattr $C$DW$283, DW_AT_accessibility(DW_ACCESS_public)
    1977                      .dwendtag $C$DW$T$25
    1978              
    1979              $C$DW$T$77      .dwtag  DW_TAG_typedef, DW_AT_name("CSL_MmcsdRegs")
    1980                      .dwattr $C$DW$T$77, DW_AT_type(*$C$DW$T$25)
    1981                      .dwattr $C$DW$T$77, DW_AT_language(DW_LANG_C)
    1982              $C$DW$284       .dwtag  DW_TAG_TI_far_type
    1983                      .dwattr $C$DW$284, DW_AT_type(*$C$DW$T$77)
    1984              $C$DW$285       .dwtag  DW_TAG_TI_ioport_type
    1985                      .dwattr $C$DW$285, DW_AT_type(*$C$DW$284)
    1986              $C$DW$T$78      .dwtag  DW_TAG_volatile_type
    1987                      .dwattr $C$DW$T$78, DW_AT_type(*$C$DW$285)
    1988              $C$DW$T$79      .dwtag  DW_TAG_pointer_type
    1989                      .dwattr $C$DW$T$79, DW_AT_type(*$C$DW$T$78)
    1990                      .dwattr $C$DW$T$79, DW_AT_address_class(0x10)
    1991              $C$DW$T$80      .dwtag  DW_TAG_typedef, DW_AT_name("CSL_MmcsdRegsOvly")
    1992                      .dwattr $C$DW$T$80, DW_AT_type(*$C$DW$T$79)
    1993                      .dwattr $C$DW$T$80, DW_AT_language(DW_LANG_C)
    1994              
    1995              $C$DW$T$29      .dwtag  DW_TAG_structure_type
    1996                      .dwattr $C$DW$T$29, DW_AT_byte_size(0x10)
    1997              $C$DW$286       .dwtag  DW_TAG_member
    1998                      .dwattr $C$DW$286, DW_AT_type(*$C$DW$T$19)
    1999                      .dwattr $C$DW$286, DW_AT_name("mfgId")
    2000                      .dwattr $C$DW$286, DW_AT_TI_symbol_name("_mfgId")
    2001                      .dwattr $C$DW$286, DW_AT_data_member_location[DW_OP_plus_uconst 0x0]
    2002                      .dwattr $C$DW$286, DW_AT_accessibility(DW_ACCESS_public)
    2003              $C$DW$287       .dwtag  DW_TAG_member
    2004                      .dwattr $C$DW$287, DW_AT_type(*$C$DW$T$19)
    2005                      .dwattr $C$DW$287, DW_AT_name("oemAppId")
    2006                      .dwattr $C$DW$287, DW_AT_TI_symbol_name("_oemAppId")
    2007                      .dwattr $C$DW$287, DW_AT_data_member_location[DW_OP_plus_uconst 0x1]
    2008                      .dwattr $C$DW$287, DW_AT_accessibility(DW_ACCESS_public)
    2009              $C$DW$288       .dwtag  DW_TAG_member
    2010                      .dwattr $C$DW$288, DW_AT_type(*$C$DW$T$27)
    2011                      .dwattr $C$DW$288, DW_AT_name("productName")
    2012                      .dwattr $C$DW$288, DW_AT_TI_symbol_name("_productName")
    2013                      .dwattr $C$DW$288, DW_AT_data_member_location[DW_OP_plus_uconst 0x2]
    2014                      .dwattr $C$DW$288, DW_AT_accessibility(DW_ACCESS_public)
    2015              $C$DW$289       .dwtag  DW_TAG_member
    2016                      .dwattr $C$DW$289, DW_AT_type(*$C$DW$T$19)
    2017                      .dwattr $C$DW$289, DW_AT_name("productRev")
    2018                      .dwattr $C$DW$289, DW_AT_TI_symbol_name("_productRev")
    2019                      .dwattr $C$DW$289, DW_AT_data_member_location[DW_OP_plus_uconst 0x8]
    2020                      .dwattr $C$DW$289, DW_AT_accessibility(DW_ACCESS_public)
    2021              $C$DW$290       .dwtag  DW_TAG_member
    2022                      .dwattr $C$DW$290, DW_AT_type(*$C$DW$T$28)
    2023                      .dwattr $C$DW$290, DW_AT_name("serialNumber")
    2024                      .dwattr $C$DW$290, DW_AT_TI_symbol_name("_serialNumber")
    2025                      .dwattr $C$DW$290, DW_AT_data_member_location[DW_OP_plus_uconst 0xa]
    2026                      .dwattr $C$DW$290, DW_AT_accessibility(DW_ACCESS_public)
TMS320C55x Assembler PC v4.4.1 Sat Sep 15 12:23:51 2018

Tools Copyright (c) 1996-2012 Texas Instruments Incorporated
ezdsp5535_sdcard.asm                                                 PAGE   59

    2027              $C$DW$291       .dwtag  DW_TAG_member
    2028                      .dwattr $C$DW$291, DW_AT_type(*$C$DW$T$19)
    2029                      .dwattr $C$DW$291, DW_AT_name("month")
    2030                      .dwattr $C$DW$291, DW_AT_TI_symbol_name("_month")
    2031                      .dwattr $C$DW$291, DW_AT_data_member_location[DW_OP_plus_uconst 0xc]
    2032                      .dwattr $C$DW$291, DW_AT_accessibility(DW_ACCESS_public)
    2033              $C$DW$292       .dwtag  DW_TAG_member
    2034                      .dwattr $C$DW$292, DW_AT_type(*$C$DW$T$19)
    2035                      .dwattr $C$DW$292, DW_AT_name("year")
    2036                      .dwattr $C$DW$292, DW_AT_TI_symbol_name("_year")
    2037                      .dwattr $C$DW$292, DW_AT_data_member_location[DW_OP_plus_uconst 0xd]
    2038                      .dwattr $C$DW$292, DW_AT_accessibility(DW_ACCESS_public)
    2039              $C$DW$293       .dwtag  DW_TAG_member
    2040                      .dwattr $C$DW$293, DW_AT_type(*$C$DW$T$19)
    2041                      .dwattr $C$DW$293, DW_AT_name("checksum")
    2042                      .dwattr $C$DW$293, DW_AT_TI_symbol_name("_checksum")
    2043                      .dwattr $C$DW$293, DW_AT_data_member_location[DW_OP_plus_uconst 0xe]
    2044                      .dwattr $C$DW$293, DW_AT_accessibility(DW_ACCESS_public)
    2045                      .dwendtag $C$DW$T$29
    2046              
    2047              $C$DW$T$34      .dwtag  DW_TAG_typedef, DW_AT_name("CSL_MMCCardIdObj")
    2048                      .dwattr $C$DW$T$34, DW_AT_type(*$C$DW$T$29)
    2049                      .dwattr $C$DW$T$34, DW_AT_language(DW_LANG_C)
    2050              $C$DW$T$35      .dwtag  DW_TAG_pointer_type
    2051                      .dwattr $C$DW$T$35, DW_AT_type(*$C$DW$T$34)
    2052                      .dwattr $C$DW$T$35, DW_AT_address_class(0x17)
    2053              
    2054              $C$DW$T$30      .dwtag  DW_TAG_structure_type
    2055                      .dwattr $C$DW$T$30, DW_AT_byte_size(0x22)
    2056              $C$DW$294       .dwtag  DW_TAG_member
    2057                      .dwattr $C$DW$294, DW_AT_type(*$C$DW$T$19)
    2058                      .dwattr $C$DW$294, DW_AT_name("csdStruct")
    2059                      .dwattr $C$DW$294, DW_AT_TI_symbol_name("_csdStruct")
    2060                      .dwattr $C$DW$294, DW_AT_data_member_location[DW_OP_plus_uconst 0x0]
    2061                      .dwattr $C$DW$294, DW_AT_accessibility(DW_ACCESS_public)
    2062              $C$DW$295       .dwtag  DW_TAG_member
    2063                      .dwattr $C$DW$295, DW_AT_type(*$C$DW$T$19)
    2064                      .dwattr $C$DW$295, DW_AT_name("mmcProt")
    2065                      .dwattr $C$DW$295, DW_AT_TI_symbol_name("_mmcProt")
    2066                      .dwattr $C$DW$295, DW_AT_data_member_location[DW_OP_plus_uconst 0x1]
    2067                      .dwattr $C$DW$295, DW_AT_accessibility(DW_ACCESS_public)
    2068              $C$DW$296       .dwtag  DW_TAG_member
    2069                      .dwattr $C$DW$296, DW_AT_type(*$C$DW$T$19)
    2070                      .dwattr $C$DW$296, DW_AT_name("taac")
    2071                      .dwattr $C$DW$296, DW_AT_TI_symbol_name("_taac")
    2072                      .dwattr $C$DW$296, DW_AT_data_member_location[DW_OP_plus_uconst 0x2]
    2073                      .dwattr $C$DW$296, DW_AT_accessibility(DW_ACCESS_public)
    2074              $C$DW$297       .dwtag  DW_TAG_member
    2075                      .dwattr $C$DW$297, DW_AT_type(*$C$DW$T$19)
    2076                      .dwattr $C$DW$297, DW_AT_name("nsac")
    2077                      .dwattr $C$DW$297, DW_AT_TI_symbol_name("_nsac")
    2078                      .dwattr $C$DW$297, DW_AT_data_member_location[DW_OP_plus_uconst 0x3]
    2079                      .dwattr $C$DW$297, DW_AT_accessibility(DW_ACCESS_public)
    2080              $C$DW$298       .dwtag  DW_TAG_member
    2081                      .dwattr $C$DW$298, DW_AT_type(*$C$DW$T$19)
TMS320C55x Assembler PC v4.4.1 Sat Sep 15 12:23:51 2018

Tools Copyright (c) 1996-2012 Texas Instruments Incorporated
ezdsp5535_sdcard.asm                                                 PAGE   60

    2082                      .dwattr $C$DW$298, DW_AT_name("tranSpeed")
    2083                      .dwattr $C$DW$298, DW_AT_TI_symbol_name("_tranSpeed")
    2084                      .dwattr $C$DW$298, DW_AT_data_member_location[DW_OP_plus_uconst 0x4]
    2085                      .dwattr $C$DW$298, DW_AT_accessibility(DW_ACCESS_public)
    2086              $C$DW$299       .dwtag  DW_TAG_member
    2087                      .dwattr $C$DW$299, DW_AT_type(*$C$DW$T$19)
    2088                      .dwattr $C$DW$299, DW_AT_name("ccc")
    2089                      .dwattr $C$DW$299, DW_AT_TI_symbol_name("_ccc")
    2090                      .dwattr $C$DW$299, DW_AT_data_member_location[DW_OP_plus_uconst 0x5]
    2091                      .dwattr $C$DW$299, DW_AT_accessibility(DW_ACCESS_public)
    2092              $C$DW$300       .dwtag  DW_TAG_member
    2093                      .dwattr $C$DW$300, DW_AT_type(*$C$DW$T$19)
    2094                      .dwattr $C$DW$300, DW_AT_name("readBlLen")
    2095                      .dwattr $C$DW$300, DW_AT_TI_symbol_name("_readBlLen")
    2096                      .dwattr $C$DW$300, DW_AT_data_member_location[DW_OP_plus_uconst 0x6]
    2097                      .dwattr $C$DW$300, DW_AT_accessibility(DW_ACCESS_public)
    2098              $C$DW$301       .dwtag  DW_TAG_member
    2099                      .dwattr $C$DW$301, DW_AT_type(*$C$DW$T$19)
    2100                      .dwattr $C$DW$301, DW_AT_name("readBlPartial")
    2101                      .dwattr $C$DW$301, DW_AT_TI_symbol_name("_readBlPartial")
    2102                      .dwattr $C$DW$301, DW_AT_data_member_location[DW_OP_plus_uconst 0x7]
    2103                      .dwattr $C$DW$301, DW_AT_accessibility(DW_ACCESS_public)
    2104              $C$DW$302       .dwtag  DW_TAG_member
    2105                      .dwattr $C$DW$302, DW_AT_type(*$C$DW$T$19)
    2106                      .dwattr $C$DW$302, DW_AT_name("writeBlkMisalign")
    2107                      .dwattr $C$DW$302, DW_AT_TI_symbol_name("_writeBlkMisalign")
    2108                      .dwattr $C$DW$302, DW_AT_data_member_location[DW_OP_plus_uconst 0x8]
    2109                      .dwattr $C$DW$302, DW_AT_accessibility(DW_ACCESS_public)
    2110              $C$DW$303       .dwtag  DW_TAG_member
    2111                      .dwattr $C$DW$303, DW_AT_type(*$C$DW$T$19)
    2112                      .dwattr $C$DW$303, DW_AT_name("readBlkMisalign")
    2113                      .dwattr $C$DW$303, DW_AT_TI_symbol_name("_readBlkMisalign")
    2114                      .dwattr $C$DW$303, DW_AT_data_member_location[DW_OP_plus_uconst 0x9]
    2115                      .dwattr $C$DW$303, DW_AT_accessibility(DW_ACCESS_public)
    2116              $C$DW$304       .dwtag  DW_TAG_member
    2117                      .dwattr $C$DW$304, DW_AT_type(*$C$DW$T$19)
    2118                      .dwattr $C$DW$304, DW_AT_name("dsrImp")
    2119                      .dwattr $C$DW$304, DW_AT_TI_symbol_name("_dsrImp")
    2120                      .dwattr $C$DW$304, DW_AT_data_member_location[DW_OP_plus_uconst 0xa]
    2121                      .dwattr $C$DW$304, DW_AT_accessibility(DW_ACCESS_public)
    2122              $C$DW$305       .dwtag  DW_TAG_member
    2123                      .dwattr $C$DW$305, DW_AT_type(*$C$DW$T$19)
    2124                      .dwattr $C$DW$305, DW_AT_name("cSize")
    2125                      .dwattr $C$DW$305, DW_AT_TI_symbol_name("_cSize")
    2126                      .dwattr $C$DW$305, DW_AT_data_member_location[DW_OP_plus_uconst 0xb]
    2127                      .dwattr $C$DW$305, DW_AT_accessibility(DW_ACCESS_public)
    2128              $C$DW$306       .dwtag  DW_TAG_member
    2129                      .dwattr $C$DW$306, DW_AT_type(*$C$DW$T$19)
    2130                      .dwattr $C$DW$306, DW_AT_name("vddRCurrMin")
    2131                      .dwattr $C$DW$306, DW_AT_TI_symbol_name("_vddRCurrMin")
    2132                      .dwattr $C$DW$306, DW_AT_data_member_location[DW_OP_plus_uconst 0xc]
    2133                      .dwattr $C$DW$306, DW_AT_accessibility(DW_ACCESS_public)
    2134              $C$DW$307       .dwtag  DW_TAG_member
    2135                      .dwattr $C$DW$307, DW_AT_type(*$C$DW$T$19)
    2136                      .dwattr $C$DW$307, DW_AT_name("vddRCurrMax")
TMS320C55x Assembler PC v4.4.1 Sat Sep 15 12:23:51 2018

Tools Copyright (c) 1996-2012 Texas Instruments Incorporated
ezdsp5535_sdcard.asm                                                 PAGE   61

    2137                      .dwattr $C$DW$307, DW_AT_TI_symbol_name("_vddRCurrMax")
    2138                      .dwattr $C$DW$307, DW_AT_data_member_location[DW_OP_plus_uconst 0xd]
    2139                      .dwattr $C$DW$307, DW_AT_accessibility(DW_ACCESS_public)
    2140              $C$DW$308       .dwtag  DW_TAG_member
    2141                      .dwattr $C$DW$308, DW_AT_type(*$C$DW$T$19)
    2142                      .dwattr $C$DW$308, DW_AT_name("vddWCurrMin")
    2143                      .dwattr $C$DW$308, DW_AT_TI_symbol_name("_vddWCurrMin")
    2144                      .dwattr $C$DW$308, DW_AT_data_member_location[DW_OP_plus_uconst 0xe]
    2145                      .dwattr $C$DW$308, DW_AT_accessibility(DW_ACCESS_public)
    2146              $C$DW$309       .dwtag  DW_TAG_member
    2147                      .dwattr $C$DW$309, DW_AT_type(*$C$DW$T$19)
    2148                      .dwattr $C$DW$309, DW_AT_name("vddWCurrMax")
    2149                      .dwattr $C$DW$309, DW_AT_TI_symbol_name("_vddWCurrMax")
    2150                      .dwattr $C$DW$309, DW_AT_data_member_location[DW_OP_plus_uconst 0xf]
    2151                      .dwattr $C$DW$309, DW_AT_accessibility(DW_ACCESS_public)
    2152              $C$DW$310       .dwtag  DW_TAG_member
    2153                      .dwattr $C$DW$310, DW_AT_type(*$C$DW$T$19)
    2154                      .dwattr $C$DW$310, DW_AT_name("cSizeMult")
    2155                      .dwattr $C$DW$310, DW_AT_TI_symbol_name("_cSizeMult")
    2156                      .dwattr $C$DW$310, DW_AT_data_member_location[DW_OP_plus_uconst 0x10]
    2157                      .dwattr $C$DW$310, DW_AT_accessibility(DW_ACCESS_public)
    2158              $C$DW$311       .dwtag  DW_TAG_member
    2159                      .dwattr $C$DW$311, DW_AT_type(*$C$DW$T$19)
    2160                      .dwattr $C$DW$311, DW_AT_name("eraseBlkEnable")
    2161                      .dwattr $C$DW$311, DW_AT_TI_symbol_name("_eraseBlkEnable")
    2162                      .dwattr $C$DW$311, DW_AT_data_member_location[DW_OP_plus_uconst 0x11]
    2163                      .dwattr $C$DW$311, DW_AT_accessibility(DW_ACCESS_public)
    2164              $C$DW$312       .dwtag  DW_TAG_member
    2165                      .dwattr $C$DW$312, DW_AT_type(*$C$DW$T$19)
    2166                      .dwattr $C$DW$312, DW_AT_name("eraseGrpSize")
    2167                      .dwattr $C$DW$312, DW_AT_TI_symbol_name("_eraseGrpSize")
    2168                      .dwattr $C$DW$312, DW_AT_data_member_location[DW_OP_plus_uconst 0x12]
    2169                      .dwattr $C$DW$312, DW_AT_accessibility(DW_ACCESS_public)
    2170              $C$DW$313       .dwtag  DW_TAG_member
    2171                      .dwattr $C$DW$313, DW_AT_type(*$C$DW$T$19)
    2172                      .dwattr $C$DW$313, DW_AT_name("eraseGrpMult")
    2173                      .dwattr $C$DW$313, DW_AT_TI_symbol_name("_eraseGrpMult")
    2174                      .dwattr $C$DW$313, DW_AT_data_member_location[DW_OP_plus_uconst 0x13]
    2175                      .dwattr $C$DW$313, DW_AT_accessibility(DW_ACCESS_public)
    2176              $C$DW$314       .dwtag  DW_TAG_member
    2177                      .dwattr $C$DW$314, DW_AT_type(*$C$DW$T$19)
    2178                      .dwattr $C$DW$314, DW_AT_name("wpGrpSize")
    2179                      .dwattr $C$DW$314, DW_AT_TI_symbol_name("_wpGrpSize")
    2180                      .dwattr $C$DW$314, DW_AT_data_member_location[DW_OP_plus_uconst 0x14]
    2181                      .dwattr $C$DW$314, DW_AT_accessibility(DW_ACCESS_public)
    2182              $C$DW$315       .dwtag  DW_TAG_member
    2183                      .dwattr $C$DW$315, DW_AT_type(*$C$DW$T$19)
    2184                      .dwattr $C$DW$315, DW_AT_name("wpGrpEnable")
    2185                      .dwattr $C$DW$315, DW_AT_TI_symbol_name("_wpGrpEnable")
    2186                      .dwattr $C$DW$315, DW_AT_data_member_location[DW_OP_plus_uconst 0x15]
    2187                      .dwattr $C$DW$315, DW_AT_accessibility(DW_ACCESS_public)
    2188              $C$DW$316       .dwtag  DW_TAG_member
    2189                      .dwattr $C$DW$316, DW_AT_type(*$C$DW$T$19)
    2190                      .dwattr $C$DW$316, DW_AT_name("defaultEcc")
    2191                      .dwattr $C$DW$316, DW_AT_TI_symbol_name("_defaultEcc")
TMS320C55x Assembler PC v4.4.1 Sat Sep 15 12:23:51 2018

Tools Copyright (c) 1996-2012 Texas Instruments Incorporated
ezdsp5535_sdcard.asm                                                 PAGE   62

    2192                      .dwattr $C$DW$316, DW_AT_data_member_location[DW_OP_plus_uconst 0x16]
    2193                      .dwattr $C$DW$316, DW_AT_accessibility(DW_ACCESS_public)
    2194              $C$DW$317       .dwtag  DW_TAG_member
    2195                      .dwattr $C$DW$317, DW_AT_type(*$C$DW$T$19)
    2196                      .dwattr $C$DW$317, DW_AT_name("r2wFactor")
    2197                      .dwattr $C$DW$317, DW_AT_TI_symbol_name("_r2wFactor")
    2198                      .dwattr $C$DW$317, DW_AT_data_member_location[DW_OP_plus_uconst 0x17]
    2199                      .dwattr $C$DW$317, DW_AT_accessibility(DW_ACCESS_public)
    2200              $C$DW$318       .dwtag  DW_TAG_member
    2201                      .dwattr $C$DW$318, DW_AT_type(*$C$DW$T$19)
    2202                      .dwattr $C$DW$318, DW_AT_name("writeBlLen")
    2203                      .dwattr $C$DW$318, DW_AT_TI_symbol_name("_writeBlLen")
    2204                      .dwattr $C$DW$318, DW_AT_data_member_location[DW_OP_plus_uconst 0x18]
    2205                      .dwattr $C$DW$318, DW_AT_accessibility(DW_ACCESS_public)
    2206              $C$DW$319       .dwtag  DW_TAG_member
    2207                      .dwattr $C$DW$319, DW_AT_type(*$C$DW$T$19)
    2208                      .dwattr $C$DW$319, DW_AT_name("writeBlPartial")
    2209                      .dwattr $C$DW$319, DW_AT_TI_symbol_name("_writeBlPartial")
    2210                      .dwattr $C$DW$319, DW_AT_data_member_location[DW_OP_plus_uconst 0x19]
    2211                      .dwattr $C$DW$319, DW_AT_accessibility(DW_ACCESS_public)
    2212              $C$DW$320       .dwtag  DW_TAG_member
    2213                      .dwattr $C$DW$320, DW_AT_type(*$C$DW$T$19)
    2214                      .dwattr $C$DW$320, DW_AT_name("contProtApp")
    2215                      .dwattr $C$DW$320, DW_AT_TI_symbol_name("_contProtApp")
    2216                      .dwattr $C$DW$320, DW_AT_data_member_location[DW_OP_plus_uconst 0x1a]
    2217                      .dwattr $C$DW$320, DW_AT_accessibility(DW_ACCESS_public)
    2218              $C$DW$321       .dwtag  DW_TAG_member
    2219                      .dwattr $C$DW$321, DW_AT_type(*$C$DW$T$19)
    2220                      .dwattr $C$DW$321, DW_AT_name("fileFmtGrp")
    2221                      .dwattr $C$DW$321, DW_AT_TI_symbol_name("_fileFmtGrp")
    2222                      .dwattr $C$DW$321, DW_AT_data_member_location[DW_OP_plus_uconst 0x1b]
    2223                      .dwattr $C$DW$321, DW_AT_accessibility(DW_ACCESS_public)
    2224              $C$DW$322       .dwtag  DW_TAG_member
    2225                      .dwattr $C$DW$322, DW_AT_type(*$C$DW$T$19)
    2226                      .dwattr $C$DW$322, DW_AT_name("copyFlag")
    2227                      .dwattr $C$DW$322, DW_AT_TI_symbol_name("_copyFlag")
    2228                      .dwattr $C$DW$322, DW_AT_data_member_location[DW_OP_plus_uconst 0x1c]
    2229                      .dwattr $C$DW$322, DW_AT_accessibility(DW_ACCESS_public)
    2230              $C$DW$323       .dwtag  DW_TAG_member
    2231                      .dwattr $C$DW$323, DW_AT_type(*$C$DW$T$19)
    2232                      .dwattr $C$DW$323, DW_AT_name("permWriteProtect")
    2233                      .dwattr $C$DW$323, DW_AT_TI_symbol_name("_permWriteProtect")
    2234                      .dwattr $C$DW$323, DW_AT_data_member_location[DW_OP_plus_uconst 0x1d]
    2235                      .dwattr $C$DW$323, DW_AT_accessibility(DW_ACCESS_public)
    2236              $C$DW$324       .dwtag  DW_TAG_member
    2237                      .dwattr $C$DW$324, DW_AT_type(*$C$DW$T$19)
    2238                      .dwattr $C$DW$324, DW_AT_name("tmpWriteProtect")
    2239                      .dwattr $C$DW$324, DW_AT_TI_symbol_name("_tmpWriteProtect")
    2240                      .dwattr $C$DW$324, DW_AT_data_member_location[DW_OP_plus_uconst 0x1e]
    2241                      .dwattr $C$DW$324, DW_AT_accessibility(DW_ACCESS_public)
    2242              $C$DW$325       .dwtag  DW_TAG_member
    2243                      .dwattr $C$DW$325, DW_AT_type(*$C$DW$T$19)
    2244                      .dwattr $C$DW$325, DW_AT_name("fileFmt")
    2245                      .dwattr $C$DW$325, DW_AT_TI_symbol_name("_fileFmt")
    2246                      .dwattr $C$DW$325, DW_AT_data_member_location[DW_OP_plus_uconst 0x1f]
TMS320C55x Assembler PC v4.4.1 Sat Sep 15 12:23:51 2018

Tools Copyright (c) 1996-2012 Texas Instruments Incorporated
ezdsp5535_sdcard.asm                                                 PAGE   63

    2247                      .dwattr $C$DW$325, DW_AT_accessibility(DW_ACCESS_public)
    2248              $C$DW$326       .dwtag  DW_TAG_member
    2249                      .dwattr $C$DW$326, DW_AT_type(*$C$DW$T$19)
    2250                      .dwattr $C$DW$326, DW_AT_name("ecc")
    2251                      .dwattr $C$DW$326, DW_AT_TI_symbol_name("_ecc")
    2252                      .dwattr $C$DW$326, DW_AT_data_member_location[DW_OP_plus_uconst 0x20]
    2253                      .dwattr $C$DW$326, DW_AT_accessibility(DW_ACCESS_public)
    2254              $C$DW$327       .dwtag  DW_TAG_member
    2255                      .dwattr $C$DW$327, DW_AT_type(*$C$DW$T$19)
    2256                      .dwattr $C$DW$327, DW_AT_name("crc")
    2257                      .dwattr $C$DW$327, DW_AT_TI_symbol_name("_crc")
    2258                      .dwattr $C$DW$327, DW_AT_data_member_location[DW_OP_plus_uconst 0x21]
    2259                      .dwattr $C$DW$327, DW_AT_accessibility(DW_ACCESS_public)
    2260                      .dwendtag $C$DW$T$30
    2261              
    2262              $C$DW$T$36      .dwtag  DW_TAG_typedef, DW_AT_name("CSL_MMCCardCsdObj")
    2263                      .dwattr $C$DW$T$36, DW_AT_type(*$C$DW$T$30)
    2264                      .dwattr $C$DW$T$36, DW_AT_language(DW_LANG_C)
    2265              $C$DW$T$37      .dwtag  DW_TAG_pointer_type
    2266                      .dwattr $C$DW$T$37, DW_AT_type(*$C$DW$T$36)
    2267                      .dwattr $C$DW$T$37, DW_AT_address_class(0x17)
    2268              
    2269              $C$DW$T$31      .dwtag  DW_TAG_structure_type
    2270                      .dwattr $C$DW$T$31, DW_AT_byte_size(0x06)
    2271              $C$DW$328       .dwtag  DW_TAG_member
    2272                      .dwattr $C$DW$328, DW_AT_type(*$C$DW$T$19)
    2273                      .dwattr $C$DW$328, DW_AT_name("securitySysId")
    2274                      .dwattr $C$DW$328, DW_AT_TI_symbol_name("_securitySysId")
    2275                      .dwattr $C$DW$328, DW_AT_data_member_location[DW_OP_plus_uconst 0x0]
    2276                      .dwattr $C$DW$328, DW_AT_accessibility(DW_ACCESS_public)
    2277              $C$DW$329       .dwtag  DW_TAG_member
    2278                      .dwattr $C$DW$329, DW_AT_type(*$C$DW$T$19)
    2279                      .dwattr $C$DW$329, DW_AT_name("securitySysVers")
    2280                      .dwattr $C$DW$329, DW_AT_TI_symbol_name("_securitySysVers")
    2281                      .dwattr $C$DW$329, DW_AT_data_member_location[DW_OP_plus_uconst 0x1]
    2282                      .dwattr $C$DW$329, DW_AT_accessibility(DW_ACCESS_public)
    2283              $C$DW$330       .dwtag  DW_TAG_member
    2284                      .dwattr $C$DW$330, DW_AT_type(*$C$DW$T$19)
    2285                      .dwattr $C$DW$330, DW_AT_name("maxLicenses")
    2286                      .dwattr $C$DW$330, DW_AT_TI_symbol_name("_maxLicenses")
    2287                      .dwattr $C$DW$330, DW_AT_data_member_location[DW_OP_plus_uconst 0x2]
    2288                      .dwattr $C$DW$330, DW_AT_accessibility(DW_ACCESS_public)
    2289              $C$DW$331       .dwtag  DW_TAG_member
    2290                      .dwattr $C$DW$331, DW_AT_type(*$C$DW$T$28)
    2291                      .dwattr $C$DW$331, DW_AT_name("xStatus")
    2292                      .dwattr $C$DW$331, DW_AT_TI_symbol_name("_xStatus")
    2293                      .dwattr $C$DW$331, DW_AT_data_member_location[DW_OP_plus_uconst 0x4]
    2294                      .dwattr $C$DW$331, DW_AT_accessibility(DW_ACCESS_public)
    2295                      .dwendtag $C$DW$T$31
    2296              
    2297              $C$DW$T$38      .dwtag  DW_TAG_typedef, DW_AT_name("CSL_MMCCardXCsdObj")
    2298                      .dwattr $C$DW$T$38, DW_AT_type(*$C$DW$T$31)
    2299                      .dwattr $C$DW$T$38, DW_AT_language(DW_LANG_C)
    2300              $C$DW$T$39      .dwtag  DW_TAG_pointer_type
    2301                      .dwattr $C$DW$T$39, DW_AT_type(*$C$DW$T$38)
TMS320C55x Assembler PC v4.4.1 Sat Sep 15 12:23:51 2018

Tools Copyright (c) 1996-2012 Texas Instruments Incorporated
ezdsp5535_sdcard.asm                                                 PAGE   64

    2302                      .dwattr $C$DW$T$39, DW_AT_address_class(0x17)
    2303              
    2304              $C$DW$T$41      .dwtag  DW_TAG_structure_type
    2305                      .dwattr $C$DW$T$41, DW_AT_byte_size(0x1e)
    2306              $C$DW$332       .dwtag  DW_TAG_member
    2307                      .dwattr $C$DW$332, DW_AT_type(*$C$DW$T$19)
    2308                      .dwattr $C$DW$332, DW_AT_name("rca")
    2309                      .dwattr $C$DW$332, DW_AT_TI_symbol_name("_rca")
    2310                      .dwattr $C$DW$332, DW_AT_data_member_location[DW_OP_plus_uconst 0x0]
    2311                      .dwattr $C$DW$332, DW_AT_accessibility(DW_ACCESS_public)
    2312              $C$DW$333       .dwtag  DW_TAG_member
    2313                      .dwattr $C$DW$333, DW_AT_type(*$C$DW$T$19)
    2314                      .dwattr $C$DW$333, DW_AT_name("ST0")
    2315                      .dwattr $C$DW$333, DW_AT_TI_symbol_name("_ST0")
    2316                      .dwattr $C$DW$333, DW_AT_data_member_location[DW_OP_plus_uconst 0x1]
    2317                      .dwattr $C$DW$333, DW_AT_accessibility(DW_ACCESS_public)
    2318              $C$DW$334       .dwtag  DW_TAG_member
    2319                      .dwattr $C$DW$334, DW_AT_type(*$C$DW$T$19)
    2320                      .dwattr $C$DW$334, DW_AT_name("ST1")
    2321                      .dwattr $C$DW$334, DW_AT_TI_symbol_name("_ST1")
    2322                      .dwattr $C$DW$334, DW_AT_data_member_location[DW_OP_plus_uconst 0x2]
    2323                      .dwattr $C$DW$334, DW_AT_accessibility(DW_ACCESS_public)
    2324              $C$DW$335       .dwtag  DW_TAG_member
    2325                      .dwattr $C$DW$335, DW_AT_type(*$C$DW$T$19)
    2326                      .dwattr $C$DW$335, DW_AT_name("cardIndex")
    2327                      .dwattr $C$DW$335, DW_AT_TI_symbol_name("_cardIndex")
    2328                      .dwattr $C$DW$335, DW_AT_data_member_location[DW_OP_plus_uconst 0x3]
    2329                      .dwattr $C$DW$335, DW_AT_accessibility(DW_ACCESS_public)
    2330              $C$DW$336       .dwtag  DW_TAG_member
    2331                      .dwattr $C$DW$336, DW_AT_type(*$C$DW$T$28)
    2332                      .dwattr $C$DW$336, DW_AT_name("maxXfrRate")
    2333                      .dwattr $C$DW$336, DW_AT_TI_symbol_name("_maxXfrRate")
    2334                      .dwattr $C$DW$336, DW_AT_data_member_location[DW_OP_plus_uconst 0x4]
    2335                      .dwattr $C$DW$336, DW_AT_accessibility(DW_ACCESS_public)
    2336              $C$DW$337       .dwtag  DW_TAG_member
    2337                      .dwattr $C$DW$337, DW_AT_type(*$C$DW$T$28)
    2338                      .dwattr $C$DW$337, DW_AT_name("readAccessTime")
    2339                      .dwattr $C$DW$337, DW_AT_TI_symbol_name("_readAccessTime")
    2340                      .dwattr $C$DW$337, DW_AT_data_member_location[DW_OP_plus_uconst 0x6]
    2341                      .dwattr $C$DW$337, DW_AT_accessibility(DW_ACCESS_public)
    2342              $C$DW$338       .dwtag  DW_TAG_member
    2343                      .dwattr $C$DW$338, DW_AT_type(*$C$DW$T$28)
    2344                      .dwattr $C$DW$338, DW_AT_name("cardCapacity")
    2345                      .dwattr $C$DW$338, DW_AT_TI_symbol_name("_cardCapacity")
    2346                      .dwattr $C$DW$338, DW_AT_data_member_location[DW_OP_plus_uconst 0x8]
    2347                      .dwattr $C$DW$338, DW_AT_accessibility(DW_ACCESS_public)
    2348              $C$DW$339       .dwtag  DW_TAG_member
    2349                      .dwattr $C$DW$339, DW_AT_type(*$C$DW$T$28)
    2350                      .dwattr $C$DW$339, DW_AT_name("blockLength")
    2351                      .dwattr $C$DW$339, DW_AT_TI_symbol_name("_blockLength")
    2352                      .dwattr $C$DW$339, DW_AT_data_member_location[DW_OP_plus_uconst 0xa]
    2353                      .dwattr $C$DW$339, DW_AT_accessibility(DW_ACCESS_public)
    2354              $C$DW$340       .dwtag  DW_TAG_member
    2355                      .dwattr $C$DW$340, DW_AT_type(*$C$DW$T$28)
    2356                      .dwattr $C$DW$340, DW_AT_name("totalSectors")
TMS320C55x Assembler PC v4.4.1 Sat Sep 15 12:23:51 2018

Tools Copyright (c) 1996-2012 Texas Instruments Incorporated
ezdsp5535_sdcard.asm                                                 PAGE   65

    2357                      .dwattr $C$DW$340, DW_AT_TI_symbol_name("_totalSectors")
    2358                      .dwattr $C$DW$340, DW_AT_data_member_location[DW_OP_plus_uconst 0xc]
    2359                      .dwattr $C$DW$340, DW_AT_accessibility(DW_ACCESS_public)
    2360              $C$DW$341       .dwtag  DW_TAG_member
    2361                      .dwattr $C$DW$341, DW_AT_type(*$C$DW$T$28)
    2362                      .dwattr $C$DW$341, DW_AT_name("lastAddrRead")
    2363                      .dwattr $C$DW$341, DW_AT_TI_symbol_name("_lastAddrRead")
    2364                      .dwattr $C$DW$341, DW_AT_data_member_location[DW_OP_plus_uconst 0xe]
    2365                      .dwattr $C$DW$341, DW_AT_accessibility(DW_ACCESS_public)
    2366              $C$DW$342       .dwtag  DW_TAG_member
    2367                      .dwattr $C$DW$342, DW_AT_type(*$C$DW$T$28)
    2368                      .dwattr $C$DW$342, DW_AT_name("lastAddrWritten")
    2369                      .dwattr $C$DW$342, DW_AT_TI_symbol_name("_lastAddrWritten")
    2370                      .dwattr $C$DW$342, DW_AT_data_member_location[DW_OP_plus_uconst 0x10]
    2371                      .dwattr $C$DW$342, DW_AT_accessibility(DW_ACCESS_public)
    2372              $C$DW$343       .dwtag  DW_TAG_member
    2373                      .dwattr $C$DW$343, DW_AT_type(*$C$DW$T$33)
    2374                      .dwattr $C$DW$343, DW_AT_name("cardType")
    2375                      .dwattr $C$DW$343, DW_AT_TI_symbol_name("_cardType")
    2376                      .dwattr $C$DW$343, DW_AT_data_member_location[DW_OP_plus_uconst 0x12]
    2377                      .dwattr $C$DW$343, DW_AT_accessibility(DW_ACCESS_public)
    2378              $C$DW$344       .dwtag  DW_TAG_member
    2379                      .dwattr $C$DW$344, DW_AT_type(*$C$DW$T$35)
    2380                      .dwattr $C$DW$344, DW_AT_name("cid")
    2381                      .dwattr $C$DW$344, DW_AT_TI_symbol_name("_cid")
    2382                      .dwattr $C$DW$344, DW_AT_data_member_location[DW_OP_plus_uconst 0x14]
    2383                      .dwattr $C$DW$344, DW_AT_accessibility(DW_ACCESS_public)
    2384              $C$DW$345       .dwtag  DW_TAG_member
    2385                      .dwattr $C$DW$345, DW_AT_type(*$C$DW$T$37)
    2386                      .dwattr $C$DW$345, DW_AT_name("csd")
    2387                      .dwattr $C$DW$345, DW_AT_TI_symbol_name("_csd")
    2388                      .dwattr $C$DW$345, DW_AT_data_member_location[DW_OP_plus_uconst 0x16]
    2389                      .dwattr $C$DW$345, DW_AT_accessibility(DW_ACCESS_public)
    2390              $C$DW$346       .dwtag  DW_TAG_member
    2391                      .dwattr $C$DW$346, DW_AT_type(*$C$DW$T$39)
    2392                      .dwattr $C$DW$346, DW_AT_name("xcsd")
    2393                      .dwattr $C$DW$346, DW_AT_TI_symbol_name("_xcsd")
    2394                      .dwattr $C$DW$346, DW_AT_data_member_location[DW_OP_plus_uconst 0x18]
    2395                      .dwattr $C$DW$346, DW_AT_accessibility(DW_ACCESS_public)
    2396              $C$DW$347       .dwtag  DW_TAG_member
    2397                      .dwattr $C$DW$347, DW_AT_type(*$C$DW$T$40)
    2398                      .dwattr $C$DW$347, DW_AT_name("sdHcDetected")
    2399                      .dwattr $C$DW$347, DW_AT_TI_symbol_name("_sdHcDetected")
    2400                      .dwattr $C$DW$347, DW_AT_data_member_location[DW_OP_plus_uconst 0x1a]
    2401                      .dwattr $C$DW$347, DW_AT_accessibility(DW_ACCESS_public)
    2402              $C$DW$348       .dwtag  DW_TAG_member
    2403                      .dwattr $C$DW$348, DW_AT_type(*$C$DW$T$40)
    2404                      .dwattr $C$DW$348, DW_AT_name("cardAtaFsOpen")
    2405                      .dwattr $C$DW$348, DW_AT_TI_symbol_name("_cardAtaFsOpen")
    2406                      .dwattr $C$DW$348, DW_AT_data_member_location[DW_OP_plus_uconst 0x1b]
    2407                      .dwattr $C$DW$348, DW_AT_accessibility(DW_ACCESS_public)
    2408              $C$DW$349       .dwtag  DW_TAG_member
    2409                      .dwattr $C$DW$349, DW_AT_type(*$C$DW$T$19)
    2410                      .dwattr $C$DW$349, DW_AT_name("cardMscStatus")
    2411                      .dwattr $C$DW$349, DW_AT_TI_symbol_name("_cardMscStatus")
TMS320C55x Assembler PC v4.4.1 Sat Sep 15 12:23:51 2018

Tools Copyright (c) 1996-2012 Texas Instruments Incorporated
ezdsp5535_sdcard.asm                                                 PAGE   66

    2412                      .dwattr $C$DW$349, DW_AT_data_member_location[DW_OP_plus_uconst 0x1c]
    2413                      .dwattr $C$DW$349, DW_AT_accessibility(DW_ACCESS_public)
    2414                      .dwendtag $C$DW$T$41
    2415              
    2416              $C$DW$T$81      .dwtag  DW_TAG_typedef, DW_AT_name("CSL_MMCCardObj")
    2417                      .dwattr $C$DW$T$81, DW_AT_type(*$C$DW$T$41)
    2418                      .dwattr $C$DW$T$81, DW_AT_language(DW_LANG_C)
    2419              $C$DW$T$82      .dwtag  DW_TAG_pointer_type
    2420                      .dwattr $C$DW$T$82, DW_AT_type(*$C$DW$T$81)
    2421                      .dwattr $C$DW$T$82, DW_AT_address_class(0x17)
    2422              
    2423              $C$DW$T$46      .dwtag  DW_TAG_structure_type
    2424                      .dwattr $C$DW$T$46, DW_AT_byte_size(0x18)
    2425              $C$DW$350       .dwtag  DW_TAG_member
    2426                      .dwattr $C$DW$350, DW_AT_type(*$C$DW$T$45)
    2427                      .dwattr $C$DW$350, DW_AT_name("isr")
    2428                      .dwattr $C$DW$350, DW_AT_TI_symbol_name("_isr")
    2429                      .dwattr $C$DW$350, DW_AT_data_member_location[DW_OP_plus_uconst 0x0]
    2430                      .dwattr $C$DW$350, DW_AT_accessibility(DW_ACCESS_public)
    2431                      .dwendtag $C$DW$T$46
    2432              
    2433              $C$DW$T$83      .dwtag  DW_TAG_typedef, DW_AT_name("CSL_MMCCallBackObj")
    2434                      .dwattr $C$DW$T$83, DW_AT_type(*$C$DW$T$46)
    2435                      .dwattr $C$DW$T$83, DW_AT_language(DW_LANG_C)
    2436              $C$DW$T$84      .dwtag  DW_TAG_pointer_type
    2437                      .dwattr $C$DW$T$84, DW_AT_type(*$C$DW$T$83)
    2438                      .dwattr $C$DW$T$84, DW_AT_address_class(0x17)
    2439              
    2440              $C$DW$T$48      .dwtag  DW_TAG_structure_type
    2441                      .dwattr $C$DW$T$48, DW_AT_byte_size(0x66)
    2442              $C$DW$351       .dwtag  DW_TAG_member
    2443                      .dwattr $C$DW$351, DW_AT_type(*$C$DW$T$20)
    2444                      .dwattr $C$DW$351, DW_AT_name("DMACH0SSAL")
    2445                      .dwattr $C$DW$351, DW_AT_TI_symbol_name("_DMACH0SSAL")
    2446                      .dwattr $C$DW$351, DW_AT_data_member_location[DW_OP_plus_uconst 0x0]
    2447                      .dwattr $C$DW$351, DW_AT_accessibility(DW_ACCESS_public)
    2448              $C$DW$352       .dwtag  DW_TAG_member
    2449                      .dwattr $C$DW$352, DW_AT_type(*$C$DW$T$20)
    2450                      .dwattr $C$DW$352, DW_AT_name("DMACH0SSAU")
    2451                      .dwattr $C$DW$352, DW_AT_TI_symbol_name("_DMACH0SSAU")
    2452                      .dwattr $C$DW$352, DW_AT_data_member_location[DW_OP_plus_uconst 0x1]
    2453                      .dwattr $C$DW$352, DW_AT_accessibility(DW_ACCESS_public)
    2454              $C$DW$353       .dwtag  DW_TAG_member
    2455                      .dwattr $C$DW$353, DW_AT_type(*$C$DW$T$20)
    2456                      .dwattr $C$DW$353, DW_AT_name("DMACH0DSAL")
    2457                      .dwattr $C$DW$353, DW_AT_TI_symbol_name("_DMACH0DSAL")
    2458                      .dwattr $C$DW$353, DW_AT_data_member_location[DW_OP_plus_uconst 0x2]
    2459                      .dwattr $C$DW$353, DW_AT_accessibility(DW_ACCESS_public)
    2460              $C$DW$354       .dwtag  DW_TAG_member
    2461                      .dwattr $C$DW$354, DW_AT_type(*$C$DW$T$20)
    2462                      .dwattr $C$DW$354, DW_AT_name("DMACH0DSAU")
    2463                      .dwattr $C$DW$354, DW_AT_TI_symbol_name("_DMACH0DSAU")
    2464                      .dwattr $C$DW$354, DW_AT_data_member_location[DW_OP_plus_uconst 0x3]
    2465                      .dwattr $C$DW$354, DW_AT_accessibility(DW_ACCESS_public)
    2466              $C$DW$355       .dwtag  DW_TAG_member
TMS320C55x Assembler PC v4.4.1 Sat Sep 15 12:23:51 2018

Tools Copyright (c) 1996-2012 Texas Instruments Incorporated
ezdsp5535_sdcard.asm                                                 PAGE   67

    2467                      .dwattr $C$DW$355, DW_AT_type(*$C$DW$T$20)
    2468                      .dwattr $C$DW$355, DW_AT_name("DMACH0TCR1")
    2469                      .dwattr $C$DW$355, DW_AT_TI_symbol_name("_DMACH0TCR1")
    2470                      .dwattr $C$DW$355, DW_AT_data_member_location[DW_OP_plus_uconst 0x4]
    2471                      .dwattr $C$DW$355, DW_AT_accessibility(DW_ACCESS_public)
    2472              $C$DW$356       .dwtag  DW_TAG_member
    2473                      .dwattr $C$DW$356, DW_AT_type(*$C$DW$T$20)
    2474                      .dwattr $C$DW$356, DW_AT_name("DMACH0TCR2")
    2475                      .dwattr $C$DW$356, DW_AT_TI_symbol_name("_DMACH0TCR2")
    2476                      .dwattr $C$DW$356, DW_AT_data_member_location[DW_OP_plus_uconst 0x5]
    2477                      .dwattr $C$DW$356, DW_AT_accessibility(DW_ACCESS_public)
    2478              $C$DW$357       .dwtag  DW_TAG_member
    2479                      .dwattr $C$DW$357, DW_AT_type(*$C$DW$T$47)
    2480                      .dwattr $C$DW$357, DW_AT_name("RSVD0")
    2481                      .dwattr $C$DW$357, DW_AT_TI_symbol_name("_RSVD0")
    2482                      .dwattr $C$DW$357, DW_AT_data_member_location[DW_OP_plus_uconst 0x6]
    2483                      .dwattr $C$DW$357, DW_AT_accessibility(DW_ACCESS_public)
    2484              $C$DW$358       .dwtag  DW_TAG_member
    2485                      .dwattr $C$DW$358, DW_AT_type(*$C$DW$T$20)
    2486                      .dwattr $C$DW$358, DW_AT_name("DMACH1SSAL")
    2487                      .dwattr $C$DW$358, DW_AT_TI_symbol_name("_DMACH1SSAL")
    2488                      .dwattr $C$DW$358, DW_AT_data_member_location[DW_OP_plus_uconst 0x20]
    2489                      .dwattr $C$DW$358, DW_AT_accessibility(DW_ACCESS_public)
    2490              $C$DW$359       .dwtag  DW_TAG_member
    2491                      .dwattr $C$DW$359, DW_AT_type(*$C$DW$T$20)
    2492                      .dwattr $C$DW$359, DW_AT_name("DMACH1SSAU")
    2493                      .dwattr $C$DW$359, DW_AT_TI_symbol_name("_DMACH1SSAU")
    2494                      .dwattr $C$DW$359, DW_AT_data_member_location[DW_OP_plus_uconst 0x21]
    2495                      .dwattr $C$DW$359, DW_AT_accessibility(DW_ACCESS_public)
    2496              $C$DW$360       .dwtag  DW_TAG_member
    2497                      .dwattr $C$DW$360, DW_AT_type(*$C$DW$T$20)
    2498                      .dwattr $C$DW$360, DW_AT_name("DMACH1DSAL")
    2499                      .dwattr $C$DW$360, DW_AT_TI_symbol_name("_DMACH1DSAL")
    2500                      .dwattr $C$DW$360, DW_AT_data_member_location[DW_OP_plus_uconst 0x22]
    2501                      .dwattr $C$DW$360, DW_AT_accessibility(DW_ACCESS_public)
    2502              $C$DW$361       .dwtag  DW_TAG_member
    2503                      .dwattr $C$DW$361, DW_AT_type(*$C$DW$T$20)
    2504                      .dwattr $C$DW$361, DW_AT_name("DMACH1DSAU")
    2505                      .dwattr $C$DW$361, DW_AT_TI_symbol_name("_DMACH1DSAU")
    2506                      .dwattr $C$DW$361, DW_AT_data_member_location[DW_OP_plus_uconst 0x23]
    2507                      .dwattr $C$DW$361, DW_AT_accessibility(DW_ACCESS_public)
    2508              $C$DW$362       .dwtag  DW_TAG_member
    2509                      .dwattr $C$DW$362, DW_AT_type(*$C$DW$T$20)
    2510                      .dwattr $C$DW$362, DW_AT_name("DMACH1TCR1")
    2511                      .dwattr $C$DW$362, DW_AT_TI_symbol_name("_DMACH1TCR1")
    2512                      .dwattr $C$DW$362, DW_AT_data_member_location[DW_OP_plus_uconst 0x24]
    2513                      .dwattr $C$DW$362, DW_AT_accessibility(DW_ACCESS_public)
    2514              $C$DW$363       .dwtag  DW_TAG_member
    2515                      .dwattr $C$DW$363, DW_AT_type(*$C$DW$T$20)
    2516                      .dwattr $C$DW$363, DW_AT_name("DMACH1TCR2")
    2517                      .dwattr $C$DW$363, DW_AT_TI_symbol_name("_DMACH1TCR2")
    2518                      .dwattr $C$DW$363, DW_AT_data_member_location[DW_OP_plus_uconst 0x25]
    2519                      .dwattr $C$DW$363, DW_AT_accessibility(DW_ACCESS_public)
    2520              $C$DW$364       .dwtag  DW_TAG_member
    2521                      .dwattr $C$DW$364, DW_AT_type(*$C$DW$T$47)
TMS320C55x Assembler PC v4.4.1 Sat Sep 15 12:23:51 2018

Tools Copyright (c) 1996-2012 Texas Instruments Incorporated
ezdsp5535_sdcard.asm                                                 PAGE   68

    2522                      .dwattr $C$DW$364, DW_AT_name("RSVD1")
    2523                      .dwattr $C$DW$364, DW_AT_TI_symbol_name("_RSVD1")
    2524                      .dwattr $C$DW$364, DW_AT_data_member_location[DW_OP_plus_uconst 0x26]
    2525                      .dwattr $C$DW$364, DW_AT_accessibility(DW_ACCESS_public)
    2526              $C$DW$365       .dwtag  DW_TAG_member
    2527                      .dwattr $C$DW$365, DW_AT_type(*$C$DW$T$20)
    2528                      .dwattr $C$DW$365, DW_AT_name("DMACH2SSAL")
    2529                      .dwattr $C$DW$365, DW_AT_TI_symbol_name("_DMACH2SSAL")
    2530                      .dwattr $C$DW$365, DW_AT_data_member_location[DW_OP_plus_uconst 0x40]
    2531                      .dwattr $C$DW$365, DW_AT_accessibility(DW_ACCESS_public)
    2532              $C$DW$366       .dwtag  DW_TAG_member
    2533                      .dwattr $C$DW$366, DW_AT_type(*$C$DW$T$20)
    2534                      .dwattr $C$DW$366, DW_AT_name("DMACH2SSAU")
    2535                      .dwattr $C$DW$366, DW_AT_TI_symbol_name("_DMACH2SSAU")
    2536                      .dwattr $C$DW$366, DW_AT_data_member_location[DW_OP_plus_uconst 0x41]
    2537                      .dwattr $C$DW$366, DW_AT_accessibility(DW_ACCESS_public)
    2538              $C$DW$367       .dwtag  DW_TAG_member
    2539                      .dwattr $C$DW$367, DW_AT_type(*$C$DW$T$20)
    2540                      .dwattr $C$DW$367, DW_AT_name("DMACH2DSAL")
    2541                      .dwattr $C$DW$367, DW_AT_TI_symbol_name("_DMACH2DSAL")
    2542                      .dwattr $C$DW$367, DW_AT_data_member_location[DW_OP_plus_uconst 0x42]
    2543                      .dwattr $C$DW$367, DW_AT_accessibility(DW_ACCESS_public)
    2544              $C$DW$368       .dwtag  DW_TAG_member
    2545                      .dwattr $C$DW$368, DW_AT_type(*$C$DW$T$20)
    2546                      .dwattr $C$DW$368, DW_AT_name("DMACH2DSAU")
    2547                      .dwattr $C$DW$368, DW_AT_TI_symbol_name("_DMACH2DSAU")
    2548                      .dwattr $C$DW$368, DW_AT_data_member_location[DW_OP_plus_uconst 0x43]
    2549                      .dwattr $C$DW$368, DW_AT_accessibility(DW_ACCESS_public)
    2550              $C$DW$369       .dwtag  DW_TAG_member
    2551                      .dwattr $C$DW$369, DW_AT_type(*$C$DW$T$20)
    2552                      .dwattr $C$DW$369, DW_AT_name("DMACH2TCR1")
    2553                      .dwattr $C$DW$369, DW_AT_TI_symbol_name("_DMACH2TCR1")
    2554                      .dwattr $C$DW$369, DW_AT_data_member_location[DW_OP_plus_uconst 0x44]
    2555                      .dwattr $C$DW$369, DW_AT_accessibility(DW_ACCESS_public)
    2556              $C$DW$370       .dwtag  DW_TAG_member
    2557                      .dwattr $C$DW$370, DW_AT_type(*$C$DW$T$20)
    2558                      .dwattr $C$DW$370, DW_AT_name("DMACH2TCR2")
    2559                      .dwattr $C$DW$370, DW_AT_TI_symbol_name("_DMACH2TCR2")
    2560                      .dwattr $C$DW$370, DW_AT_data_member_location[DW_OP_plus_uconst 0x45]
    2561                      .dwattr $C$DW$370, DW_AT_accessibility(DW_ACCESS_public)
    2562              $C$DW$371       .dwtag  DW_TAG_member
    2563                      .dwattr $C$DW$371, DW_AT_type(*$C$DW$T$47)
    2564                      .dwattr $C$DW$371, DW_AT_name("RSVD2")
    2565                      .dwattr $C$DW$371, DW_AT_TI_symbol_name("_RSVD2")
    2566                      .dwattr $C$DW$371, DW_AT_data_member_location[DW_OP_plus_uconst 0x46]
    2567                      .dwattr $C$DW$371, DW_AT_accessibility(DW_ACCESS_public)
    2568              $C$DW$372       .dwtag  DW_TAG_member
    2569                      .dwattr $C$DW$372, DW_AT_type(*$C$DW$T$20)
    2570                      .dwattr $C$DW$372, DW_AT_name("DMACH3SSAL")
    2571                      .dwattr $C$DW$372, DW_AT_TI_symbol_name("_DMACH3SSAL")
    2572                      .dwattr $C$DW$372, DW_AT_data_member_location[DW_OP_plus_uconst 0x60]
    2573                      .dwattr $C$DW$372, DW_AT_accessibility(DW_ACCESS_public)
    2574              $C$DW$373       .dwtag  DW_TAG_member
    2575                      .dwattr $C$DW$373, DW_AT_type(*$C$DW$T$20)
    2576                      .dwattr $C$DW$373, DW_AT_name("DMACH3SSAU")
TMS320C55x Assembler PC v4.4.1 Sat Sep 15 12:23:51 2018

Tools Copyright (c) 1996-2012 Texas Instruments Incorporated
ezdsp5535_sdcard.asm                                                 PAGE   69

    2577                      .dwattr $C$DW$373, DW_AT_TI_symbol_name("_DMACH3SSAU")
    2578                      .dwattr $C$DW$373, DW_AT_data_member_location[DW_OP_plus_uconst 0x61]
    2579                      .dwattr $C$DW$373, DW_AT_accessibility(DW_ACCESS_public)
    2580              $C$DW$374       .dwtag  DW_TAG_member
    2581                      .dwattr $C$DW$374, DW_AT_type(*$C$DW$T$20)
    2582                      .dwattr $C$DW$374, DW_AT_name("DMACH3DSAL")
    2583                      .dwattr $C$DW$374, DW_AT_TI_symbol_name("_DMACH3DSAL")
    2584                      .dwattr $C$DW$374, DW_AT_data_member_location[DW_OP_plus_uconst 0x62]
    2585                      .dwattr $C$DW$374, DW_AT_accessibility(DW_ACCESS_public)
    2586              $C$DW$375       .dwtag  DW_TAG_member
    2587                      .dwattr $C$DW$375, DW_AT_type(*$C$DW$T$20)
    2588                      .dwattr $C$DW$375, DW_AT_name("DMACH3DSAU")
    2589                      .dwattr $C$DW$375, DW_AT_TI_symbol_name("_DMACH3DSAU")
    2590                      .dwattr $C$DW$375, DW_AT_data_member_location[DW_OP_plus_uconst 0x63]
    2591                      .dwattr $C$DW$375, DW_AT_accessibility(DW_ACCESS_public)
    2592              $C$DW$376       .dwtag  DW_TAG_member
    2593                      .dwattr $C$DW$376, DW_AT_type(*$C$DW$T$20)
    2594                      .dwattr $C$DW$376, DW_AT_name("DMACH3TCR1")
    2595                      .dwattr $C$DW$376, DW_AT_TI_symbol_name("_DMACH3TCR1")
    2596                      .dwattr $C$DW$376, DW_AT_data_member_location[DW_OP_plus_uconst 0x64]
    2597                      .dwattr $C$DW$376, DW_AT_accessibility(DW_ACCESS_public)
    2598              $C$DW$377       .dwtag  DW_TAG_member
    2599                      .dwattr $C$DW$377, DW_AT_type(*$C$DW$T$20)
    2600                      .dwattr $C$DW$377, DW_AT_name("DMACH3TCR2")
    2601                      .dwattr $C$DW$377, DW_AT_TI_symbol_name("_DMACH3TCR2")
    2602                      .dwattr $C$DW$377, DW_AT_data_member_location[DW_OP_plus_uconst 0x65]
    2603                      .dwattr $C$DW$377, DW_AT_accessibility(DW_ACCESS_public)
    2604                      .dwendtag $C$DW$T$48
    2605              
    2606              $C$DW$T$49      .dwtag  DW_TAG_typedef, DW_AT_name("CSL_DmaRegs")
    2607                      .dwattr $C$DW$T$49, DW_AT_type(*$C$DW$T$48)
    2608                      .dwattr $C$DW$T$49, DW_AT_language(DW_LANG_C)
    2609              $C$DW$378       .dwtag  DW_TAG_TI_far_type
    2610                      .dwattr $C$DW$378, DW_AT_type(*$C$DW$T$49)
    2611              $C$DW$379       .dwtag  DW_TAG_TI_ioport_type
    2612                      .dwattr $C$DW$379, DW_AT_type(*$C$DW$378)
    2613              $C$DW$T$50      .dwtag  DW_TAG_volatile_type
    2614                      .dwattr $C$DW$T$50, DW_AT_type(*$C$DW$379)
    2615              $C$DW$T$51      .dwtag  DW_TAG_pointer_type
    2616                      .dwattr $C$DW$T$51, DW_AT_type(*$C$DW$T$50)
    2617                      .dwattr $C$DW$T$51, DW_AT_address_class(0x10)
    2618              $C$DW$T$52      .dwtag  DW_TAG_typedef, DW_AT_name("CSL_DmaRegsOvly")
    2619                      .dwattr $C$DW$T$52, DW_AT_type(*$C$DW$T$51)
    2620                      .dwattr $C$DW$T$52, DW_AT_language(DW_LANG_C)
    2621              
    2622              $C$DW$T$65      .dwtag  DW_TAG_structure_type
    2623                      .dwattr $C$DW$T$65, DW_AT_byte_size(0x09)
    2624              $C$DW$380       .dwtag  DW_TAG_member
    2625                      .dwattr $C$DW$380, DW_AT_type(*$C$DW$T$52)
    2626                      .dwattr $C$DW$380, DW_AT_name("dmaRegs")
    2627                      .dwattr $C$DW$380, DW_AT_TI_symbol_name("_dmaRegs")
    2628                      .dwattr $C$DW$380, DW_AT_data_member_location[DW_OP_plus_uconst 0x0]
    2629                      .dwattr $C$DW$380, DW_AT_accessibility(DW_ACCESS_public)
    2630              $C$DW$381       .dwtag  DW_TAG_member
    2631                      .dwattr $C$DW$381, DW_AT_type(*$C$DW$T$54)
TMS320C55x Assembler PC v4.4.1 Sat Sep 15 12:23:51 2018

Tools Copyright (c) 1996-2012 Texas Instruments Incorporated
ezdsp5535_sdcard.asm                                                 PAGE   70

    2632                      .dwattr $C$DW$381, DW_AT_name("chanNum")
    2633                      .dwattr $C$DW$381, DW_AT_TI_symbol_name("_chanNum")
    2634                      .dwattr $C$DW$381, DW_AT_data_member_location[DW_OP_plus_uconst 0x1]
    2635                      .dwattr $C$DW$381, DW_AT_accessibility(DW_ACCESS_public)
    2636              $C$DW$382       .dwtag  DW_TAG_member
    2637                      .dwattr $C$DW$382, DW_AT_type(*$C$DW$T$56)
    2638                      .dwattr $C$DW$382, DW_AT_name("dmaInstNum")
    2639                      .dwattr $C$DW$382, DW_AT_TI_symbol_name("_dmaInstNum")
    2640                      .dwattr $C$DW$382, DW_AT_data_member_location[DW_OP_plus_uconst 0x2]
    2641                      .dwattr $C$DW$382, DW_AT_accessibility(DW_ACCESS_public)
    2642              $C$DW$383       .dwtag  DW_TAG_member
    2643                      .dwattr $C$DW$383, DW_AT_type(*$C$DW$T$40)
    2644                      .dwattr $C$DW$383, DW_AT_name("isChanFree")
    2645                      .dwattr $C$DW$383, DW_AT_TI_symbol_name("_isChanFree")
    2646                      .dwattr $C$DW$383, DW_AT_data_member_location[DW_OP_plus_uconst 0x3]
    2647                      .dwattr $C$DW$383, DW_AT_accessibility(DW_ACCESS_public)
    2648              $C$DW$384       .dwtag  DW_TAG_member
    2649                      .dwattr $C$DW$384, DW_AT_type(*$C$DW$T$58)
    2650                      .dwattr $C$DW$384, DW_AT_name("chanDir")
    2651                      .dwattr $C$DW$384, DW_AT_TI_symbol_name("_chanDir")
    2652                      .dwattr $C$DW$384, DW_AT_data_member_location[DW_OP_plus_uconst 0x4]
    2653                      .dwattr $C$DW$384, DW_AT_accessibility(DW_ACCESS_public)
    2654              $C$DW$385       .dwtag  DW_TAG_member
    2655                      .dwattr $C$DW$385, DW_AT_type(*$C$DW$T$60)
    2656                      .dwattr $C$DW$385, DW_AT_name("trigger")
    2657                      .dwattr $C$DW$385, DW_AT_TI_symbol_name("_trigger")
    2658                      .dwattr $C$DW$385, DW_AT_data_member_location[DW_OP_plus_uconst 0x5]
    2659                      .dwattr $C$DW$385, DW_AT_accessibility(DW_ACCESS_public)
    2660              $C$DW$386       .dwtag  DW_TAG_member
    2661                      .dwattr $C$DW$386, DW_AT_type(*$C$DW$T$62)
    2662                      .dwattr $C$DW$386, DW_AT_name("trfType")
    2663                      .dwattr $C$DW$386, DW_AT_TI_symbol_name("_trfType")
    2664                      .dwattr $C$DW$386, DW_AT_data_member_location[DW_OP_plus_uconst 0x6]
    2665                      .dwattr $C$DW$386, DW_AT_accessibility(DW_ACCESS_public)
    2666              $C$DW$387       .dwtag  DW_TAG_member
    2667                      .dwattr $C$DW$387, DW_AT_type(*$C$DW$T$64)
    2668                      .dwattr $C$DW$387, DW_AT_name("dmaInt")
    2669                      .dwattr $C$DW$387, DW_AT_TI_symbol_name("_dmaInt")
    2670                      .dwattr $C$DW$387, DW_AT_data_member_location[DW_OP_plus_uconst 0x7]
    2671                      .dwattr $C$DW$387, DW_AT_accessibility(DW_ACCESS_public)
    2672              $C$DW$388       .dwtag  DW_TAG_member
    2673                      .dwattr $C$DW$388, DW_AT_type(*$C$DW$T$40)
    2674                      .dwattr $C$DW$388, DW_AT_name("pingPongEnabled")
    2675                      .dwattr $C$DW$388, DW_AT_TI_symbol_name("_pingPongEnabled")
    2676                      .dwattr $C$DW$388, DW_AT_data_member_location[DW_OP_plus_uconst 0x8]
    2677                      .dwattr $C$DW$388, DW_AT_accessibility(DW_ACCESS_public)
    2678                      .dwendtag $C$DW$T$65
    2679              
    2680              $C$DW$T$87      .dwtag  DW_TAG_typedef, DW_AT_name("CSL_DMA_ChannelObj")
    2681                      .dwattr $C$DW$T$87, DW_AT_type(*$C$DW$T$65)
    2682                      .dwattr $C$DW$T$87, DW_AT_language(DW_LANG_C)
    2683              $C$DW$T$88      .dwtag  DW_TAG_pointer_type
    2684                      .dwattr $C$DW$T$88, DW_AT_type(*$C$DW$T$87)
    2685                      .dwattr $C$DW$T$88, DW_AT_address_class(0x17)
    2686              $C$DW$T$89      .dwtag  DW_TAG_typedef, DW_AT_name("CSL_DMA_Handle")
TMS320C55x Assembler PC v4.4.1 Sat Sep 15 12:23:51 2018

Tools Copyright (c) 1996-2012 Texas Instruments Incorporated
ezdsp5535_sdcard.asm                                                 PAGE   71

    2687                      .dwattr $C$DW$T$89, DW_AT_type(*$C$DW$T$88)
    2688                      .dwattr $C$DW$T$89, DW_AT_language(DW_LANG_C)
    2689              
    2690              $C$DW$T$74      .dwtag  DW_TAG_structure_type
    2691                      .dwattr $C$DW$T$74, DW_AT_byte_size(0x0e)
    2692              $C$DW$389       .dwtag  DW_TAG_member
    2693                      .dwattr $C$DW$389, DW_AT_type(*$C$DW$T$67)
    2694                      .dwattr $C$DW$389, DW_AT_name("pingPongMode")
    2695                      .dwattr $C$DW$389, DW_AT_TI_symbol_name("_pingPongMode")
    2696                      .dwattr $C$DW$389, DW_AT_data_member_location[DW_OP_plus_uconst 0x0]
    2697                      .dwattr $C$DW$389, DW_AT_accessibility(DW_ACCESS_public)
    2698              $C$DW$390       .dwtag  DW_TAG_member
    2699                      .dwattr $C$DW$390, DW_AT_type(*$C$DW$T$69)
    2700                      .dwattr $C$DW$390, DW_AT_name("autoMode")
    2701                      .dwattr $C$DW$390, DW_AT_TI_symbol_name("_autoMode")
    2702                      .dwattr $C$DW$390, DW_AT_data_member_location[DW_OP_plus_uconst 0x1]
    2703                      .dwattr $C$DW$390, DW_AT_accessibility(DW_ACCESS_public)
    2704              $C$DW$391       .dwtag  DW_TAG_member
    2705                      .dwattr $C$DW$391, DW_AT_type(*$C$DW$T$71)
    2706                      .dwattr $C$DW$391, DW_AT_name("burstLen")
    2707                      .dwattr $C$DW$391, DW_AT_TI_symbol_name("_burstLen")
    2708                      .dwattr $C$DW$391, DW_AT_data_member_location[DW_OP_plus_uconst 0x2]
    2709                      .dwattr $C$DW$391, DW_AT_accessibility(DW_ACCESS_public)
    2710              $C$DW$392       .dwtag  DW_TAG_member
    2711                      .dwattr $C$DW$392, DW_AT_type(*$C$DW$T$60)
    2712                      .dwattr $C$DW$392, DW_AT_name("trigger")
    2713                      .dwattr $C$DW$392, DW_AT_TI_symbol_name("_trigger")
    2714                      .dwattr $C$DW$392, DW_AT_data_member_location[DW_OP_plus_uconst 0x3]
    2715                      .dwattr $C$DW$392, DW_AT_accessibility(DW_ACCESS_public)
    2716              $C$DW$393       .dwtag  DW_TAG_member
    2717                      .dwattr $C$DW$393, DW_AT_type(*$C$DW$T$73)
    2718                      .dwattr $C$DW$393, DW_AT_name("dmaEvt")
    2719                      .dwattr $C$DW$393, DW_AT_TI_symbol_name("_dmaEvt")
    2720                      .dwattr $C$DW$393, DW_AT_data_member_location[DW_OP_plus_uconst 0x4]
    2721                      .dwattr $C$DW$393, DW_AT_accessibility(DW_ACCESS_public)
    2722              $C$DW$394       .dwtag  DW_TAG_member
    2723                      .dwattr $C$DW$394, DW_AT_type(*$C$DW$T$64)
    2724                      .dwattr $C$DW$394, DW_AT_name("dmaInt")
    2725                      .dwattr $C$DW$394, DW_AT_TI_symbol_name("_dmaInt")
    2726                      .dwattr $C$DW$394, DW_AT_data_member_location[DW_OP_plus_uconst 0x5]
    2727                      .dwattr $C$DW$394, DW_AT_accessibility(DW_ACCESS_public)
    2728              $C$DW$395       .dwtag  DW_TAG_member
    2729                      .dwattr $C$DW$395, DW_AT_type(*$C$DW$T$58)
    2730                      .dwattr $C$DW$395, DW_AT_name("chanDir")
    2731                      .dwattr $C$DW$395, DW_AT_TI_symbol_name("_chanDir")
    2732                      .dwattr $C$DW$395, DW_AT_data_member_location[DW_OP_plus_uconst 0x6]
    2733                      .dwattr $C$DW$395, DW_AT_accessibility(DW_ACCESS_public)
    2734              $C$DW$396       .dwtag  DW_TAG_member
    2735                      .dwattr $C$DW$396, DW_AT_type(*$C$DW$T$62)
    2736                      .dwattr $C$DW$396, DW_AT_name("trfType")
    2737                      .dwattr $C$DW$396, DW_AT_TI_symbol_name("_trfType")
    2738                      .dwattr $C$DW$396, DW_AT_data_member_location[DW_OP_plus_uconst 0x7]
    2739                      .dwattr $C$DW$396, DW_AT_accessibility(DW_ACCESS_public)
    2740              $C$DW$397       .dwtag  DW_TAG_member
    2741                      .dwattr $C$DW$397, DW_AT_type(*$C$DW$T$19)
TMS320C55x Assembler PC v4.4.1 Sat Sep 15 12:23:51 2018

Tools Copyright (c) 1996-2012 Texas Instruments Incorporated
ezdsp5535_sdcard.asm                                                 PAGE   72

    2742                      .dwattr $C$DW$397, DW_AT_name("dataLen")
    2743                      .dwattr $C$DW$397, DW_AT_TI_symbol_name("_dataLen")
    2744                      .dwattr $C$DW$397, DW_AT_data_member_location[DW_OP_plus_uconst 0x8]
    2745                      .dwattr $C$DW$397, DW_AT_accessibility(DW_ACCESS_public)
    2746              $C$DW$398       .dwtag  DW_TAG_member
    2747                      .dwattr $C$DW$398, DW_AT_type(*$C$DW$T$28)
    2748                      .dwattr $C$DW$398, DW_AT_name("srcAddr")
    2749                      .dwattr $C$DW$398, DW_AT_TI_symbol_name("_srcAddr")
    2750                      .dwattr $C$DW$398, DW_AT_data_member_location[DW_OP_plus_uconst 0xa]
    2751                      .dwattr $C$DW$398, DW_AT_accessibility(DW_ACCESS_public)
    2752              $C$DW$399       .dwtag  DW_TAG_member
    2753                      .dwattr $C$DW$399, DW_AT_type(*$C$DW$T$28)
    2754                      .dwattr $C$DW$399, DW_AT_name("destAddr")
    2755                      .dwattr $C$DW$399, DW_AT_TI_symbol_name("_destAddr")
    2756                      .dwattr $C$DW$399, DW_AT_data_member_location[DW_OP_plus_uconst 0xc]
    2757                      .dwattr $C$DW$399, DW_AT_accessibility(DW_ACCESS_public)
    2758                      .dwendtag $C$DW$T$74
    2759              
    2760              $C$DW$T$90      .dwtag  DW_TAG_typedef, DW_AT_name("CSL_DMA_Config")
    2761                      .dwattr $C$DW$T$90, DW_AT_type(*$C$DW$T$74)
    2762                      .dwattr $C$DW$T$90, DW_AT_language(DW_LANG_C)
    2763              
    2764              $C$DW$T$75      .dwtag  DW_TAG_structure_type
    2765                      .dwattr $C$DW$T$75, DW_AT_byte_size(0x08)
    2766              $C$DW$400       .dwtag  DW_TAG_member
    2767                      .dwattr $C$DW$400, DW_AT_type(*$C$DW$T$19)
    2768                      .dwattr $C$DW$400, DW_AT_name("slice127_112")
    2769                      .dwattr $C$DW$400, DW_AT_TI_symbol_name("_slice127_112")
    2770                      .dwattr $C$DW$400, DW_AT_data_member_location[DW_OP_plus_uconst 0x0]
    2771                      .dwattr $C$DW$400, DW_AT_accessibility(DW_ACCESS_public)
    2772              $C$DW$401       .dwtag  DW_TAG_member
    2773                      .dwattr $C$DW$401, DW_AT_type(*$C$DW$T$19)
    2774                      .dwattr $C$DW$401, DW_AT_name("slice111_96")
    2775                      .dwattr $C$DW$401, DW_AT_TI_symbol_name("_slice111_96")
    2776                      .dwattr $C$DW$401, DW_AT_data_member_location[DW_OP_plus_uconst 0x1]
    2777                      .dwattr $C$DW$401, DW_AT_accessibility(DW_ACCESS_public)
    2778              $C$DW$402       .dwtag  DW_TAG_member
    2779                      .dwattr $C$DW$402, DW_AT_type(*$C$DW$T$19)
    2780                      .dwattr $C$DW$402, DW_AT_name("slice95_80")
    2781                      .dwattr $C$DW$402, DW_AT_TI_symbol_name("_slice95_80")
    2782                      .dwattr $C$DW$402, DW_AT_data_member_location[DW_OP_plus_uconst 0x2]
    2783                      .dwattr $C$DW$402, DW_AT_accessibility(DW_ACCESS_public)
    2784              $C$DW$403       .dwtag  DW_TAG_member
    2785                      .dwattr $C$DW$403, DW_AT_type(*$C$DW$T$19)
    2786                      .dwattr $C$DW$403, DW_AT_name("slice79_64")
    2787                      .dwattr $C$DW$403, DW_AT_TI_symbol_name("_slice79_64")
    2788                      .dwattr $C$DW$403, DW_AT_data_member_location[DW_OP_plus_uconst 0x3]
    2789                      .dwattr $C$DW$403, DW_AT_accessibility(DW_ACCESS_public)
    2790              $C$DW$404       .dwtag  DW_TAG_member
    2791                      .dwattr $C$DW$404, DW_AT_type(*$C$DW$T$19)
    2792                      .dwattr $C$DW$404, DW_AT_name("slice63_48")
    2793                      .dwattr $C$DW$404, DW_AT_TI_symbol_name("_slice63_48")
    2794                      .dwattr $C$DW$404, DW_AT_data_member_location[DW_OP_plus_uconst 0x4]
    2795                      .dwattr $C$DW$404, DW_AT_accessibility(DW_ACCESS_public)
    2796              $C$DW$405       .dwtag  DW_TAG_member
TMS320C55x Assembler PC v4.4.1 Sat Sep 15 12:23:51 2018

Tools Copyright (c) 1996-2012 Texas Instruments Incorporated
ezdsp5535_sdcard.asm                                                 PAGE   73

    2797                      .dwattr $C$DW$405, DW_AT_type(*$C$DW$T$19)
    2798                      .dwattr $C$DW$405, DW_AT_name("slice47_32")
    2799                      .dwattr $C$DW$405, DW_AT_TI_symbol_name("_slice47_32")
