TMS320C55x Assembler PC v4.4.1 Fri Sep 07 01:41:50 2018

Tools Copyright (c) 1996-2012 Texas Instruments Incorporated
main.asm                                                             PAGE    1

    2635              ; Temporary Registers Used: None
       1              ;*******************************************************************************
       2              ;* TMS320C55x C/C++ Codegen                                          PC v4.4.1 *
       3              ;* Date/Time created: Fri Sep 07 01:41:50 2018                                 *
       4              ;*******************************************************************************
       5                      .compiler_opts --hll_source=on --mem_model:code=flat --mem_model:data=large --object_format=coff --si
       6                      .mmregs
       7                      .cpl_on
       8                      .arms_on
       9                      .c54cm_off
      10                      .asg AR6, FP
      11                      .asg XAR6, XFP
      12                      .asg DPH, MDP
      13                      .model call=c55_std
      14                      .model mem=large
      15                      .noremark 5002  ; code respects overwrite rules
      16              ;*******************************************************************************
      17              ;* GLOBAL FILE PARAMETERS                                                      *
      18              ;*                                                                             *
      19              ;*   Architecture       : TMS320C55x                                           *
      20              ;*   Optimizing for     : Speed                                                *
      21              ;*   Memory             : Large Model (23-Bit Data Pointers)                   *
      22              ;*   Calls              : Normal Library ASM calls                             *
      23              ;*   Debug Info         : Standard TI Debug Information                        *
      24              ;*******************************************************************************
      25              
      26              $C$DW$CU        .dwtag  DW_TAG_compile_unit
      27                      .dwattr $C$DW$CU, DW_AT_name("../FreeRTOS/Demo/c5515_CCS/main.c")
      28                      .dwattr $C$DW$CU, DW_AT_producer("TMS320C55x C/C++ Codegen PC v4.4.1 Copyright (c) 1996-2012 Texas In
      29                      .dwattr $C$DW$CU, DW_AT_TI_version(0x01)
      30                      .dwattr $C$DW$CU, DW_AT_comp_dir("F:\site\eZDSP\eZDSP_5535_Files\ccsws2\test\Debug")
      31              ;******************************************************************************
      32              ;* CINIT RECORDS                                                              *
      33              ;******************************************************************************
      34 000000               .sect   ".cinit"
      35                      .align  1
      36 000000 0001          .field          1,16
      37 000001 0000-         .field          _fSineWave+0,24
         000002 0000 
      38 000002 0000          .field          0,8
      39 000003 0000          .field  0,16                    ; _fSineWave @ 0
      40              
      41 000004               .sect   ".cinit"
      42                      .align  1
      43 000004 0001          .field          1,16
      44 000005 0000-         .field          _f1KToneOn+0,24
         000006 0100 
      45 000006 0100          .field          0,8
      46 000007 0000          .field  0,16                    ; _f1KToneOn @ 0
      47              
      48 000008               .sect   ".cinit"
      49                      .align  1
      50 000008 0001          .field          1,16
      51 000009 0000-         .field          _f2KToneOn+0,24
         00000a 0200 
TMS320C55x Assembler PC v4.4.1 Fri Sep 07 01:41:50 2018

Tools Copyright (c) 1996-2012 Texas Instruments Incorporated
main.asm                                                             PAGE    2

      52 00000a 0200          .field          0,8
      53 00000b 0000          .field  0,16                    ; _f2KToneOn @ 0
      54              
      55 00000c               .sect   ".cinit"
      56                      .align  1
      57 00000c 0002          .field          2,16
      58 00000d 0000-         .field          _ulIdleLoops+0,24
         00000e 0400 
      59 00000e 0400          .field          0,8
      60 00000f 0000          .field  0,32                    ; _ulIdleLoops @ 0
         000010 0000 
      61              
      62              
      63              $C$DW$1 .dwtag  DW_TAG_subprogram, DW_AT_name("EZDSP5535_init")
      64                      .dwattr $C$DW$1, DW_AT_TI_symbol_name("_EZDSP5535_init")
      65                      .dwattr $C$DW$1, DW_AT_type(*$C$DW$T$48)
      66                      .dwattr $C$DW$1, DW_AT_declaration
      67                      .dwattr $C$DW$1, DW_AT_external
      68              
      69              $C$DW$2 .dwtag  DW_TAG_subprogram, DW_AT_name("EZDSP5535_waitusec")
      70                      .dwattr $C$DW$2, DW_AT_TI_symbol_name("_EZDSP5535_waitusec")
      71                      .dwattr $C$DW$2, DW_AT_declaration
      72                      .dwattr $C$DW$2, DW_AT_external
      73              $C$DW$3 .dwtag  DW_TAG_formal_parameter
      74                      .dwattr $C$DW$3, DW_AT_type(*$C$DW$T$28)
      75                      .dwendtag $C$DW$2
      76              
      77              
      78              $C$DW$4 .dwtag  DW_TAG_subprogram, DW_AT_name("vTaskStartScheduler")
      79                      .dwattr $C$DW$4, DW_AT_TI_symbol_name("_vTaskStartScheduler")
      80                      .dwattr $C$DW$4, DW_AT_declaration
      81                      .dwattr $C$DW$4, DW_AT_external
      82              
      83              $C$DW$5 .dwtag  DW_TAG_subprogram, DW_AT_name("vStartLEDFlashTasks")
      84                      .dwattr $C$DW$5, DW_AT_TI_symbol_name("_vStartLEDFlashTasks")
      85                      .dwattr $C$DW$5, DW_AT_declaration
      86                      .dwattr $C$DW$5, DW_AT_external
      87              $C$DW$6 .dwtag  DW_TAG_formal_parameter
      88                      .dwattr $C$DW$6, DW_AT_type(*$C$DW$T$11)
      89                      .dwendtag $C$DW$5
      90              
      91              
      92              $C$DW$7 .dwtag  DW_TAG_subprogram, DW_AT_name("reset_RTC")
      93                      .dwattr $C$DW$7, DW_AT_TI_symbol_name("_reset_RTC")
      94                      .dwattr $C$DW$7, DW_AT_declaration
      95                      .dwattr $C$DW$7, DW_AT_external
      96              
      97              $C$DW$8 .dwtag  DW_TAG_subprogram, DW_AT_name("enable_i2s0")
      98                      .dwattr $C$DW$8, DW_AT_TI_symbol_name("_enable_i2s0")
      99                      .dwattr $C$DW$8, DW_AT_declaration
     100                      .dwattr $C$DW$8, DW_AT_external
     101              
     102              $C$DW$9 .dwtag  DW_TAG_subprogram, DW_AT_name("set_i2s0_slave")
     103                      .dwattr $C$DW$9, DW_AT_TI_symbol_name("_set_i2s0_slave")
     104                      .dwattr $C$DW$9, DW_AT_type(*$C$DW$T$19)
TMS320C55x Assembler PC v4.4.1 Fri Sep 07 01:41:50 2018

Tools Copyright (c) 1996-2012 Texas Instruments Incorporated
main.asm                                                             PAGE    3

     105                      .dwattr $C$DW$9, DW_AT_declaration
     106                      .dwattr $C$DW$9, DW_AT_external
     107              
     108              $C$DW$10        .dwtag  DW_TAG_subprogram, DW_AT_name("set_dma0_ch0_i2s0_Lout")
     109                      .dwattr $C$DW$10, DW_AT_TI_symbol_name("_set_dma0_ch0_i2s0_Lout")
     110                      .dwattr $C$DW$10, DW_AT_type(*$C$DW$T$19)
     111                      .dwattr $C$DW$10, DW_AT_declaration
     112                      .dwattr $C$DW$10, DW_AT_external
     113              
     114              $C$DW$11        .dwtag  DW_TAG_subprogram, DW_AT_name("set_dma0_ch1_i2s0_Rout")
     115                      .dwattr $C$DW$11, DW_AT_TI_symbol_name("_set_dma0_ch1_i2s0_Rout")
     116                      .dwattr $C$DW$11, DW_AT_type(*$C$DW$T$19)
     117                      .dwattr $C$DW$11, DW_AT_declaration
     118                      .dwattr $C$DW$11, DW_AT_external
     119              
     120              $C$DW$12        .dwtag  DW_TAG_subprogram, DW_AT_name("set_dma0_ch0_stop")
     121                      .dwattr $C$DW$12, DW_AT_TI_symbol_name("_set_dma0_ch0_stop")
     122                      .dwattr $C$DW$12, DW_AT_declaration
     123                      .dwattr $C$DW$12, DW_AT_external
     124              
     125              $C$DW$13        .dwtag  DW_TAG_subprogram, DW_AT_name("set_dma0_ch1_stop")
     126                      .dwattr $C$DW$13, DW_AT_TI_symbol_name("_set_dma0_ch1_stop")
     127                      .dwattr $C$DW$13, DW_AT_declaration
     128                      .dwattr $C$DW$13, DW_AT_external
     129              
     130              $C$DW$14        .dwtag  DW_TAG_subprogram, DW_AT_name("EZDSP5535_LED_init")
     131                      .dwattr $C$DW$14, DW_AT_TI_symbol_name("_EZDSP5535_LED_init")
     132                      .dwattr $C$DW$14, DW_AT_type(*$C$DW$T$48)
     133                      .dwattr $C$DW$14, DW_AT_declaration
     134                      .dwattr $C$DW$14, DW_AT_external
     135              
     136              $C$DW$15        .dwtag  DW_TAG_subprogram, DW_AT_name("EZDSP5535_LED_on")
     137                      .dwattr $C$DW$15, DW_AT_TI_symbol_name("_EZDSP5535_LED_on")
     138                      .dwattr $C$DW$15, DW_AT_type(*$C$DW$T$48)
     139                      .dwattr $C$DW$15, DW_AT_declaration
     140                      .dwattr $C$DW$15, DW_AT_external
     141              $C$DW$16        .dwtag  DW_TAG_formal_parameter
     142                      .dwattr $C$DW$16, DW_AT_type(*$C$DW$T$19)
     143                      .dwendtag $C$DW$15
     144              
     145              
     146              $C$DW$17        .dwtag  DW_TAG_subprogram, DW_AT_name("EZDSP5535_LED_off")
     147                      .dwattr $C$DW$17, DW_AT_TI_symbol_name("_EZDSP5535_LED_off")
     148                      .dwattr $C$DW$17, DW_AT_type(*$C$DW$T$48)
     149                      .dwattr $C$DW$17, DW_AT_declaration
     150                      .dwattr $C$DW$17, DW_AT_external
     151              $C$DW$18        .dwtag  DW_TAG_formal_parameter
     152                      .dwattr $C$DW$18, DW_AT_type(*$C$DW$T$19)
     153                      .dwendtag $C$DW$17
     154              
     155              
     156              $C$DW$19        .dwtag  DW_TAG_subprogram, DW_AT_name("EZDSP5535_XF_toggle")
     157                      .dwattr $C$DW$19, DW_AT_TI_symbol_name("_EZDSP5535_XF_toggle")
     158                      .dwattr $C$DW$19, DW_AT_type(*$C$DW$T$48)
     159                      .dwattr $C$DW$19, DW_AT_declaration
TMS320C55x Assembler PC v4.4.1 Fri Sep 07 01:41:50 2018

Tools Copyright (c) 1996-2012 Texas Instruments Incorporated
main.asm                                                             PAGE    4

     160                      .dwattr $C$DW$19, DW_AT_external
     161              
     162              $C$DW$20        .dwtag  DW_TAG_subprogram, DW_AT_name("EZDSP5535_SAR_init")
     163                      .dwattr $C$DW$20, DW_AT_TI_symbol_name("_EZDSP5535_SAR_init")
     164                      .dwattr $C$DW$20, DW_AT_type(*$C$DW$T$45)
     165                      .dwattr $C$DW$20, DW_AT_declaration
     166                      .dwattr $C$DW$20, DW_AT_external
     167              
     168              $C$DW$21        .dwtag  DW_TAG_subprogram, DW_AT_name("EZDSP5535_SAR_getKey")
     169                      .dwattr $C$DW$21, DW_AT_TI_symbol_name("_EZDSP5535_SAR_getKey")
     170                      .dwattr $C$DW$21, DW_AT_type(*$C$DW$T$19)
     171                      .dwattr $C$DW$21, DW_AT_declaration
     172                      .dwattr $C$DW$21, DW_AT_external
     173              
     174              $C$DW$22        .dwtag  DW_TAG_subprogram, DW_AT_name("PLL_init")
     175                      .dwattr $C$DW$22, DW_AT_TI_symbol_name("_PLL_init")
     176                      .dwattr $C$DW$22, DW_AT_type(*$C$DW$T$49)
     177                      .dwattr $C$DW$22, DW_AT_declaration
     178                      .dwattr $C$DW$22, DW_AT_external
     179              $C$DW$23        .dwtag  DW_TAG_formal_parameter
     180                      .dwattr $C$DW$23, DW_AT_type(*$C$DW$T$36)
     181              $C$DW$24        .dwtag  DW_TAG_formal_parameter
     182                      .dwattr $C$DW$24, DW_AT_type(*$C$DW$T$28)
     183                      .dwendtag $C$DW$22
     184              
     185              
     186              $C$DW$25        .dwtag  DW_TAG_subprogram, DW_AT_name("PLL_config")
     187                      .dwattr $C$DW$25, DW_AT_TI_symbol_name("_PLL_config")
     188                      .dwattr $C$DW$25, DW_AT_type(*$C$DW$T$49)
     189                      .dwattr $C$DW$25, DW_AT_declaration
     190                      .dwattr $C$DW$25, DW_AT_external
     191              $C$DW$26        .dwtag  DW_TAG_formal_parameter
     192                      .dwattr $C$DW$26, DW_AT_type(*$C$DW$T$38)
     193              $C$DW$27        .dwtag  DW_TAG_formal_parameter
     194                      .dwattr $C$DW$27, DW_AT_type(*$C$DW$T$27)
     195                      .dwendtag $C$DW$25
     196              
     197              
     198              $C$DW$28        .dwtag  DW_TAG_subprogram, DW_AT_name("PLL_reset")
     199                      .dwattr $C$DW$28, DW_AT_TI_symbol_name("_PLL_reset")
     200                      .dwattr $C$DW$28, DW_AT_type(*$C$DW$T$49)
     201                      .dwattr $C$DW$28, DW_AT_declaration
     202                      .dwattr $C$DW$28, DW_AT_external
     203              $C$DW$29        .dwtag  DW_TAG_formal_parameter
     204                      .dwattr $C$DW$29, DW_AT_type(*$C$DW$T$38)
     205                      .dwendtag $C$DW$28
     206              
     207              
     208              $C$DW$30        .dwtag  DW_TAG_subprogram, DW_AT_name("mem_test")
     209                      .dwattr $C$DW$30, DW_AT_TI_symbol_name("_mem_test")
     210                      .dwattr $C$DW$30, DW_AT_type(*$C$DW$T$48)
     211                      .dwattr $C$DW$30, DW_AT_declaration
     212                      .dwattr $C$DW$30, DW_AT_external
     213              
     214              $C$DW$31        .dwtag  DW_TAG_subprogram, DW_AT_name("oled_test")
TMS320C55x Assembler PC v4.4.1 Fri Sep 07 01:41:50 2018

Tools Copyright (c) 1996-2012 Texas Instruments Incorporated
main.asm                                                             PAGE    5

     215                      .dwattr $C$DW$31, DW_AT_TI_symbol_name("_oled_test")
     216                      .dwattr $C$DW$31, DW_AT_type(*$C$DW$T$48)
     217                      .dwattr $C$DW$31, DW_AT_declaration
     218                      .dwattr $C$DW$31, DW_AT_external
     219              $C$DW$32        .dwtag  DW_TAG_formal_parameter
     220                      .dwattr $C$DW$32, DW_AT_type(*$C$DW$T$10)
     221                      .dwendtag $C$DW$31
     222              
     223              
     224              $C$DW$33        .dwtag  DW_TAG_subprogram, DW_AT_name("spiflash_test")
     225                      .dwattr $C$DW$33, DW_AT_TI_symbol_name("_spiflash_test")
     226                      .dwattr $C$DW$33, DW_AT_type(*$C$DW$T$48)
     227                      .dwattr $C$DW$33, DW_AT_declaration
     228                      .dwattr $C$DW$33, DW_AT_external
     229              
     230              $C$DW$34        .dwtag  DW_TAG_subprogram, DW_AT_name("RTC_reset")
     231                      .dwattr $C$DW$34, DW_AT_TI_symbol_name("_RTC_reset")
     232                      .dwattr $C$DW$34, DW_AT_type(*$C$DW$T$10)
     233                      .dwattr $C$DW$34, DW_AT_declaration
     234                      .dwattr $C$DW$34, DW_AT_external
     235                      .global _fSineWave
     236 000000               .bss    _fSineWave,1,0,0
     237              $C$DW$35        .dwtag  DW_TAG_variable, DW_AT_name("fSineWave")
     238                      .dwattr $C$DW$35, DW_AT_TI_symbol_name("_fSineWave")
     239                      .dwattr $C$DW$35, DW_AT_location[DW_OP_addr _fSineWave]
     240                      .dwattr $C$DW$35, DW_AT_type(*$C$DW$T$19)
     241                      .dwattr $C$DW$35, DW_AT_external
     242                      .global _f1KToneOn
     243 000001               .bss    _f1KToneOn,1,0,0
     244              $C$DW$36        .dwtag  DW_TAG_variable, DW_AT_name("f1KToneOn")
     245                      .dwattr $C$DW$36, DW_AT_TI_symbol_name("_f1KToneOn")
     246                      .dwattr $C$DW$36, DW_AT_location[DW_OP_addr _f1KToneOn]
     247                      .dwattr $C$DW$36, DW_AT_type(*$C$DW$T$19)
     248                      .dwattr $C$DW$36, DW_AT_external
     249                      .global _f2KToneOn
     250 000002               .bss    _f2KToneOn,1,0,0
     251              $C$DW$37        .dwtag  DW_TAG_variable, DW_AT_name("f2KToneOn")
     252                      .dwattr $C$DW$37, DW_AT_TI_symbol_name("_f2KToneOn")
     253                      .dwattr $C$DW$37, DW_AT_location[DW_OP_addr _f2KToneOn]
     254                      .dwattr $C$DW$37, DW_AT_type(*$C$DW$T$19)
     255                      .dwattr $C$DW$37, DW_AT_external
     256              $C$DW$38        .dwtag  DW_TAG_variable, DW_AT_name("fTimer")
     257                      .dwattr $C$DW$38, DW_AT_TI_symbol_name("_fTimer")
     258                      .dwattr $C$DW$38, DW_AT_type(*$C$DW$T$19)
     259                      .dwattr $C$DW$38, DW_AT_declaration
     260                      .dwattr $C$DW$38, DW_AT_external
     261              $C$DW$39        .dwtag  DW_TAG_variable, DW_AT_name("Flag_RTC")
     262                      .dwattr $C$DW$39, DW_AT_TI_symbol_name("_Flag_RTC")
     263                      .dwattr $C$DW$39, DW_AT_type(*$C$DW$T$19)
     264                      .dwattr $C$DW$39, DW_AT_declaration
     265                      .dwattr $C$DW$39, DW_AT_external
     266              $C$DW$40        .dwtag  DW_TAG_variable, DW_AT_name("Conunt_RTC")
     267                      .dwattr $C$DW$40, DW_AT_TI_symbol_name("_Conunt_RTC")
     268                      .dwattr $C$DW$40, DW_AT_type(*$C$DW$T$19)
     269                      .dwattr $C$DW$40, DW_AT_declaration
TMS320C55x Assembler PC v4.4.1 Fri Sep 07 01:41:50 2018

Tools Copyright (c) 1996-2012 Texas Instruments Incorporated
main.asm                                                             PAGE    6

     270                      .dwattr $C$DW$40, DW_AT_external
     271 000004               .bss    _ulIdleLoops,2,0,2
     272              $C$DW$41        .dwtag  DW_TAG_variable, DW_AT_name("ulIdleLoops")
     273                      .dwattr $C$DW$41, DW_AT_TI_symbol_name("_ulIdleLoops")
     274                      .dwattr $C$DW$41, DW_AT_type(*$C$DW$T$77)
     275                      .dwattr $C$DW$41, DW_AT_location[DW_OP_addr _ulIdleLoops]
     276              $C$DW$42        .dwtag  DW_TAG_variable, DW_AT_name("VECSTART")
     277                      .dwattr $C$DW$42, DW_AT_TI_symbol_name("_VECSTART")
     278                      .dwattr $C$DW$42, DW_AT_type(*$C$DW$T$9)
     279                      .dwattr $C$DW$42, DW_AT_declaration
     280                      .dwattr $C$DW$42, DW_AT_external
     281 000003               .bss    _i$1,1,0,0
     282 000000               .sect   ".const:_$P$T0$2"
     283                      .clink
     284                      .align  1
     285 000000       _$P$T0$2:
     286 000000 8BE8          .field  35816,16                        ; _$P$T0$2._PLLCNTL1 @ 0
     287 000001 8000          .field  32768,16                        ; _$P$T0$2._PLLINCNTL @ 16
     288 000002 0806          .field  2054,16                 ; _$P$T0$2._PLLCNTL2 @ 32
     289 000003 0000          .field  0,16                    ; _$P$T0$2._PLLOUTCNTL @ 48
     290              
     291              $C$DW$43        .dwtag  DW_TAG_variable, DW_AT_name("$P$T0$2")
     292                      .dwattr $C$DW$43, DW_AT_TI_symbol_name("_$P$T0$2")
     293                      .dwattr $C$DW$43, DW_AT_type(*$C$DW$T$34)
     294                      .dwattr $C$DW$43, DW_AT_location[DW_OP_addr _$P$T0$2]
     295              ;       F:\TI_CCS_7P4\ccsv7\tools\compiler\c5500_4.4.1\bin\acp55.exe -@f:\\AppData\\Local\\Temp\\0349612 
     296 000000               .sect   ".text"
     297                      .align 4
     298                      .global _main
     299              
     300              $C$DW$44        .dwtag  DW_TAG_subprogram, DW_AT_name("main")
     301                      .dwattr $C$DW$44, DW_AT_low_pc(_main)
     302                      .dwattr $C$DW$44, DW_AT_high_pc(0x00)
     303                      .dwattr $C$DW$44, DW_AT_TI_symbol_name("_main")
     304                      .dwattr $C$DW$44, DW_AT_external
     305                      .dwattr $C$DW$44, DW_AT_type(*$C$DW$T$10)
     306                      .dwattr $C$DW$44, DW_AT_TI_begin_file("../FreeRTOS/Demo/c5515_CCS/main.c")
     307                      .dwattr $C$DW$44, DW_AT_TI_begin_line(0xdc)
     308                      .dwattr $C$DW$44, DW_AT_TI_begin_column(0x05)
     309                      .dwattr $C$DW$44, DW_AT_TI_max_frame_size(0x06)
     310                      .dwpsn  file "../FreeRTOS/Demo/c5515_CCS/main.c",line 221,column 1,is_stmt,address _main
     311              
     312                      .dwfde $C$DW$CIE, _main
     313              ;*******************************************************************************
     314              ;* FUNCTION NAME: main                                                         *
     315              ;*                                                                             *
     316              ;*   Function Uses Regs : AC0,AC0,T0,AR1,AR2,SP,CARRY,TC1,M40,SATA,SATD,RDM,   *
     317              ;*                        FRCT,SMUL                                            *
     318              ;*   Stack Frame        : Compact (No Frame Pointer, w/ debug)                 *
     319              ;*   Total Frame Size   : 6 words                                              *
     320              ;*                        (2 return address/alignment)                         *
     321              ;*                        (4 local values)                                     *
     322              ;*   Min System Stack   : 1 word                                               *
     323              ;*******************************************************************************
     324 000000       _main:
TMS320C55x Assembler PC v4.4.1 Fri Sep 07 01:41:50 2018

Tools Copyright (c) 1996-2012 Texas Instruments Incorporated
main.asm                                                             PAGE    7

     325                      .dwcfi  cfa_offset, 1
     326                      .dwcfi  save_reg_to_mem, 91, -1
     327 000000 4EFB          AADD #-5, SP
     328                      .dwcfi  cfa_offset, 6
     329              $C$DW$45        .dwtag  DW_TAG_variable, DW_AT_name("i")
     330                      .dwattr $C$DW$45, DW_AT_TI_symbol_name("_i")
     331                      .dwattr $C$DW$45, DW_AT_type(*$C$DW$T$10)
     332                      .dwattr $C$DW$45, DW_AT_location[DW_OP_bregx 0x24 0]
     333              $C$DW$46        .dwtag  DW_TAG_variable, DW_AT_name("temp1")
     334                      .dwattr $C$DW$46, DW_AT_TI_symbol_name("_temp1")
     335                      .dwattr $C$DW$46, DW_AT_type(*$C$DW$T$13)
     336                      .dwattr $C$DW$46, DW_AT_location[DW_OP_bregx 0x24 2]
     337                      .dwpsn  file "../FreeRTOS/Demo/c5515_CCS/main.c",line 224,column 2,is_stmt
     338              $C$DW$47        .dwtag  DW_TAG_TI_branch
     339                      .dwattr $C$DW$47, DW_AT_low_pc(0x00)
     340                      .dwattr $C$DW$47, DW_AT_name("_SYS_GlobalIntDisable")
     341                      .dwattr $C$DW$47, DW_AT_TI_call
     342 000002 0802          CALL #_SYS_GlobalIntDisable ; |224| 
         000004 4B   
     343                                                      ; call occurs [#_SYS_GlobalIntDisable] ; |224| 
     344                      .dwpsn  file "../FreeRTOS/Demo/c5515_CCS/main.c",line 226,column 2,is_stmt
     345 000005 7A00          MOV #(_VECSTART >> 16) << #16, AC0 ; |226| 
         000007 000A%
     346 000009 7E00          OR #(_VECSTART & 0xffff), AC0, AC0 ; |226| 
         00000b 0000%
     347 00000d EB04          MOV AC0, dbl(*SP(#2)) ; |226| 
         00000f 08   
     348                      .dwpsn  file "../FreeRTOS/Demo/c5515_CCS/main.c",line 227,column 2,is_stmt
     349 000010 ED04          MOV dbl(*SP(#2)), AC0 ; |227| 
         000012 08   
     350 000013 1007          SFTL AC0, #-8, AC0 ; |227| 
         000015 38   
     351 000016 EB04          MOV AC0, dbl(*SP(#2)) ; |227| 
         000018 08   
     352                      .dwpsn  file "../FreeRTOS/Demo/c5515_CCS/main.c",line 228,column 2,is_stmt
     353 000019 A906          MOV *SP(#3), AR1 ; |228| 
     354 00001b C931          MOV AR1, *(#73) ; |228| 
         00001d 0000 
         00001f 49   
     355                      .dwpsn  file "../FreeRTOS/Demo/c5515_CCS/main.c",line 229,column 2,is_stmt
     356 000020 C931          MOV AR1, *(#74) ; |229| 
         000022 0000 
         000024 4A   
     357 000025 20            NOP
     358 000026 20            NOP
     359 000027 20            NOP
     360                      .dwpsn  file "../FreeRTOS/Demo/c5515_CCS/main.c",line 231,column 2,is_stmt
     361 000028 4652   bclr C54CM
     362                      .dwpsn  file "../FreeRTOS/Demo/c5515_CCS/main.c",line 234,column 2,is_stmt
     363 00002a DC31          BTST #2, *(#71), TC1 ; |234| 
         00002c 2000 
         00002e 0047 
     364 000030 65E4          BCC $C$L1,TC1 ; |234| 
     365                                                      ; branchcc occurs ; |234| 
     366                      .dwpsn  file "../FreeRTOS/Demo/c5515_CCS/main.c",line 236,column 3,is_stmt
TMS320C55x Assembler PC v4.4.1 Fri Sep 07 01:41:50 2018

Tools Copyright (c) 1996-2012 Texas Instruments Incorporated
main.asm                                                             PAGE    8

     367 000032 F531          OR #0x0004, *(#71) ; |236| 
         000034 0004 
         000036 0000 
         000038 47   
     368                      .dwpsn  file "../FreeRTOS/Demo/c5515_CCS/main.c",line 237,column 3,is_stmt
     369 000039 9400   reset
     370                      .dwpsn  file "../FreeRTOS/Demo/c5515_CCS/main.c",line 238,column 2,is_stmt
     371 00003b 4A07          B $C$L2   ; |238| 
     372                                                      ; branch occurs ; |238| 
     373 00003d       $C$L1:    
     374                      .dwpsn  file "../FreeRTOS/Demo/c5515_CCS/main.c",line 241,column 3,is_stmt
     375 00003d F431          AND #0xfffb, *(#71) ; |241| 
         00003f FFFB 
         000041 0000 
         000043 47   
     376 000044       $C$L2:    
     377                      .dwpsn  file "../FreeRTOS/Demo/c5515_CCS/main.c",line 243,column 3,is_stmt
     378 000044 4652   bclr C54CM
     379                      .dwpsn  file "../FreeRTOS/Demo/c5515_CCS/main.c",line 248,column 6,is_stmt
     380              $C$DW$48        .dwtag  DW_TAG_TI_branch
     381                      .dwattr $C$DW$48, DW_AT_low_pc(0x00)
     382                      .dwattr $C$DW$48, DW_AT_name("_systemInit")
     383                      .dwattr $C$DW$48, DW_AT_TI_call
     384 000046 0803          CALL #_systemInit ; |248| 
         000048 37   
     385                                                      ; call occurs [#_systemInit] ; |248| 
     386                      .dwpsn  file "../FreeRTOS/Demo/c5515_CCS/main.c",line 249,column 6,is_stmt
     387              $C$DW$49        .dwtag  DW_TAG_TI_branch
     388                      .dwattr $C$DW$49, DW_AT_low_pc(0x00)
     389                      .dwattr $C$DW$49, DW_AT_name("_EZDSP5535_init")
     390                      .dwattr $C$DW$49, DW_AT_TI_call
     391 000049 6C00          CALL #_EZDSP5535_init ; |249| 
         00004b 0000!
     392                                                      ; call occurs [#_EZDSP5535_init] ; |249| 
     393                      .dwpsn  file "../FreeRTOS/Demo/c5515_CCS/main.c",line 251,column 6,is_stmt
     394              $C$DW$50        .dwtag  DW_TAG_TI_branch
     395                      .dwattr $C$DW$50, DW_AT_low_pc(0x00)
     396                      .dwattr $C$DW$50, DW_AT_name("_EZDSP5535_LED_init")
     397                      .dwattr $C$DW$50, DW_AT_TI_call
     398 00004d 6C00          CALL #_EZDSP5535_LED_init ; |251| 
         00004f 0000!
     399                                                      ; call occurs [#_EZDSP5535_LED_init] ; |251| 
     400                      .dwpsn  file "../FreeRTOS/Demo/c5515_CCS/main.c",line 252,column 6,is_stmt
     401              $C$DW$51        .dwtag  DW_TAG_TI_branch
     402                      .dwattr $C$DW$51, DW_AT_low_pc(0x00)
     403                      .dwattr $C$DW$51, DW_AT_name("_EZDSP5535_SAR_init")
     404                      .dwattr $C$DW$51, DW_AT_TI_call
     405 000051 6C00          CALL #_EZDSP5535_SAR_init ; |252| 
         000053 0000!
     406                                                      ; call occurs [#_EZDSP5535_SAR_init] ; |252| 
     407                      .dwpsn  file "../FreeRTOS/Demo/c5515_CCS/main.c",line 255,column 6,is_stmt
     408              $C$DW$52        .dwtag  DW_TAG_TI_branch
     409                      .dwattr $C$DW$52, DW_AT_low_pc(0x00)
     410                      .dwattr $C$DW$52, DW_AT_name("_oled_test")
     411                      .dwattr $C$DW$52, DW_AT_TI_call
TMS320C55x Assembler PC v4.4.1 Fri Sep 07 01:41:50 2018

Tools Copyright (c) 1996-2012 Texas Instruments Incorporated
main.asm                                                             PAGE    9

     412              
     413 000055 6C00          CALL #_oled_test ; |255| 
         000057 0000!
     414 000059 3D04  ||      MOV #0, T0
     415              
     416                                                      ; call occurs [#_oled_test] ; |255| 
     417                      .dwpsn  file "../FreeRTOS/Demo/c5515_CCS/main.c",line 256,column 6,is_stmt
     418              $C$DW$53        .dwtag  DW_TAG_TI_branch
     419                      .dwattr $C$DW$53, DW_AT_low_pc(0x00)
     420                      .dwattr $C$DW$53, DW_AT_name("_mem_test")
     421                      .dwattr $C$DW$53, DW_AT_TI_call
     422 00005b 6C00          CALL #_mem_test ; |256| 
         00005d 0000!
     423                                                      ; call occurs [#_mem_test] ; |256| 
     424 00005f 6314          BCC $C$L3,T0 != #0 ; |256| 
     425                                                      ; branchcc occurs ; |256| 
     426                      .dwpsn  file "../FreeRTOS/Demo/c5515_CCS/main.c",line 257,column 10,is_stmt
     427              $C$DW$54        .dwtag  DW_TAG_TI_branch
     428                      .dwattr $C$DW$54, DW_AT_low_pc(0x00)
     429                      .dwattr $C$DW$54, DW_AT_name("_EZDSP5535_LED_on")
     430                      .dwattr $C$DW$54, DW_AT_TI_call
     431              
     432 000061 6C00          CALL #_EZDSP5535_LED_on ; |257| 
         000063 0000!
     433 000065 3D04  ||      MOV #0, T0
     434              
     435                                                      ; call occurs [#_EZDSP5535_LED_on] ; |257| 
     436 000067       $C$L3:    
     437                      .dwpsn  file "../FreeRTOS/Demo/c5515_CCS/main.c",line 258,column 6,is_stmt
     438              $C$DW$55        .dwtag  DW_TAG_TI_branch
     439                      .dwattr $C$DW$55, DW_AT_low_pc(0x00)
     440                      .dwattr $C$DW$55, DW_AT_name("_oled_test")
     441                      .dwattr $C$DW$55, DW_AT_TI_call
     442              
     443 000067 6C00          CALL #_oled_test ; |258| 
         000069 0000!
     444 00006b 3D44  ||      MOV #4, T0
     445              
     446                                                      ; call occurs [#_oled_test] ; |258| 
     447                      .dwpsn  file "../FreeRTOS/Demo/c5515_CCS/main.c",line 259,column 12,is_stmt
     448              $C$DW$56        .dwtag  DW_TAG_TI_branch
     449                      .dwattr $C$DW$56, DW_AT_low_pc(0x00)
     450                      .dwattr $C$DW$56, DW_AT_name("_EZDSP5535_SAR_getKey")
     451                      .dwattr $C$DW$56, DW_AT_TI_call
     452 00006d 6C00          CALL #_EZDSP5535_SAR_getKey ; |259| 
         00006f 0000!
     453                                                      ; call occurs [#_EZDSP5535_SAR_getKey] ; |259| 
     454 000071 7602          MOV #680, AR1 ; |259| 
         000073 A898 
     455 000075 1240          CMPU T0 == AR1, TC1 ; |259| 
         000077 94   
     456 000078 6764          BCC $C$L5,TC1 ; |259| 
     457                                                      ; branchcc occurs ; |259| 
     458              $C$L4:    
     459              $C$DW$L$_main$7$B:
TMS320C55x Assembler PC v4.4.1 Fri Sep 07 01:41:50 2018

Tools Copyright (c) 1996-2012 Texas Instruments Incorporated
main.asm                                                             PAGE   10

     460              $C$DW$57        .dwtag  DW_TAG_TI_branch
     461                      .dwattr $C$DW$57, DW_AT_low_pc(0x00)
     462                      .dwattr $C$DW$57, DW_AT_name("_EZDSP5535_SAR_getKey")
     463                      .dwattr $C$DW$57, DW_AT_TI_call
     464 00007a 6C00          CALL #_EZDSP5535_SAR_getKey ; |259| 
         00007c 0000!
     465                                                      ; call occurs [#_EZDSP5535_SAR_getKey] ; |259| 
     466 00007e 7602          MOV #680, AR1 ; |259| 
         000080 A898 
     467 000082 124C          CMPU T0 != AR1, TC1 ; |259| 
         000084 94   
     468 000085 0464          BCC $C$L4,TC1 ; |259| 
         000087 F2   
     469                                                      ; branchcc occurs ; |259| 
     470 000088       $C$DW$L$_main$7$E:
     471 000088       $C$L5:    
     472                      .dwpsn  file "../FreeRTOS/Demo/c5515_CCS/main.c",line 260,column 12,is_stmt
     473              $C$DW$58        .dwtag  DW_TAG_TI_branch
     474                      .dwattr $C$DW$58, DW_AT_low_pc(0x00)
     475                      .dwattr $C$DW$58, DW_AT_name("_EZDSP5535_SAR_getKey")
     476                      .dwattr $C$DW$58, DW_AT_TI_call
     477 000088 6C00          CALL #_EZDSP5535_SAR_getKey ; |260| 
         00008a 0000!
     478                                                      ; call occurs [#_EZDSP5535_SAR_getKey] ; |260| 
     479 00008c 7601          MOV #510, AR1 ; |260| 
         00008e FE98 
     480 000090 1240          CMPU T0 == AR1, TC1 ; |260| 
         000092 94   
     481 000093 6764          BCC $C$L7,TC1 ; |260| 
     482                                                      ; branchcc occurs ; |260| 
     483              $C$L6:    
     484              $C$DW$L$_main$9$B:
     485              $C$DW$59        .dwtag  DW_TAG_TI_branch
     486                      .dwattr $C$DW$59, DW_AT_low_pc(0x00)
     487                      .dwattr $C$DW$59, DW_AT_name("_EZDSP5535_SAR_getKey")
     488                      .dwattr $C$DW$59, DW_AT_TI_call
     489 000095 6C00          CALL #_EZDSP5535_SAR_getKey ; |260| 
         000097 0000!
     490                                                      ; call occurs [#_EZDSP5535_SAR_getKey] ; |260| 
     491 000099 7601          MOV #510, AR1 ; |260| 
         00009b FE98 
     492 00009d 124C          CMPU T0 != AR1, TC1 ; |260| 
         00009f 94   
     493 0000a0 0464          BCC $C$L6,TC1 ; |260| 
         0000a2 F2   
     494                                                      ; branchcc occurs ; |260| 
     495 0000a3       $C$DW$L$_main$9$E:
     496 0000a3       $C$L7:    
     497                      .dwpsn  file "../FreeRTOS/Demo/c5515_CCS/main.c",line 263,column 6,is_stmt
     498              $C$DW$60        .dwtag  DW_TAG_TI_branch
     499                      .dwattr $C$DW$60, DW_AT_low_pc(0x00)
     500                      .dwattr $C$DW$60, DW_AT_name("_oled_test")
     501                      .dwattr $C$DW$60, DW_AT_TI_call
     502              
     503 0000a3 6C00          CALL #_oled_test ; |263| 
TMS320C55x Assembler PC v4.4.1 Fri Sep 07 01:41:50 2018

Tools Copyright (c) 1996-2012 Texas Instruments Incorporated
main.asm                                                             PAGE   11

         0000a5 0000!
     504 0000a7 3D14  ||      MOV #1, T0
     505              
     506                                                      ; call occurs [#_oled_test] ; |263| 
     507                      .dwpsn  file "../FreeRTOS/Demo/c5515_CCS/main.c",line 264,column 6,is_stmt
     508              $C$DW$61        .dwtag  DW_TAG_TI_branch
     509                      .dwattr $C$DW$61, DW_AT_low_pc(0x00)
     510                      .dwattr $C$DW$61, DW_AT_name("_spiflash_test")
     511                      .dwattr $C$DW$61, DW_AT_TI_call
     512 0000a9 6C00          CALL #_spiflash_test ; |264| 
         0000ab 0000!
     513                                                      ; call occurs [#_spiflash_test] ; |264| 
     514 0000ad 6314          BCC $C$L8,T0 != #0 ; |264| 
     515                                                      ; branchcc occurs ; |264| 
     516                      .dwpsn  file "../FreeRTOS/Demo/c5515_CCS/main.c",line 265,column 10,is_stmt
     517              $C$DW$62        .dwtag  DW_TAG_TI_branch
     518                      .dwattr $C$DW$62, DW_AT_low_pc(0x00)
     519                      .dwattr $C$DW$62, DW_AT_name("_EZDSP5535_LED_on")
     520                      .dwattr $C$DW$62, DW_AT_TI_call
     521              
     522 0000af 6C00          CALL #_EZDSP5535_LED_on ; |265| 
         0000b1 0000!
     523 0000b3 3D14  ||      MOV #1, T0
     524              
     525                                                      ; call occurs [#_EZDSP5535_LED_on] ; |265| 
     526 0000b5       $C$L8:    
     527                      .dwpsn  file "../FreeRTOS/Demo/c5515_CCS/main.c",line 266,column 6,is_stmt
     528              $C$DW$63        .dwtag  DW_TAG_TI_branch
     529                      .dwattr $C$DW$63, DW_AT_low_pc(0x00)
     530                      .dwattr $C$DW$63, DW_AT_name("_oled_test")
     531                      .dwattr $C$DW$63, DW_AT_TI_call
     532              
     533 0000b5 6C00          CALL #_oled_test ; |266| 
         0000b7 0000!
     534 0000b9 3D44  ||      MOV #4, T0
     535              
     536                                                      ; call occurs [#_oled_test] ; |266| 
     537                      .dwpsn  file "../FreeRTOS/Demo/c5515_CCS/main.c",line 267,column 12,is_stmt
     538              $C$DW$64        .dwtag  DW_TAG_TI_branch
     539                      .dwattr $C$DW$64, DW_AT_low_pc(0x00)
     540                      .dwattr $C$DW$64, DW_AT_name("_EZDSP5535_SAR_getKey")
     541                      .dwattr $C$DW$64, DW_AT_TI_call
     542 0000bb 6C00          CALL #_EZDSP5535_SAR_getKey ; |267| 
         0000bd 0000!
     543                                                      ; call occurs [#_EZDSP5535_SAR_getKey] ; |267| 
     544 0000bf 7602          MOV #680, AR1 ; |267| 
         0000c1 A898 
     545 0000c3 1240          CMPU T0 == AR1, TC1 ; |267| 
         0000c5 94   
     546 0000c6 6764          BCC $C$L10,TC1 ; |267| 
     547                                                      ; branchcc occurs ; |267| 
     548              $C$L9:    
     549              $C$DW$L$_main$13$B:
     550              $C$DW$65        .dwtag  DW_TAG_TI_branch
     551                      .dwattr $C$DW$65, DW_AT_low_pc(0x00)
TMS320C55x Assembler PC v4.4.1 Fri Sep 07 01:41:50 2018

Tools Copyright (c) 1996-2012 Texas Instruments Incorporated
main.asm                                                             PAGE   12

     552                      .dwattr $C$DW$65, DW_AT_name("_EZDSP5535_SAR_getKey")
     553                      .dwattr $C$DW$65, DW_AT_TI_call
     554 0000c8 6C00          CALL #_EZDSP5535_SAR_getKey ; |267| 
         0000ca 0000!
     555                                                      ; call occurs [#_EZDSP5535_SAR_getKey] ; |267| 
     556 0000cc 7602          MOV #680, AR1 ; |267| 
         0000ce A898 
     557 0000d0 124C          CMPU T0 != AR1, TC1 ; |267| 
         0000d2 94   
     558 0000d3 0464          BCC $C$L9,TC1 ; |267| 
         0000d5 F2   
     559                                                      ; branchcc occurs ; |267| 
     560 0000d6       $C$DW$L$_main$13$E:
     561 0000d6       $C$L10:    
     562                      .dwpsn  file "../FreeRTOS/Demo/c5515_CCS/main.c",line 268,column 12,is_stmt
     563              $C$DW$66        .dwtag  DW_TAG_TI_branch
     564                      .dwattr $C$DW$66, DW_AT_low_pc(0x00)
     565                      .dwattr $C$DW$66, DW_AT_name("_EZDSP5535_SAR_getKey")
     566                      .dwattr $C$DW$66, DW_AT_TI_call
     567 0000d6 6C00          CALL #_EZDSP5535_SAR_getKey ; |268| 
         0000d8 0000!
     568                                                      ; call occurs [#_EZDSP5535_SAR_getKey] ; |268| 
     569 0000da 7601          MOV #510, AR1 ; |268| 
         0000dc FE98 
     570 0000de 1240          CMPU T0 == AR1, TC1 ; |268| 
         0000e0 94   
     571 0000e1 6764          BCC $C$L12,TC1 ; |268| 
     572                                                      ; branchcc occurs ; |268| 
     573              $C$L11:    
     574              $C$DW$L$_main$15$B:
     575              $C$DW$67        .dwtag  DW_TAG_TI_branch
     576                      .dwattr $C$DW$67, DW_AT_low_pc(0x00)
     577                      .dwattr $C$DW$67, DW_AT_name("_EZDSP5535_SAR_getKey")
     578                      .dwattr $C$DW$67, DW_AT_TI_call
     579 0000e3 6C00          CALL #_EZDSP5535_SAR_getKey ; |268| 
         0000e5 0000!
     580                                                      ; call occurs [#_EZDSP5535_SAR_getKey] ; |268| 
     581 0000e7 7601          MOV #510, AR1 ; |268| 
         0000e9 FE98 
     582 0000eb 124C          CMPU T0 != AR1, TC1 ; |268| 
         0000ed 94   
     583 0000ee 0464          BCC $C$L11,TC1 ; |268| 
         0000f0 F2   
     584                                                      ; branchcc occurs ; |268| 
     585 0000f1       $C$DW$L$_main$15$E:
     586 0000f1       $C$L12:    
     587                      .dwpsn  file "../FreeRTOS/Demo/c5515_CCS/main.c",line 279,column 6,is_stmt
     588              $C$DW$68        .dwtag  DW_TAG_TI_branch
     589                      .dwattr $C$DW$68, DW_AT_low_pc(0x00)
     590                      .dwattr $C$DW$68, DW_AT_name("_oled_test")
     591                      .dwattr $C$DW$68, DW_AT_TI_call
     592              
     593 0000f1 6C00          CALL #_oled_test ; |279| 
         0000f3 0000!
     594 0000f5 3D34  ||      MOV #3, T0
TMS320C55x Assembler PC v4.4.1 Fri Sep 07 01:41:50 2018

Tools Copyright (c) 1996-2012 Texas Instruments Incorporated
main.asm                                                             PAGE   13

     595              
     596                                                      ; call occurs [#_oled_test] ; |279| 
     597                      .dwpsn  file "../FreeRTOS/Demo/c5515_CCS/main.c",line 280,column 6,is_stmt
     598              $C$DW$69        .dwtag  DW_TAG_TI_branch
     599                      .dwattr $C$DW$69, DW_AT_low_pc(0x00)
     600                      .dwattr $C$DW$69, DW_AT_name("_EZDSP5535_LED_on")
     601                      .dwattr $C$DW$69, DW_AT_TI_call
     602              
     603 0000f7 6C00          CALL #_EZDSP5535_LED_on ; |280| 
         0000f9 0000!
     604 0000fb 3D34  ||      MOV #3, T0
     605              
     606                                                      ; call occurs [#_EZDSP5535_LED_on] ; |280| 
     607                      .dwpsn  file "../FreeRTOS/Demo/c5515_CCS/main.c",line 290,column 2,is_stmt
     608              $C$DW$70        .dwtag  DW_TAG_TI_branch
     609                      .dwattr $C$DW$70, DW_AT_low_pc(0x00)
     610                      .dwattr $C$DW$70, DW_AT_name("_prvSetupHardware")
     611                      .dwattr $C$DW$70, DW_AT_TI_call
     612 0000fd 0800          CALL #_prvSetupHardware ; |290| 
         0000ff 8C   
     613                                                      ; call occurs [#_prvSetupHardware] ; |290| 
     614                      .dwpsn  file "../FreeRTOS/Demo/c5515_CCS/main.c",line 309,column 9,is_stmt
     615              $C$DW$71        .dwtag  DW_TAG_TI_branch
     616                      .dwattr $C$DW$71, DW_AT_low_pc(0x00)
     617                      .dwattr $C$DW$71, DW_AT_name("_BlinkLED")
     618                      .dwattr $C$DW$71, DW_AT_TI_call
     619 000100 0801          CALL #_BlinkLED ; |309| 
         000102 B9   
     620                                                      ; call occurs [#_BlinkLED] ; |309| 
     621                      .dwpsn  file "../FreeRTOS/Demo/c5515_CCS/main.c",line 312,column 11,is_stmt
     622 000103 E600          MOV #0, *SP(#0) ; |312| 
         000105 00   
     623                      .dwpsn  file "../FreeRTOS/Demo/c5515_CCS/main.c",line 312,column 19,is_stmt
     624              
     625 000106 A900          MOV *SP(#0), AR1 ; |312| 
     626 000108 3D4A  ||      MOV #4, AR2
     627              
     628 00010a 1298          CMP AR1 >= AR2, TC1 ; |312| 
         00010c A0   
     629 00010d 0464          BCC $C$L14,TC1 ; |312| 
         00010f 20   
     630                                                      ; branchcc occurs ; |312| 
     631 000110       $C$L13:    
     632 000110       $C$DW$L$_main$17$B:
     633                      .dwpsn  file "../FreeRTOS/Demo/c5515_CCS/main.c",line 314,column 9,is_stmt
     634 000110 A400          MOV *SP(#0), T0 ; |314| 
     635              $C$DW$72        .dwtag  DW_TAG_TI_branch
     636                      .dwattr $C$DW$72, DW_AT_low_pc(0x00)
     637                      .dwattr $C$DW$72, DW_AT_name("_EZDSP5535_LED_off")
     638                      .dwattr $C$DW$72, DW_AT_TI_call
     639 000112 6C00          CALL #_EZDSP5535_LED_off ; |314| 
         000114 0000!
     640                                                      ; call occurs [#_EZDSP5535_LED_off] ; |314| 
     641                      .dwpsn  file "../FreeRTOS/Demo/c5515_CCS/main.c",line 315,column 9,is_stmt
     642 000116 76C3          MOV #50000, AR1 ; |315| 
TMS320C55x Assembler PC v4.4.1 Fri Sep 07 01:41:50 2018

Tools Copyright (c) 1996-2012 Texas Instruments Incorporated
main.asm                                                             PAGE   14

         000118 5098 
     643 00011a 7DFF          AND #0xffff, AR1, AC0 ; |315| 
         00011c FF09 
     644              $C$DW$73        .dwtag  DW_TAG_TI_branch
     645                      .dwattr $C$DW$73, DW_AT_low_pc(0x00)
     646                      .dwattr $C$DW$73, DW_AT_name("_EZDSP5535_waitusec")
     647                      .dwattr $C$DW$73, DW_AT_TI_call
     648 00011e 6C00          CALL #_EZDSP5535_waitusec ; |315| 
         000120 0000!
     649                                                      ; call occurs [#_EZDSP5535_waitusec] ; |315| 
     650                      .dwpsn  file "../FreeRTOS/Demo/c5515_CCS/main.c",line 312,column 27,is_stmt
     651 000122 F700          ADD #1, *SP(#0) ; |312| 
         000124 0001 
     652                      .dwpsn  file "../FreeRTOS/Demo/c5515_CCS/main.c",line 312,column 19,is_stmt
     653              
     654 000126 A900          MOV *SP(#0), AR1 ; |312| 
     655 000128 3D4A  ||      MOV #4, AR2
     656              
     657 00012a 1294          CMP AR1 < AR2, TC1 ; |312| 
         00012c A0   
     658 00012d 0464          BCC $C$L13,TC1 ; |312| 
         00012f E0   
     659                                                      ; branchcc occurs ; |312| 
     660 000130       $C$DW$L$_main$17$E:
     661 000130       $C$L14:    
     662                      .dwpsn  file "../FreeRTOS/Demo/c5515_CCS/main.c",line 317,column 11,is_stmt
     663 000130 E600          MOV #0, *SP(#0) ; |317| 
         000132 00   
     664                      .dwpsn  file "../FreeRTOS/Demo/c5515_CCS/main.c",line 317,column 19,is_stmt
     665 000133 A900          MOV *SP(#0), AR1 ; |317| 
     666 000135 1298          CMP AR1 >= AR2, TC1 ; |317| 
         000137 A0   
     667 000138 0464          BCC $C$L16,TC1 ; |317| 
         00013a 20   
     668                                                      ; branchcc occurs ; |317| 
     669 00013b       $C$L15:    
     670 00013b       $C$DW$L$_main$19$B:
     671                      .dwpsn  file "../FreeRTOS/Demo/c5515_CCS/main.c",line 319,column 13,is_stmt
     672 00013b A400          MOV *SP(#0), T0 ; |319| 
     673              $C$DW$74        .dwtag  DW_TAG_TI_branch
     674                      .dwattr $C$DW$74, DW_AT_low_pc(0x00)
     675                      .dwattr $C$DW$74, DW_AT_name("_EZDSP5535_LED_on")
     676                      .dwattr $C$DW$74, DW_AT_TI_call
     677 00013d 6C00          CALL #_EZDSP5535_LED_on ; |319| 
         00013f 0000!
     678                                                      ; call occurs [#_EZDSP5535_LED_on] ; |319| 
     679                      .dwpsn  file "../FreeRTOS/Demo/c5515_CCS/main.c",line 320,column 13,is_stmt
     680 000141 76C3          MOV #50000, AR1 ; |320| 
         000143 5098 
     681 000145 7DFF          AND #0xffff, AR1, AC0 ; |320| 
         000147 FF09 
     682              $C$DW$75        .dwtag  DW_TAG_TI_branch
     683                      .dwattr $C$DW$75, DW_AT_low_pc(0x00)
     684                      .dwattr $C$DW$75, DW_AT_name("_EZDSP5535_waitusec")
     685                      .dwattr $C$DW$75, DW_AT_TI_call
TMS320C55x Assembler PC v4.4.1 Fri Sep 07 01:41:50 2018

Tools Copyright (c) 1996-2012 Texas Instruments Incorporated
main.asm                                                             PAGE   15

     686 000149 6C00          CALL #_EZDSP5535_waitusec ; |320| 
         00014b 0000!
     687                                                      ; call occurs [#_EZDSP5535_waitusec] ; |320| 
     688                      .dwpsn  file "../FreeRTOS/Demo/c5515_CCS/main.c",line 317,column 27,is_stmt
     689 00014d F700          ADD #1, *SP(#0) ; |317| 
         00014f 0001 
     690                      .dwpsn  file "../FreeRTOS/Demo/c5515_CCS/main.c",line 317,column 19,is_stmt
     691              
     692 000151 A900          MOV *SP(#0), AR1 ; |317| 
     693 000153 3D4A  ||      MOV #4, AR2
     694              
     695 000155 1294          CMP AR1 < AR2, TC1 ; |317| 
         000157 A0   
     696 000158 0464          BCC $C$L15,TC1 ; |317| 
         00015a E0   
     697                                                      ; branchcc occurs ; |317| 
     698 00015b       $C$DW$L$_main$19$E:
     699 00015b       $C$L16:    
     700                      .dwpsn  file "../FreeRTOS/Demo/c5515_CCS/main.c",line 377,column 2,is_stmt
     701              $C$DW$76        .dwtag  DW_TAG_TI_branch
     702                      .dwattr $C$DW$76, DW_AT_low_pc(0x00)
     703                      .dwattr $C$DW$76, DW_AT_name("_vStartLEDFlashTasks")
     704                      .dwattr $C$DW$76, DW_AT_TI_call
     705              
     706 00015b 6C00          CALL #_vStartLEDFlashTasks ; |377| 
         00015d 0000!
     707 00015f 3D14  ||      MOV #1, T0
     708              
     709                                                      ; call occurs [#_vStartLEDFlashTasks] ; |377| 
     710                      .dwpsn  file "../FreeRTOS/Demo/c5515_CCS/main.c",line 384,column 2,is_stmt
     711              $C$DW$77        .dwtag  DW_TAG_TI_branch
     712                      .dwattr $C$DW$77, DW_AT_low_pc(0x00)
     713                      .dwattr $C$DW$77, DW_AT_name("_SYS_GlobalIntDisable")
     714                      .dwattr $C$DW$77, DW_AT_TI_call
     715 000161 0800          CALL #_SYS_GlobalIntDisable ; |384| 
         000163 EC   
     716                                                      ; call occurs [#_SYS_GlobalIntDisable] ; |384| 
     717                      .dwpsn  file "../FreeRTOS/Demo/c5515_CCS/main.c",line 386,column 2,is_stmt
     718 000164 F431          AND #0xdfff, *(#0) ; |386| 
         000166 DFFF 
         000168 0000 
         00016a 00   
     719                      .dwpsn  file "../FreeRTOS/Demo/c5515_CCS/main.c",line 388,column 2,is_stmt
     720              $C$DW$78        .dwtag  DW_TAG_TI_branch
     721                      .dwattr $C$DW$78, DW_AT_low_pc(0x00)
     722                      .dwattr $C$DW$78, DW_AT_name("_SYS_GlobalIntEnable")
     723                      .dwattr $C$DW$78, DW_AT_TI_call
     724 00016b 0800          CALL #_SYS_GlobalIntEnable ; |388| 
         00016d DA   
     725                                                      ; call occurs [#_SYS_GlobalIntEnable] ; |388| 
     726                      .dwpsn  file "../FreeRTOS/Demo/c5515_CCS/main.c",line 394,column 2,is_stmt
     727 00016e 76C3          MOV #50000, AR1 ; |394| 
         000170 5098 
     728 000172 7DFF          AND #0xffff, AR1, AC0 ; |394| 
         000174 FF09 
TMS320C55x Assembler PC v4.4.1 Fri Sep 07 01:41:50 2018

Tools Copyright (c) 1996-2012 Texas Instruments Incorporated
main.asm                                                             PAGE   16

     729              $C$DW$79        .dwtag  DW_TAG_TI_branch
     730                      .dwattr $C$DW$79, DW_AT_low_pc(0x00)
     731                      .dwattr $C$DW$79, DW_AT_name("_EZDSP5535_waitusec")
     732                      .dwattr $C$DW$79, DW_AT_TI_call
     733 000176 6C00          CALL #_EZDSP5535_waitusec ; |394| 
         000178 0000!
     734                                                      ; call occurs [#_EZDSP5535_waitusec] ; |394| 
     735                      .dwpsn  file "../FreeRTOS/Demo/c5515_CCS/main.c",line 395,column 2,is_stmt
     736              $C$DW$80        .dwtag  DW_TAG_TI_branch
     737                      .dwattr $C$DW$80, DW_AT_low_pc(0x00)
     738                      .dwattr $C$DW$80, DW_AT_name("_oled_test")
     739                      .dwattr $C$DW$80, DW_AT_TI_call
     740              
     741 00017a 6C00          CALL #_oled_test ; |395| 
         00017c 0000!
     742 00017e 3D54  ||      MOV #5, T0
     743              
     744                                                      ; call occurs [#_oled_test] ; |395| 
     745                      .dwpsn  file "../FreeRTOS/Demo/c5515_CCS/main.c",line 396,column 2,is_stmt
     746              $C$DW$81        .dwtag  DW_TAG_TI_branch
     747                      .dwattr $C$DW$81, DW_AT_low_pc(0x00)
     748                      .dwattr $C$DW$81, DW_AT_name("_vTaskStartScheduler")
     749                      .dwattr $C$DW$81, DW_AT_TI_call
     750 000180 6C00          CALL #_vTaskStartScheduler ; |396| 
         000182 0000!
     751                                                      ; call occurs [#_vTaskStartScheduler] ; |396| 
     752                      .dwpsn  file "../FreeRTOS/Demo/c5515_CCS/main.c",line 400,column 2,is_stmt
     753 000184 3C04          MOV #0, T0
     754                      .dwpsn  file "../FreeRTOS/Demo/c5515_CCS/main.c",line 401,column 1,is_stmt
     755 000186 4E05          AADD #5, SP
     756                      .dwcfi  cfa_offset, 1
     757              $C$DW$82        .dwtag  DW_TAG_TI_branch
     758                      .dwattr $C$DW$82, DW_AT_low_pc(0x00)
     759                      .dwattr $C$DW$82, DW_AT_TI_return
     760 000188 4804          RET
     761                                                      ; return occurs
     762              
     763              $C$DW$83        .dwtag  DW_TAG_TI_loop
     764                      .dwattr $C$DW$83, DW_AT_name("F:\site\eZDSP\eZDSP_5535_Files\ccsws2\test\Debug\main.asm:$C$L15:1:1536
     765                      .dwattr $C$DW$83, DW_AT_TI_begin_file("../FreeRTOS/Demo/c5515_CCS/main.c")
     766                      .dwattr $C$DW$83, DW_AT_TI_begin_line(0x13d)
     767                      .dwattr $C$DW$83, DW_AT_TI_end_line(0x141)
     768              $C$DW$84        .dwtag  DW_TAG_TI_loop_range
     769                      .dwattr $C$DW$84, DW_AT_low_pc($C$DW$L$_main$19$B)
     770                      .dwattr $C$DW$84, DW_AT_high_pc($C$DW$L$_main$19$E)
     771                      .dwendtag $C$DW$83
     772              
     773              
     774              $C$DW$85        .dwtag  DW_TAG_TI_loop
     775                      .dwattr $C$DW$85, DW_AT_name("F:\site\eZDSP\eZDSP_5535_Files\ccsws2\test\Debug\main.asm:$C$L13:1:1536
     776                      .dwattr $C$DW$85, DW_AT_TI_begin_file("../FreeRTOS/Demo/c5515_CCS/main.c")
     777                      .dwattr $C$DW$85, DW_AT_TI_begin_line(0x138)
     778                      .dwattr $C$DW$85, DW_AT_TI_end_line(0x13c)
     779              $C$DW$86        .dwtag  DW_TAG_TI_loop_range
     780                      .dwattr $C$DW$86, DW_AT_low_pc($C$DW$L$_main$17$B)
TMS320C55x Assembler PC v4.4.1 Fri Sep 07 01:41:50 2018

Tools Copyright (c) 1996-2012 Texas Instruments Incorporated
main.asm                                                             PAGE   17

     781                      .dwattr $C$DW$86, DW_AT_high_pc($C$DW$L$_main$17$E)
     782                      .dwendtag $C$DW$85
     783              
     784              
     785              $C$DW$87        .dwtag  DW_TAG_TI_loop
     786                      .dwattr $C$DW$87, DW_AT_name("F:\site\eZDSP\eZDSP_5535_Files\ccsws2\test\Debug\main.asm:$C$L11:1:1536
     787                      .dwattr $C$DW$87, DW_AT_TI_begin_file("../FreeRTOS/Demo/c5515_CCS/main.c")
     788                      .dwattr $C$DW$87, DW_AT_TI_begin_line(0x10c)
     789                      .dwattr $C$DW$87, DW_AT_TI_end_line(0x10c)
     790              $C$DW$88        .dwtag  DW_TAG_TI_loop_range
     791                      .dwattr $C$DW$88, DW_AT_low_pc($C$DW$L$_main$15$B)
     792                      .dwattr $C$DW$88, DW_AT_high_pc($C$DW$L$_main$15$E)
     793                      .dwendtag $C$DW$87
     794              
     795              
     796              $C$DW$89        .dwtag  DW_TAG_TI_loop
     797                      .dwattr $C$DW$89, DW_AT_name("F:\site\eZDSP\eZDSP_5535_Files\ccsws2\test\Debug\main.asm:$C$L9:1:15363
     798                      .dwattr $C$DW$89, DW_AT_TI_begin_file("../FreeRTOS/Demo/c5515_CCS/main.c")
     799                      .dwattr $C$DW$89, DW_AT_TI_begin_line(0x10b)
     800                      .dwattr $C$DW$89, DW_AT_TI_end_line(0x10b)
     801              $C$DW$90        .dwtag  DW_TAG_TI_loop_range
     802                      .dwattr $C$DW$90, DW_AT_low_pc($C$DW$L$_main$13$B)
     803                      .dwattr $C$DW$90, DW_AT_high_pc($C$DW$L$_main$13$E)
     804                      .dwendtag $C$DW$89
     805              
     806              
     807              $C$DW$91        .dwtag  DW_TAG_TI_loop
     808                      .dwattr $C$DW$91, DW_AT_name("F:\site\eZDSP\eZDSP_5535_Files\ccsws2\test\Debug\main.asm:$C$L6:1:15363
     809                      .dwattr $C$DW$91, DW_AT_TI_begin_file("../FreeRTOS/Demo/c5515_CCS/main.c")
     810                      .dwattr $C$DW$91, DW_AT_TI_begin_line(0x104)
     811                      .dwattr $C$DW$91, DW_AT_TI_end_line(0x104)
     812              $C$DW$92        .dwtag  DW_TAG_TI_loop_range
     813                      .dwattr $C$DW$92, DW_AT_low_pc($C$DW$L$_main$9$B)
     814                      .dwattr $C$DW$92, DW_AT_high_pc($C$DW$L$_main$9$E)
     815                      .dwendtag $C$DW$91
     816              
     817              
     818              $C$DW$93        .dwtag  DW_TAG_TI_loop
     819                      .dwattr $C$DW$93, DW_AT_name("F:\site\eZDSP\eZDSP_5535_Files\ccsws2\test\Debug\main.asm:$C$L4:1:15363
     820                      .dwattr $C$DW$93, DW_AT_TI_begin_file("../FreeRTOS/Demo/c5515_CCS/main.c")
     821                      .dwattr $C$DW$93, DW_AT_TI_begin_line(0x103)
     822                      .dwattr $C$DW$93, DW_AT_TI_end_line(0x103)
     823              $C$DW$94        .dwtag  DW_TAG_TI_loop_range
     824                      .dwattr $C$DW$94, DW_AT_low_pc($C$DW$L$_main$7$B)
     825                      .dwattr $C$DW$94, DW_AT_high_pc($C$DW$L$_main$7$E)
     826                      .dwendtag $C$DW$93
     827              
     828                      .dwattr $C$DW$44, DW_AT_TI_end_file("../FreeRTOS/Demo/c5515_CCS/main.c")
     829                      .dwattr $C$DW$44, DW_AT_TI_end_line(0x191)
     830                      .dwattr $C$DW$44, DW_AT_TI_end_column(0x01)
     831                      .dwendentry
     832                      .dwendtag $C$DW$44
     833              
     834 00018a               .sect   ".text"
     835                      .align 4
TMS320C55x Assembler PC v4.4.1 Fri Sep 07 01:41:50 2018

Tools Copyright (c) 1996-2012 Texas Instruments Incorporated
main.asm                                                             PAGE   18

     836              
     837              $C$DW$95        .dwtag  DW_TAG_subprogram, DW_AT_name("prvSetupHardware")
     838                      .dwattr $C$DW$95, DW_AT_low_pc(_prvSetupHardware)
     839                      .dwattr $C$DW$95, DW_AT_high_pc(0x00)
     840                      .dwattr $C$DW$95, DW_AT_TI_symbol_name("_prvSetupHardware")
     841                      .dwattr $C$DW$95, DW_AT_TI_begin_file("../FreeRTOS/Demo/c5515_CCS/main.c")
     842                      .dwattr $C$DW$95, DW_AT_TI_begin_line(0x1df)
     843                      .dwattr $C$DW$95, DW_AT_TI_begin_column(0x0d)
     844                      .dwattr $C$DW$95, DW_AT_TI_max_frame_size(0x02)
     845                      .dwpsn  file "../FreeRTOS/Demo/c5515_CCS/main.c",line 480,column 1,is_stmt,address _prvSetupHardware
     846              
     847                      .dwfde $C$DW$CIE, _prvSetupHardware
     848              ;*******************************************************************************
     849              ;* FUNCTION NAME: prvSetupHardware                                             *
     850              ;*                                                                             *
     851              ;*   Function Uses Regs : SP,M40,SATA,SATD,RDM,FRCT,SMUL                       *
     852              ;*   Stack Frame        : Compact (No Frame Pointer, w/ debug)                 *
     853              ;*   Total Frame Size   : 2 words                                              *
     854              ;*                        (2 return address/alignment)                         *
     855              ;*   Min System Stack   : 1 word                                               *
     856              ;*******************************************************************************
     857 00018c       _prvSetupHardware:
     858                      .dwcfi  cfa_offset, 1
     859                      .dwcfi  save_reg_to_mem, 91, -1
     860 00018c 4EFF          AADD #-1, SP
     861                      .dwcfi  cfa_offset, 2
     862                      .dwpsn  file "../FreeRTOS/Demo/c5515_CCS/main.c",line 493,column 9,is_stmt
     863              $C$DW$96        .dwtag  DW_TAG_TI_branch
     864                      .dwattr $C$DW$96, DW_AT_low_pc(0x00)
     865                      .dwattr $C$DW$96, DW_AT_name("_RTC_reset")
     866                      .dwattr $C$DW$96, DW_AT_TI_call
     867 00018e 6C00          CALL #_RTC_reset ; |493| 
         000190 0000!
     868                                                      ; call occurs [#_RTC_reset] ; |493| 
     869                      .dwpsn  file "../FreeRTOS/Demo/c5515_CCS/main.c",line 494,column 2,is_stmt
     870              $C$DW$97        .dwtag  DW_TAG_TI_branch
     871                      .dwattr $C$DW$97, DW_AT_low_pc(0x00)
     872                      .dwattr $C$DW$97, DW_AT_name("_reset_RTC")
     873                      .dwattr $C$DW$97, DW_AT_TI_call
     874 000192 6C00          CALL #_reset_RTC ; |494| 
         000194 0000!
     875                                                      ; call occurs [#_reset_RTC] ; |494| 
     876                      .dwpsn  file "../FreeRTOS/Demo/c5515_CCS/main.c",line 498,column 2,is_stmt
     877              $C$DW$98        .dwtag  DW_TAG_TI_branch
     878                      .dwattr $C$DW$98, DW_AT_low_pc(0x00)
     879                      .dwattr $C$DW$98, DW_AT_name("_set_i2s0_slave")
     880                      .dwattr $C$DW$98, DW_AT_TI_call
     881 000196 6C00          CALL #_set_i2s0_slave ; |498| 
         000198 0000!
     882                                                      ; call occurs [#_set_i2s0_slave] ; |498| 
     883                      .dwpsn  file "../FreeRTOS/Demo/c5515_CCS/main.c",line 499,column 2,is_stmt
     884              $C$DW$99        .dwtag  DW_TAG_TI_branch
     885                      .dwattr $C$DW$99, DW_AT_low_pc(0x00)
     886                      .dwattr $C$DW$99, DW_AT_name("_enable_i2s0")
     887                      .dwattr $C$DW$99, DW_AT_TI_call
TMS320C55x Assembler PC v4.4.1 Fri Sep 07 01:41:50 2018

Tools Copyright (c) 1996-2012 Texas Instruments Incorporated
main.asm                                                             PAGE   19

     888 00019a 6C00          CALL #_enable_i2s0 ; |499| 
         00019c 0000!
     889                                                      ; call occurs [#_enable_i2s0] ; |499| 
     890                      .dwpsn  file "../FreeRTOS/Demo/c5515_CCS/main.c",line 531,column 1,is_stmt
     891 00019e 4E01          AADD #1, SP
     892                      .dwcfi  cfa_offset, 1
     893              $C$DW$100       .dwtag  DW_TAG_TI_branch
     894                      .dwattr $C$DW$100, DW_AT_low_pc(0x00)
     895                      .dwattr $C$DW$100, DW_AT_TI_return
     896 0001a0 4804          RET
     897                                                      ; return occurs
     898                      .dwattr $C$DW$95, DW_AT_TI_end_file("../FreeRTOS/Demo/c5515_CCS/main.c")
     899                      .dwattr $C$DW$95, DW_AT_TI_end_line(0x213)
     900                      .dwattr $C$DW$95, DW_AT_TI_end_column(0x01)
     901                      .dwendentry
     902                      .dwendtag $C$DW$95
     903              
     904 0001a2               .sect   ".text"
     905                      .align 4
     906                      .global _vApplicationIdleHook
     907              
     908              $C$DW$101       .dwtag  DW_TAG_subprogram, DW_AT_name("vApplicationIdleHook")
     909                      .dwattr $C$DW$101, DW_AT_low_pc(_vApplicationIdleHook)
     910                      .dwattr $C$DW$101, DW_AT_high_pc(0x00)
     911                      .dwattr $C$DW$101, DW_AT_TI_symbol_name("_vApplicationIdleHook")
     912                      .dwattr $C$DW$101, DW_AT_external
     913                      .dwattr $C$DW$101, DW_AT_TI_begin_file("../FreeRTOS/Demo/c5515_CCS/main.c")
     914                      .dwattr $C$DW$101, DW_AT_TI_begin_line(0x217)
     915                      .dwattr $C$DW$101, DW_AT_TI_begin_column(0x06)
     916                      .dwattr $C$DW$101, DW_AT_TI_max_frame_size(0x02)
     917                      .dwpsn  file "../FreeRTOS/Demo/c5515_CCS/main.c",line 536,column 1,is_stmt,address _vApplicationIdleH
     918              
     919                      .dwfde $C$DW$CIE, _vApplicationIdleHook
     920              $C$DW$102       .dwtag  DW_TAG_variable, DW_AT_name("i")
     921                      .dwattr $C$DW$102, DW_AT_TI_symbol_name("_i$1")
     922                      .dwattr $C$DW$102, DW_AT_type(*$C$DW$T$9)
     923                      .dwattr $C$DW$102, DW_AT_location[DW_OP_addr _i$1]
     924              ;*******************************************************************************
     925              ;* FUNCTION NAME: vApplicationIdleHook                                         *
     926              ;*                                                                             *
     927              ;*   Function Uses Regs : AC0,AC0,AC1,AC1,AR3,XAR3,SP,CARRY,TC1,M40,SATA,SATD, *
     928              ;*                        RDM,FRCT,SMUL                                        *
     929              ;*   Stack Frame        : Compact (No Frame Pointer, w/ debug)                 *
     930              ;*   Total Frame Size   : 2 words                                              *
     931              ;*                        (2 return address/alignment)                         *
     932              ;*   Min System Stack   : 1 word                                               *
     933              ;*******************************************************************************
     934 0001a4       _vApplicationIdleHook:
     935                      .dwcfi  cfa_offset, 1
     936                      .dwcfi  save_reg_to_mem, 91, -1
     937 0001a4 4EFF          AADD #-1, SP
     938                      .dwcfi  cfa_offset, 2
     939                      .dwpsn  file "../FreeRTOS/Demo/c5515_CCS/main.c",line 541,column 2,is_stmt
     940 0001a6 ED31          MOV dbl(*(#_ulIdleLoops)), AC0 ; |541| 
         0001a8 0800 
TMS320C55x Assembler PC v4.4.1 Fri Sep 07 01:41:50 2018

Tools Copyright (c) 1996-2012 Texas Instruments Incorporated
main.asm                                                             PAGE   20

         0001aa 0004-
     941 0001ac 4010          ADD #1, AC0 ; |541| 
     942 0001ae EB31          MOV AC0, dbl(*(#_ulIdleLoops)) ; |541| 
         0001b0 0800 
         0001b2 0004-
     943                      .dwpsn  file "../FreeRTOS/Demo/c5515_CCS/main.c",line 543,column 2,is_stmt
     944              $C$DW$103       .dwtag  DW_TAG_TI_branch
     945                      .dwattr $C$DW$103, DW_AT_low_pc(0x00)
     946                      .dwattr $C$DW$103, DW_AT_name("_toggleLED")
     947                      .dwattr $C$DW$103, DW_AT_TI_call
     948 0001b4 0800          CALL #_toggleLED ; |543| 
         0001b6 A1   
     949                                                      ; call occurs [#_toggleLED] ; |543| 
     950                      .dwpsn  file "../FreeRTOS/Demo/c5515_CCS/main.c",line 546,column 2,is_stmt
     951 0001b7 EC31          AMOV #500000, XAR3 ; |546| 
         0001b9 BE07 
         0001bb A120 
     952 0001bd ED31          MOV dbl(*(#_ulIdleLoops)), AC1 ; |546| 
         0001bf 1800 
         0001c1 0004-
     953 0001c3 90B0          MOV XAR3, AC0
     954 0001c5 1218          CMPU AC1 >= AC0, TC1 ; |546| 
         0001c7 04   
     955 0001c8 6464          BCC $C$L17,TC1 ; |546| 
     956                                                      ; branchcc occurs ; |546| 
     957                      .dwpsn  file "../FreeRTOS/Demo/c5515_CCS/main.c",line 567,column 9,is_stmt
     958 0001ca 3C00          MOV #0, AC0 ; |567| 
     959 0001cc EB31          MOV AC0, dbl(*(#_ulIdleLoops)) ; |567| 
         0001ce 0800 
         0001d0 0004-
     960                      .dwpsn  file "../FreeRTOS/Demo/c5515_CCS/main.c",line 574,column 1,is_stmt
     961 0001d2       $C$L17:    
     962 0001d2 4E01          AADD #1, SP
     963                      .dwcfi  cfa_offset, 1
     964              $C$DW$104       .dwtag  DW_TAG_TI_branch
     965                      .dwattr $C$DW$104, DW_AT_low_pc(0x00)
     966                      .dwattr $C$DW$104, DW_AT_TI_return
     967 0001d4 4804          RET
     968                                                      ; return occurs
     969                      .dwattr $C$DW$101, DW_AT_TI_end_file("../FreeRTOS/Demo/c5515_CCS/main.c")
     970                      .dwattr $C$DW$101, DW_AT_TI_end_line(0x23e)
     971                      .dwattr $C$DW$101, DW_AT_TI_end_column(0x01)
     972                      .dwendentry
     973                      .dwendtag $C$DW$101
     974              
     975 0001d6               .sect   ".text"
     976                      .align 4
     977                      .global _InitSystem
     978              
     979              $C$DW$105       .dwtag  DW_TAG_subprogram, DW_AT_name("InitSystem")
     980                      .dwattr $C$DW$105, DW_AT_low_pc(_InitSystem)
     981                      .dwattr $C$DW$105, DW_AT_high_pc(0x00)
     982                      .dwattr $C$DW$105, DW_AT_TI_symbol_name("_InitSystem")
     983                      .dwattr $C$DW$105, DW_AT_external
     984                      .dwattr $C$DW$105, DW_AT_TI_begin_file("../FreeRTOS/Demo/c5515_CCS/main.c")
TMS320C55x Assembler PC v4.4.1 Fri Sep 07 01:41:50 2018

Tools Copyright (c) 1996-2012 Texas Instruments Incorporated
main.asm                                                             PAGE   21

     985                      .dwattr $C$DW$105, DW_AT_TI_begin_line(0x247)
     986                      .dwattr $C$DW$105, DW_AT_TI_begin_column(0x06)
     987                      .dwattr $C$DW$105, DW_AT_TI_max_frame_size(0x02)
     988                      .dwpsn  file "../FreeRTOS/Demo/c5515_CCS/main.c",line 584,column 1,is_stmt,address _InitSystem
     989              
     990                      .dwfde $C$DW$CIE, _InitSystem
     991              ;*******************************************************************************
     992              ;* FUNCTION NAME: InitSystem                                                   *
     993              ;*                                                                             *
     994              ;*   Function Uses Regs : AR1,AR2,SP,CARRY,TC1,M40,SATA,SATD,RDM,FRCT,SMUL     *
     995              ;*   Stack Frame        : Compact (No Frame Pointer, w/ debug)                 *
     996              ;*   Total Frame Size   : 2 words                                              *
     997              ;*                        (1 return address/alignment)                         *
     998              ;*                        (1 local values)                                     *
     999              ;*   Min System Stack   : 1 word                                               *
    1000              ;*******************************************************************************
    1001 0001d8       _InitSystem:
    1002                      .dwcfi  cfa_offset, 1
    1003                      .dwcfi  save_reg_to_mem, 91, -1
    1004 0001d8 4EFF          AADD #-1, SP
    1005                      .dwcfi  cfa_offset, 2
    1006              $C$DW$106       .dwtag  DW_TAG_variable, DW_AT_name("i")
    1007                      .dwattr $C$DW$106, DW_AT_TI_symbol_name("_i")
    1008                      .dwattr $C$DW$106, DW_AT_type(*$C$DW$T$10)
    1009                      .dwattr $C$DW$106, DW_AT_location[DW_OP_bregx 0x24 0]
    1010                      .dwpsn  file "../FreeRTOS/Demo/c5515_CCS/main.c",line 588,column 5,is_stmt
    1011 0001da E651          MOV #0, *port(#7199) ; |588| 
         0001dc 001C 
         0001de 1F   
    1012                      .dwpsn  file "../FreeRTOS/Demo/c5515_CCS/main.c",line 591,column 5,is_stmt
    1013 0001df FB51          MOV #35816, *port(#7200) ; |591| 
         0001e1 8BE8 
         0001e3 1C20 
    1014                      .dwpsn  file "../FreeRTOS/Demo/c5515_CCS/main.c",line 592,column 5,is_stmt
    1015 0001e5 FB51          MOV #32768, *port(#7201) ; |592| 
         0001e7 8000 
         0001e9 1C21 
    1016                      .dwpsn  file "../FreeRTOS/Demo/c5515_CCS/main.c",line 593,column 5,is_stmt
    1017 0001eb E651          MOV #0, *port(#7203) ; |593| 
         0001ed 001C 
         0001ef 23   
    1018                      .dwpsn  file "../FreeRTOS/Demo/c5515_CCS/main.c",line 594,column 5,is_stmt
    1019 0001f0 FB51          MOV #2054, *port(#7202) ; |594| 
         0001f2 0806 
         0001f4 1C22 
    1020                      .dwpsn  file "../FreeRTOS/Demo/c5515_CCS/main.c",line 610,column 13,is_stmt
    1021 0001f6 DC51          BTST #3, *port(#7202), TC1 ; |610| 
         0001f8 301C 
         0001fa 22   
    1022 0001fb 6464          BCC $C$L19,TC1 ; |610| 
    1023                                                      ; branchcc occurs ; |610| 
    1024 0001fd       $C$L18:    
    1025 0001fd       $C$DW$L$_InitSystem$2$B:
    1026 0001fd DC51          BTST #3, *port(#7202), TC1 ; |610| 
         0001ff 301C 
TMS320C55x Assembler PC v4.4.1 Fri Sep 07 01:41:50 2018

Tools Copyright (c) 1996-2012 Texas Instruments Incorporated
main.asm                                                             PAGE   22

         000201 22   
    1027 000202 0474          BCC $C$L18,!TC1 ; |610| 
         000204 F8   
    1028                                                      ; branchcc occurs ; |610| 
    1029 000205       $C$DW$L$_InitSystem$2$E:
    1030 000205       $C$L19:    
    1031                      .dwpsn  file "../FreeRTOS/Demo/c5515_CCS/main.c",line 612,column 5,is_stmt
    1032 000205 E651          MOV #1, *port(#7199) ; |612| 
         000207 011C 
         000209 1F   
    1033                      .dwpsn  file "../FreeRTOS/Demo/c5515_CCS/main.c",line 616,column 5,is_stmt
    1034 00020a E651          MOV #0, *port(#7170) ; |616| 
         00020c 001C 
         00020e 02   
    1035                      .dwpsn  file "../FreeRTOS/Demo/c5515_CCS/main.c",line 617,column 5,is_stmt
    1036 00020f FB51          MOV #65412, *port(#7171) ; |617| 
         000211 FF84 
         000213 1C03 
    1037                      .dwpsn  file "../FreeRTOS/Demo/c5515_CCS/main.c",line 621,column 5,is_stmt
    1038 000215 E651          MOV #2, *port(#7172) ; |621| 
         000217 021C 
         000219 04   
    1039                      .dwpsn  file "../FreeRTOS/Demo/c5515_CCS/main.c",line 622,column 5,is_stmt
    1040 00021a FB51          MOV #251, *port(#7173) ; |622| 
         00021c 00FB 
         00021e 1C05 
    1041                      .dwpsn  file "../FreeRTOS/Demo/c5515_CCS/main.c",line 623,column 10,is_stmt
    1042 000220 E600          MOV #0, *SP(#0) ; |623| 
         000222 00   
    1043                      .dwpsn  file "../FreeRTOS/Demo/c5515_CCS/main.c",line 623,column 15,is_stmt
    1044 000223 7600          MOV #200, AR2 ; |623| 
         000225 C8A8 
    1045 000227 A900          MOV *SP(#0), AR1 ; |623| 
    1046 000229 1298          CMP AR1 >= AR2, TC1 ; |623| 
         00022b A0   
    1047 00022c 6664          BCC $C$L21,TC1 ; |623| 
    1048                                                      ; branchcc occurs ; |623| 
    1049 00022e       $C$L20:    
    1050 00022e       $C$DW$L$_InitSystem$4$B:
    1051                      .dwpsn  file "../FreeRTOS/Demo/c5515_CCS/main.c",line 623,column 23,is_stmt
    1052 00022e F700          ADD #1, *SP(#0) ; |623| 
         000230 0001 
    1053                      .dwpsn  file "../FreeRTOS/Demo/c5515_CCS/main.c",line 623,column 15,is_stmt
    1054 000232 A900          MOV *SP(#0), AR1 ; |623| 
    1055 000234 1294          CMP AR1 < AR2, TC1 ; |623| 
         000236 A0   
    1056 000237 0464          BCC $C$L20,TC1 ; |623| 
         000239 F4   
    1057                                                      ; branchcc occurs ; |623| 
    1058 00023a       $C$DW$L$_InitSystem$4$E:
    1059                      .dwpsn  file "../FreeRTOS/Demo/c5515_CCS/main.c",line 625,column 1,is_stmt
    1060 00023a       $C$L21:    
    1061 00023a 4E01          AADD #1, SP
    1062                      .dwcfi  cfa_offset, 1
    1063              $C$DW$107       .dwtag  DW_TAG_TI_branch
TMS320C55x Assembler PC v4.4.1 Fri Sep 07 01:41:50 2018

Tools Copyright (c) 1996-2012 Texas Instruments Incorporated
main.asm                                                             PAGE   23

    1064                      .dwattr $C$DW$107, DW_AT_low_pc(0x00)
    1065                      .dwattr $C$DW$107, DW_AT_TI_return
    1066 00023c 4804          RET
    1067                                                      ; return occurs
    1068              
    1069              $C$DW$108       .dwtag  DW_TAG_TI_loop
    1070                      .dwattr $C$DW$108, DW_AT_name("F:\site\eZDSP\eZDSP_5535_Files\ccsws2\test\Debug\main.asm:$C$L20:1:153
    1071                      .dwattr $C$DW$108, DW_AT_TI_begin_file("../FreeRTOS/Demo/c5515_CCS/main.c")
    1072                      .dwattr $C$DW$108, DW_AT_TI_begin_line(0x26f)
    1073                      .dwattr $C$DW$108, DW_AT_TI_end_line(0x26f)
    1074              $C$DW$109       .dwtag  DW_TAG_TI_loop_range
    1075                      .dwattr $C$DW$109, DW_AT_low_pc($C$DW$L$_InitSystem$4$B)
    1076                      .dwattr $C$DW$109, DW_AT_high_pc($C$DW$L$_InitSystem$4$E)
    1077                      .dwendtag $C$DW$108
    1078              
    1079              
    1080              $C$DW$110       .dwtag  DW_TAG_TI_loop
    1081                      .dwattr $C$DW$110, DW_AT_name("F:\site\eZDSP\eZDSP_5535_Files\ccsws2\test\Debug\main.asm:$C$L18:1:153
    1082                      .dwattr $C$DW$110, DW_AT_TI_begin_file("../FreeRTOS/Demo/c5515_CCS/main.c")
    1083                      .dwattr $C$DW$110, DW_AT_TI_begin_line(0x262)
    1084                      .dwattr $C$DW$110, DW_AT_TI_end_line(0x262)
    1085              $C$DW$111       .dwtag  DW_TAG_TI_loop_range
    1086                      .dwattr $C$DW$111, DW_AT_low_pc($C$DW$L$_InitSystem$2$B)
    1087                      .dwattr $C$DW$111, DW_AT_high_pc($C$DW$L$_InitSystem$2$E)
    1088                      .dwendtag $C$DW$110
    1089              
    1090                      .dwattr $C$DW$105, DW_AT_TI_end_file("../FreeRTOS/Demo/c5515_CCS/main.c")
    1091                      .dwattr $C$DW$105, DW_AT_TI_end_line(0x271)
    1092                      .dwattr $C$DW$105, DW_AT_TI_end_column(0x01)
    1093                      .dwendentry
    1094                      .dwendtag $C$DW$105
    1095              
    1096 00023e               .sect   ".text"
    1097                      .align 4
    1098                      .global _ConfigPort
    1099              
    1100              $C$DW$112       .dwtag  DW_TAG_subprogram, DW_AT_name("ConfigPort")
    1101                      .dwattr $C$DW$112, DW_AT_low_pc(_ConfigPort)
    1102                      .dwattr $C$DW$112, DW_AT_high_pc(0x00)
    1103                      .dwattr $C$DW$112, DW_AT_TI_symbol_name("_ConfigPort")
    1104                      .dwattr $C$DW$112, DW_AT_external
    1105                      .dwattr $C$DW$112, DW_AT_TI_begin_file("../FreeRTOS/Demo/c5515_CCS/main.c")
    1106                      .dwattr $C$DW$112, DW_AT_TI_begin_line(0x272)
    1107                      .dwattr $C$DW$112, DW_AT_TI_begin_column(0x06)
    1108                      .dwattr $C$DW$112, DW_AT_TI_max_frame_size(0x01)
    1109                      .dwpsn  file "../FreeRTOS/Demo/c5515_CCS/main.c",line 627,column 1,is_stmt,address _ConfigPort
    1110              
    1111                      .dwfde $C$DW$CIE, _ConfigPort
    1112              ;*******************************************************************************
    1113              ;* FUNCTION NAME: ConfigPort                                                   *
    1114              ;*                                                                             *
    1115              ;*   Function Uses Regs : SP,M40,SATA,SATD,RDM,FRCT,SMUL                       *
    1116              ;*   Stack Frame        : Compact (No Frame Pointer, w/ debug)                 *
    1117              ;*   Total Frame Size   : 1 word                                               *
    1118              ;*                        (1 return address/alignment)                         *
TMS320C55x Assembler PC v4.4.1 Fri Sep 07 01:41:50 2018

Tools Copyright (c) 1996-2012 Texas Instruments Incorporated
main.asm                                                             PAGE   24

    1119              ;*   Min System Stack   : 1 word                                               *
    1120              ;*******************************************************************************
    1121 000240       _ConfigPort:
    1122                      .dwcfi  cfa_offset, 1
    1123                      .dwcfi  save_reg_to_mem, 91, -1
    1124                      .dwpsn  file "../FreeRTOS/Demo/c5515_CCS/main.c",line 629,column 5,is_stmt
    1125 000240 FB51          MOV #26880, *port(#7168) ; |629| 
         000242 6900 
         000244 1C00 
    1126                      .dwpsn  file "../FreeRTOS/Demo/c5515_CCS/main.c",line 631,column 1,is_stmt
    1127              $C$DW$113       .dwtag  DW_TAG_TI_branch
    1128                      .dwattr $C$DW$113, DW_AT_low_pc(0x00)
    1129                      .dwattr $C$DW$113, DW_AT_TI_return
    1130 000246 4804          RET
    1131                                                      ; return occurs
    1132                      .dwattr $C$DW$112, DW_AT_TI_end_file("../FreeRTOS/Demo/c5515_CCS/main.c")
    1133                      .dwattr $C$DW$112, DW_AT_TI_end_line(0x277)
    1134                      .dwattr $C$DW$112, DW_AT_TI_end_column(0x01)
    1135                      .dwendentry
    1136                      .dwendtag $C$DW$112
    1137              
    1138 000248               .sect   ".text"
    1139                      .align 4
    1140                      .global _SYS_GlobalIntEnable
    1141              
    1142              $C$DW$114       .dwtag  DW_TAG_subprogram, DW_AT_name("SYS_GlobalIntEnable")
    1143                      .dwattr $C$DW$114, DW_AT_low_pc(_SYS_GlobalIntEnable)
    1144                      .dwattr $C$DW$114, DW_AT_high_pc(0x00)
    1145                      .dwattr $C$DW$114, DW_AT_TI_symbol_name("_SYS_GlobalIntEnable")
    1146                      .dwattr $C$DW$114, DW_AT_external
    1147                      .dwattr $C$DW$114, DW_AT_TI_begin_file("../FreeRTOS/Demo/c5515_CCS/main.c")
    1148                      .dwattr $C$DW$114, DW_AT_TI_begin_line(0x27a)
    1149                      .dwattr $C$DW$114, DW_AT_TI_begin_column(0x06)
    1150                      .dwattr $C$DW$114, DW_AT_TI_max_frame_size(0x01)
    1151                      .dwpsn  file "../FreeRTOS/Demo/c5515_CCS/main.c",line 636,column 1,is_stmt,address _SYS_GlobalIntEnab
    1152              
    1153                      .dwfde $C$DW$CIE, _SYS_GlobalIntEnable
    1154              ;*******************************************************************************
    1155              ;* FUNCTION NAME: SYS_GlobalIntEnable                                          *
    1156              ;*                                                                             *
    1157              ;*   Function Uses Regs : SP,M40,SATA,SATD,RDM,FRCT,SMUL                       *
    1158              ;*   Stack Frame        : Compact (No Frame Pointer, w/ debug)                 *
    1159              ;*   Total Frame Size   : 1 word                                               *
    1160              ;*                        (1 return address/alignment)                         *
    1161              ;*   Min System Stack   : 1 word                                               *
    1162              ;*******************************************************************************
    1163 000248       _SYS_GlobalIntEnable:
    1164                      .dwcfi  cfa_offset, 1
    1165                      .dwcfi  save_reg_to_mem, 91, -1
    1166                      .dwpsn  file "../FreeRTOS/Demo/c5515_CCS/main.c",line 644,column 2,is_stmt
    1167 000248 20     nop
    1168                      .dwpsn  file "../FreeRTOS/Demo/c5515_CCS/main.c",line 645,column 2,is_stmt
    1169 000249 46B2   bclr INTM
    1170                      .dwpsn  file "../FreeRTOS/Demo/c5515_CCS/main.c",line 646,column 1,is_stmt
    1171              $C$DW$115       .dwtag  DW_TAG_TI_branch
TMS320C55x Assembler PC v4.4.1 Fri Sep 07 01:41:50 2018

Tools Copyright (c) 1996-2012 Texas Instruments Incorporated
main.asm                                                             PAGE   25

    1172                      .dwattr $C$DW$115, DW_AT_low_pc(0x00)
    1173                      .dwattr $C$DW$115, DW_AT_TI_return
    1174 00024b 4804          RET
    1175                                                      ; return occurs
    1176                      .dwattr $C$DW$114, DW_AT_TI_end_file("../FreeRTOS/Demo/c5515_CCS/main.c")
    1177                      .dwattr $C$DW$114, DW_AT_TI_end_line(0x286)
    1178                      .dwattr $C$DW$114, DW_AT_TI_end_column(0x01)
    1179                      .dwendentry
    1180                      .dwendtag $C$DW$114
    1181              
    1182 00024d               .sect   ".text"
    1183                      .align 4
    1184                      .global _SYS_GlobalIntDisable
    1185              
    1186              $C$DW$116       .dwtag  DW_TAG_subprogram, DW_AT_name("SYS_GlobalIntDisable")
    1187                      .dwattr $C$DW$116, DW_AT_low_pc(_SYS_GlobalIntDisable)
    1188                      .dwattr $C$DW$116, DW_AT_high_pc(0x00)
    1189                      .dwattr $C$DW$116, DW_AT_TI_symbol_name("_SYS_GlobalIntDisable")
    1190                      .dwattr $C$DW$116, DW_AT_external
    1191                      .dwattr $C$DW$116, DW_AT_TI_begin_file("../FreeRTOS/Demo/c5515_CCS/main.c")
    1192                      .dwattr $C$DW$116, DW_AT_TI_begin_line(0x288)
    1193                      .dwattr $C$DW$116, DW_AT_TI_begin_column(0x06)
    1194                      .dwattr $C$DW$116, DW_AT_TI_max_frame_size(0x01)
    1195                      .dwpsn  file "../FreeRTOS/Demo/c5515_CCS/main.c",line 650,column 1,is_stmt,address _SYS_GlobalIntDisa
    1196              
    1197                      .dwfde $C$DW$CIE, _SYS_GlobalIntDisable
    1198              ;*******************************************************************************
    1199              ;* FUNCTION NAME: SYS_GlobalIntDisable                                         *
    1200              ;*                                                                             *
    1201              ;*   Function Uses Regs : SP,M40,SATA,SATD,RDM,FRCT,SMUL                       *
    1202              ;*   Stack Frame        : Compact (No Frame Pointer, w/ debug)                 *
    1203              ;*   Total Frame Size   : 1 word                                               *
    1204              ;*                        (1 return address/alignment)                         *
    1205              ;*   Min System Stack   : 1 word                                               *
    1206              ;*******************************************************************************
    1207 000250       _SYS_GlobalIntDisable:
    1208                      .dwcfi  cfa_offset, 1
    1209                      .dwcfi  save_reg_to_mem, 91, -1
    1210                      .dwpsn  file "../FreeRTOS/Demo/c5515_CCS/main.c",line 656,column 2,is_stmt
    1211 000250 20     nop
    1212                      .dwpsn  file "../FreeRTOS/Demo/c5515_CCS/main.c",line 657,column 2,is_stmt
    1213 000251 46B3   bset INTM
    1214                      .dwpsn  file "../FreeRTOS/Demo/c5515_CCS/main.c",line 659,column 1,is_stmt
    1215              $C$DW$117       .dwtag  DW_TAG_TI_branch
    1216                      .dwattr $C$DW$117, DW_AT_low_pc(0x00)
    1217                      .dwattr $C$DW$117, DW_AT_TI_return
    1218 000253 4804          RET
    1219                                                      ; return occurs
    1220                      .dwattr $C$DW$116, DW_AT_TI_end_file("../FreeRTOS/Demo/c5515_CCS/main.c")
    1221                      .dwattr $C$DW$116, DW_AT_TI_end_line(0x293)
    1222                      .dwattr $C$DW$116, DW_AT_TI_end_column(0x01)
    1223                      .dwendentry
    1224                      .dwendtag $C$DW$116
    1225              
    1226 000255               .sect   ".text"
TMS320C55x Assembler PC v4.4.1 Fri Sep 07 01:41:50 2018

Tools Copyright (c) 1996-2012 Texas Instruments Incorporated
main.asm                                                             PAGE   26

    1227                      .align 4
    1228              
    1229              $C$DW$118       .dwtag  DW_TAG_subprogram, DW_AT_name("toggleLED")
    1230                      .dwattr $C$DW$118, DW_AT_low_pc(_toggleLED)
    1231                      .dwattr $C$DW$118, DW_AT_high_pc(0x00)
    1232                      .dwattr $C$DW$118, DW_AT_TI_symbol_name("_toggleLED")
    1233                      .dwattr $C$DW$118, DW_AT_type(*$C$DW$T$10)
    1234                      .dwattr $C$DW$118, DW_AT_TI_begin_file("../FreeRTOS/Demo/c5515_CCS/main.c")
    1235                      .dwattr $C$DW$118, DW_AT_TI_begin_line(0x296)
    1236                      .dwattr $C$DW$118, DW_AT_TI_begin_column(0x08)
    1237                      .dwattr $C$DW$118, DW_AT_TI_max_frame_size(0x02)
    1238                      .dwpsn  file "../FreeRTOS/Demo/c5515_CCS/main.c",line 663,column 1,is_stmt,address _toggleLED
    1239              
    1240                      .dwfde $C$DW$CIE, _toggleLED
    1241              ;*******************************************************************************
    1242              ;* FUNCTION NAME: toggleLED                                                    *
    1243              ;*                                                                             *
    1244              ;*   Function Uses Regs : AC0,AC0,T0,AR1,AR2,SP,CARRY,TC1,M40,SATA,SATD,RDM,   *
    1245              ;*                        FRCT,SMUL                                            *
    1246              ;*   Stack Frame        : Compact (No Frame Pointer, w/ debug)                 *
    1247              ;*   Total Frame Size   : 2 words                                              *
    1248              ;*                        (1 return address/alignment)                         *
    1249              ;*                        (1 local values)                                     *
    1250              ;*   Min System Stack   : 1 word                                               *
    1251              ;*******************************************************************************
    1252 000258       _toggleLED:
    1253                      .dwcfi  cfa_offset, 1
    1254                      .dwcfi  save_reg_to_mem, 91, -1
    1255 000258 4EFF          AADD #-1, SP
    1256                      .dwcfi  cfa_offset, 2
    1257              $C$DW$119       .dwtag  DW_TAG_variable, DW_AT_name("i")
    1258                      .dwattr $C$DW$119, DW_AT_TI_symbol_name("_i")
    1259                      .dwattr $C$DW$119, DW_AT_type(*$C$DW$T$10)
    1260                      .dwattr $C$DW$119, DW_AT_location[DW_OP_bregx 0x24 0]
    1261                      .dwpsn  file "../FreeRTOS/Demo/c5515_CCS/main.c",line 666,column 2,is_stmt
    1262              $C$DW$120       .dwtag  DW_TAG_TI_branch
    1263                      .dwattr $C$DW$120, DW_AT_low_pc(0x00)
    1264                      .dwattr $C$DW$120, DW_AT_name("_EZDSP5535_XF_toggle")
    1265                      .dwattr $C$DW$120, DW_AT_TI_call
    1266 00025a 6C00          CALL #_EZDSP5535_XF_toggle ; |666| 
         00025c 0000!
    1267                                                      ; call occurs [#_EZDSP5535_XF_toggle] ; |666| 
    1268                      .dwpsn  file "../FreeRTOS/Demo/c5515_CCS/main.c",line 672,column 11,is_stmt
    1269 00025e E600          MOV #0, *SP(#0) ; |672| 
         000260 00   
    1270                      .dwpsn  file "../FreeRTOS/Demo/c5515_CCS/main.c",line 672,column 19,is_stmt
    1271              
    1272 000261 A900          MOV *SP(#0), AR1 ; |672| 
    1273 000263 3D4A  ||      MOV #4, AR2
    1274              
    1275 000265 1298          CMP AR1 >= AR2, TC1 ; |672| 
         000267 A0   
    1276 000268 0464          BCC $C$L23,TC1 ; |672| 
         00026a 20   
    1277                                                      ; branchcc occurs ; |672| 
TMS320C55x Assembler PC v4.4.1 Fri Sep 07 01:41:50 2018

Tools Copyright (c) 1996-2012 Texas Instruments Incorporated
main.asm                                                             PAGE   27

    1278 00026b       $C$L22:    
    1279 00026b       $C$DW$L$_toggleLED$2$B:
    1280                      .dwpsn  file "../FreeRTOS/Demo/c5515_CCS/main.c",line 674,column 9,is_stmt
    1281 00026b A400          MOV *SP(#0), T0 ; |674| 
    1282              $C$DW$121       .dwtag  DW_TAG_TI_branch
    1283                      .dwattr $C$DW$121, DW_AT_low_pc(0x00)
    1284                      .dwattr $C$DW$121, DW_AT_name("_EZDSP5535_LED_off")
    1285                      .dwattr $C$DW$121, DW_AT_TI_call
    1286 00026d 6C00          CALL #_EZDSP5535_LED_off ; |674| 
         00026f 0000!
    1287                                                      ; call occurs [#_EZDSP5535_LED_off] ; |674| 
    1288                      .dwpsn  file "../FreeRTOS/Demo/c5515_CCS/main.c",line 675,column 9,is_stmt
    1289 000271 76C3          MOV #50000, AR1 ; |675| 
         000273 5098 
    1290 000275 7DFF          AND #0xffff, AR1, AC0 ; |675| 
         000277 FF09 
    1291              $C$DW$122       .dwtag  DW_TAG_TI_branch
    1292                      .dwattr $C$DW$122, DW_AT_low_pc(0x00)
    1293                      .dwattr $C$DW$122, DW_AT_name("_EZDSP5535_waitusec")
    1294                      .dwattr $C$DW$122, DW_AT_TI_call
    1295 000279 6C00          CALL #_EZDSP5535_waitusec ; |675| 
         00027b 0000!
    1296                                                      ; call occurs [#_EZDSP5535_waitusec] ; |675| 
    1297                      .dwpsn  file "../FreeRTOS/Demo/c5515_CCS/main.c",line 672,column 27,is_stmt
    1298 00027d F700          ADD #1, *SP(#0) ; |672| 
         00027f 0001 
    1299                      .dwpsn  file "../FreeRTOS/Demo/c5515_CCS/main.c",line 672,column 19,is_stmt
    1300              
    1301 000281 A900          MOV *SP(#0), AR1 ; |672| 
    1302 000283 3D4A  ||      MOV #4, AR2
    1303              
    1304 000285 1294          CMP AR1 < AR2, TC1 ; |672| 
         000287 A0   
    1305 000288 0464          BCC $C$L22,TC1 ; |672| 
         00028a E0   
    1306                                                      ; branchcc occurs ; |672| 
    1307 00028b       $C$DW$L$_toggleLED$2$E:
    1308 00028b       $C$L23:    
    1309                      .dwpsn  file "../FreeRTOS/Demo/c5515_CCS/main.c",line 678,column 11,is_stmt
    1310 00028b E600          MOV #0, *SP(#0) ; |678| 
         00028d 00   
    1311                      .dwpsn  file "../FreeRTOS/Demo/c5515_CCS/main.c",line 678,column 19,is_stmt
    1312 00028e A900          MOV *SP(#0), AR1 ; |678| 
    1313 000290 1298          CMP AR1 >= AR2, TC1 ; |678| 
         000292 A0   
    1314 000293 0464          BCC $C$L25,TC1 ; |678| 
         000295 20   
    1315                                                      ; branchcc occurs ; |678| 
    1316 000296       $C$L24:    
    1317 000296       $C$DW$L$_toggleLED$4$B:
    1318                      .dwpsn  file "../FreeRTOS/Demo/c5515_CCS/main.c",line 680,column 13,is_stmt
    1319 000296 A400          MOV *SP(#0), T0 ; |680| 
    1320              $C$DW$123       .dwtag  DW_TAG_TI_branch
    1321                      .dwattr $C$DW$123, DW_AT_low_pc(0x00)
    1322                      .dwattr $C$DW$123, DW_AT_name("_EZDSP5535_LED_on")
TMS320C55x Assembler PC v4.4.1 Fri Sep 07 01:41:50 2018

Tools Copyright (c) 1996-2012 Texas Instruments Incorporated
main.asm                                                             PAGE   28

    1323                      .dwattr $C$DW$123, DW_AT_TI_call
    1324 000298 6C00          CALL #_EZDSP5535_LED_on ; |680| 
         00029a 0000!
    1325                                                      ; call occurs [#_EZDSP5535_LED_on] ; |680| 
    1326                      .dwpsn  file "../FreeRTOS/Demo/c5515_CCS/main.c",line 681,column 13,is_stmt
    1327 00029c 76C3          MOV #50000, AR1 ; |681| 
         00029e 5098 
    1328 0002a0 7DFF          AND #0xffff, AR1, AC0 ; |681| 
         0002a2 FF09 
    1329              $C$DW$124       .dwtag  DW_TAG_TI_branch
    1330                      .dwattr $C$DW$124, DW_AT_low_pc(0x00)
    1331                      .dwattr $C$DW$124, DW_AT_name("_EZDSP5535_waitusec")
    1332                      .dwattr $C$DW$124, DW_AT_TI_call
    1333 0002a4 6C00          CALL #_EZDSP5535_waitusec ; |681| 
         0002a6 0000!
    1334                                                      ; call occurs [#_EZDSP5535_waitusec] ; |681| 
    1335                      .dwpsn  file "../FreeRTOS/Demo/c5515_CCS/main.c",line 678,column 27,is_stmt
    1336 0002a8 F700          ADD #1, *SP(#0) ; |678| 
         0002aa 0001 
    1337                      .dwpsn  file "../FreeRTOS/Demo/c5515_CCS/main.c",line 678,column 19,is_stmt
    1338              
    1339 0002ac A900          MOV *SP(#0), AR1 ; |678| 
    1340 0002ae 3D4A  ||      MOV #4, AR2
    1341              
    1342 0002b0 1294          CMP AR1 < AR2, TC1 ; |678| 
         0002b2 A0   
    1343 0002b3 0464          BCC $C$L24,TC1 ; |678| 
         0002b5 E0   
    1344                                                      ; branchcc occurs ; |678| 
    1345 0002b6       $C$DW$L$_toggleLED$4$E:
    1346                      .dwpsn  file "../FreeRTOS/Demo/c5515_CCS/main.c",line 715,column 1,is_stmt
    1347 0002b6       $C$L25:    
    1348 0002b6 4E01          AADD #1, SP
    1349                      .dwcfi  cfa_offset, 1
    1350              $C$DW$125       .dwtag  DW_TAG_TI_branch
    1351                      .dwattr $C$DW$125, DW_AT_low_pc(0x00)
    1352                      .dwattr $C$DW$125, DW_AT_TI_return
    1353 0002b8 4804          RET
    1354                                                      ; return occurs
    1355              
    1356              $C$DW$126       .dwtag  DW_TAG_TI_loop
    1357                      .dwattr $C$DW$126, DW_AT_name("F:\site\eZDSP\eZDSP_5535_Files\ccsws2\test\Debug\main.asm:$C$L24:1:153
    1358                      .dwattr $C$DW$126, DW_AT_TI_begin_file("../FreeRTOS/Demo/c5515_CCS/main.c")
    1359                      .dwattr $C$DW$126, DW_AT_TI_begin_line(0x2a6)
    1360                      .dwattr $C$DW$126, DW_AT_TI_end_line(0x2aa)
    1361              $C$DW$127       .dwtag  DW_TAG_TI_loop_range
    1362                      .dwattr $C$DW$127, DW_AT_low_pc($C$DW$L$_toggleLED$4$B)
    1363                      .dwattr $C$DW$127, DW_AT_high_pc($C$DW$L$_toggleLED$4$E)
    1364                      .dwendtag $C$DW$126
    1365              
    1366              
    1367              $C$DW$128       .dwtag  DW_TAG_TI_loop
    1368                      .dwattr $C$DW$128, DW_AT_name("F:\site\eZDSP\eZDSP_5535_Files\ccsws2\test\Debug\main.asm:$C$L22:1:153
    1369                      .dwattr $C$DW$128, DW_AT_TI_begin_file("../FreeRTOS/Demo/c5515_CCS/main.c")
    1370                      .dwattr $C$DW$128, DW_AT_TI_begin_line(0x2a0)
TMS320C55x Assembler PC v4.4.1 Fri Sep 07 01:41:50 2018

Tools Copyright (c) 1996-2012 Texas Instruments Incorporated
main.asm                                                             PAGE   29

    1371                      .dwattr $C$DW$128, DW_AT_TI_end_line(0x2a4)
    1372              $C$DW$129       .dwtag  DW_TAG_TI_loop_range
    1373                      .dwattr $C$DW$129, DW_AT_low_pc($C$DW$L$_toggleLED$2$B)
    1374                      .dwattr $C$DW$129, DW_AT_high_pc($C$DW$L$_toggleLED$2$E)
    1375                      .dwendtag $C$DW$128
    1376              
    1377                      .dwattr $C$DW$118, DW_AT_TI_end_file("../FreeRTOS/Demo/c5515_CCS/main.c")
    1378                      .dwattr $C$DW$118, DW_AT_TI_end_line(0x2cb)
    1379                      .dwattr $C$DW$118, DW_AT_TI_end_column(0x01)
    1380                      .dwendentry
    1381                      .dwendtag $C$DW$118
    1382              
    1383 0002ba               .sect   ".text"
    1384                      .align 4
    1385                      .global _BlinkLED
    1386              
    1387              $C$DW$130       .dwtag  DW_TAG_subprogram, DW_AT_name("BlinkLED")
    1388                      .dwattr $C$DW$130, DW_AT_low_pc(_BlinkLED)
    1389                      .dwattr $C$DW$130, DW_AT_high_pc(0x00)
    1390                      .dwattr $C$DW$130, DW_AT_TI_symbol_name("_BlinkLED")
    1391                      .dwattr $C$DW$130, DW_AT_external
    1392                      .dwattr $C$DW$130, DW_AT_TI_begin_file("../FreeRTOS/Demo/c5515_CCS/main.c")
    1393                      .dwattr $C$DW$130, DW_AT_TI_begin_line(0x2ce)
    1394                      .dwattr $C$DW$130, DW_AT_TI_begin_column(0x06)
    1395                      .dwattr $C$DW$130, DW_AT_TI_max_frame_size(0x02)
    1396                      .dwpsn  file "../FreeRTOS/Demo/c5515_CCS/main.c",line 719,column 1,is_stmt,address _BlinkLED
    1397              
    1398                      .dwfde $C$DW$CIE, _BlinkLED
    1399              ;*******************************************************************************
    1400              ;* FUNCTION NAME: BlinkLED                                                     *
    1401              ;*                                                                             *
    1402              ;*   Function Uses Regs : SP,TC1,M40,SATA,SATD,RDM,FRCT,SMUL                   *
    1403              ;*   Stack Frame        : Compact (No Frame Pointer, w/ debug)                 *
    1404              ;*   Total Frame Size   : 2 words                                              *
    1405              ;*                        (2 return address/alignment)                         *
    1406              ;*   Min System Stack   : 1 word                                               *
    1407              ;*******************************************************************************
    1408 0002bc       _BlinkLED:
    1409                      .dwcfi  cfa_offset, 1
    1410                      .dwcfi  save_reg_to_mem, 91, -1
    1411 0002bc 4EFF          AADD #-1, SP
    1412                      .dwcfi  cfa_offset, 2
    1413                      .dwpsn  file "../FreeRTOS/Demo/c5515_CCS/main.c",line 721,column 2,is_stmt
    1414 0002be F031          CMP *(#_fSineWave) == #1, TC1 ; |721| 
         0002c0 0001 
         0002c2 0000 
         0002c4 00-  
    1415 0002c5 0474          BCC $C$L26,!TC1 ; |721| 
         0002c7 15   
    1416                                                      ; branchcc occurs ; |721| 
    1417                      .dwpsn  file "../FreeRTOS/Demo/c5515_CCS/main.c",line 723,column 6,is_stmt
    1418 0002c8 F031          CMP *(#_Flag_RTC) == #1, TC1 ; |723| 
         0002ca 0001 
         0002cc 0000 
         0002ce 00!  
TMS320C55x Assembler PC v4.4.1 Fri Sep 07 01:41:50 2018

Tools Copyright (c) 1996-2012 Texas Instruments Incorporated
main.asm                                                             PAGE   30

    1419 0002cf 0474          BCC $C$L27,!TC1 ; |723| 
         0002d1 1D   
    1420                                                      ; branchcc occurs ; |723| 
    1421                      .dwpsn  file "../FreeRTOS/Demo/c5515_CCS/main.c",line 725,column 9,is_stmt
    1422 0002d2 E631          MOV #0, *(#_Flag_RTC) ; |725| 
         0002d4 0000 
         0002d6 0000!
    1423                      .dwpsn  file "../FreeRTOS/Demo/c5515_CCS/main.c",line 726,column 4,is_stmt
    1424              $C$DW$131       .dwtag  DW_TAG_TI_branch
    1425                      .dwattr $C$DW$131, DW_AT_low_pc(0x00)
    1426                      .dwattr $C$DW$131, DW_AT_name("_toggleLED")
    1427                      .dwattr $C$DW$131, DW_AT_TI_call
    1428 0002d8 08FF          CALL #_toggleLED ; |726| 
         0002da 7D   
    1429                                                      ; call occurs [#_toggleLED] ; |726| 
    1430                      .dwpsn  file "../FreeRTOS/Demo/c5515_CCS/main.c",line 729,column 2,is_stmt
    1431 0002db 4A12          B $C$L27  ; |729| 
    1432                                                      ; branch occurs ; |729| 
    1433 0002dd       $C$L26:    
    1434                      .dwpsn  file "../FreeRTOS/Demo/c5515_CCS/main.c",line 732,column 6,is_stmt
    1435 0002dd F031          CMP *(#_fTimer) == #1, TC1 ; |732| 
         0002df 0001 
         0002e1 0000 
         0002e3 00!  
    1436 0002e4 64F4          BCC $C$L27,!TC1 ; |732| 
    1437                                                      ; branchcc occurs ; |732| 
    1438                      .dwpsn  file "../FreeRTOS/Demo/c5515_CCS/main.c",line 734,column 9,is_stmt
    1439 0002e6 E631          MOV #0, *(#_fTimer) ; |734| 
         0002e8 0000 
         0002ea 0000!
    1440                      .dwpsn  file "../FreeRTOS/Demo/c5515_CCS/main.c",line 735,column 4,is_stmt
    1441              $C$DW$132       .dwtag  DW_TAG_TI_branch
    1442                      .dwattr $C$DW$132, DW_AT_low_pc(0x00)
    1443                      .dwattr $C$DW$132, DW_AT_name("_toggleLED")
    1444                      .dwattr $C$DW$132, DW_AT_TI_call
    1445 0002ec 08FF          CALL #_toggleLED ; |735| 
         0002ee 69   
    1446                                                      ; call occurs [#_toggleLED] ; |735| 
    1447                      .dwpsn  file "../FreeRTOS/Demo/c5515_CCS/main.c",line 747,column 1,is_stmt
    1448 0002ef       $C$L27:    
    1449 0002ef 4E01          AADD #1, SP
    1450                      .dwcfi  cfa_offset, 1
    1451              $C$DW$133       .dwtag  DW_TAG_TI_branch
    1452                      .dwattr $C$DW$133, DW_AT_low_pc(0x00)
    1453                      .dwattr $C$DW$133, DW_AT_TI_return
    1454 0002f1 4804          RET
    1455                                                      ; return occurs
    1456                      .dwattr $C$DW$130, DW_AT_TI_end_file("../FreeRTOS/Demo/c5515_CCS/main.c")
    1457                      .dwattr $C$DW$130, DW_AT_TI_end_line(0x2eb)
    1458                      .dwattr $C$DW$130, DW_AT_TI_end_column(0x01)
    1459                      .dwendentry
    1460                      .dwendtag $C$DW$130
    1461              
    1462 0002f3               .sect   ".text"
    1463                      .align 4
TMS320C55x Assembler PC v4.4.1 Fri Sep 07 01:41:50 2018

Tools Copyright (c) 1996-2012 Texas Instruments Incorporated
main.asm                                                             PAGE   31

    1464                      .global _GenerateAudioTone
    1465              
    1466              $C$DW$134       .dwtag  DW_TAG_subprogram, DW_AT_name("GenerateAudioTone")
    1467                      .dwattr $C$DW$134, DW_AT_low_pc(_GenerateAudioTone)
    1468                      .dwattr $C$DW$134, DW_AT_high_pc(0x00)
    1469                      .dwattr $C$DW$134, DW_AT_TI_symbol_name("_GenerateAudioTone")
    1470                      .dwattr $C$DW$134, DW_AT_external
    1471                      .dwattr $C$DW$134, DW_AT_TI_begin_file("../FreeRTOS/Demo/c5515_CCS/main.c")
    1472                      .dwattr $C$DW$134, DW_AT_TI_begin_line(0x2ed)
    1473                      .dwattr $C$DW$134, DW_AT_TI_begin_column(0x06)
    1474                      .dwattr $C$DW$134, DW_AT_TI_max_frame_size(0x02)
    1475                      .dwpsn  file "../FreeRTOS/Demo/c5515_CCS/main.c",line 750,column 1,is_stmt,address _GenerateAudioTone
    1476              
    1477                      .dwfde $C$DW$CIE, _GenerateAudioTone
    1478              ;*******************************************************************************
    1479              ;* FUNCTION NAME: GenerateAudioTone                                            *
    1480              ;*                                                                             *
    1481              ;*   Function Uses Regs : AR1,AR2,SP,TC1,M40,SATA,SATD,RDM,FRCT,SMUL           *
    1482              ;*   Stack Frame        : Compact (No Frame Pointer, w/ debug)                 *
    1483              ;*   Total Frame Size   : 2 words                                              *
    1484              ;*                        (2 return address/alignment)                         *
    1485              ;*   Min System Stack   : 1 word                                               *
    1486              ;*******************************************************************************
    1487 0002f4       _GenerateAudioTone:
    1488                      .dwcfi  cfa_offset, 1
    1489                      .dwcfi  save_reg_to_mem, 91, -1
    1490 0002f4 4EFF          AADD #-1, SP
    1491                      .dwcfi  cfa_offset, 2
    1492                      .dwpsn  file "../FreeRTOS/Demo/c5515_CCS/main.c",line 751,column 2,is_stmt
    1493 0002f6 3CAA          MOV #10, AR2
    1494 0002f8 A931          MOV *(#_Conunt_RTC), AR1 ; |751| 
         0002fa 0000 
         0002fc 00!  
    1495 0002fd 1298          CMPU AR1 >= AR2, TC1 ; |751| 
         0002ff A4   
    1496 000300 0464          BCC $C$L28,TC1 ; |751| 
         000302 2F   
    1497                                                      ; branchcc occurs ; |751| 
    1498                      .dwpsn  file "../FreeRTOS/Demo/c5515_CCS/main.c",line 753,column 3,is_stmt
    1499 000303 F031          CMP *(#_f1KToneOn) == #1, TC1 ; |753| 
         000305 0001 
         000307 0000 
         000309 01-  
    1500 00030a 0464          BCC $C$L30,TC1 ; |753| 
         00030c 6F   
    1501                                                      ; branchcc occurs ; |753| 
    1502                      .dwpsn  file "../FreeRTOS/Demo/c5515_CCS/main.c",line 754,column 4,is_stmt
    1503                      .dwpsn  file "../FreeRTOS/Demo/c5515_CCS/main.c",line 756,column 3,is_stmt
    1504 00030d E631          MOV #1, *(#_fSineWave) ; |756| 
         00030f 0100 
         000311 0000-
    1505                      .dwpsn  file "../FreeRTOS/Demo/c5515_CCS/main.c",line 757,column 3,is_stmt
    1506 000313 E631          MOV #1, *(#_f1KToneOn) ; |757| 
         000315 0100 
         000317 0001-
TMS320C55x Assembler PC v4.4.1 Fri Sep 07 01:41:50 2018

Tools Copyright (c) 1996-2012 Texas Instruments Incorporated
main.asm                                                             PAGE   32

    1507                      .dwpsn  file "../FreeRTOS/Demo/c5515_CCS/main.c",line 758,column 3,is_stmt
    1508 000319 E631          MOV #0, *(#_f2KToneOn) ; |758| 
         00031b 0000 
         00031d 0002-
    1509                      .dwpsn  file "../FreeRTOS/Demo/c5515_CCS/main.c",line 759,column 9,is_stmt
    1510              $C$DW$135       .dwtag  DW_TAG_TI_branch
    1511                      .dwattr $C$DW$135, DW_AT_low_pc(0x00)
    1512                      .dwattr $C$DW$135, DW_AT_name("_set_dma0_ch0_stop")
    1513                      .dwattr $C$DW$135, DW_AT_TI_call
    1514 00031f 6C00          CALL #_set_dma0_ch0_stop ; |759| 
         000321 0000!
    1515                                                      ; call occurs [#_set_dma0_ch0_stop] ; |759| 
    1516                      .dwpsn  file "../FreeRTOS/Demo/c5515_CCS/main.c",line 760,column 6,is_stmt
    1517              $C$DW$136       .dwtag  DW_TAG_TI_branch
    1518                      .dwattr $C$DW$136, DW_AT_low_pc(0x00)
    1519                      .dwattr $C$DW$136, DW_AT_name("_set_dma0_ch1_stop")
    1520                      .dwattr $C$DW$136, DW_AT_TI_call
    1521 000323 6C00          CALL #_set_dma0_ch1_stop ; |760| 
         000325 0000!
    1522                                                      ; call occurs [#_set_dma0_ch1_stop] ; |760| 
    1523                      .dwpsn  file "../FreeRTOS/Demo/c5515_CCS/main.c",line 761,column 9,is_stmt
    1524              $C$DW$137       .dwtag  DW_TAG_TI_branch
    1525                      .dwattr $C$DW$137, DW_AT_low_pc(0x00)
    1526                      .dwattr $C$DW$137, DW_AT_name("_set_dma0_ch0_i2s0_Lout")
    1527                      .dwattr $C$DW$137, DW_AT_TI_call
    1528 000327 6C00          CALL #_set_dma0_ch0_i2s0_Lout ; |761| 
         000329 0000!
    1529                                                      ; call occurs [#_set_dma0_ch0_i2s0_Lout] ; |761| 
    1530                      .dwpsn  file "../FreeRTOS/Demo/c5515_CCS/main.c",line 762,column 6,is_stmt
    1531              $C$DW$138       .dwtag  DW_TAG_TI_branch
    1532                      .dwattr $C$DW$138, DW_AT_low_pc(0x00)
    1533                      .dwattr $C$DW$138, DW_AT_name("_set_dma0_ch1_i2s0_Rout")
    1534                      .dwattr $C$DW$138, DW_AT_TI_call
    1535 00032b 6C00          CALL #_set_dma0_ch1_i2s0_Rout ; |762| 
         00032d 0000!
    1536                                                      ; call occurs [#_set_dma0_ch1_i2s0_Rout] ; |762| 
    1537                      .dwpsn  file "../FreeRTOS/Demo/c5515_CCS/main.c",line 763,column 2,is_stmt
    1538 00032f 0600          B $C$L30  ; |763| 
         000331 4A   
    1539                                                      ; branch occurs ; |763| 
    1540 000332       $C$L28:    
    1541                      .dwpsn  file "../FreeRTOS/Demo/c5515_CCS/main.c",line 764,column 7,is_stmt
    1542 000332 7600          MOV #20, AR2 ; |764| 
         000334 14A8 
    1543 000336 1298          CMPU AR1 >= AR2, TC1 ; |764| 
         000338 A4   
    1544 000339 0464          BCC $C$L29,TC1 ; |764| 
         00033b 2E   
    1545                                                      ; branchcc occurs ; |764| 
    1546                      .dwpsn  file "../FreeRTOS/Demo/c5515_CCS/main.c",line 766,column 3,is_stmt
    1547 00033c F031          CMP *(#_f2KToneOn) == #1, TC1 ; |766| 
         00033e 0001 
         000340 0000 
         000342 02-  
    1548 000343 0464          BCC $C$L30,TC1 ; |766| 
TMS320C55x Assembler PC v4.4.1 Fri Sep 07 01:41:50 2018

Tools Copyright (c) 1996-2012 Texas Instruments Incorporated
main.asm                                                             PAGE   33

         000345 36   
    1549                                                      ; branchcc occurs ; |766| 
    1550                      .dwpsn  file "../FreeRTOS/Demo/c5515_CCS/main.c",line 767,column 4,is_stmt
    1551                      .dwpsn  file "../FreeRTOS/Demo/c5515_CCS/main.c",line 769,column 3,is_stmt
    1552 000346 E631          MOV #0, *(#_fSineWave) ; |769| 
         000348 0000 
         00034a 0000-
    1553                      .dwpsn  file "../FreeRTOS/Demo/c5515_CCS/main.c",line 770,column 3,is_stmt
    1554 00034c E631          MOV #0, *(#_f1KToneOn) ; |770| 
         00034e 0000 
         000350 0001-
    1555                      .dwpsn  file "../FreeRTOS/Demo/c5515_CCS/main.c",line 771,column 3,is_stmt
    1556 000352 E631          MOV #1, *(#_f2KToneOn) ; |771| 
         000354 0100 
         000356 0002-
    1557                      .dwpsn  file "../FreeRTOS/Demo/c5515_CCS/main.c",line 772,column 9,is_stmt
    1558              $C$DW$139       .dwtag  DW_TAG_TI_branch
    1559                      .dwattr $C$DW$139, DW_AT_low_pc(0x00)
    1560                      .dwattr $C$DW$139, DW_AT_name("_set_dma0_ch0_stop")
    1561                      .dwattr $C$DW$139, DW_AT_TI_call
    1562 000358 6C00          CALL #_set_dma0_ch0_stop ; |772| 
         00035a 0000!
    1563                                                      ; call occurs [#_set_dma0_ch0_stop] ; |772| 
    1564                      .dwpsn  file "../FreeRTOS/Demo/c5515_CCS/main.c",line 773,column 6,is_stmt
    1565              $C$DW$140       .dwtag  DW_TAG_TI_branch
    1566                      .dwattr $C$DW$140, DW_AT_low_pc(0x00)
    1567                      .dwattr $C$DW$140, DW_AT_name("_set_dma0_ch1_stop")
    1568                      .dwattr $C$DW$140, DW_AT_TI_call
    1569 00035c 6C00          CALL #_set_dma0_ch1_stop ; |773| 
         00035e 0000!
    1570                                                      ; call occurs [#_set_dma0_ch1_stop] ; |773| 
    1571                      .dwpsn  file "../FreeRTOS/Demo/c5515_CCS/main.c",line 774,column 9,is_stmt
    1572              $C$DW$141       .dwtag  DW_TAG_TI_branch
    1573                      .dwattr $C$DW$141, DW_AT_low_pc(0x00)
    1574                      .dwattr $C$DW$141, DW_AT_name("_set_dma0_ch0_i2s0_Lout")
    1575                      .dwattr $C$DW$141, DW_AT_TI_call
    1576 000360 6C00          CALL #_set_dma0_ch0_i2s0_Lout ; |774| 
         000362 0000!
    1577                                                      ; call occurs [#_set_dma0_ch0_i2s0_Lout] ; |774| 
    1578                      .dwpsn  file "../FreeRTOS/Demo/c5515_CCS/main.c",line 775,column 6,is_stmt
    1579              $C$DW$142       .dwtag  DW_TAG_TI_branch
    1580                      .dwattr $C$DW$142, DW_AT_low_pc(0x00)
    1581                      .dwattr $C$DW$142, DW_AT_name("_set_dma0_ch1_i2s0_Rout")
    1582                      .dwattr $C$DW$142, DW_AT_TI_call
    1583 000364 6C00          CALL #_set_dma0_ch1_i2s0_Rout ; |775| 
         000366 0000!
    1584                                                      ; call occurs [#_set_dma0_ch1_i2s0_Rout] ; |775| 
    1585                      .dwpsn  file "../FreeRTOS/Demo/c5515_CCS/main.c",line 776,column 2,is_stmt
    1586 000368 4A12          B $C$L30  ; |776| 
    1587                                                      ; branch occurs ; |776| 
    1588 00036a       $C$L29:    
    1589                      .dwpsn  file "../FreeRTOS/Demo/c5515_CCS/main.c",line 779,column 3,is_stmt
    1590 00036a E631          MOV #0, *(#_Conunt_RTC) ; |779| 
         00036c 0000 
         00036e 0000!
TMS320C55x Assembler PC v4.4.1 Fri Sep 07 01:41:50 2018

Tools Copyright (c) 1996-2012 Texas Instruments Incorporated
main.asm                                                             PAGE   34

    1591                      .dwpsn  file "../FreeRTOS/Demo/c5515_CCS/main.c",line 780,column 3,is_stmt
    1592 000370 E631          MOV #0, *(#_f1KToneOn) ; |780| 
         000372 0000 
         000374 0001-
    1593                      .dwpsn  file "../FreeRTOS/Demo/c5515_CCS/main.c",line 781,column 3,is_stmt
    1594 000376 E631          MOV #1, *(#_f2KToneOn) ; |781| 
         000378 0100 
         00037a 0002-
    1595                      .dwpsn  file "../FreeRTOS/Demo/c5515_CCS/main.c",line 784,column 1,is_stmt
    1596 00037c       $C$L30:    
    1597 00037c 4E01          AADD #1, SP
    1598                      .dwcfi  cfa_offset, 1
    1599              $C$DW$143       .dwtag  DW_TAG_TI_branch
    1600                      .dwattr $C$DW$143, DW_AT_low_pc(0x00)
    1601                      .dwattr $C$DW$143, DW_AT_TI_return
    1602 00037e 4804          RET
    1603                                                      ; return occurs
    1604                      .dwattr $C$DW$134, DW_AT_TI_end_file("../FreeRTOS/Demo/c5515_CCS/main.c")
    1605                      .dwattr $C$DW$134, DW_AT_TI_end_line(0x310)
    1606                      .dwattr $C$DW$134, DW_AT_TI_end_column(0x01)
    1607                      .dwendentry
    1608                      .dwendtag $C$DW$134
    1609              
    1610 000380               .sect   ".text"
    1611                      .align 4
    1612                      .global _systemInit
    1613              
    1614              $C$DW$144       .dwtag  DW_TAG_subprogram, DW_AT_name("systemInit")
    1615                      .dwattr $C$DW$144, DW_AT_low_pc(_systemInit)
    1616                      .dwattr $C$DW$144, DW_AT_high_pc(0x00)
    1617                      .dwattr $C$DW$144, DW_AT_TI_symbol_name("_systemInit")
    1618                      .dwattr $C$DW$144, DW_AT_external
    1619                      .dwattr $C$DW$144, DW_AT_TI_begin_file("../FreeRTOS/Demo/c5515_CCS/main.c")
    1620                      .dwattr $C$DW$144, DW_AT_TI_begin_line(0x311)
    1621                      .dwattr $C$DW$144, DW_AT_TI_begin_column(0x06)
    1622                      .dwattr $C$DW$144, DW_AT_TI_max_frame_size(0x14)
    1623                      .dwpsn  file "../FreeRTOS/Demo/c5515_CCS/main.c",line 786,column 1,is_stmt,address _systemInit
    1624              
    1625                      .dwfde $C$DW$CIE, _systemInit
    1626              ;*******************************************************************************
    1627              ;* FUNCTION NAME: systemInit                                                   *
    1628              ;*                                                                             *
    1629              ;*   Function Uses Regs : AC0,AC0,T0,AR0,XAR0,AR1,XAR1,AR2,XAR2,AR3,XAR3,SP,   *
    1630              ;*                        CSR,RPTC,CARRY,TC1,M40,SATA,SATD,RDM,FRCT,SMUL       *
    1631              ;*   Stack Frame        : Compact (No Frame Pointer, w/ debug)                 *
    1632              ;*   Total Frame Size   : 20 words                                             *
    1633              ;*                        (2 return address/alignment)                         *
    1634              ;*                        (18 local values)                                    *
    1635              ;*   Min System Stack   : 1 word                                               *
    1636              ;*******************************************************************************
    1637 000380       _systemInit:
    1638                      .dwcfi  cfa_offset, 1
    1639                      .dwcfi  save_reg_to_mem, 91, -1
    1640 000380 4EED          AADD #-19, SP
    1641                      .dwcfi  cfa_offset, 20
TMS320C55x Assembler PC v4.4.1 Fri Sep 07 01:41:50 2018

Tools Copyright (c) 1996-2012 Texas Instruments Incorporated
main.asm                                                             PAGE   35

    1642              $C$DW$145       .dwtag  DW_TAG_variable, DW_AT_name("i")
    1643                      .dwattr $C$DW$145, DW_AT_TI_symbol_name("_i")
    1644                      .dwattr $C$DW$145, DW_AT_type(*$C$DW$T$19)
    1645                      .dwattr $C$DW$145, DW_AT_location[DW_OP_bregx 0x24 0]
    1646              $C$DW$146       .dwtag  DW_TAG_variable, DW_AT_name("pllObj")
    1647                      .dwattr $C$DW$146, DW_AT_TI_symbol_name("_pllObj")
    1648                      .dwattr $C$DW$146, DW_AT_type(*$C$DW$T$35)
    1649                      .dwattr $C$DW$146, DW_AT_location[DW_OP_bregx 0x24 2]
    1650              $C$DW$147       .dwtag  DW_TAG_variable, DW_AT_name("status")
    1651                      .dwattr $C$DW$147, DW_AT_TI_symbol_name("_status")
    1652                      .dwattr $C$DW$147, DW_AT_type(*$C$DW$T$49)
    1653                      .dwattr $C$DW$147, DW_AT_location[DW_OP_bregx 0x24 8]
    1654              $C$DW$148       .dwtag  DW_TAG_variable, DW_AT_name("hPll")
    1655                      .dwattr $C$DW$148, DW_AT_TI_symbol_name("_hPll")
    1656                      .dwattr $C$DW$148, DW_AT_type(*$C$DW$T$38)
    1657                      .dwattr $C$DW$148, DW_AT_location[DW_OP_bregx 0x24 10]
    1658              $C$DW$149       .dwtag  DW_TAG_variable, DW_AT_name("pConfigInfo")
    1659                      .dwattr $C$DW$149, DW_AT_TI_symbol_name("_pConfigInfo")
    1660                      .dwattr $C$DW$149, DW_AT_type(*$C$DW$T$27)
    1661                      .dwattr $C$DW$149, DW_AT_location[DW_OP_bregx 0x24 12]
    1662              $C$DW$150       .dwtag  DW_TAG_variable, DW_AT_name("pllCfg_v2_100MHz")
    1663                      .dwattr $C$DW$150, DW_AT_TI_symbol_name("_pllCfg_v2_100MHz")
    1664                      .dwattr $C$DW$150, DW_AT_type(*$C$DW$T$26)
    1665                      .dwattr $C$DW$150, DW_AT_location[DW_OP_bregx 0x24 14]
    1666                      .dwpsn  file "../FreeRTOS/Demo/c5515_CCS/main.c",line 792,column 16,is_stmt
    1667 000382 EC31          AMOV #_$P$T0$2, XAR3 ; |792| 
         000384 BE00 
         000386 0000+
    1668              
    1669 00038b 4D03          RPT #3    ; |792| 
    1670 000388 EC1C  ||      AMAR *SP(#14), XAR2
         00038a AE   
    1671              
    1672                                                          ; loop starts ; |792| 
    1673 00038d       $C$L31:    
    1674 00038d       $C$DW$L$_systemInit$2$B:
    1675 00038d 8065              MOV *AR3+, *AR2+ ; |792| 
         00038f 14   
    1676                                                      ; loop ends ; |792| 
    1677 000390       $C$DW$L$_systemInit$2$E:
    1678 000390       $C$L32:    
    1679                      .dwpsn  file "../FreeRTOS/Demo/c5515_CCS/main.c",line 795,column 5,is_stmt
    1680 000390 FB51          MOV #65326, *port(#1) ; |795| 
         000392 FF2E 
         000394 0001 
    1681                      .dwpsn  file "../FreeRTOS/Demo/c5515_CCS/main.c",line 796,column 5,is_stmt
    1682 000396 7A00   IDLE
         000398 000C 
    1683                      .dwpsn  file "../FreeRTOS/Demo/c5515_CCS/main.c",line 799,column 5,is_stmt
    1684 00039a 3C00          MOV #0, AC0 ; |799| 
    1685 00039c A951          MOV *port(#7172), AR1 ; |799| 
         00039e 1C04 
    1686 0003a0 EC02          BSET @#1, AC0 ; |799| 
         0003a2 00   
    1687 0003a3 C051          MOV AC0, *port(#7172) ; |799| 
TMS320C55x Assembler PC v4.4.1 Fri Sep 07 01:41:50 2018

Tools Copyright (c) 1996-2012 Texas Instruments Incorporated
main.asm                                                             PAGE   36

         0003a5 1C04 
    1688                      .dwpsn  file "../FreeRTOS/Demo/c5515_CCS/main.c",line 800,column 5,is_stmt
    1689 0003a7 FB51          MOV #251, *port(#7173) ; |800| 
         0003a9 00FB 
         0003ab 1C05 
    1690                      .dwpsn  file "../FreeRTOS/Demo/c5515_CCS/main.c",line 803,column 10,is_stmt
    1691 0003ad E600          MOV #0, *SP(#0) ; |803| 
         0003af 00   
    1692                      .dwpsn  file "../FreeRTOS/Demo/c5515_CCS/main.c",line 803,column 15,is_stmt
    1693 0003b0 7600          MOV #200, AR2 ; |803| 
         0003b2 C8A8 
    1694 0003b4 A900          MOV *SP(#0), AR1 ; |803| 
    1695 0003b6 1298          CMPU AR1 >= AR2, TC1 ; |803| 
         0003b8 A4   
    1696 0003b9 6664          BCC $C$L34,TC1 ; |803| 
    1697                                                      ; branchcc occurs ; |803| 
    1698 0003bb       $C$L33:    
    1699 0003bb       $C$DW$L$_systemInit$4$B:
    1700                      .dwpsn  file "../FreeRTOS/Demo/c5515_CCS/main.c",line 803,column 23,is_stmt
    1701 0003bb F700          ADD #1, *SP(#0) ; |803| 
         0003bd 0001 
    1702                      .dwpsn  file "../FreeRTOS/Demo/c5515_CCS/main.c",line 803,column 15,is_stmt
    1703 0003bf A900          MOV *SP(#0), AR1 ; |803| 
    1704 0003c1 1294          CMPU AR1 < AR2, TC1 ; |803| 
         0003c3 A4   
    1705 0003c4 0464          BCC $C$L33,TC1 ; |803| 
         0003c6 F4   
    1706                                                      ; branchcc occurs ; |803| 
    1707 0003c7       $C$DW$L$_systemInit$4$E:
    1708 0003c7       $C$L34:    
    1709                      .dwpsn  file "../FreeRTOS/Demo/c5515_CCS/main.c",line 806,column 5,is_stmt
    1710 0003c7 EC04          AMAR *SP(#2), XAR0
         0003c9 8E   
    1711              $C$DW$151       .dwtag  DW_TAG_TI_branch
    1712                      .dwattr $C$DW$151, DW_AT_low_pc(0x00)
    1713                      .dwattr $C$DW$151, DW_AT_name("_PLL_init")
    1714                      .dwattr $C$DW$151, DW_AT_TI_call
    1715              
    1716 0003ca 6C00          CALL #_PLL_init ; |806| 
         0003cc 0000!
    1717 0003ce 3D00  ||      MOV #0, AC0 ; |806| 
    1718              
    1719                                                      ; call occurs [#_PLL_init] ; |806| 
    1720 0003d0 C410          MOV T0, *SP(#8) ; |806| 
    1721                      .dwpsn  file "../FreeRTOS/Demo/c5515_CCS/main.c",line 807,column 5,is_stmt
    1722 0003d2 EC04          AMAR *SP(#2), XAR3
         0003d4 BE   
    1723 0003d5 EB14          MOV XAR3, dbl(*SP(#10))
         0003d7 B5   
    1724                      .dwpsn  file "../FreeRTOS/Demo/c5515_CCS/main.c",line 808,column 5,is_stmt
    1725 0003d8 ED14          MOV dbl(*SP(#10)), XAR0
         0003da 8F   
    1726              $C$DW$152       .dwtag  DW_TAG_TI_branch
    1727                      .dwattr $C$DW$152, DW_AT_low_pc(0x00)
    1728                      .dwattr $C$DW$152, DW_AT_name("_PLL_reset")
TMS320C55x Assembler PC v4.4.1 Fri Sep 07 01:41:50 2018

Tools Copyright (c) 1996-2012 Texas Instruments Incorporated
main.asm                                                             PAGE   37

    1729                      .dwattr $C$DW$152, DW_AT_TI_call
    1730 0003db 6C00          CALL #_PLL_reset ; |808| 
         0003dd 0000!
    1731                                                      ; call occurs [#_PLL_reset] ; |808| 
    1732                      .dwpsn  file "../FreeRTOS/Demo/c5515_CCS/main.c",line 809,column 5,is_stmt
    1733 0003df EC1C          AMAR *SP(#14), XAR3
         0003e1 BE   
    1734 0003e2 EB18          MOV XAR3, dbl(*SP(#12))
         0003e4 B5   
    1735                      .dwpsn  file "../FreeRTOS/Demo/c5515_CCS/main.c",line 811,column 5,is_stmt
    1736 0003e5 ED14          MOV dbl(*SP(#10)), XAR0
         0003e7 8F   
    1737 0003e8 ED18          MOV dbl(*SP(#12)), XAR1
         0003ea 9F   
    1738              $C$DW$153       .dwtag  DW_TAG_TI_branch
    1739                      .dwattr $C$DW$153, DW_AT_low_pc(0x00)
    1740                      .dwattr $C$DW$153, DW_AT_name("_PLL_config")
    1741                      .dwattr $C$DW$153, DW_AT_TI_call
    1742 0003eb 6C00          CALL #_PLL_config ; |811| 
         0003ed 0000!
    1743                                                      ; call occurs [#_PLL_config] ; |811| 
    1744 0003ef C410          MOV T0, *SP(#8) ; |811| 
    1745                      .dwpsn  file "../FreeRTOS/Demo/c5515_CCS/main.c",line 812,column 1,is_stmt
    1746 0003f1 4E13          AADD #19, SP
    1747                      .dwcfi  cfa_offset, 1
    1748              $C$DW$154       .dwtag  DW_TAG_TI_branch
    1749                      .dwattr $C$DW$154, DW_AT_low_pc(0x00)
    1750                      .dwattr $C$DW$154, DW_AT_TI_return
    1751 0003f3 4804          RET
    1752                                                      ; return occurs
    1753              
    1754              $C$DW$155       .dwtag  DW_TAG_TI_loop
    1755                      .dwattr $C$DW$155, DW_AT_name("F:\site\eZDSP\eZDSP_5535_Files\ccsws2\test\Debug\main.asm:$C$L33:1:153
    1756                      .dwattr $C$DW$155, DW_AT_TI_begin_file("../FreeRTOS/Demo/c5515_CCS/main.c")
    1757                      .dwattr $C$DW$155, DW_AT_TI_begin_line(0x323)
    1758                      .dwattr $C$DW$155, DW_AT_TI_end_line(0x323)
    1759              $C$DW$156       .dwtag  DW_TAG_TI_loop_range
    1760                      .dwattr $C$DW$156, DW_AT_low_pc($C$DW$L$_systemInit$4$B)
    1761                      .dwattr $C$DW$156, DW_AT_high_pc($C$DW$L$_systemInit$4$E)
    1762                      .dwendtag $C$DW$155
    1763              
    1764              
    1765              $C$DW$157       .dwtag  DW_TAG_TI_loop
    1766                      .dwattr $C$DW$157, DW_AT_name("F:\site\eZDSP\eZDSP_5535_Files\ccsws2\test\Debug\main.asm:$C$L31:1:153
    1767                      .dwattr $C$DW$157, DW_AT_TI_begin_file("../FreeRTOS/Demo/c5515_CCS/main.c")
    1768                      .dwattr $C$DW$157, DW_AT_TI_begin_line(0x318)
    1769                      .dwattr $C$DW$157, DW_AT_TI_end_line(0x318)
    1770              $C$DW$158       .dwtag  DW_TAG_TI_loop_range
    1771                      .dwattr $C$DW$158, DW_AT_low_pc($C$DW$L$_systemInit$2$B)
    1772                      .dwattr $C$DW$158, DW_AT_high_pc($C$DW$L$_systemInit$2$E)
    1773                      .dwendtag $C$DW$157
    1774              
    1775                      .dwattr $C$DW$144, DW_AT_TI_end_file("../FreeRTOS/Demo/c5515_CCS/main.c")
    1776                      .dwattr $C$DW$144, DW_AT_TI_end_line(0x32c)
    1777                      .dwattr $C$DW$144, DW_AT_TI_end_column(0x01)
TMS320C55x Assembler PC v4.4.1 Fri Sep 07 01:41:50 2018

Tools Copyright (c) 1996-2012 Texas Instruments Incorporated
main.asm                                                             PAGE   38

    1778                      .dwendentry
    1779                      .dwendtag $C$DW$144
    1780              
    1781              ;******************************************************************************
    1782              ;* UNDEFINED EXTERNAL REFERENCES                                              *
    1783              ;******************************************************************************
    1784                      .global _EZDSP5535_init
    1785                      .global _EZDSP5535_waitusec
    1786                      .global _vTaskStartScheduler
    1787                      .global _vStartLEDFlashTasks
    1788                      .global _reset_RTC
    1789                      .global _enable_i2s0
    1790                      .global _set_i2s0_slave
    1791                      .global _set_dma0_ch0_i2s0_Lout
    1792                      .global _set_dma0_ch1_i2s0_Rout
    1793                      .global _set_dma0_ch0_stop
    1794                      .global _set_dma0_ch1_stop
    1795                      .global _EZDSP5535_LED_init
    1796                      .global _EZDSP5535_LED_on
    1797                      .global _EZDSP5535_LED_off
    1798                      .global _EZDSP5535_XF_toggle
    1799                      .global _EZDSP5535_SAR_init
    1800                      .global _EZDSP5535_SAR_getKey
    1801                      .global _PLL_init
    1802                      .global _PLL_config
    1803                      .global _PLL_reset
    1804                      .global _mem_test
    1805                      .global _oled_test
    1806                      .global _spiflash_test
    1807                      .global _RTC_reset
    1808                      .global _fTimer
    1809                      .global _Flag_RTC
    1810                      .global _Conunt_RTC
    1811                      .global _VECSTART
    1812              
    1813              ;*******************************************************************************
    1814              ;* TYPE INFORMATION                                                            *
    1815              ;*******************************************************************************
    1816              
    1817              $C$DW$T$20      .dwtag  DW_TAG_structure_type
    1818                      .dwattr $C$DW$T$20, DW_AT_byte_size(0x04)
    1819              $C$DW$159       .dwtag  DW_TAG_member
    1820                      .dwattr $C$DW$159, DW_AT_type(*$C$DW$T$19)
    1821                      .dwattr $C$DW$159, DW_AT_name("PLLCNTL1")
    1822                      .dwattr $C$DW$159, DW_AT_TI_symbol_name("_PLLCNTL1")
    1823                      .dwattr $C$DW$159, DW_AT_data_member_location[DW_OP_plus_uconst 0x0]
    1824                      .dwattr $C$DW$159, DW_AT_accessibility(DW_ACCESS_public)
    1825              $C$DW$160       .dwtag  DW_TAG_member
    1826                      .dwattr $C$DW$160, DW_AT_type(*$C$DW$T$19)
    1827                      .dwattr $C$DW$160, DW_AT_name("PLLINCNTL")
    1828                      .dwattr $C$DW$160, DW_AT_TI_symbol_name("_PLLINCNTL")
    1829                      .dwattr $C$DW$160, DW_AT_data_member_location[DW_OP_plus_uconst 0x1]
    1830                      .dwattr $C$DW$160, DW_AT_accessibility(DW_ACCESS_public)
    1831              $C$DW$161       .dwtag  DW_TAG_member
    1832                      .dwattr $C$DW$161, DW_AT_type(*$C$DW$T$19)
TMS320C55x Assembler PC v4.4.1 Fri Sep 07 01:41:50 2018

Tools Copyright (c) 1996-2012 Texas Instruments Incorporated
main.asm                                                             PAGE   39

    1833                      .dwattr $C$DW$161, DW_AT_name("PLLCNTL2")
    1834                      .dwattr $C$DW$161, DW_AT_TI_symbol_name("_PLLCNTL2")
    1835                      .dwattr $C$DW$161, DW_AT_data_member_location[DW_OP_plus_uconst 0x2]
    1836                      .dwattr $C$DW$161, DW_AT_accessibility(DW_ACCESS_public)
    1837              $C$DW$162       .dwtag  DW_TAG_member
    1838                      .dwattr $C$DW$162, DW_AT_type(*$C$DW$T$19)
    1839                      .dwattr $C$DW$162, DW_AT_name("PLLOUTCNTL")
    1840                      .dwattr $C$DW$162, DW_AT_TI_symbol_name("_PLLOUTCNTL")
    1841                      .dwattr $C$DW$162, DW_AT_data_member_location[DW_OP_plus_uconst 0x3]
    1842                      .dwattr $C$DW$162, DW_AT_accessibility(DW_ACCESS_public)
    1843                      .dwendtag $C$DW$T$20
    1844              
    1845              $C$DW$T$26      .dwtag  DW_TAG_typedef, DW_AT_name("PLL_Config")
    1846                      .dwattr $C$DW$T$26, DW_AT_type(*$C$DW$T$20)
    1847                      .dwattr $C$DW$T$26, DW_AT_language(DW_LANG_C)
    1848              $C$DW$163       .dwtag  DW_TAG_TI_far_type
    1849                      .dwattr $C$DW$163, DW_AT_type(*$C$DW$T$26)
    1850              $C$DW$T$34      .dwtag  DW_TAG_const_type
    1851                      .dwattr $C$DW$T$34, DW_AT_type(*$C$DW$163)
    1852              $C$DW$T$27      .dwtag  DW_TAG_pointer_type
    1853                      .dwattr $C$DW$T$27, DW_AT_type(*$C$DW$T$26)
    1854                      .dwattr $C$DW$T$27, DW_AT_address_class(0x17)
    1855              
    1856              $C$DW$T$25      .dwtag  DW_TAG_structure_type
    1857                      .dwattr $C$DW$T$25, DW_AT_byte_size(0x48)
    1858              $C$DW$164       .dwtag  DW_TAG_member
    1859                      .dwattr $C$DW$164, DW_AT_type(*$C$DW$T$21)
    1860                      .dwattr $C$DW$164, DW_AT_name("EBSR")
    1861                      .dwattr $C$DW$164, DW_AT_TI_symbol_name("_EBSR")
    1862                      .dwattr $C$DW$164, DW_AT_data_member_location[DW_OP_plus_uconst 0x0]
    1863                      .dwattr $C$DW$164, DW_AT_accessibility(DW_ACCESS_public)
    1864              $C$DW$165       .dwtag  DW_TAG_member
    1865                      .dwattr $C$DW$165, DW_AT_type(*$C$DW$T$21)
    1866                      .dwattr $C$DW$165, DW_AT_name("RSVD0")
    1867                      .dwattr $C$DW$165, DW_AT_TI_symbol_name("_RSVD0")
    1868                      .dwattr $C$DW$165, DW_AT_data_member_location[DW_OP_plus_uconst 0x1]
    1869                      .dwattr $C$DW$165, DW_AT_accessibility(DW_ACCESS_public)
    1870              $C$DW$166       .dwtag  DW_TAG_member
    1871                      .dwattr $C$DW$166, DW_AT_type(*$C$DW$T$21)
    1872                      .dwattr $C$DW$166, DW_AT_name("PCGCR1")
    1873                      .dwattr $C$DW$166, DW_AT_TI_symbol_name("_PCGCR1")
    1874                      .dwattr $C$DW$166, DW_AT_data_member_location[DW_OP_plus_uconst 0x2]
    1875                      .dwattr $C$DW$166, DW_AT_accessibility(DW_ACCESS_public)
    1876              $C$DW$167       .dwtag  DW_TAG_member
    1877                      .dwattr $C$DW$167, DW_AT_type(*$C$DW$T$21)
    1878                      .dwattr $C$DW$167, DW_AT_name("PCGCR2")
    1879                      .dwattr $C$DW$167, DW_AT_TI_symbol_name("_PCGCR2")
    1880                      .dwattr $C$DW$167, DW_AT_data_member_location[DW_OP_plus_uconst 0x3]
    1881                      .dwattr $C$DW$167, DW_AT_accessibility(DW_ACCESS_public)
    1882              $C$DW$168       .dwtag  DW_TAG_member
    1883                      .dwattr $C$DW$168, DW_AT_type(*$C$DW$T$21)
    1884                      .dwattr $C$DW$168, DW_AT_name("PSRCR")
    1885                      .dwattr $C$DW$168, DW_AT_TI_symbol_name("_PSRCR")
    1886                      .dwattr $C$DW$168, DW_AT_data_member_location[DW_OP_plus_uconst 0x4]
    1887                      .dwattr $C$DW$168, DW_AT_accessibility(DW_ACCESS_public)
TMS320C55x Assembler PC v4.4.1 Fri Sep 07 01:41:50 2018

Tools Copyright (c) 1996-2012 Texas Instruments Incorporated
main.asm                                                             PAGE   40

    1888              $C$DW$169       .dwtag  DW_TAG_member
    1889                      .dwattr $C$DW$169, DW_AT_type(*$C$DW$T$21)
    1890                      .dwattr $C$DW$169, DW_AT_name("PRCR")
    1891                      .dwattr $C$DW$169, DW_AT_TI_symbol_name("_PRCR")
    1892                      .dwattr $C$DW$169, DW_AT_data_member_location[DW_OP_plus_uconst 0x5]
    1893                      .dwattr $C$DW$169, DW_AT_accessibility(DW_ACCESS_public)
    1894              $C$DW$170       .dwtag  DW_TAG_member
    1895                      .dwattr $C$DW$170, DW_AT_type(*$C$DW$T$22)
    1896                      .dwattr $C$DW$170, DW_AT_name("RSVD1")
    1897                      .dwattr $C$DW$170, DW_AT_TI_symbol_name("_RSVD1")
    1898                      .dwattr $C$DW$170, DW_AT_data_member_location[DW_OP_plus_uconst 0x6]
    1899                      .dwattr $C$DW$170, DW_AT_accessibility(DW_ACCESS_public)
    1900              $C$DW$171       .dwtag  DW_TAG_member
    1901                      .dwattr $C$DW$171, DW_AT_type(*$C$DW$T$21)
    1902                      .dwattr $C$DW$171, DW_AT_name("TIAFR")
    1903                      .dwattr $C$DW$171, DW_AT_TI_symbol_name("_TIAFR")
    1904                      .dwattr $C$DW$171, DW_AT_data_member_location[DW_OP_plus_uconst 0x14]
    1905                      .dwattr $C$DW$171, DW_AT_accessibility(DW_ACCESS_public)
    1906              $C$DW$172       .dwtag  DW_TAG_member
    1907                      .dwattr $C$DW$172, DW_AT_type(*$C$DW$T$21)
    1908                      .dwattr $C$DW$172, DW_AT_name("RSVD2")
    1909                      .dwattr $C$DW$172, DW_AT_TI_symbol_name("_RSVD2")
    1910                      .dwattr $C$DW$172, DW_AT_data_member_location[DW_OP_plus_uconst 0x15]
    1911                      .dwattr $C$DW$172, DW_AT_accessibility(DW_ACCESS_public)
    1912              $C$DW$173       .dwtag  DW_TAG_member
    1913                      .dwattr $C$DW$173, DW_AT_type(*$C$DW$T$21)
    1914                      .dwattr $C$DW$173, DW_AT_name("ODSCR")
    1915                      .dwattr $C$DW$173, DW_AT_TI_symbol_name("_ODSCR")
    1916                      .dwattr $C$DW$173, DW_AT_data_member_location[DW_OP_plus_uconst 0x16]
    1917                      .dwattr $C$DW$173, DW_AT_accessibility(DW_ACCESS_public)
    1918              $C$DW$174       .dwtag  DW_TAG_member
    1919                      .dwattr $C$DW$174, DW_AT_type(*$C$DW$T$21)
    1920                      .dwattr $C$DW$174, DW_AT_name("PDINHIBR1")
    1921                      .dwattr $C$DW$174, DW_AT_TI_symbol_name("_PDINHIBR1")
    1922                      .dwattr $C$DW$174, DW_AT_data_member_location[DW_OP_plus_uconst 0x17]
    1923                      .dwattr $C$DW$174, DW_AT_accessibility(DW_ACCESS_public)
    1924              $C$DW$175       .dwtag  DW_TAG_member
    1925                      .dwattr $C$DW$175, DW_AT_type(*$C$DW$T$21)
    1926                      .dwattr $C$DW$175, DW_AT_name("PDINHIBR2")
    1927                      .dwattr $C$DW$175, DW_AT_TI_symbol_name("_PDINHIBR2")
    1928                      .dwattr $C$DW$175, DW_AT_data_member_location[DW_OP_plus_uconst 0x18]
    1929                      .dwattr $C$DW$175, DW_AT_accessibility(DW_ACCESS_public)
    1930              $C$DW$176       .dwtag  DW_TAG_member
    1931                      .dwattr $C$DW$176, DW_AT_type(*$C$DW$T$21)
    1932                      .dwattr $C$DW$176, DW_AT_name("PDINHIBR3")
    1933                      .dwattr $C$DW$176, DW_AT_TI_symbol_name("_PDINHIBR3")
    1934                      .dwattr $C$DW$176, DW_AT_data_member_location[DW_OP_plus_uconst 0x19]
    1935                      .dwattr $C$DW$176, DW_AT_accessibility(DW_ACCESS_public)
    1936              $C$DW$177       .dwtag  DW_TAG_member
    1937                      .dwattr $C$DW$177, DW_AT_type(*$C$DW$T$21)
    1938                      .dwattr $C$DW$177, DW_AT_name("DMA0CESR1")
    1939                      .dwattr $C$DW$177, DW_AT_TI_symbol_name("_DMA0CESR1")
    1940                      .dwattr $C$DW$177, DW_AT_data_member_location[DW_OP_plus_uconst 0x1a]
    1941                      .dwattr $C$DW$177, DW_AT_accessibility(DW_ACCESS_public)
    1942              $C$DW$178       .dwtag  DW_TAG_member
TMS320C55x Assembler PC v4.4.1 Fri Sep 07 01:41:50 2018

Tools Copyright (c) 1996-2012 Texas Instruments Incorporated
main.asm                                                             PAGE   41

    1943                      .dwattr $C$DW$178, DW_AT_type(*$C$DW$T$21)
    1944                      .dwattr $C$DW$178, DW_AT_name("DMA0CESR2")
    1945                      .dwattr $C$DW$178, DW_AT_TI_symbol_name("_DMA0CESR2")
    1946                      .dwattr $C$DW$178, DW_AT_data_member_location[DW_OP_plus_uconst 0x1b]
    1947                      .dwattr $C$DW$178, DW_AT_accessibility(DW_ACCESS_public)
    1948              $C$DW$179       .dwtag  DW_TAG_member
    1949                      .dwattr $C$DW$179, DW_AT_type(*$C$DW$T$21)
    1950                      .dwattr $C$DW$179, DW_AT_name("DMA1CESR1")
    1951                      .dwattr $C$DW$179, DW_AT_TI_symbol_name("_DMA1CESR1")
    1952                      .dwattr $C$DW$179, DW_AT_data_member_location[DW_OP_plus_uconst 0x1c]
    1953                      .dwattr $C$DW$179, DW_AT_accessibility(DW_ACCESS_public)
    1954              $C$DW$180       .dwtag  DW_TAG_member
    1955                      .dwattr $C$DW$180, DW_AT_type(*$C$DW$T$21)
    1956                      .dwattr $C$DW$180, DW_AT_name("DMA1CESR2")
    1957                      .dwattr $C$DW$180, DW_AT_TI_symbol_name("_DMA1CESR2")
    1958                      .dwattr $C$DW$180, DW_AT_data_member_location[DW_OP_plus_uconst 0x1d]
    1959                      .dwattr $C$DW$180, DW_AT_accessibility(DW_ACCESS_public)
    1960              $C$DW$181       .dwtag  DW_TAG_member
    1961                      .dwattr $C$DW$181, DW_AT_type(*$C$DW$T$21)
    1962                      .dwattr $C$DW$181, DW_AT_name("SDRAMCCR")
    1963                      .dwattr $C$DW$181, DW_AT_TI_symbol_name("_SDRAMCCR")
    1964                      .dwattr $C$DW$181, DW_AT_data_member_location[DW_OP_plus_uconst 0x1e]
    1965                      .dwattr $C$DW$181, DW_AT_accessibility(DW_ACCESS_public)
    1966              $C$DW$182       .dwtag  DW_TAG_member
    1967                      .dwattr $C$DW$182, DW_AT_type(*$C$DW$T$21)
    1968                      .dwattr $C$DW$182, DW_AT_name("CCR2")
    1969                      .dwattr $C$DW$182, DW_AT_TI_symbol_name("_CCR2")
    1970                      .dwattr $C$DW$182, DW_AT_data_member_location[DW_OP_plus_uconst 0x1f]
    1971                      .dwattr $C$DW$182, DW_AT_accessibility(DW_ACCESS_public)
    1972              $C$DW$183       .dwtag  DW_TAG_member
    1973                      .dwattr $C$DW$183, DW_AT_type(*$C$DW$T$21)
    1974                      .dwattr $C$DW$183, DW_AT_name("CGCR1")
    1975                      .dwattr $C$DW$183, DW_AT_TI_symbol_name("_CGCR1")
    1976                      .dwattr $C$DW$183, DW_AT_data_member_location[DW_OP_plus_uconst 0x20]
    1977                      .dwattr $C$DW$183, DW_AT_accessibility(DW_ACCESS_public)
    1978              $C$DW$184       .dwtag  DW_TAG_member
    1979                      .dwattr $C$DW$184, DW_AT_type(*$C$DW$T$21)
    1980                      .dwattr $C$DW$184, DW_AT_name("CGICR")
    1981                      .dwattr $C$DW$184, DW_AT_TI_symbol_name("_CGICR")
    1982                      .dwattr $C$DW$184, DW_AT_data_member_location[DW_OP_plus_uconst 0x21]
    1983                      .dwattr $C$DW$184, DW_AT_accessibility(DW_ACCESS_public)
    1984              $C$DW$185       .dwtag  DW_TAG_member
    1985                      .dwattr $C$DW$185, DW_AT_type(*$C$DW$T$21)
    1986                      .dwattr $C$DW$185, DW_AT_name("CGCR2")
    1987                      .dwattr $C$DW$185, DW_AT_TI_symbol_name("_CGCR2")
    1988                      .dwattr $C$DW$185, DW_AT_data_member_location[DW_OP_plus_uconst 0x22]
    1989                      .dwattr $C$DW$185, DW_AT_accessibility(DW_ACCESS_public)
    1990              $C$DW$186       .dwtag  DW_TAG_member
    1991                      .dwattr $C$DW$186, DW_AT_type(*$C$DW$T$21)
    1992                      .dwattr $C$DW$186, DW_AT_name("CGOCR")
    1993                      .dwattr $C$DW$186, DW_AT_TI_symbol_name("_CGOCR")
    1994                      .dwattr $C$DW$186, DW_AT_data_member_location[DW_OP_plus_uconst 0x23]
    1995                      .dwattr $C$DW$186, DW_AT_accessibility(DW_ACCESS_public)
    1996              $C$DW$187       .dwtag  DW_TAG_member
    1997                      .dwattr $C$DW$187, DW_AT_type(*$C$DW$T$21)
TMS320C55x Assembler PC v4.4.1 Fri Sep 07 01:41:50 2018

Tools Copyright (c) 1996-2012 Texas Instruments Incorporated
main.asm                                                             PAGE   42

    1998                      .dwattr $C$DW$187, DW_AT_name("CCSSR")
    1999                      .dwattr $C$DW$187, DW_AT_TI_symbol_name("_CCSSR")
    2000                      .dwattr $C$DW$187, DW_AT_data_member_location[DW_OP_plus_uconst 0x24]
    2001                      .dwattr $C$DW$187, DW_AT_accessibility(DW_ACCESS_public)
    2002              $C$DW$188       .dwtag  DW_TAG_member
    2003                      .dwattr $C$DW$188, DW_AT_type(*$C$DW$T$21)
    2004                      .dwattr $C$DW$188, DW_AT_name("RSVD3")
    2005                      .dwattr $C$DW$188, DW_AT_TI_symbol_name("_RSVD3")
    2006                      .dwattr $C$DW$188, DW_AT_data_member_location[DW_OP_plus_uconst 0x25]
    2007                      .dwattr $C$DW$188, DW_AT_accessibility(DW_ACCESS_public)
    2008              $C$DW$189       .dwtag  DW_TAG_member
    2009                      .dwattr $C$DW$189, DW_AT_type(*$C$DW$T$21)
    2010                      .dwattr $C$DW$189, DW_AT_name("ECDR")
    2011                      .dwattr $C$DW$189, DW_AT_TI_symbol_name("_ECDR")
    2012                      .dwattr $C$DW$189, DW_AT_data_member_location[DW_OP_plus_uconst 0x26]
    2013                      .dwattr $C$DW$189, DW_AT_accessibility(DW_ACCESS_public)
    2014              $C$DW$190       .dwtag  DW_TAG_member
    2015                      .dwattr $C$DW$190, DW_AT_type(*$C$DW$T$21)
    2016                      .dwattr $C$DW$190, DW_AT_name("RSVD4")
    2017                      .dwattr $C$DW$190, DW_AT_TI_symbol_name("_RSVD4")
    2018                      .dwattr $C$DW$190, DW_AT_data_member_location[DW_OP_plus_uconst 0x27]
    2019                      .dwattr $C$DW$190, DW_AT_accessibility(DW_ACCESS_public)
    2020              $C$DW$191       .dwtag  DW_TAG_member
    2021                      .dwattr $C$DW$191, DW_AT_type(*$C$DW$T$21)
    2022                      .dwattr $C$DW$191, DW_AT_name("RAMSLPMDCNTLR1")
    2023                      .dwattr $C$DW$191, DW_AT_TI_symbol_name("_RAMSLPMDCNTLR1")
    2024                      .dwattr $C$DW$191, DW_AT_data_member_location[DW_OP_plus_uconst 0x28]
    2025                      .dwattr $C$DW$191, DW_AT_accessibility(DW_ACCESS_public)
    2026              $C$DW$192       .dwtag  DW_TAG_member
    2027                      .dwattr $C$DW$192, DW_AT_type(*$C$DW$T$21)
    2028                      .dwattr $C$DW$192, DW_AT_name("RSVD5")
    2029                      .dwattr $C$DW$192, DW_AT_TI_symbol_name("_RSVD5")
    2030                      .dwattr $C$DW$192, DW_AT_data_member_location[DW_OP_plus_uconst 0x29]
    2031                      .dwattr $C$DW$192, DW_AT_accessibility(DW_ACCESS_public)
    2032              $C$DW$193       .dwtag  DW_TAG_member
    2033                      .dwattr $C$DW$193, DW_AT_type(*$C$DW$T$21)
    2034                      .dwattr $C$DW$193, DW_AT_name("RAMSLPMDCNTLR2")
    2035                      .dwattr $C$DW$193, DW_AT_TI_symbol_name("_RAMSLPMDCNTLR2")
    2036                      .dwattr $C$DW$193, DW_AT_data_member_location[DW_OP_plus_uconst 0x2a]
    2037                      .dwattr $C$DW$193, DW_AT_accessibility(DW_ACCESS_public)
    2038              $C$DW$194       .dwtag  DW_TAG_member
    2039                      .dwattr $C$DW$194, DW_AT_type(*$C$DW$T$21)
    2040                      .dwattr $C$DW$194, DW_AT_name("RAMSLPMDCNTLR3")
    2041                      .dwattr $C$DW$194, DW_AT_TI_symbol_name("_RAMSLPMDCNTLR3")
    2042                      .dwattr $C$DW$194, DW_AT_data_member_location[DW_OP_plus_uconst 0x2b]
    2043                      .dwattr $C$DW$194, DW_AT_accessibility(DW_ACCESS_public)
    2044              $C$DW$195       .dwtag  DW_TAG_member
    2045                      .dwattr $C$DW$195, DW_AT_type(*$C$DW$T$21)
    2046                      .dwattr $C$DW$195, DW_AT_name("RAMSLPMDCNTLR4")
    2047                      .dwattr $C$DW$195, DW_AT_TI_symbol_name("_RAMSLPMDCNTLR4")
    2048                      .dwattr $C$DW$195, DW_AT_data_member_location[DW_OP_plus_uconst 0x2c]
    2049                      .dwattr $C$DW$195, DW_AT_accessibility(DW_ACCESS_public)
    2050              $C$DW$196       .dwtag  DW_TAG_member
    2051                      .dwattr $C$DW$196, DW_AT_type(*$C$DW$T$21)
    2052                      .dwattr $C$DW$196, DW_AT_name("RAMSLPMDCNTLR5")
TMS320C55x Assembler PC v4.4.1 Fri Sep 07 01:41:50 2018

Tools Copyright (c) 1996-2012 Texas Instruments Incorporated
main.asm                                                             PAGE   43

    2053                      .dwattr $C$DW$196, DW_AT_TI_symbol_name("_RAMSLPMDCNTLR5")
    2054                      .dwattr $C$DW$196, DW_AT_data_member_location[DW_OP_plus_uconst 0x2d]
    2055                      .dwattr $C$DW$196, DW_AT_accessibility(DW_ACCESS_public)
    2056              $C$DW$197       .dwtag  DW_TAG_member
    2057                      .dwattr $C$DW$197, DW_AT_type(*$C$DW$T$23)
    2058                      .dwattr $C$DW$197, DW_AT_name("RSVD6")
    2059                      .dwattr $C$DW$197, DW_AT_TI_symbol_name("_RSVD6")
    2060                      .dwattr $C$DW$197, DW_AT_data_member_location[DW_OP_plus_uconst 0x2e]
    2061                      .dwattr $C$DW$197, DW_AT_accessibility(DW_ACCESS_public)
    2062              $C$DW$198       .dwtag  DW_TAG_member
    2063                      .dwattr $C$DW$198, DW_AT_type(*$C$DW$T$21)
    2064                      .dwattr $C$DW$198, DW_AT_name("DMAIFR")
    2065                      .dwattr $C$DW$198, DW_AT_TI_symbol_name("_DMAIFR")
    2066                      .dwattr $C$DW$198, DW_AT_data_member_location[DW_OP_plus_uconst 0x30]
    2067                      .dwattr $C$DW$198, DW_AT_accessibility(DW_ACCESS_public)
    2068              $C$DW$199       .dwtag  DW_TAG_member
    2069                      .dwattr $C$DW$199, DW_AT_type(*$C$DW$T$21)
    2070                      .dwattr $C$DW$199, DW_AT_name("DMAIER")
    2071                      .dwattr $C$DW$199, DW_AT_TI_symbol_name("_DMAIER")
    2072                      .dwattr $C$DW$199, DW_AT_data_member_location[DW_OP_plus_uconst 0x31]
    2073                      .dwattr $C$DW$199, DW_AT_accessibility(DW_ACCESS_public)
    2074              $C$DW$200       .dwtag  DW_TAG_member
    2075                      .dwattr $C$DW$200, DW_AT_type(*$C$DW$T$21)
    2076                      .dwattr $C$DW$200, DW_AT_name("USBSCR")
    2077                      .dwattr $C$DW$200, DW_AT_TI_symbol_name("_USBSCR")
    2078                      .dwattr $C$DW$200, DW_AT_data_member_location[DW_OP_plus_uconst 0x32]
    2079                      .dwattr $C$DW$200, DW_AT_accessibility(DW_ACCESS_public)
    2080              $C$DW$201       .dwtag  DW_TAG_member
    2081                      .dwattr $C$DW$201, DW_AT_type(*$C$DW$T$21)
    2082                      .dwattr $C$DW$201, DW_AT_name("ESCR")
    2083                      .dwattr $C$DW$201, DW_AT_TI_symbol_name("_ESCR")
    2084                      .dwattr $C$DW$201, DW_AT_data_member_location[DW_OP_plus_uconst 0x33]
    2085                      .dwattr $C$DW$201, DW_AT_accessibility(DW_ACCESS_public)
    2086              $C$DW$202       .dwtag  DW_TAG_member
    2087                      .dwattr $C$DW$202, DW_AT_type(*$C$DW$T$23)
    2088                      .dwattr $C$DW$202, DW_AT_name("RSVD7")
    2089                      .dwattr $C$DW$202, DW_AT_TI_symbol_name("_RSVD7")
    2090                      .dwattr $C$DW$202, DW_AT_data_member_location[DW_OP_plus_uconst 0x34]
    2091                      .dwattr $C$DW$202, DW_AT_accessibility(DW_ACCESS_public)
    2092              $C$DW$203       .dwtag  DW_TAG_member
    2093                      .dwattr $C$DW$203, DW_AT_type(*$C$DW$T$21)
    2094                      .dwattr $C$DW$203, DW_AT_name("DMA2CESR1")
    2095                      .dwattr $C$DW$203, DW_AT_TI_symbol_name("_DMA2CESR1")
    2096                      .dwattr $C$DW$203, DW_AT_data_member_location[DW_OP_plus_uconst 0x36]
    2097                      .dwattr $C$DW$203, DW_AT_accessibility(DW_ACCESS_public)
    2098              $C$DW$204       .dwtag  DW_TAG_member
    2099                      .dwattr $C$DW$204, DW_AT_type(*$C$DW$T$21)
    2100                      .dwattr $C$DW$204, DW_AT_name("DMA2CESR2")
    2101                      .dwattr $C$DW$204, DW_AT_TI_symbol_name("_DMA2CESR2")
    2102                      .dwattr $C$DW$204, DW_AT_data_member_location[DW_OP_plus_uconst 0x37]
    2103                      .dwattr $C$DW$204, DW_AT_accessibility(DW_ACCESS_public)
    2104              $C$DW$205       .dwtag  DW_TAG_member
    2105                      .dwattr $C$DW$205, DW_AT_type(*$C$DW$T$21)
    2106                      .dwattr $C$DW$205, DW_AT_name("DMA3CESR1")
    2107                      .dwattr $C$DW$205, DW_AT_TI_symbol_name("_DMA3CESR1")
TMS320C55x Assembler PC v4.4.1 Fri Sep 07 01:41:50 2018

Tools Copyright (c) 1996-2012 Texas Instruments Incorporated
main.asm                                                             PAGE   44

    2108                      .dwattr $C$DW$205, DW_AT_data_member_location[DW_OP_plus_uconst 0x38]
    2109                      .dwattr $C$DW$205, DW_AT_accessibility(DW_ACCESS_public)
    2110              $C$DW$206       .dwtag  DW_TAG_member
    2111                      .dwattr $C$DW$206, DW_AT_type(*$C$DW$T$21)
    2112                      .dwattr $C$DW$206, DW_AT_name("DMA3CESR2")
    2113                      .dwattr $C$DW$206, DW_AT_TI_symbol_name("_DMA3CESR2")
    2114                      .dwattr $C$DW$206, DW_AT_data_member_location[DW_OP_plus_uconst 0x39]
    2115                      .dwattr $C$DW$206, DW_AT_accessibility(DW_ACCESS_public)
    2116              $C$DW$207       .dwtag  DW_TAG_member
    2117                      .dwattr $C$DW$207, DW_AT_type(*$C$DW$T$21)
    2118                      .dwattr $C$DW$207, DW_AT_name("CLKSTOP")
    2119                      .dwattr $C$DW$207, DW_AT_TI_symbol_name("_CLKSTOP")
    2120                      .dwattr $C$DW$207, DW_AT_data_member_location[DW_OP_plus_uconst 0x3a]
    2121                      .dwattr $C$DW$207, DW_AT_accessibility(DW_ACCESS_public)
    2122              $C$DW$208       .dwtag  DW_TAG_member
    2123                      .dwattr $C$DW$208, DW_AT_type(*$C$DW$T$24)
    2124                      .dwattr $C$DW$208, DW_AT_name("RSVD8")
    2125                      .dwattr $C$DW$208, DW_AT_TI_symbol_name("_RSVD8")
    2126                      .dwattr $C$DW$208, DW_AT_data_member_location[DW_OP_plus_uconst 0x3b]
    2127                      .dwattr $C$DW$208, DW_AT_accessibility(DW_ACCESS_public)
    2128              $C$DW$209       .dwtag  DW_TAG_member
    2129                      .dwattr $C$DW$209, DW_AT_type(*$C$DW$T$21)
    2130                      .dwattr $C$DW$209, DW_AT_name("DIEIDR0")
    2131                      .dwattr $C$DW$209, DW_AT_TI_symbol_name("_DIEIDR0")
    2132                      .dwattr $C$DW$209, DW_AT_data_member_location[DW_OP_plus_uconst 0x40]
    2133                      .dwattr $C$DW$209, DW_AT_accessibility(DW_ACCESS_public)
    2134              $C$DW$210       .dwtag  DW_TAG_member
    2135                      .dwattr $C$DW$210, DW_AT_type(*$C$DW$T$21)
    2136                      .dwattr $C$DW$210, DW_AT_name("DIEIDR1")
    2137                      .dwattr $C$DW$210, DW_AT_TI_symbol_name("_DIEIDR1")
    2138                      .dwattr $C$DW$210, DW_AT_data_member_location[DW_OP_plus_uconst 0x41]
    2139                      .dwattr $C$DW$210, DW_AT_accessibility(DW_ACCESS_public)
    2140              $C$DW$211       .dwtag  DW_TAG_member
    2141                      .dwattr $C$DW$211, DW_AT_type(*$C$DW$T$21)
    2142                      .dwattr $C$DW$211, DW_AT_name("DIEIDR2")
    2143                      .dwattr $C$DW$211, DW_AT_TI_symbol_name("_DIEIDR2")
    2144                      .dwattr $C$DW$211, DW_AT_data_member_location[DW_OP_plus_uconst 0x42]
    2145                      .dwattr $C$DW$211, DW_AT_accessibility(DW_ACCESS_public)
    2146              $C$DW$212       .dwtag  DW_TAG_member
    2147                      .dwattr $C$DW$212, DW_AT_type(*$C$DW$T$21)
    2148                      .dwattr $C$DW$212, DW_AT_name("DIEIDR3")
    2149                      .dwattr $C$DW$212, DW_AT_TI_symbol_name("_DIEIDR3")
    2150                      .dwattr $C$DW$212, DW_AT_data_member_location[DW_OP_plus_uconst 0x43]
    2151                      .dwattr $C$DW$212, DW_AT_accessibility(DW_ACCESS_public)
    2152              $C$DW$213       .dwtag  DW_TAG_member
    2153                      .dwattr $C$DW$213, DW_AT_type(*$C$DW$T$21)
    2154                      .dwattr $C$DW$213, DW_AT_name("DIEIDR4")
    2155                      .dwattr $C$DW$213, DW_AT_TI_symbol_name("_DIEIDR4")
    2156                      .dwattr $C$DW$213, DW_AT_data_member_location[DW_OP_plus_uconst 0x44]
    2157                      .dwattr $C$DW$213, DW_AT_accessibility(DW_ACCESS_public)
    2158              $C$DW$214       .dwtag  DW_TAG_member
    2159                      .dwattr $C$DW$214, DW_AT_type(*$C$DW$T$21)
    2160                      .dwattr $C$DW$214, DW_AT_name("DIEIDR5")
    2161                      .dwattr $C$DW$214, DW_AT_TI_symbol_name("_DIEIDR5")
    2162                      .dwattr $C$DW$214, DW_AT_data_member_location[DW_OP_plus_uconst 0x45]
TMS320C55x Assembler PC v4.4.1 Fri Sep 07 01:41:50 2018

Tools Copyright (c) 1996-2012 Texas Instruments Incorporated
main.asm                                                             PAGE   45

    2163                      .dwattr $C$DW$214, DW_AT_accessibility(DW_ACCESS_public)
    2164              $C$DW$215       .dwtag  DW_TAG_member
    2165                      .dwattr $C$DW$215, DW_AT_type(*$C$DW$T$21)
    2166                      .dwattr $C$DW$215, DW_AT_name("DIEIDR6")
    2167                      .dwattr $C$DW$215, DW_AT_TI_symbol_name("_DIEIDR6")
    2168                      .dwattr $C$DW$215, DW_AT_data_member_location[DW_OP_plus_uconst 0x46]
    2169                      .dwattr $C$DW$215, DW_AT_accessibility(DW_ACCESS_public)
    2170              $C$DW$216       .dwtag  DW_TAG_member
    2171                      .dwattr $C$DW$216, DW_AT_type(*$C$DW$T$21)
    2172                      .dwattr $C$DW$216, DW_AT_name("DIEIDR7")
    2173                      .dwattr $C$DW$216, DW_AT_TI_symbol_name("_DIEIDR7")
    2174                      .dwattr $C$DW$216, DW_AT_data_member_location[DW_OP_plus_uconst 0x47]
    2175                      .dwattr $C$DW$216, DW_AT_accessibility(DW_ACCESS_public)
    2176                      .dwendtag $C$DW$T$25
    2177              
    2178              $C$DW$T$29      .dwtag  DW_TAG_typedef, DW_AT_name("CSL_SysRegs")
    2179                      .dwattr $C$DW$T$29, DW_AT_type(*$C$DW$T$25)
    2180                      .dwattr $C$DW$T$29, DW_AT_language(DW_LANG_C)
    2181              $C$DW$217       .dwtag  DW_TAG_TI_far_type
    2182                      .dwattr $C$DW$217, DW_AT_type(*$C$DW$T$29)
    2183              $C$DW$218       .dwtag  DW_TAG_TI_ioport_type
    2184                      .dwattr $C$DW$218, DW_AT_type(*$C$DW$217)
    2185              $C$DW$T$30      .dwtag  DW_TAG_volatile_type
    2186                      .dwattr $C$DW$T$30, DW_AT_type(*$C$DW$218)
    2187              $C$DW$T$31      .dwtag  DW_TAG_pointer_type
    2188                      .dwattr $C$DW$T$31, DW_AT_type(*$C$DW$T$30)
    2189                      .dwattr $C$DW$T$31, DW_AT_address_class(0x10)
    2190              $C$DW$T$32      .dwtag  DW_TAG_typedef, DW_AT_name("CSL_SysRegsOvly")
    2191                      .dwattr $C$DW$T$32, DW_AT_type(*$C$DW$T$31)
    2192                      .dwattr $C$DW$T$32, DW_AT_language(DW_LANG_C)
    2193              
    2194              $C$DW$T$33      .dwtag  DW_TAG_structure_type
    2195                      .dwattr $C$DW$T$33, DW_AT_name("PLL_Obj")
    2196                      .dwattr $C$DW$T$33, DW_AT_byte_size(0x06)
    2197              $C$DW$219       .dwtag  DW_TAG_member
    2198                      .dwattr $C$DW$219, DW_AT_type(*$C$DW$T$27)
    2199                      .dwattr $C$DW$219, DW_AT_name("pllConfig")
    2200                      .dwattr $C$DW$219, DW_AT_TI_symbol_name("_pllConfig")
    2201                      .dwattr $C$DW$219, DW_AT_data_member_location[DW_OP_plus_uconst 0x0]
    2202                      .dwattr $C$DW$219, DW_AT_accessibility(DW_ACCESS_public)
    2203              $C$DW$220       .dwtag  DW_TAG_member
    2204                      .dwattr $C$DW$220, DW_AT_type(*$C$DW$T$28)
    2205                      .dwattr $C$DW$220, DW_AT_name("instId")
    2206                      .dwattr $C$DW$220, DW_AT_TI_symbol_name("_instId")
    2207                      .dwattr $C$DW$220, DW_AT_data_member_location[DW_OP_plus_uconst 0x2]
    2208                      .dwattr $C$DW$220, DW_AT_accessibility(DW_ACCESS_public)
    2209              $C$DW$221       .dwtag  DW_TAG_member
    2210                      .dwattr $C$DW$221, DW_AT_type(*$C$DW$T$32)
    2211                      .dwattr $C$DW$221, DW_AT_name("sysAddr")
    2212                      .dwattr $C$DW$221, DW_AT_TI_symbol_name("_sysAddr")
    2213                      .dwattr $C$DW$221, DW_AT_data_member_location[DW_OP_plus_uconst 0x4]
    2214                      .dwattr $C$DW$221, DW_AT_accessibility(DW_ACCESS_public)
    2215                      .dwendtag $C$DW$T$33
    2216              
    2217              $C$DW$T$35      .dwtag  DW_TAG_typedef, DW_AT_name("PLL_Obj")
TMS320C55x Assembler PC v4.4.1 Fri Sep 07 01:41:50 2018

Tools Copyright (c) 1996-2012 Texas Instruments Incorporated
main.asm                                                             PAGE   46

    2218                      .dwattr $C$DW$T$35, DW_AT_type(*$C$DW$T$33)
    2219                      .dwattr $C$DW$T$35, DW_AT_language(DW_LANG_C)
    2220              $C$DW$T$36      .dwtag  DW_TAG_pointer_type
    2221                      .dwattr $C$DW$T$36, DW_AT_type(*$C$DW$T$35)
    2222                      .dwattr $C$DW$T$36, DW_AT_address_class(0x17)
    2223              $C$DW$T$37      .dwtag  DW_TAG_pointer_type
    2224                      .dwattr $C$DW$T$37, DW_AT_type(*$C$DW$T$33)
    2225                      .dwattr $C$DW$T$37, DW_AT_address_class(0x17)
    2226              $C$DW$T$38      .dwtag  DW_TAG_typedef, DW_AT_name("PLL_Handle")
    2227                      .dwattr $C$DW$T$38, DW_AT_type(*$C$DW$T$37)
    2228                      .dwattr $C$DW$T$38, DW_AT_language(DW_LANG_C)
    2229              $C$DW$T$4       .dwtag  DW_TAG_base_type
    2230                      .dwattr $C$DW$T$4, DW_AT_encoding(DW_ATE_boolean)
    2231                      .dwattr $C$DW$T$4, DW_AT_name("bool")
    2232                      .dwattr $C$DW$T$4, DW_AT_byte_size(0x01)
    2233              $C$DW$T$5       .dwtag  DW_TAG_base_type
    2234                      .dwattr $C$DW$T$5, DW_AT_encoding(DW_ATE_signed_char)
    2235                      .dwattr $C$DW$T$5, DW_AT_name("signed char")
    2236                      .dwattr $C$DW$T$5, DW_AT_byte_size(0x01)
    2237              $C$DW$T$6       .dwtag  DW_TAG_base_type
    2238                      .dwattr $C$DW$T$6, DW_AT_encoding(DW_ATE_unsigned_char)
    2239                      .dwattr $C$DW$T$6, DW_AT_name("unsigned char")
    2240                      .dwattr $C$DW$T$6, DW_AT_byte_size(0x01)
    2241              $C$DW$T$45      .dwtag  DW_TAG_typedef, DW_AT_name("Uint8")
    2242                      .dwattr $C$DW$T$45, DW_AT_type(*$C$DW$T$6)
    2243                      .dwattr $C$DW$T$45, DW_AT_language(DW_LANG_C)
    2244              $C$DW$T$7       .dwtag  DW_TAG_base_type
    2245                      .dwattr $C$DW$T$7, DW_AT_encoding(DW_ATE_signed_char)
    2246                      .dwattr $C$DW$T$7, DW_AT_name("wchar_t")
    2247                      .dwattr $C$DW$T$7, DW_AT_byte_size(0x01)
    2248              $C$DW$T$8       .dwtag  DW_TAG_base_type
    2249                      .dwattr $C$DW$T$8, DW_AT_encoding(DW_ATE_signed)
    2250                      .dwattr $C$DW$T$8, DW_AT_name("short")
    2251                      .dwattr $C$DW$T$8, DW_AT_byte_size(0x01)
    2252              $C$DW$T$48      .dwtag  DW_TAG_typedef, DW_AT_name("Int16")
    2253                      .dwattr $C$DW$T$48, DW_AT_type(*$C$DW$T$8)
    2254                      .dwattr $C$DW$T$48, DW_AT_language(DW_LANG_C)
    2255              $C$DW$T$49      .dwtag  DW_TAG_typedef, DW_AT_name("CSL_Status")
    2256                      .dwattr $C$DW$T$49, DW_AT_type(*$C$DW$T$48)
    2257                      .dwattr $C$DW$T$49, DW_AT_language(DW_LANG_C)
    2258              $C$DW$T$9       .dwtag  DW_TAG_base_type
    2259                      .dwattr $C$DW$T$9, DW_AT_encoding(DW_ATE_unsigned)
    2260                      .dwattr $C$DW$T$9, DW_AT_name("unsigned short")
    2261                      .dwattr $C$DW$T$9, DW_AT_byte_size(0x01)
    2262              $C$DW$T$19      .dwtag  DW_TAG_typedef, DW_AT_name("Uint16")
    2263                      .dwattr $C$DW$T$19, DW_AT_type(*$C$DW$T$9)
    2264                      .dwattr $C$DW$T$19, DW_AT_language(DW_LANG_C)
    2265              $C$DW$222       .dwtag  DW_TAG_TI_far_type
    2266                      .dwattr $C$DW$222, DW_AT_type(*$C$DW$T$19)
    2267              $C$DW$T$21      .dwtag  DW_TAG_volatile_type
    2268                      .dwattr $C$DW$T$21, DW_AT_type(*$C$DW$222)
    2269              
    2270              $C$DW$T$22      .dwtag  DW_TAG_array_type
    2271                      .dwattr $C$DW$T$22, DW_AT_type(*$C$DW$T$21)
    2272                      .dwattr $C$DW$T$22, DW_AT_language(DW_LANG_C)
TMS320C55x Assembler PC v4.4.1 Fri Sep 07 01:41:50 2018

Tools Copyright (c) 1996-2012 Texas Instruments Incorporated
main.asm                                                             PAGE   47

    2273                      .dwattr $C$DW$T$22, DW_AT_byte_size(0x0e)
    2274              $C$DW$223       .dwtag  DW_TAG_subrange_type
    2275                      .dwattr $C$DW$223, DW_AT_upper_bound(0x0d)
    2276                      .dwendtag $C$DW$T$22
    2277              
    2278              
    2279              $C$DW$T$23      .dwtag  DW_TAG_array_type
    2280                      .dwattr $C$DW$T$23, DW_AT_type(*$C$DW$T$21)
    2281                      .dwattr $C$DW$T$23, DW_AT_language(DW_LANG_C)
    2282                      .dwattr $C$DW$T$23, DW_AT_byte_size(0x02)
    2283              $C$DW$224       .dwtag  DW_TAG_subrange_type
    2284                      .dwattr $C$DW$224, DW_AT_upper_bound(0x01)
    2285                      .dwendtag $C$DW$T$23
    2286              
    2287              
    2288              $C$DW$T$24      .dwtag  DW_TAG_array_type
    2289                      .dwattr $C$DW$T$24, DW_AT_type(*$C$DW$T$21)
    2290                      .dwattr $C$DW$T$24, DW_AT_language(DW_LANG_C)
    2291                      .dwattr $C$DW$T$24, DW_AT_byte_size(0x05)
    2292              $C$DW$225       .dwtag  DW_TAG_subrange_type
    2293                      .dwattr $C$DW$225, DW_AT_upper_bound(0x04)
    2294                      .dwendtag $C$DW$T$24
    2295              
    2296              $C$DW$T$10      .dwtag  DW_TAG_base_type
    2297                      .dwattr $C$DW$T$10, DW_AT_encoding(DW_ATE_signed)
    2298                      .dwattr $C$DW$T$10, DW_AT_name("int")
    2299                      .dwattr $C$DW$T$10, DW_AT_byte_size(0x01)
    2300              $C$DW$T$11      .dwtag  DW_TAG_base_type
    2301                      .dwattr $C$DW$T$11, DW_AT_encoding(DW_ATE_unsigned)
    2302                      .dwattr $C$DW$T$11, DW_AT_name("unsigned int")
    2303                      .dwattr $C$DW$T$11, DW_AT_byte_size(0x01)
    2304              $C$DW$T$12      .dwtag  DW_TAG_base_type
    2305                      .dwattr $C$DW$T$12, DW_AT_encoding(DW_ATE_signed)
    2306                      .dwattr $C$DW$T$12, DW_AT_name("long")
    2307                      .dwattr $C$DW$T$12, DW_AT_byte_size(0x02)
    2308              $C$DW$T$13      .dwtag  DW_TAG_base_type
    2309                      .dwattr $C$DW$T$13, DW_AT_encoding(DW_ATE_unsigned)
    2310                      .dwattr $C$DW$T$13, DW_AT_name("unsigned long")
    2311                      .dwattr $C$DW$T$13, DW_AT_byte_size(0x02)
    2312              $C$DW$T$28      .dwtag  DW_TAG_typedef, DW_AT_name("Uint32")
    2313                      .dwattr $C$DW$T$28, DW_AT_type(*$C$DW$T$13)
    2314                      .dwattr $C$DW$T$28, DW_AT_language(DW_LANG_C)
    2315              $C$DW$226       .dwtag  DW_TAG_TI_far_type
    2316                      .dwattr $C$DW$226, DW_AT_type(*$C$DW$T$13)
    2317              $C$DW$T$77      .dwtag  DW_TAG_volatile_type
    2318                      .dwattr $C$DW$T$77, DW_AT_type(*$C$DW$226)
    2319              $C$DW$T$14      .dwtag  DW_TAG_base_type
    2320                      .dwattr $C$DW$T$14, DW_AT_encoding(DW_ATE_signed)
    2321                      .dwattr $C$DW$T$14, DW_AT_name("long long")
    2322                      .dwattr $C$DW$T$14, DW_AT_byte_size(0x04)
    2323                      .dwattr $C$DW$T$14, DW_AT_bit_size(0x28)
    2324                      .dwattr $C$DW$T$14, DW_AT_bit_offset(0x18)
    2325              $C$DW$T$15      .dwtag  DW_TAG_base_type
    2326                      .dwattr $C$DW$T$15, DW_AT_encoding(DW_ATE_unsigned)
    2327                      .dwattr $C$DW$T$15, DW_AT_name("unsigned long long")
TMS320C55x Assembler PC v4.4.1 Fri Sep 07 01:41:50 2018

Tools Copyright (c) 1996-2012 Texas Instruments Incorporated
main.asm                                                             PAGE   48

    2328                      .dwattr $C$DW$T$15, DW_AT_byte_size(0x04)
    2329                      .dwattr $C$DW$T$15, DW_AT_bit_size(0x28)
    2330                      .dwattr $C$DW$T$15, DW_AT_bit_offset(0x18)
    2331              $C$DW$T$16      .dwtag  DW_TAG_base_type
    2332                      .dwattr $C$DW$T$16, DW_AT_encoding(DW_ATE_float)
    2333                      .dwattr $C$DW$T$16, DW_AT_name("float")
    2334                      .dwattr $C$DW$T$16, DW_AT_byte_size(0x02)
    2335              $C$DW$T$17      .dwtag  DW_TAG_base_type
    2336                      .dwattr $C$DW$T$17, DW_AT_encoding(DW_ATE_float)
    2337                      .dwattr $C$DW$T$17, DW_AT_name("double")
    2338                      .dwattr $C$DW$T$17, DW_AT_byte_size(0x02)
    2339              $C$DW$T$18      .dwtag  DW_TAG_base_type
    2340                      .dwattr $C$DW$T$18, DW_AT_encoding(DW_ATE_float)
    2341                      .dwattr $C$DW$T$18, DW_AT_name("long double")
    2342                      .dwattr $C$DW$T$18, DW_AT_byte_size(0x02)
    2343                      .dwattr $C$DW$CU, DW_AT_language(DW_LANG_C)
    2344              
    2345              ;***************************************************************
    2346              ;* DWARF CIE ENTRIES                                           *
    2347              ;***************************************************************
    2348              
    2349              $C$DW$CIE       .dwcie 91
    2350                      .dwcfi  cfa_register, 36
    2351                      .dwcfi  cfa_offset, 0
    2352                      .dwcfi  undefined, 0
    2353                      .dwcfi  undefined, 1
    2354                      .dwcfi  undefined, 2
    2355                      .dwcfi  undefined, 3
    2356                      .dwcfi  undefined, 4
    2357                      .dwcfi  undefined, 5
    2358                      .dwcfi  undefined, 6
    2359                      .dwcfi  undefined, 7
    2360                      .dwcfi  undefined, 8
    2361                      .dwcfi  undefined, 9
    2362                      .dwcfi  undefined, 10
    2363                      .dwcfi  undefined, 11
    2364                      .dwcfi  undefined, 12
    2365                      .dwcfi  undefined, 13
    2366                      .dwcfi  same_value, 14
    2367                      .dwcfi  same_value, 15
    2368                      .dwcfi  undefined, 16
    2369                      .dwcfi  undefined, 17
    2370                      .dwcfi  undefined, 18
    2371                      .dwcfi  undefined, 19
    2372                      .dwcfi  undefined, 20
    2373                      .dwcfi  undefined, 21
    2374                      .dwcfi  undefined, 22
    2375                      .dwcfi  undefined, 23
    2376                      .dwcfi  undefined, 24
    2377                      .dwcfi  undefined, 25
    2378                      .dwcfi  same_value, 26
    2379                      .dwcfi  same_value, 27
    2380                      .dwcfi  same_value, 28
    2381                      .dwcfi  same_value, 29
    2382                      .dwcfi  same_value, 30
TMS320C55x Assembler PC v4.4.1 Fri Sep 07 01:41:50 2018

Tools Copyright (c) 1996-2012 Texas Instruments Incorporated
main.asm                                                             PAGE   49

    2383                      .dwcfi  same_value, 31
    2384                      .dwcfi  undefined, 32
    2385                      .dwcfi  undefined, 33
    2386                      .dwcfi  undefined, 34
    2387                      .dwcfi  undefined, 35
    2388                      .dwcfi  undefined, 36
    2389                      .dwcfi  undefined, 37
    2390                      .dwcfi  undefined, 38
    2391                      .dwcfi  undefined, 39
    2392                      .dwcfi  undefined, 40
    2393                      .dwcfi  undefined, 41
    2394                      .dwcfi  undefined, 42
    2395                      .dwcfi  undefined, 43
    2396                      .dwcfi  undefined, 44
    2397                      .dwcfi  undefined, 45
    2398                      .dwcfi  undefined, 46
    2399                      .dwcfi  undefined, 47
    2400                      .dwcfi  undefined, 48
    2401                      .dwcfi  undefined, 49
    2402                      .dwcfi  undefined, 50
    2403                      .dwcfi  undefined, 51
    2404                      .dwcfi  undefined, 52
    2405                      .dwcfi  undefined, 53
    2406                      .dwcfi  undefined, 54
    2407                      .dwcfi  undefined, 55
    2408                      .dwcfi  undefined, 56
    2409                      .dwcfi  undefined, 57
    2410                      .dwcfi  undefined, 58
    2411                      .dwcfi  undefined, 59
    2412                      .dwcfi  undefined, 60
    2413                      .dwcfi  undefined, 61
    2414                      .dwcfi  undefined, 62
    2415                      .dwcfi  undefined, 63
    2416                      .dwcfi  undefined, 64
    2417                      .dwcfi  undefined, 65
    2418                      .dwcfi  undefined, 66
    2419                      .dwcfi  undefined, 67
    2420                      .dwcfi  undefined, 68
    2421                      .dwcfi  undefined, 69
    2422                      .dwcfi  undefined, 70
    2423                      .dwcfi  undefined, 71
    2424                      .dwcfi  undefined, 72
    2425                      .dwcfi  undefined, 73
    2426                      .dwcfi  undefined, 74
    2427                      .dwcfi  undefined, 75
    2428                      .dwcfi  undefined, 76
    2429                      .dwcfi  undefined, 77
    2430                      .dwcfi  undefined, 78
    2431                      .dwcfi  undefined, 79
    2432                      .dwcfi  undefined, 80
    2433                      .dwcfi  undefined, 81
    2434                      .dwcfi  undefined, 82
    2435                      .dwcfi  undefined, 83
    2436                      .dwcfi  undefined, 84
    2437                      .dwcfi  undefined, 85
TMS320C55x Assembler PC v4.4.1 Fri Sep 07 01:41:50 2018

Tools Copyright (c) 1996-2012 Texas Instruments Incorporated
main.asm                                                             PAGE   50

    2438                      .dwcfi  undefined, 86
    2439                      .dwcfi  undefined, 87
    2440                      .dwcfi  undefined, 88
    2441                      .dwcfi  undefined, 89
    2442                      .dwcfi  undefined, 90
    2443                      .dwcfi  undefined, 91
    2444                      .dwendentry
    2445              
    2446              ;***************************************************************
    2447              ;* DWARF REGISTER MAP                                          *
    2448              ;***************************************************************
    2449              
    2450              $C$DW$227       .dwtag  DW_TAG_TI_assign_register, DW_AT_name("AC0")
    2451                      .dwattr $C$DW$227, DW_AT_location[DW_OP_reg0]
    2452              $C$DW$228       .dwtag  DW_TAG_TI_assign_register, DW_AT_name("AC0")
    2453                      .dwattr $C$DW$228, DW_AT_location[DW_OP_reg1]
    2454              $C$DW$229       .dwtag  DW_TAG_TI_assign_register, DW_AT_name("AC0_G")
    2455                      .dwattr $C$DW$229, DW_AT_location[DW_OP_reg2]
    2456              $C$DW$230       .dwtag  DW_TAG_TI_assign_register, DW_AT_name("AC1")
    2457                      .dwattr $C$DW$230, DW_AT_location[DW_OP_reg3]
    2458              $C$DW$231       .dwtag  DW_TAG_TI_assign_register, DW_AT_name("AC1")
    2459                      .dwattr $C$DW$231, DW_AT_location[DW_OP_reg4]
    2460              $C$DW$232       .dwtag  DW_TAG_TI_assign_register, DW_AT_name("AC1_G")
    2461                      .dwattr $C$DW$232, DW_AT_location[DW_OP_reg5]
    2462              $C$DW$233       .dwtag  DW_TAG_TI_assign_register, DW_AT_name("AC2")
    2463                      .dwattr $C$DW$233, DW_AT_location[DW_OP_reg6]
    2464              $C$DW$234       .dwtag  DW_TAG_TI_assign_register, DW_AT_name("AC2")
    2465                      .dwattr $C$DW$234, DW_AT_location[DW_OP_reg7]
    2466              $C$DW$235       .dwtag  DW_TAG_TI_assign_register, DW_AT_name("AC2_G")
    2467                      .dwattr $C$DW$235, DW_AT_location[DW_OP_reg8]
    2468              $C$DW$236       .dwtag  DW_TAG_TI_assign_register, DW_AT_name("AC3")
    2469                      .dwattr $C$DW$236, DW_AT_location[DW_OP_reg9]
    2470              $C$DW$237       .dwtag  DW_TAG_TI_assign_register, DW_AT_name("AC3")
    2471                      .dwattr $C$DW$237, DW_AT_location[DW_OP_reg10]
    2472              $C$DW$238       .dwtag  DW_TAG_TI_assign_register, DW_AT_name("AC3_G")
    2473                      .dwattr $C$DW$238, DW_AT_location[DW_OP_reg11]
    2474              $C$DW$239       .dwtag  DW_TAG_TI_assign_register, DW_AT_name("T0")
    2475                      .dwattr $C$DW$239, DW_AT_location[DW_OP_reg12]
    2476              $C$DW$240       .dwtag  DW_TAG_TI_assign_register, DW_AT_name("T1")
    2477                      .dwattr $C$DW$240, DW_AT_location[DW_OP_reg13]
    2478              $C$DW$241       .dwtag  DW_TAG_TI_assign_register, DW_AT_name("T2")
    2479                      .dwattr $C$DW$241, DW_AT_location[DW_OP_reg14]
    2480              $C$DW$242       .dwtag  DW_TAG_TI_assign_register, DW_AT_name("T3")
    2481                      .dwattr $C$DW$242, DW_AT_location[DW_OP_reg15]
    2482              $C$DW$243       .dwtag  DW_TAG_TI_assign_register, DW_AT_name("AR0")
    2483                      .dwattr $C$DW$243, DW_AT_location[DW_OP_reg16]
    2484              $C$DW$244       .dwtag  DW_TAG_TI_assign_register, DW_AT_name("XAR0")
    2485                      .dwattr $C$DW$244, DW_AT_location[DW_OP_reg17]
    2486              $C$DW$245       .dwtag  DW_TAG_TI_assign_register, DW_AT_name("AR1")
    2487                      .dwattr $C$DW$245, DW_AT_location[DW_OP_reg18]
    2488              $C$DW$246       .dwtag  DW_TAG_TI_assign_register, DW_AT_name("XAR1")
    2489                      .dwattr $C$DW$246, DW_AT_location[DW_OP_reg19]
    2490              $C$DW$247       .dwtag  DW_TAG_TI_assign_register, DW_AT_name("AR2")
    2491                      .dwattr $C$DW$247, DW_AT_location[DW_OP_reg20]
    2492              $C$DW$248       .dwtag  DW_TAG_TI_assign_register, DW_AT_name("XAR2")
TMS320C55x Assembler PC v4.4.1 Fri Sep 07 01:41:50 2018

Tools Copyright (c) 1996-2012 Texas Instruments Incorporated
main.asm                                                             PAGE   51

    2493                      .dwattr $C$DW$248, DW_AT_location[DW_OP_reg21]
    2494              $C$DW$249       .dwtag  DW_TAG_TI_assign_register, DW_AT_name("AR3")
    2495                      .dwattr $C$DW$249, DW_AT_location[DW_OP_reg22]
    2496              $C$DW$250       .dwtag  DW_TAG_TI_assign_register, DW_AT_name("XAR3")
    2497                      .dwattr $C$DW$250, DW_AT_location[DW_OP_reg23]
    2498              $C$DW$251       .dwtag  DW_TAG_TI_assign_register, DW_AT_name("AR4")
    2499                      .dwattr $C$DW$251, DW_AT_location[DW_OP_reg24]
    2500              $C$DW$252       .dwtag  DW_TAG_TI_assign_register, DW_AT_name("XAR4")
    2501                      .dwattr $C$DW$252, DW_AT_location[DW_OP_reg25]
    2502              $C$DW$253       .dwtag  DW_TAG_TI_assign_register, DW_AT_name("AR5")
    2503                      .dwattr $C$DW$253, DW_AT_location[DW_OP_reg26]
    2504              $C$DW$254       .dwtag  DW_TAG_TI_assign_register, DW_AT_name("XAR5")
    2505                      .dwattr $C$DW$254, DW_AT_location[DW_OP_reg27]
    2506              $C$DW$255       .dwtag  DW_TAG_TI_assign_register, DW_AT_name("AR6")
    2507                      .dwattr $C$DW$255, DW_AT_location[DW_OP_reg28]
    2508              $C$DW$256       .dwtag  DW_TAG_TI_assign_register, DW_AT_name("XAR6")
    2509                      .dwattr $C$DW$256, DW_AT_location[DW_OP_reg29]
    2510              $C$DW$257       .dwtag  DW_TAG_TI_assign_register, DW_AT_name("AR7")
    2511                      .dwattr $C$DW$257, DW_AT_location[DW_OP_reg30]
    2512              $C$DW$258       .dwtag  DW_TAG_TI_assign_register, DW_AT_name("XAR7")
    2513                      .dwattr $C$DW$258, DW_AT_location[DW_OP_reg31]
    2514              $C$DW$259       .dwtag  DW_TAG_TI_assign_register, DW_AT_name("FP")
    2515                      .dwattr $C$DW$259, DW_AT_location[DW_OP_regx 0x20]
    2516              $C$DW$260       .dwtag  DW_TAG_TI_assign_register, DW_AT_name("XFP")
    2517                      .dwattr $C$DW$260, DW_AT_location[DW_OP_regx 0x21]
    2518              $C$DW$261       .dwtag  DW_TAG_TI_assign_register, DW_AT_name("PC")
    2519                      .dwattr $C$DW$261, DW_AT_location[DW_OP_regx 0x22]
    2520              $C$DW$262       .dwtag  DW_TAG_TI_assign_register, DW_AT_name("SP")
    2521                      .dwattr $C$DW$262, DW_AT_location[DW_OP_regx 0x23]
    2522              $C$DW$263       .dwtag  DW_TAG_TI_assign_register, DW_AT_name("XSP")
    2523                      .dwattr $C$DW$263, DW_AT_location[DW_OP_regx 0x24]
    2524              $C$DW$264       .dwtag  DW_TAG_TI_assign_register, DW_AT_name("BKC")
    2525                      .dwattr $C$DW$264, DW_AT_location[DW_OP_regx 0x25]
    2526              $C$DW$265       .dwtag  DW_TAG_TI_assign_register, DW_AT_name("BK03")
    2527                      .dwattr $C$DW$265, DW_AT_location[DW_OP_regx 0x26]
    2528              $C$DW$266       .dwtag  DW_TAG_TI_assign_register, DW_AT_name("BK47")
    2529                      .dwattr $C$DW$266, DW_AT_location[DW_OP_regx 0x27]
    2530              $C$DW$267       .dwtag  DW_TAG_TI_assign_register, DW_AT_name("ST0")
    2531                      .dwattr $C$DW$267, DW_AT_location[DW_OP_regx 0x28]
    2532              $C$DW$268       .dwtag  DW_TAG_TI_assign_register, DW_AT_name("ST1")
    2533                      .dwattr $C$DW$268, DW_AT_location[DW_OP_regx 0x29]
    2534              $C$DW$269       .dwtag  DW_TAG_TI_assign_register, DW_AT_name("ST2")
    2535                      .dwattr $C$DW$269, DW_AT_location[DW_OP_regx 0x2a]
    2536              $C$DW$270       .dwtag  DW_TAG_TI_assign_register, DW_AT_name("ST3")
    2537                      .dwattr $C$DW$270, DW_AT_location[DW_OP_regx 0x2b]
    2538              $C$DW$271       .dwtag  DW_TAG_TI_assign_register, DW_AT_name("MDP")
    2539                      .dwattr $C$DW$271, DW_AT_location[DW_OP_regx 0x2c]
    2540              $C$DW$272       .dwtag  DW_TAG_TI_assign_register, DW_AT_name("MDP05")
    2541                      .dwattr $C$DW$272, DW_AT_location[DW_OP_regx 0x2d]
    2542              $C$DW$273       .dwtag  DW_TAG_TI_assign_register, DW_AT_name("MDP67")
    2543                      .dwattr $C$DW$273, DW_AT_location[DW_OP_regx 0x2e]
    2544              $C$DW$274       .dwtag  DW_TAG_TI_assign_register, DW_AT_name("BRC0")
    2545                      .dwattr $C$DW$274, DW_AT_location[DW_OP_regx 0x2f]
    2546              $C$DW$275       .dwtag  DW_TAG_TI_assign_register, DW_AT_name("RSA0")
    2547                      .dwattr $C$DW$275, DW_AT_location[DW_OP_regx 0x30]
TMS320C55x Assembler PC v4.4.1 Fri Sep 07 01:41:50 2018

Tools Copyright (c) 1996-2012 Texas Instruments Incorporated
main.asm                                                             PAGE   52

    2548              $C$DW$276       .dwtag  DW_TAG_TI_assign_register, DW_AT_name("RSA0_H")
    2549                      .dwattr $C$DW$276, DW_AT_location[DW_OP_regx 0x31]
    2550              $C$DW$277       .dwtag  DW_TAG_TI_assign_register, DW_AT_name("REA0")
    2551                      .dwattr $C$DW$277, DW_AT_location[DW_OP_regx 0x32]
    2552              $C$DW$278       .dwtag  DW_TAG_TI_assign_register, DW_AT_name("REA0_H")
    2553                      .dwattr $C$DW$278, DW_AT_location[DW_OP_regx 0x33]
    2554              $C$DW$279       .dwtag  DW_TAG_TI_assign_register, DW_AT_name("BRS1")
    2555                      .dwattr $C$DW$279, DW_AT_location[DW_OP_regx 0x34]
    2556              $C$DW$280       .dwtag  DW_TAG_TI_assign_register, DW_AT_name("BRC1")
    2557                      .dwattr $C$DW$280, DW_AT_location[DW_OP_regx 0x35]
    2558              $C$DW$281       .dwtag  DW_TAG_TI_assign_register, DW_AT_name("RSA1")
    2559                      .dwattr $C$DW$281, DW_AT_location[DW_OP_regx 0x36]
    2560              $C$DW$282       .dwtag  DW_TAG_TI_assign_register, DW_AT_name("RSA1_H")
    2561                      .dwattr $C$DW$282, DW_AT_location[DW_OP_regx 0x37]
    2562              $C$DW$283       .dwtag  DW_TAG_TI_assign_register, DW_AT_name("REA1")
    2563                      .dwattr $C$DW$283, DW_AT_location[DW_OP_regx 0x38]
    2564              $C$DW$284       .dwtag  DW_TAG_TI_assign_register, DW_AT_name("REA1_H")
    2565                      .dwattr $C$DW$284, DW_AT_location[DW_OP_regx 0x39]
    2566              $C$DW$285       .dwtag  DW_TAG_TI_assign_register, DW_AT_name("CSR")
    2567                      .dwattr $C$DW$285, DW_AT_location[DW_OP_regx 0x3a]
    2568              $C$DW$286       .dwtag  DW_TAG_TI_assign_register, DW_AT_name("RPTC")
    2569                      .dwattr $C$DW$286, DW_AT_location[DW_OP_regx 0x3b]
    2570              $C$DW$287       .dwtag  DW_TAG_TI_assign_register, DW_AT_name("CDP")
    2571                      .dwattr $C$DW$287, DW_AT_location[DW_OP_regx 0x3c]
    2572              $C$DW$288       .dwtag  DW_TAG_TI_assign_register, DW_AT_name("XCDP")
    2573                      .dwattr $C$DW$288, DW_AT_location[DW_OP_regx 0x3d]
    2574              $C$DW$289       .dwtag  DW_TAG_TI_assign_register, DW_AT_name("TRN0")
    2575                      .dwattr $C$DW$289, DW_AT_location[DW_OP_regx 0x3e]
    2576              $C$DW$290       .dwtag  DW_TAG_TI_assign_register, DW_AT_name("TRN1")
    2577                      .dwattr $C$DW$290, DW_AT_location[DW_OP_regx 0x3f]
    2578              $C$DW$291       .dwtag  DW_TAG_TI_assign_register, DW_AT_name("BSA01")
    2579                      .dwattr $C$DW$291, DW_AT_location[DW_OP_regx 0x40]
    2580              $C$DW$292       .dwtag  DW_TAG_TI_assign_register, DW_AT_name("BSA23")
    2581                      .dwattr $C$DW$292, DW_AT_location[DW_OP_regx 0x41]
    2582              $C$DW$293       .dwtag  DW_TAG_TI_assign_register, DW_AT_name("BSA45")
    2583                      .dwattr $C$DW$293, DW_AT_location[DW_OP_regx 0x42]
    2584              $C$DW$294       .dwtag  DW_TAG_TI_assign_register, DW_AT_name("BSA67")
    2585                      .dwattr $C$DW$294, DW_AT_location[DW_OP_regx 0x43]
    2586              $C$DW$295       .dwtag  DW_TAG_TI_assign_register, DW_AT_name("BSAC")
    2587                      .dwattr $C$DW$295, DW_AT_location[DW_OP_regx 0x44]
    2588              $C$DW$296       .dwtag  DW_TAG_TI_assign_register, DW_AT_name("CARRY")
    2589                      .dwattr $C$DW$296, DW_AT_location[DW_OP_regx 0x45]
    2590              $C$DW$297       .dwtag  DW_TAG_TI_assign_register, DW_AT_name("TC1")
    2591                      .dwattr $C$DW$297, DW_AT_location[DW_OP_regx 0x46]
    2592              $C$DW$298       .dwtag  DW_TAG_TI_assign_register, DW_AT_name("TC2")
    2593                      .dwattr $C$DW$298, DW_AT_location[DW_OP_regx 0x47]
    2594              $C$DW$299       .dwtag  DW_TAG_TI_assign_register, DW_AT_name("M40")
    2595                      .dwattr $C$DW$299, DW_AT_location[DW_OP_regx 0x48]
    2596              $C$DW$300       .dwtag  DW_TAG_TI_assign_register, DW_AT_name("SXMD")
    2597                      .dwattr $C$DW$300, DW_AT_location[DW_OP_regx 0x49]
    2598              $C$DW$301       .dwtag  DW_TAG_TI_assign_register, DW_AT_name("ARMS")
    2599                      .dwattr $C$DW$301, DW_AT_location[DW_OP_regx 0x4a]
    2600              $C$DW$302       .dwtag  DW_TAG_TI_assign_register, DW_AT_name("C54CM")
    2601                      .dwattr $C$DW$302, DW_AT_location[DW_OP_regx 0x4b]
    2602              $C$DW$303       .dwtag  DW_TAG_TI_assign_register, DW_AT_name("SATA")
TMS320C55x Assembler PC v4.4.1 Fri Sep 07 01:41:50 2018

Tools Copyright (c) 1996-2012 Texas Instruments Incorporated
main.asm                                                             PAGE   53

    2603                      .dwattr $C$DW$303, DW_AT_location[DW_OP_regx 0x4c]
    2604              $C$DW$304       .dwtag  DW_TAG_TI_assign_register, DW_AT_name("SATD")
    2605                      .dwattr $C$DW$304, DW_AT_location[DW_OP_regx 0x4d]
    2606              $C$DW$305       .dwtag  DW_TAG_TI_assign_register, DW_AT_name("RDM")
    2607                      .dwattr $C$DW$305, DW_AT_location[DW_OP_regx 0x4e]
    2608              $C$DW$306       .dwtag  DW_TAG_TI_assign_register, DW_AT_name("FRCT")
    2609                      .dwattr $C$DW$306, DW_AT_location[DW_OP_regx 0x4f]
    2610              $C$DW$307       .dwtag  DW_TAG_TI_assign_register, DW_AT_name("SMUL")
    2611                      .dwattr $C$DW$307, DW_AT_location[DW_OP_regx 0x50]
    2612              $C$DW$308       .dwtag  DW_TAG_TI_assign_register, DW_AT_name("INTM")
    2613                      .dwattr $C$DW$308, DW_AT_location[DW_OP_regx 0x51]
    2614              $C$DW$309       .dwtag  DW_TAG_TI_assign_register, DW_AT_name("AR0LC")
    2615                      .dwattr $C$DW$309, DW_AT_location[DW_OP_regx 0x52]
    2616              $C$DW$310       .dwtag  DW_TAG_TI_assign_register, DW_AT_name("AR1LC")
    2617                      .dwattr $C$DW$310, DW_AT_location[DW_OP_regx 0x53]
    2618              $C$DW$311       .dwtag  DW_TAG_TI_assign_register, DW_AT_name("AR2LC")
    2619                      .dwattr $C$DW$311, DW_AT_location[DW_OP_regx 0x54]
    2620              $C$DW$312       .dwtag  DW_TAG_TI_assign_register, DW_AT_name("AR3LC")
    2621                      .dwattr $C$DW$312, DW_AT_location[DW_OP_regx 0x55]
    2622              $C$DW$313       .dwtag  DW_TAG_TI_assign_register, DW_AT_name("AR4LC")
    2623                      .dwattr $C$DW$313, DW_AT_location[DW_OP_regx 0x56]
    2624              $C$DW$314       .dwtag  DW_TAG_TI_assign_register, DW_AT_name("AR5LC")
    2625                      .dwattr $C$DW$314, DW_AT_location[DW_OP_regx 0x57]
    2626              $C$DW$315       .dwtag  DW_TAG_TI_assign_register, DW_AT_name("AR6LC")
    2627                      .dwattr $C$DW$315, DW_AT_location[DW_OP_regx 0x58]
    2628              $C$DW$316       .dwtag  DW_TAG_TI_assign_register, DW_AT_name("AR7LC")
    2629                      .dwattr $C$DW$316, DW_AT_location[DW_OP_regx 0x59]
    2630              $C$DW$317       .dwtag  DW_TAG_TI_assign_register, DW_AT_name("CDPLC")
    2631                      .dwattr $C$DW$317, DW_AT_location[DW_OP_regx 0x5a]
    2632              $C$DW$318       .dwtag  DW_TAG_TI_assign_register, DW_AT_name("CIE_RETA")
    2633                      .dwattr $C$DW$318, DW_AT_location[DW_OP_regx 0x5b]
    2634                      .dwendtag $C$DW$CU
    2635              
    2635              
    2635              

No Assembly Errors, No Assembly Warnings
