TMS320C55x Assembler PC v4.4.1 Fri Sep 07 01:41:52 2018

Tools Copyright (c) 1996-2012 Texas Instruments Incorporated
list.asm                                                             PAGE    1

    1006              ; Temporary Registers Used: None
       1              ;*******************************************************************************
       2              ;* TMS320C55x C/C++ Codegen                                          PC v4.4.1 *
       3              ;* Date/Time created: Fri Sep 07 01:41:52 2018                                 *
       4              ;*******************************************************************************
       5                      .compiler_opts --hll_source=on --mem_model:code=flat --mem_model:data=large --object_format=coff --si
       6                      .mmregs
       7                      .cpl_on
       8                      .arms_on
       9                      .c54cm_off
      10                      .asg AR6, FP
      11                      .asg XAR6, XFP
      12                      .asg DPH, MDP
      13                      .model call=c55_std
      14                      .model mem=large
      15                      .noremark 5002  ; code respects overwrite rules
      16              ;*******************************************************************************
      17              ;* GLOBAL FILE PARAMETERS                                                      *
      18              ;*                                                                             *
      19              ;*   Architecture       : TMS320C55x                                           *
      20              ;*   Optimizing for     : Speed                                                *
      21              ;*   Memory             : Large Model (23-Bit Data Pointers)                   *
      22              ;*   Calls              : Normal Library ASM calls                             *
      23              ;*   Debug Info         : Standard TI Debug Information                        *
      24              ;*******************************************************************************
      25              
      26              $C$DW$CU        .dwtag  DW_TAG_compile_unit
      27                      .dwattr $C$DW$CU, DW_AT_name("../FreeRTOS/Source/list.c")
      28                      .dwattr $C$DW$CU, DW_AT_producer("TMS320C55x C/C++ Codegen PC v4.4.1 Copyright (c) 1996-2012 Texas In
      29                      .dwattr $C$DW$CU, DW_AT_TI_version(0x01)
      30                      .dwattr $C$DW$CU, DW_AT_comp_dir("F:\site\eZDSP\eZDSP_5535_Files\ccsws2\test\Debug")
      31              ;       F:\TI_CCS_7P4\ccsv7\tools\compiler\c5500_4.4.1\bin\acp55.exe -@f:\\AppData\\Local\\Temp\\1988012 
      32 000000               .sect   ".text"
      33                      .align 4
      34                      .global _vListInitialise
      35              
      36              $C$DW$1 .dwtag  DW_TAG_subprogram, DW_AT_name("vListInitialise")
      37                      .dwattr $C$DW$1, DW_AT_low_pc(_vListInitialise)
      38                      .dwattr $C$DW$1, DW_AT_high_pc(0x00)
      39                      .dwattr $C$DW$1, DW_AT_TI_symbol_name("_vListInitialise")
      40                      .dwattr $C$DW$1, DW_AT_external
      41                      .dwattr $C$DW$1, DW_AT_TI_begin_file("../FreeRTOS/Source/list.c")
      42                      .dwattr $C$DW$1, DW_AT_TI_begin_line(0x3f)
      43                      .dwattr $C$DW$1, DW_AT_TI_begin_column(0x06)
      44                      .dwattr $C$DW$1, DW_AT_TI_max_frame_size(0x04)
      45                      .dwpsn  file "../FreeRTOS/Source/list.c",line 64,column 1,is_stmt,address _vListInitialise
      46              
      47                      .dwfde $C$DW$CIE, _vListInitialise
      48              $C$DW$2 .dwtag  DW_TAG_formal_parameter, DW_AT_name("pxList")
      49                      .dwattr $C$DW$2, DW_AT_TI_symbol_name("_pxList")
      50                      .dwattr $C$DW$2, DW_AT_type(*$C$DW$T$32)
      51                      .dwattr $C$DW$2, DW_AT_location[DW_OP_reg17]
      52              ;*******************************************************************************
      53              ;* FUNCTION NAME: vListInitialise                                              *
      54              ;*                                                                             *
TMS320C55x Assembler PC v4.4.1 Fri Sep 07 01:41:52 2018

Tools Copyright (c) 1996-2012 Texas Instruments Incorporated
list.asm                                                             PAGE    2

      55              ;*   Function Uses Regs : AR0,XAR0,AR2,XAR2,AR3,XAR3,SP,M40,SATA,SATD,RDM,FRCT,*
      56              ;*                        SMUL                                                 *
      57              ;*   Stack Frame        : Compact (No Frame Pointer, w/ debug)                 *
      58              ;*   Total Frame Size   : 4 words                                              *
      59              ;*                        (2 return address/alignment)                         *
      60              ;*                        (2 local values)                                     *
      61              ;*   Min System Stack   : 1 word                                               *
      62              ;*******************************************************************************
      63 000000       _vListInitialise:
      64                      .dwcfi  cfa_offset, 1
      65                      .dwcfi  save_reg_to_mem, 91, -1
      66 000000 4EFD          AADD #-3, SP
      67                      .dwcfi  cfa_offset, 4
      68              $C$DW$3 .dwtag  DW_TAG_variable, DW_AT_name("pxList")
      69                      .dwattr $C$DW$3, DW_AT_TI_symbol_name("_pxList")
      70                      .dwattr $C$DW$3, DW_AT_type(*$C$DW$T$32)
      71                      .dwattr $C$DW$3, DW_AT_location[DW_OP_bregx 0x24 0]
      72 000002 EB00          MOV XAR0, dbl(*SP(#0))
         000004 85   
      73                      .dwpsn  file "../FreeRTOS/Source/list.c",line 68,column 2,is_stmt
      74 000005 ED00          MOV dbl(*SP(#0)), XAR3
         000007 BF   
      75 000008 ED00          MOV dbl(*SP(#0)), XAR2
         00000a AF   
      76              
      77 00000b 8E75          MOV XAR2, dbl(*AR3(short(#2)))
         00000d AB14 
         00000f A504 
      78              ||      AADD #4, AR2 ; |68| 
      79              
      80                      .dwpsn  file "../FreeRTOS/Source/list.c",line 72,column 2,is_stmt
      81 000011 ED00          MOV dbl(*SP(#0)), XAR3
         000013 BF   
      82 000014 FB79          MOV #65535, *AR3(short(#4)) ; |72| 
         000016 FFFF 
      83                      .dwpsn  file "../FreeRTOS/Source/list.c",line 76,column 2,is_stmt
      84 000018 ED00          MOV dbl(*SP(#0)), XAR2
         00001a AF   
      85 00001b ED00          MOV dbl(*SP(#0)), XAR3
         00001d BF   
      86              
      87 00001e 8E7D          MOV XAR2, dbl(*AR3(short(#6)))
         000020 AB14 
         000022 A504 
      88              ||      AADD #4, AR2 ; |76| 
      89              
      90                      .dwpsn  file "../FreeRTOS/Source/list.c",line 77,column 2,is_stmt
      91 000024 ED00          MOV dbl(*SP(#0)), XAR3
         000026 BF   
      92 000027 ED00          MOV dbl(*SP(#0)), XAR2
         000029 AF   
      93 00002a 1404          AADD #4, AR3 ; |77| 
         00002c B4   
      94 00002d EB4D          MOV XAR3, dbl(*AR2(#8))
         00002f B500 
TMS320C55x Assembler PC v4.4.1 Fri Sep 07 01:41:52 2018

Tools Copyright (c) 1996-2012 Texas Instruments Incorporated
list.asm                                                             PAGE    3

         000031 08   
      95                      .dwpsn  file "../FreeRTOS/Source/list.c",line 79,column 2,is_stmt
      96 000032 ED00          MOV dbl(*SP(#0)), XAR3
         000034 BF   
      97 000035 E661          MOV #0, *AR3 ; |79| 
         000037 00   
      98                      .dwpsn  file "../FreeRTOS/Source/list.c",line 80,column 1,is_stmt
      99 000038 4E03          AADD #3, SP
     100                      .dwcfi  cfa_offset, 1
     101              $C$DW$4 .dwtag  DW_TAG_TI_branch
     102                      .dwattr $C$DW$4, DW_AT_low_pc(0x00)
     103                      .dwattr $C$DW$4, DW_AT_TI_return
     104 00003a 4804          RET
     105                                                      ; return occurs
     106                      .dwattr $C$DW$1, DW_AT_TI_end_file("../FreeRTOS/Source/list.c")
     107                      .dwattr $C$DW$1, DW_AT_TI_end_line(0x50)
     108                      .dwattr $C$DW$1, DW_AT_TI_end_column(0x01)
     109                      .dwendentry
     110                      .dwendtag $C$DW$1
     111              
     112 00003c               .sect   ".text"
     113                      .align 4
     114                      .global _vListInitialiseItem
     115              
     116              $C$DW$5 .dwtag  DW_TAG_subprogram, DW_AT_name("vListInitialiseItem")
     117                      .dwattr $C$DW$5, DW_AT_low_pc(_vListInitialiseItem)
     118                      .dwattr $C$DW$5, DW_AT_high_pc(0x00)
     119                      .dwattr $C$DW$5, DW_AT_TI_symbol_name("_vListInitialiseItem")
     120                      .dwattr $C$DW$5, DW_AT_external
     121                      .dwattr $C$DW$5, DW_AT_TI_begin_file("../FreeRTOS/Source/list.c")
     122                      .dwattr $C$DW$5, DW_AT_TI_begin_line(0x53)
     123                      .dwattr $C$DW$5, DW_AT_TI_begin_column(0x06)
     124                      .dwattr $C$DW$5, DW_AT_TI_max_frame_size(0x04)
     125                      .dwpsn  file "../FreeRTOS/Source/list.c",line 84,column 1,is_stmt,address _vListInitialiseItem
     126              
     127                      .dwfde $C$DW$CIE, _vListInitialiseItem
     128              $C$DW$6 .dwtag  DW_TAG_formal_parameter, DW_AT_name("pxItem")
     129                      .dwattr $C$DW$6, DW_AT_TI_symbol_name("_pxItem")
     130                      .dwattr $C$DW$6, DW_AT_type(*$C$DW$T$34)
     131                      .dwattr $C$DW$6, DW_AT_location[DW_OP_reg17]
     132              ;*******************************************************************************
     133              ;* FUNCTION NAME: vListInitialiseItem                                          *
     134              ;*                                                                             *
     135              ;*   Function Uses Regs : AC0,AC0,AR0,XAR0,AR3,XAR3,SP,M40,SATA,SATD,RDM,FRCT, *
     136              ;*                        SMUL                                                 *
     137              ;*   Stack Frame        : Compact (No Frame Pointer, w/ debug)                 *
     138              ;*   Total Frame Size   : 4 words                                              *
     139              ;*                        (2 return address/alignment)                         *
     140              ;*                        (2 local values)                                     *
     141              ;*   Min System Stack   : 1 word                                               *
     142              ;*******************************************************************************
     143 00003c       _vListInitialiseItem:
     144                      .dwcfi  cfa_offset, 1
     145                      .dwcfi  save_reg_to_mem, 91, -1
     146 00003c 4EFD          AADD #-3, SP
TMS320C55x Assembler PC v4.4.1 Fri Sep 07 01:41:52 2018

Tools Copyright (c) 1996-2012 Texas Instruments Incorporated
list.asm                                                             PAGE    4

     147                      .dwcfi  cfa_offset, 4
     148              $C$DW$7 .dwtag  DW_TAG_variable, DW_AT_name("pxItem")
     149                      .dwattr $C$DW$7, DW_AT_TI_symbol_name("_pxItem")
     150                      .dwattr $C$DW$7, DW_AT_type(*$C$DW$T$34)
     151                      .dwattr $C$DW$7, DW_AT_location[DW_OP_bregx 0x24 0]
     152 00003e EB00          MOV XAR0, dbl(*SP(#0))
         000040 85   
     153                      .dwpsn  file "../FreeRTOS/Source/list.c",line 86,column 2,is_stmt
     154 000041 ED00          MOV dbl(*SP(#0)), XAR3
         000043 BF   
     155 000044 3C00          MOV #0, AC0 ; |86| 
     156 000046 EB6D          MOV AC0, dbl(*AR3(#8))
         000048 0800 
         00004a 08   
     157                      .dwpsn  file "../FreeRTOS/Source/list.c",line 87,column 1,is_stmt
     158 00004b 4E03          AADD #3, SP
     159                      .dwcfi  cfa_offset, 1
     160              $C$DW$8 .dwtag  DW_TAG_TI_branch
     161                      .dwattr $C$DW$8, DW_AT_low_pc(0x00)
     162                      .dwattr $C$DW$8, DW_AT_TI_return
     163 00004d 4804          RET
     164                                                      ; return occurs
     165                      .dwattr $C$DW$5, DW_AT_TI_end_file("../FreeRTOS/Source/list.c")
     166                      .dwattr $C$DW$5, DW_AT_TI_end_line(0x57)
     167                      .dwattr $C$DW$5, DW_AT_TI_end_column(0x01)
     168                      .dwendentry
     169                      .dwendtag $C$DW$5
     170              
     171 00004f               .sect   ".text"
     172                      .align 4
     173                      .global _vListInsertEnd
     174              
     175              $C$DW$9 .dwtag  DW_TAG_subprogram, DW_AT_name("vListInsertEnd")
     176                      .dwattr $C$DW$9, DW_AT_low_pc(_vListInsertEnd)
     177                      .dwattr $C$DW$9, DW_AT_high_pc(0x00)
     178                      .dwattr $C$DW$9, DW_AT_TI_symbol_name("_vListInsertEnd")
     179                      .dwattr $C$DW$9, DW_AT_external
     180                      .dwattr $C$DW$9, DW_AT_TI_begin_file("../FreeRTOS/Source/list.c")
     181                      .dwattr $C$DW$9, DW_AT_TI_begin_line(0x5a)
     182                      .dwattr $C$DW$9, DW_AT_TI_begin_column(0x06)
     183                      .dwattr $C$DW$9, DW_AT_TI_max_frame_size(0x08)
     184                      .dwpsn  file "../FreeRTOS/Source/list.c",line 91,column 1,is_stmt,address _vListInsertEnd
     185              
     186                      .dwfde $C$DW$CIE, _vListInsertEnd
     187              $C$DW$10        .dwtag  DW_TAG_formal_parameter, DW_AT_name("pxList")
     188                      .dwattr $C$DW$10, DW_AT_TI_symbol_name("_pxList")
     189                      .dwattr $C$DW$10, DW_AT_type(*$C$DW$T$32)
     190                      .dwattr $C$DW$10, DW_AT_location[DW_OP_reg17]
     191              $C$DW$11        .dwtag  DW_TAG_formal_parameter, DW_AT_name("pxNewListItem")
     192                      .dwattr $C$DW$11, DW_AT_TI_symbol_name("_pxNewListItem")
     193                      .dwattr $C$DW$11, DW_AT_type(*$C$DW$T$34)
     194                      .dwattr $C$DW$11, DW_AT_location[DW_OP_reg19]
     195              ;*******************************************************************************
     196              ;* FUNCTION NAME: vListInsertEnd                                               *
     197              ;*                                                                             *
TMS320C55x Assembler PC v4.4.1 Fri Sep 07 01:41:52 2018

Tools Copyright (c) 1996-2012 Texas Instruments Incorporated
list.asm                                                             PAGE    5

     198              ;*   Function Uses Regs : AR0,XAR0,AR1,XAR1,AR2,XAR2,AR3,XAR3,SP,CARRY,M40,    *
     199              ;*                        SATA,SATD,RDM,FRCT,SMUL                              *
     200              ;*   Stack Frame        : Compact (No Frame Pointer, w/ debug)                 *
     201              ;*   Total Frame Size   : 8 words                                              *
     202              ;*                        (2 return address/alignment)                         *
     203              ;*                        (6 local values)                                     *
     204              ;*   Min System Stack   : 1 word                                               *
     205              ;*******************************************************************************
     206 000050       _vListInsertEnd:
     207                      .dwcfi  cfa_offset, 1
     208                      .dwcfi  save_reg_to_mem, 91, -1
     209 000050 4EF9          AADD #-7, SP
     210                      .dwcfi  cfa_offset, 8
     211              $C$DW$12        .dwtag  DW_TAG_variable, DW_AT_name("pxList")
     212                      .dwattr $C$DW$12, DW_AT_TI_symbol_name("_pxList")
     213                      .dwattr $C$DW$12, DW_AT_type(*$C$DW$T$32)
     214                      .dwattr $C$DW$12, DW_AT_location[DW_OP_bregx 0x24 0]
     215              $C$DW$13        .dwtag  DW_TAG_variable, DW_AT_name("pxNewListItem")
     216                      .dwattr $C$DW$13, DW_AT_TI_symbol_name("_pxNewListItem")
     217                      .dwattr $C$DW$13, DW_AT_type(*$C$DW$T$34)
     218                      .dwattr $C$DW$13, DW_AT_location[DW_OP_bregx 0x24 2]
     219              $C$DW$14        .dwtag  DW_TAG_variable, DW_AT_name("pxIndex")
     220                      .dwattr $C$DW$14, DW_AT_TI_symbol_name("_pxIndex")
     221                      .dwattr $C$DW$14, DW_AT_type(*$C$DW$T$22)
     222                      .dwattr $C$DW$14, DW_AT_location[DW_OP_bregx 0x24 4]
     223 000052 EB04          MOV XAR1, dbl(*SP(#2))
         000054 95   
     224 000055 EB00          MOV XAR0, dbl(*SP(#0))
         000057 85   
     225                      .dwpsn  file "../FreeRTOS/Source/list.c",line 98,column 2,is_stmt
     226 000058 ED00          MOV dbl(*SP(#0)), XAR3
         00005a BF   
     227 00005b ED75          MOV dbl(*AR3(short(#2))), XAR3
         00005d BF   
     228 00005e EB08          MOV XAR3, dbl(*SP(#4))
         000060 B5   
     229                      .dwpsn  file "../FreeRTOS/Source/list.c",line 100,column 2,is_stmt
     230 000061 ED75          MOV dbl(*AR3(short(#2))), XAR2
         000063 AF   
     231 000064 ED04          MOV dbl(*SP(#2)), XAR3
         000066 BF   
     232 000067 EB75          MOV XAR2, dbl(*AR3(short(#2)))
         000069 A5   
     233                      .dwpsn  file "../FreeRTOS/Source/list.c",line 101,column 2,is_stmt
     234 00006a ED00          MOV dbl(*SP(#0)), XAR3
         00006c BF   
     235 00006d ED75          MOV dbl(*AR3(short(#2))), XAR2
         00006f AF   
     236 000070 ED04          MOV dbl(*SP(#2)), XAR3
         000072 BF   
     237 000073 EB79          MOV XAR2, dbl(*AR3(short(#4)))
         000075 A5   
     238                      .dwpsn  file "../FreeRTOS/Source/list.c",line 102,column 2,is_stmt
     239 000076 ED08          MOV dbl(*SP(#4)), XAR3
         000078 BF   
TMS320C55x Assembler PC v4.4.1 Fri Sep 07 01:41:52 2018

Tools Copyright (c) 1996-2012 Texas Instruments Incorporated
list.asm                                                             PAGE    6

     240 000079 ED75          MOV dbl(*AR3(short(#2))), XAR3
         00007b BF   
     241 00007c ED04          MOV dbl(*SP(#2)), XAR2
         00007e AF   
     242 00007f EB79          MOV XAR2, dbl(*AR3(short(#4)))
         000081 A5   
     243                      .dwpsn  file "../FreeRTOS/Source/list.c",line 103,column 2,is_stmt
     244 000082 ED08          MOV dbl(*SP(#4)), XAR3
         000084 BF   
     245 000085 ED04          MOV dbl(*SP(#2)), XAR2
         000087 AF   
     246 000088 EB75          MOV XAR2, dbl(*AR3(short(#2)))
         00008a A5   
     247                      .dwpsn  file "../FreeRTOS/Source/list.c",line 104,column 2,is_stmt
     248 00008b ED00          MOV dbl(*SP(#0)), XAR3
         00008d BF   
     249 00008e ED04          MOV dbl(*SP(#2)), XAR2
         000090 AF   
     250 000091 EB75          MOV XAR2, dbl(*AR3(short(#2)))
         000093 A5   
     251                      .dwpsn  file "../FreeRTOS/Source/list.c",line 107,column 2,is_stmt
     252 000094 ED04          MOV dbl(*SP(#2)), XAR2
         000096 AF   
     253 000097 ED00          MOV dbl(*SP(#0)), XAR3
         000099 BF   
     254 00009a EB4D          MOV XAR3, dbl(*AR2(#8))
         00009c B500 
         00009e 08   
     255                      .dwpsn  file "../FreeRTOS/Source/list.c",line 109,column 2,is_stmt
     256 00009f ED00          MOV dbl(*SP(#0)), XAR3
         0000a1 BF   
     257 0000a2 F761          ADD #1, *AR3 ; |109| 
         0000a4 0001 
     258                      .dwpsn  file "../FreeRTOS/Source/list.c",line 110,column 1,is_stmt
     259 0000a6 4E07          AADD #7, SP
     260                      .dwcfi  cfa_offset, 1
     261              $C$DW$15        .dwtag  DW_TAG_TI_branch
     262                      .dwattr $C$DW$15, DW_AT_low_pc(0x00)
     263                      .dwattr $C$DW$15, DW_AT_TI_return
     264 0000a8 4804          RET
     265                                                      ; return occurs
     266                      .dwattr $C$DW$9, DW_AT_TI_end_file("../FreeRTOS/Source/list.c")
     267                      .dwattr $C$DW$9, DW_AT_TI_end_line(0x6e)
     268                      .dwattr $C$DW$9, DW_AT_TI_end_column(0x01)
     269                      .dwendentry
     270                      .dwendtag $C$DW$9
     271              
     272 0000aa               .sect   ".text"
     273                      .align 4
     274                      .global _vListInsert
     275              
     276              $C$DW$16        .dwtag  DW_TAG_subprogram, DW_AT_name("vListInsert")
     277                      .dwattr $C$DW$16, DW_AT_low_pc(_vListInsert)
     278                      .dwattr $C$DW$16, DW_AT_high_pc(0x00)
     279                      .dwattr $C$DW$16, DW_AT_TI_symbol_name("_vListInsert")
TMS320C55x Assembler PC v4.4.1 Fri Sep 07 01:41:52 2018

Tools Copyright (c) 1996-2012 Texas Instruments Incorporated
list.asm                                                             PAGE    7

     280                      .dwattr $C$DW$16, DW_AT_external
     281                      .dwattr $C$DW$16, DW_AT_TI_begin_file("../FreeRTOS/Source/list.c")
     282                      .dwattr $C$DW$16, DW_AT_TI_begin_line(0x71)
     283                      .dwattr $C$DW$16, DW_AT_TI_begin_column(0x06)
     284                      .dwattr $C$DW$16, DW_AT_TI_max_frame_size(0x08)
     285                      .dwpsn  file "../FreeRTOS/Source/list.c",line 114,column 1,is_stmt,address _vListInsert
     286              
     287                      .dwfde $C$DW$CIE, _vListInsert
     288              $C$DW$17        .dwtag  DW_TAG_formal_parameter, DW_AT_name("pxList")
     289                      .dwattr $C$DW$17, DW_AT_TI_symbol_name("_pxList")
     290                      .dwattr $C$DW$17, DW_AT_type(*$C$DW$T$32)
     291                      .dwattr $C$DW$17, DW_AT_location[DW_OP_reg17]
     292              $C$DW$18        .dwtag  DW_TAG_formal_parameter, DW_AT_name("pxNewListItem")
     293                      .dwattr $C$DW$18, DW_AT_TI_symbol_name("_pxNewListItem")
     294                      .dwattr $C$DW$18, DW_AT_type(*$C$DW$T$34)
     295                      .dwattr $C$DW$18, DW_AT_location[DW_OP_reg19]
     296              ;*******************************************************************************
     297              ;* FUNCTION NAME: vListInsert                                                  *
     298              ;*                                                                             *
     299              ;*   Function Uses Regs : AR0,XAR0,AR1,XAR1,AR2,XAR2,AR3,XAR3,SP,CARRY,TC1,M40,*
     300              ;*                        SATA,SATD,RDM,FRCT,SMUL                              *
     301              ;*   Stack Frame        : Compact (No Frame Pointer, w/ debug)                 *
     302              ;*   Total Frame Size   : 8 words                                              *
     303              ;*                        (1 return address/alignment)                         *
     304              ;*                        (7 local values)                                     *
     305              ;*   Min System Stack   : 1 word                                               *
     306              ;*******************************************************************************
     307 0000ac       _vListInsert:
     308                      .dwcfi  cfa_offset, 1
     309                      .dwcfi  save_reg_to_mem, 91, -1
     310 0000ac 4EF9          AADD #-7, SP
     311                      .dwcfi  cfa_offset, 8
     312              $C$DW$19        .dwtag  DW_TAG_variable, DW_AT_name("pxList")
     313                      .dwattr $C$DW$19, DW_AT_TI_symbol_name("_pxList")
     314                      .dwattr $C$DW$19, DW_AT_type(*$C$DW$T$32)
     315                      .dwattr $C$DW$19, DW_AT_location[DW_OP_bregx 0x24 0]
     316              $C$DW$20        .dwtag  DW_TAG_variable, DW_AT_name("pxNewListItem")
     317                      .dwattr $C$DW$20, DW_AT_TI_symbol_name("_pxNewListItem")
     318                      .dwattr $C$DW$20, DW_AT_type(*$C$DW$T$34)
     319                      .dwattr $C$DW$20, DW_AT_location[DW_OP_bregx 0x24 2]
     320              $C$DW$21        .dwtag  DW_TAG_variable, DW_AT_name("pxIterator")
     321                      .dwattr $C$DW$21, DW_AT_TI_symbol_name("_pxIterator")
     322                      .dwattr $C$DW$21, DW_AT_type(*$C$DW$T$22)
     323                      .dwattr $C$DW$21, DW_AT_location[DW_OP_bregx 0x24 4]
     324              $C$DW$22        .dwtag  DW_TAG_variable, DW_AT_name("xValueOfInsertion")
     325                      .dwattr $C$DW$22, DW_AT_TI_symbol_name("_xValueOfInsertion")
     326                      .dwattr $C$DW$22, DW_AT_type(*$C$DW$T$26)
     327                      .dwattr $C$DW$22, DW_AT_location[DW_OP_bregx 0x24 6]
     328 0000ae EB04          MOV XAR1, dbl(*SP(#2))
         0000b0 95   
     329 0000b1 EB00          MOV XAR0, dbl(*SP(#0))
         0000b3 85   
     330                      .dwpsn  file "../FreeRTOS/Source/list.c",line 119,column 2,is_stmt
     331 0000b4 ED04          MOV dbl(*SP(#2)), XAR3
         0000b6 BF   
TMS320C55x Assembler PC v4.4.1 Fri Sep 07 01:41:52 2018

Tools Copyright (c) 1996-2012 Texas Instruments Incorporated
list.asm                                                             PAGE    8

     332 0000b7 A961          MOV *AR3, AR1 ; |119| 
     333 0000b9 C90C          MOV AR1, *SP(#6) ; |119| 
     334                      .dwpsn  file "../FreeRTOS/Source/list.c",line 128,column 2,is_stmt
     335 0000bb 76FF          MOV #65535, AR2 ; |128| 
         0000bd FFA8 
     336 0000bf 129C          CMPU AR1 != AR2, TC1 ; |128| 
         0000c1 A4   
     337 0000c2 66E4          BCC $C$L1,TC1 ; |128| 
     338                                                      ; branchcc occurs ; |128| 
     339                      .dwpsn  file "../FreeRTOS/Source/list.c",line 130,column 3,is_stmt
     340 0000c4 ED00          MOV dbl(*SP(#0)), XAR3
         0000c6 BF   
     341 0000c7 ED6D          MOV dbl(*AR3(#8)), XAR3
         0000c9 BF00 
         0000cb 08   
     342 0000cc EB08          MOV XAR3, dbl(*SP(#4))
         0000ce B5   
     343                      .dwpsn  file "../FreeRTOS/Source/list.c",line 131,column 2,is_stmt
     344 0000cf 4A2C          B $C$L3   ; |131| 
     345                                                      ; branch occurs ; |131| 
     346 0000d1       $C$L1:    
     347                      .dwpsn  file "../FreeRTOS/Source/list.c",line 150,column 8,is_stmt
     348 0000d1 ED00          MOV dbl(*SP(#0)), XAR3
         0000d3 BF   
     349              
     350 0000d4 8E08          MOV XAR3, dbl(*SP(#4))
         0000d6 BB14 
         0000d8 B504 
     351              ||      AADD #4, AR3 ; |150| 
     352              
     353                      .dwpsn  file "../FreeRTOS/Source/list.c",line 150,column 60,is_stmt
     354 0000da ED75          MOV dbl(*AR3(short(#2))), XAR3
         0000dc BF   
     355 0000dd A90C          MOV *SP(#6), AR1 ; |150| 
     356 0000df AA61          MOV *AR3, AR2 ; |150| 
     357 0000e1 1294          CMPU AR2 > AR1, TC1 ; |150| 
         0000e3 A4   
     358 0000e4 0464          BCC $C$L3,TC1 ; |150| 
         0000e6 16   
     359                                                      ; branchcc occurs ; |150| 
     360 0000e7       $C$L2:    
     361 0000e7       $C$DW$L$_vListInsert$4$B:
     362                      .dwpsn  file "../FreeRTOS/Source/list.c",line 150,column 113,is_stmt
     363 0000e7 ED08          MOV dbl(*SP(#4)), XAR3
         0000e9 BF   
     364 0000ea ED75          MOV dbl(*AR3(short(#2))), XAR3
         0000ec BF   
     365 0000ed EB08          MOV XAR3, dbl(*SP(#4))
         0000ef B5   
     366                      .dwpsn  file "../FreeRTOS/Source/list.c",line 150,column 60,is_stmt
     367 0000f0 ED75          MOV dbl(*AR3(short(#2))), XAR3
         0000f2 BF   
     368 0000f3 A90C          MOV *SP(#6), AR1 ; |150| 
     369 0000f5 AA61          MOV *AR3, AR2 ; |150| 
     370 0000f7 1298          CMPU AR2 <= AR1, TC1 ; |150| 
TMS320C55x Assembler PC v4.4.1 Fri Sep 07 01:41:52 2018

Tools Copyright (c) 1996-2012 Texas Instruments Incorporated
list.asm                                                             PAGE    9

         0000f9 A4   
     371 0000fa 0464          BCC $C$L2,TC1 ; |150| 
         0000fc EA   
     372                                                      ; branchcc occurs ; |150| 
     373 0000fd       $C$DW$L$_vListInsert$4$E:
     374 0000fd       $C$L3:    
     375                      .dwpsn  file "../FreeRTOS/Source/list.c",line 157,column 2,is_stmt
     376 0000fd ED08          MOV dbl(*SP(#4)), XAR3
         0000ff BF   
     377 000100 ED75          MOV dbl(*AR3(short(#2))), XAR2
         000102 AF   
     378 000103 ED04          MOV dbl(*SP(#2)), XAR3
         000105 BF   
     379 000106 EB75          MOV XAR2, dbl(*AR3(short(#2)))
         000108 A5   
     380                      .dwpsn  file "../FreeRTOS/Source/list.c",line 158,column 2,is_stmt
     381 000109 ED04          MOV dbl(*SP(#2)), XAR3
         00010b BF   
     382 00010c ED75          MOV dbl(*AR3(short(#2))), XAR3
         00010e BF   
     383 00010f ED04          MOV dbl(*SP(#2)), XAR2
         000111 AF   
     384 000112 EB79          MOV XAR2, dbl(*AR3(short(#4)))
         000114 A5   
     385                      .dwpsn  file "../FreeRTOS/Source/list.c",line 159,column 2,is_stmt
     386 000115 ED04          MOV dbl(*SP(#2)), XAR3
         000117 BF   
     387 000118 ED08          MOV dbl(*SP(#4)), XAR2
         00011a AF   
     388 00011b EB79          MOV XAR2, dbl(*AR3(short(#4)))
         00011d A5   
     389                      .dwpsn  file "../FreeRTOS/Source/list.c",line 160,column 2,is_stmt
     390 00011e ED08          MOV dbl(*SP(#4)), XAR3
         000120 BF   
     391 000121 ED04          MOV dbl(*SP(#2)), XAR2
         000123 AF   
     392 000124 EB75          MOV XAR2, dbl(*AR3(short(#2)))
         000126 A5   
     393                      .dwpsn  file "../FreeRTOS/Source/list.c",line 164,column 2,is_stmt
     394 000127 ED04          MOV dbl(*SP(#2)), XAR2
         000129 AF   
     395 00012a ED00          MOV dbl(*SP(#0)), XAR3
         00012c BF   
     396 00012d EB4D          MOV XAR3, dbl(*AR2(#8))
         00012f B500 
         000131 08   
     397                      .dwpsn  file "../FreeRTOS/Source/list.c",line 166,column 2,is_stmt
     398 000132 ED00          MOV dbl(*SP(#0)), XAR3
         000134 BF   
     399 000135 F761          ADD #1, *AR3 ; |166| 
         000137 0001 
     400                      .dwpsn  file "../FreeRTOS/Source/list.c",line 167,column 1,is_stmt
     401 000139 4E07          AADD #7, SP
     402                      .dwcfi  cfa_offset, 1
     403              $C$DW$23        .dwtag  DW_TAG_TI_branch
TMS320C55x Assembler PC v4.4.1 Fri Sep 07 01:41:52 2018

Tools Copyright (c) 1996-2012 Texas Instruments Incorporated
list.asm                                                             PAGE   10

     404                      .dwattr $C$DW$23, DW_AT_low_pc(0x00)
     405                      .dwattr $C$DW$23, DW_AT_TI_return
     406 00013b 4804          RET
     407                                                      ; return occurs
     408              
     409              $C$DW$24        .dwtag  DW_TAG_TI_loop
     410                      .dwattr $C$DW$24, DW_AT_name("F:\site\eZDSP\eZDSP_5535_Files\ccsws2\test\Debug\list.asm:$C$L2:1:15363
     411                      .dwattr $C$DW$24, DW_AT_TI_begin_file("../FreeRTOS/Source/list.c")
     412                      .dwattr $C$DW$24, DW_AT_TI_begin_line(0x96)
     413                      .dwattr $C$DW$24, DW_AT_TI_end_line(0x9a)
     414              $C$DW$25        .dwtag  DW_TAG_TI_loop_range
     415                      .dwattr $C$DW$25, DW_AT_low_pc($C$DW$L$_vListInsert$4$B)
     416                      .dwattr $C$DW$25, DW_AT_high_pc($C$DW$L$_vListInsert$4$E)
     417                      .dwendtag $C$DW$24
     418              
     419                      .dwattr $C$DW$16, DW_AT_TI_end_file("../FreeRTOS/Source/list.c")
     420                      .dwattr $C$DW$16, DW_AT_TI_end_line(0xa7)
     421                      .dwattr $C$DW$16, DW_AT_TI_end_column(0x01)
     422                      .dwendentry
     423                      .dwendtag $C$DW$16
     424              
     425 00013d               .sect   ".text"
     426                      .align 4
     427                      .global _vListRemove
     428              
     429              $C$DW$26        .dwtag  DW_TAG_subprogram, DW_AT_name("vListRemove")
     430                      .dwattr $C$DW$26, DW_AT_low_pc(_vListRemove)
     431                      .dwattr $C$DW$26, DW_AT_high_pc(0x00)
     432                      .dwattr $C$DW$26, DW_AT_TI_symbol_name("_vListRemove")
     433                      .dwattr $C$DW$26, DW_AT_external
     434                      .dwattr $C$DW$26, DW_AT_TI_begin_file("../FreeRTOS/Source/list.c")
     435                      .dwattr $C$DW$26, DW_AT_TI_begin_line(0xaa)
     436                      .dwattr $C$DW$26, DW_AT_TI_begin_column(0x06)
     437                      .dwattr $C$DW$26, DW_AT_TI_max_frame_size(0x06)
     438                      .dwpsn  file "../FreeRTOS/Source/list.c",line 171,column 1,is_stmt,address _vListRemove
     439              
     440                      .dwfde $C$DW$CIE, _vListRemove
     441              $C$DW$27        .dwtag  DW_TAG_formal_parameter, DW_AT_name("pxItemToRemove")
     442                      .dwattr $C$DW$27, DW_AT_TI_symbol_name("_pxItemToRemove")
     443                      .dwattr $C$DW$27, DW_AT_type(*$C$DW$T$34)
     444                      .dwattr $C$DW$27, DW_AT_location[DW_OP_reg17]
     445              ;*******************************************************************************
     446              ;* FUNCTION NAME: vListRemove                                                  *
     447              ;*                                                                             *
     448              ;*   Function Uses Regs : AC0,AC0,AC1,AC1,AR0,XAR0,AR2,XAR2,AR3,XAR3,SP,CARRY, *
     449              ;*                        TC1,M40,SATA,SATD,RDM,FRCT,SMUL                      *
     450              ;*   Stack Frame        : Compact (No Frame Pointer, w/ debug)                 *
     451              ;*   Total Frame Size   : 6 words                                              *
     452              ;*                        (2 return address/alignment)                         *
     453              ;*                        (4 local values)                                     *
     454              ;*   Min System Stack   : 1 word                                               *
     455              ;*******************************************************************************
     456 000140       _vListRemove:
     457                      .dwcfi  cfa_offset, 1
     458                      .dwcfi  save_reg_to_mem, 91, -1
TMS320C55x Assembler PC v4.4.1 Fri Sep 07 01:41:52 2018

Tools Copyright (c) 1996-2012 Texas Instruments Incorporated
list.asm                                                             PAGE   11

     459 000140 4EFB          AADD #-5, SP
     460                      .dwcfi  cfa_offset, 6
     461              $C$DW$28        .dwtag  DW_TAG_variable, DW_AT_name("pxItemToRemove")
     462                      .dwattr $C$DW$28, DW_AT_TI_symbol_name("_pxItemToRemove")
     463                      .dwattr $C$DW$28, DW_AT_type(*$C$DW$T$34)
     464                      .dwattr $C$DW$28, DW_AT_location[DW_OP_bregx 0x24 0]
     465              $C$DW$29        .dwtag  DW_TAG_variable, DW_AT_name("pxList")
     466                      .dwattr $C$DW$29, DW_AT_TI_symbol_name("_pxList")
     467                      .dwattr $C$DW$29, DW_AT_type(*$C$DW$T$32)
     468                      .dwattr $C$DW$29, DW_AT_location[DW_OP_bregx 0x24 2]
     469 000142 EB00          MOV XAR0, dbl(*SP(#0))
         000144 85   
     470                      .dwpsn  file "../FreeRTOS/Source/list.c",line 174,column 2,is_stmt
     471 000145 ED00          MOV dbl(*SP(#0)), XAR3
         000147 BF   
     472 000148 ED79          MOV dbl(*AR3(short(#4))), XAR2
         00014a AF   
     473 00014b ED75          MOV dbl(*AR3(short(#2))), XAR3
         00014d BF   
     474 00014e EB79          MOV XAR2, dbl(*AR3(short(#4)))
         000150 A5   
     475                      .dwpsn  file "../FreeRTOS/Source/list.c",line 175,column 2,is_stmt
     476 000151 ED00          MOV dbl(*SP(#0)), XAR3
         000153 BF   
     477 000154 ED75          MOV dbl(*AR3(short(#2))), XAR2
         000156 AF   
     478 000157 ED79          MOV dbl(*AR3(short(#4))), XAR3
         000159 BF   
     479 00015a EB75          MOV XAR2, dbl(*AR3(short(#2)))
         00015c A5   
     480                      .dwpsn  file "../FreeRTOS/Source/list.c",line 179,column 2,is_stmt
     481 00015d ED00          MOV dbl(*SP(#0)), XAR3
         00015f BF   
     482 000160 ED6D          MOV dbl(*AR3(#8)), XAR3
         000162 BF00 
         000164 08   
     483 000165 EB04          MOV XAR3, dbl(*SP(#2))
         000167 B5   
     484                      .dwpsn  file "../FreeRTOS/Source/list.c",line 182,column 2,is_stmt
     485 000168 ED00          MOV dbl(*SP(#0)), XAR3
         00016a BF   
     486 00016b 90B0          MOV XAR3, AC0
     487 00016d ED04          MOV dbl(*SP(#2)), XAR3
         00016f BF   
     488 000170 ED75          MOV dbl(*AR3(short(#2))), XAR3
         000172 BF   
     489 000173 90B1          MOV XAR3, AC1
     490 000175 121C          CMPU AC1 != AC0, TC1 ; |182| 
         000177 04   
     491 000178 6664          BCC $C$L4,TC1 ; |182| 
     492                                                      ; branchcc occurs ; |182| 
     493                      .dwpsn  file "../FreeRTOS/Source/list.c",line 184,column 3,is_stmt
     494 00017a ED00          MOV dbl(*SP(#0)), XAR3
         00017c BF   
     495 00017d ED79          MOV dbl(*AR3(short(#4))), XAR2
TMS320C55x Assembler PC v4.4.1 Fri Sep 07 01:41:52 2018

Tools Copyright (c) 1996-2012 Texas Instruments Incorporated
list.asm                                                             PAGE   12

         00017f AF   
     496 000180 ED04          MOV dbl(*SP(#2)), XAR3
         000182 BF   
     497 000183 EB75          MOV XAR2, dbl(*AR3(short(#2)))
         000185 A5   
     498 000186       $C$L4:    
     499                      .dwpsn  file "../FreeRTOS/Source/list.c",line 187,column 2,is_stmt
     500 000186 ED00          MOV dbl(*SP(#0)), XAR3
         000188 BF   
     501 000189 3C00          MOV #0, AC0 ; |187| 
     502 00018b EB6D          MOV AC0, dbl(*AR3(#8))
         00018d 0800 
         00018f 08   
     503                      .dwpsn  file "../FreeRTOS/Source/list.c",line 188,column 2,is_stmt
     504 000190 ED04          MOV dbl(*SP(#2)), XAR3
         000192 BF   
     505 000193 F761          SUB #1, *AR3 ; |188| 
         000195 FFFF 
     506                      .dwpsn  file "../FreeRTOS/Source/list.c",line 189,column 1,is_stmt
     507 000197 4E05          AADD #5, SP
     508                      .dwcfi  cfa_offset, 1
     509              $C$DW$30        .dwtag  DW_TAG_TI_branch
     510                      .dwattr $C$DW$30, DW_AT_low_pc(0x00)
     511                      .dwattr $C$DW$30, DW_AT_TI_return
     512 000199 4804          RET
     513                                                      ; return occurs
     514                      .dwattr $C$DW$26, DW_AT_TI_end_file("../FreeRTOS/Source/list.c")
     515                      .dwattr $C$DW$26, DW_AT_TI_end_line(0xbd)
     516                      .dwattr $C$DW$26, DW_AT_TI_end_column(0x01)
     517                      .dwendentry
     518                      .dwendtag $C$DW$26
     519              
     520              
     521              ;*******************************************************************************
     522              ;* TYPE INFORMATION                                                            *
     523              ;*******************************************************************************
     524              $C$DW$T$3       .dwtag  DW_TAG_pointer_type
     525                      .dwattr $C$DW$T$3, DW_AT_address_class(0x17)
     526              $C$DW$T$4       .dwtag  DW_TAG_base_type
     527                      .dwattr $C$DW$T$4, DW_AT_encoding(DW_ATE_boolean)
     528                      .dwattr $C$DW$T$4, DW_AT_name("bool")
     529                      .dwattr $C$DW$T$4, DW_AT_byte_size(0x01)
     530              $C$DW$T$5       .dwtag  DW_TAG_base_type
     531                      .dwattr $C$DW$T$5, DW_AT_encoding(DW_ATE_signed_char)
     532                      .dwattr $C$DW$T$5, DW_AT_name("signed char")
     533                      .dwattr $C$DW$T$5, DW_AT_byte_size(0x01)
     534              $C$DW$T$6       .dwtag  DW_TAG_base_type
     535                      .dwattr $C$DW$T$6, DW_AT_encoding(DW_ATE_unsigned_char)
     536                      .dwattr $C$DW$T$6, DW_AT_name("unsigned char")
     537                      .dwattr $C$DW$T$6, DW_AT_byte_size(0x01)
     538              $C$DW$T$7       .dwtag  DW_TAG_base_type
     539                      .dwattr $C$DW$T$7, DW_AT_encoding(DW_ATE_signed_char)
     540                      .dwattr $C$DW$T$7, DW_AT_name("wchar_t")
     541                      .dwattr $C$DW$T$7, DW_AT_byte_size(0x01)
     542              $C$DW$T$8       .dwtag  DW_TAG_base_type
TMS320C55x Assembler PC v4.4.1 Fri Sep 07 01:41:52 2018

Tools Copyright (c) 1996-2012 Texas Instruments Incorporated
list.asm                                                             PAGE   13

     543                      .dwattr $C$DW$T$8, DW_AT_encoding(DW_ATE_signed)
     544                      .dwattr $C$DW$T$8, DW_AT_name("short")
     545                      .dwattr $C$DW$T$8, DW_AT_byte_size(0x01)
     546              $C$DW$T$9       .dwtag  DW_TAG_base_type
     547                      .dwattr $C$DW$T$9, DW_AT_encoding(DW_ATE_unsigned)
     548                      .dwattr $C$DW$T$9, DW_AT_name("unsigned short")
     549                      .dwattr $C$DW$T$9, DW_AT_byte_size(0x01)
     550              $C$DW$T$10      .dwtag  DW_TAG_base_type
     551                      .dwattr $C$DW$T$10, DW_AT_encoding(DW_ATE_signed)
     552                      .dwattr $C$DW$T$10, DW_AT_name("int")
     553                      .dwattr $C$DW$T$10, DW_AT_byte_size(0x01)
     554              $C$DW$T$11      .dwtag  DW_TAG_base_type
     555                      .dwattr $C$DW$T$11, DW_AT_encoding(DW_ATE_unsigned)
     556                      .dwattr $C$DW$T$11, DW_AT_name("unsigned int")
     557                      .dwattr $C$DW$T$11, DW_AT_byte_size(0x01)
     558              $C$DW$31        .dwtag  DW_TAG_TI_far_type
     559                      .dwattr $C$DW$31, DW_AT_type(*$C$DW$T$11)
     560              $C$DW$T$19      .dwtag  DW_TAG_volatile_type
     561                      .dwattr $C$DW$T$19, DW_AT_type(*$C$DW$31)
     562              $C$DW$T$26      .dwtag  DW_TAG_typedef, DW_AT_name("portTickType")
     563                      .dwattr $C$DW$T$26, DW_AT_type(*$C$DW$T$11)
     564                      .dwattr $C$DW$T$26, DW_AT_language(DW_LANG_C)
     565              $C$DW$T$12      .dwtag  DW_TAG_base_type
     566                      .dwattr $C$DW$T$12, DW_AT_encoding(DW_ATE_signed)
     567                      .dwattr $C$DW$T$12, DW_AT_name("long")
     568                      .dwattr $C$DW$T$12, DW_AT_byte_size(0x02)
     569              $C$DW$T$13      .dwtag  DW_TAG_base_type
     570                      .dwattr $C$DW$T$13, DW_AT_encoding(DW_ATE_unsigned)
     571                      .dwattr $C$DW$T$13, DW_AT_name("unsigned long")
     572                      .dwattr $C$DW$T$13, DW_AT_byte_size(0x02)
     573              $C$DW$T$14      .dwtag  DW_TAG_base_type
     574                      .dwattr $C$DW$T$14, DW_AT_encoding(DW_ATE_signed)
     575                      .dwattr $C$DW$T$14, DW_AT_name("long long")
     576                      .dwattr $C$DW$T$14, DW_AT_byte_size(0x04)
     577                      .dwattr $C$DW$T$14, DW_AT_bit_size(0x28)
     578                      .dwattr $C$DW$T$14, DW_AT_bit_offset(0x18)
     579              $C$DW$T$15      .dwtag  DW_TAG_base_type
     580                      .dwattr $C$DW$T$15, DW_AT_encoding(DW_ATE_unsigned)
     581                      .dwattr $C$DW$T$15, DW_AT_name("unsigned long long")
     582                      .dwattr $C$DW$T$15, DW_AT_byte_size(0x04)
     583                      .dwattr $C$DW$T$15, DW_AT_bit_size(0x28)
     584                      .dwattr $C$DW$T$15, DW_AT_bit_offset(0x18)
     585              $C$DW$T$16      .dwtag  DW_TAG_base_type
     586                      .dwattr $C$DW$T$16, DW_AT_encoding(DW_ATE_float)
     587                      .dwattr $C$DW$T$16, DW_AT_name("float")
     588                      .dwattr $C$DW$T$16, DW_AT_byte_size(0x02)
     589              $C$DW$T$17      .dwtag  DW_TAG_base_type
     590                      .dwattr $C$DW$T$17, DW_AT_encoding(DW_ATE_float)
     591                      .dwattr $C$DW$T$17, DW_AT_name("double")
     592                      .dwattr $C$DW$T$17, DW_AT_byte_size(0x02)
     593              $C$DW$T$18      .dwtag  DW_TAG_base_type
     594                      .dwattr $C$DW$T$18, DW_AT_encoding(DW_ATE_float)
     595                      .dwattr $C$DW$T$18, DW_AT_name("long double")
     596                      .dwattr $C$DW$T$18, DW_AT_byte_size(0x02)
     597              
TMS320C55x Assembler PC v4.4.1 Fri Sep 07 01:41:52 2018

Tools Copyright (c) 1996-2012 Texas Instruments Incorporated
list.asm                                                             PAGE   14

     598              $C$DW$T$25      .dwtag  DW_TAG_structure_type
     599                      .dwattr $C$DW$T$25, DW_AT_name("xLIST")
     600                      .dwattr $C$DW$T$25, DW_AT_byte_size(0x0a)
     601              $C$DW$32        .dwtag  DW_TAG_member
     602                      .dwattr $C$DW$32, DW_AT_type(*$C$DW$T$19)
     603                      .dwattr $C$DW$32, DW_AT_name("uxNumberOfItems")
     604                      .dwattr $C$DW$32, DW_AT_TI_symbol_name("_uxNumberOfItems")
     605                      .dwattr $C$DW$32, DW_AT_data_member_location[DW_OP_plus_uconst 0x0]
     606                      .dwattr $C$DW$32, DW_AT_accessibility(DW_ACCESS_public)
     607              $C$DW$33        .dwtag  DW_TAG_member
     608                      .dwattr $C$DW$33, DW_AT_type(*$C$DW$T$22)
     609                      .dwattr $C$DW$33, DW_AT_name("pxIndex")
     610                      .dwattr $C$DW$33, DW_AT_TI_symbol_name("_pxIndex")
     611                      .dwattr $C$DW$33, DW_AT_data_member_location[DW_OP_plus_uconst 0x2]
     612                      .dwattr $C$DW$33, DW_AT_accessibility(DW_ACCESS_public)
     613              $C$DW$34        .dwtag  DW_TAG_member
     614                      .dwattr $C$DW$34, DW_AT_type(*$C$DW$T$24)
     615                      .dwattr $C$DW$34, DW_AT_name("xListEnd")
     616                      .dwattr $C$DW$34, DW_AT_TI_symbol_name("_xListEnd")
     617                      .dwattr $C$DW$34, DW_AT_data_member_location[DW_OP_plus_uconst 0x4]
     618                      .dwattr $C$DW$34, DW_AT_accessibility(DW_ACCESS_public)
     619                      .dwendtag $C$DW$T$25
     620              
     621              $C$DW$T$31      .dwtag  DW_TAG_typedef, DW_AT_name("xList")
     622                      .dwattr $C$DW$T$31, DW_AT_type(*$C$DW$T$25)
     623                      .dwattr $C$DW$T$31, DW_AT_language(DW_LANG_C)
     624              $C$DW$T$32      .dwtag  DW_TAG_pointer_type
     625                      .dwattr $C$DW$T$32, DW_AT_type(*$C$DW$T$31)
     626                      .dwattr $C$DW$T$32, DW_AT_address_class(0x17)
     627              
     628              $C$DW$T$29      .dwtag  DW_TAG_structure_type
     629                      .dwattr $C$DW$T$29, DW_AT_name("xLIST_ITEM")
     630                      .dwattr $C$DW$T$29, DW_AT_byte_size(0x0a)
     631              $C$DW$35        .dwtag  DW_TAG_member
     632                      .dwattr $C$DW$35, DW_AT_type(*$C$DW$T$26)
     633                      .dwattr $C$DW$35, DW_AT_name("xItemValue")
     634                      .dwattr $C$DW$35, DW_AT_TI_symbol_name("_xItemValue")
     635                      .dwattr $C$DW$35, DW_AT_data_member_location[DW_OP_plus_uconst 0x0]
     636                      .dwattr $C$DW$35, DW_AT_accessibility(DW_ACCESS_public)
     637              $C$DW$36        .dwtag  DW_TAG_member
     638                      .dwattr $C$DW$36, DW_AT_type(*$C$DW$T$28)
     639                      .dwattr $C$DW$36, DW_AT_name("pxNext")
     640                      .dwattr $C$DW$36, DW_AT_TI_symbol_name("_pxNext")
     641                      .dwattr $C$DW$36, DW_AT_data_member_location[DW_OP_plus_uconst 0x2]
     642                      .dwattr $C$DW$36, DW_AT_accessibility(DW_ACCESS_public)
     643              $C$DW$37        .dwtag  DW_TAG_member
     644                      .dwattr $C$DW$37, DW_AT_type(*$C$DW$T$28)
     645                      .dwattr $C$DW$37, DW_AT_name("pxPrevious")
     646                      .dwattr $C$DW$37, DW_AT_TI_symbol_name("_pxPrevious")
     647                      .dwattr $C$DW$37, DW_AT_data_member_location[DW_OP_plus_uconst 0x4]
     648                      .dwattr $C$DW$37, DW_AT_accessibility(DW_ACCESS_public)
     649              $C$DW$38        .dwtag  DW_TAG_member
     650                      .dwattr $C$DW$38, DW_AT_type(*$C$DW$T$3)
     651                      .dwattr $C$DW$38, DW_AT_name("pvOwner")
     652                      .dwattr $C$DW$38, DW_AT_TI_symbol_name("_pvOwner")
TMS320C55x Assembler PC v4.4.1 Fri Sep 07 01:41:52 2018

Tools Copyright (c) 1996-2012 Texas Instruments Incorporated
list.asm                                                             PAGE   15

     653                      .dwattr $C$DW$38, DW_AT_data_member_location[DW_OP_plus_uconst 0x6]
     654                      .dwattr $C$DW$38, DW_AT_accessibility(DW_ACCESS_public)
     655              $C$DW$39        .dwtag  DW_TAG_member
     656                      .dwattr $C$DW$39, DW_AT_type(*$C$DW$T$3)
     657                      .dwattr $C$DW$39, DW_AT_name("pvContainer")
     658                      .dwattr $C$DW$39, DW_AT_TI_symbol_name("_pvContainer")
     659                      .dwattr $C$DW$39, DW_AT_data_member_location[DW_OP_plus_uconst 0x8]
     660                      .dwattr $C$DW$39, DW_AT_accessibility(DW_ACCESS_public)
     661                      .dwendtag $C$DW$T$29
     662              
     663              $C$DW$40        .dwtag  DW_TAG_TI_far_type
     664                      .dwattr $C$DW$40, DW_AT_type(*$C$DW$T$29)
     665              $C$DW$T$27      .dwtag  DW_TAG_volatile_type
     666                      .dwattr $C$DW$T$27, DW_AT_type(*$C$DW$40)
     667              $C$DW$T$28      .dwtag  DW_TAG_pointer_type
     668                      .dwattr $C$DW$T$28, DW_AT_type(*$C$DW$T$27)
     669                      .dwattr $C$DW$T$28, DW_AT_address_class(0x17)
     670              $C$DW$T$20      .dwtag  DW_TAG_typedef, DW_AT_name("xListItem")
     671                      .dwattr $C$DW$T$20, DW_AT_type(*$C$DW$T$29)
     672                      .dwattr $C$DW$T$20, DW_AT_language(DW_LANG_C)
     673              $C$DW$T$34      .dwtag  DW_TAG_pointer_type
     674                      .dwattr $C$DW$T$34, DW_AT_type(*$C$DW$T$20)
     675                      .dwattr $C$DW$T$34, DW_AT_address_class(0x17)
     676              $C$DW$41        .dwtag  DW_TAG_TI_far_type
     677                      .dwattr $C$DW$41, DW_AT_type(*$C$DW$T$20)
     678              $C$DW$T$21      .dwtag  DW_TAG_volatile_type
     679                      .dwattr $C$DW$T$21, DW_AT_type(*$C$DW$41)
     680              $C$DW$T$22      .dwtag  DW_TAG_pointer_type
     681                      .dwattr $C$DW$T$22, DW_AT_type(*$C$DW$T$21)
     682                      .dwattr $C$DW$T$22, DW_AT_address_class(0x17)
     683              
     684              $C$DW$T$30      .dwtag  DW_TAG_structure_type
     685                      .dwattr $C$DW$T$30, DW_AT_name("xMINI_LIST_ITEM")
     686                      .dwattr $C$DW$T$30, DW_AT_byte_size(0x06)
     687              $C$DW$42        .dwtag  DW_TAG_member
     688                      .dwattr $C$DW$42, DW_AT_type(*$C$DW$T$26)
     689                      .dwattr $C$DW$42, DW_AT_name("xItemValue")
     690                      .dwattr $C$DW$42, DW_AT_TI_symbol_name("_xItemValue")
     691                      .dwattr $C$DW$42, DW_AT_data_member_location[DW_OP_plus_uconst 0x0]
     692                      .dwattr $C$DW$42, DW_AT_accessibility(DW_ACCESS_public)
     693              $C$DW$43        .dwtag  DW_TAG_member
     694                      .dwattr $C$DW$43, DW_AT_type(*$C$DW$T$28)
     695                      .dwattr $C$DW$43, DW_AT_name("pxNext")
     696                      .dwattr $C$DW$43, DW_AT_TI_symbol_name("_pxNext")
     697                      .dwattr $C$DW$43, DW_AT_data_member_location[DW_OP_plus_uconst 0x2]
     698                      .dwattr $C$DW$43, DW_AT_accessibility(DW_ACCESS_public)
     699              $C$DW$44        .dwtag  DW_TAG_member
     700                      .dwattr $C$DW$44, DW_AT_type(*$C$DW$T$28)
     701                      .dwattr $C$DW$44, DW_AT_name("pxPrevious")
     702                      .dwattr $C$DW$44, DW_AT_TI_symbol_name("_pxPrevious")
     703                      .dwattr $C$DW$44, DW_AT_data_member_location[DW_OP_plus_uconst 0x4]
     704                      .dwattr $C$DW$44, DW_AT_accessibility(DW_ACCESS_public)
     705                      .dwendtag $C$DW$T$30
     706              
     707              $C$DW$T$23      .dwtag  DW_TAG_typedef, DW_AT_name("xMiniListItem")
TMS320C55x Assembler PC v4.4.1 Fri Sep 07 01:41:52 2018

Tools Copyright (c) 1996-2012 Texas Instruments Incorporated
list.asm                                                             PAGE   16

     708                      .dwattr $C$DW$T$23, DW_AT_type(*$C$DW$T$30)
     709                      .dwattr $C$DW$T$23, DW_AT_language(DW_LANG_C)
     710              $C$DW$45        .dwtag  DW_TAG_TI_far_type
     711                      .dwattr $C$DW$45, DW_AT_type(*$C$DW$T$23)
     712              $C$DW$T$24      .dwtag  DW_TAG_volatile_type
     713                      .dwattr $C$DW$T$24, DW_AT_type(*$C$DW$45)
     714                      .dwattr $C$DW$CU, DW_AT_language(DW_LANG_C)
     715              
     716              ;***************************************************************
     717              ;* DWARF CIE ENTRIES                                           *
     718              ;***************************************************************
     719              
     720              $C$DW$CIE       .dwcie 91
     721                      .dwcfi  cfa_register, 36
     722                      .dwcfi  cfa_offset, 0
     723                      .dwcfi  undefined, 0
     724                      .dwcfi  undefined, 1
     725                      .dwcfi  undefined, 2
     726                      .dwcfi  undefined, 3
     727                      .dwcfi  undefined, 4
     728                      .dwcfi  undefined, 5
     729                      .dwcfi  undefined, 6
     730                      .dwcfi  undefined, 7
     731                      .dwcfi  undefined, 8
     732                      .dwcfi  undefined, 9
     733                      .dwcfi  undefined, 10
     734                      .dwcfi  undefined, 11
     735                      .dwcfi  undefined, 12
     736                      .dwcfi  undefined, 13
     737                      .dwcfi  same_value, 14
     738                      .dwcfi  same_value, 15
     739                      .dwcfi  undefined, 16
     740                      .dwcfi  undefined, 17
     741                      .dwcfi  undefined, 18
     742                      .dwcfi  undefined, 19
     743                      .dwcfi  undefined, 20
     744                      .dwcfi  undefined, 21
     745                      .dwcfi  undefined, 22
     746                      .dwcfi  undefined, 23
     747                      .dwcfi  undefined, 24
     748                      .dwcfi  undefined, 25
     749                      .dwcfi  same_value, 26
     750                      .dwcfi  same_value, 27
     751                      .dwcfi  same_value, 28
     752                      .dwcfi  same_value, 29
     753                      .dwcfi  same_value, 30
     754                      .dwcfi  same_value, 31
     755                      .dwcfi  undefined, 32
     756                      .dwcfi  undefined, 33
     757                      .dwcfi  undefined, 34
     758                      .dwcfi  undefined, 35
     759                      .dwcfi  undefined, 36
     760                      .dwcfi  undefined, 37
     761                      .dwcfi  undefined, 38
     762                      .dwcfi  undefined, 39
TMS320C55x Assembler PC v4.4.1 Fri Sep 07 01:41:52 2018

Tools Copyright (c) 1996-2012 Texas Instruments Incorporated
list.asm                                                             PAGE   17

     763                      .dwcfi  undefined, 40
     764                      .dwcfi  undefined, 41
     765                      .dwcfi  undefined, 42
     766                      .dwcfi  undefined, 43
     767                      .dwcfi  undefined, 44
     768                      .dwcfi  undefined, 45
     769                      .dwcfi  undefined, 46
     770                      .dwcfi  undefined, 47
     771                      .dwcfi  undefined, 48
     772                      .dwcfi  undefined, 49
     773                      .dwcfi  undefined, 50
     774                      .dwcfi  undefined, 51
     775                      .dwcfi  undefined, 52
     776                      .dwcfi  undefined, 53
     777                      .dwcfi  undefined, 54
     778                      .dwcfi  undefined, 55
     779                      .dwcfi  undefined, 56
     780                      .dwcfi  undefined, 57
     781                      .dwcfi  undefined, 58
     782                      .dwcfi  undefined, 59
     783                      .dwcfi  undefined, 60
     784                      .dwcfi  undefined, 61
     785                      .dwcfi  undefined, 62
     786                      .dwcfi  undefined, 63
     787                      .dwcfi  undefined, 64
     788                      .dwcfi  undefined, 65
     789                      .dwcfi  undefined, 66
     790                      .dwcfi  undefined, 67
     791                      .dwcfi  undefined, 68
     792                      .dwcfi  undefined, 69
     793                      .dwcfi  undefined, 70
     794                      .dwcfi  undefined, 71
     795                      .dwcfi  undefined, 72
     796                      .dwcfi  undefined, 73
     797                      .dwcfi  undefined, 74
     798                      .dwcfi  undefined, 75
     799                      .dwcfi  undefined, 76
     800                      .dwcfi  undefined, 77
     801                      .dwcfi  undefined, 78
     802                      .dwcfi  undefined, 79
     803                      .dwcfi  undefined, 80
     804                      .dwcfi  undefined, 81
     805                      .dwcfi  undefined, 82
     806                      .dwcfi  undefined, 83
     807                      .dwcfi  undefined, 84
     808                      .dwcfi  undefined, 85
     809                      .dwcfi  undefined, 86
     810                      .dwcfi  undefined, 87
     811                      .dwcfi  undefined, 88
     812                      .dwcfi  undefined, 89
     813                      .dwcfi  undefined, 90
     814                      .dwcfi  undefined, 91
     815                      .dwendentry
     816              
     817              ;***************************************************************
TMS320C55x Assembler PC v4.4.1 Fri Sep 07 01:41:52 2018

Tools Copyright (c) 1996-2012 Texas Instruments Incorporated
list.asm                                                             PAGE   18

     818              ;* DWARF REGISTER MAP                                          *
     819              ;***************************************************************
     820              
     821              $C$DW$46        .dwtag  DW_TAG_TI_assign_register, DW_AT_name("AC0")
     822                      .dwattr $C$DW$46, DW_AT_location[DW_OP_reg0]
     823              $C$DW$47        .dwtag  DW_TAG_TI_assign_register, DW_AT_name("AC0")
     824                      .dwattr $C$DW$47, DW_AT_location[DW_OP_reg1]
     825              $C$DW$48        .dwtag  DW_TAG_TI_assign_register, DW_AT_name("AC0_G")
     826                      .dwattr $C$DW$48, DW_AT_location[DW_OP_reg2]
     827              $C$DW$49        .dwtag  DW_TAG_TI_assign_register, DW_AT_name("AC1")
     828                      .dwattr $C$DW$49, DW_AT_location[DW_OP_reg3]
     829              $C$DW$50        .dwtag  DW_TAG_TI_assign_register, DW_AT_name("AC1")
     830                      .dwattr $C$DW$50, DW_AT_location[DW_OP_reg4]
     831              $C$DW$51        .dwtag  DW_TAG_TI_assign_register, DW_AT_name("AC1_G")
     832                      .dwattr $C$DW$51, DW_AT_location[DW_OP_reg5]
     833              $C$DW$52        .dwtag  DW_TAG_TI_assign_register, DW_AT_name("AC2")
     834                      .dwattr $C$DW$52, DW_AT_location[DW_OP_reg6]
     835              $C$DW$53        .dwtag  DW_TAG_TI_assign_register, DW_AT_name("AC2")
     836                      .dwattr $C$DW$53, DW_AT_location[DW_OP_reg7]
     837              $C$DW$54        .dwtag  DW_TAG_TI_assign_register, DW_AT_name("AC2_G")
     838                      .dwattr $C$DW$54, DW_AT_location[DW_OP_reg8]
     839              $C$DW$55        .dwtag  DW_TAG_TI_assign_register, DW_AT_name("AC3")
     840                      .dwattr $C$DW$55, DW_AT_location[DW_OP_reg9]
     841              $C$DW$56        .dwtag  DW_TAG_TI_assign_register, DW_AT_name("AC3")
     842                      .dwattr $C$DW$56, DW_AT_location[DW_OP_reg10]
     843              $C$DW$57        .dwtag  DW_TAG_TI_assign_register, DW_AT_name("AC3_G")
     844                      .dwattr $C$DW$57, DW_AT_location[DW_OP_reg11]
     845              $C$DW$58        .dwtag  DW_TAG_TI_assign_register, DW_AT_name("T0")
     846                      .dwattr $C$DW$58, DW_AT_location[DW_OP_reg12]
     847              $C$DW$59        .dwtag  DW_TAG_TI_assign_register, DW_AT_name("T1")
     848                      .dwattr $C$DW$59, DW_AT_location[DW_OP_reg13]
     849              $C$DW$60        .dwtag  DW_TAG_TI_assign_register, DW_AT_name("T2")
     850                      .dwattr $C$DW$60, DW_AT_location[DW_OP_reg14]
     851              $C$DW$61        .dwtag  DW_TAG_TI_assign_register, DW_AT_name("T3")
     852                      .dwattr $C$DW$61, DW_AT_location[DW_OP_reg15]
     853              $C$DW$62        .dwtag  DW_TAG_TI_assign_register, DW_AT_name("AR0")
     854                      .dwattr $C$DW$62, DW_AT_location[DW_OP_reg16]
     855              $C$DW$63        .dwtag  DW_TAG_TI_assign_register, DW_AT_name("XAR0")
     856                      .dwattr $C$DW$63, DW_AT_location[DW_OP_reg17]
     857              $C$DW$64        .dwtag  DW_TAG_TI_assign_register, DW_AT_name("AR1")
     858                      .dwattr $C$DW$64, DW_AT_location[DW_OP_reg18]
     859              $C$DW$65        .dwtag  DW_TAG_TI_assign_register, DW_AT_name("XAR1")
     860                      .dwattr $C$DW$65, DW_AT_location[DW_OP_reg19]
     861              $C$DW$66        .dwtag  DW_TAG_TI_assign_register, DW_AT_name("AR2")
     862                      .dwattr $C$DW$66, DW_AT_location[DW_OP_reg20]
     863              $C$DW$67        .dwtag  DW_TAG_TI_assign_register, DW_AT_name("XAR2")
     864                      .dwattr $C$DW$67, DW_AT_location[DW_OP_reg21]
     865              $C$DW$68        .dwtag  DW_TAG_TI_assign_register, DW_AT_name("AR3")
     866                      .dwattr $C$DW$68, DW_AT_location[DW_OP_reg22]
     867              $C$DW$69        .dwtag  DW_TAG_TI_assign_register, DW_AT_name("XAR3")
     868                      .dwattr $C$DW$69, DW_AT_location[DW_OP_reg23]
     869              $C$DW$70        .dwtag  DW_TAG_TI_assign_register, DW_AT_name("AR4")
     870                      .dwattr $C$DW$70, DW_AT_location[DW_OP_reg24]
     871              $C$DW$71        .dwtag  DW_TAG_TI_assign_register, DW_AT_name("XAR4")
     872                      .dwattr $C$DW$71, DW_AT_location[DW_OP_reg25]
TMS320C55x Assembler PC v4.4.1 Fri Sep 07 01:41:52 2018

Tools Copyright (c) 1996-2012 Texas Instruments Incorporated
list.asm                                                             PAGE   19

     873              $C$DW$72        .dwtag  DW_TAG_TI_assign_register, DW_AT_name("AR5")
     874                      .dwattr $C$DW$72, DW_AT_location[DW_OP_reg26]
     875              $C$DW$73        .dwtag  DW_TAG_TI_assign_register, DW_AT_name("XAR5")
     876                      .dwattr $C$DW$73, DW_AT_location[DW_OP_reg27]
     877              $C$DW$74        .dwtag  DW_TAG_TI_assign_register, DW_AT_name("AR6")
     878                      .dwattr $C$DW$74, DW_AT_location[DW_OP_reg28]
     879              $C$DW$75        .dwtag  DW_TAG_TI_assign_register, DW_AT_name("XAR6")
     880                      .dwattr $C$DW$75, DW_AT_location[DW_OP_reg29]
     881              $C$DW$76        .dwtag  DW_TAG_TI_assign_register, DW_AT_name("AR7")
     882                      .dwattr $C$DW$76, DW_AT_location[DW_OP_reg30]
     883              $C$DW$77        .dwtag  DW_TAG_TI_assign_register, DW_AT_name("XAR7")
     884                      .dwattr $C$DW$77, DW_AT_location[DW_OP_reg31]
     885              $C$DW$78        .dwtag  DW_TAG_TI_assign_register, DW_AT_name("FP")
     886                      .dwattr $C$DW$78, DW_AT_location[DW_OP_regx 0x20]
     887              $C$DW$79        .dwtag  DW_TAG_TI_assign_register, DW_AT_name("XFP")
     888                      .dwattr $C$DW$79, DW_AT_location[DW_OP_regx 0x21]
     889              $C$DW$80        .dwtag  DW_TAG_TI_assign_register, DW_AT_name("PC")
     890                      .dwattr $C$DW$80, DW_AT_location[DW_OP_regx 0x22]
     891              $C$DW$81        .dwtag  DW_TAG_TI_assign_register, DW_AT_name("SP")
     892                      .dwattr $C$DW$81, DW_AT_location[DW_OP_regx 0x23]
     893              $C$DW$82        .dwtag  DW_TAG_TI_assign_register, DW_AT_name("XSP")
     894                      .dwattr $C$DW$82, DW_AT_location[DW_OP_regx 0x24]
     895              $C$DW$83        .dwtag  DW_TAG_TI_assign_register, DW_AT_name("BKC")
     896                      .dwattr $C$DW$83, DW_AT_location[DW_OP_regx 0x25]
     897              $C$DW$84        .dwtag  DW_TAG_TI_assign_register, DW_AT_name("BK03")
     898                      .dwattr $C$DW$84, DW_AT_location[DW_OP_regx 0x26]
     899              $C$DW$85        .dwtag  DW_TAG_TI_assign_register, DW_AT_name("BK47")
     900                      .dwattr $C$DW$85, DW_AT_location[DW_OP_regx 0x27]
     901              $C$DW$86        .dwtag  DW_TAG_TI_assign_register, DW_AT_name("ST0")
     902                      .dwattr $C$DW$86, DW_AT_location[DW_OP_regx 0x28]
     903              $C$DW$87        .dwtag  DW_TAG_TI_assign_register, DW_AT_name("ST1")
     904                      .dwattr $C$DW$87, DW_AT_location[DW_OP_regx 0x29]
     905              $C$DW$88        .dwtag  DW_TAG_TI_assign_register, DW_AT_name("ST2")
     906                      .dwattr $C$DW$88, DW_AT_location[DW_OP_regx 0x2a]
     907              $C$DW$89        .dwtag  DW_TAG_TI_assign_register, DW_AT_name("ST3")
     908                      .dwattr $C$DW$89, DW_AT_location[DW_OP_regx 0x2b]
     909              $C$DW$90        .dwtag  DW_TAG_TI_assign_register, DW_AT_name("MDP")
     910                      .dwattr $C$DW$90, DW_AT_location[DW_OP_regx 0x2c]
     911              $C$DW$91        .dwtag  DW_TAG_TI_assign_register, DW_AT_name("MDP05")
     912                      .dwattr $C$DW$91, DW_AT_location[DW_OP_regx 0x2d]
     913              $C$DW$92        .dwtag  DW_TAG_TI_assign_register, DW_AT_name("MDP67")
     914                      .dwattr $C$DW$92, DW_AT_location[DW_OP_regx 0x2e]
     915              $C$DW$93        .dwtag  DW_TAG_TI_assign_register, DW_AT_name("BRC0")
     916                      .dwattr $C$DW$93, DW_AT_location[DW_OP_regx 0x2f]
     917              $C$DW$94        .dwtag  DW_TAG_TI_assign_register, DW_AT_name("RSA0")
     918                      .dwattr $C$DW$94, DW_AT_location[DW_OP_regx 0x30]
     919              $C$DW$95        .dwtag  DW_TAG_TI_assign_register, DW_AT_name("RSA0_H")
     920                      .dwattr $C$DW$95, DW_AT_location[DW_OP_regx 0x31]
     921              $C$DW$96        .dwtag  DW_TAG_TI_assign_register, DW_AT_name("REA0")
     922                      .dwattr $C$DW$96, DW_AT_location[DW_OP_regx 0x32]
     923              $C$DW$97        .dwtag  DW_TAG_TI_assign_register, DW_AT_name("REA0_H")
     924                      .dwattr $C$DW$97, DW_AT_location[DW_OP_regx 0x33]
     925              $C$DW$98        .dwtag  DW_TAG_TI_assign_register, DW_AT_name("BRS1")
     926                      .dwattr $C$DW$98, DW_AT_location[DW_OP_regx 0x34]
     927              $C$DW$99        .dwtag  DW_TAG_TI_assign_register, DW_AT_name("BRC1")
TMS320C55x Assembler PC v4.4.1 Fri Sep 07 01:41:52 2018

Tools Copyright (c) 1996-2012 Texas Instruments Incorporated
list.asm                                                             PAGE   20

     928                      .dwattr $C$DW$99, DW_AT_location[DW_OP_regx 0x35]
     929              $C$DW$100       .dwtag  DW_TAG_TI_assign_register, DW_AT_name("RSA1")
     930                      .dwattr $C$DW$100, DW_AT_location[DW_OP_regx 0x36]
     931              $C$DW$101       .dwtag  DW_TAG_TI_assign_register, DW_AT_name("RSA1_H")
     932                      .dwattr $C$DW$101, DW_AT_location[DW_OP_regx 0x37]
     933              $C$DW$102       .dwtag  DW_TAG_TI_assign_register, DW_AT_name("REA1")
     934                      .dwattr $C$DW$102, DW_AT_location[DW_OP_regx 0x38]
     935              $C$DW$103       .dwtag  DW_TAG_TI_assign_register, DW_AT_name("REA1_H")
     936                      .dwattr $C$DW$103, DW_AT_location[DW_OP_regx 0x39]
     937              $C$DW$104       .dwtag  DW_TAG_TI_assign_register, DW_AT_name("CSR")
     938                      .dwattr $C$DW$104, DW_AT_location[DW_OP_regx 0x3a]
     939              $C$DW$105       .dwtag  DW_TAG_TI_assign_register, DW_AT_name("RPTC")
     940                      .dwattr $C$DW$105, DW_AT_location[DW_OP_regx 0x3b]
     941              $C$DW$106       .dwtag  DW_TAG_TI_assign_register, DW_AT_name("CDP")
     942                      .dwattr $C$DW$106, DW_AT_location[DW_OP_regx 0x3c]
     943              $C$DW$107       .dwtag  DW_TAG_TI_assign_register, DW_AT_name("XCDP")
     944                      .dwattr $C$DW$107, DW_AT_location[DW_OP_regx 0x3d]
     945              $C$DW$108       .dwtag  DW_TAG_TI_assign_register, DW_AT_name("TRN0")
     946                      .dwattr $C$DW$108, DW_AT_location[DW_OP_regx 0x3e]
     947              $C$DW$109       .dwtag  DW_TAG_TI_assign_register, DW_AT_name("TRN1")
     948                      .dwattr $C$DW$109, DW_AT_location[DW_OP_regx 0x3f]
     949              $C$DW$110       .dwtag  DW_TAG_TI_assign_register, DW_AT_name("BSA01")
     950                      .dwattr $C$DW$110, DW_AT_location[DW_OP_regx 0x40]
     951              $C$DW$111       .dwtag  DW_TAG_TI_assign_register, DW_AT_name("BSA23")
     952                      .dwattr $C$DW$111, DW_AT_location[DW_OP_regx 0x41]
     953              $C$DW$112       .dwtag  DW_TAG_TI_assign_register, DW_AT_name("BSA45")
     954                      .dwattr $C$DW$112, DW_AT_location[DW_OP_regx 0x42]
     955              $C$DW$113       .dwtag  DW_TAG_TI_assign_register, DW_AT_name("BSA67")
     956                      .dwattr $C$DW$113, DW_AT_location[DW_OP_regx 0x43]
     957              $C$DW$114       .dwtag  DW_TAG_TI_assign_register, DW_AT_name("BSAC")
     958                      .dwattr $C$DW$114, DW_AT_location[DW_OP_regx 0x44]
     959              $C$DW$115       .dwtag  DW_TAG_TI_assign_register, DW_AT_name("CARRY")
     960                      .dwattr $C$DW$115, DW_AT_location[DW_OP_regx 0x45]
     961              $C$DW$116       .dwtag  DW_TAG_TI_assign_register, DW_AT_name("TC1")
     962                      .dwattr $C$DW$116, DW_AT_location[DW_OP_regx 0x46]
     963              $C$DW$117       .dwtag  DW_TAG_TI_assign_register, DW_AT_name("TC2")
     964                      .dwattr $C$DW$117, DW_AT_location[DW_OP_regx 0x47]
     965              $C$DW$118       .dwtag  DW_TAG_TI_assign_register, DW_AT_name("M40")
     966                      .dwattr $C$DW$118, DW_AT_location[DW_OP_regx 0x48]
     967              $C$DW$119       .dwtag  DW_TAG_TI_assign_register, DW_AT_name("SXMD")
     968                      .dwattr $C$DW$119, DW_AT_location[DW_OP_regx 0x49]
     969              $C$DW$120       .dwtag  DW_TAG_TI_assign_register, DW_AT_name("ARMS")
     970                      .dwattr $C$DW$120, DW_AT_location[DW_OP_regx 0x4a]
     971              $C$DW$121       .dwtag  DW_TAG_TI_assign_register, DW_AT_name("C54CM")
     972                      .dwattr $C$DW$121, DW_AT_location[DW_OP_regx 0x4b]
     973              $C$DW$122       .dwtag  DW_TAG_TI_assign_register, DW_AT_name("SATA")
     974                      .dwattr $C$DW$122, DW_AT_location[DW_OP_regx 0x4c]
     975              $C$DW$123       .dwtag  DW_TAG_TI_assign_register, DW_AT_name("SATD")
     976                      .dwattr $C$DW$123, DW_AT_location[DW_OP_regx 0x4d]
     977              $C$DW$124       .dwtag  DW_TAG_TI_assign_register, DW_AT_name("RDM")
     978                      .dwattr $C$DW$124, DW_AT_location[DW_OP_regx 0x4e]
     979              $C$DW$125       .dwtag  DW_TAG_TI_assign_register, DW_AT_name("FRCT")
     980                      .dwattr $C$DW$125, DW_AT_location[DW_OP_regx 0x4f]
     981              $C$DW$126       .dwtag  DW_TAG_TI_assign_register, DW_AT_name("SMUL")
     982                      .dwattr $C$DW$126, DW_AT_location[DW_OP_regx 0x50]
TMS320C55x Assembler PC v4.4.1 Fri Sep 07 01:41:52 2018

Tools Copyright (c) 1996-2012 Texas Instruments Incorporated
list.asm                                                             PAGE   21

     983              $C$DW$127       .dwtag  DW_TAG_TI_assign_register, DW_AT_name("INTM")
     984                      .dwattr $C$DW$127, DW_AT_location[DW_OP_regx 0x51]
     985              $C$DW$128       .dwtag  DW_TAG_TI_assign_register, DW_AT_name("AR0LC")
     986                      .dwattr $C$DW$128, DW_AT_location[DW_OP_regx 0x52]
     987              $C$DW$129       .dwtag  DW_TAG_TI_assign_register, DW_AT_name("AR1LC")
     988                      .dwattr $C$DW$129, DW_AT_location[DW_OP_regx 0x53]
     989              $C$DW$130       .dwtag  DW_TAG_TI_assign_register, DW_AT_name("AR2LC")
     990                      .dwattr $C$DW$130, DW_AT_location[DW_OP_regx 0x54]
     991              $C$DW$131       .dwtag  DW_TAG_TI_assign_register, DW_AT_name("AR3LC")
     992                      .dwattr $C$DW$131, DW_AT_location[DW_OP_regx 0x55]
     993              $C$DW$132       .dwtag  DW_TAG_TI_assign_register, DW_AT_name("AR4LC")
     994                      .dwattr $C$DW$132, DW_AT_location[DW_OP_regx 0x56]
     995              $C$DW$133       .dwtag  DW_TAG_TI_assign_register, DW_AT_name("AR5LC")
     996                      .dwattr $C$DW$133, DW_AT_location[DW_OP_regx 0x57]
     997              $C$DW$134       .dwtag  DW_TAG_TI_assign_register, DW_AT_name("AR6LC")
     998                      .dwattr $C$DW$134, DW_AT_location[DW_OP_regx 0x58]
     999              $C$DW$135       .dwtag  DW_TAG_TI_assign_register, DW_AT_name("AR7LC")
    1000                      .dwattr $C$DW$135, DW_AT_location[DW_OP_regx 0x59]
    1001              $C$DW$136       .dwtag  DW_TAG_TI_assign_register, DW_AT_name("CDPLC")
    1002                      .dwattr $C$DW$136, DW_AT_location[DW_OP_regx 0x5a]
    1003              $C$DW$137       .dwtag  DW_TAG_TI_assign_register, DW_AT_name("CIE_RETA")
    1004                      .dwattr $C$DW$137, DW_AT_location[DW_OP_regx 0x5b]
    1005                      .dwendtag $C$DW$CU
    1006              
    1006              
    1006              

No Assembly Errors, No Assembly Warnings
