TMS320C55x Assembler PC v4.4.1 Sat Sep 08 07:38:04 2018

Tools Copyright (c) 1996-2012 Texas Instruments Incorporated
stream_buffer.asm                                                    PAGE    1

    3896              ; Temporary Registers Used: None
       1              ;*******************************************************************************
       2              ;* TMS320C55x C/C++ Codegen                                          PC v4.4.1 *
       3              ;* Date/Time created: Sat Sep 08 07:38:02 2018                                 *
       4              ;*******************************************************************************
       5                      .compiler_opts --hll_source=on --mem_model:code=flat --mem_model:data=large --object_format=coff --si
       6                      .mmregs
       7                      .cpl_on
       8                      .arms_on
       9                      .c54cm_off
      10                      .asg AR6, FP
      11                      .asg XAR6, XFP
      12                      .asg DPH, MDP
      13                      .model call=c55_std
      14                      .model mem=large
      15                      .noremark 5002  ; code respects overwrite rules
      16              ;*******************************************************************************
      17              ;* GLOBAL FILE PARAMETERS                                                      *
      18              ;*                                                                             *
      19              ;*   Architecture       : TMS320C55x                                           *
      20              ;*   Optimizing for     : Speed                                                *
      21              ;*   Memory             : Large Model (23-Bit Data Pointers)                   *
      22              ;*   Calls              : Normal Library ASM calls                             *
      23              ;*   Debug Info         : Standard TI Debug Information                        *
      24              ;*******************************************************************************
      25              
      26              $C$DW$CU        .dwtag  DW_TAG_compile_unit
      27                      .dwattr $C$DW$CU, DW_AT_name("../FreeRTOS/Source/stream_buffer.c")
      28                      .dwattr $C$DW$CU, DW_AT_producer("TMS320C55x C/C++ Codegen PC v4.4.1 Copyright (c) 1996-2012 Texas In
      29                      .dwattr $C$DW$CU, DW_AT_TI_version(0x01)
      30                      .dwattr $C$DW$CU, DW_AT_comp_dir("F:\eZdsp_C55x_FreeRTOS_Port\eZDSP\eZDSP_5535_Files\ccsws2\test\Debu
      31              
      32              $C$DW$1 .dwtag  DW_TAG_subprogram, DW_AT_name("memcpy")
      33                      .dwattr $C$DW$1, DW_AT_TI_symbol_name("_memcpy")
      34                      .dwattr $C$DW$1, DW_AT_type(*$C$DW$T$3)
      35                      .dwattr $C$DW$1, DW_AT_declaration
      36                      .dwattr $C$DW$1, DW_AT_external
      37              $C$DW$2 .dwtag  DW_TAG_formal_parameter
      38                      .dwattr $C$DW$2, DW_AT_type(*$C$DW$T$3)
      39              $C$DW$3 .dwtag  DW_TAG_formal_parameter
      40                      .dwattr $C$DW$3, DW_AT_type(*$C$DW$T$43)
      41              $C$DW$4 .dwtag  DW_TAG_formal_parameter
      42                      .dwattr $C$DW$4, DW_AT_type(*$C$DW$T$20)
      43                      .dwendtag $C$DW$1
      44              
      45              
      46              $C$DW$5 .dwtag  DW_TAG_subprogram, DW_AT_name("memset")
      47                      .dwattr $C$DW$5, DW_AT_TI_symbol_name("_memset")
      48                      .dwattr $C$DW$5, DW_AT_type(*$C$DW$T$3)
      49                      .dwattr $C$DW$5, DW_AT_declaration
      50                      .dwattr $C$DW$5, DW_AT_external
      51              $C$DW$6 .dwtag  DW_TAG_formal_parameter
      52                      .dwattr $C$DW$6, DW_AT_type(*$C$DW$T$3)
      53              $C$DW$7 .dwtag  DW_TAG_formal_parameter
      54                      .dwattr $C$DW$7, DW_AT_type(*$C$DW$T$10)
TMS320C55x Assembler PC v4.4.1 Sat Sep 08 07:38:04 2018

Tools Copyright (c) 1996-2012 Texas Instruments Incorporated
stream_buffer.asm                                                    PAGE    2

      55              $C$DW$8 .dwtag  DW_TAG_formal_parameter
      56                      .dwattr $C$DW$8, DW_AT_type(*$C$DW$T$20)
      57                      .dwendtag $C$DW$5
      58              
      59              
      60              $C$DW$9 .dwtag  DW_TAG_subprogram, DW_AT_name("pvPortMalloc")
      61                      .dwattr $C$DW$9, DW_AT_TI_symbol_name("_pvPortMalloc")
      62                      .dwattr $C$DW$9, DW_AT_type(*$C$DW$T$3)
      63                      .dwattr $C$DW$9, DW_AT_declaration
      64                      .dwattr $C$DW$9, DW_AT_external
      65              $C$DW$10        .dwtag  DW_TAG_formal_parameter
      66                      .dwattr $C$DW$10, DW_AT_type(*$C$DW$T$20)
      67                      .dwendtag $C$DW$9
      68              
      69              
      70              $C$DW$11        .dwtag  DW_TAG_subprogram, DW_AT_name("vPortFree")
      71                      .dwattr $C$DW$11, DW_AT_TI_symbol_name("_vPortFree")
      72                      .dwattr $C$DW$11, DW_AT_declaration
      73                      .dwattr $C$DW$11, DW_AT_external
      74              $C$DW$12        .dwtag  DW_TAG_formal_parameter
      75                      .dwattr $C$DW$12, DW_AT_type(*$C$DW$T$3)
      76                      .dwendtag $C$DW$11
      77              
      78              
      79              $C$DW$13        .dwtag  DW_TAG_subprogram, DW_AT_name("vTaskSuspendAll")
      80                      .dwattr $C$DW$13, DW_AT_TI_symbol_name("_vTaskSuspendAll")
      81                      .dwattr $C$DW$13, DW_AT_declaration
      82                      .dwattr $C$DW$13, DW_AT_external
      83              
      84              $C$DW$14        .dwtag  DW_TAG_subprogram, DW_AT_name("xTaskResumeAll")
      85                      .dwattr $C$DW$14, DW_AT_TI_symbol_name("_xTaskResumeAll")
      86                      .dwattr $C$DW$14, DW_AT_type(*$C$DW$T$28)
      87                      .dwattr $C$DW$14, DW_AT_declaration
      88                      .dwattr $C$DW$14, DW_AT_external
      89              
      90              $C$DW$15        .dwtag  DW_TAG_subprogram, DW_AT_name("xTaskGenericNotify")
      91                      .dwattr $C$DW$15, DW_AT_TI_symbol_name("_xTaskGenericNotify")
      92                      .dwattr $C$DW$15, DW_AT_type(*$C$DW$T$28)
      93                      .dwattr $C$DW$15, DW_AT_declaration
      94                      .dwattr $C$DW$15, DW_AT_external
      95              $C$DW$16        .dwtag  DW_TAG_formal_parameter
      96                      .dwattr $C$DW$16, DW_AT_type(*$C$DW$T$23)
      97              $C$DW$17        .dwtag  DW_TAG_formal_parameter
      98                      .dwattr $C$DW$17, DW_AT_type(*$C$DW$T$66)
      99              $C$DW$18        .dwtag  DW_TAG_formal_parameter
     100                      .dwattr $C$DW$18, DW_AT_type(*$C$DW$T$32)
     101              $C$DW$19        .dwtag  DW_TAG_formal_parameter
     102                      .dwattr $C$DW$19, DW_AT_type(*$C$DW$T$67)
     103                      .dwendtag $C$DW$15
     104              
     105              
     106              $C$DW$20        .dwtag  DW_TAG_subprogram, DW_AT_name("xTaskGenericNotifyFromISR")
     107                      .dwattr $C$DW$20, DW_AT_TI_symbol_name("_xTaskGenericNotifyFromISR")
     108                      .dwattr $C$DW$20, DW_AT_type(*$C$DW$T$28)
     109                      .dwattr $C$DW$20, DW_AT_declaration
TMS320C55x Assembler PC v4.4.1 Sat Sep 08 07:38:04 2018

Tools Copyright (c) 1996-2012 Texas Instruments Incorporated
stream_buffer.asm                                                    PAGE    3

     110                      .dwattr $C$DW$20, DW_AT_external
     111              $C$DW$21        .dwtag  DW_TAG_formal_parameter
     112                      .dwattr $C$DW$21, DW_AT_type(*$C$DW$T$23)
     113              $C$DW$22        .dwtag  DW_TAG_formal_parameter
     114                      .dwattr $C$DW$22, DW_AT_type(*$C$DW$T$66)
     115              $C$DW$23        .dwtag  DW_TAG_formal_parameter
     116                      .dwattr $C$DW$23, DW_AT_type(*$C$DW$T$32)
     117              $C$DW$24        .dwtag  DW_TAG_formal_parameter
     118                      .dwattr $C$DW$24, DW_AT_type(*$C$DW$T$67)
     119              $C$DW$25        .dwtag  DW_TAG_formal_parameter
     120                      .dwattr $C$DW$25, DW_AT_type(*$C$DW$T$70)
     121                      .dwendtag $C$DW$20
     122              
     123              
     124              $C$DW$26        .dwtag  DW_TAG_subprogram, DW_AT_name("xTaskNotifyWait")
     125                      .dwattr $C$DW$26, DW_AT_TI_symbol_name("_xTaskNotifyWait")
     126                      .dwattr $C$DW$26, DW_AT_type(*$C$DW$T$28)
     127                      .dwattr $C$DW$26, DW_AT_declaration
     128                      .dwattr $C$DW$26, DW_AT_external
     129              $C$DW$27        .dwtag  DW_TAG_formal_parameter
     130                      .dwattr $C$DW$27, DW_AT_type(*$C$DW$T$66)
     131              $C$DW$28        .dwtag  DW_TAG_formal_parameter
     132                      .dwattr $C$DW$28, DW_AT_type(*$C$DW$T$66)
     133              $C$DW$29        .dwtag  DW_TAG_formal_parameter
     134                      .dwattr $C$DW$29, DW_AT_type(*$C$DW$T$67)
     135              $C$DW$30        .dwtag  DW_TAG_formal_parameter
     136                      .dwattr $C$DW$30, DW_AT_type(*$C$DW$T$29)
     137                      .dwendtag $C$DW$26
     138              
     139              
     140              $C$DW$31        .dwtag  DW_TAG_subprogram, DW_AT_name("xTaskNotifyStateClear")
     141                      .dwattr $C$DW$31, DW_AT_TI_symbol_name("_xTaskNotifyStateClear")
     142                      .dwattr $C$DW$31, DW_AT_type(*$C$DW$T$28)
     143                      .dwattr $C$DW$31, DW_AT_declaration
     144                      .dwattr $C$DW$31, DW_AT_external
     145              $C$DW$32        .dwtag  DW_TAG_formal_parameter
     146                      .dwattr $C$DW$32, DW_AT_type(*$C$DW$T$23)
     147                      .dwendtag $C$DW$31
     148              
     149              
     150              $C$DW$33        .dwtag  DW_TAG_subprogram, DW_AT_name("xTaskGetCurrentTaskHandle")
     151                      .dwattr $C$DW$33, DW_AT_TI_symbol_name("_xTaskGetCurrentTaskHandle")
     152                      .dwattr $C$DW$33, DW_AT_type(*$C$DW$T$23)
     153                      .dwattr $C$DW$33, DW_AT_declaration
     154                      .dwattr $C$DW$33, DW_AT_external
     155              
     156              $C$DW$34        .dwtag  DW_TAG_subprogram, DW_AT_name("vTaskSetTimeOutState")
     157                      .dwattr $C$DW$34, DW_AT_TI_symbol_name("_vTaskSetTimeOutState")
     158                      .dwattr $C$DW$34, DW_AT_declaration
     159                      .dwattr $C$DW$34, DW_AT_external
     160              $C$DW$35        .dwtag  DW_TAG_formal_parameter
     161                      .dwattr $C$DW$35, DW_AT_type(*$C$DW$T$55)
     162                      .dwendtag $C$DW$34
     163              
     164              
TMS320C55x Assembler PC v4.4.1 Sat Sep 08 07:38:04 2018

Tools Copyright (c) 1996-2012 Texas Instruments Incorporated
stream_buffer.asm                                                    PAGE    4

     165              $C$DW$36        .dwtag  DW_TAG_subprogram, DW_AT_name("xTaskCheckForTimeOut")
     166                      .dwattr $C$DW$36, DW_AT_TI_symbol_name("_xTaskCheckForTimeOut")
     167                      .dwattr $C$DW$36, DW_AT_type(*$C$DW$T$28)
     168                      .dwattr $C$DW$36, DW_AT_declaration
     169                      .dwattr $C$DW$36, DW_AT_external
     170              $C$DW$37        .dwtag  DW_TAG_formal_parameter
     171                      .dwattr $C$DW$37, DW_AT_type(*$C$DW$T$55)
     172              $C$DW$38        .dwtag  DW_TAG_formal_parameter
     173                      .dwattr $C$DW$38, DW_AT_type(*$C$DW$T$79)
     174                      .dwendtag $C$DW$36
     175              
     176              $C$DW$39        .dwtag  DW_TAG_variable, DW_AT_name("usCriticalNesting")
     177                      .dwattr $C$DW$39, DW_AT_TI_symbol_name("_usCriticalNesting")
     178                      .dwattr $C$DW$39, DW_AT_type(*$C$DW$T$86)
     179                      .dwattr $C$DW$39, DW_AT_declaration
     180                      .dwattr $C$DW$39, DW_AT_external
     181              ;       F:\TI_CCS_7P4\ccsv7\tools\compiler\c5500_4.4.1\bin\acp55.exe -@f:\\AppData\\Local\\Temp\\0766812 
     182 000000               .sect   ".text"
     183                      .align 4
     184                      .global _xStreamBufferGenericCreate
     185              
     186              $C$DW$40        .dwtag  DW_TAG_subprogram, DW_AT_name("xStreamBufferGenericCreate")
     187                      .dwattr $C$DW$40, DW_AT_low_pc(_xStreamBufferGenericCreate)
     188                      .dwattr $C$DW$40, DW_AT_high_pc(0x00)
     189                      .dwattr $C$DW$40, DW_AT_TI_symbol_name("_xStreamBufferGenericCreate")
     190                      .dwattr $C$DW$40, DW_AT_external
     191                      .dwattr $C$DW$40, DW_AT_type(*$C$DW$T$40)
     192                      .dwattr $C$DW$40, DW_AT_TI_begin_file("../FreeRTOS/Source/stream_buffer.c")
     193                      .dwattr $C$DW$40, DW_AT_TI_begin_line(0xdb)
     194                      .dwattr $C$DW$40, DW_AT_TI_begin_column(0x17)
     195                      .dwattr $C$DW$40, DW_AT_TI_max_frame_size(0x08)
     196                      .dwpsn  file "../FreeRTOS/Source/stream_buffer.c",line 220,column 2,is_stmt,address _xStreamBufferGen
     197              
     198                      .dwfde $C$DW$CIE, _xStreamBufferGenericCreate
     199              $C$DW$41        .dwtag  DW_TAG_formal_parameter, DW_AT_name("xBufferSizeBytes")
     200                      .dwattr $C$DW$41, DW_AT_TI_symbol_name("_xBufferSizeBytes")
     201                      .dwattr $C$DW$41, DW_AT_type(*$C$DW$T$20)
     202                      .dwattr $C$DW$41, DW_AT_location[DW_OP_reg12]
     203              $C$DW$42        .dwtag  DW_TAG_formal_parameter, DW_AT_name("xTriggerLevelBytes")
     204                      .dwattr $C$DW$42, DW_AT_TI_symbol_name("_xTriggerLevelBytes")
     205                      .dwattr $C$DW$42, DW_AT_type(*$C$DW$T$20)
     206                      .dwattr $C$DW$42, DW_AT_location[DW_OP_reg13]
     207              $C$DW$43        .dwtag  DW_TAG_formal_parameter, DW_AT_name("xIsMessageBuffer")
     208                      .dwattr $C$DW$43, DW_AT_TI_symbol_name("_xIsMessageBuffer")
     209                      .dwattr $C$DW$43, DW_AT_type(*$C$DW$T$28)
     210                      .dwattr $C$DW$43, DW_AT_location[DW_OP_reg16]
     211              ;*******************************************************************************
     212              ;* FUNCTION NAME: xStreamBufferGenericCreate                                   *
     213              ;*                                                                             *
     214              ;*   Function Uses Regs : AC0,AC0,T0,T1,AR0,XAR0,AR1,XAR1,AR2,AR3,XAR3,SP,     *
     215              ;*                        CARRY,TC1,M40,SATA,SATD,RDM,FRCT,SMUL                *
     216              ;*   Stack Frame        : Compact (No Frame Pointer, w/ debug)                 *
     217              ;*   Total Frame Size   : 8 words                                              *
     218              ;*                        (1 return address/alignment)                         *
     219              ;*                        (7 local values)                                     *
TMS320C55x Assembler PC v4.4.1 Sat Sep 08 07:38:04 2018

Tools Copyright (c) 1996-2012 Texas Instruments Incorporated
stream_buffer.asm                                                    PAGE    5

     220              ;*   Min System Stack   : 1 word                                               *
     221              ;*******************************************************************************
     222 000000       _xStreamBufferGenericCreate:
     223                      .dwcfi  cfa_offset, 1
     224                      .dwcfi  save_reg_to_mem, 91, -1
     225 000000 4EF9          AADD #-7, SP
     226                      .dwcfi  cfa_offset, 8
     227              $C$DW$44        .dwtag  DW_TAG_variable, DW_AT_name("xBufferSizeBytes")
     228                      .dwattr $C$DW$44, DW_AT_TI_symbol_name("_xBufferSizeBytes")
     229                      .dwattr $C$DW$44, DW_AT_type(*$C$DW$T$20)
     230                      .dwattr $C$DW$44, DW_AT_location[DW_OP_bregx 0x24 0]
     231              $C$DW$45        .dwtag  DW_TAG_variable, DW_AT_name("xTriggerLevelBytes")
     232                      .dwattr $C$DW$45, DW_AT_TI_symbol_name("_xTriggerLevelBytes")
     233                      .dwattr $C$DW$45, DW_AT_type(*$C$DW$T$20)
     234                      .dwattr $C$DW$45, DW_AT_location[DW_OP_bregx 0x24 1]
     235              $C$DW$46        .dwtag  DW_TAG_variable, DW_AT_name("xIsMessageBuffer")
     236                      .dwattr $C$DW$46, DW_AT_TI_symbol_name("_xIsMessageBuffer")
     237                      .dwattr $C$DW$46, DW_AT_type(*$C$DW$T$28)
     238                      .dwattr $C$DW$46, DW_AT_location[DW_OP_bregx 0x24 2]
     239              $C$DW$47        .dwtag  DW_TAG_variable, DW_AT_name("pucAllocatedMemory")
     240                      .dwattr $C$DW$47, DW_AT_TI_symbol_name("_pucAllocatedMemory")
     241                      .dwattr $C$DW$47, DW_AT_type(*$C$DW$T$26)
     242                      .dwattr $C$DW$47, DW_AT_location[DW_OP_bregx 0x24 4]
     243              $C$DW$48        .dwtag  DW_TAG_variable, DW_AT_name("ucFlags")
     244                      .dwattr $C$DW$48, DW_AT_TI_symbol_name("_ucFlags")
     245                      .dwattr $C$DW$48, DW_AT_type(*$C$DW$T$25)
     246                      .dwattr $C$DW$48, DW_AT_location[DW_OP_bregx 0x24 6]
     247 000002 C804          MOV AR0, *SP(#2) ; |220| 
     248 000004 C502          MOV T1, *SP(#1) ; |220| 
     249 000006 C400          MOV T0, *SP(#0) ; |220| 
     250                      .dwpsn  file "../FreeRTOS/Source/stream_buffer.c",line 228,column 3,is_stmt
     251 000008 F004          CMP *SP(#2) == #1, TC1 ; |228| 
         00000a 0001 
     252 00000c 62F4          BCC $C$L1,!TC1 ; |228| 
     253                                                      ; branchcc occurs ; |228| 
     254                      .dwpsn  file "../FreeRTOS/Source/stream_buffer.c",line 231,column 4,is_stmt
     255 00000e E60C          MOV #1, *SP(#6) ; |231| 
         000010 01   
     256                      .dwpsn  file "../FreeRTOS/Source/stream_buffer.c",line 233,column 3,is_stmt
     257 000011 4A03          B $C$L2   ; |233| 
     258                                                      ; branch occurs ; |233| 
     259 000013       $C$L1:    
     260                      .dwpsn  file "../FreeRTOS/Source/stream_buffer.c",line 237,column 4,is_stmt
     261 000013 E60C          MOV #0, *SP(#6) ; |237| 
         000015 00   
     262 000016       $C$L2:    
     263                      .dwpsn  file "../FreeRTOS/Source/stream_buffer.c",line 244,column 3,is_stmt
     264 000016 A902          MOV *SP(#1), AR1 ; |244| 
     265 000018 6199          BCC $C$L3,AR1 != #0 ; |244| 
     266                                                      ; branchcc occurs ; |244| 
     267                      .dwpsn  file "../FreeRTOS/Source/stream_buffer.c",line 246,column 4,is_stmt
     268 00001a E602          MOV #1, *SP(#1) ; |246| 
         00001c 01   
     269 00001d       $C$L3:    
     270                      .dwpsn  file "../FreeRTOS/Source/stream_buffer.c",line 257,column 3,is_stmt
TMS320C55x Assembler PC v4.4.1 Sat Sep 08 07:38:04 2018

Tools Copyright (c) 1996-2012 Texas Instruments Incorporated
stream_buffer.asm                                                    PAGE    6

     271 00001d F700          ADD #1, *SP(#0) ; |257| 
         00001f 0001 
     272                      .dwpsn  file "../FreeRTOS/Source/stream_buffer.c",line 258,column 3,is_stmt
     273 000021 A900          MOV *SP(#0), AR1 ; |258| 
     274 000023 7B00          ADD #12, AR1, T0 ; |258| 
         000025 0C49 
     275              $C$DW$49        .dwtag  DW_TAG_TI_branch
     276                      .dwattr $C$DW$49, DW_AT_low_pc(0x00)
     277                      .dwattr $C$DW$49, DW_AT_name("_pvPortMalloc")
     278                      .dwattr $C$DW$49, DW_AT_TI_call
     279 000027 6C00          CALL #_pvPortMalloc ; |258| 
         000029 0000!
     280                                                      ; call occurs [#_pvPortMalloc] ; |258| 
     281 00002b EB08          MOV XAR0, dbl(*SP(#4))
         00002d 85   
     282                      .dwpsn  file "../FreeRTOS/Source/stream_buffer.c",line 260,column 3,is_stmt
     283 00002e ED08          MOV dbl(*SP(#4)), XAR3
         000030 BF   
     284 000031 90B0          MOV XAR3, AC0
     285 000033 6780          BCC $C$L4,AC0 == #0 ; |260| 
     286                                                      ; branchcc occurs ; |260| 
     287                      .dwpsn  file "../FreeRTOS/Source/stream_buffer.c",line 262,column 4,is_stmt
     288 000035 ED08          MOV dbl(*SP(#4)), XAR1
         000037 9F   
     289 000038 A502          MOV *SP(#1), T1 ; |262| 
     290 00003a AA0C          MOV *SP(#6), AR2 ; |262| 
     291              
     292                      AADD #12, AR1 ; |262| 
     293 00003c 8A00  ||      MOV *SP(#0), T0 ; |262| 
         00003e 941C 
         000040 0C   
     294              
     295              $C$DW$50        .dwtag  DW_TAG_TI_branch
     296                      .dwattr $C$DW$50, DW_AT_low_pc(0x00)
     297                      .dwattr $C$DW$50, DW_AT_name("_prvInitialiseNewStreamBuffer")
     298                      .dwattr $C$DW$50, DW_AT_TI_call
     299 000041 0807          CALL #_prvInitialiseNewStreamBuffer ; |262| 
         000043 EC   
     300                                                      ; call occurs [#_prvInitialiseNewStreamBuffer] ; |262| 
     301                      .dwpsn  file "../FreeRTOS/Source/stream_buffer.c",line 269,column 3,is_stmt
     302 000044       $C$L4:    
     303                      .dwpsn  file "../FreeRTOS/Source/stream_buffer.c",line 275,column 3,is_stmt
     304 000044 ED08          MOV dbl(*SP(#4)), XAR0
         000046 8F   
     305                      .dwpsn  file "../FreeRTOS/Source/stream_buffer.c",line 276,column 2,is_stmt
     306 000047 4E07          AADD #7, SP
     307                      .dwcfi  cfa_offset, 1
     308              $C$DW$51        .dwtag  DW_TAG_TI_branch
     309                      .dwattr $C$DW$51, DW_AT_low_pc(0x00)
     310                      .dwattr $C$DW$51, DW_AT_TI_return
     311 000049 4804          RET
     312                                                      ; return occurs
     313                      .dwattr $C$DW$40, DW_AT_TI_end_file("../FreeRTOS/Source/stream_buffer.c")
     314                      .dwattr $C$DW$40, DW_AT_TI_end_line(0x114)
     315                      .dwattr $C$DW$40, DW_AT_TI_end_column(0x02)
TMS320C55x Assembler PC v4.4.1 Sat Sep 08 07:38:04 2018

Tools Copyright (c) 1996-2012 Texas Instruments Incorporated
stream_buffer.asm                                                    PAGE    7

     316                      .dwendentry
     317                      .dwendtag $C$DW$40
     318              
     319 00004b               .sect   ".text"
     320                      .align 4
     321                      .global _vStreamBufferDelete
     322              
     323              $C$DW$52        .dwtag  DW_TAG_subprogram, DW_AT_name("vStreamBufferDelete")
     324                      .dwattr $C$DW$52, DW_AT_low_pc(_vStreamBufferDelete)
     325                      .dwattr $C$DW$52, DW_AT_high_pc(0x00)
     326                      .dwattr $C$DW$52, DW_AT_TI_symbol_name("_vStreamBufferDelete")
     327                      .dwattr $C$DW$52, DW_AT_external
     328                      .dwattr $C$DW$52, DW_AT_TI_begin_file("../FreeRTOS/Source/stream_buffer.c")
     329                      .dwattr $C$DW$52, DW_AT_TI_begin_line(0x167)
     330                      .dwattr $C$DW$52, DW_AT_TI_begin_column(0x06)
     331                      .dwattr $C$DW$52, DW_AT_TI_max_frame_size(0x06)
     332                      .dwpsn  file "../FreeRTOS/Source/stream_buffer.c",line 360,column 1,is_stmt,address _vStreamBufferDel
     333              
     334                      .dwfde $C$DW$CIE, _vStreamBufferDelete
     335              $C$DW$53        .dwtag  DW_TAG_formal_parameter, DW_AT_name("xStreamBuffer")
     336                      .dwattr $C$DW$53, DW_AT_TI_symbol_name("_xStreamBuffer")
     337                      .dwattr $C$DW$53, DW_AT_type(*$C$DW$T$40)
     338                      .dwattr $C$DW$53, DW_AT_location[DW_OP_reg17]
     339              ;*******************************************************************************
     340              ;* FUNCTION NAME: vStreamBufferDelete                                          *
     341              ;*                                                                             *
     342              ;*   Function Uses Regs : T0,T1,AR0,XAR0,AR3,XAR3,SP,TC1,M40,SATA,SATD,RDM,    *
     343              ;*                        FRCT,SMUL                                            *
     344              ;*   Stack Frame        : Compact (No Frame Pointer, w/ debug)                 *
     345              ;*   Total Frame Size   : 6 words                                              *
     346              ;*                        (2 return address/alignment)                         *
     347              ;*                        (4 local values)                                     *
     348              ;*   Min System Stack   : 1 word                                               *
     349              ;*******************************************************************************
     350 00004c       _vStreamBufferDelete:
     351                      .dwcfi  cfa_offset, 1
     352                      .dwcfi  save_reg_to_mem, 91, -1
     353 00004c 4EFB          AADD #-5, SP
     354                      .dwcfi  cfa_offset, 6
     355              $C$DW$54        .dwtag  DW_TAG_variable, DW_AT_name("xStreamBuffer")
     356                      .dwattr $C$DW$54, DW_AT_TI_symbol_name("_xStreamBuffer")
     357                      .dwattr $C$DW$54, DW_AT_type(*$C$DW$T$40)
     358                      .dwattr $C$DW$54, DW_AT_location[DW_OP_bregx 0x24 0]
     359              $C$DW$55        .dwtag  DW_TAG_variable, DW_AT_name("pxStreamBuffer")
     360                      .dwattr $C$DW$55, DW_AT_TI_symbol_name("_pxStreamBuffer")
     361                      .dwattr $C$DW$55, DW_AT_type(*$C$DW$T$37)
     362                      .dwattr $C$DW$55, DW_AT_location[DW_OP_bregx 0x24 2]
     363 00004e EB00          MOV XAR0, dbl(*SP(#0))
         000050 85   
     364                      .dwpsn  file "../FreeRTOS/Source/stream_buffer.c",line 361,column 18,is_stmt
     365 000051 ED00          MOV dbl(*SP(#0)), XAR3
         000053 BF   
     366 000054 EB04          MOV XAR3, dbl(*SP(#2))
         000056 B5   
     367                      .dwpsn  file "../FreeRTOS/Source/stream_buffer.c",line 367,column 2,is_stmt
TMS320C55x Assembler PC v4.4.1 Sat Sep 08 07:38:04 2018

Tools Copyright (c) 1996-2012 Texas Instruments Incorporated
stream_buffer.asm                                                    PAGE    8

     368 000057 DC6D          BTST #1, *AR3(#10), TC1 ; |367| 
         000059 1000 
         00005b 0A   
     369 00005c 6364          BCC $C$L5,TC1 ; |367| 
     370                                                      ; branchcc occurs ; |367| 
     371                      .dwpsn  file "../FreeRTOS/Source/stream_buffer.c",line 373,column 4,is_stmt
     372              $C$DW$56        .dwtag  DW_TAG_TI_branch
     373                      .dwattr $C$DW$56, DW_AT_low_pc(0x00)
     374                      .dwattr $C$DW$56, DW_AT_name("_vPortFree")
     375                      .dwattr $C$DW$56, DW_AT_TI_call
     376 00005e 6C00          CALL #_vPortFree ; |373| 
         000060 0000!
     377                                                      ; call occurs [#_vPortFree] ; |373| 
     378                      .dwpsn  file "../FreeRTOS/Source/stream_buffer.c",line 382,column 2,is_stmt
     379 000062 4A08          B $C$L6   ; |382| 
     380                                                      ; branch occurs ; |382| 
     381 000064       $C$L5:    
     382                      .dwpsn  file "../FreeRTOS/Source/stream_buffer.c",line 387,column 3,is_stmt
     383              
     384 000064 3C04          MOV #0, T0
     385 000066 3DC5  ||      MOV #12, T1
     386              
     387              $C$DW$57        .dwtag  DW_TAG_TI_branch
     388                      .dwattr $C$DW$57, DW_AT_low_pc(0x00)
     389                      .dwattr $C$DW$57, DW_AT_name("_memset")
     390                      .dwattr $C$DW$57, DW_AT_TI_call
     391 000068 6C00          CALL #_memset ; |387| 
         00006a 0000!
     392                                                      ; call occurs [#_memset] ; |387| 
     393                      .dwpsn  file "../FreeRTOS/Source/stream_buffer.c",line 389,column 1,is_stmt
     394 00006c       $C$L6:    
     395 00006c 4E05          AADD #5, SP
     396                      .dwcfi  cfa_offset, 1
     397              $C$DW$58        .dwtag  DW_TAG_TI_branch
     398                      .dwattr $C$DW$58, DW_AT_low_pc(0x00)
     399                      .dwattr $C$DW$58, DW_AT_TI_return
     400 00006e 4804          RET
     401                                                      ; return occurs
     402                      .dwattr $C$DW$52, DW_AT_TI_end_file("../FreeRTOS/Source/stream_buffer.c")
     403                      .dwattr $C$DW$52, DW_AT_TI_end_line(0x185)
     404                      .dwattr $C$DW$52, DW_AT_TI_end_column(0x01)
     405                      .dwendentry
     406                      .dwendtag $C$DW$52
     407              
     408 000070               .sect   ".text"
     409                      .align 4
     410                      .global _xStreamBufferReset
     411              
     412              $C$DW$59        .dwtag  DW_TAG_subprogram, DW_AT_name("xStreamBufferReset")
     413                      .dwattr $C$DW$59, DW_AT_low_pc(_xStreamBufferReset)
     414                      .dwattr $C$DW$59, DW_AT_high_pc(0x00)
     415                      .dwattr $C$DW$59, DW_AT_TI_symbol_name("_xStreamBufferReset")
     416                      .dwattr $C$DW$59, DW_AT_external
     417                      .dwattr $C$DW$59, DW_AT_type(*$C$DW$T$28)
     418                      .dwattr $C$DW$59, DW_AT_TI_begin_file("../FreeRTOS/Source/stream_buffer.c")
TMS320C55x Assembler PC v4.4.1 Sat Sep 08 07:38:04 2018

Tools Copyright (c) 1996-2012 Texas Instruments Incorporated
stream_buffer.asm                                                    PAGE    9

     419                      .dwattr $C$DW$59, DW_AT_TI_begin_line(0x188)
     420                      .dwattr $C$DW$59, DW_AT_TI_begin_column(0x0c)
     421                      .dwattr $C$DW$59, DW_AT_TI_max_frame_size(0x06)
     422                      .dwpsn  file "../FreeRTOS/Source/stream_buffer.c",line 393,column 1,is_stmt,address _xStreamBufferRes
     423              
     424                      .dwfde $C$DW$CIE, _xStreamBufferReset
     425              $C$DW$60        .dwtag  DW_TAG_formal_parameter, DW_AT_name("xStreamBuffer")
     426                      .dwattr $C$DW$60, DW_AT_TI_symbol_name("_xStreamBuffer")
     427                      .dwattr $C$DW$60, DW_AT_type(*$C$DW$T$40)
     428                      .dwattr $C$DW$60, DW_AT_location[DW_OP_reg17]
     429              ;*******************************************************************************
     430              ;* FUNCTION NAME: xStreamBufferReset                                           *
     431              ;*                                                                             *
     432              ;*   Function Uses Regs : AC0,AC0,T0,T1,AR0,XAR0,AR1,XAR1,AR2,AR3,XAR3,SP,     *
     433              ;*                        CARRY,M40,SATA,SATD,RDM,FRCT,SMUL                    *
     434              ;*   Stack Frame        : Compact (No Frame Pointer, w/ debug)                 *
     435              ;*   Total Frame Size   : 6 words                                              *
     436              ;*                        (1 return address/alignment)                         *
     437              ;*                        (5 local values)                                     *
     438              ;*   Min System Stack   : 1 word                                               *
     439              ;*******************************************************************************
     440 000070       _xStreamBufferReset:
     441                      .dwcfi  cfa_offset, 1
     442                      .dwcfi  save_reg_to_mem, 91, -1
     443 000070 4EFB          AADD #-5, SP
     444                      .dwcfi  cfa_offset, 6
     445              $C$DW$61        .dwtag  DW_TAG_variable, DW_AT_name("xStreamBuffer")
     446                      .dwattr $C$DW$61, DW_AT_TI_symbol_name("_xStreamBuffer")
     447                      .dwattr $C$DW$61, DW_AT_type(*$C$DW$T$40)
     448                      .dwattr $C$DW$61, DW_AT_location[DW_OP_bregx 0x24 0]
     449              $C$DW$62        .dwtag  DW_TAG_variable, DW_AT_name("pxStreamBuffer")
     450                      .dwattr $C$DW$62, DW_AT_TI_symbol_name("_pxStreamBuffer")
     451                      .dwattr $C$DW$62, DW_AT_type(*$C$DW$T$38)
     452                      .dwattr $C$DW$62, DW_AT_location[DW_OP_bregx 0x24 2]
     453              $C$DW$63        .dwtag  DW_TAG_variable, DW_AT_name("xReturn")
     454                      .dwattr $C$DW$63, DW_AT_TI_symbol_name("_xReturn")
     455                      .dwattr $C$DW$63, DW_AT_type(*$C$DW$T$28)
     456                      .dwattr $C$DW$63, DW_AT_location[DW_OP_bregx 0x24 4]
     457 000072 EB00          MOV XAR0, dbl(*SP(#0))
         000074 85   
     458                      .dwpsn  file "../FreeRTOS/Source/stream_buffer.c",line 394,column 24,is_stmt
     459 000075 ED00          MOV dbl(*SP(#0)), XAR3
         000077 BF   
     460 000078 EB04          MOV XAR3, dbl(*SP(#2))
         00007a B5   
     461                      .dwpsn  file "../FreeRTOS/Source/stream_buffer.c",line 395,column 12,is_stmt
     462 00007b E608          MOV #0, *SP(#4) ; |395| 
         00007d 00   
     463                      .dwpsn  file "../FreeRTOS/Source/stream_buffer.c",line 412,column 2,is_stmt
     464 00007e 20     nop
     465 00007f 46B3   bset INTM
     466 000081 F731          ADD #1, *(#_usCriticalNesting) ; |412| 
         000083 0001 
         000085 0000 
         000087 00!  
TMS320C55x Assembler PC v4.4.1 Sat Sep 08 07:38:04 2018

Tools Copyright (c) 1996-2012 Texas Instruments Incorporated
stream_buffer.asm                                                    PAGE   10

     467 000088 20            NOP
     468 000089 20            NOP
     469                      .dwpsn  file "../FreeRTOS/Source/stream_buffer.c",line 414,column 3,is_stmt
     470 00008a ED04          MOV dbl(*SP(#2)), XAR3
         00008c BF   
     471 00008d ED79          MOV dbl(*AR3(short(#4))), XAR3
         00008f BF   
     472 000090 90B0          MOV XAR3, AC0
     473 000092 0410          BCC $C$L7,AC0 != #0 ; |414| 
         000094 24   
     474                                                      ; branchcc occurs ; |414| 
     475                      .dwpsn  file "../FreeRTOS/Source/stream_buffer.c",line 416,column 4,is_stmt
     476 000095 ED04          MOV dbl(*SP(#2)), XAR3
         000097 BF   
     477 000098 ED7D          MOV dbl(*AR3(short(#6))), XAR3
         00009a BF   
     478 00009b 90B0          MOV XAR3, AC0
     479 00009d 0410          BCC $C$L7,AC0 != #0 ; |416| 
         00009f 19   
     480                                                      ; branchcc occurs ; |416| 
     481                      .dwpsn  file "../FreeRTOS/Source/stream_buffer.c",line 418,column 5,is_stmt
     482 0000a0 ED04          MOV dbl(*SP(#2)), XAR3
         0000a2 BF   
     483 0000a3 ED04          MOV dbl(*SP(#2)), XAR0
         0000a5 8F   
     484 0000a6 ED6D          MOV dbl(*AR3(#8)), XAR1
         0000a8 9F00 
         0000aa 08   
     485 0000ab A475          MOV *AR3(short(#2)), T0 ; |418| 
     486 0000ad A577          MOV *AR3(short(#3)), T1 ; |418| 
     487 0000af AA6D          MOV *AR3(#10), AR2 ; |418| 
         0000b1 000A 
     488              $C$DW$64        .dwtag  DW_TAG_TI_branch
     489                      .dwattr $C$DW$64, DW_AT_low_pc(0x00)
     490                      .dwattr $C$DW$64, DW_AT_name("_prvInitialiseNewStreamBuffer")
     491                      .dwattr $C$DW$64, DW_AT_TI_call
     492 0000b3 0807          CALL #_prvInitialiseNewStreamBuffer ; |418| 
         0000b5 7A   
     493                                                      ; call occurs [#_prvInitialiseNewStreamBuffer] ; |418| 
     494                      .dwpsn  file "../FreeRTOS/Source/stream_buffer.c",line 423,column 5,is_stmt
     495 0000b6 E608          MOV #1, *SP(#4) ; |423| 
         0000b8 01   
     496 0000b9       $C$L7:    
     497                      .dwpsn  file "../FreeRTOS/Source/stream_buffer.c",line 435,column 2,is_stmt
     498 0000b9 A931          MOV *(#_usCriticalNesting), AR1 ; |435| 
         0000bb 0000 
         0000bd 00!  
     499 0000be 0409          BCC $C$L8,AR1 == #0 ; |435| 
         0000c0 14   
     500                                                      ; branchcc occurs ; |435| 
     501 0000c1 F731          SUB #1, *(#_usCriticalNesting) ; |435| 
         0000c3 FFFF 
         0000c5 0000 
         0000c7 00!  
     502 0000c8 20            NOP
TMS320C55x Assembler PC v4.4.1 Sat Sep 08 07:38:04 2018

Tools Copyright (c) 1996-2012 Texas Instruments Incorporated
stream_buffer.asm                                                    PAGE   11

     503 0000c9 20            NOP
     504 0000ca 20            NOP
     505 0000cb A931          MOV *(#_usCriticalNesting), AR1 ; |435| 
         0000cd 0000 
         0000cf 00!  
     506 0000d0 6199          BCC $C$L8,AR1 != #0 ; |435| 
     507                                                      ; branchcc occurs ; |435| 
     508 0000d2 20     nop
     509 0000d3 46B2   bclr INTM
     510 0000d5       $C$L8:    
     511                      .dwpsn  file "../FreeRTOS/Source/stream_buffer.c",line 437,column 2,is_stmt
     512 0000d5 A408          MOV *SP(#4), T0 ; |437| 
     513                      .dwpsn  file "../FreeRTOS/Source/stream_buffer.c",line 438,column 1,is_stmt
     514 0000d7 4E05          AADD #5, SP
     515                      .dwcfi  cfa_offset, 1
     516              $C$DW$65        .dwtag  DW_TAG_TI_branch
     517                      .dwattr $C$DW$65, DW_AT_low_pc(0x00)
     518                      .dwattr $C$DW$65, DW_AT_TI_return
     519 0000d9 4804          RET
     520                                                      ; return occurs
     521                      .dwattr $C$DW$59, DW_AT_TI_end_file("../FreeRTOS/Source/stream_buffer.c")
     522                      .dwattr $C$DW$59, DW_AT_TI_end_line(0x1b6)
     523                      .dwattr $C$DW$59, DW_AT_TI_end_column(0x01)
     524                      .dwendentry
     525                      .dwendtag $C$DW$59
     526              
     527 0000db               .sect   ".text"
     528                      .align 4
     529                      .global _xStreamBufferSetTriggerLevel
     530              
     531              $C$DW$66        .dwtag  DW_TAG_subprogram, DW_AT_name("xStreamBufferSetTriggerLevel")
     532                      .dwattr $C$DW$66, DW_AT_low_pc(_xStreamBufferSetTriggerLevel)
     533                      .dwattr $C$DW$66, DW_AT_high_pc(0x00)
     534                      .dwattr $C$DW$66, DW_AT_TI_symbol_name("_xStreamBufferSetTriggerLevel")
     535                      .dwattr $C$DW$66, DW_AT_external
     536                      .dwattr $C$DW$66, DW_AT_type(*$C$DW$T$28)
     537                      .dwattr $C$DW$66, DW_AT_TI_begin_file("../FreeRTOS/Source/stream_buffer.c")
     538                      .dwattr $C$DW$66, DW_AT_TI_begin_line(0x1b9)
     539                      .dwattr $C$DW$66, DW_AT_TI_begin_column(0x0c)
     540                      .dwattr $C$DW$66, DW_AT_TI_max_frame_size(0x08)
     541                      .dwpsn  file "../FreeRTOS/Source/stream_buffer.c",line 442,column 1,is_stmt,address _xStreamBufferSet
     542              
     543                      .dwfde $C$DW$CIE, _xStreamBufferSetTriggerLevel
     544              $C$DW$67        .dwtag  DW_TAG_formal_parameter, DW_AT_name("xStreamBuffer")
     545                      .dwattr $C$DW$67, DW_AT_TI_symbol_name("_xStreamBuffer")
     546                      .dwattr $C$DW$67, DW_AT_type(*$C$DW$T$40)
     547                      .dwattr $C$DW$67, DW_AT_location[DW_OP_reg17]
     548              $C$DW$68        .dwtag  DW_TAG_formal_parameter, DW_AT_name("xTriggerLevel")
     549                      .dwattr $C$DW$68, DW_AT_TI_symbol_name("_xTriggerLevel")
     550                      .dwattr $C$DW$68, DW_AT_type(*$C$DW$T$20)
     551                      .dwattr $C$DW$68, DW_AT_location[DW_OP_reg12]
     552              ;*******************************************************************************
     553              ;* FUNCTION NAME: xStreamBufferSetTriggerLevel                                 *
     554              ;*                                                                             *
     555              ;*   Function Uses Regs : T0,AR0,XAR0,AR1,AR2,AR3,XAR3,SP,TC1,M40,SATA,SATD,   *
TMS320C55x Assembler PC v4.4.1 Sat Sep 08 07:38:04 2018

Tools Copyright (c) 1996-2012 Texas Instruments Incorporated
stream_buffer.asm                                                    PAGE   12

     556              ;*                        RDM,FRCT,SMUL                                        *
     557              ;*   Stack Frame        : Compact (No Frame Pointer, w/ debug)                 *
     558              ;*   Total Frame Size   : 8 words                                              *
     559              ;*                        (1 return address/alignment)                         *
     560              ;*                        (7 local values)                                     *
     561              ;*   Min System Stack   : 1 word                                               *
     562              ;*******************************************************************************
     563 0000dc       _xStreamBufferSetTriggerLevel:
     564                      .dwcfi  cfa_offset, 1
     565                      .dwcfi  save_reg_to_mem, 91, -1
     566 0000dc 4EF9          AADD #-7, SP
     567                      .dwcfi  cfa_offset, 8
     568              $C$DW$69        .dwtag  DW_TAG_variable, DW_AT_name("xStreamBuffer")
     569                      .dwattr $C$DW$69, DW_AT_TI_symbol_name("_xStreamBuffer")
     570                      .dwattr $C$DW$69, DW_AT_type(*$C$DW$T$40)
     571                      .dwattr $C$DW$69, DW_AT_location[DW_OP_bregx 0x24 0]
     572              $C$DW$70        .dwtag  DW_TAG_variable, DW_AT_name("xTriggerLevel")
     573                      .dwattr $C$DW$70, DW_AT_TI_symbol_name("_xTriggerLevel")
     574                      .dwattr $C$DW$70, DW_AT_type(*$C$DW$T$20)
     575                      .dwattr $C$DW$70, DW_AT_location[DW_OP_bregx 0x24 2]
     576              $C$DW$71        .dwtag  DW_TAG_variable, DW_AT_name("pxStreamBuffer")
     577                      .dwattr $C$DW$71, DW_AT_TI_symbol_name("_pxStreamBuffer")
     578                      .dwattr $C$DW$71, DW_AT_type(*$C$DW$T$38)
     579                      .dwattr $C$DW$71, DW_AT_location[DW_OP_bregx 0x24 4]
     580              $C$DW$72        .dwtag  DW_TAG_variable, DW_AT_name("xReturn")
     581                      .dwattr $C$DW$72, DW_AT_TI_symbol_name("_xReturn")
     582                      .dwattr $C$DW$72, DW_AT_type(*$C$DW$T$28)
     583                      .dwattr $C$DW$72, DW_AT_location[DW_OP_bregx 0x24 6]
     584 0000de C404          MOV T0, *SP(#2) ; |442| 
     585 0000e0 EB00          MOV XAR0, dbl(*SP(#0))
         0000e2 85   
     586                      .dwpsn  file "../FreeRTOS/Source/stream_buffer.c",line 443,column 24,is_stmt
     587 0000e3 ED00          MOV dbl(*SP(#0)), XAR3
         0000e5 BF   
     588 0000e6 EB08          MOV XAR3, dbl(*SP(#4))
         0000e8 B5   
     589                      .dwpsn  file "../FreeRTOS/Source/stream_buffer.c",line 449,column 2,is_stmt
     590 0000e9 A904          MOV *SP(#2), AR1 ; |449| 
     591 0000eb 6199          BCC $C$L9,AR1 != #0 ; |449| 
     592                                                      ; branchcc occurs ; |449| 
     593                      .dwpsn  file "../FreeRTOS/Source/stream_buffer.c",line 451,column 3,is_stmt
     594 0000ed E604          MOV #1, *SP(#2) ; |451| 
         0000ef 01   
     595 0000f0       $C$L9:    
     596                      .dwpsn  file "../FreeRTOS/Source/stream_buffer.c",line 456,column 2,is_stmt
     597 0000f0 ED08          MOV dbl(*SP(#4)), XAR3
         0000f2 BF   
     598 0000f3 AA04          MOV *SP(#2), AR2 ; |456| 
     599 0000f5 A975          MOV *AR3(short(#2)), AR1 ; |456| 
     600 0000f7 1294          CMPU AR2 > AR1, TC1 ; |456| 
         0000f9 A4   
     601 0000fa 64E4          BCC $C$L10,TC1 ; |456| 
     602                                                      ; branchcc occurs ; |456| 
     603                      .dwpsn  file "../FreeRTOS/Source/stream_buffer.c",line 458,column 3,is_stmt
     604 0000fc 22A9          MOV AR2, AR1
TMS320C55x Assembler PC v4.4.1 Sat Sep 08 07:38:04 2018

Tools Copyright (c) 1996-2012 Texas Instruments Incorporated
stream_buffer.asm                                                    PAGE   13

     605 0000fe C977          MOV AR1, *AR3(short(#3)) ; |458| 
     606                      .dwpsn  file "../FreeRTOS/Source/stream_buffer.c",line 459,column 3,is_stmt
     607 000100 E60C          MOV #1, *SP(#6) ; |459| 
         000102 01   
     608                      .dwpsn  file "../FreeRTOS/Source/stream_buffer.c",line 460,column 2,is_stmt
     609 000103 4A03          B $C$L11  ; |460| 
     610                                                      ; branch occurs ; |460| 
     611 000105       $C$L10:    
     612                      .dwpsn  file "../FreeRTOS/Source/stream_buffer.c",line 463,column 3,is_stmt
     613 000105 E60C          MOV #0, *SP(#6) ; |463| 
         000107 00   
     614 000108       $C$L11:    
     615                      .dwpsn  file "../FreeRTOS/Source/stream_buffer.c",line 466,column 2,is_stmt
     616 000108 A40C          MOV *SP(#6), T0 ; |466| 
     617                      .dwpsn  file "../FreeRTOS/Source/stream_buffer.c",line 467,column 1,is_stmt
     618 00010a 4E07          AADD #7, SP
     619                      .dwcfi  cfa_offset, 1
     620              $C$DW$73        .dwtag  DW_TAG_TI_branch
     621                      .dwattr $C$DW$73, DW_AT_low_pc(0x00)
     622                      .dwattr $C$DW$73, DW_AT_TI_return
     623 00010c 4804          RET
     624                                                      ; return occurs
     625                      .dwattr $C$DW$66, DW_AT_TI_end_file("../FreeRTOS/Source/stream_buffer.c")
     626                      .dwattr $C$DW$66, DW_AT_TI_end_line(0x1d3)
     627                      .dwattr $C$DW$66, DW_AT_TI_end_column(0x01)
     628                      .dwendentry
     629                      .dwendtag $C$DW$66
     630              
     631 00010e               .sect   ".text"
     632                      .align 4
     633                      .global _xStreamBufferSpacesAvailable
     634              
     635              $C$DW$74        .dwtag  DW_TAG_subprogram, DW_AT_name("xStreamBufferSpacesAvailable")
     636                      .dwattr $C$DW$74, DW_AT_low_pc(_xStreamBufferSpacesAvailable)
     637                      .dwattr $C$DW$74, DW_AT_high_pc(0x00)
     638                      .dwattr $C$DW$74, DW_AT_TI_symbol_name("_xStreamBufferSpacesAvailable")
     639                      .dwattr $C$DW$74, DW_AT_external
     640                      .dwattr $C$DW$74, DW_AT_type(*$C$DW$T$20)
     641                      .dwattr $C$DW$74, DW_AT_TI_begin_file("../FreeRTOS/Source/stream_buffer.c")
     642                      .dwattr $C$DW$74, DW_AT_TI_begin_line(0x1d6)
     643                      .dwattr $C$DW$74, DW_AT_TI_begin_column(0x08)
     644                      .dwattr $C$DW$74, DW_AT_TI_max_frame_size(0x06)
     645                      .dwpsn  file "../FreeRTOS/Source/stream_buffer.c",line 471,column 1,is_stmt,address _xStreamBufferSpa
     646              
     647                      .dwfde $C$DW$CIE, _xStreamBufferSpacesAvailable
     648              $C$DW$75        .dwtag  DW_TAG_formal_parameter, DW_AT_name("xStreamBuffer")
     649                      .dwattr $C$DW$75, DW_AT_TI_symbol_name("_xStreamBuffer")
     650                      .dwattr $C$DW$75, DW_AT_type(*$C$DW$T$40)
     651                      .dwattr $C$DW$75, DW_AT_location[DW_OP_reg17]
     652              ;*******************************************************************************
     653              ;* FUNCTION NAME: xStreamBufferSpacesAvailable                                 *
     654              ;*                                                                             *
     655              ;*   Function Uses Regs : AC0,T0,AR0,XAR0,AR1,AR2,XAR2,AR3,XAR3,SP,CARRY,TC1,  *
     656              ;*                        M40,SATA,SATD,RDM,FRCT,SMUL                          *
     657              ;*   Stack Frame        : Compact (No Frame Pointer, w/ debug)                 *
TMS320C55x Assembler PC v4.4.1 Sat Sep 08 07:38:04 2018

Tools Copyright (c) 1996-2012 Texas Instruments Incorporated
stream_buffer.asm                                                    PAGE   14

     658              ;*   Total Frame Size   : 6 words                                              *
     659              ;*                        (1 return address/alignment)                         *
     660              ;*                        (5 local values)                                     *
     661              ;*   Min System Stack   : 1 word                                               *
     662              ;*******************************************************************************
     663 000110       _xStreamBufferSpacesAvailable:
     664                      .dwcfi  cfa_offset, 1
     665                      .dwcfi  save_reg_to_mem, 91, -1
     666 000110 4EFB          AADD #-5, SP
     667                      .dwcfi  cfa_offset, 6
     668              $C$DW$76        .dwtag  DW_TAG_variable, DW_AT_name("xStreamBuffer")
     669                      .dwattr $C$DW$76, DW_AT_TI_symbol_name("_xStreamBuffer")
     670                      .dwattr $C$DW$76, DW_AT_type(*$C$DW$T$40)
     671                      .dwattr $C$DW$76, DW_AT_location[DW_OP_bregx 0x24 0]
     672              $C$DW$77        .dwtag  DW_TAG_variable, DW_AT_name("pxStreamBuffer")
     673                      .dwattr $C$DW$77, DW_AT_TI_symbol_name("_pxStreamBuffer")
     674                      .dwattr $C$DW$77, DW_AT_type(*$C$DW$T$36)
     675                      .dwattr $C$DW$77, DW_AT_location[DW_OP_bregx 0x24 2]
     676              $C$DW$78        .dwtag  DW_TAG_variable, DW_AT_name("xSpace")
     677                      .dwattr $C$DW$78, DW_AT_TI_symbol_name("_xSpace")
     678                      .dwattr $C$DW$78, DW_AT_type(*$C$DW$T$20)
     679                      .dwattr $C$DW$78, DW_AT_location[DW_OP_bregx 0x24 4]
     680 000112 EB00          MOV XAR0, dbl(*SP(#0))
         000114 85   
     681                      .dwpsn  file "../FreeRTOS/Source/stream_buffer.c",line 472,column 30,is_stmt
     682 000115 ED00          MOV dbl(*SP(#0)), XAR3
         000117 BF   
     683 000118 EB04          MOV XAR3, dbl(*SP(#2))
         00011a B5   
     684                      .dwpsn  file "../FreeRTOS/Source/stream_buffer.c",line 477,column 2,is_stmt
     685 00011b ED04          MOV dbl(*SP(#2)), XAR2
         00011d AF   
     686 00011e A941          MOV *AR2, AR1 ; |477| 
     687 000120 D675          ADD *AR3(short(#2)), AR1, AR1 ; |477| 
         000122 99   
     688 000123 C908          MOV AR1, *SP(#4) ; |477| 
     689                      .dwpsn  file "../FreeRTOS/Source/stream_buffer.c",line 478,column 2,is_stmt
     690 000125 ED04          MOV dbl(*SP(#2)), XAR3
         000127 BF   
     691 000128 2290          MOV AR1, AC0
     692 00012a DF73          SUB uns(*AR3(short(#1))), AC0, AC0 ; |478| 
         00012c 0F   
     693 00012d C008          MOV AC0, *SP(#4) ; |478| 
     694                      .dwpsn  file "../FreeRTOS/Source/stream_buffer.c",line 479,column 2,is_stmt
     695 00012f F708          SUB #1, *SP(#4) ; |479| 
         000131 FFFF 
     696                      .dwpsn  file "../FreeRTOS/Source/stream_buffer.c",line 481,column 2,is_stmt
     697 000133 ED04          MOV dbl(*SP(#2)), XAR3
         000135 BF   
     698 000136 AA08          MOV *SP(#4), AR2 ; |481| 
     699 000138 A975          MOV *AR3(short(#2)), AR1 ; |481| 
     700 00013a 12A4          CMPU AR2 < AR1, TC1 ; |481| 
         00013c 94   
     701 00013d 63E4          BCC $C$L12,TC1 ; |481| 
     702                                                      ; branchcc occurs ; |481| 
TMS320C55x Assembler PC v4.4.1 Sat Sep 08 07:38:04 2018

Tools Copyright (c) 1996-2012 Texas Instruments Incorporated
stream_buffer.asm                                                    PAGE   15

     703                      .dwpsn  file "../FreeRTOS/Source/stream_buffer.c",line 483,column 3,is_stmt
     704 00013f 22A0          MOV AR2, AC0
     705 000141 DF75          SUB uns(*AR3(short(#2))), AC0, AC0 ; |483| 
         000143 0F   
     706 000144 C008          MOV AC0, *SP(#4) ; |483| 
     707                      .dwpsn  file "../FreeRTOS/Source/stream_buffer.c",line 484,column 2,is_stmt
     708 000146       $C$L12:    
     709                      .dwpsn  file "../FreeRTOS/Source/stream_buffer.c",line 490,column 2,is_stmt
     710 000146 A408          MOV *SP(#4), T0 ; |490| 
     711                      .dwpsn  file "../FreeRTOS/Source/stream_buffer.c",line 491,column 1,is_stmt
     712 000148 4E05          AADD #5, SP
     713                      .dwcfi  cfa_offset, 1
     714              $C$DW$79        .dwtag  DW_TAG_TI_branch
     715                      .dwattr $C$DW$79, DW_AT_low_pc(0x00)
     716                      .dwattr $C$DW$79, DW_AT_TI_return
     717 00014a 4804          RET
     718                                                      ; return occurs
     719                      .dwattr $C$DW$74, DW_AT_TI_end_file("../FreeRTOS/Source/stream_buffer.c")
     720                      .dwattr $C$DW$74, DW_AT_TI_end_line(0x1eb)
     721                      .dwattr $C$DW$74, DW_AT_TI_end_column(0x01)
     722                      .dwendentry
     723                      .dwendtag $C$DW$74
     724              
     725 00014c               .sect   ".text"
     726                      .align 4
     727                      .global _xStreamBufferBytesAvailable
     728              
     729              $C$DW$80        .dwtag  DW_TAG_subprogram, DW_AT_name("xStreamBufferBytesAvailable")
     730                      .dwattr $C$DW$80, DW_AT_low_pc(_xStreamBufferBytesAvailable)
     731                      .dwattr $C$DW$80, DW_AT_high_pc(0x00)
     732                      .dwattr $C$DW$80, DW_AT_TI_symbol_name("_xStreamBufferBytesAvailable")
     733                      .dwattr $C$DW$80, DW_AT_external
     734                      .dwattr $C$DW$80, DW_AT_type(*$C$DW$T$20)
     735                      .dwattr $C$DW$80, DW_AT_TI_begin_file("../FreeRTOS/Source/stream_buffer.c")
     736                      .dwattr $C$DW$80, DW_AT_TI_begin_line(0x1ee)
     737                      .dwattr $C$DW$80, DW_AT_TI_begin_column(0x08)
     738                      .dwattr $C$DW$80, DW_AT_TI_max_frame_size(0x06)
     739                      .dwpsn  file "../FreeRTOS/Source/stream_buffer.c",line 495,column 1,is_stmt,address _xStreamBufferByt
     740              
     741                      .dwfde $C$DW$CIE, _xStreamBufferBytesAvailable
     742              $C$DW$81        .dwtag  DW_TAG_formal_parameter, DW_AT_name("xStreamBuffer")
     743                      .dwattr $C$DW$81, DW_AT_TI_symbol_name("_xStreamBuffer")
     744                      .dwattr $C$DW$81, DW_AT_type(*$C$DW$T$40)
     745                      .dwattr $C$DW$81, DW_AT_location[DW_OP_reg17]
     746              ;*******************************************************************************
     747              ;* FUNCTION NAME: xStreamBufferBytesAvailable                                  *
     748              ;*                                                                             *
     749              ;*   Function Uses Regs : T0,AR0,XAR0,AR3,XAR3,SP,M40,SATA,SATD,RDM,FRCT,SMUL  *
     750              ;*   Stack Frame        : Compact (No Frame Pointer, w/ debug)                 *
     751              ;*   Total Frame Size   : 6 words                                              *
     752              ;*                        (1 return address/alignment)                         *
     753              ;*                        (5 local values)                                     *
     754              ;*   Min System Stack   : 1 word                                               *
     755              ;*******************************************************************************
     756 00014c       _xStreamBufferBytesAvailable:
TMS320C55x Assembler PC v4.4.1 Sat Sep 08 07:38:04 2018

Tools Copyright (c) 1996-2012 Texas Instruments Incorporated
stream_buffer.asm                                                    PAGE   16

     757                      .dwcfi  cfa_offset, 1
     758                      .dwcfi  save_reg_to_mem, 91, -1
     759 00014c 4EFB          AADD #-5, SP
     760                      .dwcfi  cfa_offset, 6
     761              $C$DW$82        .dwtag  DW_TAG_variable, DW_AT_name("xStreamBuffer")
     762                      .dwattr $C$DW$82, DW_AT_TI_symbol_name("_xStreamBuffer")
     763                      .dwattr $C$DW$82, DW_AT_type(*$C$DW$T$40)
     764                      .dwattr $C$DW$82, DW_AT_location[DW_OP_bregx 0x24 0]
     765              $C$DW$83        .dwtag  DW_TAG_variable, DW_AT_name("pxStreamBuffer")
     766                      .dwattr $C$DW$83, DW_AT_TI_symbol_name("_pxStreamBuffer")
     767                      .dwattr $C$DW$83, DW_AT_type(*$C$DW$T$36)
     768                      .dwattr $C$DW$83, DW_AT_location[DW_OP_bregx 0x24 2]
     769              $C$DW$84        .dwtag  DW_TAG_variable, DW_AT_name("xReturn")
     770                      .dwattr $C$DW$84, DW_AT_TI_symbol_name("_xReturn")
     771                      .dwattr $C$DW$84, DW_AT_type(*$C$DW$T$20)
     772                      .dwattr $C$DW$84, DW_AT_location[DW_OP_bregx 0x24 4]
     773 00014e EB00          MOV XAR0, dbl(*SP(#0))
         000150 85   
     774                      .dwpsn  file "../FreeRTOS/Source/stream_buffer.c",line 496,column 30,is_stmt
     775 000151 ED00          MOV dbl(*SP(#0)), XAR3
         000153 BF   
     776 000154 EB04          MOV XAR3, dbl(*SP(#2))
         000156 B5   
     777                      .dwpsn  file "../FreeRTOS/Source/stream_buffer.c",line 501,column 2,is_stmt
     778              $C$DW$85        .dwtag  DW_TAG_TI_branch
     779                      .dwattr $C$DW$85, DW_AT_low_pc(0x00)
     780                      .dwattr $C$DW$85, DW_AT_name("_prvBytesInBuffer")
     781                      .dwattr $C$DW$85, DW_AT_TI_call
     782 000157 0806          CALL #_prvBytesInBuffer ; |501| 
         000159 A2   
     783                                                      ; call occurs [#_prvBytesInBuffer] ; |501| 
     784 00015a C408          MOV T0, *SP(#4) ; |501| 
     785                      .dwpsn  file "../FreeRTOS/Source/stream_buffer.c",line 502,column 2,is_stmt
     786                      .dwpsn  file "../FreeRTOS/Source/stream_buffer.c",line 503,column 1,is_stmt
     787 00015c 4E05          AADD #5, SP
     788                      .dwcfi  cfa_offset, 1
     789              $C$DW$86        .dwtag  DW_TAG_TI_branch
     790                      .dwattr $C$DW$86, DW_AT_low_pc(0x00)
     791                      .dwattr $C$DW$86, DW_AT_TI_return
     792 00015e 4804          RET
     793                                                      ; return occurs
     794                      .dwattr $C$DW$80, DW_AT_TI_end_file("../FreeRTOS/Source/stream_buffer.c")
     795                      .dwattr $C$DW$80, DW_AT_TI_end_line(0x1f7)
     796                      .dwattr $C$DW$80, DW_AT_TI_end_column(0x01)
     797                      .dwendentry
     798                      .dwendtag $C$DW$80
     799              
     800 000160               .sect   ".text"
     801                      .align 4
     802                      .global _xStreamBufferSend
     803              
     804              $C$DW$87        .dwtag  DW_TAG_subprogram, DW_AT_name("xStreamBufferSend")
     805                      .dwattr $C$DW$87, DW_AT_low_pc(_xStreamBufferSend)
     806                      .dwattr $C$DW$87, DW_AT_high_pc(0x00)
     807                      .dwattr $C$DW$87, DW_AT_TI_symbol_name("_xStreamBufferSend")
TMS320C55x Assembler PC v4.4.1 Sat Sep 08 07:38:04 2018

Tools Copyright (c) 1996-2012 Texas Instruments Incorporated
stream_buffer.asm                                                    PAGE   17

     808                      .dwattr $C$DW$87, DW_AT_external
     809                      .dwattr $C$DW$87, DW_AT_type(*$C$DW$T$20)
     810                      .dwattr $C$DW$87, DW_AT_TI_begin_file("../FreeRTOS/Source/stream_buffer.c")
     811                      .dwattr $C$DW$87, DW_AT_TI_begin_line(0x1fa)
     812                      .dwattr $C$DW$87, DW_AT_TI_begin_column(0x08)
     813                      .dwattr $C$DW$87, DW_AT_TI_max_frame_size(0x0e)
     814                      .dwpsn  file "../FreeRTOS/Source/stream_buffer.c",line 510,column 1,is_stmt,address _xStreamBufferSen
     815              
     816                      .dwfde $C$DW$CIE, _xStreamBufferSend
     817              $C$DW$88        .dwtag  DW_TAG_formal_parameter, DW_AT_name("xStreamBuffer")
     818                      .dwattr $C$DW$88, DW_AT_TI_symbol_name("_xStreamBuffer")
     819                      .dwattr $C$DW$88, DW_AT_type(*$C$DW$T$40)
     820                      .dwattr $C$DW$88, DW_AT_location[DW_OP_reg17]
     821              $C$DW$89        .dwtag  DW_TAG_formal_parameter, DW_AT_name("pvTxData")
     822                      .dwattr $C$DW$89, DW_AT_TI_symbol_name("_pvTxData")
     823                      .dwattr $C$DW$89, DW_AT_type(*$C$DW$T$43)
     824                      .dwattr $C$DW$89, DW_AT_location[DW_OP_reg19]
     825              $C$DW$90        .dwtag  DW_TAG_formal_parameter, DW_AT_name("xDataLengthBytes")
     826                      .dwattr $C$DW$90, DW_AT_TI_symbol_name("_xDataLengthBytes")
     827                      .dwattr $C$DW$90, DW_AT_type(*$C$DW$T$20)
     828                      .dwattr $C$DW$90, DW_AT_location[DW_OP_reg12]
     829              $C$DW$91        .dwtag  DW_TAG_formal_parameter, DW_AT_name("xTicksToWait")
     830                      .dwattr $C$DW$91, DW_AT_TI_symbol_name("_xTicksToWait")
     831                      .dwattr $C$DW$91, DW_AT_type(*$C$DW$T$29)
     832                      .dwattr $C$DW$91, DW_AT_location[DW_OP_reg13]
     833              ;*******************************************************************************
     834              ;* FUNCTION NAME: xStreamBufferSend                                            *
     835              ;*                                                                             *
     836              ;*   Function Uses Regs : AC0,AC0,AC1,AC1,T0,T1,AR0,XAR0,AR1,XAR1,AR2,AR3,XAR3,*
     837              ;*                        SP,CARRY,TC1,M40,SATA,SATD,RDM,FRCT,SMUL             *
     838              ;*   Stack Frame        : Compact (No Frame Pointer, w/ debug)                 *
     839              ;*   Total Frame Size   : 14 words                                             *
     840              ;*                        (1 return address/alignment)                         *
     841              ;*                        (13 local values)                                    *
     842              ;*   Min System Stack   : 1 word                                               *
     843              ;*******************************************************************************
     844 000160       _xStreamBufferSend:
     845                      .dwcfi  cfa_offset, 1
     846                      .dwcfi  save_reg_to_mem, 91, -1
     847 000160 4EF3          AADD #-13, SP
     848                      .dwcfi  cfa_offset, 14
     849              $C$DW$92        .dwtag  DW_TAG_variable, DW_AT_name("xStreamBuffer")
     850                      .dwattr $C$DW$92, DW_AT_TI_symbol_name("_xStreamBuffer")
     851                      .dwattr $C$DW$92, DW_AT_type(*$C$DW$T$40)
     852                      .dwattr $C$DW$92, DW_AT_location[DW_OP_bregx 0x24 0]
     853              $C$DW$93        .dwtag  DW_TAG_variable, DW_AT_name("pvTxData")
     854                      .dwattr $C$DW$93, DW_AT_TI_symbol_name("_pvTxData")
     855                      .dwattr $C$DW$93, DW_AT_type(*$C$DW$T$43)
     856                      .dwattr $C$DW$93, DW_AT_location[DW_OP_bregx 0x24 2]
     857              $C$DW$94        .dwtag  DW_TAG_variable, DW_AT_name("xDataLengthBytes")
     858                      .dwattr $C$DW$94, DW_AT_TI_symbol_name("_xDataLengthBytes")
     859                      .dwattr $C$DW$94, DW_AT_type(*$C$DW$T$20)
     860                      .dwattr $C$DW$94, DW_AT_location[DW_OP_bregx 0x24 4]
     861              $C$DW$95        .dwtag  DW_TAG_variable, DW_AT_name("xTicksToWait")
     862                      .dwattr $C$DW$95, DW_AT_TI_symbol_name("_xTicksToWait")
TMS320C55x Assembler PC v4.4.1 Sat Sep 08 07:38:04 2018

Tools Copyright (c) 1996-2012 Texas Instruments Incorporated
stream_buffer.asm                                                    PAGE   18

     863                      .dwattr $C$DW$95, DW_AT_type(*$C$DW$T$29)
     864                      .dwattr $C$DW$95, DW_AT_location[DW_OP_bregx 0x24 5]
     865              $C$DW$96        .dwtag  DW_TAG_variable, DW_AT_name("pxStreamBuffer")
     866                      .dwattr $C$DW$96, DW_AT_TI_symbol_name("_pxStreamBuffer")
     867                      .dwattr $C$DW$96, DW_AT_type(*$C$DW$T$38)
     868                      .dwattr $C$DW$96, DW_AT_location[DW_OP_bregx 0x24 6]
     869              $C$DW$97        .dwtag  DW_TAG_variable, DW_AT_name("xReturn")
     870                      .dwattr $C$DW$97, DW_AT_TI_symbol_name("_xReturn")
     871                      .dwattr $C$DW$97, DW_AT_type(*$C$DW$T$20)
     872                      .dwattr $C$DW$97, DW_AT_location[DW_OP_bregx 0x24 8]
     873              $C$DW$98        .dwtag  DW_TAG_variable, DW_AT_name("xSpace")
     874                      .dwattr $C$DW$98, DW_AT_TI_symbol_name("_xSpace")
     875                      .dwattr $C$DW$98, DW_AT_type(*$C$DW$T$20)
     876                      .dwattr $C$DW$98, DW_AT_location[DW_OP_bregx 0x24 9]
     877              $C$DW$99        .dwtag  DW_TAG_variable, DW_AT_name("xRequiredSpace")
     878                      .dwattr $C$DW$99, DW_AT_TI_symbol_name("_xRequiredSpace")
     879                      .dwattr $C$DW$99, DW_AT_type(*$C$DW$T$20)
     880                      .dwattr $C$DW$99, DW_AT_location[DW_OP_bregx 0x24 10]
     881              $C$DW$100       .dwtag  DW_TAG_variable, DW_AT_name("xTimeOut")
     882                      .dwattr $C$DW$100, DW_AT_TI_symbol_name("_xTimeOut")
     883                      .dwattr $C$DW$100, DW_AT_type(*$C$DW$T$53)
     884                      .dwattr $C$DW$100, DW_AT_location[DW_OP_bregx 0x24 11]
     885 000162 C50A          MOV T1, *SP(#5) ; |510| 
     886 000164 C408          MOV T0, *SP(#4) ; |510| 
     887 000166 EB04          MOV XAR1, dbl(*SP(#2))
         000168 95   
     888 000169 EB00          MOV XAR0, dbl(*SP(#0))
         00016b 85   
     889                      .dwpsn  file "../FreeRTOS/Source/stream_buffer.c",line 511,column 24,is_stmt
     890 00016c ED00          MOV dbl(*SP(#0)), XAR3
         00016e BF   
     891 00016f EB0C          MOV XAR3, dbl(*SP(#6))
         000171 B5   
     892                      .dwpsn  file "../FreeRTOS/Source/stream_buffer.c",line 512,column 17,is_stmt
     893 000172 E612          MOV #0, *SP(#9) ; |512| 
         000174 00   
     894                      .dwpsn  file "../FreeRTOS/Source/stream_buffer.c",line 513,column 8,is_stmt
     895 000175 A908          MOV *SP(#4), AR1 ; |513| 
     896 000177 C914          MOV AR1, *SP(#10) ; |513| 
     897                      .dwpsn  file "../FreeRTOS/Source/stream_buffer.c",line 523,column 2,is_stmt
     898 000179 ED0C          MOV dbl(*SP(#6)), XAR3
         00017b BF   
     899 00017c DC6D          BTST #0, *AR3(#10), TC1 ; |523| 
         00017e 0000 
         000180 0A   
     900 000181 6274          BCC $C$L13,!TC1 ; |523| 
     901                                                      ; branchcc occurs ; |523| 
     902                      .dwpsn  file "../FreeRTOS/Source/stream_buffer.c",line 525,column 3,is_stmt
     903 000183 F714          ADD #1, *SP(#10) ; |525| 
         000185 0001 
     904                      .dwpsn  file "../FreeRTOS/Source/stream_buffer.c",line 529,column 2,is_stmt
     905 000187       $C$L13:    
     906                      .dwpsn  file "../FreeRTOS/Source/stream_buffer.c",line 535,column 2,is_stmt
     907 000187 A90A          MOV *SP(#5), AR1 ; |535| 
     908 000189 6D09          BCC $C$L18,AR1 == #0 ; |535| 
TMS320C55x Assembler PC v4.4.1 Sat Sep 08 07:38:04 2018

Tools Copyright (c) 1996-2012 Texas Instruments Incorporated
stream_buffer.asm                                                    PAGE   19

         00018b 009B 
     909                                                      ; branchcc occurs ; |535| 
     910                      .dwpsn  file "../FreeRTOS/Source/stream_buffer.c",line 537,column 3,is_stmt
     911 00018d EC16          AMAR *SP(#11), XAR0
         00018f 8E   
     912              $C$DW$101       .dwtag  DW_TAG_TI_branch
     913                      .dwattr $C$DW$101, DW_AT_low_pc(0x00)
     914                      .dwattr $C$DW$101, DW_AT_name("_vTaskSetTimeOutState")
     915                      .dwattr $C$DW$101, DW_AT_TI_call
     916 000190 6C00          CALL #_vTaskSetTimeOutState ; |537| 
         000192 0000!
     917                                                      ; call occurs [#_vTaskSetTimeOutState] ; |537| 
     918 000194       $C$L14:    
     919 000194       $C$DW$L$_xStreamBufferSend$5$B:
     920                      .dwpsn  file "../FreeRTOS/Source/stream_buffer.c",line 543,column 4,is_stmt
     921 000194 20     nop
     922 000195 46B3   bset INTM
     923 000197 F731          ADD #1, *(#_usCriticalNesting) ; |543| 
         000199 0001 
         00019b 0000 
         00019d 00!  
     924                      .dwpsn  file "../FreeRTOS/Source/stream_buffer.c",line 545,column 5,is_stmt
     925 00019e ED0C          MOV dbl(*SP(#6)), XAR0
         0001a0 8F   
     926              $C$DW$102       .dwtag  DW_TAG_TI_branch
     927                      .dwattr $C$DW$102, DW_AT_low_pc(0x00)
     928                      .dwattr $C$DW$102, DW_AT_name("_xStreamBufferSpacesAvailable")
     929                      .dwattr $C$DW$102, DW_AT_TI_call
     930 0001a1 08FF          CALL #_xStreamBufferSpacesAvailable ; |545| 
         0001a3 6C   
     931                                                      ; call occurs [#_xStreamBufferSpacesAvailable] ; |545| 
     932 0001a4 C412          MOV T0, *SP(#9) ; |545| 
     933                      .dwpsn  file "../FreeRTOS/Source/stream_buffer.c",line 547,column 5,is_stmt
     934              
     935 0001a6 A914          MOV *SP(#10), AR1 ; |547| 
     936 0001a8 234A  ||      MOV T0, AR2 ; |547| 
     937              
     938 0001aa 12A8          CMPU AR2 >= AR1, TC1 ; |547| 
         0001ac 94   
     939 0001ad 0464          BCC $C$L15,TC1 ; |547| 
         0001af 16   
     940                                                      ; branchcc occurs ; |547| 
     941 0001b0       $C$DW$L$_xStreamBufferSend$5$E:
     942 0001b0       $C$DW$L$_xStreamBufferSend$6$B:
     943                      .dwpsn  file "../FreeRTOS/Source/stream_buffer.c",line 550,column 6,is_stmt
     944 0001b0 EC31          AMOV #0, XAR0 ; |550| 
         0001b2 8E00 
         0001b4 0000 
     945              $C$DW$103       .dwtag  DW_TAG_TI_branch
     946                      .dwattr $C$DW$103, DW_AT_low_pc(0x00)
     947                      .dwattr $C$DW$103, DW_AT_name("_xTaskNotifyStateClear")
     948                      .dwattr $C$DW$103, DW_AT_TI_call
     949 0001b6 6C00          CALL #_xTaskNotifyStateClear ; |550| 
         0001b8 0000!
     950                                                      ; call occurs [#_xTaskNotifyStateClear] ; |550| 
TMS320C55x Assembler PC v4.4.1 Sat Sep 08 07:38:04 2018

Tools Copyright (c) 1996-2012 Texas Instruments Incorporated
stream_buffer.asm                                                    PAGE   20

     951                      .dwpsn  file "../FreeRTOS/Source/stream_buffer.c",line 554,column 6,is_stmt
     952              $C$DW$104       .dwtag  DW_TAG_TI_branch
     953                      .dwattr $C$DW$104, DW_AT_low_pc(0x00)
     954                      .dwattr $C$DW$104, DW_AT_name("_xTaskGetCurrentTaskHandle")
     955                      .dwattr $C$DW$104, DW_AT_TI_call
     956 0001ba 6C00          CALL #_xTaskGetCurrentTaskHandle ; |554| 
         0001bc 0000!
     957                                                      ; call occurs [#_xTaskGetCurrentTaskHandle] ; |554| 
     958 0001be ED0C          MOV dbl(*SP(#6)), XAR3
         0001c0 BF   
     959 0001c1 EB7D          MOV XAR0, dbl(*AR3(short(#6)))
         0001c3 85   
     960                      .dwpsn  file "../FreeRTOS/Source/stream_buffer.c",line 555,column 5,is_stmt
     961 0001c4 4A20          B $C$L16  ; |555| 
     962                                                      ; branch occurs ; |555| 
     963 0001c6       $C$DW$L$_xStreamBufferSend$6$E:
     964 0001c6       $C$L15:    
     965                      .dwpsn  file "../FreeRTOS/Source/stream_buffer.c",line 558,column 6,is_stmt
     966 0001c6 A931          MOV *(#_usCriticalNesting), AR1 ; |558| 
         0001c8 0000 
         0001ca 00!  
     967 0001cb 0409          BCC $C$L18,AR1 == #0 ; |558| 
         0001cd 5A   
     968                                                      ; branchcc occurs ; |558| 
     969 0001ce F731          SUB #1, *(#_usCriticalNesting) ; |558| 
         0001d0 FFFF 
         0001d2 0000 
         0001d4 00!  
     970 0001d5 20            NOP
     971 0001d6 20            NOP
     972 0001d7 20            NOP
     973 0001d8 A931          MOV *(#_usCriticalNesting), AR1 ; |558| 
         0001da 0000 
         0001dc 00!  
     974 0001dd 0419          BCC $C$L18,AR1 != #0 ; |558| 
         0001df 48   
     975                                                      ; branchcc occurs ; |558| 
     976 0001e0 20     nop
     977 0001e1 46B2   bclr INTM
     978                      .dwpsn  file "../FreeRTOS/Source/stream_buffer.c",line 559,column 6,is_stmt
     979 0001e3 0600          B $C$L18  ; |559| 
         0001e5 42   
     980                                                      ; branch occurs ; |559| 
     981 0001e6       $C$L16:    
     982 0001e6       $C$DW$L$_xStreamBufferSend$10$B:
     983                      .dwpsn  file "../FreeRTOS/Source/stream_buffer.c",line 562,column 4,is_stmt
     984 0001e6 A931          MOV *(#_usCriticalNesting), AR1 ; |562| 
         0001e8 0000 
         0001ea 00!  
     985 0001eb 0409          BCC $C$L17,AR1 == #0 ; |562| 
         0001ed 14   
     986                                                      ; branchcc occurs ; |562| 
     987 0001ee       $C$DW$L$_xStreamBufferSend$10$E:
     988 0001ee       $C$DW$L$_xStreamBufferSend$11$B:
     989 0001ee F731          SUB #1, *(#_usCriticalNesting) ; |562| 
TMS320C55x Assembler PC v4.4.1 Sat Sep 08 07:38:04 2018

Tools Copyright (c) 1996-2012 Texas Instruments Incorporated
stream_buffer.asm                                                    PAGE   21

         0001f0 FFFF 
         0001f2 0000 
         0001f4 00!  
     990 0001f5 20            NOP
     991 0001f6 20            NOP
     992 0001f7 20            NOP
     993 0001f8 A931          MOV *(#_usCriticalNesting), AR1 ; |562| 
         0001fa 0000 
         0001fc 00!  
     994 0001fd 6199          BCC $C$L17,AR1 != #0 ; |562| 
     995                                                      ; branchcc occurs ; |562| 
     996 0001ff       $C$DW$L$_xStreamBufferSend$11$E:
     997 0001ff       $C$DW$L$_xStreamBufferSend$12$B:
     998 0001ff 20     nop
     999 000200 46B2   bclr INTM
    1000 000202       $C$DW$L$_xStreamBufferSend$12$E:
    1001 000202       $C$L17:    
    1002 000202       $C$DW$L$_xStreamBufferSend$13$B:
    1003                      .dwpsn  file "../FreeRTOS/Source/stream_buffer.c",line 565,column 4,is_stmt
    1004 000202 EC31          AMOV #0, XAR0 ; |565| 
         000204 8E00 
         000206 0000 
    1005              
    1006 00020a 3D00          MOV #0, AC0 ; |565| 
    1007 000208 A40A  ||      MOV *SP(#5), T0 ; |565| 
    1008              
    1009              $C$DW$105       .dwtag  DW_TAG_TI_branch
    1010                      .dwattr $C$DW$105, DW_AT_low_pc(0x00)
    1011                      .dwattr $C$DW$105, DW_AT_name("_xTaskNotifyWait")
    1012                      .dwattr $C$DW$105, DW_AT_TI_call
    1013              
    1014 00020c 6C00          CALL #_xTaskNotifyWait ; |565| 
         00020e 0000!
    1015 000210 3D01  ||      MOV #0, AC1 ; |565| 
    1016              
    1017                                                      ; call occurs [#_xTaskNotifyWait] ; |565| 
    1018                      .dwpsn  file "../FreeRTOS/Source/stream_buffer.c",line 566,column 4,is_stmt
    1019 000212 ED0C          MOV dbl(*SP(#6)), XAR3
         000214 BF   
    1020 000215 3C00          MOV #0, AC0 ; |566| 
    1021 000217 EB7D          MOV AC0, dbl(*AR3(short(#6)))
         000219 08   
    1022                      .dwpsn  file "../FreeRTOS/Source/stream_buffer.c",line 568,column 12,is_stmt
    1023 00021a EC0A          AMAR *SP(#5), XAR1
         00021c 9E   
    1024 00021d EC16          AMAR *SP(#11), XAR0
         00021f 8E   
    1025              $C$DW$106       .dwtag  DW_TAG_TI_branch
    1026                      .dwattr $C$DW$106, DW_AT_low_pc(0x00)
    1027                      .dwattr $C$DW$106, DW_AT_name("_xTaskCheckForTimeOut")
    1028                      .dwattr $C$DW$106, DW_AT_TI_call
    1029 000220 6C00          CALL #_xTaskCheckForTimeOut ; |568| 
         000222 0000!
    1030                                                      ; call occurs [#_xTaskCheckForTimeOut] ; |568| 
    1031 000224 6D04          BCC $C$L14,T0 == #0 ; |568| 
TMS320C55x Assembler PC v4.4.1 Sat Sep 08 07:38:04 2018

Tools Copyright (c) 1996-2012 Texas Instruments Incorporated
stream_buffer.asm                                                    PAGE   22

         000226 FF6C 
    1032                                                      ; branchcc occurs ; |568| 
    1033 000228       $C$DW$L$_xStreamBufferSend$13$E:
    1034                      .dwpsn  file "../FreeRTOS/Source/stream_buffer.c",line 569,column 2,is_stmt
    1035 000228       $C$L18:    
    1036                      .dwpsn  file "../FreeRTOS/Source/stream_buffer.c",line 575,column 2,is_stmt
    1037 000228 A912          MOV *SP(#9), AR1 ; |575| 
    1038 00022a 6419          BCC $C$L19,AR1 != #0 ; |575| 
    1039                                                      ; branchcc occurs ; |575| 
    1040                      .dwpsn  file "../FreeRTOS/Source/stream_buffer.c",line 577,column 3,is_stmt
    1041 00022c ED0C          MOV dbl(*SP(#6)), XAR0
         00022e 8F   
    1042              $C$DW$107       .dwtag  DW_TAG_TI_branch
    1043                      .dwattr $C$DW$107, DW_AT_low_pc(0x00)
    1044                      .dwattr $C$DW$107, DW_AT_name("_xStreamBufferSpacesAvailable")
    1045                      .dwattr $C$DW$107, DW_AT_TI_call
    1046 00022f 08FE          CALL #_xStreamBufferSpacesAvailable ; |577| 
         000231 DE   
    1047                                                      ; call occurs [#_xStreamBufferSpacesAvailable] ; |577| 
    1048 000232 C412          MOV T0, *SP(#9) ; |577| 
    1049                      .dwpsn  file "../FreeRTOS/Source/stream_buffer.c",line 578,column 2,is_stmt
    1050 000234       $C$L19:    
    1051                      .dwpsn  file "../FreeRTOS/Source/stream_buffer.c",line 584,column 2,is_stmt
    1052 000234 ED0C          MOV dbl(*SP(#6)), XAR0
         000236 8F   
    1053 000237 ED04          MOV dbl(*SP(#2)), XAR1
         000239 9F   
    1054 00023a A408          MOV *SP(#4), T0 ; |584| 
    1055 00023c A512          MOV *SP(#9), T1 ; |584| 
    1056 00023e AA14          MOV *SP(#10), AR2 ; |584| 
    1057              $C$DW$108       .dwtag  DW_TAG_TI_branch
    1058                      .dwattr $C$DW$108, DW_AT_low_pc(0x00)
    1059                      .dwattr $C$DW$108, DW_AT_name("_prvWriteMessageToBuffer")
    1060                      .dwattr $C$DW$108, DW_AT_TI_call
    1061 000240 0800          CALL #_prvWriteMessageToBuffer ; |584| 
         000242 DD   
    1062                                                      ; call occurs [#_prvWriteMessageToBuffer] ; |584| 
    1063 000243 C410          MOV T0, *SP(#8) ; |584| 
    1064                      .dwpsn  file "../FreeRTOS/Source/stream_buffer.c",line 586,column 2,is_stmt
    1065 000245 2249          MOV T0, AR1
    1066 000247 0409          BCC $C$L21,AR1 == #0 ; |586| 
         000249 42   
    1067                                                      ; branchcc occurs ; |586| 
    1068                      .dwpsn  file "../FreeRTOS/Source/stream_buffer.c",line 591,column 3,is_stmt
    1069 00024a ED0C          MOV dbl(*SP(#6)), XAR0
         00024c 8F   
    1070              $C$DW$109       .dwtag  DW_TAG_TI_branch
    1071                      .dwattr $C$DW$109, DW_AT_low_pc(0x00)
    1072                      .dwattr $C$DW$109, DW_AT_name("_prvBytesInBuffer")
    1073                      .dwattr $C$DW$109, DW_AT_TI_call
    1074 00024d 0805          CALL #_prvBytesInBuffer ; |591| 
         00024f AC   
    1075                                                      ; call occurs [#_prvBytesInBuffer] ; |591| 
    1076 000250 ED0C          MOV dbl(*SP(#6)), XAR3
         000252 BF   
TMS320C55x Assembler PC v4.4.1 Sat Sep 08 07:38:04 2018

Tools Copyright (c) 1996-2012 Texas Instruments Incorporated
stream_buffer.asm                                                    PAGE   23

    1077 000253 A977          MOV *AR3(short(#3)), AR1 ; |591| 
    1078 000255 1244          CMPU T0 < AR1, TC1 ; |591| 
         000257 94   
    1079 000258 0464          BCC $C$L21,TC1 ; |591| 
         00025a 31   
    1080                                                      ; branchcc occurs ; |591| 
    1081                      .dwpsn  file "../FreeRTOS/Source/stream_buffer.c",line 593,column 4,is_stmt
    1082              $C$DW$110       .dwtag  DW_TAG_TI_branch
    1083                      .dwattr $C$DW$110, DW_AT_low_pc(0x00)
    1084                      .dwattr $C$DW$110, DW_AT_name("_vTaskSuspendAll")
    1085                      .dwattr $C$DW$110, DW_AT_TI_call
    1086 00025b 6C00          CALL #_vTaskSuspendAll ; |593| 
         00025d 0000!
    1087                                                      ; call occurs [#_vTaskSuspendAll] ; |593| 
    1088 00025f ED0C          MOV dbl(*SP(#6)), XAR3
         000261 BF   
    1089 000262 ED79          MOV dbl(*AR3(short(#4))), XAR3
         000264 BF   
    1090 000265 90B0          MOV XAR3, AC0
    1091 000267 0400          BCC $C$L20,AC0 == #0 ; |593| 
         000269 1C   
    1092                                                      ; branchcc occurs ; |593| 
    1093 00026a ED0C          MOV dbl(*SP(#6)), XAR3
         00026c BF   
    1094 00026d EC31          AMOV #0, XAR1 ; |593| 
         00026f 9E00 
         000271 0000 
    1095 000273 3C00          MOV #0, AC0 ; |593| 
    1096 000275 ED79          MOV dbl(*AR3(short(#4))), XAR0
         000277 8F   
    1097              $C$DW$111       .dwtag  DW_TAG_TI_branch
    1098                      .dwattr $C$DW$111, DW_AT_low_pc(0x00)
    1099                      .dwattr $C$DW$111, DW_AT_name("_xTaskGenericNotify")
    1100                      .dwattr $C$DW$111, DW_AT_TI_call
    1101              
    1102 000278 6C00          CALL #_xTaskGenericNotify ; |593| 
         00027a 0000!
    1103 00027c 3D04  ||      MOV #0, T0
    1104              
    1105                                                      ; call occurs [#_xTaskGenericNotify] ; |593| 
    1106 00027e ED0C          MOV dbl(*SP(#6)), XAR3
         000280 BF   
    1107 000281 3C00          MOV #0, AC0 ; |593| 
    1108 000283 EB79          MOV AC0, dbl(*AR3(short(#4)))
         000285 08   
    1109              $C$L20:    
    1110              $C$DW$112       .dwtag  DW_TAG_TI_branch
    1111                      .dwattr $C$DW$112, DW_AT_low_pc(0x00)
    1112                      .dwattr $C$DW$112, DW_AT_name("_xTaskResumeAll")
    1113                      .dwattr $C$DW$112, DW_AT_TI_call
    1114 000286 6C00          CALL #_xTaskResumeAll ; |593| 
         000288 0000!
    1115                                                      ; call occurs [#_xTaskResumeAll] ; |593| 
    1116                      .dwpsn  file "../FreeRTOS/Source/stream_buffer.c",line 594,column 3,is_stmt
    1117 00028a 4A00          B $C$L21  ; |594| 
TMS320C55x Assembler PC v4.4.1 Sat Sep 08 07:38:04 2018

Tools Copyright (c) 1996-2012 Texas Instruments Incorporated
stream_buffer.asm                                                    PAGE   24

    1118                                                      ; branch occurs ; |594| 
    1119 00028c       $C$L21:    
    1120                      .dwpsn  file "../FreeRTOS/Source/stream_buffer.c",line 606,column 2,is_stmt
    1121 00028c A410          MOV *SP(#8), T0 ; |606| 
    1122                      .dwpsn  file "../FreeRTOS/Source/stream_buffer.c",line 607,column 1,is_stmt
    1123 00028e 4E0D          AADD #13, SP
    1124                      .dwcfi  cfa_offset, 1
    1125              $C$DW$113       .dwtag  DW_TAG_TI_branch
    1126                      .dwattr $C$DW$113, DW_AT_low_pc(0x00)
    1127                      .dwattr $C$DW$113, DW_AT_TI_return
    1128 000290 4804          RET
    1129                                                      ; return occurs
    1130              
    1131              $C$DW$114       .dwtag  DW_TAG_TI_loop
    1132                      .dwattr $C$DW$114, DW_AT_name("F:\eZdsp_C55x_FreeRTOS_Port\eZDSP\eZDSP_5535_Files\ccsws2\test\Debug\s
    1133                      .dwattr $C$DW$114, DW_AT_TI_begin_file("../FreeRTOS/Source/stream_buffer.c")
    1134                      .dwattr $C$DW$114, DW_AT_TI_begin_line(0x21b)
    1135                      .dwattr $C$DW$114, DW_AT_TI_end_line(0x238)
    1136              $C$DW$115       .dwtag  DW_TAG_TI_loop_range
    1137                      .dwattr $C$DW$115, DW_AT_low_pc($C$DW$L$_xStreamBufferSend$5$B)
    1138                      .dwattr $C$DW$115, DW_AT_high_pc($C$DW$L$_xStreamBufferSend$5$E)
    1139              $C$DW$116       .dwtag  DW_TAG_TI_loop_range
    1140                      .dwattr $C$DW$116, DW_AT_low_pc($C$DW$L$_xStreamBufferSend$6$B)
    1141                      .dwattr $C$DW$116, DW_AT_high_pc($C$DW$L$_xStreamBufferSend$6$E)
    1142              $C$DW$117       .dwtag  DW_TAG_TI_loop_range
    1143                      .dwattr $C$DW$117, DW_AT_low_pc($C$DW$L$_xStreamBufferSend$10$B)
    1144                      .dwattr $C$DW$117, DW_AT_high_pc($C$DW$L$_xStreamBufferSend$10$E)
    1145              $C$DW$118       .dwtag  DW_TAG_TI_loop_range
    1146                      .dwattr $C$DW$118, DW_AT_low_pc($C$DW$L$_xStreamBufferSend$11$B)
    1147                      .dwattr $C$DW$118, DW_AT_high_pc($C$DW$L$_xStreamBufferSend$11$E)
    1148              $C$DW$119       .dwtag  DW_TAG_TI_loop_range
    1149                      .dwattr $C$DW$119, DW_AT_low_pc($C$DW$L$_xStreamBufferSend$12$B)
    1150                      .dwattr $C$DW$119, DW_AT_high_pc($C$DW$L$_xStreamBufferSend$12$E)
    1151              $C$DW$120       .dwtag  DW_TAG_TI_loop_range
    1152                      .dwattr $C$DW$120, DW_AT_low_pc($C$DW$L$_xStreamBufferSend$13$B)
    1153                      .dwattr $C$DW$120, DW_AT_high_pc($C$DW$L$_xStreamBufferSend$13$E)
    1154                      .dwendtag $C$DW$114
    1155              
    1156                      .dwattr $C$DW$87, DW_AT_TI_end_file("../FreeRTOS/Source/stream_buffer.c")
    1157                      .dwattr $C$DW$87, DW_AT_TI_end_line(0x25f)
    1158                      .dwattr $C$DW$87, DW_AT_TI_end_column(0x01)
    1159                      .dwendentry
    1160                      .dwendtag $C$DW$87
    1161              
    1162 000292               .sect   ".text"
    1163                      .align 4
    1164                      .global _xStreamBufferSendFromISR
    1165              
    1166              $C$DW$121       .dwtag  DW_TAG_subprogram, DW_AT_name("xStreamBufferSendFromISR")
    1167                      .dwattr $C$DW$121, DW_AT_low_pc(_xStreamBufferSendFromISR)
    1168                      .dwattr $C$DW$121, DW_AT_high_pc(0x00)
    1169                      .dwattr $C$DW$121, DW_AT_TI_symbol_name("_xStreamBufferSendFromISR")
    1170                      .dwattr $C$DW$121, DW_AT_external
    1171                      .dwattr $C$DW$121, DW_AT_type(*$C$DW$T$20)
    1172                      .dwattr $C$DW$121, DW_AT_TI_begin_file("../FreeRTOS/Source/stream_buffer.c")
TMS320C55x Assembler PC v4.4.1 Sat Sep 08 07:38:04 2018

Tools Copyright (c) 1996-2012 Texas Instruments Incorporated
stream_buffer.asm                                                    PAGE   25

    1173                      .dwattr $C$DW$121, DW_AT_TI_begin_line(0x262)
    1174                      .dwattr $C$DW$121, DW_AT_TI_begin_column(0x08)
    1175                      .dwattr $C$DW$121, DW_AT_TI_max_frame_size(0x10)
    1176                      .dwpsn  file "../FreeRTOS/Source/stream_buffer.c",line 614,column 1,is_stmt,address _xStreamBufferSen
    1177              
    1178                      .dwfde $C$DW$CIE, _xStreamBufferSendFromISR
    1179              $C$DW$122       .dwtag  DW_TAG_formal_parameter, DW_AT_name("xStreamBuffer")
    1180                      .dwattr $C$DW$122, DW_AT_TI_symbol_name("_xStreamBuffer")
    1181                      .dwattr $C$DW$122, DW_AT_type(*$C$DW$T$40)
    1182                      .dwattr $C$DW$122, DW_AT_location[DW_OP_reg17]
    1183              $C$DW$123       .dwtag  DW_TAG_formal_parameter, DW_AT_name("pvTxData")
    1184                      .dwattr $C$DW$123, DW_AT_TI_symbol_name("_pvTxData")
    1185                      .dwattr $C$DW$123, DW_AT_type(*$C$DW$T$43)
    1186                      .dwattr $C$DW$123, DW_AT_location[DW_OP_reg19]
    1187              $C$DW$124       .dwtag  DW_TAG_formal_parameter, DW_AT_name("xDataLengthBytes")
    1188                      .dwattr $C$DW$124, DW_AT_TI_symbol_name("_xDataLengthBytes")
    1189                      .dwattr $C$DW$124, DW_AT_type(*$C$DW$T$20)
    1190                      .dwattr $C$DW$124, DW_AT_location[DW_OP_reg12]
    1191              $C$DW$125       .dwtag  DW_TAG_formal_parameter, DW_AT_name("pxHigherPriorityTaskWoken")
    1192                      .dwattr $C$DW$125, DW_AT_TI_symbol_name("_pxHigherPriorityTaskWoken")
    1193                      .dwattr $C$DW$125, DW_AT_type(*$C$DW$T$71)
    1194                      .dwattr $C$DW$125, DW_AT_location[DW_OP_reg21]
    1195              ;*******************************************************************************
    1196              ;* FUNCTION NAME: xStreamBufferSendFromISR                                     *
    1197              ;*                                                                             *
    1198              ;*   Function Uses Regs : AC0,AC0,T0,T1,AR0,XAR0,AR1,XAR1,AR2,XAR2,AR3,XAR3,SP,*
    1199              ;*                        CARRY,TC1,M40,SATA,SATD,RDM,FRCT,SMUL                *
    1200              ;*   Stack Frame        : Compact (No Frame Pointer, w/ debug)                 *
    1201              ;*   Total Frame Size   : 16 words                                             *
    1202              ;*                        (2 return address/alignment)                         *
    1203              ;*                        (14 local values)                                    *
    1204              ;*   Min System Stack   : 1 word                                               *
    1205              ;*******************************************************************************
    1206 000294       _xStreamBufferSendFromISR:
    1207                      .dwcfi  cfa_offset, 1
    1208                      .dwcfi  save_reg_to_mem, 91, -1
    1209 000294 4EF1          AADD #-15, SP
    1210                      .dwcfi  cfa_offset, 16
    1211              $C$DW$126       .dwtag  DW_TAG_variable, DW_AT_name("xStreamBuffer")
    1212                      .dwattr $C$DW$126, DW_AT_TI_symbol_name("_xStreamBuffer")
    1213                      .dwattr $C$DW$126, DW_AT_type(*$C$DW$T$40)
    1214                      .dwattr $C$DW$126, DW_AT_location[DW_OP_bregx 0x24 0]
    1215              $C$DW$127       .dwtag  DW_TAG_variable, DW_AT_name("pvTxData")
    1216                      .dwattr $C$DW$127, DW_AT_TI_symbol_name("_pvTxData")
    1217                      .dwattr $C$DW$127, DW_AT_type(*$C$DW$T$43)
    1218                      .dwattr $C$DW$127, DW_AT_location[DW_OP_bregx 0x24 2]
    1219              $C$DW$128       .dwtag  DW_TAG_variable, DW_AT_name("xDataLengthBytes")
    1220                      .dwattr $C$DW$128, DW_AT_TI_symbol_name("_xDataLengthBytes")
    1221                      .dwattr $C$DW$128, DW_AT_type(*$C$DW$T$20)
    1222                      .dwattr $C$DW$128, DW_AT_location[DW_OP_bregx 0x24 4]
    1223              $C$DW$129       .dwtag  DW_TAG_variable, DW_AT_name("pxHigherPriorityTaskWoken")
    1224                      .dwattr $C$DW$129, DW_AT_TI_symbol_name("_pxHigherPriorityTaskWoken")
    1225                      .dwattr $C$DW$129, DW_AT_type(*$C$DW$T$71)
    1226                      .dwattr $C$DW$129, DW_AT_location[DW_OP_bregx 0x24 6]
    1227              $C$DW$130       .dwtag  DW_TAG_variable, DW_AT_name("pxStreamBuffer")
TMS320C55x Assembler PC v4.4.1 Sat Sep 08 07:38:04 2018

Tools Copyright (c) 1996-2012 Texas Instruments Incorporated
stream_buffer.asm                                                    PAGE   26

    1228                      .dwattr $C$DW$130, DW_AT_TI_symbol_name("_pxStreamBuffer")
    1229                      .dwattr $C$DW$130, DW_AT_type(*$C$DW$T$38)
    1230                      .dwattr $C$DW$130, DW_AT_location[DW_OP_bregx 0x24 8]
    1231              $C$DW$131       .dwtag  DW_TAG_variable, DW_AT_name("xReturn")
    1232                      .dwattr $C$DW$131, DW_AT_TI_symbol_name("_xReturn")
    1233                      .dwattr $C$DW$131, DW_AT_type(*$C$DW$T$20)
    1234                      .dwattr $C$DW$131, DW_AT_location[DW_OP_bregx 0x24 10]
    1235              $C$DW$132       .dwtag  DW_TAG_variable, DW_AT_name("xSpace")
    1236                      .dwattr $C$DW$132, DW_AT_TI_symbol_name("_xSpace")
    1237                      .dwattr $C$DW$132, DW_AT_type(*$C$DW$T$20)
    1238                      .dwattr $C$DW$132, DW_AT_location[DW_OP_bregx 0x24 11]
    1239              $C$DW$133       .dwtag  DW_TAG_variable, DW_AT_name("xRequiredSpace")
    1240                      .dwattr $C$DW$133, DW_AT_TI_symbol_name("_xRequiredSpace")
    1241                      .dwattr $C$DW$133, DW_AT_type(*$C$DW$T$20)
    1242                      .dwattr $C$DW$133, DW_AT_location[DW_OP_bregx 0x24 12]
    1243 000296 EB0C          MOV XAR2, dbl(*SP(#6))
         000298 A5   
    1244 000299 C408          MOV T0, *SP(#4) ; |614| 
    1245 00029b EB04          MOV XAR1, dbl(*SP(#2))
         00029d 95   
    1246 00029e EB00          MOV XAR0, dbl(*SP(#0))
         0002a0 85   
    1247                      .dwpsn  file "../FreeRTOS/Source/stream_buffer.c",line 615,column 24,is_stmt
    1248 0002a1 ED00          MOV dbl(*SP(#0)), XAR3
         0002a3 BF   
    1249 0002a4 EB10          MOV XAR3, dbl(*SP(#8))
         0002a6 B5   
    1250                      .dwpsn  file "../FreeRTOS/Source/stream_buffer.c",line 617,column 8,is_stmt
    1251 0002a7 A908          MOV *SP(#4), AR1 ; |617| 
    1252 0002a9 C918          MOV AR1, *SP(#12) ; |617| 
    1253                      .dwpsn  file "../FreeRTOS/Source/stream_buffer.c",line 626,column 2,is_stmt
    1254 0002ab ED10          MOV dbl(*SP(#8)), XAR3
         0002ad BF   
    1255 0002ae DC6D          BTST #0, *AR3(#10), TC1 ; |626| 
         0002b0 0000 
         0002b2 0A   
    1256 0002b3 6274          BCC $C$L22,!TC1 ; |626| 
    1257                                                      ; branchcc occurs ; |626| 
    1258                      .dwpsn  file "../FreeRTOS/Source/stream_buffer.c",line 628,column 3,is_stmt
    1259 0002b5 F718          ADD #1, *SP(#12) ; |628| 
         0002b7 0001 
    1260                      .dwpsn  file "../FreeRTOS/Source/stream_buffer.c",line 629,column 2,is_stmt
    1261 0002b9       $C$L22:    
    1262                      .dwpsn  file "../FreeRTOS/Source/stream_buffer.c",line 635,column 2,is_stmt
    1263 0002b9 ED10          MOV dbl(*SP(#8)), XAR0
         0002bb 8F   
    1264              $C$DW$134       .dwtag  DW_TAG_TI_branch
    1265                      .dwattr $C$DW$134, DW_AT_low_pc(0x00)
    1266                      .dwattr $C$DW$134, DW_AT_name("_xStreamBufferSpacesAvailable")
    1267                      .dwattr $C$DW$134, DW_AT_TI_call
    1268 0002bc 08FE          CALL #_xStreamBufferSpacesAvailable ; |635| 
         0002be 51   
    1269                                                      ; call occurs [#_xStreamBufferSpacesAvailable] ; |635| 
    1270 0002bf C416          MOV T0, *SP(#11) ; |635| 
    1271                      .dwpsn  file "../FreeRTOS/Source/stream_buffer.c",line 636,column 2,is_stmt
TMS320C55x Assembler PC v4.4.1 Sat Sep 08 07:38:04 2018

Tools Copyright (c) 1996-2012 Texas Instruments Incorporated
stream_buffer.asm                                                    PAGE   27

    1272 0002c1 A516          MOV *SP(#11), T1 ; |636| 
    1273 0002c3 ED04          MOV dbl(*SP(#2)), XAR1
         0002c5 9F   
    1274 0002c6 AA18          MOV *SP(#12), AR2 ; |636| 
    1275 0002c8 A408          MOV *SP(#4), T0 ; |636| 
    1276 0002ca ED10          MOV dbl(*SP(#8)), XAR0
         0002cc 8F   
    1277              $C$DW$135       .dwtag  DW_TAG_TI_branch
    1278                      .dwattr $C$DW$135, DW_AT_low_pc(0x00)
    1279                      .dwattr $C$DW$135, DW_AT_name("_prvWriteMessageToBuffer")
    1280                      .dwattr $C$DW$135, DW_AT_TI_call
    1281 0002cd 0800          CALL #_prvWriteMessageToBuffer ; |636| 
         0002cf 50   
    1282                                                      ; call occurs [#_prvWriteMessageToBuffer] ; |636| 
    1283 0002d0 C414          MOV T0, *SP(#10) ; |636| 
    1284                      .dwpsn  file "../FreeRTOS/Source/stream_buffer.c",line 638,column 2,is_stmt
    1285 0002d2 2249          MOV T0, AR1
    1286 0002d4 0409          BCC $C$L23,AR1 == #0 ; |638| 
         0002d6 40   
    1287                                                      ; branchcc occurs ; |638| 
    1288                      .dwpsn  file "../FreeRTOS/Source/stream_buffer.c",line 641,column 3,is_stmt
    1289 0002d7 ED10          MOV dbl(*SP(#8)), XAR0
         0002d9 8F   
    1290              $C$DW$136       .dwtag  DW_TAG_TI_branch
    1291                      .dwattr $C$DW$136, DW_AT_low_pc(0x00)
    1292                      .dwattr $C$DW$136, DW_AT_name("_prvBytesInBuffer")
    1293                      .dwattr $C$DW$136, DW_AT_TI_call
    1294 0002da 0805          CALL #_prvBytesInBuffer ; |641| 
         0002dc 1F   
    1295                                                      ; call occurs [#_prvBytesInBuffer] ; |641| 
    1296 0002dd ED10          MOV dbl(*SP(#8)), XAR3
         0002df BF   
    1297 0002e0 A977          MOV *AR3(short(#3)), AR1 ; |641| 
    1298 0002e2 1244          CMPU T0 < AR1, TC1 ; |641| 
         0002e4 94   
    1299 0002e5 0464          BCC $C$L23,TC1 ; |641| 
         0002e7 2F   
    1300                                                      ; branchcc occurs ; |641| 
    1301              
    1302              $C$DW$137       .dwtag  DW_TAG_lexical_block, DW_AT_low_pc(0x00), DW_AT_high_pc(0x00)
    1303              $C$DW$138       .dwtag  DW_TAG_variable, DW_AT_name("uxSavedInterruptStatus")
    1304                      .dwattr $C$DW$138, DW_AT_TI_symbol_name("_uxSavedInterruptStatus")
    1305                      .dwattr $C$DW$138, DW_AT_type(*$C$DW$T$85)
    1306                      .dwattr $C$DW$138, DW_AT_location[DW_OP_bregx 0x24 13]
    1307                      .dwpsn  file "../FreeRTOS/Source/stream_buffer.c",line 643,column 4,is_stmt
    1308 0002e8 E61A          MOV #0, *SP(#13) ; |643| 
         0002ea 00   
    1309 0002eb ED10          MOV dbl(*SP(#8)), XAR3
         0002ed BF   
    1310 0002ee ED79          MOV dbl(*AR3(short(#4))), XAR3
         0002f0 BF   
    1311 0002f1 90B0          MOV XAR3, AC0
    1312 0002f3 0400          BCC $C$L23,AC0 == #0 ; |643| 
         0002f5 21   
    1313                                                      ; branchcc occurs ; |643| 
TMS320C55x Assembler PC v4.4.1 Sat Sep 08 07:38:04 2018

Tools Copyright (c) 1996-2012 Texas Instruments Incorporated
stream_buffer.asm                                                    PAGE   28

    1314 0002f6 ED10          MOV dbl(*SP(#8)), XAR3
         0002f8 BF   
    1315 0002f9 ED0C          MOV dbl(*SP(#6)), XAR2
         0002fb AF   
    1316 0002fc EC31          AMOV #0, XAR1 ; |643| 
         0002fe 9E00 
         000300 0000 
    1317 000302 3C00          MOV #0, AC0 ; |643| 
    1318 000304 ED79          MOV dbl(*AR3(short(#4))), XAR0
         000306 8F   
    1319              $C$DW$139       .dwtag  DW_TAG_TI_branch
    1320                      .dwattr $C$DW$139, DW_AT_low_pc(0x00)
    1321                      .dwattr $C$DW$139, DW_AT_name("_xTaskGenericNotifyFromISR")
    1322                      .dwattr $C$DW$139, DW_AT_TI_call
    1323              
    1324 000307 6C00          CALL #_xTaskGenericNotifyFromISR ; |643| 
         000309 0000!
    1325 00030b 3D04  ||      MOV #0, T0
    1326              
    1327                                                      ; call occurs [#_xTaskGenericNotifyFromISR] ; |643| 
    1328 00030d ED10          MOV dbl(*SP(#8)), XAR3
         00030f BF   
    1329 000310 3C00          MOV #0, AC0 ; |643| 
    1330 000312 EB79          MOV AC0, dbl(*AR3(short(#4)))
         000314 08   
    1331                      .dwendtag $C$DW$137
    1332              
    1333                      .dwpsn  file "../FreeRTOS/Source/stream_buffer.c",line 644,column 3,is_stmt
    1334 000315 4A00          B $C$L23  ; |644| 
    1335                                                      ; branch occurs ; |644| 
    1336 000317       $C$L23:    
    1337                      .dwpsn  file "../FreeRTOS/Source/stream_buffer.c",line 657,column 2,is_stmt
    1338 000317 A414          MOV *SP(#10), T0 ; |657| 
    1339                      .dwpsn  file "../FreeRTOS/Source/stream_buffer.c",line 658,column 1,is_stmt
    1340 000319 4E0F          AADD #15, SP
    1341                      .dwcfi  cfa_offset, 1
    1342              $C$DW$140       .dwtag  DW_TAG_TI_branch
    1343                      .dwattr $C$DW$140, DW_AT_low_pc(0x00)
    1344                      .dwattr $C$DW$140, DW_AT_TI_return
    1345 00031b 4804          RET
    1346                                                      ; return occurs
    1347                      .dwattr $C$DW$121, DW_AT_TI_end_file("../FreeRTOS/Source/stream_buffer.c")
    1348                      .dwattr $C$DW$121, DW_AT_TI_end_line(0x292)
    1349                      .dwattr $C$DW$121, DW_AT_TI_end_column(0x01)
    1350                      .dwendentry
    1351                      .dwendtag $C$DW$121
    1352              
    1353 00031d               .sect   ".text"
    1354                      .align 4
    1355              
    1356              $C$DW$141       .dwtag  DW_TAG_subprogram, DW_AT_name("prvWriteMessageToBuffer")
    1357                      .dwattr $C$DW$141, DW_AT_low_pc(_prvWriteMessageToBuffer)
    1358                      .dwattr $C$DW$141, DW_AT_high_pc(0x00)
    1359                      .dwattr $C$DW$141, DW_AT_TI_symbol_name("_prvWriteMessageToBuffer")
    1360                      .dwattr $C$DW$141, DW_AT_type(*$C$DW$T$20)
TMS320C55x Assembler PC v4.4.1 Sat Sep 08 07:38:04 2018

Tools Copyright (c) 1996-2012 Texas Instruments Incorporated
stream_buffer.asm                                                    PAGE   29

    1361                      .dwattr $C$DW$141, DW_AT_TI_begin_file("../FreeRTOS/Source/stream_buffer.c")
    1362                      .dwattr $C$DW$141, DW_AT_TI_begin_line(0x295)
    1363                      .dwattr $C$DW$141, DW_AT_TI_begin_column(0x0f)
    1364                      .dwattr $C$DW$141, DW_AT_TI_max_frame_size(0x0a)
    1365                      .dwpsn  file "../FreeRTOS/Source/stream_buffer.c",line 666,column 1,is_stmt,address _prvWriteMessageT
    1366              
    1367                      .dwfde $C$DW$CIE, _prvWriteMessageToBuffer
    1368              $C$DW$142       .dwtag  DW_TAG_formal_parameter, DW_AT_name("pxStreamBuffer")
    1369                      .dwattr $C$DW$142, DW_AT_TI_symbol_name("_pxStreamBuffer")
    1370                      .dwattr $C$DW$142, DW_AT_type(*$C$DW$T$38)
    1371                      .dwattr $C$DW$142, DW_AT_location[DW_OP_reg17]
    1372              $C$DW$143       .dwtag  DW_TAG_formal_parameter, DW_AT_name("pvTxData")
    1373                      .dwattr $C$DW$143, DW_AT_TI_symbol_name("_pvTxData")
    1374                      .dwattr $C$DW$143, DW_AT_type(*$C$DW$T$43)
    1375                      .dwattr $C$DW$143, DW_AT_location[DW_OP_reg19]
    1376              $C$DW$144       .dwtag  DW_TAG_formal_parameter, DW_AT_name("xDataLengthBytes")
    1377                      .dwattr $C$DW$144, DW_AT_TI_symbol_name("_xDataLengthBytes")
    1378                      .dwattr $C$DW$144, DW_AT_type(*$C$DW$T$20)
    1379                      .dwattr $C$DW$144, DW_AT_location[DW_OP_reg12]
    1380              $C$DW$145       .dwtag  DW_TAG_formal_parameter, DW_AT_name("xSpace")
    1381                      .dwattr $C$DW$145, DW_AT_TI_symbol_name("_xSpace")
    1382                      .dwattr $C$DW$145, DW_AT_type(*$C$DW$T$20)
    1383                      .dwattr $C$DW$145, DW_AT_location[DW_OP_reg13]
    1384              $C$DW$146       .dwtag  DW_TAG_formal_parameter, DW_AT_name("xRequiredSpace")
    1385                      .dwattr $C$DW$146, DW_AT_TI_symbol_name("_xRequiredSpace")
    1386                      .dwattr $C$DW$146, DW_AT_type(*$C$DW$T$20)
    1387                      .dwattr $C$DW$146, DW_AT_location[DW_OP_reg20]
    1388              ;*******************************************************************************
    1389              ;* FUNCTION NAME: prvWriteMessageToBuffer                                      *
    1390              ;*                                                                             *
    1391              ;*   Function Uses Regs : T0,T1,AR0,XAR0,AR1,XAR1,AR2,AR3,XAR3,SP,TC1,M40,SATA,*
    1392              ;*                        SATD,RDM,FRCT,SMUL                                   *
    1393              ;*   Stack Frame        : Compact (No Frame Pointer, w/ debug)                 *
    1394              ;*   Total Frame Size   : 10 words                                             *
    1395              ;*                        (1 return address/alignment)                         *
    1396              ;*                        (9 local values)                                     *
    1397              ;*   Min System Stack   : 1 word                                               *
    1398              ;*******************************************************************************
    1399 000320       _prvWriteMessageToBuffer:
    1400                      .dwcfi  cfa_offset, 1
    1401                      .dwcfi  save_reg_to_mem, 91, -1
    1402 000320 4EF7          AADD #-9, SP
    1403                      .dwcfi  cfa_offset, 10
    1404              $C$DW$147       .dwtag  DW_TAG_variable, DW_AT_name("pxStreamBuffer")
    1405                      .dwattr $C$DW$147, DW_AT_TI_symbol_name("_pxStreamBuffer")
    1406                      .dwattr $C$DW$147, DW_AT_type(*$C$DW$T$38)
    1407                      .dwattr $C$DW$147, DW_AT_location[DW_OP_bregx 0x24 0]
    1408              $C$DW$148       .dwtag  DW_TAG_variable, DW_AT_name("pvTxData")
    1409                      .dwattr $C$DW$148, DW_AT_TI_symbol_name("_pvTxData")
    1410                      .dwattr $C$DW$148, DW_AT_type(*$C$DW$T$43)
    1411                      .dwattr $C$DW$148, DW_AT_location[DW_OP_bregx 0x24 2]
    1412              $C$DW$149       .dwtag  DW_TAG_variable, DW_AT_name("xDataLengthBytes")
    1413                      .dwattr $C$DW$149, DW_AT_TI_symbol_name("_xDataLengthBytes")
    1414                      .dwattr $C$DW$149, DW_AT_type(*$C$DW$T$20)
    1415                      .dwattr $C$DW$149, DW_AT_location[DW_OP_bregx 0x24 4]
TMS320C55x Assembler PC v4.4.1 Sat Sep 08 07:38:04 2018

Tools Copyright (c) 1996-2012 Texas Instruments Incorporated
stream_buffer.asm                                                    PAGE   30

    1416              $C$DW$150       .dwtag  DW_TAG_variable, DW_AT_name("xSpace")
    1417                      .dwattr $C$DW$150, DW_AT_TI_symbol_name("_xSpace")
    1418                      .dwattr $C$DW$150, DW_AT_type(*$C$DW$T$20)
    1419                      .dwattr $C$DW$150, DW_AT_location[DW_OP_bregx 0x24 5]
    1420              $C$DW$151       .dwtag  DW_TAG_variable, DW_AT_name("xRequiredSpace")
    1421                      .dwattr $C$DW$151, DW_AT_TI_symbol_name("_xRequiredSpace")
    1422                      .dwattr $C$DW$151, DW_AT_type(*$C$DW$T$20)
    1423                      .dwattr $C$DW$151, DW_AT_location[DW_OP_bregx 0x24 6]
    1424              $C$DW$152       .dwtag  DW_TAG_variable, DW_AT_name("xShouldWrite")
    1425                      .dwattr $C$DW$152, DW_AT_TI_symbol_name("_xShouldWrite")
    1426                      .dwattr $C$DW$152, DW_AT_type(*$C$DW$T$28)
    1427                      .dwattr $C$DW$152, DW_AT_location[DW_OP_bregx 0x24 7]
    1428              $C$DW$153       .dwtag  DW_TAG_variable, DW_AT_name("xReturn")
    1429                      .dwattr $C$DW$153, DW_AT_TI_symbol_name("_xReturn")
    1430                      .dwattr $C$DW$153, DW_AT_type(*$C$DW$T$20)
    1431                      .dwattr $C$DW$153, DW_AT_location[DW_OP_bregx 0x24 8]
    1432 000322 CA0C          MOV AR2, *SP(#6) ; |666| 
    1433 000324 C50A          MOV T1, *SP(#5) ; |666| 
    1434 000326 C408          MOV T0, *SP(#4) ; |666| 
    1435 000328 EB04          MOV XAR1, dbl(*SP(#2))
         00032a 95   
    1436 00032b EB00          MOV XAR0, dbl(*SP(#0))
         00032d 85   
    1437                      .dwpsn  file "../FreeRTOS/Source/stream_buffer.c",line 670,column 2,is_stmt
    1438 00032e A90A          MOV *SP(#5), AR1 ; |670| 
    1439 000330 6299          BCC $C$L24,AR1 != #0 ; |670| 
    1440                                                      ; branchcc occurs ; |670| 
    1441                      .dwpsn  file "../FreeRTOS/Source/stream_buffer.c",line 674,column 3,is_stmt
    1442 000332 E60E          MOV #0, *SP(#7) ; |674| 
         000334 00   
    1443                      .dwpsn  file "../FreeRTOS/Source/stream_buffer.c",line 675,column 2,is_stmt
    1444 000335 4A3A          B $C$L28  ; |675| 
    1445                                                      ; branch occurs ; |675| 
    1446 000337       $C$L24:    
    1447                      .dwpsn  file "../FreeRTOS/Source/stream_buffer.c",line 676,column 7,is_stmt
    1448 000337 ED00          MOV dbl(*SP(#0)), XAR3
         000339 BF   
    1449 00033a DC6D          BTST #0, *AR3(#10), TC1 ; |676| 
         00033c 0000 
         00033e 0A   
    1450 00033f 0464          BCC $C$L26,TC1 ; |676| 
         000341 12   
    1451                                                      ; branchcc occurs ; |676| 
    1452                      .dwpsn  file "../FreeRTOS/Source/stream_buffer.c",line 681,column 3,is_stmt
    1453 000342 E60E          MOV #1, *SP(#7) ; |681| 
         000344 01   
    1454                      .dwpsn  file "../FreeRTOS/Source/stream_buffer.c",line 682,column 3,is_stmt
    1455 000345 A90A          MOV *SP(#5), AR1 ; |682| 
    1456 000347 AA08          MOV *SP(#4), AR2 ; |682| 
    1457 000349 12A8          CMPU AR2 >= AR1, TC1 ; |682| 
         00034b 94   
    1458 00034c 6164          BCC $C$L25,TC1 ; |682| 
    1459                                                      ; branchcc occurs ; |682| 
    1460 00034e 22A9          MOV AR2, AR1
    1461 000350       $C$L25:    
TMS320C55x Assembler PC v4.4.1 Sat Sep 08 07:38:04 2018

Tools Copyright (c) 1996-2012 Texas Instruments Incorporated
stream_buffer.asm                                                    PAGE   31

    1462 000350 C908          MOV AR1, *SP(#4) ; |682| 
    1463                      .dwpsn  file "../FreeRTOS/Source/stream_buffer.c",line 683,column 2,is_stmt
    1464 000352 4A1D          B $C$L28  ; |683| 
    1465                                                      ; branch occurs ; |683| 
    1466 000354       $C$L26:    
    1467                      .dwpsn  file "../FreeRTOS/Source/stream_buffer.c",line 684,column 7,is_stmt
    1468 000354 A90C          MOV *SP(#6), AR1 ; |684| 
    1469 000356 AA0A          MOV *SP(#5), AR2 ; |684| 
    1470 000358 12A4          CMPU AR2 < AR1, TC1 ; |684| 
         00035a 94   
    1471 00035b 0464          BCC $C$L27,TC1 ; |684| 
         00035d 10   
    1472                                                      ; branchcc occurs ; |684| 
    1473                      .dwpsn  file "../FreeRTOS/Source/stream_buffer.c",line 690,column 3,is_stmt
    1474 00035e E60E          MOV #1, *SP(#7) ; |690| 
         000360 01   
    1475                      .dwpsn  file "../FreeRTOS/Source/stream_buffer.c",line 691,column 3,is_stmt
    1476 000361 EC08          AMAR *SP(#4), XAR1
         000363 9E   
    1477 000364 ED00          MOV dbl(*SP(#0)), XAR0
         000366 8F   
    1478              $C$DW$154       .dwtag  DW_TAG_TI_branch
    1479                      .dwattr $C$DW$154, DW_AT_low_pc(0x00)
    1480                      .dwattr $C$DW$154, DW_AT_name("_prvWriteBytesToBuffer")
    1481                      .dwattr $C$DW$154, DW_AT_TI_call
    1482              
    1483 000367 0803          CALL #_prvWriteBytesToBuffer ; |691| 
         000369 5C   
    1484 00036a 3D14  ||      MOV #1, T0
    1485              
    1486                                                      ; call occurs [#_prvWriteBytesToBuffer] ; |691| 
    1487                      .dwpsn  file "../FreeRTOS/Source/stream_buffer.c",line 692,column 2,is_stmt
    1488 00036c 4A03          B $C$L28  ; |692| 
    1489                                                      ; branch occurs ; |692| 
    1490 00036e       $C$L27:    
    1491                      .dwpsn  file "../FreeRTOS/Source/stream_buffer.c",line 696,column 3,is_stmt
    1492 00036e E60E          MOV #0, *SP(#7) ; |696| 
         000370 00   
    1493 000371       $C$L28:    
    1494                      .dwpsn  file "../FreeRTOS/Source/stream_buffer.c",line 699,column 2,is_stmt
    1495 000371 A90E          MOV *SP(#7), AR1 ; |699| 
    1496 000373 6789          BCC $C$L29,AR1 == #0 ; |699| 
    1497                                                      ; branchcc occurs ; |699| 
    1498                      .dwpsn  file "../FreeRTOS/Source/stream_buffer.c",line 702,column 3,is_stmt
    1499 000375 ED00          MOV dbl(*SP(#0)), XAR0
         000377 8F   
    1500 000378 ED04          MOV dbl(*SP(#2)), XAR1
         00037a 9F   
    1501 00037b A408          MOV *SP(#4), T0 ; |702| 
    1502              $C$DW$155       .dwtag  DW_TAG_TI_branch
    1503                      .dwattr $C$DW$155, DW_AT_low_pc(0x00)
    1504                      .dwattr $C$DW$155, DW_AT_name("_prvWriteBytesToBuffer")
    1505                      .dwattr $C$DW$155, DW_AT_TI_call
    1506 00037d 0803          CALL #_prvWriteBytesToBuffer ; |702| 
         00037f 48   
TMS320C55x Assembler PC v4.4.1 Sat Sep 08 07:38:04 2018

Tools Copyright (c) 1996-2012 Texas Instruments Incorporated
stream_buffer.asm                                                    PAGE   32

    1507                                                      ; call occurs [#_prvWriteBytesToBuffer] ; |702| 
    1508 000380 C410          MOV T0, *SP(#8) ; |702| 
    1509                      .dwpsn  file "../FreeRTOS/Source/stream_buffer.c",line 703,column 2,is_stmt
    1510 000382 4A03          B $C$L30  ; |703| 
    1511                                                      ; branch occurs ; |703| 
    1512 000384       $C$L29:    
    1513                      .dwpsn  file "../FreeRTOS/Source/stream_buffer.c",line 706,column 3,is_stmt
    1514 000384 E610          MOV #0, *SP(#8) ; |706| 
         000386 00   
    1515 000387       $C$L30:    
    1516                      .dwpsn  file "../FreeRTOS/Source/stream_buffer.c",line 709,column 2,is_stmt
    1517 000387 A410          MOV *SP(#8), T0 ; |709| 
    1518                      .dwpsn  file "../FreeRTOS/Source/stream_buffer.c",line 710,column 1,is_stmt
    1519 000389 4E09          AADD #9, SP
    1520                      .dwcfi  cfa_offset, 1
    1521              $C$DW$156       .dwtag  DW_TAG_TI_branch
    1522                      .dwattr $C$DW$156, DW_AT_low_pc(0x00)
    1523                      .dwattr $C$DW$156, DW_AT_TI_return
    1524 00038b 4804          RET
    1525                                                      ; return occurs
    1526                      .dwattr $C$DW$141, DW_AT_TI_end_file("../FreeRTOS/Source/stream_buffer.c")
    1527                      .dwattr $C$DW$141, DW_AT_TI_end_line(0x2c6)
    1528                      .dwattr $C$DW$141, DW_AT_TI_end_column(0x01)
    1529                      .dwendentry
    1530                      .dwendtag $C$DW$141
    1531              
    1532 00038d               .sect   ".text"
    1533                      .align 4
    1534                      .global _xStreamBufferReceive
    1535              
    1536              $C$DW$157       .dwtag  DW_TAG_subprogram, DW_AT_name("xStreamBufferReceive")
    1537                      .dwattr $C$DW$157, DW_AT_low_pc(_xStreamBufferReceive)
    1538                      .dwattr $C$DW$157, DW_AT_high_pc(0x00)
    1539                      .dwattr $C$DW$157, DW_AT_TI_symbol_name("_xStreamBufferReceive")
    1540                      .dwattr $C$DW$157, DW_AT_external
    1541                      .dwattr $C$DW$157, DW_AT_type(*$C$DW$T$20)
    1542                      .dwattr $C$DW$157, DW_AT_TI_begin_file("../FreeRTOS/Source/stream_buffer.c")
    1543                      .dwattr $C$DW$157, DW_AT_TI_begin_line(0x2c9)
    1544                      .dwattr $C$DW$157, DW_AT_TI_begin_column(0x08)
    1545                      .dwattr $C$DW$157, DW_AT_TI_max_frame_size(0x0c)
    1546                      .dwpsn  file "../FreeRTOS/Source/stream_buffer.c",line 717,column 1,is_stmt,address _xStreamBufferRec
    1547              
    1548                      .dwfde $C$DW$CIE, _xStreamBufferReceive
    1549              $C$DW$158       .dwtag  DW_TAG_formal_parameter, DW_AT_name("xStreamBuffer")
    1550                      .dwattr $C$DW$158, DW_AT_TI_symbol_name("_xStreamBuffer")
    1551                      .dwattr $C$DW$158, DW_AT_type(*$C$DW$T$40)
    1552                      .dwattr $C$DW$158, DW_AT_location[DW_OP_reg17]
    1553              $C$DW$159       .dwtag  DW_TAG_formal_parameter, DW_AT_name("pvRxData")
    1554                      .dwattr $C$DW$159, DW_AT_TI_symbol_name("_pvRxData")
    1555                      .dwattr $C$DW$159, DW_AT_type(*$C$DW$T$3)
    1556                      .dwattr $C$DW$159, DW_AT_location[DW_OP_reg19]
    1557              $C$DW$160       .dwtag  DW_TAG_formal_parameter, DW_AT_name("xBufferLengthBytes")
    1558                      .dwattr $C$DW$160, DW_AT_TI_symbol_name("_xBufferLengthBytes")
    1559                      .dwattr $C$DW$160, DW_AT_type(*$C$DW$T$20)
    1560                      .dwattr $C$DW$160, DW_AT_location[DW_OP_reg12]
TMS320C55x Assembler PC v4.4.1 Sat Sep 08 07:38:04 2018

Tools Copyright (c) 1996-2012 Texas Instruments Incorporated
stream_buffer.asm                                                    PAGE   33

    1561              $C$DW$161       .dwtag  DW_TAG_formal_parameter, DW_AT_name("xTicksToWait")
    1562                      .dwattr $C$DW$161, DW_AT_TI_symbol_name("_xTicksToWait")
    1563                      .dwattr $C$DW$161, DW_AT_type(*$C$DW$T$29)
    1564                      .dwattr $C$DW$161, DW_AT_location[DW_OP_reg13]
    1565              ;*******************************************************************************
    1566              ;* FUNCTION NAME: xStreamBufferReceive                                         *
    1567              ;*                                                                             *
    1568              ;*   Function Uses Regs : AC0,AC0,AC1,AC1,T0,T1,AR0,XAR0,AR1,XAR1,AR2,AR3,XAR3,*
    1569              ;*                        SP,CARRY,TC1,M40,SATA,SATD,RDM,FRCT,SMUL             *
    1570              ;*   Stack Frame        : Compact (No Frame Pointer, w/ debug)                 *
    1571              ;*   Total Frame Size   : 12 words                                             *
    1572              ;*                        (1 return address/alignment)                         *
    1573              ;*                        (11 local values)                                    *
    1574              ;*   Min System Stack   : 1 word                                               *
    1575              ;*******************************************************************************
    1576 000390       _xStreamBufferReceive:
    1577                      .dwcfi  cfa_offset, 1
    1578                      .dwcfi  save_reg_to_mem, 91, -1
    1579 000390 4EF5          AADD #-11, SP
    1580                      .dwcfi  cfa_offset, 12
    1581              $C$DW$162       .dwtag  DW_TAG_variable, DW_AT_name("xStreamBuffer")
    1582                      .dwattr $C$DW$162, DW_AT_TI_symbol_name("_xStreamBuffer")
    1583                      .dwattr $C$DW$162, DW_AT_type(*$C$DW$T$40)
    1584                      .dwattr $C$DW$162, DW_AT_location[DW_OP_bregx 0x24 0]
    1585              $C$DW$163       .dwtag  DW_TAG_variable, DW_AT_name("pvRxData")
    1586                      .dwattr $C$DW$163, DW_AT_TI_symbol_name("_pvRxData")
    1587                      .dwattr $C$DW$163, DW_AT_type(*$C$DW$T$3)
    1588                      .dwattr $C$DW$163, DW_AT_location[DW_OP_bregx 0x24 2]
    1589              $C$DW$164       .dwtag  DW_TAG_variable, DW_AT_name("xBufferLengthBytes")
    1590                      .dwattr $C$DW$164, DW_AT_TI_symbol_name("_xBufferLengthBytes")
    1591                      .dwattr $C$DW$164, DW_AT_type(*$C$DW$T$20)
    1592                      .dwattr $C$DW$164, DW_AT_location[DW_OP_bregx 0x24 4]
    1593              $C$DW$165       .dwtag  DW_TAG_variable, DW_AT_name("xTicksToWait")
    1594                      .dwattr $C$DW$165, DW_AT_TI_symbol_name("_xTicksToWait")
    1595                      .dwattr $C$DW$165, DW_AT_type(*$C$DW$T$29)
    1596                      .dwattr $C$DW$165, DW_AT_location[DW_OP_bregx 0x24 5]
    1597              $C$DW$166       .dwtag  DW_TAG_variable, DW_AT_name("pxStreamBuffer")
    1598                      .dwattr $C$DW$166, DW_AT_TI_symbol_name("_pxStreamBuffer")
    1599                      .dwattr $C$DW$166, DW_AT_type(*$C$DW$T$38)
    1600                      .dwattr $C$DW$166, DW_AT_location[DW_OP_bregx 0x24 6]
    1601              $C$DW$167       .dwtag  DW_TAG_variable, DW_AT_name("xReceivedLength")
    1602                      .dwattr $C$DW$167, DW_AT_TI_symbol_name("_xReceivedLength")
    1603                      .dwattr $C$DW$167, DW_AT_type(*$C$DW$T$20)
    1604                      .dwattr $C$DW$167, DW_AT_location[DW_OP_bregx 0x24 8]
    1605              $C$DW$168       .dwtag  DW_TAG_variable, DW_AT_name("xBytesAvailable")
    1606                      .dwattr $C$DW$168, DW_AT_TI_symbol_name("_xBytesAvailable")
    1607                      .dwattr $C$DW$168, DW_AT_type(*$C$DW$T$20)
    1608                      .dwattr $C$DW$168, DW_AT_location[DW_OP_bregx 0x24 9]
    1609              $C$DW$169       .dwtag  DW_TAG_variable, DW_AT_name("xBytesToStoreMessageLength")
    1610                      .dwattr $C$DW$169, DW_AT_TI_symbol_name("_xBytesToStoreMessageLength")
    1611                      .dwattr $C$DW$169, DW_AT_type(*$C$DW$T$20)
    1612                      .dwattr $C$DW$169, DW_AT_location[DW_OP_bregx 0x24 10]
    1613 000392 C50A          MOV T1, *SP(#5) ; |717| 
    1614 000394 C408          MOV T0, *SP(#4) ; |717| 
    1615 000396 EB04          MOV XAR1, dbl(*SP(#2))
TMS320C55x Assembler PC v4.4.1 Sat Sep 08 07:38:04 2018

Tools Copyright (c) 1996-2012 Texas Instruments Incorporated
stream_buffer.asm                                                    PAGE   34

         000398 95   
    1616 000399 EB00          MOV XAR0, dbl(*SP(#0))
         00039b 85   
    1617                      .dwpsn  file "../FreeRTOS/Source/stream_buffer.c",line 718,column 24,is_stmt
    1618 00039c ED00          MOV dbl(*SP(#0)), XAR3
         00039e BF   
    1619 00039f EB0C          MOV XAR3, dbl(*SP(#6))
         0003a1 B5   
    1620                      .dwpsn  file "../FreeRTOS/Source/stream_buffer.c",line 719,column 8,is_stmt
    1621 0003a2 E610          MOV #0, *SP(#8) ; |719| 
         0003a4 00   
    1622                      .dwpsn  file "../FreeRTOS/Source/stream_buffer.c",line 729,column 2,is_stmt
    1623 0003a5 ED0C          MOV dbl(*SP(#6)), XAR3
         0003a7 BF   
    1624 0003a8 DC6D          BTST #0, *AR3(#10), TC1 ; |729| 
         0003aa 0000 
         0003ac 0A   
    1625 0003ad 62F4          BCC $C$L31,!TC1 ; |729| 
    1626                                                      ; branchcc occurs ; |729| 
    1627                      .dwpsn  file "../FreeRTOS/Source/stream_buffer.c",line 731,column 3,is_stmt
    1628 0003af E614          MOV #1, *SP(#10) ; |731| 
         0003b1 01   
    1629                      .dwpsn  file "../FreeRTOS/Source/stream_buffer.c",line 732,column 2,is_stmt
    1630 0003b2 4A03          B $C$L32  ; |732| 
    1631                                                      ; branch occurs ; |732| 
    1632 0003b4       $C$L31:    
    1633                      .dwpsn  file "../FreeRTOS/Source/stream_buffer.c",line 735,column 3,is_stmt
    1634 0003b4 E614          MOV #0, *SP(#10) ; |735| 
         0003b6 00   
    1635 0003b7       $C$L32:    
    1636                      .dwpsn  file "../FreeRTOS/Source/stream_buffer.c",line 738,column 2,is_stmt
    1637 0003b7 A90A          MOV *SP(#5), AR1 ; |738| 
    1638 0003b9 0409          BCC $C$L35,AR1 == #0 ; |738| 
         0003bb 78   
    1639                                                      ; branchcc occurs ; |738| 
    1640                      .dwpsn  file "../FreeRTOS/Source/stream_buffer.c",line 742,column 3,is_stmt
    1641 0003bc 20     nop
    1642 0003bd 46B3   bset INTM
    1643 0003bf F731          ADD #1, *(#_usCriticalNesting) ; |742| 
         0003c1 0001 
         0003c3 0000 
         0003c5 00!  
    1644                      .dwpsn  file "../FreeRTOS/Source/stream_buffer.c",line 744,column 4,is_stmt
    1645 0003c6 ED0C          MOV dbl(*SP(#6)), XAR0
         0003c8 8F   
    1646              $C$DW$170       .dwtag  DW_TAG_TI_branch
    1647                      .dwattr $C$DW$170, DW_AT_low_pc(0x00)
    1648                      .dwattr $C$DW$170, DW_AT_name("_prvBytesInBuffer")
    1649                      .dwattr $C$DW$170, DW_AT_TI_call
    1650 0003c9 0804          CALL #_prvBytesInBuffer ; |744| 
         0003cb 30   
    1651                                                      ; call occurs [#_prvBytesInBuffer] ; |744| 
    1652 0003cc C412          MOV T0, *SP(#9) ; |744| 
    1653                      .dwpsn  file "../FreeRTOS/Source/stream_buffer.c",line 751,column 4,is_stmt
    1654              
TMS320C55x Assembler PC v4.4.1 Sat Sep 08 07:38:04 2018

Tools Copyright (c) 1996-2012 Texas Instruments Incorporated
stream_buffer.asm                                                    PAGE   35

    1655 0003ce A914          MOV *SP(#10), AR1 ; |751| 
    1656 0003d0 234A  ||      MOV T0, AR2 ; |751| 
    1657              
    1658 0003d2 1294          CMPU AR2 > AR1, TC1 ; |751| 
         0003d4 A4   
    1659 0003d5 0464          BCC $C$L33,TC1 ; |751| 
         0003d7 14   
    1660                                                      ; branchcc occurs ; |751| 
    1661                      .dwpsn  file "../FreeRTOS/Source/stream_buffer.c",line 754,column 5,is_stmt
    1662 0003d8 EC31          AMOV #0, XAR0 ; |754| 
         0003da 8E00 
         0003dc 0000 
    1663              $C$DW$171       .dwtag  DW_TAG_TI_branch
    1664                      .dwattr $C$DW$171, DW_AT_low_pc(0x00)
    1665                      .dwattr $C$DW$171, DW_AT_name("_xTaskNotifyStateClear")
    1666                      .dwattr $C$DW$171, DW_AT_TI_call
    1667 0003de 6C00          CALL #_xTaskNotifyStateClear ; |754| 
         0003e0 0000!
    1668                                                      ; call occurs [#_xTaskNotifyStateClear] ; |754| 
    1669                      .dwpsn  file "../FreeRTOS/Source/stream_buffer.c",line 758,column 5,is_stmt
    1670              $C$DW$172       .dwtag  DW_TAG_TI_branch
    1671                      .dwattr $C$DW$172, DW_AT_low_pc(0x00)
    1672                      .dwattr $C$DW$172, DW_AT_name("_xTaskGetCurrentTaskHandle")
    1673                      .dwattr $C$DW$172, DW_AT_TI_call
    1674 0003e2 6C00          CALL #_xTaskGetCurrentTaskHandle ; |758| 
         0003e4 0000!
    1675                                                      ; call occurs [#_xTaskGetCurrentTaskHandle] ; |758| 
    1676 0003e6 ED0C          MOV dbl(*SP(#6)), XAR3
         0003e8 BF   
    1677 0003e9 EB79          MOV XAR0, dbl(*AR3(short(#4)))
         0003eb 85   
    1678                      .dwpsn  file "../FreeRTOS/Source/stream_buffer.c",line 759,column 4,is_stmt
    1679 0003ec       $C$L33:    
    1680                      .dwpsn  file "../FreeRTOS/Source/stream_buffer.c",line 765,column 3,is_stmt
    1681 0003ec A931          MOV *(#_usCriticalNesting), AR1 ; |765| 
         0003ee 0000 
         0003f0 00!  
    1682 0003f1 0409          BCC $C$L34,AR1 == #0 ; |765| 
         0003f3 14   
    1683                                                      ; branchcc occurs ; |765| 
    1684 0003f4 F731          SUB #1, *(#_usCriticalNesting) ; |765| 
         0003f6 FFFF 
         0003f8 0000 
         0003fa 00!  
    1685 0003fb 20            NOP
    1686 0003fc 20            NOP
    1687 0003fd 20            NOP
    1688 0003fe A931          MOV *(#_usCriticalNesting), AR1 ; |765| 
         000400 0000 
         000402 00!  
    1689 000403 6199          BCC $C$L34,AR1 != #0 ; |765| 
    1690                                                      ; branchcc occurs ; |765| 
    1691 000405 20     nop
    1692 000406 46B2   bclr INTM
    1693 000408       $C$L34:    
TMS320C55x Assembler PC v4.4.1 Sat Sep 08 07:38:04 2018

Tools Copyright (c) 1996-2012 Texas Instruments Incorporated
stream_buffer.asm                                                    PAGE   36

    1694                      .dwpsn  file "../FreeRTOS/Source/stream_buffer.c",line 767,column 3,is_stmt
    1695 000408 A914          MOV *SP(#10), AR1 ; |767| 
    1696 00040a AA12          MOV *SP(#9), AR2 ; |767| 
    1697 00040c 1294          CMPU AR2 > AR1, TC1 ; |767| 
         00040e A4   
    1698 00040f 0464          BCC $C$L36,TC1 ; |767| 
         000411 2A   
    1699                                                      ; branchcc occurs ; |767| 
    1700                      .dwpsn  file "../FreeRTOS/Source/stream_buffer.c",line 771,column 4,is_stmt
    1701 000412 EC31          AMOV #0, XAR0 ; |771| 
         000414 8E00 
         000416 0000 
    1702              
    1703 00041a 3D00          MOV #0, AC0 ; |771| 
    1704 000418 A40A  ||      MOV *SP(#5), T0 ; |771| 
    1705              
    1706              $C$DW$173       .dwtag  DW_TAG_TI_branch
    1707                      .dwattr $C$DW$173, DW_AT_low_pc(0x00)
    1708                      .dwattr $C$DW$173, DW_AT_name("_xTaskNotifyWait")
    1709                      .dwattr $C$DW$173, DW_AT_TI_call
    1710              
    1711 00041c 6C00          CALL #_xTaskNotifyWait ; |771| 
         00041e 0000!
    1712 000420 3D01  ||      MOV #0, AC1 ; |771| 
    1713              
    1714                                                      ; call occurs [#_xTaskNotifyWait] ; |771| 
    1715                      .dwpsn  file "../FreeRTOS/Source/stream_buffer.c",line 772,column 4,is_stmt
    1716 000422 ED0C          MOV dbl(*SP(#6)), XAR3
         000424 BF   
    1717 000425 3C00          MOV #0, AC0 ; |772| 
    1718 000427 EB79          MOV AC0, dbl(*AR3(short(#4)))
         000429 08   
    1719                      .dwpsn  file "../FreeRTOS/Source/stream_buffer.c",line 775,column 4,is_stmt
    1720 00042a ED0C          MOV dbl(*SP(#6)), XAR0
         00042c 8F   
    1721              $C$DW$174       .dwtag  DW_TAG_TI_branch
    1722                      .dwattr $C$DW$174, DW_AT_low_pc(0x00)
    1723                      .dwattr $C$DW$174, DW_AT_name("_prvBytesInBuffer")
    1724                      .dwattr $C$DW$174, DW_AT_TI_call
    1725 00042d 0803          CALL #_prvBytesInBuffer ; |775| 
         00042f CC   
    1726                                                      ; call occurs [#_prvBytesInBuffer] ; |775| 
    1727 000430 C412          MOV T0, *SP(#9) ; |775| 
    1728                      .dwpsn  file "../FreeRTOS/Source/stream_buffer.c",line 776,column 3,is_stmt
    1729 000432 4A08          B $C$L36  ; |776| 
    1730                                                      ; branch occurs ; |776| 
    1731 000434       $C$L35:    
    1732                      .dwpsn  file "../FreeRTOS/Source/stream_buffer.c",line 784,column 3,is_stmt
    1733 000434 ED0C          MOV dbl(*SP(#6)), XAR0
         000436 8F   
    1734              $C$DW$175       .dwtag  DW_TAG_TI_branch
    1735                      .dwattr $C$DW$175, DW_AT_low_pc(0x00)
    1736                      .dwattr $C$DW$175, DW_AT_name("_prvBytesInBuffer")
    1737                      .dwattr $C$DW$175, DW_AT_TI_call
    1738 000437 0803          CALL #_prvBytesInBuffer ; |784| 
TMS320C55x Assembler PC v4.4.1 Sat Sep 08 07:38:04 2018

Tools Copyright (c) 1996-2012 Texas Instruments Incorporated
stream_buffer.asm                                                    PAGE   37

         000439 C2   
    1739                                                      ; call occurs [#_prvBytesInBuffer] ; |784| 
    1740 00043a C412          MOV T0, *SP(#9) ; |784| 
    1741 00043c       $C$L36:    
    1742                      .dwpsn  file "../FreeRTOS/Source/stream_buffer.c",line 792,column 2,is_stmt
    1743 00043c A914          MOV *SP(#10), AR1 ; |792| 
    1744 00043e AA12          MOV *SP(#9), AR2 ; |792| 
    1745 000440 1298          CMPU AR2 <= AR1, TC1 ; |792| 
         000442 A4   
    1746 000443 0464          BCC $C$L38,TC1 ; |792| 
         000445 47   
    1747                                                      ; branchcc occurs ; |792| 
    1748                      .dwpsn  file "../FreeRTOS/Source/stream_buffer.c",line 794,column 3,is_stmt
    1749 000446 ED0C          MOV dbl(*SP(#6)), XAR0
         000448 8F   
    1750 000449 ED04          MOV dbl(*SP(#2)), XAR1
         00044b 9F   
    1751 00044c A408          MOV *SP(#4), T0 ; |794| 
    1752              
    1753 00044e AA14          MOV *SP(#10), AR2 ; |794| 
    1754 000450 23A5  ||      MOV AR2, T1 ; |794| 
    1755              
    1756              $C$DW$176       .dwtag  DW_TAG_TI_branch
    1757                      .dwattr $C$DW$176, DW_AT_low_pc(0x00)
    1758                      .dwattr $C$DW$176, DW_AT_name("_prvReadMessageFromBuffer")
    1759                      .dwattr $C$DW$176, DW_AT_TI_call
    1760 000452 0801          CALL #_prvReadMessageFromBuffer ; |794| 
         000454 1B   
    1761                                                      ; call occurs [#_prvReadMessageFromBuffer] ; |794| 
    1762 000455 C410          MOV T0, *SP(#8) ; |794| 
    1763                      .dwpsn  file "../FreeRTOS/Source/stream_buffer.c",line 797,column 3,is_stmt
    1764 000457 2249          MOV T0, AR1
    1765 000459 0409          BCC $C$L38,AR1 == #0 ; |797| 
         00045b 31   
    1766                                                      ; branchcc occurs ; |797| 
    1767                      .dwpsn  file "../FreeRTOS/Source/stream_buffer.c",line 800,column 4,is_stmt
    1768              $C$DW$177       .dwtag  DW_TAG_TI_branch
    1769                      .dwattr $C$DW$177, DW_AT_low_pc(0x00)
    1770                      .dwattr $C$DW$177, DW_AT_name("_vTaskSuspendAll")
    1771                      .dwattr $C$DW$177, DW_AT_TI_call
    1772 00045c 6C00          CALL #_vTaskSuspendAll ; |800| 
         00045e 0000!
    1773                                                      ; call occurs [#_vTaskSuspendAll] ; |800| 
    1774 000460 ED0C          MOV dbl(*SP(#6)), XAR3
         000462 BF   
    1775 000463 ED7D          MOV dbl(*AR3(short(#6))), XAR3
         000465 BF   
    1776 000466 90B0          MOV XAR3, AC0
    1777 000468 0400          BCC $C$L37,AC0 == #0 ; |800| 
         00046a 1C   
    1778                                                      ; branchcc occurs ; |800| 
    1779 00046b ED0C          MOV dbl(*SP(#6)), XAR3
         00046d BF   
    1780 00046e EC31          AMOV #0, XAR1 ; |800| 
         000470 9E00 
TMS320C55x Assembler PC v4.4.1 Sat Sep 08 07:38:04 2018

Tools Copyright (c) 1996-2012 Texas Instruments Incorporated
stream_buffer.asm                                                    PAGE   38

         000472 0000 
    1781 000474 3C00          MOV #0, AC0 ; |800| 
    1782 000476 ED7D          MOV dbl(*AR3(short(#6))), XAR0
         000478 8F   
    1783              $C$DW$178       .dwtag  DW_TAG_TI_branch
    1784                      .dwattr $C$DW$178, DW_AT_low_pc(0x00)
    1785                      .dwattr $C$DW$178, DW_AT_name("_xTaskGenericNotify")
    1786                      .dwattr $C$DW$178, DW_AT_TI_call
    1787              
    1788 000479 6C00          CALL #_xTaskGenericNotify ; |800| 
         00047b 0000!
    1789 00047d 3D04  ||      MOV #0, T0
    1790              
    1791                                                      ; call occurs [#_xTaskGenericNotify] ; |800| 
    1792 00047f ED0C          MOV dbl(*SP(#6)), XAR3
         000481 BF   
    1793 000482 3C00          MOV #0, AC0 ; |800| 
    1794 000484 EB7D          MOV AC0, dbl(*AR3(short(#6)))
         000486 08   
    1795              $C$L37:    
    1796              $C$DW$179       .dwtag  DW_TAG_TI_branch
    1797                      .dwattr $C$DW$179, DW_AT_low_pc(0x00)
    1798                      .dwattr $C$DW$179, DW_AT_name("_xTaskResumeAll")
    1799                      .dwattr $C$DW$179, DW_AT_TI_call
    1800 000487 6C00          CALL #_xTaskResumeAll ; |800| 
         000489 0000!
    1801                                                      ; call occurs [#_xTaskResumeAll] ; |800| 
    1802                      .dwpsn  file "../FreeRTOS/Source/stream_buffer.c",line 801,column 3,is_stmt
    1803 00048b 4A00          B $C$L38  ; |801| 
    1804                                                      ; branch occurs ; |801| 
    1805 00048d       $C$L38:    
    1806                      .dwpsn  file "../FreeRTOS/Source/stream_buffer.c",line 813,column 2,is_stmt
    1807 00048d A410          MOV *SP(#8), T0 ; |813| 
    1808                      .dwpsn  file "../FreeRTOS/Source/stream_buffer.c",line 814,column 1,is_stmt
    1809 00048f 4E0B          AADD #11, SP
    1810                      .dwcfi  cfa_offset, 1
    1811              $C$DW$180       .dwtag  DW_TAG_TI_branch
    1812                      .dwattr $C$DW$180, DW_AT_low_pc(0x00)
    1813                      .dwattr $C$DW$180, DW_AT_TI_return
    1814 000491 4804          RET
    1815                                                      ; return occurs
    1816                      .dwattr $C$DW$157, DW_AT_TI_end_file("../FreeRTOS/Source/stream_buffer.c")
    1817                      .dwattr $C$DW$157, DW_AT_TI_end_line(0x32e)
    1818                      .dwattr $C$DW$157, DW_AT_TI_end_column(0x01)
    1819                      .dwendentry
    1820                      .dwendtag $C$DW$157
    1821              
    1822 000493               .sect   ".text"
    1823                      .align 4
    1824                      .global _xStreamBufferNextMessageLengthBytes
    1825              
    1826              $C$DW$181       .dwtag  DW_TAG_subprogram, DW_AT_name("xStreamBufferNextMessageLengthBytes")
    1827                      .dwattr $C$DW$181, DW_AT_low_pc(_xStreamBufferNextMessageLengthBytes)
    1828                      .dwattr $C$DW$181, DW_AT_high_pc(0x00)
    1829                      .dwattr $C$DW$181, DW_AT_TI_symbol_name("_xStreamBufferNextMessageLengthBytes")
TMS320C55x Assembler PC v4.4.1 Sat Sep 08 07:38:04 2018

Tools Copyright (c) 1996-2012 Texas Instruments Incorporated
stream_buffer.asm                                                    PAGE   39

    1830                      .dwattr $C$DW$181, DW_AT_external
    1831                      .dwattr $C$DW$181, DW_AT_type(*$C$DW$T$20)
    1832                      .dwattr $C$DW$181, DW_AT_TI_begin_file("../FreeRTOS/Source/stream_buffer.c")
    1833                      .dwattr $C$DW$181, DW_AT_TI_begin_line(0x331)
    1834                      .dwattr $C$DW$181, DW_AT_TI_begin_column(0x08)
    1835                      .dwattr $C$DW$181, DW_AT_TI_max_frame_size(0x0a)
    1836                      .dwpsn  file "../FreeRTOS/Source/stream_buffer.c",line 818,column 1,is_stmt,address _xStreamBufferNex
    1837              
    1838                      .dwfde $C$DW$CIE, _xStreamBufferNextMessageLengthBytes
    1839              $C$DW$182       .dwtag  DW_TAG_formal_parameter, DW_AT_name("xStreamBuffer")
    1840                      .dwattr $C$DW$182, DW_AT_TI_symbol_name("_xStreamBuffer")
    1841                      .dwattr $C$DW$182, DW_AT_type(*$C$DW$T$40)
    1842                      .dwattr $C$DW$182, DW_AT_location[DW_OP_reg17]
    1843              ;*******************************************************************************
    1844              ;* FUNCTION NAME: xStreamBufferNextMessageLengthBytes                          *
    1845              ;*                                                                             *
    1846              ;*   Function Uses Regs : T0,T1,AR0,XAR0,AR1,XAR1,AR2,AR3,XAR3,SP,TC1,M40,SATA,*
    1847              ;*                        SATD,RDM,FRCT,SMUL                                   *
    1848              ;*   Stack Frame        : Compact (No Frame Pointer, w/ debug)                 *
    1849              ;*   Total Frame Size   : 10 words                                             *
    1850              ;*                        (2 return address/alignment)                         *
    1851              ;*                        (8 local values)                                     *
    1852              ;*   Min System Stack   : 1 word                                               *
    1853              ;*******************************************************************************
    1854 000494       _xStreamBufferNextMessageLengthBytes:
    1855                      .dwcfi  cfa_offset, 1
    1856                      .dwcfi  save_reg_to_mem, 91, -1
    1857 000494 4EF7          AADD #-9, SP
    1858                      .dwcfi  cfa_offset, 10
    1859              $C$DW$183       .dwtag  DW_TAG_variable, DW_AT_name("xStreamBuffer")
    1860                      .dwattr $C$DW$183, DW_AT_TI_symbol_name("_xStreamBuffer")
    1861                      .dwattr $C$DW$183, DW_AT_type(*$C$DW$T$40)
    1862                      .dwattr $C$DW$183, DW_AT_location[DW_OP_bregx 0x24 0]
    1863              $C$DW$184       .dwtag  DW_TAG_variable, DW_AT_name("pxStreamBuffer")
    1864                      .dwattr $C$DW$184, DW_AT_TI_symbol_name("_pxStreamBuffer")
    1865                      .dwattr $C$DW$184, DW_AT_type(*$C$DW$T$38)
    1866                      .dwattr $C$DW$184, DW_AT_location[DW_OP_bregx 0x24 2]
    1867              $C$DW$185       .dwtag  DW_TAG_variable, DW_AT_name("xReturn")
    1868                      .dwattr $C$DW$185, DW_AT_TI_symbol_name("_xReturn")
    1869                      .dwattr $C$DW$185, DW_AT_type(*$C$DW$T$20)
    1870                      .dwattr $C$DW$185, DW_AT_location[DW_OP_bregx 0x24 4]
    1871              $C$DW$186       .dwtag  DW_TAG_variable, DW_AT_name("xBytesAvailable")
    1872                      .dwattr $C$DW$186, DW_AT_TI_symbol_name("_xBytesAvailable")
    1873                      .dwattr $C$DW$186, DW_AT_type(*$C$DW$T$20)
    1874                      .dwattr $C$DW$186, DW_AT_location[DW_OP_bregx 0x24 5]
    1875              $C$DW$187       .dwtag  DW_TAG_variable, DW_AT_name("xOriginalTail")
    1876                      .dwattr $C$DW$187, DW_AT_TI_symbol_name("_xOriginalTail")
    1877                      .dwattr $C$DW$187, DW_AT_type(*$C$DW$T$20)
    1878                      .dwattr $C$DW$187, DW_AT_location[DW_OP_bregx 0x24 6]
    1879              $C$DW$188       .dwtag  DW_TAG_variable, DW_AT_name("xTempReturn")
    1880                      .dwattr $C$DW$188, DW_AT_TI_symbol_name("_xTempReturn")
    1881                      .dwattr $C$DW$188, DW_AT_type(*$C$DW$T$20)
    1882                      .dwattr $C$DW$188, DW_AT_location[DW_OP_bregx 0x24 7]
    1883 000496 EB00          MOV XAR0, dbl(*SP(#0))
         000498 85   
TMS320C55x Assembler PC v4.4.1 Sat Sep 08 07:38:04 2018

Tools Copyright (c) 1996-2012 Texas Instruments Incorporated
stream_buffer.asm                                                    PAGE   40

    1884                      .dwpsn  file "../FreeRTOS/Source/stream_buffer.c",line 819,column 24,is_stmt
    1885 000499 ED00          MOV dbl(*SP(#0)), XAR3
         00049b BF   
    1886 00049c EB04          MOV XAR3, dbl(*SP(#2))
         00049e B5   
    1887                      .dwpsn  file "../FreeRTOS/Source/stream_buffer.c",line 826,column 2,is_stmt
    1888 00049f DC6D          BTST #0, *AR3(#10), TC1 ; |826| 
         0004a1 0000 
         0004a3 0A   
    1889 0004a4 0474          BCC $C$L40,!TC1 ; |826| 
         0004a6 35   
    1890                                                      ; branchcc occurs ; |826| 
    1891                      .dwpsn  file "../FreeRTOS/Source/stream_buffer.c",line 828,column 3,is_stmt
    1892              $C$DW$189       .dwtag  DW_TAG_TI_branch
    1893                      .dwattr $C$DW$189, DW_AT_low_pc(0x00)
    1894                      .dwattr $C$DW$189, DW_AT_name("_prvBytesInBuffer")
    1895                      .dwattr $C$DW$189, DW_AT_TI_call
    1896 0004a7 0803          CALL #_prvBytesInBuffer ; |828| 
         0004a9 52   
    1897                                                      ; call occurs [#_prvBytesInBuffer] ; |828| 
    1898 0004aa C40A          MOV T0, *SP(#5) ; |828| 
    1899                      .dwpsn  file "../FreeRTOS/Source/stream_buffer.c",line 829,column 3,is_stmt
    1900              
    1901 0004ac 2249          MOV T0, AR1
    1902 0004ae 3D1A  ||      MOV #1, AR2
    1903              
    1904 0004b0 12A8          CMPU AR1 <= AR2, TC1 ; |829| 
         0004b2 94   
    1905 0004b3 0464          BCC $C$L39,TC1 ; |829| 
         0004b5 21   
    1906                                                      ; branchcc occurs ; |829| 
    1907                      .dwpsn  file "../FreeRTOS/Source/stream_buffer.c",line 837,column 4,is_stmt
    1908 0004b6 ED04          MOV dbl(*SP(#2)), XAR3
         0004b8 BF   
    1909 0004b9 A961          MOV *AR3, AR1 ; |837| 
    1910 0004bb C90C          MOV AR1, *SP(#6) ; |837| 
    1911                      .dwpsn  file "../FreeRTOS/Source/stream_buffer.c",line 838,column 4,is_stmt
    1912 0004bd ED04          MOV dbl(*SP(#2)), XAR0
         0004bf 8F   
    1913 0004c0 A50A          MOV *SP(#5), T1 ; |838| 
    1914 0004c2 EC0E          AMAR *SP(#7), XAR1
         0004c4 9E   
    1915              $C$DW$190       .dwtag  DW_TAG_TI_branch
    1916                      .dwattr $C$DW$190, DW_AT_low_pc(0x00)
    1917                      .dwattr $C$DW$190, DW_AT_name("_prvReadBytesFromBuffer")
    1918                      .dwattr $C$DW$190, DW_AT_TI_call
    1919              
    1920 0004c5 0802          CALL #_prvReadBytesFromBuffer ; |838| 
         0004c7 8E   
    1921 0004c8 3D14  ||      MOV #1, T0
    1922              
    1923                                                      ; call occurs [#_prvReadBytesFromBuffer] ; |838| 
    1924                      .dwpsn  file "../FreeRTOS/Source/stream_buffer.c",line 839,column 4,is_stmt
    1925 0004ca A90E          MOV *SP(#7), AR1 ; |839| 
    1926 0004cc C908          MOV AR1, *SP(#4) ; |839| 
TMS320C55x Assembler PC v4.4.1 Sat Sep 08 07:38:04 2018

Tools Copyright (c) 1996-2012 Texas Instruments Incorporated
stream_buffer.asm                                                    PAGE   41

    1927                      .dwpsn  file "../FreeRTOS/Source/stream_buffer.c",line 840,column 4,is_stmt
    1928 0004ce ED04          MOV dbl(*SP(#2)), XAR3
         0004d0 BF   
    1929 0004d1 A90C          MOV *SP(#6), AR1 ; |840| 
    1930 0004d3 C961          MOV AR1, *AR3 ; |840| 
    1931                      .dwpsn  file "../FreeRTOS/Source/stream_buffer.c",line 841,column 3,is_stmt
    1932 0004d5 4A08          B $C$L41  ; |841| 
    1933                                                      ; branch occurs ; |841| 
    1934 0004d7       $C$L39:    
    1935                      .dwpsn  file "../FreeRTOS/Source/stream_buffer.c",line 849,column 4,is_stmt
    1936 0004d7 E608          MOV #0, *SP(#4) ; |849| 
         0004d9 00   
    1937                      .dwpsn  file "../FreeRTOS/Source/stream_buffer.c",line 851,column 2,is_stmt
    1938 0004da 4A03          B $C$L41  ; |851| 
    1939                                                      ; branch occurs ; |851| 
    1940 0004dc       $C$L40:    
    1941                      .dwpsn  file "../FreeRTOS/Source/stream_buffer.c",line 854,column 3,is_stmt
    1942 0004dc E608          MOV #0, *SP(#4) ; |854| 
         0004de 00   
    1943 0004df       $C$L41:    
    1944                      .dwpsn  file "../FreeRTOS/Source/stream_buffer.c",line 857,column 2,is_stmt
    1945 0004df A408          MOV *SP(#4), T0 ; |857| 
    1946                      .dwpsn  file "../FreeRTOS/Source/stream_buffer.c",line 858,column 1,is_stmt
    1947 0004e1 4E09          AADD #9, SP
    1948                      .dwcfi  cfa_offset, 1
    1949              $C$DW$191       .dwtag  DW_TAG_TI_branch
    1950                      .dwattr $C$DW$191, DW_AT_low_pc(0x00)
    1951                      .dwattr $C$DW$191, DW_AT_TI_return
    1952 0004e3 4804          RET
    1953                                                      ; return occurs
    1954                      .dwattr $C$DW$181, DW_AT_TI_end_file("../FreeRTOS/Source/stream_buffer.c")
    1955                      .dwattr $C$DW$181, DW_AT_TI_end_line(0x35a)
    1956                      .dwattr $C$DW$181, DW_AT_TI_end_column(0x01)
    1957                      .dwendentry
    1958                      .dwendtag $C$DW$181
    1959              
    1960 0004e5               .sect   ".text"
    1961                      .align 4
    1962                      .global _xStreamBufferReceiveFromISR
    1963              
    1964              $C$DW$192       .dwtag  DW_TAG_subprogram, DW_AT_name("xStreamBufferReceiveFromISR")
    1965                      .dwattr $C$DW$192, DW_AT_low_pc(_xStreamBufferReceiveFromISR)
    1966                      .dwattr $C$DW$192, DW_AT_high_pc(0x00)
    1967                      .dwattr $C$DW$192, DW_AT_TI_symbol_name("_xStreamBufferReceiveFromISR")
    1968                      .dwattr $C$DW$192, DW_AT_external
    1969                      .dwattr $C$DW$192, DW_AT_type(*$C$DW$T$20)
    1970                      .dwattr $C$DW$192, DW_AT_TI_begin_file("../FreeRTOS/Source/stream_buffer.c")
    1971                      .dwattr $C$DW$192, DW_AT_TI_begin_line(0x35d)
    1972                      .dwattr $C$DW$192, DW_AT_TI_begin_column(0x08)
    1973                      .dwattr $C$DW$192, DW_AT_TI_max_frame_size(0x10)
    1974                      .dwpsn  file "../FreeRTOS/Source/stream_buffer.c",line 865,column 1,is_stmt,address _xStreamBufferRec
    1975              
    1976                      .dwfde $C$DW$CIE, _xStreamBufferReceiveFromISR
    1977              $C$DW$193       .dwtag  DW_TAG_formal_parameter, DW_AT_name("xStreamBuffer")
    1978                      .dwattr $C$DW$193, DW_AT_TI_symbol_name("_xStreamBuffer")
TMS320C55x Assembler PC v4.4.1 Sat Sep 08 07:38:04 2018

Tools Copyright (c) 1996-2012 Texas Instruments Incorporated
stream_buffer.asm                                                    PAGE   42

    1979                      .dwattr $C$DW$193, DW_AT_type(*$C$DW$T$40)
    1980                      .dwattr $C$DW$193, DW_AT_location[DW_OP_reg17]
    1981              $C$DW$194       .dwtag  DW_TAG_formal_parameter, DW_AT_name("pvRxData")
    1982                      .dwattr $C$DW$194, DW_AT_TI_symbol_name("_pvRxData")
    1983                      .dwattr $C$DW$194, DW_AT_type(*$C$DW$T$3)
    1984                      .dwattr $C$DW$194, DW_AT_location[DW_OP_reg19]
    1985              $C$DW$195       .dwtag  DW_TAG_formal_parameter, DW_AT_name("xBufferLengthBytes")
    1986                      .dwattr $C$DW$195, DW_AT_TI_symbol_name("_xBufferLengthBytes")
    1987                      .dwattr $C$DW$195, DW_AT_type(*$C$DW$T$20)
    1988                      .dwattr $C$DW$195, DW_AT_location[DW_OP_reg12]
    1989              $C$DW$196       .dwtag  DW_TAG_formal_parameter, DW_AT_name("pxHigherPriorityTaskWoken")
    1990                      .dwattr $C$DW$196, DW_AT_TI_symbol_name("_pxHigherPriorityTaskWoken")
    1991                      .dwattr $C$DW$196, DW_AT_type(*$C$DW$T$71)
    1992                      .dwattr $C$DW$196, DW_AT_location[DW_OP_reg21]
    1993              ;*******************************************************************************
    1994              ;* FUNCTION NAME: xStreamBufferReceiveFromISR                                  *
    1995              ;*                                                                             *
    1996              ;*   Function Uses Regs : AC0,AC0,T0,T1,AR0,XAR0,AR1,XAR1,AR2,XAR2,AR3,XAR3,SP,*
    1997              ;*                        TC1,M40,SATA,SATD,RDM,FRCT,SMUL                      *
    1998              ;*   Stack Frame        : Compact (No Frame Pointer, w/ debug)                 *
    1999              ;*   Total Frame Size   : 16 words                                             *
    2000              ;*                        (2 return address/alignment)                         *
    2001              ;*                        (14 local values)                                    *
    2002              ;*   Min System Stack   : 1 word                                               *
    2003              ;*******************************************************************************
    2004 0004e8       _xStreamBufferReceiveFromISR:
    2005                      .dwcfi  cfa_offset, 1
    2006                      .dwcfi  save_reg_to_mem, 91, -1
    2007 0004e8 4EF1          AADD #-15, SP
    2008                      .dwcfi  cfa_offset, 16
    2009              $C$DW$197       .dwtag  DW_TAG_variable, DW_AT_name("xStreamBuffer")
    2010                      .dwattr $C$DW$197, DW_AT_TI_symbol_name("_xStreamBuffer")
    2011                      .dwattr $C$DW$197, DW_AT_type(*$C$DW$T$40)
    2012                      .dwattr $C$DW$197, DW_AT_location[DW_OP_bregx 0x24 0]
    2013              $C$DW$198       .dwtag  DW_TAG_variable, DW_AT_name("pvRxData")
    2014                      .dwattr $C$DW$198, DW_AT_TI_symbol_name("_pvRxData")
    2015                      .dwattr $C$DW$198, DW_AT_type(*$C$DW$T$3)
    2016                      .dwattr $C$DW$198, DW_AT_location[DW_OP_bregx 0x24 2]
    2017              $C$DW$199       .dwtag  DW_TAG_variable, DW_AT_name("xBufferLengthBytes")
    2018                      .dwattr $C$DW$199, DW_AT_TI_symbol_name("_xBufferLengthBytes")
    2019                      .dwattr $C$DW$199, DW_AT_type(*$C$DW$T$20)
    2020                      .dwattr $C$DW$199, DW_AT_location[DW_OP_bregx 0x24 4]
    2021              $C$DW$200       .dwtag  DW_TAG_variable, DW_AT_name("pxHigherPriorityTaskWoken")
    2022                      .dwattr $C$DW$200, DW_AT_TI_symbol_name("_pxHigherPriorityTaskWoken")
    2023                      .dwattr $C$DW$200, DW_AT_type(*$C$DW$T$71)
    2024                      .dwattr $C$DW$200, DW_AT_location[DW_OP_bregx 0x24 6]
    2025              $C$DW$201       .dwtag  DW_TAG_variable, DW_AT_name("pxStreamBuffer")
    2026                      .dwattr $C$DW$201, DW_AT_TI_symbol_name("_pxStreamBuffer")
    2027                      .dwattr $C$DW$201, DW_AT_type(*$C$DW$T$38)
    2028                      .dwattr $C$DW$201, DW_AT_location[DW_OP_bregx 0x24 8]
    2029              $C$DW$202       .dwtag  DW_TAG_variable, DW_AT_name("xReceivedLength")
    2030                      .dwattr $C$DW$202, DW_AT_TI_symbol_name("_xReceivedLength")
    2031                      .dwattr $C$DW$202, DW_AT_type(*$C$DW$T$20)
    2032                      .dwattr $C$DW$202, DW_AT_location[DW_OP_bregx 0x24 10]
    2033              $C$DW$203       .dwtag  DW_TAG_variable, DW_AT_name("xBytesAvailable")
TMS320C55x Assembler PC v4.4.1 Sat Sep 08 07:38:04 2018

Tools Copyright (c) 1996-2012 Texas Instruments Incorporated
stream_buffer.asm                                                    PAGE   43

    2034                      .dwattr $C$DW$203, DW_AT_TI_symbol_name("_xBytesAvailable")
    2035                      .dwattr $C$DW$203, DW_AT_type(*$C$DW$T$20)
    2036                      .dwattr $C$DW$203, DW_AT_location[DW_OP_bregx 0x24 11]
    2037              $C$DW$204       .dwtag  DW_TAG_variable, DW_AT_name("xBytesToStoreMessageLength")
    2038                      .dwattr $C$DW$204, DW_AT_TI_symbol_name("_xBytesToStoreMessageLength")
    2039                      .dwattr $C$DW$204, DW_AT_type(*$C$DW$T$20)
    2040                      .dwattr $C$DW$204, DW_AT_location[DW_OP_bregx 0x24 12]
    2041 0004ea EB0C          MOV XAR2, dbl(*SP(#6))
         0004ec A5   
    2042 0004ed C408          MOV T0, *SP(#4) ; |865| 
    2043 0004ef EB04          MOV XAR1, dbl(*SP(#2))
         0004f1 95   
    2044 0004f2 EB00          MOV XAR0, dbl(*SP(#0))
         0004f4 85   
    2045                      .dwpsn  file "../FreeRTOS/Source/stream_buffer.c",line 866,column 24,is_stmt
    2046 0004f5 ED00          MOV dbl(*SP(#0)), XAR3
         0004f7 BF   
    2047 0004f8 EB10          MOV XAR3, dbl(*SP(#8))
         0004fa B5   
    2048                      .dwpsn  file "../FreeRTOS/Source/stream_buffer.c",line 867,column 8,is_stmt
    2049 0004fb E614          MOV #0, *SP(#10) ; |867| 
         0004fd 00   
    2050                      .dwpsn  file "../FreeRTOS/Source/stream_buffer.c",line 877,column 2,is_stmt
    2051 0004fe ED10          MOV dbl(*SP(#8)), XAR3
         000500 BF   
    2052 000501 DC6D          BTST #0, *AR3(#10), TC1 ; |877| 
         000503 0000 
         000505 0A   
    2053 000506 62F4          BCC $C$L42,!TC1 ; |877| 
    2054                                                      ; branchcc occurs ; |877| 
    2055                      .dwpsn  file "../FreeRTOS/Source/stream_buffer.c",line 879,column 3,is_stmt
    2056 000508 E618          MOV #1, *SP(#12) ; |879| 
         00050a 01   
    2057                      .dwpsn  file "../FreeRTOS/Source/stream_buffer.c",line 880,column 2,is_stmt
    2058 00050b 4A03          B $C$L43  ; |880| 
    2059                                                      ; branch occurs ; |880| 
    2060 00050d       $C$L42:    
    2061                      .dwpsn  file "../FreeRTOS/Source/stream_buffer.c",line 883,column 3,is_stmt
    2062 00050d E618          MOV #0, *SP(#12) ; |883| 
         00050f 00   
    2063 000510       $C$L43:    
    2064                      .dwpsn  file "../FreeRTOS/Source/stream_buffer.c",line 886,column 2,is_stmt
    2065 000510 ED10          MOV dbl(*SP(#8)), XAR0
         000512 8F   
    2066              $C$DW$205       .dwtag  DW_TAG_TI_branch
    2067                      .dwattr $C$DW$205, DW_AT_low_pc(0x00)
    2068                      .dwattr $C$DW$205, DW_AT_name("_prvBytesInBuffer")
    2069                      .dwattr $C$DW$205, DW_AT_TI_call
    2070 000513 0802          CALL #_prvBytesInBuffer ; |886| 
         000515 E6   
    2071                                                      ; call occurs [#_prvBytesInBuffer] ; |886| 
    2072 000516 C416          MOV T0, *SP(#11) ; |886| 
    2073                      .dwpsn  file "../FreeRTOS/Source/stream_buffer.c",line 893,column 2,is_stmt
    2074              
    2075 000518 A918          MOV *SP(#12), AR1 ; |893| 
TMS320C55x Assembler PC v4.4.1 Sat Sep 08 07:38:04 2018

Tools Copyright (c) 1996-2012 Texas Instruments Incorporated
stream_buffer.asm                                                    PAGE   44

    2076 00051a 234A  ||      MOV T0, AR2 ; |893| 
    2077              
    2078 00051c 1298          CMPU AR2 <= AR1, TC1 ; |893| 
         00051e A4   
    2079 00051f 0464          BCC $C$L44,TC1 ; |893| 
         000521 45   
    2080                                                      ; branchcc occurs ; |893| 
    2081                      .dwpsn  file "../FreeRTOS/Source/stream_buffer.c",line 895,column 3,is_stmt
    2082 000522 ED10          MOV dbl(*SP(#8)), XAR0
         000524 8F   
    2083 000525 ED04          MOV dbl(*SP(#2)), XAR1
         000527 9F   
    2084 000528 A408          MOV *SP(#4), T0 ; |895| 
    2085              
    2086 00052a AA18          MOV *SP(#12), AR2 ; |895| 
    2087 00052c 23A5  ||      MOV AR2, T1 ; |895| 
    2088              
    2089              $C$DW$206       .dwtag  DW_TAG_TI_branch
    2090                      .dwattr $C$DW$206, DW_AT_low_pc(0x00)
    2091                      .dwattr $C$DW$206, DW_AT_name("_prvReadMessageFromBuffer")
    2092                      .dwattr $C$DW$206, DW_AT_TI_call
    2093 00052e 0800          CALL #_prvReadMessageFromBuffer ; |895| 
         000530 3F   
    2094                                                      ; call occurs [#_prvReadMessageFromBuffer] ; |895| 
    2095 000531 C414          MOV T0, *SP(#10) ; |895| 
    2096                      .dwpsn  file "../FreeRTOS/Source/stream_buffer.c",line 898,column 3,is_stmt
    2097 000533 2249          MOV T0, AR1
    2098 000535 0409          BCC $C$L44,AR1 == #0 ; |898| 
         000537 2F   
    2099                                                      ; branchcc occurs ; |898| 
    2100              
    2101              $C$DW$207       .dwtag  DW_TAG_lexical_block, DW_AT_low_pc(0x00), DW_AT_high_pc(0x00)
    2102              $C$DW$208       .dwtag  DW_TAG_variable, DW_AT_name("uxSavedInterruptStatus")
    2103                      .dwattr $C$DW$208, DW_AT_TI_symbol_name("_uxSavedInterruptStatus")
    2104                      .dwattr $C$DW$208, DW_AT_type(*$C$DW$T$85)
    2105                      .dwattr $C$DW$208, DW_AT_location[DW_OP_bregx 0x24 13]
    2106                      .dwpsn  file "../FreeRTOS/Source/stream_buffer.c",line 900,column 4,is_stmt
    2107 000538 E61A          MOV #0, *SP(#13) ; |900| 
         00053a 00   
    2108 00053b ED10          MOV dbl(*SP(#8)), XAR3
         00053d BF   
    2109 00053e ED7D          MOV dbl(*AR3(short(#6))), XAR3
         000540 BF   
    2110 000541 90B0          MOV XAR3, AC0
    2111 000543 0400          BCC $C$L44,AC0 == #0 ; |900| 
         000545 21   
    2112                                                      ; branchcc occurs ; |900| 
    2113 000546 ED10          MOV dbl(*SP(#8)), XAR3
         000548 BF   
    2114 000549 ED0C          MOV dbl(*SP(#6)), XAR2
         00054b AF   
    2115 00054c EC31          AMOV #0, XAR1 ; |900| 
         00054e 9E00 
         000550 0000 
    2116 000552 3C00          MOV #0, AC0 ; |900| 
TMS320C55x Assembler PC v4.4.1 Sat Sep 08 07:38:04 2018

Tools Copyright (c) 1996-2012 Texas Instruments Incorporated
stream_buffer.asm                                                    PAGE   45

    2117 000554 ED7D          MOV dbl(*AR3(short(#6))), XAR0
         000556 8F   
    2118              $C$DW$209       .dwtag  DW_TAG_TI_branch
    2119                      .dwattr $C$DW$209, DW_AT_low_pc(0x00)
    2120                      .dwattr $C$DW$209, DW_AT_name("_xTaskGenericNotifyFromISR")
    2121                      .dwattr $C$DW$209, DW_AT_TI_call
    2122              
    2123 000557 6C00          CALL #_xTaskGenericNotifyFromISR ; |900| 
         000559 0000!
    2124 00055b 3D04  ||      MOV #0, T0
    2125              
    2126                                                      ; call occurs [#_xTaskGenericNotifyFromISR] ; |900| 
    2127 00055d ED10          MOV dbl(*SP(#8)), XAR3
         00055f BF   
    2128 000560 3C00          MOV #0, AC0 ; |900| 
    2129 000562 EB7D          MOV AC0, dbl(*AR3(short(#6)))
         000564 08   
    2130                      .dwendtag $C$DW$207
    2131              
    2132                      .dwpsn  file "../FreeRTOS/Source/stream_buffer.c",line 901,column 3,is_stmt
    2133 000565 4A00          B $C$L44  ; |901| 
    2134                                                      ; branch occurs ; |901| 
    2135 000567       $C$L44:    
    2136                      .dwpsn  file "../FreeRTOS/Source/stream_buffer.c",line 914,column 2,is_stmt
    2137 000567 A414          MOV *SP(#10), T0 ; |914| 
    2138                      .dwpsn  file "../FreeRTOS/Source/stream_buffer.c",line 915,column 1,is_stmt
    2139 000569 4E0F          AADD #15, SP
    2140                      .dwcfi  cfa_offset, 1
    2141              $C$DW$210       .dwtag  DW_TAG_TI_branch
    2142                      .dwattr $C$DW$210, DW_AT_low_pc(0x00)
    2143                      .dwattr $C$DW$210, DW_AT_TI_return
    2144 00056b 4804          RET
    2145                                                      ; return occurs
    2146                      .dwattr $C$DW$192, DW_AT_TI_end_file("../FreeRTOS/Source/stream_buffer.c")
    2147                      .dwattr $C$DW$192, DW_AT_TI_end_line(0x393)
    2148                      .dwattr $C$DW$192, DW_AT_TI_end_column(0x01)
    2149                      .dwendentry
    2150                      .dwendtag $C$DW$192
    2151              
    2152 00056d               .sect   ".text"
    2153                      .align 4
    2154              
    2155              $C$DW$211       .dwtag  DW_TAG_subprogram, DW_AT_name("prvReadMessageFromBuffer")
    2156                      .dwattr $C$DW$211, DW_AT_low_pc(_prvReadMessageFromBuffer)
    2157                      .dwattr $C$DW$211, DW_AT_high_pc(0x00)
    2158                      .dwattr $C$DW$211, DW_AT_TI_symbol_name("_prvReadMessageFromBuffer")
    2159                      .dwattr $C$DW$211, DW_AT_type(*$C$DW$T$20)
    2160                      .dwattr $C$DW$211, DW_AT_TI_begin_file("../FreeRTOS/Source/stream_buffer.c")
    2161                      .dwattr $C$DW$211, DW_AT_TI_begin_line(0x396)
    2162                      .dwattr $C$DW$211, DW_AT_TI_begin_column(0x0f)
    2163                      .dwattr $C$DW$211, DW_AT_TI_max_frame_size(0x0c)
    2164                      .dwpsn  file "../FreeRTOS/Source/stream_buffer.c",line 923,column 1,is_stmt,address _prvReadMessageFr
    2165              
    2166                      .dwfde $C$DW$CIE, _prvReadMessageFromBuffer
    2167              $C$DW$212       .dwtag  DW_TAG_formal_parameter, DW_AT_name("pxStreamBuffer")
TMS320C55x Assembler PC v4.4.1 Sat Sep 08 07:38:04 2018

Tools Copyright (c) 1996-2012 Texas Instruments Incorporated
stream_buffer.asm                                                    PAGE   46

    2168                      .dwattr $C$DW$212, DW_AT_TI_symbol_name("_pxStreamBuffer")
    2169                      .dwattr $C$DW$212, DW_AT_type(*$C$DW$T$37)
    2170                      .dwattr $C$DW$212, DW_AT_location[DW_OP_reg17]
    2171              $C$DW$213       .dwtag  DW_TAG_formal_parameter, DW_AT_name("pvRxData")
    2172                      .dwattr $C$DW$213, DW_AT_TI_symbol_name("_pvRxData")
    2173                      .dwattr $C$DW$213, DW_AT_type(*$C$DW$T$3)
    2174                      .dwattr $C$DW$213, DW_AT_location[DW_OP_reg19]
    2175              $C$DW$214       .dwtag  DW_TAG_formal_parameter, DW_AT_name("xBufferLengthBytes")
    2176                      .dwattr $C$DW$214, DW_AT_TI_symbol_name("_xBufferLengthBytes")
    2177                      .dwattr $C$DW$214, DW_AT_type(*$C$DW$T$20)
    2178                      .dwattr $C$DW$214, DW_AT_location[DW_OP_reg12]
    2179              $C$DW$215       .dwtag  DW_TAG_formal_parameter, DW_AT_name("xBytesAvailable")
    2180                      .dwattr $C$DW$215, DW_AT_TI_symbol_name("_xBytesAvailable")
    2181                      .dwattr $C$DW$215, DW_AT_type(*$C$DW$T$20)
    2182                      .dwattr $C$DW$215, DW_AT_location[DW_OP_reg13]
    2183              $C$DW$216       .dwtag  DW_TAG_formal_parameter, DW_AT_name("xBytesToStoreMessageLength")
    2184                      .dwattr $C$DW$216, DW_AT_TI_symbol_name("_xBytesToStoreMessageLength")
    2185                      .dwattr $C$DW$216, DW_AT_type(*$C$DW$T$20)
    2186                      .dwattr $C$DW$216, DW_AT_location[DW_OP_reg20]
    2187              ;*******************************************************************************
    2188              ;* FUNCTION NAME: prvReadMessageFromBuffer                                     *
    2189              ;*                                                                             *
    2190              ;*   Function Uses Regs : AC0,T0,T1,AR0,XAR0,AR1,XAR1,AR2,AR3,XAR3,SP,CARRY,   *
    2191              ;*                        TC1,M40,SATA,SATD,RDM,FRCT,SMUL                      *
    2192              ;*   Stack Frame        : Compact (No Frame Pointer, w/ debug)                 *
    2193              ;*   Total Frame Size   : 12 words                                             *
    2194              ;*                        (1 return address/alignment)                         *
    2195              ;*                        (11 local values)                                    *
    2196              ;*   Min System Stack   : 1 word                                               *
    2197              ;*******************************************************************************
    2198 000570       _prvReadMessageFromBuffer:
    2199                      .dwcfi  cfa_offset, 1
    2200                      .dwcfi  save_reg_to_mem, 91, -1
    2201 000570 4EF5          AADD #-11, SP
    2202                      .dwcfi  cfa_offset, 12
    2203              $C$DW$217       .dwtag  DW_TAG_variable, DW_AT_name("pxStreamBuffer")
    2204                      .dwattr $C$DW$217, DW_AT_TI_symbol_name("_pxStreamBuffer")
    2205                      .dwattr $C$DW$217, DW_AT_type(*$C$DW$T$37)
    2206                      .dwattr $C$DW$217, DW_AT_location[DW_OP_bregx 0x24 0]
    2207              $C$DW$218       .dwtag  DW_TAG_variable, DW_AT_name("pvRxData")
    2208                      .dwattr $C$DW$218, DW_AT_TI_symbol_name("_pvRxData")
    2209                      .dwattr $C$DW$218, DW_AT_type(*$C$DW$T$3)
    2210                      .dwattr $C$DW$218, DW_AT_location[DW_OP_bregx 0x24 2]
    2211              $C$DW$219       .dwtag  DW_TAG_variable, DW_AT_name("xBufferLengthBytes")
    2212                      .dwattr $C$DW$219, DW_AT_TI_symbol_name("_xBufferLengthBytes")
    2213                      .dwattr $C$DW$219, DW_AT_type(*$C$DW$T$20)
    2214                      .dwattr $C$DW$219, DW_AT_location[DW_OP_bregx 0x24 4]
    2215              $C$DW$220       .dwtag  DW_TAG_variable, DW_AT_name("xBytesAvailable")
    2216                      .dwattr $C$DW$220, DW_AT_TI_symbol_name("_xBytesAvailable")
    2217                      .dwattr $C$DW$220, DW_AT_type(*$C$DW$T$20)
    2218                      .dwattr $C$DW$220, DW_AT_location[DW_OP_bregx 0x24 5]
    2219              $C$DW$221       .dwtag  DW_TAG_variable, DW_AT_name("xBytesToStoreMessageLength")
    2220                      .dwattr $C$DW$221, DW_AT_TI_symbol_name("_xBytesToStoreMessageLength")
    2221                      .dwattr $C$DW$221, DW_AT_type(*$C$DW$T$20)
    2222                      .dwattr $C$DW$221, DW_AT_location[DW_OP_bregx 0x24 6]
TMS320C55x Assembler PC v4.4.1 Sat Sep 08 07:38:04 2018

Tools Copyright (c) 1996-2012 Texas Instruments Incorporated
stream_buffer.asm                                                    PAGE   47

    2223              $C$DW$222       .dwtag  DW_TAG_variable, DW_AT_name("xOriginalTail")
    2224                      .dwattr $C$DW$222, DW_AT_TI_symbol_name("_xOriginalTail")
    2225                      .dwattr $C$DW$222, DW_AT_type(*$C$DW$T$20)
    2226                      .dwattr $C$DW$222, DW_AT_location[DW_OP_bregx 0x24 7]
    2227              $C$DW$223       .dwtag  DW_TAG_variable, DW_AT_name("xReceivedLength")
    2228                      .dwattr $C$DW$223, DW_AT_TI_symbol_name("_xReceivedLength")
    2229                      .dwattr $C$DW$223, DW_AT_type(*$C$DW$T$20)
    2230                      .dwattr $C$DW$223, DW_AT_location[DW_OP_bregx 0x24 8]
    2231              $C$DW$224       .dwtag  DW_TAG_variable, DW_AT_name("xNextMessageLength")
    2232                      .dwattr $C$DW$224, DW_AT_TI_symbol_name("_xNextMessageLength")
    2233                      .dwattr $C$DW$224, DW_AT_type(*$C$DW$T$20)
    2234                      .dwattr $C$DW$224, DW_AT_location[DW_OP_bregx 0x24 9]
    2235              $C$DW$225       .dwtag  DW_TAG_variable, DW_AT_name("xTempNextMessageLength")
    2236                      .dwattr $C$DW$225, DW_AT_TI_symbol_name("_xTempNextMessageLength")
    2237                      .dwattr $C$DW$225, DW_AT_type(*$C$DW$T$20)
    2238                      .dwattr $C$DW$225, DW_AT_location[DW_OP_bregx 0x24 10]
    2239 000572 CA0C          MOV AR2, *SP(#6) ; |923| 
    2240 000574 C50A          MOV T1, *SP(#5) ; |923| 
    2241 000576 C408          MOV T0, *SP(#4) ; |923| 
    2242 000578 EB04          MOV XAR1, dbl(*SP(#2))
         00057a 95   
    2243 00057b EB00          MOV XAR0, dbl(*SP(#0))
         00057d 85   
    2244                      .dwpsn  file "../FreeRTOS/Source/stream_buffer.c",line 927,column 2,is_stmt
    2245 00057e A90C          MOV *SP(#6), AR1 ; |927| 
    2246 000580 0409          BCC $C$L45,AR1 == #0 ; |927| 
         000582 35   
    2247                                                      ; branchcc occurs ; |927| 
    2248                      .dwpsn  file "../FreeRTOS/Source/stream_buffer.c",line 933,column 3,is_stmt
    2249 000583 ED00          MOV dbl(*SP(#0)), XAR3
         000585 BF   
    2250 000586 A961          MOV *AR3, AR1 ; |933| 
    2251 000588 C90E          MOV AR1, *SP(#7) ; |933| 
    2252                      .dwpsn  file "../FreeRTOS/Source/stream_buffer.c",line 934,column 3,is_stmt
    2253 00058a ED00          MOV dbl(*SP(#0)), XAR0
         00058c 8F   
    2254 00058d A40C          MOV *SP(#6), T0 ; |934| 
    2255 00058f A50A          MOV *SP(#5), T1 ; |934| 
    2256 000591 EC14          AMAR *SP(#10), XAR1
         000593 9E   
    2257              $C$DW$226       .dwtag  DW_TAG_TI_branch
    2258                      .dwattr $C$DW$226, DW_AT_low_pc(0x00)
    2259                      .dwattr $C$DW$226, DW_AT_name("_prvReadBytesFromBuffer")
    2260                      .dwattr $C$DW$226, DW_AT_TI_call
    2261 000594 0801          CALL #_prvReadBytesFromBuffer ; |934| 
         000596 C1   
    2262                                                      ; call occurs [#_prvReadBytesFromBuffer] ; |934| 
    2263                      .dwpsn  file "../FreeRTOS/Source/stream_buffer.c",line 935,column 3,is_stmt
    2264 000597 A914          MOV *SP(#10), AR1 ; |935| 
    2265 000599 C912          MOV AR1, *SP(#9) ; |935| 
    2266                      .dwpsn  file "../FreeRTOS/Source/stream_buffer.c",line 939,column 3,is_stmt
    2267 00059b A00A          MOV *SP(#5), AC0 ; |939| 
    2268 00059d DF0C          SUB uns(*SP(#6)), AC0, AC0 ; |939| 
         00059f 0F   
    2269 0005a0 C00A          MOV AC0, *SP(#5) ; |939| 
TMS320C55x Assembler PC v4.4.1 Sat Sep 08 07:38:04 2018

Tools Copyright (c) 1996-2012 Texas Instruments Incorporated
stream_buffer.asm                                                    PAGE   48

    2270                      .dwpsn  file "../FreeRTOS/Source/stream_buffer.c",line 943,column 3,is_stmt
    2271 0005a2 AA12          MOV *SP(#9), AR2 ; |943| 
    2272 0005a4 A908          MOV *SP(#4), AR1 ; |943| 
    2273 0005a6 1298          CMPU AR2 <= AR1, TC1 ; |943| 
         0005a8 A4   
    2274 0005a9 0464          BCC $C$L46,TC1 ; |943| 
         0005ab 10   
    2275                                                      ; branchcc occurs ; |943| 
    2276                      .dwpsn  file "../FreeRTOS/Source/stream_buffer.c",line 948,column 4,is_stmt
    2277 0005ac ED00          MOV dbl(*SP(#0)), XAR3
         0005ae BF   
    2278 0005af A90E          MOV *SP(#7), AR1 ; |948| 
    2279 0005b1 C961          MOV AR1, *AR3 ; |948| 
    2280                      .dwpsn  file "../FreeRTOS/Source/stream_buffer.c",line 949,column 4,is_stmt
    2281 0005b3 E612          MOV #0, *SP(#9) ; |949| 
         0005b5 00   
    2282                      .dwpsn  file "../FreeRTOS/Source/stream_buffer.c",line 950,column 3,is_stmt
    2283 0005b6 4A04          B $C$L46  ; |950| 
    2284                                                      ; branch occurs ; |950| 
    2285 0005b8       $C$L45:    
    2286                      .dwpsn  file "../FreeRTOS/Source/stream_buffer.c",line 960,column 3,is_stmt
    2287 0005b8 A908          MOV *SP(#4), AR1 ; |960| 
    2288 0005ba C912          MOV AR1, *SP(#9) ; |960| 
    2289 0005bc       $C$L46:    
    2290                      .dwpsn  file "../FreeRTOS/Source/stream_buffer.c",line 964,column 2,is_stmt
    2291 0005bc ED00          MOV dbl(*SP(#0)), XAR0
         0005be 8F   
    2292 0005bf ED04          MOV dbl(*SP(#2)), XAR1
         0005c1 9F   
    2293 0005c2 A412          MOV *SP(#9), T0 ; |964| 
    2294 0005c4 A50A          MOV *SP(#5), T1 ; |964| 
    2295              $C$DW$227       .dwtag  DW_TAG_TI_branch
    2296                      .dwattr $C$DW$227, DW_AT_low_pc(0x00)
    2297                      .dwattr $C$DW$227, DW_AT_name("_prvReadBytesFromBuffer")
    2298                      .dwattr $C$DW$227, DW_AT_TI_call
    2299 0005c6 0801          CALL #_prvReadBytesFromBuffer ; |964| 
         0005c8 8F   
    2300                                                      ; call occurs [#_prvReadBytesFromBuffer] ; |964| 
    2301 0005c9 C410          MOV T0, *SP(#8) ; |964| 
    2302                      .dwpsn  file "../FreeRTOS/Source/stream_buffer.c",line 966,column 2,is_stmt
    2303                      .dwpsn  file "../FreeRTOS/Source/stream_buffer.c",line 967,column 1,is_stmt
    2304 0005cb 4E0B          AADD #11, SP
    2305                      .dwcfi  cfa_offset, 1
    2306              $C$DW$228       .dwtag  DW_TAG_TI_branch
    2307                      .dwattr $C$DW$228, DW_AT_low_pc(0x00)
    2308                      .dwattr $C$DW$228, DW_AT_TI_return
    2309 0005cd 4804          RET
    2310                                                      ; return occurs
    2311                      .dwattr $C$DW$211, DW_AT_TI_end_file("../FreeRTOS/Source/stream_buffer.c")
    2312                      .dwattr $C$DW$211, DW_AT_TI_end_line(0x3c7)
    2313                      .dwattr $C$DW$211, DW_AT_TI_end_column(0x01)
    2314                      .dwendentry
    2315                      .dwendtag $C$DW$211
    2316              
    2317 0005cf               .sect   ".text"
TMS320C55x Assembler PC v4.4.1 Sat Sep 08 07:38:04 2018

Tools Copyright (c) 1996-2012 Texas Instruments Incorporated
stream_buffer.asm                                                    PAGE   49

    2318                      .align 4
    2319                      .global _xStreamBufferIsEmpty
    2320              
    2321              $C$DW$229       .dwtag  DW_TAG_subprogram, DW_AT_name("xStreamBufferIsEmpty")
    2322                      .dwattr $C$DW$229, DW_AT_low_pc(_xStreamBufferIsEmpty)
    2323                      .dwattr $C$DW$229, DW_AT_high_pc(0x00)
    2324                      .dwattr $C$DW$229, DW_AT_TI_symbol_name("_xStreamBufferIsEmpty")
    2325                      .dwattr $C$DW$229, DW_AT_external
    2326                      .dwattr $C$DW$229, DW_AT_type(*$C$DW$T$28)
    2327                      .dwattr $C$DW$229, DW_AT_TI_begin_file("../FreeRTOS/Source/stream_buffer.c")
    2328                      .dwattr $C$DW$229, DW_AT_TI_begin_line(0x3ca)
    2329                      .dwattr $C$DW$229, DW_AT_TI_begin_column(0x0c)
    2330                      .dwattr $C$DW$229, DW_AT_TI_max_frame_size(0x08)
    2331                      .dwpsn  file "../FreeRTOS/Source/stream_buffer.c",line 971,column 1,is_stmt,address _xStreamBufferIsE
    2332              
    2333                      .dwfde $C$DW$CIE, _xStreamBufferIsEmpty
    2334              $C$DW$230       .dwtag  DW_TAG_formal_parameter, DW_AT_name("xStreamBuffer")
    2335                      .dwattr $C$DW$230, DW_AT_TI_symbol_name("_xStreamBuffer")
    2336                      .dwattr $C$DW$230, DW_AT_type(*$C$DW$T$40)
    2337                      .dwattr $C$DW$230, DW_AT_location[DW_OP_reg17]
    2338              ;*******************************************************************************
    2339              ;* FUNCTION NAME: xStreamBufferIsEmpty                                         *
    2340              ;*                                                                             *
    2341              ;*   Function Uses Regs : T0,AR0,XAR0,AR1,AR2,AR3,XAR3,SP,TC1,M40,SATA,SATD,   *
    2342              ;*                        RDM,FRCT,SMUL                                        *
    2343              ;*   Stack Frame        : Compact (No Frame Pointer, w/ debug)                 *
    2344              ;*   Total Frame Size   : 8 words                                              *
    2345              ;*                        (2 return address/alignment)                         *
    2346              ;*                        (6 local values)                                     *
    2347              ;*   Min System Stack   : 1 word                                               *
    2348              ;*******************************************************************************
    2349 0005d0       _xStreamBufferIsEmpty:
    2350                      .dwcfi  cfa_offset, 1
    2351                      .dwcfi  save_reg_to_mem, 91, -1
    2352 0005d0 4EF9          AADD #-7, SP
    2353                      .dwcfi  cfa_offset, 8
    2354              $C$DW$231       .dwtag  DW_TAG_variable, DW_AT_name("xStreamBuffer")
    2355                      .dwattr $C$DW$231, DW_AT_TI_symbol_name("_xStreamBuffer")
    2356                      .dwattr $C$DW$231, DW_AT_type(*$C$DW$T$40)
    2357                      .dwattr $C$DW$231, DW_AT_location[DW_OP_bregx 0x24 0]
    2358              $C$DW$232       .dwtag  DW_TAG_variable, DW_AT_name("pxStreamBuffer")
    2359                      .dwattr $C$DW$232, DW_AT_TI_symbol_name("_pxStreamBuffer")
    2360                      .dwattr $C$DW$232, DW_AT_type(*$C$DW$T$36)
    2361                      .dwattr $C$DW$232, DW_AT_location[DW_OP_bregx 0x24 2]
    2362              $C$DW$233       .dwtag  DW_TAG_variable, DW_AT_name("xReturn")
    2363                      .dwattr $C$DW$233, DW_AT_TI_symbol_name("_xReturn")
    2364                      .dwattr $C$DW$233, DW_AT_type(*$C$DW$T$28)
    2365                      .dwattr $C$DW$233, DW_AT_location[DW_OP_bregx 0x24 4]
    2366              $C$DW$234       .dwtag  DW_TAG_variable, DW_AT_name("xTail")
    2367                      .dwattr $C$DW$234, DW_AT_TI_symbol_name("_xTail")
    2368                      .dwattr $C$DW$234, DW_AT_type(*$C$DW$T$20)
    2369                      .dwattr $C$DW$234, DW_AT_location[DW_OP_bregx 0x24 5]
    2370 0005d2 EB00          MOV XAR0, dbl(*SP(#0))
         0005d4 85   
    2371                      .dwpsn  file "../FreeRTOS/Source/stream_buffer.c",line 972,column 30,is_stmt
TMS320C55x Assembler PC v4.4.1 Sat Sep 08 07:38:04 2018

Tools Copyright (c) 1996-2012 Texas Instruments Incorporated
stream_buffer.asm                                                    PAGE   50

    2372 0005d5 ED00          MOV dbl(*SP(#0)), XAR3
         0005d7 BF   
    2373 0005d8 EB04          MOV XAR3, dbl(*SP(#2))
         0005da B5   
    2374                      .dwpsn  file "../FreeRTOS/Source/stream_buffer.c",line 979,column 2,is_stmt
    2375 0005db A961          MOV *AR3, AR1 ; |979| 
    2376 0005dd C90A          MOV AR1, *SP(#5) ; |979| 
    2377                      .dwpsn  file "../FreeRTOS/Source/stream_buffer.c",line 980,column 2,is_stmt
    2378 0005df ED04          MOV dbl(*SP(#2)), XAR3
         0005e1 BF   
    2379 0005e2 AA73          MOV *AR3(short(#1)), AR2 ; |980| 
    2380 0005e4 12AC          CMPU AR2 != AR1, TC1 ; |980| 
         0005e6 94   
    2381 0005e7 62E4          BCC $C$L47,TC1 ; |980| 
    2382                                                      ; branchcc occurs ; |980| 
    2383                      .dwpsn  file "../FreeRTOS/Source/stream_buffer.c",line 982,column 3,is_stmt
    2384 0005e9 E608          MOV #1, *SP(#4) ; |982| 
         0005eb 01   
    2385                      .dwpsn  file "../FreeRTOS/Source/stream_buffer.c",line 983,column 2,is_stmt
    2386 0005ec 4A03          B $C$L48  ; |983| 
    2387                                                      ; branch occurs ; |983| 
    2388 0005ee       $C$L47:    
    2389                      .dwpsn  file "../FreeRTOS/Source/stream_buffer.c",line 986,column 3,is_stmt
    2390 0005ee E608          MOV #0, *SP(#4) ; |986| 
         0005f0 00   
    2391 0005f1       $C$L48:    
    2392                      .dwpsn  file "../FreeRTOS/Source/stream_buffer.c",line 989,column 2,is_stmt
    2393 0005f1 A408          MOV *SP(#4), T0 ; |989| 
    2394                      .dwpsn  file "../FreeRTOS/Source/stream_buffer.c",line 990,column 1,is_stmt
    2395 0005f3 4E07          AADD #7, SP
    2396                      .dwcfi  cfa_offset, 1
    2397              $C$DW$235       .dwtag  DW_TAG_TI_branch
    2398                      .dwattr $C$DW$235, DW_AT_low_pc(0x00)
    2399                      .dwattr $C$DW$235, DW_AT_TI_return
    2400 0005f5 4804          RET
    2401                                                      ; return occurs
    2402                      .dwattr $C$DW$229, DW_AT_TI_end_file("../FreeRTOS/Source/stream_buffer.c")
    2403                      .dwattr $C$DW$229, DW_AT_TI_end_line(0x3de)
    2404                      .dwattr $C$DW$229, DW_AT_TI_end_column(0x01)
    2405                      .dwendentry
    2406                      .dwendtag $C$DW$229
    2407              
    2408 0005f7               .sect   ".text"
    2409                      .align 4
    2410                      .global _xStreamBufferIsFull
    2411              
    2412              $C$DW$236       .dwtag  DW_TAG_subprogram, DW_AT_name("xStreamBufferIsFull")
    2413                      .dwattr $C$DW$236, DW_AT_low_pc(_xStreamBufferIsFull)
    2414                      .dwattr $C$DW$236, DW_AT_high_pc(0x00)
    2415                      .dwattr $C$DW$236, DW_AT_TI_symbol_name("_xStreamBufferIsFull")
    2416                      .dwattr $C$DW$236, DW_AT_external
    2417                      .dwattr $C$DW$236, DW_AT_type(*$C$DW$T$28)
    2418                      .dwattr $C$DW$236, DW_AT_TI_begin_file("../FreeRTOS/Source/stream_buffer.c")
    2419                      .dwattr $C$DW$236, DW_AT_TI_begin_line(0x3e1)
    2420                      .dwattr $C$DW$236, DW_AT_TI_begin_column(0x0c)
TMS320C55x Assembler PC v4.4.1 Sat Sep 08 07:38:04 2018

Tools Copyright (c) 1996-2012 Texas Instruments Incorporated
stream_buffer.asm                                                    PAGE   51

    2421                      .dwattr $C$DW$236, DW_AT_TI_max_frame_size(0x08)
    2422                      .dwpsn  file "../FreeRTOS/Source/stream_buffer.c",line 994,column 1,is_stmt,address _xStreamBufferIsF
    2423              
    2424                      .dwfde $C$DW$CIE, _xStreamBufferIsFull
    2425              $C$DW$237       .dwtag  DW_TAG_formal_parameter, DW_AT_name("xStreamBuffer")
    2426                      .dwattr $C$DW$237, DW_AT_TI_symbol_name("_xStreamBuffer")
    2427                      .dwattr $C$DW$237, DW_AT_type(*$C$DW$T$40)
    2428                      .dwattr $C$DW$237, DW_AT_location[DW_OP_reg17]
    2429              ;*******************************************************************************
    2430              ;* FUNCTION NAME: xStreamBufferIsFull                                          *
    2431              ;*                                                                             *
    2432              ;*   Function Uses Regs : T0,AR0,XAR0,AR1,AR3,XAR3,SP,TC1,M40,SATA,SATD,RDM,   *
    2433              ;*                        FRCT,SMUL                                            *
    2434              ;*   Stack Frame        : Compact (No Frame Pointer, w/ debug)                 *
    2435              ;*   Total Frame Size   : 8 words                                              *
    2436              ;*                        (2 return address/alignment)                         *
    2437              ;*                        (6 local values)                                     *
    2438              ;*   Min System Stack   : 1 word                                               *
    2439              ;*******************************************************************************
    2440 0005f8       _xStreamBufferIsFull:
    2441                      .dwcfi  cfa_offset, 1
    2442                      .dwcfi  save_reg_to_mem, 91, -1
    2443 0005f8 4EF9          AADD #-7, SP
    2444                      .dwcfi  cfa_offset, 8
    2445              $C$DW$238       .dwtag  DW_TAG_variable, DW_AT_name("xStreamBuffer")
    2446                      .dwattr $C$DW$238, DW_AT_TI_symbol_name("_xStreamBuffer")
    2447                      .dwattr $C$DW$238, DW_AT_type(*$C$DW$T$40)
    2448                      .dwattr $C$DW$238, DW_AT_location[DW_OP_bregx 0x24 0]
    2449              $C$DW$239       .dwtag  DW_TAG_variable, DW_AT_name("xReturn")
    2450                      .dwattr $C$DW$239, DW_AT_TI_symbol_name("_xReturn")
    2451                      .dwattr $C$DW$239, DW_AT_type(*$C$DW$T$28)
    2452                      .dwattr $C$DW$239, DW_AT_location[DW_OP_bregx 0x24 2]
    2453              $C$DW$240       .dwtag  DW_TAG_variable, DW_AT_name("xBytesToStoreMessageLength")
    2454                      .dwattr $C$DW$240, DW_AT_TI_symbol_name("_xBytesToStoreMessageLength")
    2455                      .dwattr $C$DW$240, DW_AT_type(*$C$DW$T$20)
    2456                      .dwattr $C$DW$240, DW_AT_location[DW_OP_bregx 0x24 3]
    2457              $C$DW$241       .dwtag  DW_TAG_variable, DW_AT_name("pxStreamBuffer")
    2458                      .dwattr $C$DW$241, DW_AT_TI_symbol_name("_pxStreamBuffer")
    2459                      .dwattr $C$DW$241, DW_AT_type(*$C$DW$T$36)
    2460                      .dwattr $C$DW$241, DW_AT_location[DW_OP_bregx 0x24 4]
    2461 0005fa EB00          MOV XAR0, dbl(*SP(#0))
         0005fc 85   
    2462                      .dwpsn  file "../FreeRTOS/Source/stream_buffer.c",line 997,column 30,is_stmt
    2463 0005fd ED00          MOV dbl(*SP(#0)), XAR3
         0005ff BF   
    2464 000600 EB08          MOV XAR3, dbl(*SP(#4))
         000602 B5   
    2465                      .dwpsn  file "../FreeRTOS/Source/stream_buffer.c",line 1005,column 2,is_stmt
    2466 000603 DC6D          BTST #0, *AR3(#10), TC1 ; |1005| 
         000605 0000 
         000607 0A   
    2467 000608 62F4          BCC $C$L49,!TC1 ; |1005| 
    2468                                                      ; branchcc occurs ; |1005| 
    2469                      .dwpsn  file "../FreeRTOS/Source/stream_buffer.c",line 1007,column 3,is_stmt
    2470 00060a E606          MOV #1, *SP(#3) ; |1007| 
TMS320C55x Assembler PC v4.4.1 Sat Sep 08 07:38:04 2018

Tools Copyright (c) 1996-2012 Texas Instruments Incorporated
stream_buffer.asm                                                    PAGE   52

         00060c 01   
    2471                      .dwpsn  file "../FreeRTOS/Source/stream_buffer.c",line 1008,column 2,is_stmt
    2472 00060d 4A03          B $C$L50  ; |1008| 
    2473                                                      ; branch occurs ; |1008| 
    2474 00060f       $C$L49:    
    2475                      .dwpsn  file "../FreeRTOS/Source/stream_buffer.c",line 1011,column 3,is_stmt
    2476 00060f E606          MOV #0, *SP(#3) ; |1011| 
         000611 00   
    2477 000612       $C$L50:    
    2478                      .dwpsn  file "../FreeRTOS/Source/stream_buffer.c",line 1015,column 2,is_stmt
    2479 000612 ED00          MOV dbl(*SP(#0)), XAR0
         000614 8F   
    2480              $C$DW$242       .dwtag  DW_TAG_TI_branch
    2481                      .dwattr $C$DW$242, DW_AT_low_pc(0x00)
    2482                      .dwattr $C$DW$242, DW_AT_name("_xStreamBufferSpacesAvailable")
    2483                      .dwattr $C$DW$242, DW_AT_TI_call
    2484 000615 08FA          CALL #_xStreamBufferSpacesAvailable ; |1015| 
         000617 F8   
    2485                                                      ; call occurs [#_xStreamBufferSpacesAvailable] ; |1015| 
    2486 000618 A906          MOV *SP(#3), AR1 ; |1015| 
    2487 00061a 1294          CMPU T0 > AR1, TC1 ; |1015| 
         00061c 44   
    2488 00061d 62E4          BCC $C$L51,TC1 ; |1015| 
    2489                                                      ; branchcc occurs ; |1015| 
    2490                      .dwpsn  file "../FreeRTOS/Source/stream_buffer.c",line 1017,column 3,is_stmt
    2491 00061f E604          MOV #1, *SP(#2) ; |1017| 
         000621 01   
    2492                      .dwpsn  file "../FreeRTOS/Source/stream_buffer.c",line 1018,column 2,is_stmt
    2493 000622 4A03          B $C$L52  ; |1018| 
    2494                                                      ; branch occurs ; |1018| 
    2495 000624       $C$L51:    
    2496                      .dwpsn  file "../FreeRTOS/Source/stream_buffer.c",line 1021,column 3,is_stmt
    2497 000624 E604          MOV #0, *SP(#2) ; |1021| 
         000626 00   
    2498 000627       $C$L52:    
    2499                      .dwpsn  file "../FreeRTOS/Source/stream_buffer.c",line 1024,column 2,is_stmt
    2500 000627 A404          MOV *SP(#2), T0 ; |1024| 
    2501                      .dwpsn  file "../FreeRTOS/Source/stream_buffer.c",line 1025,column 1,is_stmt
    2502 000629 4E07          AADD #7, SP
    2503                      .dwcfi  cfa_offset, 1
    2504              $C$DW$243       .dwtag  DW_TAG_TI_branch
    2505                      .dwattr $C$DW$243, DW_AT_low_pc(0x00)
    2506                      .dwattr $C$DW$243, DW_AT_TI_return
    2507 00062b 4804          RET
    2508                                                      ; return occurs
    2509                      .dwattr $C$DW$236, DW_AT_TI_end_file("../FreeRTOS/Source/stream_buffer.c")
    2510                      .dwattr $C$DW$236, DW_AT_TI_end_line(0x401)
    2511                      .dwattr $C$DW$236, DW_AT_TI_end_column(0x01)
    2512                      .dwendentry
    2513                      .dwendtag $C$DW$236
    2514              
    2515 00062d               .sect   ".text"
    2516                      .align 4
    2517                      .global _xStreamBufferSendCompletedFromISR
    2518              
TMS320C55x Assembler PC v4.4.1 Sat Sep 08 07:38:04 2018

Tools Copyright (c) 1996-2012 Texas Instruments Incorporated
stream_buffer.asm                                                    PAGE   53

    2519              $C$DW$244       .dwtag  DW_TAG_subprogram, DW_AT_name("xStreamBufferSendCompletedFromISR")
    2520                      .dwattr $C$DW$244, DW_AT_low_pc(_xStreamBufferSendCompletedFromISR)
    2521                      .dwattr $C$DW$244, DW_AT_high_pc(0x00)
    2522                      .dwattr $C$DW$244, DW_AT_TI_symbol_name("_xStreamBufferSendCompletedFromISR")
    2523                      .dwattr $C$DW$244, DW_AT_external
    2524                      .dwattr $C$DW$244, DW_AT_type(*$C$DW$T$28)
    2525                      .dwattr $C$DW$244, DW_AT_TI_begin_file("../FreeRTOS/Source/stream_buffer.c")
    2526                      .dwattr $C$DW$244, DW_AT_TI_begin_line(0x404)
    2527                      .dwattr $C$DW$244, DW_AT_TI_begin_column(0x0c)
    2528                      .dwattr $C$DW$244, DW_AT_TI_max_frame_size(0x0a)
    2529                      .dwpsn  file "../FreeRTOS/Source/stream_buffer.c",line 1029,column 1,is_stmt,address _xStreamBufferSe
    2530              
    2531                      .dwfde $C$DW$CIE, _xStreamBufferSendCompletedFromISR
    2532              $C$DW$245       .dwtag  DW_TAG_formal_parameter, DW_AT_name("xStreamBuffer")
    2533                      .dwattr $C$DW$245, DW_AT_TI_symbol_name("_xStreamBuffer")
    2534                      .dwattr $C$DW$245, DW_AT_type(*$C$DW$T$40)
    2535                      .dwattr $C$DW$245, DW_AT_location[DW_OP_reg17]
    2536              $C$DW$246       .dwtag  DW_TAG_formal_parameter, DW_AT_name("pxHigherPriorityTaskWoken")
    2537                      .dwattr $C$DW$246, DW_AT_TI_symbol_name("_pxHigherPriorityTaskWoken")
    2538                      .dwattr $C$DW$246, DW_AT_type(*$C$DW$T$70)
    2539                      .dwattr $C$DW$246, DW_AT_location[DW_OP_reg19]
    2540              ;*******************************************************************************
    2541              ;* FUNCTION NAME: xStreamBufferSendCompletedFromISR                            *
    2542              ;*                                                                             *
    2543              ;*   Function Uses Regs : AC0,AC0,T0,AR0,XAR0,AR1,XAR1,AR2,XAR2,AR3,XAR3,SP,   *
    2544              ;*                        M40,SATA,SATD,RDM,FRCT,SMUL                          *
    2545              ;*   Stack Frame        : Compact (No Frame Pointer, w/ debug)                 *
    2546              ;*   Total Frame Size   : 10 words                                             *
    2547              ;*                        (2 return address/alignment)                         *
    2548              ;*                        (8 local values)                                     *
    2549              ;*   Min System Stack   : 1 word                                               *
    2550              ;*******************************************************************************
    2551 000630       _xStreamBufferSendCompletedFromISR:
    2552                      .dwcfi  cfa_offset, 1
    2553                      .dwcfi  save_reg_to_mem, 91, -1
    2554 000630 4EF7          AADD #-9, SP
    2555                      .dwcfi  cfa_offset, 10
    2556              $C$DW$247       .dwtag  DW_TAG_variable, DW_AT_name("xStreamBuffer")
    2557                      .dwattr $C$DW$247, DW_AT_TI_symbol_name("_xStreamBuffer")
    2558                      .dwattr $C$DW$247, DW_AT_type(*$C$DW$T$40)
    2559                      .dwattr $C$DW$247, DW_AT_location[DW_OP_bregx 0x24 0]
    2560              $C$DW$248       .dwtag  DW_TAG_variable, DW_AT_name("pxHigherPriorityTaskWoken")
    2561                      .dwattr $C$DW$248, DW_AT_TI_symbol_name("_pxHigherPriorityTaskWoken")
    2562                      .dwattr $C$DW$248, DW_AT_type(*$C$DW$T$70)
    2563                      .dwattr $C$DW$248, DW_AT_location[DW_OP_bregx 0x24 2]
    2564              $C$DW$249       .dwtag  DW_TAG_variable, DW_AT_name("pxStreamBuffer")
    2565                      .dwattr $C$DW$249, DW_AT_TI_symbol_name("_pxStreamBuffer")
    2566                      .dwattr $C$DW$249, DW_AT_type(*$C$DW$T$38)
    2567                      .dwattr $C$DW$249, DW_AT_location[DW_OP_bregx 0x24 4]
    2568              $C$DW$250       .dwtag  DW_TAG_variable, DW_AT_name("xReturn")
    2569                      .dwattr $C$DW$250, DW_AT_TI_symbol_name("_xReturn")
    2570                      .dwattr $C$DW$250, DW_AT_type(*$C$DW$T$28)
    2571                      .dwattr $C$DW$250, DW_AT_location[DW_OP_bregx 0x24 6]
    2572              $C$DW$251       .dwtag  DW_TAG_variable, DW_AT_name("uxSavedInterruptStatus")
    2573                      .dwattr $C$DW$251, DW_AT_TI_symbol_name("_uxSavedInterruptStatus")
TMS320C55x Assembler PC v4.4.1 Sat Sep 08 07:38:04 2018

Tools Copyright (c) 1996-2012 Texas Instruments Incorporated
stream_buffer.asm                                                    PAGE   54

    2574                      .dwattr $C$DW$251, DW_AT_type(*$C$DW$T$85)
    2575                      .dwattr $C$DW$251, DW_AT_location[DW_OP_bregx 0x24 7]
    2576 000632 EB04          MOV XAR1, dbl(*SP(#2))
         000634 95   
    2577 000635 EB00          MOV XAR0, dbl(*SP(#0))
         000637 85   
    2578                      .dwpsn  file "../FreeRTOS/Source/stream_buffer.c",line 1030,column 24,is_stmt
    2579 000638 ED00          MOV dbl(*SP(#0)), XAR3
         00063a BF   
    2580 00063b EB08          MOV XAR3, dbl(*SP(#4))
         00063d B5   
    2581                      .dwpsn  file "../FreeRTOS/Source/stream_buffer.c",line 1036,column 2,is_stmt
    2582 00063e E60E          MOV #0, *SP(#7) ; |1036| 
         000640 00   
    2583                      .dwpsn  file "../FreeRTOS/Source/stream_buffer.c",line 1038,column 3,is_stmt
    2584 000641 ED08          MOV dbl(*SP(#4)), XAR3
         000643 BF   
    2585 000644 ED79          MOV dbl(*AR3(short(#4))), XAR3
         000646 BF   
    2586 000647 90B0          MOV XAR3, AC0
    2587 000649 0400          BCC $C$L53,AC0 == #0 ; |1038| 
         00064b 24   
    2588                                                      ; branchcc occurs ; |1038| 
    2589                      .dwpsn  file "../FreeRTOS/Source/stream_buffer.c",line 1040,column 4,is_stmt
    2590 00064c ED08          MOV dbl(*SP(#4)), XAR3
         00064e BF   
    2591 00064f ED04          MOV dbl(*SP(#2)), XAR2
         000651 AF   
    2592 000652 EC31          AMOV #0, XAR1 ; |1040| 
         000654 9E00 
         000656 0000 
    2593 000658 3C00          MOV #0, AC0 ; |1040| 
    2594 00065a ED79          MOV dbl(*AR3(short(#4))), XAR0
         00065c 8F   
    2595              $C$DW$252       .dwtag  DW_TAG_TI_branch
    2596                      .dwattr $C$DW$252, DW_AT_low_pc(0x00)
    2597                      .dwattr $C$DW$252, DW_AT_name("_xTaskGenericNotifyFromISR")
    2598                      .dwattr $C$DW$252, DW_AT_TI_call
    2599              
    2600 00065d 6C00          CALL #_xTaskGenericNotifyFromISR ; |1040| 
         00065f 0000!
    2601 000661 3D04  ||      MOV #0, T0
    2602              
    2603                                                      ; call occurs [#_xTaskGenericNotifyFromISR] ; |1040| 
    2604                      .dwpsn  file "../FreeRTOS/Source/stream_buffer.c",line 1044,column 4,is_stmt
    2605 000663 ED08          MOV dbl(*SP(#4)), XAR3
         000665 BF   
    2606 000666 3C00          MOV #0, AC0 ; |1044| 
    2607 000668 EB79          MOV AC0, dbl(*AR3(short(#4)))
         00066a 08   
    2608                      .dwpsn  file "../FreeRTOS/Source/stream_buffer.c",line 1045,column 4,is_stmt
    2609 00066b E60C          MOV #1, *SP(#6) ; |1045| 
         00066d 01   
    2610                      .dwpsn  file "../FreeRTOS/Source/stream_buffer.c",line 1046,column 3,is_stmt
    2611 00066e 4A03          B $C$L54  ; |1046| 
TMS320C55x Assembler PC v4.4.1 Sat Sep 08 07:38:04 2018

Tools Copyright (c) 1996-2012 Texas Instruments Incorporated
stream_buffer.asm                                                    PAGE   55

    2612                                                      ; branch occurs ; |1046| 
    2613 000670       $C$L53:    
    2614                      .dwpsn  file "../FreeRTOS/Source/stream_buffer.c",line 1049,column 4,is_stmt
    2615 000670 E60C          MOV #0, *SP(#6) ; |1049| 
         000672 00   
    2616 000673       $C$L54:    
    2617                      .dwpsn  file "../FreeRTOS/Source/stream_buffer.c",line 1052,column 2,is_stmt
    2618                      .dwpsn  file "../FreeRTOS/Source/stream_buffer.c",line 1054,column 2,is_stmt
    2619 000673 A40C          MOV *SP(#6), T0 ; |1054| 
    2620                      .dwpsn  file "../FreeRTOS/Source/stream_buffer.c",line 1055,column 1,is_stmt
    2621 000675 4E09          AADD #9, SP
    2622                      .dwcfi  cfa_offset, 1
    2623              $C$DW$253       .dwtag  DW_TAG_TI_branch
    2624                      .dwattr $C$DW$253, DW_AT_low_pc(0x00)
    2625                      .dwattr $C$DW$253, DW_AT_TI_return
    2626 000677 4804          RET
    2627                                                      ; return occurs
    2628                      .dwattr $C$DW$244, DW_AT_TI_end_file("../FreeRTOS/Source/stream_buffer.c")
    2629                      .dwattr $C$DW$244, DW_AT_TI_end_line(0x41f)
    2630                      .dwattr $C$DW$244, DW_AT_TI_end_column(0x01)
    2631                      .dwendentry
    2632                      .dwendtag $C$DW$244
    2633              
    2634 000679               .sect   ".text"
    2635                      .align 4
    2636                      .global _xStreamBufferReceiveCompletedFromISR
    2637              
    2638              $C$DW$254       .dwtag  DW_TAG_subprogram, DW_AT_name("xStreamBufferReceiveCompletedFromISR")
    2639                      .dwattr $C$DW$254, DW_AT_low_pc(_xStreamBufferReceiveCompletedFromISR)
    2640                      .dwattr $C$DW$254, DW_AT_high_pc(0x00)
    2641                      .dwattr $C$DW$254, DW_AT_TI_symbol_name("_xStreamBufferReceiveCompletedFromISR")
    2642                      .dwattr $C$DW$254, DW_AT_external
    2643                      .dwattr $C$DW$254, DW_AT_type(*$C$DW$T$28)
    2644                      .dwattr $C$DW$254, DW_AT_TI_begin_file("../FreeRTOS/Source/stream_buffer.c")
    2645                      .dwattr $C$DW$254, DW_AT_TI_begin_line(0x422)
    2646                      .dwattr $C$DW$254, DW_AT_TI_begin_column(0x0c)
    2647                      .dwattr $C$DW$254, DW_AT_TI_max_frame_size(0x0a)
    2648                      .dwpsn  file "../FreeRTOS/Source/stream_buffer.c",line 1059,column 1,is_stmt,address _xStreamBufferRe
    2649              
    2650                      .dwfde $C$DW$CIE, _xStreamBufferReceiveCompletedFromISR
    2651              $C$DW$255       .dwtag  DW_TAG_formal_parameter, DW_AT_name("xStreamBuffer")
    2652                      .dwattr $C$DW$255, DW_AT_TI_symbol_name("_xStreamBuffer")
    2653                      .dwattr $C$DW$255, DW_AT_type(*$C$DW$T$40)
    2654                      .dwattr $C$DW$255, DW_AT_location[DW_OP_reg17]
    2655              $C$DW$256       .dwtag  DW_TAG_formal_parameter, DW_AT_name("pxHigherPriorityTaskWoken")
    2656                      .dwattr $C$DW$256, DW_AT_TI_symbol_name("_pxHigherPriorityTaskWoken")
    2657                      .dwattr $C$DW$256, DW_AT_type(*$C$DW$T$70)
    2658                      .dwattr $C$DW$256, DW_AT_location[DW_OP_reg19]
    2659              ;*******************************************************************************
    2660              ;* FUNCTION NAME: xStreamBufferReceiveCompletedFromISR                         *
    2661              ;*                                                                             *
    2662              ;*   Function Uses Regs : AC0,AC0,T0,AR0,XAR0,AR1,XAR1,AR2,XAR2,AR3,XAR3,SP,   *
    2663              ;*                        M40,SATA,SATD,RDM,FRCT,SMUL                          *
    2664              ;*   Stack Frame        : Compact (No Frame Pointer, w/ debug)                 *
    2665              ;*   Total Frame Size   : 10 words                                             *
TMS320C55x Assembler PC v4.4.1 Sat Sep 08 07:38:04 2018

Tools Copyright (c) 1996-2012 Texas Instruments Incorporated
stream_buffer.asm                                                    PAGE   56

    2666              ;*                        (2 return address/alignment)                         *
    2667              ;*                        (8 local values)                                     *
    2668              ;*   Min System Stack   : 1 word                                               *
    2669              ;*******************************************************************************
    2670 00067c       _xStreamBufferReceiveCompletedFromISR:
    2671                      .dwcfi  cfa_offset, 1
    2672                      .dwcfi  save_reg_to_mem, 91, -1
    2673 00067c 4EF7          AADD #-9, SP
    2674                      .dwcfi  cfa_offset, 10
    2675              $C$DW$257       .dwtag  DW_TAG_variable, DW_AT_name("xStreamBuffer")
    2676                      .dwattr $C$DW$257, DW_AT_TI_symbol_name("_xStreamBuffer")
    2677                      .dwattr $C$DW$257, DW_AT_type(*$C$DW$T$40)
    2678                      .dwattr $C$DW$257, DW_AT_location[DW_OP_bregx 0x24 0]
    2679              $C$DW$258       .dwtag  DW_TAG_variable, DW_AT_name("pxHigherPriorityTaskWoken")
    2680                      .dwattr $C$DW$258, DW_AT_TI_symbol_name("_pxHigherPriorityTaskWoken")
    2681                      .dwattr $C$DW$258, DW_AT_type(*$C$DW$T$70)
    2682                      .dwattr $C$DW$258, DW_AT_location[DW_OP_bregx 0x24 2]
    2683              $C$DW$259       .dwtag  DW_TAG_variable, DW_AT_name("pxStreamBuffer")
    2684                      .dwattr $C$DW$259, DW_AT_TI_symbol_name("_pxStreamBuffer")
    2685                      .dwattr $C$DW$259, DW_AT_type(*$C$DW$T$38)
    2686                      .dwattr $C$DW$259, DW_AT_location[DW_OP_bregx 0x24 4]
    2687              $C$DW$260       .dwtag  DW_TAG_variable, DW_AT_name("xReturn")
    2688                      .dwattr $C$DW$260, DW_AT_TI_symbol_name("_xReturn")
    2689                      .dwattr $C$DW$260, DW_AT_type(*$C$DW$T$28)
    2690                      .dwattr $C$DW$260, DW_AT_location[DW_OP_bregx 0x24 6]
    2691              $C$DW$261       .dwtag  DW_TAG_variable, DW_AT_name("uxSavedInterruptStatus")
    2692                      .dwattr $C$DW$261, DW_AT_TI_symbol_name("_uxSavedInterruptStatus")
    2693                      .dwattr $C$DW$261, DW_AT_type(*$C$DW$T$85)
    2694                      .dwattr $C$DW$261, DW_AT_location[DW_OP_bregx 0x24 7]
    2695 00067e EB04          MOV XAR1, dbl(*SP(#2))
         000680 95   
    2696 000681 EB00          MOV XAR0, dbl(*SP(#0))
         000683 85   
    2697                      .dwpsn  file "../FreeRTOS/Source/stream_buffer.c",line 1060,column 24,is_stmt
    2698 000684 ED00          MOV dbl(*SP(#0)), XAR3
         000686 BF   
    2699 000687 EB08          MOV XAR3, dbl(*SP(#4))
         000689 B5   
    2700                      .dwpsn  file "../FreeRTOS/Source/stream_buffer.c",line 1066,column 2,is_stmt
    2701 00068a E60E          MOV #0, *SP(#7) ; |1066| 
         00068c 00   
    2702                      .dwpsn  file "../FreeRTOS/Source/stream_buffer.c",line 1068,column 3,is_stmt
    2703 00068d ED08          MOV dbl(*SP(#4)), XAR3
         00068f BF   
    2704 000690 ED7D          MOV dbl(*AR3(short(#6))), XAR3
         000692 BF   
    2705 000693 90B0          MOV XAR3, AC0
    2706 000695 0400          BCC $C$L55,AC0 == #0 ; |1068| 
         000697 24   
    2707                                                      ; branchcc occurs ; |1068| 
    2708                      .dwpsn  file "../FreeRTOS/Source/stream_buffer.c",line 1070,column 4,is_stmt
    2709 000698 ED08          MOV dbl(*SP(#4)), XAR3
         00069a BF   
    2710 00069b ED04          MOV dbl(*SP(#2)), XAR2
         00069d AF   
TMS320C55x Assembler PC v4.4.1 Sat Sep 08 07:38:04 2018

Tools Copyright (c) 1996-2012 Texas Instruments Incorporated
stream_buffer.asm                                                    PAGE   57

    2711 00069e EC31          AMOV #0, XAR1 ; |1070| 
         0006a0 9E00 
         0006a2 0000 
    2712 0006a4 3C00          MOV #0, AC0 ; |1070| 
    2713 0006a6 ED7D          MOV dbl(*AR3(short(#6))), XAR0
         0006a8 8F   
    2714              $C$DW$262       .dwtag  DW_TAG_TI_branch
    2715                      .dwattr $C$DW$262, DW_AT_low_pc(0x00)
    2716                      .dwattr $C$DW$262, DW_AT_name("_xTaskGenericNotifyFromISR")
    2717                      .dwattr $C$DW$262, DW_AT_TI_call
    2718              
    2719 0006a9 6C00          CALL #_xTaskGenericNotifyFromISR ; |1070| 
         0006ab 0000!
    2720 0006ad 3D04  ||      MOV #0, T0
    2721              
    2722                                                      ; call occurs [#_xTaskGenericNotifyFromISR] ; |1070| 
    2723                      .dwpsn  file "../FreeRTOS/Source/stream_buffer.c",line 1074,column 4,is_stmt
    2724 0006af ED08          MOV dbl(*SP(#4)), XAR3
         0006b1 BF   
    2725 0006b2 3C00          MOV #0, AC0 ; |1074| 
    2726 0006b4 EB7D          MOV AC0, dbl(*AR3(short(#6)))
         0006b6 08   
    2727                      .dwpsn  file "../FreeRTOS/Source/stream_buffer.c",line 1075,column 4,is_stmt
    2728 0006b7 E60C          MOV #1, *SP(#6) ; |1075| 
         0006b9 01   
    2729                      .dwpsn  file "../FreeRTOS/Source/stream_buffer.c",line 1076,column 3,is_stmt
    2730 0006ba 4A03          B $C$L56  ; |1076| 
    2731                                                      ; branch occurs ; |1076| 
    2732 0006bc       $C$L55:    
    2733                      .dwpsn  file "../FreeRTOS/Source/stream_buffer.c",line 1079,column 4,is_stmt
    2734 0006bc E60C          MOV #0, *SP(#6) ; |1079| 
         0006be 00   
    2735 0006bf       $C$L56:    
    2736                      .dwpsn  file "../FreeRTOS/Source/stream_buffer.c",line 1082,column 2,is_stmt
    2737                      .dwpsn  file "../FreeRTOS/Source/stream_buffer.c",line 1084,column 2,is_stmt
    2738 0006bf A40C          MOV *SP(#6), T0 ; |1084| 
    2739                      .dwpsn  file "../FreeRTOS/Source/stream_buffer.c",line 1085,column 1,is_stmt
    2740 0006c1 4E09          AADD #9, SP
    2741                      .dwcfi  cfa_offset, 1
    2742              $C$DW$263       .dwtag  DW_TAG_TI_branch
    2743                      .dwattr $C$DW$263, DW_AT_low_pc(0x00)
    2744                      .dwattr $C$DW$263, DW_AT_TI_return
    2745 0006c3 4804          RET
    2746                                                      ; return occurs
    2747                      .dwattr $C$DW$254, DW_AT_TI_end_file("../FreeRTOS/Source/stream_buffer.c")
    2748                      .dwattr $C$DW$254, DW_AT_TI_end_line(0x43d)
    2749                      .dwattr $C$DW$254, DW_AT_TI_end_column(0x01)
    2750                      .dwendentry
    2751                      .dwendtag $C$DW$254
    2752              
    2753 0006c5               .sect   ".text"
    2754                      .align 4
    2755              
    2756              $C$DW$264       .dwtag  DW_TAG_subprogram, DW_AT_name("prvWriteBytesToBuffer")
    2757                      .dwattr $C$DW$264, DW_AT_low_pc(_prvWriteBytesToBuffer)
TMS320C55x Assembler PC v4.4.1 Sat Sep 08 07:38:04 2018

Tools Copyright (c) 1996-2012 Texas Instruments Incorporated
stream_buffer.asm                                                    PAGE   58

    2758                      .dwattr $C$DW$264, DW_AT_high_pc(0x00)
    2759                      .dwattr $C$DW$264, DW_AT_TI_symbol_name("_prvWriteBytesToBuffer")
    2760                      .dwattr $C$DW$264, DW_AT_type(*$C$DW$T$20)
    2761                      .dwattr $C$DW$264, DW_AT_TI_begin_file("../FreeRTOS/Source/stream_buffer.c")
    2762                      .dwattr $C$DW$264, DW_AT_TI_begin_line(0x440)
    2763                      .dwattr $C$DW$264, DW_AT_TI_begin_column(0x0f)
    2764                      .dwattr $C$DW$264, DW_AT_TI_max_frame_size(0x08)
    2765                      .dwpsn  file "../FreeRTOS/Source/stream_buffer.c",line 1089,column 1,is_stmt,address _prvWriteBytesTo
    2766              
    2767                      .dwfde $C$DW$CIE, _prvWriteBytesToBuffer
    2768              $C$DW$265       .dwtag  DW_TAG_formal_parameter, DW_AT_name("pxStreamBuffer")
    2769                      .dwattr $C$DW$265, DW_AT_TI_symbol_name("_pxStreamBuffer")
    2770                      .dwattr $C$DW$265, DW_AT_type(*$C$DW$T$38)
    2771                      .dwattr $C$DW$265, DW_AT_location[DW_OP_reg17]
    2772              $C$DW$266       .dwtag  DW_TAG_formal_parameter, DW_AT_name("pucData")
    2773                      .dwattr $C$DW$266, DW_AT_TI_symbol_name("_pucData")
    2774                      .dwattr $C$DW$266, DW_AT_type(*$C$DW$T$63)
    2775                      .dwattr $C$DW$266, DW_AT_location[DW_OP_reg19]
    2776              $C$DW$267       .dwtag  DW_TAG_formal_parameter, DW_AT_name("xCount")
    2777                      .dwattr $C$DW$267, DW_AT_TI_symbol_name("_xCount")
    2778                      .dwattr $C$DW$267, DW_AT_type(*$C$DW$T$20)
    2779                      .dwattr $C$DW$267, DW_AT_location[DW_OP_reg12]
    2780              ;*******************************************************************************
    2781              ;* FUNCTION NAME: prvWriteBytesToBuffer                                        *
    2782              ;*                                                                             *
    2783              ;*   Function Uses Regs : AC0,T0,AR0,XAR0,AR1,XAR1,AR2,AR3,XAR3,SP,CARRY,TC1,  *
    2784              ;*                        M40,SATA,SATD,RDM,FRCT,SMUL                          *
    2785              ;*   Stack Frame        : Compact (No Frame Pointer, w/ debug)                 *
    2786              ;*   Total Frame Size   : 8 words                                              *
    2787              ;*                        (1 return address/alignment)                         *
    2788              ;*                        (7 local values)                                     *
    2789              ;*   Min System Stack   : 1 word                                               *
    2790              ;*******************************************************************************
    2791 0006c8       _prvWriteBytesToBuffer:
    2792                      .dwcfi  cfa_offset, 1
    2793                      .dwcfi  save_reg_to_mem, 91, -1
    2794 0006c8 4EF9          AADD #-7, SP
    2795                      .dwcfi  cfa_offset, 8
    2796              $C$DW$268       .dwtag  DW_TAG_variable, DW_AT_name("pxStreamBuffer")
    2797                      .dwattr $C$DW$268, DW_AT_TI_symbol_name("_pxStreamBuffer")
    2798                      .dwattr $C$DW$268, DW_AT_type(*$C$DW$T$38)
    2799                      .dwattr $C$DW$268, DW_AT_location[DW_OP_bregx 0x24 0]
    2800              $C$DW$269       .dwtag  DW_TAG_variable, DW_AT_name("pucData")
    2801                      .dwattr $C$DW$269, DW_AT_TI_symbol_name("_pucData")
    2802                      .dwattr $C$DW$269, DW_AT_type(*$C$DW$T$63)
    2803                      .dwattr $C$DW$269, DW_AT_location[DW_OP_bregx 0x24 2]
    2804              $C$DW$270       .dwtag  DW_TAG_variable, DW_AT_name("xCount")
    2805                      .dwattr $C$DW$270, DW_AT_TI_symbol_name("_xCount")
    2806                      .dwattr $C$DW$270, DW_AT_type(*$C$DW$T$20)
    2807                      .dwattr $C$DW$270, DW_AT_location[DW_OP_bregx 0x24 4]
    2808              $C$DW$271       .dwtag  DW_TAG_variable, DW_AT_name("xNextHead")
    2809                      .dwattr $C$DW$271, DW_AT_TI_symbol_name("_xNextHead")
    2810                      .dwattr $C$DW$271, DW_AT_type(*$C$DW$T$20)
    2811                      .dwattr $C$DW$271, DW_AT_location[DW_OP_bregx 0x24 5]
    2812              $C$DW$272       .dwtag  DW_TAG_variable, DW_AT_name("xFirstLength")
TMS320C55x Assembler PC v4.4.1 Sat Sep 08 07:38:04 2018

Tools Copyright (c) 1996-2012 Texas Instruments Incorporated
stream_buffer.asm                                                    PAGE   59

    2813                      .dwattr $C$DW$272, DW_AT_TI_symbol_name("_xFirstLength")
    2814                      .dwattr $C$DW$272, DW_AT_type(*$C$DW$T$20)
    2815                      .dwattr $C$DW$272, DW_AT_location[DW_OP_bregx 0x24 6]
    2816 0006ca C408          MOV T0, *SP(#4) ; |1089| 
    2817 0006cc EB04          MOV XAR1, dbl(*SP(#2))
         0006ce 95   
    2818 0006cf EB00          MOV XAR0, dbl(*SP(#0))
         0006d1 85   
    2819                      .dwpsn  file "../FreeRTOS/Source/stream_buffer.c",line 1094,column 2,is_stmt
    2820 0006d2 ED00          MOV dbl(*SP(#0)), XAR3
         0006d4 BF   
    2821 0006d5 A973          MOV *AR3(short(#1)), AR1 ; |1094| 
    2822 0006d7 C90A          MOV AR1, *SP(#5) ; |1094| 
    2823                      .dwpsn  file "../FreeRTOS/Source/stream_buffer.c",line 1099,column 2,is_stmt
    2824 0006d9 ED00          MOV dbl(*SP(#0)), XAR3
         0006db BF   
    2825 0006dc A075          MOV *AR3(short(#2)), AC0 ; |1099| 
    2826 0006de DF0A          SUB uns(*SP(#5)), AC0, AC0 ; |1099| 
         0006e0 0F   
    2827              
    2828 0006e3 2309          MOV AC0, AR1 ; |1099| 
    2829 0006e1 AA08  ||      MOV *SP(#4), AR2 ; |1099| 
    2830              
    2831 0006e5 1298          CMPU AR1 >= AR2, TC1 ; |1099| 
         0006e7 A4   
    2832 0006e8 63E4          BCC $C$L57,TC1 ; |1099| 
    2833                                                      ; branchcc occurs ; |1099| 
    2834 0006ea A075          MOV *AR3(short(#2)), AC0 ; |1099| 
    2835 0006ec DF0A          SUB uns(*SP(#5)), AC0, AC0 ; |1099| 
         0006ee 0F   
    2836 0006ef 4A02          B $C$L58  ; |1099| 
    2837                                                      ; branch occurs ; |1099| 
    2838 0006f1       $C$L57:    
    2839 0006f1 22A0          MOV AR2, AC0
    2840 0006f3       $C$L58:    
    2841 0006f3 C00C          MOV AC0, *SP(#6) ; |1099| 
    2842                      .dwpsn  file "../FreeRTOS/Source/stream_buffer.c",line 1103,column 2,is_stmt
    2843 0006f5 ED00          MOV dbl(*SP(#0)), XAR3
         0006f7 BF   
    2844 0006f8 A90A          MOV *SP(#5), AR1 ; |1103| 
    2845 0006fa ED6D          MOV dbl(*AR3(#8)), XAR0
         0006fc 8F00 
         0006fe 08   
    2846 0006ff 1490          AADD AR1, AR0 ; |1103| 
         000701 80   
    2847 000702 ED04          MOV dbl(*SP(#2)), XAR1
         000704 9F   
    2848              $C$DW$273       .dwtag  DW_TAG_TI_branch
    2849                      .dwattr $C$DW$273, DW_AT_low_pc(0x00)
    2850                      .dwattr $C$DW$273, DW_AT_name("_memcpy")
    2851                      .dwattr $C$DW$273, DW_AT_TI_call
    2852              
    2853 000705 6C00          CALL #_memcpy ; |1103| 
         000707 0000!
    2854 000709 2304  ||      MOV AC0, T0
TMS320C55x Assembler PC v4.4.1 Sat Sep 08 07:38:04 2018

Tools Copyright (c) 1996-2012 Texas Instruments Incorporated
stream_buffer.asm                                                    PAGE   60

    2855              
    2856                                                      ; call occurs [#_memcpy] ; |1103| 
    2857                      .dwpsn  file "../FreeRTOS/Source/stream_buffer.c",line 1107,column 2,is_stmt
    2858 00070b AA08          MOV *SP(#4), AR2 ; |1107| 
    2859 00070d A90C          MOV *SP(#6), AR1 ; |1107| 
    2860 00070f 1298          CMPU AR2 <= AR1, TC1 ; |1107| 
         000711 A4   
    2861 000712 0464          BCC $C$L59,TC1 ; |1107| 
         000714 1B   
    2862                                                      ; branchcc occurs ; |1107| 
    2863                      .dwpsn  file "../FreeRTOS/Source/stream_buffer.c",line 1111,column 3,is_stmt
    2864 000715 ED00          MOV dbl(*SP(#0)), XAR3
         000717 BF   
    2865 000718 ED04          MOV dbl(*SP(#2)), XAR1
         00071a 9F   
    2866 00071b AA0C          MOV *SP(#6), AR2 ; |1111| 
    2867 00071d A008          MOV *SP(#4), AC0 ; |1111| 
    2868 00071f ED6D          MOV dbl(*AR3(#8)), XAR0
         000721 8F00 
         000723 08   
    2869              
    2870                      AADD AR2, AR1 ; |1111| 
    2871 000724 8D0C  ||      SUB uns(*SP(#6)), AC0, AC0 ; |1111| 
         000726 9F18 
         000728 0FA0 
    2872              
    2873              $C$DW$274       .dwtag  DW_TAG_TI_branch
    2874                      .dwattr $C$DW$274, DW_AT_low_pc(0x00)
    2875                      .dwattr $C$DW$274, DW_AT_name("_memcpy")
    2876                      .dwattr $C$DW$274, DW_AT_TI_call
    2877              
    2878 00072a 6C00          CALL #_memcpy ; |1111| 
         00072c 0000!
    2879 00072e 2304  ||      MOV AC0, T0 ; |1111| 
    2880              
    2881                                                      ; call occurs [#_memcpy] ; |1111| 
    2882                      .dwpsn  file "../FreeRTOS/Source/stream_buffer.c",line 1112,column 2,is_stmt
    2883 000730       $C$L59:    
    2884                      .dwpsn  file "../FreeRTOS/Source/stream_buffer.c",line 1118,column 2,is_stmt
    2885 000730 A908          MOV *SP(#4), AR1 ; |1118| 
    2886 000732 D60A          ADD *SP(#5), AR1, AR1 ; |1118| 
         000734 99   
    2887 000735 C90A          MOV AR1, *SP(#5) ; |1118| 
    2888                      .dwpsn  file "../FreeRTOS/Source/stream_buffer.c",line 1119,column 2,is_stmt
    2889 000737 ED00          MOV dbl(*SP(#0)), XAR3
         000739 BF   
    2890 00073a AA0A          MOV *SP(#5), AR2 ; |1119| 
    2891 00073c A975          MOV *AR3(short(#2)), AR1 ; |1119| 
    2892 00073e 12A4          CMPU AR2 < AR1, TC1 ; |1119| 
         000740 94   
    2893 000741 63E4          BCC $C$L60,TC1 ; |1119| 
    2894                                                      ; branchcc occurs ; |1119| 
    2895                      .dwpsn  file "../FreeRTOS/Source/stream_buffer.c",line 1121,column 3,is_stmt
    2896 000743 22A0          MOV AR2, AC0
    2897 000745 DF75          SUB uns(*AR3(short(#2))), AC0, AC0 ; |1121| 
TMS320C55x Assembler PC v4.4.1 Sat Sep 08 07:38:04 2018

Tools Copyright (c) 1996-2012 Texas Instruments Incorporated
stream_buffer.asm                                                    PAGE   61

         000747 0F   
    2898 000748 C00A          MOV AC0, *SP(#5) ; |1121| 
    2899                      .dwpsn  file "../FreeRTOS/Source/stream_buffer.c",line 1122,column 2,is_stmt
    2900 00074a       $C$L60:    
    2901                      .dwpsn  file "../FreeRTOS/Source/stream_buffer.c",line 1128,column 2,is_stmt
    2902 00074a ED00          MOV dbl(*SP(#0)), XAR3
         00074c BF   
    2903 00074d A90A          MOV *SP(#5), AR1 ; |1128| 
    2904 00074f C973          MOV AR1, *AR3(short(#1)) ; |1128| 
    2905                      .dwpsn  file "../FreeRTOS/Source/stream_buffer.c",line 1130,column 2,is_stmt
    2906 000751 A408          MOV *SP(#4), T0 ; |1130| 
    2907                      .dwpsn  file "../FreeRTOS/Source/stream_buffer.c",line 1131,column 1,is_stmt
    2908 000753 4E07          AADD #7, SP
    2909                      .dwcfi  cfa_offset, 1
    2910              $C$DW$275       .dwtag  DW_TAG_TI_branch
    2911                      .dwattr $C$DW$275, DW_AT_low_pc(0x00)
    2912                      .dwattr $C$DW$275, DW_AT_TI_return
    2913 000755 4804          RET
    2914                                                      ; return occurs
    2915                      .dwattr $C$DW$264, DW_AT_TI_end_file("../FreeRTOS/Source/stream_buffer.c")
    2916                      .dwattr $C$DW$264, DW_AT_TI_end_line(0x46b)
    2917                      .dwattr $C$DW$264, DW_AT_TI_end_column(0x01)
    2918                      .dwendentry
    2919                      .dwendtag $C$DW$264
    2920              
    2921 000757               .sect   ".text"
    2922                      .align 4
    2923              
    2924              $C$DW$276       .dwtag  DW_TAG_subprogram, DW_AT_name("prvReadBytesFromBuffer")
    2925                      .dwattr $C$DW$276, DW_AT_low_pc(_prvReadBytesFromBuffer)
    2926                      .dwattr $C$DW$276, DW_AT_high_pc(0x00)
    2927                      .dwattr $C$DW$276, DW_AT_TI_symbol_name("_prvReadBytesFromBuffer")
    2928                      .dwattr $C$DW$276, DW_AT_type(*$C$DW$T$20)
    2929                      .dwattr $C$DW$276, DW_AT_TI_begin_file("../FreeRTOS/Source/stream_buffer.c")
    2930                      .dwattr $C$DW$276, DW_AT_TI_begin_line(0x46e)
    2931                      .dwattr $C$DW$276, DW_AT_TI_begin_column(0x0f)
    2932                      .dwattr $C$DW$276, DW_AT_TI_max_frame_size(0x0a)
    2933                      .dwpsn  file "../FreeRTOS/Source/stream_buffer.c",line 1135,column 1,is_stmt,address _prvReadBytesFro
    2934              
    2935                      .dwfde $C$DW$CIE, _prvReadBytesFromBuffer
    2936              $C$DW$277       .dwtag  DW_TAG_formal_parameter, DW_AT_name("pxStreamBuffer")
    2937                      .dwattr $C$DW$277, DW_AT_TI_symbol_name("_pxStreamBuffer")
    2938                      .dwattr $C$DW$277, DW_AT_type(*$C$DW$T$37)
    2939                      .dwattr $C$DW$277, DW_AT_location[DW_OP_reg17]
    2940              $C$DW$278       .dwtag  DW_TAG_formal_parameter, DW_AT_name("pucData")
    2941                      .dwattr $C$DW$278, DW_AT_TI_symbol_name("_pucData")
    2942                      .dwattr $C$DW$278, DW_AT_type(*$C$DW$T$26)
    2943                      .dwattr $C$DW$278, DW_AT_location[DW_OP_reg19]
    2944              $C$DW$279       .dwtag  DW_TAG_formal_parameter, DW_AT_name("xMaxCount")
    2945                      .dwattr $C$DW$279, DW_AT_TI_symbol_name("_xMaxCount")
    2946                      .dwattr $C$DW$279, DW_AT_type(*$C$DW$T$20)
    2947                      .dwattr $C$DW$279, DW_AT_location[DW_OP_reg12]
    2948              $C$DW$280       .dwtag  DW_TAG_formal_parameter, DW_AT_name("xBytesAvailable")
    2949                      .dwattr $C$DW$280, DW_AT_TI_symbol_name("_xBytesAvailable")
    2950                      .dwattr $C$DW$280, DW_AT_type(*$C$DW$T$20)
TMS320C55x Assembler PC v4.4.1 Sat Sep 08 07:38:04 2018

Tools Copyright (c) 1996-2012 Texas Instruments Incorporated
stream_buffer.asm                                                    PAGE   62

    2951                      .dwattr $C$DW$280, DW_AT_location[DW_OP_reg13]
    2952              ;*******************************************************************************
    2953              ;* FUNCTION NAME: prvReadBytesFromBuffer                                       *
    2954              ;*                                                                             *
    2955              ;*   Function Uses Regs : AC0,T0,T1,AR0,XAR0,AR1,XAR1,AR2,AR3,XAR3,SP,CARRY,   *
    2956              ;*                        TC1,M40,SATA,SATD,RDM,FRCT,SMUL                      *
    2957              ;*   Stack Frame        : Compact (No Frame Pointer, w/ debug)                 *
    2958              ;*   Total Frame Size   : 10 words                                             *
    2959              ;*                        (1 return address/alignment)                         *
    2960              ;*                        (9 local values)                                     *
    2961              ;*   Min System Stack   : 1 word                                               *
    2962              ;*******************************************************************************
    2963 000758       _prvReadBytesFromBuffer:
    2964                      .dwcfi  cfa_offset, 1
    2965                      .dwcfi  save_reg_to_mem, 91, -1
    2966 000758 4EF7          AADD #-9, SP
    2967                      .dwcfi  cfa_offset, 10
    2968              $C$DW$281       .dwtag  DW_TAG_variable, DW_AT_name("pxStreamBuffer")
    2969                      .dwattr $C$DW$281, DW_AT_TI_symbol_name("_pxStreamBuffer")
    2970                      .dwattr $C$DW$281, DW_AT_type(*$C$DW$T$37)
    2971                      .dwattr $C$DW$281, DW_AT_location[DW_OP_bregx 0x24 0]
    2972              $C$DW$282       .dwtag  DW_TAG_variable, DW_AT_name("pucData")
    2973                      .dwattr $C$DW$282, DW_AT_TI_symbol_name("_pucData")
    2974                      .dwattr $C$DW$282, DW_AT_type(*$C$DW$T$26)
    2975                      .dwattr $C$DW$282, DW_AT_location[DW_OP_bregx 0x24 2]
    2976              $C$DW$283       .dwtag  DW_TAG_variable, DW_AT_name("xMaxCount")
    2977                      .dwattr $C$DW$283, DW_AT_TI_symbol_name("_xMaxCount")
    2978                      .dwattr $C$DW$283, DW_AT_type(*$C$DW$T$20)
    2979                      .dwattr $C$DW$283, DW_AT_location[DW_OP_bregx 0x24 4]
    2980              $C$DW$284       .dwtag  DW_TAG_variable, DW_AT_name("xBytesAvailable")
    2981                      .dwattr $C$DW$284, DW_AT_TI_symbol_name("_xBytesAvailable")
    2982                      .dwattr $C$DW$284, DW_AT_type(*$C$DW$T$20)
    2983                      .dwattr $C$DW$284, DW_AT_location[DW_OP_bregx 0x24 5]
    2984              $C$DW$285       .dwtag  DW_TAG_variable, DW_AT_name("xCount")
    2985                      .dwattr $C$DW$285, DW_AT_TI_symbol_name("_xCount")
    2986                      .dwattr $C$DW$285, DW_AT_type(*$C$DW$T$20)
    2987                      .dwattr $C$DW$285, DW_AT_location[DW_OP_bregx 0x24 6]
    2988              $C$DW$286       .dwtag  DW_TAG_variable, DW_AT_name("xFirstLength")
    2989                      .dwattr $C$DW$286, DW_AT_TI_symbol_name("_xFirstLength")
    2990                      .dwattr $C$DW$286, DW_AT_type(*$C$DW$T$20)
    2991                      .dwattr $C$DW$286, DW_AT_location[DW_OP_bregx 0x24 7]
    2992              $C$DW$287       .dwtag  DW_TAG_variable, DW_AT_name("xNextTail")
    2993                      .dwattr $C$DW$287, DW_AT_TI_symbol_name("_xNextTail")
    2994                      .dwattr $C$DW$287, DW_AT_type(*$C$DW$T$20)
    2995                      .dwattr $C$DW$287, DW_AT_location[DW_OP_bregx 0x24 8]
    2996 00075a C50A          MOV T1, *SP(#5) ; |1135| 
    2997 00075c C408          MOV T0, *SP(#4) ; |1135| 
    2998 00075e EB04          MOV XAR1, dbl(*SP(#2))
         000760 95   
    2999 000761 EB00          MOV XAR0, dbl(*SP(#0))
         000763 85   
    3000                      .dwpsn  file "../FreeRTOS/Source/stream_buffer.c",line 1139,column 2,is_stmt
    3001 000764 AA0A          MOV *SP(#5), AR2 ; |1139| 
    3002 000766 A908          MOV *SP(#4), AR1 ; |1139| 
    3003 000768 12A8          CMPU AR2 >= AR1, TC1 ; |1139| 
TMS320C55x Assembler PC v4.4.1 Sat Sep 08 07:38:04 2018

Tools Copyright (c) 1996-2012 Texas Instruments Incorporated
stream_buffer.asm                                                    PAGE   63

         00076a 94   
    3004 00076b 6164          BCC $C$L61,TC1 ; |1139| 
    3005                                                      ; branchcc occurs ; |1139| 
    3006 00076d 22A9          MOV AR2, AR1
    3007 00076f       $C$L61:    
    3008 00076f C90C          MOV AR1, *SP(#6) ; |1139| 
    3009                      .dwpsn  file "../FreeRTOS/Source/stream_buffer.c",line 1141,column 2,is_stmt
    3010 000771 0409          BCC $C$L66,AR1 == #0 ; |1141| 
         000773 7F   
    3011                                                      ; branchcc occurs ; |1141| 
    3012                      .dwpsn  file "../FreeRTOS/Source/stream_buffer.c",line 1143,column 3,is_stmt
    3013 000774 ED00          MOV dbl(*SP(#0)), XAR3
         000776 BF   
    3014 000777 A961          MOV *AR3, AR1 ; |1143| 
    3015 000779 C910          MOV AR1, *SP(#8) ; |1143| 
    3016                      .dwpsn  file "../FreeRTOS/Source/stream_buffer.c",line 1148,column 3,is_stmt
    3017 00077b ED00          MOV dbl(*SP(#0)), XAR3
         00077d BF   
    3018 00077e A075          MOV *AR3(short(#2)), AC0 ; |1148| 
    3019 000780 DF10          SUB uns(*SP(#8)), AC0, AC0 ; |1148| 
         000782 0F   
    3020              
    3021 000785 2309          MOV AC0, AR1 ; |1148| 
    3022 000783 AA0C  ||      MOV *SP(#6), AR2 ; |1148| 
    3023              
    3024 000787 1298          CMPU AR1 >= AR2, TC1 ; |1148| 
         000789 A4   
    3025 00078a 63E4          BCC $C$L62,TC1 ; |1148| 
    3026                                                      ; branchcc occurs ; |1148| 
    3027 00078c A075          MOV *AR3(short(#2)), AC0 ; |1148| 
    3028 00078e DF10          SUB uns(*SP(#8)), AC0, AC0 ; |1148| 
         000790 0F   
    3029 000791 4A02          B $C$L63  ; |1148| 
    3030                                                      ; branch occurs ; |1148| 
    3031 000793       $C$L62:    
    3032 000793 22A0          MOV AR2, AC0
    3033 000795       $C$L63:    
    3034 000795 C00E          MOV AC0, *SP(#7) ; |1148| 
    3035                      .dwpsn  file "../FreeRTOS/Source/stream_buffer.c",line 1154,column 3,is_stmt
    3036 000797 ED00          MOV dbl(*SP(#0)), XAR3
         000799 BF   
    3037 00079a AA10          MOV *SP(#8), AR2 ; |1154| 
    3038 00079c ED6D          MOV dbl(*AR3(#8)), XAR1
         00079e 9F00 
         0007a0 08   
    3039 0007a1 ED04          MOV dbl(*SP(#2)), XAR0
         0007a3 8F   
    3040 0007a4 14A0          AADD AR2, AR1 ; |1154| 
         0007a6 90   
    3041              $C$DW$288       .dwtag  DW_TAG_TI_branch
    3042                      .dwattr $C$DW$288, DW_AT_low_pc(0x00)
    3043                      .dwattr $C$DW$288, DW_AT_name("_memcpy")
    3044                      .dwattr $C$DW$288, DW_AT_TI_call
    3045              
    3046 0007a7 6C00          CALL #_memcpy ; |1154| 
TMS320C55x Assembler PC v4.4.1 Sat Sep 08 07:38:04 2018

Tools Copyright (c) 1996-2012 Texas Instruments Incorporated
stream_buffer.asm                                                    PAGE   64

         0007a9 0000!
    3047 0007ab 2304  ||      MOV AC0, T0
    3048              
    3049                                                      ; call occurs [#_memcpy] ; |1154| 
    3050                      .dwpsn  file "../FreeRTOS/Source/stream_buffer.c",line 1158,column 3,is_stmt
    3051 0007ad AA0C          MOV *SP(#6), AR2 ; |1158| 
    3052 0007af A90E          MOV *SP(#7), AR1 ; |1158| 
    3053 0007b1 1298          CMPU AR2 <= AR1, TC1 ; |1158| 
         0007b3 A4   
    3054 0007b4 0464          BCC $C$L64,TC1 ; |1158| 
         0007b6 1B   
    3055                                                      ; branchcc occurs ; |1158| 
    3056                      .dwpsn  file "../FreeRTOS/Source/stream_buffer.c",line 1162,column 4,is_stmt
    3057 0007b7 ED04          MOV dbl(*SP(#2)), XAR0
         0007b9 8F   
    3058 0007ba A90E          MOV *SP(#7), AR1 ; |1162| 
    3059 0007bc ED00          MOV dbl(*SP(#0)), XAR3
         0007be BF   
    3060 0007bf 22A0          MOV AR2, AC0
    3061              
    3062                      AADD AR1, AR0 ; |1162| 
    3063 0007c1 8D0E  ||      SUB uns(*SP(#7)), AC0, AC0 ; |1162| 
         0007c3 8F18 
         0007c5 0F90 
    3064              
    3065 0007c7 ED6D          MOV dbl(*AR3(#8)), XAR1
         0007c9 9F00 
         0007cb 08   
    3066              $C$DW$289       .dwtag  DW_TAG_TI_branch
    3067                      .dwattr $C$DW$289, DW_AT_low_pc(0x00)
    3068                      .dwattr $C$DW$289, DW_AT_name("_memcpy")
    3069                      .dwattr $C$DW$289, DW_AT_TI_call
    3070              
    3071 0007cc 6C00          CALL #_memcpy ; |1162| 
         0007ce 0000!
    3072 0007d0 2304  ||      MOV AC0, T0 ; |1162| 
    3073              
    3074                                                      ; call occurs [#_memcpy] ; |1162| 
    3075                      .dwpsn  file "../FreeRTOS/Source/stream_buffer.c",line 1163,column 3,is_stmt
    3076 0007d2       $C$L64:    
    3077                      .dwpsn  file "../FreeRTOS/Source/stream_buffer.c",line 1171,column 3,is_stmt
    3078 0007d2 A90C          MOV *SP(#6), AR1 ; |1171| 
    3079 0007d4 D610          ADD *SP(#8), AR1, AR1 ; |1171| 
         0007d6 99   
    3080 0007d7 C910          MOV AR1, *SP(#8) ; |1171| 
    3081                      .dwpsn  file "../FreeRTOS/Source/stream_buffer.c",line 1173,column 3,is_stmt
    3082 0007d9 ED00          MOV dbl(*SP(#0)), XAR3
         0007db BF   
    3083 0007dc AA10          MOV *SP(#8), AR2 ; |1173| 
    3084 0007de A975          MOV *AR3(short(#2)), AR1 ; |1173| 
    3085 0007e0 12A4          CMPU AR2 < AR1, TC1 ; |1173| 
         0007e2 94   
    3086 0007e3 63E4          BCC $C$L65,TC1 ; |1173| 
    3087                                                      ; branchcc occurs ; |1173| 
    3088                      .dwpsn  file "../FreeRTOS/Source/stream_buffer.c",line 1175,column 4,is_stmt
TMS320C55x Assembler PC v4.4.1 Sat Sep 08 07:38:04 2018

Tools Copyright (c) 1996-2012 Texas Instruments Incorporated
stream_buffer.asm                                                    PAGE   65

    3089 0007e5 22A0          MOV AR2, AC0
    3090 0007e7 DF75          SUB uns(*AR3(short(#2))), AC0, AC0 ; |1175| 
         0007e9 0F   
    3091 0007ea C010          MOV AC0, *SP(#8) ; |1175| 
    3092 0007ec       $C$L65:    
    3093                      .dwpsn  file "../FreeRTOS/Source/stream_buffer.c",line 1178,column 3,is_stmt
    3094 0007ec ED00          MOV dbl(*SP(#0)), XAR3
         0007ee BF   
    3095 0007ef A910          MOV *SP(#8), AR1 ; |1178| 
    3096 0007f1 C961          MOV AR1, *AR3 ; |1178| 
    3097                      .dwpsn  file "../FreeRTOS/Source/stream_buffer.c",line 1179,column 2,is_stmt
    3098 0007f3       $C$L66:    
    3099                      .dwpsn  file "../FreeRTOS/Source/stream_buffer.c",line 1185,column 2,is_stmt
    3100 0007f3 A40C          MOV *SP(#6), T0 ; |1185| 
    3101                      .dwpsn  file "../FreeRTOS/Source/stream_buffer.c",line 1186,column 1,is_stmt
    3102 0007f5 4E09          AADD #9, SP
    3103                      .dwcfi  cfa_offset, 1
    3104              $C$DW$290       .dwtag  DW_TAG_TI_branch
    3105                      .dwattr $C$DW$290, DW_AT_low_pc(0x00)
    3106                      .dwattr $C$DW$290, DW_AT_TI_return
    3107 0007f7 4804          RET
    3108                                                      ; return occurs
    3109                      .dwattr $C$DW$276, DW_AT_TI_end_file("../FreeRTOS/Source/stream_buffer.c")
    3110                      .dwattr $C$DW$276, DW_AT_TI_end_line(0x4a2)
    3111                      .dwattr $C$DW$276, DW_AT_TI_end_column(0x01)
    3112                      .dwendentry
    3113                      .dwendtag $C$DW$276
    3114              
    3115 0007f9               .sect   ".text"
    3116                      .align 4
    3117              
    3118              $C$DW$291       .dwtag  DW_TAG_subprogram, DW_AT_name("prvBytesInBuffer")
    3119                      .dwattr $C$DW$291, DW_AT_low_pc(_prvBytesInBuffer)
    3120                      .dwattr $C$DW$291, DW_AT_high_pc(0x00)
    3121                      .dwattr $C$DW$291, DW_AT_TI_symbol_name("_prvBytesInBuffer")
    3122                      .dwattr $C$DW$291, DW_AT_type(*$C$DW$T$20)
    3123                      .dwattr $C$DW$291, DW_AT_TI_begin_file("../FreeRTOS/Source/stream_buffer.c")
    3124                      .dwattr $C$DW$291, DW_AT_TI_begin_line(0x4a5)
