TMS320C55x Assembler PC v4.4.1 Sat Sep 08 17:11:34 2018

Tools Copyright (c) 1996-2012 Texas Instruments Incorporated
tasks.asm                                                            PAGE    1

    7824              ; Temporary Registers Used: None
       1              ;*******************************************************************************
       2              ;* TMS320C55x C/C++ Codegen                                          PC v4.4.1 *
       3              ;* Date/Time created: Sat Sep 08 17:11:31 2018                                 *
       4              ;*******************************************************************************
       5                      .compiler_opts --hll_source=on --mem_model:code=flat --mem_model:data=large --object_format=coff --si
       6                      .mmregs
       7                      .cpl_on
       8                      .arms_on
       9                      .c54cm_off
      10                      .asg AR6, FP
      11                      .asg XAR6, XFP
      12                      .asg DPH, MDP
      13                      .model call=c55_std
      14                      .model mem=large
      15                      .noremark 5002  ; code respects overwrite rules
      16              ;*******************************************************************************
      17              ;* GLOBAL FILE PARAMETERS                                                      *
      18              ;*                                                                             *
      19              ;*   Architecture       : TMS320C55x                                           *
      20              ;*   Optimizing for     : Speed                                                *
      21              ;*   Memory             : Large Model (23-Bit Data Pointers)                   *
      22              ;*   Calls              : Normal Library ASM calls                             *
      23              ;*   Debug Info         : Standard TI Debug Information                        *
      24              ;*******************************************************************************
      25              
      26              $C$DW$CU        .dwtag  DW_TAG_compile_unit
      27                      .dwattr $C$DW$CU, DW_AT_name("../FreeRTOS/Source/tasks.c")
      28                      .dwattr $C$DW$CU, DW_AT_producer("TMS320C55x C/C++ Codegen PC v4.4.1 Copyright (c) 1996-2012 Texas In
      29                      .dwattr $C$DW$CU, DW_AT_TI_version(0x01)
      30                      .dwattr $C$DW$CU, DW_AT_comp_dir("F:\eZdsp_C55x_FreeRTOS_Port\eZDSP\eZDSP_5535_Files\ccsws2\test\Debu
      31              ;******************************************************************************
      32              ;* CINIT RECORDS                                                              *
      33              ;******************************************************************************
      34 000000               .sect   ".cinit"
      35                      .align  1
      36 000000 0002          .field          2,16
      37 000001 0000-         .field          _pxCurrentTCB+0,24
         000002 0200 
      38 000002 0200          .field          0,8
      39 000003 0000          .field  0,32                    ; _pxCurrentTCB @ 0
         000004 0000 
      40              
      41 000005               .sect   ".cinit"
      42                      .align  1
      43 000005 0001          .field          1,16
      44 000006 0000-         .field          _uxDeletedTasksWaitingCleanUp+0,24
         000007 5800 
      45 000007 5800          .field          0,8
      46 000008 0000          .field  0,16                    ; _uxDeletedTasksWaitingCleanUp @ 0
      47              
      48 000009               .sect   ".cinit"
      49                      .align  1
      50 000009 0001          .field          1,16
      51 00000a 0000-         .field          _uxCurrentNumberOfTasks+0,24
TMS320C55x Assembler PC v4.4.1 Sat Sep 08 17:11:34 2018

Tools Copyright (c) 1996-2012 Texas Instruments Incorporated
tasks.asm                                                            PAGE    2

         00000b 5900 
      52 00000b 5900          .field          0,8
      53 00000c 0000          .field  0,16                    ; _uxCurrentNumberOfTasks @ 0
      54              
      55 00000d               .sect   ".cinit"
      56                      .align  1
      57 00000d 0001          .field          1,16
      58 00000e 0000-         .field          _xTickCount+0,24
         00000f 6400 
      59 00000f 6400          .field          0,8
      60 000010 0000          .field  0,16                    ; _xTickCount @ 0
      61              
      62 000011               .sect   ".cinit"
      63                      .align  1
      64 000011 0001          .field          1,16
      65 000012 0000-         .field          _uxTopReadyPriority+0,24
         000013 6500 
      66 000013 6500          .field          0,8
      67 000014 0000          .field  0,16                    ; _uxTopReadyPriority @ 0
      68              
      69 000015               .sect   ".cinit"
      70                      .align  1
      71 000015 0001          .field          1,16
      72 000016 0000-         .field          _xSchedulerRunning+0,24
         000017 6600 
      73 000017 6600          .field          0,8
      74 000018 0000          .field  0,16                    ; _xSchedulerRunning @ 0
      75              
      76 000019               .sect   ".cinit"
      77                      .align  1
      78 000019 0001          .field          1,16
      79 00001a 0000-         .field          _uxPendedTicks+0,24
         00001b 6700 
      80 00001b 6700          .field          0,8
      81 00001c 0000          .field  0,16                    ; _uxPendedTicks @ 0
      82              
      83 00001d               .sect   ".cinit"
      84                      .align  1
      85 00001d 0001          .field          1,16
      86 00001e 0000-         .field          _xYieldPending+0,24
         00001f 6800 
      87 00001f 6800          .field          0,8
      88 000020 0000          .field  0,16                    ; _xYieldPending @ 0
      89              
      90 000021               .sect   ".cinit"
      91                      .align  1
      92 000021 0001          .field          1,16
      93 000022 0000-         .field          _xNumOfOverflows+0,24
         000023 6900 
      94 000023 6900          .field          0,8
      95 000024 0000          .field  0,16                    ; _xNumOfOverflows @ 0
      96              
      97 000025               .sect   ".cinit"
      98                      .align  1
      99 000025 0001          .field          1,16
TMS320C55x Assembler PC v4.4.1 Sat Sep 08 17:11:34 2018

Tools Copyright (c) 1996-2012 Texas Instruments Incorporated
tasks.asm                                                            PAGE    3

     100 000026 0000-         .field          _uxTaskNumber+0,24
         000027 6A00 
     101 000027 6A00          .field          0,8
     102 000028 0000          .field  0,16                    ; _uxTaskNumber @ 0
     103              
     104 000029               .sect   ".cinit"
     105                      .align  1
     106 000029 0001          .field          1,16
     107 00002a 0000-         .field          _xNextTaskUnblockTime+0,24
         00002b 6B00 
     108 00002b 6B00          .field          0,8
     109 00002c 0000          .field  0,16                    ; _xNextTaskUnblockTime @ 0
     110              
     111 00002d               .sect   ".cinit"
     112                      .align  1
     113 00002d 0002          .field          2,16
     114 00002e 0000-         .field          _xIdleTaskHandle+0,24
         00002f 6C00 
     115 00002f 6C00          .field          0,8
     116 000030 0000          .field  0,32                    ; _xIdleTaskHandle @ 0
         000031 0000 
     117              
     118 000032               .sect   ".cinit"
     119                      .align  1
     120 000032 0001          .field          1,16
     121 000033 0000-         .field          _uxSchedulerSuspended+0,24
         000034 6E00 
     122 000034 6E00          .field          0,8
     123 000035 0000          .field  0,16                    ; _uxSchedulerSuspended @ 0
     124              
     125              
     126              $C$DW$1 .dwtag  DW_TAG_subprogram, DW_AT_name("memset")
     127                      .dwattr $C$DW$1, DW_AT_TI_symbol_name("_memset")
     128                      .dwattr $C$DW$1, DW_AT_type(*$C$DW$T$3)
     129                      .dwattr $C$DW$1, DW_AT_declaration
     130                      .dwattr $C$DW$1, DW_AT_external
     131              $C$DW$2 .dwtag  DW_TAG_formal_parameter
     132                      .dwattr $C$DW$2, DW_AT_type(*$C$DW$T$3)
     133              $C$DW$3 .dwtag  DW_TAG_formal_parameter
     134                      .dwattr $C$DW$3, DW_AT_type(*$C$DW$T$10)
     135              $C$DW$4 .dwtag  DW_TAG_formal_parameter
     136                      .dwattr $C$DW$4, DW_AT_type(*$C$DW$T$48)
     137                      .dwendtag $C$DW$1
     138              
     139              
     140              $C$DW$5 .dwtag  DW_TAG_subprogram, DW_AT_name("vPortYield")
     141                      .dwattr $C$DW$5, DW_AT_TI_symbol_name("_vPortYield")
     142                      .dwattr $C$DW$5, DW_AT_declaration
     143                      .dwattr $C$DW$5, DW_AT_external
     144              
     145              $C$DW$6 .dwtag  DW_TAG_subprogram, DW_AT_name("pxPortInitialiseStack")
     146                      .dwattr $C$DW$6, DW_AT_TI_symbol_name("_pxPortInitialiseStack")
     147                      .dwattr $C$DW$6, DW_AT_type(*$C$DW$T$26)
     148                      .dwattr $C$DW$6, DW_AT_declaration
     149                      .dwattr $C$DW$6, DW_AT_external
TMS320C55x Assembler PC v4.4.1 Sat Sep 08 17:11:34 2018

Tools Copyright (c) 1996-2012 Texas Instruments Incorporated
tasks.asm                                                            PAGE    4

     150              $C$DW$7 .dwtag  DW_TAG_formal_parameter
     151                      .dwattr $C$DW$7, DW_AT_type(*$C$DW$T$26)
     152              $C$DW$8 .dwtag  DW_TAG_formal_parameter
     153                      .dwattr $C$DW$8, DW_AT_type(*$C$DW$T$26)
     154              $C$DW$9 .dwtag  DW_TAG_formal_parameter
     155                      .dwattr $C$DW$9, DW_AT_type(*$C$DW$T$58)
     156              $C$DW$10        .dwtag  DW_TAG_formal_parameter
     157                      .dwattr $C$DW$10, DW_AT_type(*$C$DW$T$3)
     158                      .dwendtag $C$DW$6
     159              
     160              
     161              $C$DW$11        .dwtag  DW_TAG_subprogram, DW_AT_name("pvPortMalloc")
     162                      .dwattr $C$DW$11, DW_AT_TI_symbol_name("_pvPortMalloc")
     163                      .dwattr $C$DW$11, DW_AT_type(*$C$DW$T$3)
     164                      .dwattr $C$DW$11, DW_AT_declaration
     165                      .dwattr $C$DW$11, DW_AT_external
     166              $C$DW$12        .dwtag  DW_TAG_formal_parameter
     167                      .dwattr $C$DW$12, DW_AT_type(*$C$DW$T$48)
     168                      .dwendtag $C$DW$11
     169              
     170              
     171              $C$DW$13        .dwtag  DW_TAG_subprogram, DW_AT_name("vPortFree")
     172                      .dwattr $C$DW$13, DW_AT_TI_symbol_name("_vPortFree")
     173                      .dwattr $C$DW$13, DW_AT_declaration
     174                      .dwattr $C$DW$13, DW_AT_external
     175              $C$DW$14        .dwtag  DW_TAG_formal_parameter
     176                      .dwattr $C$DW$14, DW_AT_type(*$C$DW$T$3)
     177                      .dwendtag $C$DW$13
     178              
     179              
     180              $C$DW$15        .dwtag  DW_TAG_subprogram, DW_AT_name("xPortStartScheduler")
     181                      .dwattr $C$DW$15, DW_AT_TI_symbol_name("_xPortStartScheduler")
     182                      .dwattr $C$DW$15, DW_AT_type(*$C$DW$T$44)
     183                      .dwattr $C$DW$15, DW_AT_declaration
     184                      .dwattr $C$DW$15, DW_AT_external
     185              
     186              $C$DW$16        .dwtag  DW_TAG_subprogram, DW_AT_name("vPortEndScheduler")
     187                      .dwattr $C$DW$16, DW_AT_TI_symbol_name("_vPortEndScheduler")
     188                      .dwattr $C$DW$16, DW_AT_declaration
     189                      .dwattr $C$DW$16, DW_AT_external
     190              
     191              $C$DW$17        .dwtag  DW_TAG_subprogram, DW_AT_name("vListInitialise")
     192                      .dwattr $C$DW$17, DW_AT_TI_symbol_name("_vListInitialise")
     193                      .dwattr $C$DW$17, DW_AT_declaration
     194                      .dwattr $C$DW$17, DW_AT_external
     195              $C$DW$18        .dwtag  DW_TAG_formal_parameter
     196                      .dwattr $C$DW$18, DW_AT_type(*$C$DW$T$61)
     197                      .dwendtag $C$DW$17
     198              
     199              
     200              $C$DW$19        .dwtag  DW_TAG_subprogram, DW_AT_name("vListInitialiseItem")
     201                      .dwattr $C$DW$19, DW_AT_TI_symbol_name("_vListInitialiseItem")
     202                      .dwattr $C$DW$19, DW_AT_declaration
     203                      .dwattr $C$DW$19, DW_AT_external
     204              $C$DW$20        .dwtag  DW_TAG_formal_parameter
TMS320C55x Assembler PC v4.4.1 Sat Sep 08 17:11:34 2018

Tools Copyright (c) 1996-2012 Texas Instruments Incorporated
tasks.asm                                                            PAGE    5

     205                      .dwattr $C$DW$20, DW_AT_type(*$C$DW$T$64)
     206                      .dwendtag $C$DW$19
     207              
     208              
     209              $C$DW$21        .dwtag  DW_TAG_subprogram, DW_AT_name("vListInsert")
     210                      .dwattr $C$DW$21, DW_AT_TI_symbol_name("_vListInsert")
     211                      .dwattr $C$DW$21, DW_AT_declaration
     212                      .dwattr $C$DW$21, DW_AT_external
     213              $C$DW$22        .dwtag  DW_TAG_formal_parameter
     214                      .dwattr $C$DW$22, DW_AT_type(*$C$DW$T$61)
     215              $C$DW$23        .dwtag  DW_TAG_formal_parameter
     216                      .dwattr $C$DW$23, DW_AT_type(*$C$DW$T$64)
     217                      .dwendtag $C$DW$21
     218              
     219              
     220              $C$DW$24        .dwtag  DW_TAG_subprogram, DW_AT_name("vListInsertEnd")
     221                      .dwattr $C$DW$24, DW_AT_TI_symbol_name("_vListInsertEnd")
     222                      .dwattr $C$DW$24, DW_AT_declaration
     223                      .dwattr $C$DW$24, DW_AT_external
     224              $C$DW$25        .dwtag  DW_TAG_formal_parameter
     225                      .dwattr $C$DW$25, DW_AT_type(*$C$DW$T$61)
     226              $C$DW$26        .dwtag  DW_TAG_formal_parameter
     227                      .dwattr $C$DW$26, DW_AT_type(*$C$DW$T$64)
     228                      .dwendtag $C$DW$24
     229              
     230              
     231              $C$DW$27        .dwtag  DW_TAG_subprogram, DW_AT_name("uxListRemove")
     232                      .dwattr $C$DW$27, DW_AT_TI_symbol_name("_uxListRemove")
     233                      .dwattr $C$DW$27, DW_AT_type(*$C$DW$T$25)
     234                      .dwattr $C$DW$27, DW_AT_declaration
     235                      .dwattr $C$DW$27, DW_AT_external
     236              $C$DW$28        .dwtag  DW_TAG_formal_parameter
     237                      .dwattr $C$DW$28, DW_AT_type(*$C$DW$T$64)
     238                      .dwendtag $C$DW$27
     239              
     240              
     241              $C$DW$29        .dwtag  DW_TAG_subprogram, DW_AT_name("vApplicationStackOverflowHook")
     242                      .dwattr $C$DW$29, DW_AT_TI_symbol_name("_vApplicationStackOverflowHook")
     243                      .dwattr $C$DW$29, DW_AT_declaration
     244                      .dwattr $C$DW$29, DW_AT_external
     245              $C$DW$30        .dwtag  DW_TAG_formal_parameter
     246                      .dwattr $C$DW$30, DW_AT_type(*$C$DW$T$70)
     247              $C$DW$31        .dwtag  DW_TAG_formal_parameter
     248                      .dwattr $C$DW$31, DW_AT_type(*$C$DW$T$71)
     249                      .dwendtag $C$DW$29
     250              
     251              
     252              $C$DW$32        .dwtag  DW_TAG_subprogram, DW_AT_name("vApplicationIdleHook")
     253                      .dwattr $C$DW$32, DW_AT_TI_symbol_name("_vApplicationIdleHook")
     254                      .dwattr $C$DW$32, DW_AT_declaration
     255                      .dwattr $C$DW$32, DW_AT_external
     256                      .global _stackStruct
     257 000000               .bss    _stackStruct,2,0,2
     258              $C$DW$33        .dwtag  DW_TAG_variable, DW_AT_name("stackStruct")
     259                      .dwattr $C$DW$33, DW_AT_TI_symbol_name("_stackStruct")
TMS320C55x Assembler PC v4.4.1 Sat Sep 08 17:11:34 2018

Tools Copyright (c) 1996-2012 Texas Instruments Incorporated
tasks.asm                                                            PAGE    6

     260                      .dwattr $C$DW$33, DW_AT_location[DW_OP_addr _stackStruct]
     261                      .dwattr $C$DW$33, DW_AT_type(*$C$DW$T$154)
     262                      .dwattr $C$DW$33, DW_AT_external
     263                      .global _pxCurrentTCB
     264 000002               .bss    _pxCurrentTCB,2,0,2
     265              $C$DW$34        .dwtag  DW_TAG_variable, DW_AT_name("pxCurrentTCB")
     266                      .dwattr $C$DW$34, DW_AT_TI_symbol_name("_pxCurrentTCB")
     267                      .dwattr $C$DW$34, DW_AT_location[DW_OP_addr _pxCurrentTCB]
     268                      .dwattr $C$DW$34, DW_AT_type(*$C$DW$T$158)
     269                      .dwattr $C$DW$34, DW_AT_external
     270 000004               .bss    _pxReadyTasksLists,40,0,2
     271              $C$DW$35        .dwtag  DW_TAG_variable, DW_AT_name("pxReadyTasksLists")
     272                      .dwattr $C$DW$35, DW_AT_TI_symbol_name("_pxReadyTasksLists")
     273                      .dwattr $C$DW$35, DW_AT_type(*$C$DW$T$161)
     274                      .dwattr $C$DW$35, DW_AT_location[DW_OP_addr _pxReadyTasksLists]
     275 00002c               .bss    _xDelayedTaskList1,10,0,2
     276              $C$DW$36        .dwtag  DW_TAG_variable, DW_AT_name("xDelayedTaskList1")
     277                      .dwattr $C$DW$36, DW_AT_TI_symbol_name("_xDelayedTaskList1")
     278                      .dwattr $C$DW$36, DW_AT_type(*$C$DW$T$59)
     279                      .dwattr $C$DW$36, DW_AT_location[DW_OP_addr _xDelayedTaskList1]
     280 000036               .bss    _xDelayedTaskList2,10,0,2
     281              $C$DW$37        .dwtag  DW_TAG_variable, DW_AT_name("xDelayedTaskList2")
     282                      .dwattr $C$DW$37, DW_AT_TI_symbol_name("_xDelayedTaskList2")
     283                      .dwattr $C$DW$37, DW_AT_type(*$C$DW$T$59)
     284                      .dwattr $C$DW$37, DW_AT_location[DW_OP_addr _xDelayedTaskList2]
     285 000040               .bss    _pxDelayedTaskList,2,0,2
     286              $C$DW$38        .dwtag  DW_TAG_variable, DW_AT_name("pxDelayedTaskList")
     287                      .dwattr $C$DW$38, DW_AT_TI_symbol_name("_pxDelayedTaskList")
     288                      .dwattr $C$DW$38, DW_AT_type(*$C$DW$T$160)
     289                      .dwattr $C$DW$38, DW_AT_location[DW_OP_addr _pxDelayedTaskList]
     290 000042               .bss    _pxOverflowDelayedTaskList,2,0,2
     291              $C$DW$39        .dwtag  DW_TAG_variable, DW_AT_name("pxOverflowDelayedTaskList")
     292                      .dwattr $C$DW$39, DW_AT_TI_symbol_name("_pxOverflowDelayedTaskList")
     293                      .dwattr $C$DW$39, DW_AT_type(*$C$DW$T$160)
     294                      .dwattr $C$DW$39, DW_AT_location[DW_OP_addr _pxOverflowDelayedTaskList]
     295 000044               .bss    _xPendingReadyList,10,0,2
     296              $C$DW$40        .dwtag  DW_TAG_variable, DW_AT_name("xPendingReadyList")
     297                      .dwattr $C$DW$40, DW_AT_TI_symbol_name("_xPendingReadyList")
     298                      .dwattr $C$DW$40, DW_AT_type(*$C$DW$T$59)
     299                      .dwattr $C$DW$40, DW_AT_location[DW_OP_addr _xPendingReadyList]
     300 00004e               .bss    _xTasksWaitingTermination,10,0,2
     301              $C$DW$41        .dwtag  DW_TAG_variable, DW_AT_name("xTasksWaitingTermination")
     302                      .dwattr $C$DW$41, DW_AT_TI_symbol_name("_xTasksWaitingTermination")
     303                      .dwattr $C$DW$41, DW_AT_type(*$C$DW$T$59)
     304                      .dwattr $C$DW$41, DW_AT_location[DW_OP_addr _xTasksWaitingTermination]
     305 000058               .bss    _uxDeletedTasksWaitingCleanUp,1,0,0
     306              $C$DW$42        .dwtag  DW_TAG_variable, DW_AT_name("uxDeletedTasksWaitingCleanUp")
     307                      .dwattr $C$DW$42, DW_AT_TI_symbol_name("_uxDeletedTasksWaitingCleanUp")
     308                      .dwattr $C$DW$42, DW_AT_type(*$C$DW$T$34)
     309                      .dwattr $C$DW$42, DW_AT_location[DW_OP_addr _uxDeletedTasksWaitingCleanUp]
     310 00005a               .bss    _xSuspendedTaskList,10,0,2
     311              $C$DW$43        .dwtag  DW_TAG_variable, DW_AT_name("xSuspendedTaskList")
     312                      .dwattr $C$DW$43, DW_AT_TI_symbol_name("_xSuspendedTaskList")
     313                      .dwattr $C$DW$43, DW_AT_type(*$C$DW$T$59)
     314                      .dwattr $C$DW$43, DW_AT_location[DW_OP_addr _xSuspendedTaskList]
TMS320C55x Assembler PC v4.4.1 Sat Sep 08 17:11:34 2018

Tools Copyright (c) 1996-2012 Texas Instruments Incorporated
tasks.asm                                                            PAGE    7

     315 000059               .bss    _uxCurrentNumberOfTasks,1,0,0
     316              $C$DW$44        .dwtag  DW_TAG_variable, DW_AT_name("uxCurrentNumberOfTasks")
     317                      .dwattr $C$DW$44, DW_AT_TI_symbol_name("_uxCurrentNumberOfTasks")
     318                      .dwattr $C$DW$44, DW_AT_type(*$C$DW$T$34)
     319                      .dwattr $C$DW$44, DW_AT_location[DW_OP_addr _uxCurrentNumberOfTasks]
     320 000064               .bss    _xTickCount,1,0,0
     321              $C$DW$45        .dwtag  DW_TAG_variable, DW_AT_name("xTickCount")
     322                      .dwattr $C$DW$45, DW_AT_TI_symbol_name("_xTickCount")
     323                      .dwattr $C$DW$45, DW_AT_type(*$C$DW$T$142)
     324                      .dwattr $C$DW$45, DW_AT_location[DW_OP_addr _xTickCount]
     325 000065               .bss    _uxTopReadyPriority,1,0,0
     326              $C$DW$46        .dwtag  DW_TAG_variable, DW_AT_name("uxTopReadyPriority")
     327                      .dwattr $C$DW$46, DW_AT_TI_symbol_name("_uxTopReadyPriority")
     328                      .dwattr $C$DW$46, DW_AT_type(*$C$DW$T$34)
     329                      .dwattr $C$DW$46, DW_AT_location[DW_OP_addr _uxTopReadyPriority]
     330 000066               .bss    _xSchedulerRunning,1,0,0
     331              $C$DW$47        .dwtag  DW_TAG_variable, DW_AT_name("xSchedulerRunning")
     332                      .dwattr $C$DW$47, DW_AT_TI_symbol_name("_xSchedulerRunning")
     333                      .dwattr $C$DW$47, DW_AT_type(*$C$DW$T$114)
     334                      .dwattr $C$DW$47, DW_AT_location[DW_OP_addr _xSchedulerRunning]
     335 000067               .bss    _uxPendedTicks,1,0,0
     336              $C$DW$48        .dwtag  DW_TAG_variable, DW_AT_name("uxPendedTicks")
     337                      .dwattr $C$DW$48, DW_AT_TI_symbol_name("_uxPendedTicks")
     338                      .dwattr $C$DW$48, DW_AT_type(*$C$DW$T$34)
     339                      .dwattr $C$DW$48, DW_AT_location[DW_OP_addr _uxPendedTicks]
     340 000068               .bss    _xYieldPending,1,0,0
     341              $C$DW$49        .dwtag  DW_TAG_variable, DW_AT_name("xYieldPending")
     342                      .dwattr $C$DW$49, DW_AT_TI_symbol_name("_xYieldPending")
     343                      .dwattr $C$DW$49, DW_AT_type(*$C$DW$T$114)
     344                      .dwattr $C$DW$49, DW_AT_location[DW_OP_addr _xYieldPending]
     345 000069               .bss    _xNumOfOverflows,1,0,0
     346              $C$DW$50        .dwtag  DW_TAG_variable, DW_AT_name("xNumOfOverflows")
     347                      .dwattr $C$DW$50, DW_AT_TI_symbol_name("_xNumOfOverflows")
     348                      .dwattr $C$DW$50, DW_AT_type(*$C$DW$T$114)
     349                      .dwattr $C$DW$50, DW_AT_location[DW_OP_addr _xNumOfOverflows]
     350 00006a               .bss    _uxTaskNumber,1,0,0
     351              $C$DW$51        .dwtag  DW_TAG_variable, DW_AT_name("uxTaskNumber")
     352                      .dwattr $C$DW$51, DW_AT_TI_symbol_name("_uxTaskNumber")
     353                      .dwattr $C$DW$51, DW_AT_type(*$C$DW$T$25)
     354                      .dwattr $C$DW$51, DW_AT_location[DW_OP_addr _uxTaskNumber]
     355 00006b               .bss    _xNextTaskUnblockTime,1,0,0
     356              $C$DW$52        .dwtag  DW_TAG_variable, DW_AT_name("xNextTaskUnblockTime")
     357                      .dwattr $C$DW$52, DW_AT_TI_symbol_name("_xNextTaskUnblockTime")
     358                      .dwattr $C$DW$52, DW_AT_type(*$C$DW$T$142)
     359                      .dwattr $C$DW$52, DW_AT_location[DW_OP_addr _xNextTaskUnblockTime]
     360 00006c               .bss    _xIdleTaskHandle,2,0,2
     361              $C$DW$53        .dwtag  DW_TAG_variable, DW_AT_name("xIdleTaskHandle")
     362                      .dwattr $C$DW$53, DW_AT_TI_symbol_name("_xIdleTaskHandle")
     363                      .dwattr $C$DW$53, DW_AT_type(*$C$DW$T$70)
     364                      .dwattr $C$DW$53, DW_AT_location[DW_OP_addr _xIdleTaskHandle]
     365 00006e               .bss    _uxSchedulerSuspended,1,0,0
     366              $C$DW$54        .dwtag  DW_TAG_variable, DW_AT_name("uxSchedulerSuspended")
     367                      .dwattr $C$DW$54, DW_AT_TI_symbol_name("_uxSchedulerSuspended")
     368                      .dwattr $C$DW$54, DW_AT_type(*$C$DW$T$34)
     369                      .dwattr $C$DW$54, DW_AT_location[DW_OP_addr _uxSchedulerSuspended]
TMS320C55x Assembler PC v4.4.1 Sat Sep 08 17:11:34 2018

Tools Copyright (c) 1996-2012 Texas Instruments Incorporated
tasks.asm                                                            PAGE    8

     370              $C$DW$55        .dwtag  DW_TAG_variable, DW_AT_name("usCriticalNesting")
     371                      .dwattr $C$DW$55, DW_AT_TI_symbol_name("_usCriticalNesting")
     372                      .dwattr $C$DW$55, DW_AT_type(*$C$DW$T$144)
     373                      .dwattr $C$DW$55, DW_AT_declaration
     374                      .dwattr $C$DW$55, DW_AT_external
     375              ;       F:\TI_CCS_7P4\ccsv7\tools\compiler\c5500_4.4.1\bin\acp55.exe -@f:\\AppData\\Local\\Temp\\0743212 
     376 000000               .sect   ".text"
     377                      .align 4
     378                      .global _xTaskCreate
     379              
     380              $C$DW$56        .dwtag  DW_TAG_subprogram, DW_AT_name("xTaskCreate")
     381                      .dwattr $C$DW$56, DW_AT_low_pc(_xTaskCreate)
     382                      .dwattr $C$DW$56, DW_AT_high_pc(0x00)
     383                      .dwattr $C$DW$56, DW_AT_TI_symbol_name("_xTaskCreate")
     384                      .dwattr $C$DW$56, DW_AT_external
     385                      .dwattr $C$DW$56, DW_AT_type(*$C$DW$T$44)
     386                      .dwattr $C$DW$56, DW_AT_TI_begin_file("../FreeRTOS/Source/tasks.c")
     387                      .dwattr $C$DW$56, DW_AT_TI_begin_line(0x2f4)
     388                      .dwattr $C$DW$56, DW_AT_TI_begin_column(0x0d)
     389                      .dwattr $C$DW$56, DW_AT_TI_max_frame_size(0x16)
     390                      .dwpsn  file "../FreeRTOS/Source/tasks.c",line 762,column 2,is_stmt,address _xTaskCreate
     391              
     392                      .dwfde $C$DW$CIE, _xTaskCreate
     393              $C$DW$57        .dwtag  DW_TAG_formal_parameter, DW_AT_name("pxTaskCode")
     394                      .dwattr $C$DW$57, DW_AT_TI_symbol_name("_pxTaskCode")
     395                      .dwattr $C$DW$57, DW_AT_type(*$C$DW$T$58)
     396                      .dwattr $C$DW$57, DW_AT_location[DW_OP_reg1]
     397              $C$DW$58        .dwtag  DW_TAG_formal_parameter, DW_AT_name("pcName")
     398                      .dwattr $C$DW$58, DW_AT_TI_symbol_name("_pcName")
     399                      .dwattr $C$DW$58, DW_AT_type(*$C$DW$T$76)
     400                      .dwattr $C$DW$58, DW_AT_location[DW_OP_reg17]
     401              $C$DW$59        .dwtag  DW_TAG_formal_parameter, DW_AT_name("usStackDepth")
     402                      .dwattr $C$DW$59, DW_AT_TI_symbol_name("_usStackDepth")
     403                      .dwattr $C$DW$59, DW_AT_type(*$C$DW$T$118)
     404                      .dwattr $C$DW$59, DW_AT_location[DW_OP_reg12]
     405              $C$DW$60        .dwtag  DW_TAG_formal_parameter, DW_AT_name("pvParameters")
     406                      .dwattr $C$DW$60, DW_AT_TI_symbol_name("_pvParameters")
     407                      .dwattr $C$DW$60, DW_AT_type(*$C$DW$T$53)
     408                      .dwattr $C$DW$60, DW_AT_location[DW_OP_reg19]
     409              $C$DW$61        .dwtag  DW_TAG_formal_parameter, DW_AT_name("uxPriority")
     410                      .dwattr $C$DW$61, DW_AT_TI_symbol_name("_uxPriority")
     411                      .dwattr $C$DW$61, DW_AT_type(*$C$DW$T$25)
     412                      .dwattr $C$DW$61, DW_AT_location[DW_OP_reg13]
     413              $C$DW$62        .dwtag  DW_TAG_formal_parameter, DW_AT_name("pxCreatedTask")
     414                      .dwattr $C$DW$62, DW_AT_TI_symbol_name("_pxCreatedTask")
     415                      .dwattr $C$DW$62, DW_AT_type(*$C$DW$T$79)
     416                      .dwattr $C$DW$62, DW_AT_location[DW_OP_reg21]
     417              ;*******************************************************************************
     418              ;* FUNCTION NAME: xTaskCreate                                                  *
     419              ;*                                                                             *
     420              ;*   Function Uses Regs : AC0,AC0,AC1,AC1,T0,T1,AR0,XAR0,AR1,XAR1,AR2,XAR2,AR3,*
     421              ;*                        XAR3,AR4,XAR4,SP,M40,SATA,SATD,RDM,FRCT,SMUL         *
     422              ;*   Stack Frame        : Compact (No Frame Pointer, w/ debug)                 *
     423              ;*   Total Frame Size   : 22 words                                             *
     424              ;*                        (2 return address/alignment)                         *
TMS320C55x Assembler PC v4.4.1 Sat Sep 08 17:11:34 2018

Tools Copyright (c) 1996-2012 Texas Instruments Incorporated
tasks.asm                                                            PAGE    9

     425              ;*                        (20 local values)                                    *
     426              ;*   Min System Stack   : 1 word                                               *
     427              ;*******************************************************************************
     428 000000       _xTaskCreate:
     429                      .dwcfi  cfa_offset, 1
     430                      .dwcfi  save_reg_to_mem, 91, -1
     431 000000 4EEB          AADD #-21, SP
     432                      .dwcfi  cfa_offset, 22
     433              $C$DW$63        .dwtag  DW_TAG_variable, DW_AT_name("pxTaskCode")
     434                      .dwattr $C$DW$63, DW_AT_TI_symbol_name("_pxTaskCode")
     435                      .dwattr $C$DW$63, DW_AT_type(*$C$DW$T$58)
     436                      .dwattr $C$DW$63, DW_AT_location[DW_OP_bregx 0x24 0]
     437              $C$DW$64        .dwtag  DW_TAG_variable, DW_AT_name("pcName")
     438                      .dwattr $C$DW$64, DW_AT_TI_symbol_name("_pcName")
     439                      .dwattr $C$DW$64, DW_AT_type(*$C$DW$T$76)
     440                      .dwattr $C$DW$64, DW_AT_location[DW_OP_bregx 0x24 2]
     441              $C$DW$65        .dwtag  DW_TAG_variable, DW_AT_name("usStackDepth")
     442                      .dwattr $C$DW$65, DW_AT_TI_symbol_name("_usStackDepth")
     443                      .dwattr $C$DW$65, DW_AT_type(*$C$DW$T$118)
     444                      .dwattr $C$DW$65, DW_AT_location[DW_OP_bregx 0x24 4]
     445              $C$DW$66        .dwtag  DW_TAG_variable, DW_AT_name("pvParameters")
     446                      .dwattr $C$DW$66, DW_AT_TI_symbol_name("_pvParameters")
     447                      .dwattr $C$DW$66, DW_AT_type(*$C$DW$T$53)
     448                      .dwattr $C$DW$66, DW_AT_location[DW_OP_bregx 0x24 6]
     449              $C$DW$67        .dwtag  DW_TAG_variable, DW_AT_name("uxPriority")
     450                      .dwattr $C$DW$67, DW_AT_TI_symbol_name("_uxPriority")
     451                      .dwattr $C$DW$67, DW_AT_type(*$C$DW$T$25)
     452                      .dwattr $C$DW$67, DW_AT_location[DW_OP_bregx 0x24 8]
     453              $C$DW$68        .dwtag  DW_TAG_variable, DW_AT_name("pxCreatedTask")
     454                      .dwattr $C$DW$68, DW_AT_TI_symbol_name("_pxCreatedTask")
     455                      .dwattr $C$DW$68, DW_AT_type(*$C$DW$T$79)
     456                      .dwattr $C$DW$68, DW_AT_location[DW_OP_bregx 0x24 10]
     457              $C$DW$69        .dwtag  DW_TAG_variable, DW_AT_name("pxNewTCB")
     458                      .dwattr $C$DW$69, DW_AT_TI_symbol_name("_pxNewTCB")
     459                      .dwattr $C$DW$69, DW_AT_type(*$C$DW$T$82)
     460                      .dwattr $C$DW$69, DW_AT_location[DW_OP_bregx 0x24 12]
     461              $C$DW$70        .dwtag  DW_TAG_variable, DW_AT_name("xReturn")
     462                      .dwattr $C$DW$70, DW_AT_TI_symbol_name("_xReturn")
     463                      .dwattr $C$DW$70, DW_AT_type(*$C$DW$T$44)
     464                      .dwattr $C$DW$70, DW_AT_location[DW_OP_bregx 0x24 14]
     465 000002 EB14          MOV XAR2, dbl(*SP(#10))
         000004 A5   
     466 000005 C510          MOV T1, *SP(#8) ; |762| 
     467 000007 EB0C          MOV XAR1, dbl(*SP(#6))
         000009 95   
     468 00000a C408          MOV T0, *SP(#4) ; |762| 
     469 00000c EB04          MOV XAR0, dbl(*SP(#2))
         00000e 85   
     470 00000f EB00          MOV AC0, dbl(*SP(#0)) ; |762| 
         000011 08   
     471              
     472              $C$DW$71        .dwtag  DW_TAG_lexical_block, DW_AT_low_pc(0x00), DW_AT_high_pc(0x00)
     473              $C$DW$72        .dwtag  DW_TAG_variable, DW_AT_name("pxStack")
     474                      .dwattr $C$DW$72, DW_AT_TI_symbol_name("_pxStack")
     475                      .dwattr $C$DW$72, DW_AT_type(*$C$DW$T$26)
TMS320C55x Assembler PC v4.4.1 Sat Sep 08 17:11:34 2018

Tools Copyright (c) 1996-2012 Texas Instruments Incorporated
tasks.asm                                                            PAGE   10

     476                      .dwattr $C$DW$72, DW_AT_location[DW_OP_bregx 0x24 16]
     477              $C$DW$73        .dwtag  DW_TAG_variable, DW_AT_name("pxSysStack")
     478                      .dwattr $C$DW$73, DW_AT_TI_symbol_name("_pxSysStack")
     479                      .dwattr $C$DW$73, DW_AT_type(*$C$DW$T$26)
     480                      .dwattr $C$DW$73, DW_AT_location[DW_OP_bregx 0x24 18]
     481                      .dwpsn  file "../FreeRTOS/Source/tasks.c",line 800,column 4,is_stmt
     482 000012 A408          MOV *SP(#4), T0 ; |800| 
     483              $C$DW$74        .dwtag  DW_TAG_TI_branch
     484                      .dwattr $C$DW$74, DW_AT_low_pc(0x00)
     485                      .dwattr $C$DW$74, DW_AT_name("_pvPortMalloc")
     486                      .dwattr $C$DW$74, DW_AT_TI_call
     487 000014 6C00          CALL #_pvPortMalloc ; |800| 
         000016 0000!
     488                                                      ; call occurs [#_pvPortMalloc] ; |800| 
     489 000018 EB20          MOV XAR0, dbl(*SP(#16))
         00001a 85   
     490                      .dwpsn  file "../FreeRTOS/Source/tasks.c",line 801,column 4,is_stmt
     491 00001b A408          MOV *SP(#4), T0 ; |801| 
     492              $C$DW$75        .dwtag  DW_TAG_TI_branch
     493                      .dwattr $C$DW$75, DW_AT_low_pc(0x00)
     494                      .dwattr $C$DW$75, DW_AT_name("_pvPortMalloc")
     495                      .dwattr $C$DW$75, DW_AT_TI_call
     496 00001d 6C00          CALL #_pvPortMalloc ; |801| 
         00001f 0000!
     497                                                      ; call occurs [#_pvPortMalloc] ; |801| 
     498 000021 EB24          MOV XAR0, dbl(*SP(#18))
         000023 85   
     499                      .dwpsn  file "../FreeRTOS/Source/tasks.c",line 803,column 4,is_stmt
     500 000024 ED20          MOV dbl(*SP(#16)), XAR3
         000026 BF   
     501 000027 90B0          MOV XAR3, AC0
     502 000029 0400          BCC $C$L2,AC0 == #0 ; |803| 
         00002b 43   
     503                                                      ; branchcc occurs ; |803| 
     504 00002c ED24          MOV dbl(*SP(#18)), XAR3
         00002e BF   
     505 00002f 90B0          MOV XAR3, AC0
     506 000031 0400          BCC $C$L2,AC0 == #0 ; |803| 
         000033 3B   
     507                                                      ; branchcc occurs ; |803| 
     508                      .dwpsn  file "../FreeRTOS/Source/tasks.c",line 806,column 5,is_stmt
     509 000034 7600          MOV #46, T0 ; |806| 
         000036 2E48 
     510              $C$DW$76        .dwtag  DW_TAG_TI_branch
     511                      .dwattr $C$DW$76, DW_AT_low_pc(0x00)
     512                      .dwattr $C$DW$76, DW_AT_name("_pvPortMalloc")
     513                      .dwattr $C$DW$76, DW_AT_TI_call
     514 000038 6C00          CALL #_pvPortMalloc ; |806| 
         00003a 0000!
     515                                                      ; call occurs [#_pvPortMalloc] ; |806| 
     516 00003c EB18          MOV XAR0, dbl(*SP(#12))
         00003e 85   
     517                      .dwpsn  file "../FreeRTOS/Source/tasks.c",line 808,column 5,is_stmt
     518 00003f ED18          MOV dbl(*SP(#12)), XAR3
         000041 BF   
TMS320C55x Assembler PC v4.4.1 Sat Sep 08 17:11:34 2018

Tools Copyright (c) 1996-2012 Texas Instruments Incorporated
tasks.asm                                                            PAGE   11

     519 000042 90B0          MOV XAR3, AC0
     520 000044 0400          BCC $C$L1,AC0 == #0 ; |808| 
         000046 18   
     521                                                      ; branchcc occurs ; |808| 
     522                      .dwpsn  file "../FreeRTOS/Source/tasks.c",line 811,column 6,is_stmt
     523 000047 ED18          MOV dbl(*SP(#12)), XAR2
         000049 AF   
     524 00004a ED20          MOV dbl(*SP(#16)), XAR3
         00004c BF   
     525 00004d EB4D          MOV XAR3, dbl(*AR2(#26))
         00004f B500 
         000051 1A   
     526                      .dwpsn  file "../FreeRTOS/Source/tasks.c",line 812,column 6,is_stmt
     527 000052 ED18          MOV dbl(*SP(#12)), XAR2
         000054 AF   
     528 000055 ED24          MOV dbl(*SP(#18)), XAR3
         000057 BF   
     529 000058 EB4D          MOV XAR3, dbl(*AR2(#26))
         00005a B500 
         00005c 1A   
     530                      .dwpsn  file "../FreeRTOS/Source/tasks.c",line 813,column 5,is_stmt
     531 00005d 4A15          B $C$L3   ; |813| 
     532                                                      ; branch occurs ; |813| 
     533 00005f       $C$L1:    
     534                      .dwpsn  file "../FreeRTOS/Source/tasks.c",line 818,column 6,is_stmt
     535 00005f ED20          MOV dbl(*SP(#16)), XAR0
         000061 8F   
     536              $C$DW$77        .dwtag  DW_TAG_TI_branch
     537                      .dwattr $C$DW$77, DW_AT_low_pc(0x00)
     538                      .dwattr $C$DW$77, DW_AT_name("_vPortFree")
     539                      .dwattr $C$DW$77, DW_AT_TI_call
     540 000062 6C00          CALL #_vPortFree ; |818| 
         000064 0000!
     541                                                      ; call occurs [#_vPortFree] ; |818| 
     542                      .dwpsn  file "../FreeRTOS/Source/tasks.c",line 819,column 6,is_stmt
     543 000066 ED24          MOV dbl(*SP(#18)), XAR0
         000068 8F   
     544              $C$DW$78        .dwtag  DW_TAG_TI_branch
     545                      .dwattr $C$DW$78, DW_AT_low_pc(0x00)
     546                      .dwattr $C$DW$78, DW_AT_name("_vPortFree")
     547                      .dwattr $C$DW$78, DW_AT_TI_call
     548 000069 6C00          CALL #_vPortFree ; |819| 
         00006b 0000!
     549                                                      ; call occurs [#_vPortFree] ; |819| 
     550                      .dwpsn  file "../FreeRTOS/Source/tasks.c",line 821,column 4,is_stmt
     551 00006d 4A05          B $C$L3   ; |821| 
     552                                                      ; branch occurs ; |821| 
     553 00006f       $C$L2:    
     554                      .dwpsn  file "../FreeRTOS/Source/tasks.c",line 824,column 5,is_stmt
     555 00006f 3C00          MOV #0, AC0 ; |824| 
     556 000071 EB18          MOV AC0, dbl(*SP(#12))
         000073 08   
     557              $C$L3:    
     558                      .dwendtag $C$DW$71
     559              
TMS320C55x Assembler PC v4.4.1 Sat Sep 08 17:11:34 2018

Tools Copyright (c) 1996-2012 Texas Instruments Incorporated
tasks.asm                                                            PAGE   12

     560                      .dwpsn  file "../FreeRTOS/Source/tasks.c",line 829,column 3,is_stmt
     561 000074 ED18          MOV dbl(*SP(#12)), XAR3
         000076 BF   
     562 000077 90B0          MOV XAR3, AC0
     563 000079 0400          BCC $C$L4,AC0 == #0 ; |829| 
         00007b 25   
     564                                                      ; branchcc occurs ; |829| 
     565                      .dwpsn  file "../FreeRTOS/Source/tasks.c",line 839,column 4,is_stmt
     566 00007c DF08          MOV uns(*SP(#4)), AC1 ; |839| 
         00007e 15   
     567 00007f ED00          MOV dbl(*SP(#0)), AC0 ; |839| 
         000081 08   
     568 000082 ED04          MOV dbl(*SP(#2)), XAR0
         000084 8F   
     569 000085 ED0C          MOV dbl(*SP(#6)), XAR1
         000087 9F   
     570 000088 A410          MOV *SP(#8), T0 ; |839| 
     571 00008a ED14          MOV dbl(*SP(#10)), XAR2
         00008c AF   
     572 00008d EC31          AMOV #0, XAR4 ; |839| 
         00008f CE00 
         000091 0000 
     573              $C$DW$79        .dwtag  DW_TAG_TI_branch
     574                      .dwattr $C$DW$79, DW_AT_low_pc(0x00)
     575                      .dwattr $C$DW$79, DW_AT_name("_prvInitialiseNewTask")
     576                      .dwattr $C$DW$79, DW_AT_TI_call
     577 000093 0800          CALL #_prvInitialiseNewTask ; |839| 
         000095 16   
     578                                                      ; call occurs [#_prvInitialiseNewTask] ; |839| 
     579                      .dwpsn  file "../FreeRTOS/Source/tasks.c",line 840,column 4,is_stmt
     580 000096 ED18          MOV dbl(*SP(#12)), XAR0
         000098 8F   
     581              $C$DW$80        .dwtag  DW_TAG_TI_branch
     582                      .dwattr $C$DW$80, DW_AT_low_pc(0x00)
     583                      .dwattr $C$DW$80, DW_AT_name("_prvAddNewTaskToReadyList")
     584                      .dwattr $C$DW$80, DW_AT_TI_call
     585 000099 0801          CALL #_prvAddNewTaskToReadyList ; |840| 
         00009b 60   
     586                                                      ; call occurs [#_prvAddNewTaskToReadyList] ; |840| 
     587                      .dwpsn  file "../FreeRTOS/Source/tasks.c",line 841,column 4,is_stmt
     588 00009c E61C          MOV #1, *SP(#14) ; |841| 
         00009e 01   
     589                      .dwpsn  file "../FreeRTOS/Source/tasks.c",line 842,column 3,is_stmt
     590 00009f 4A03          B $C$L5   ; |842| 
     591                                                      ; branch occurs ; |842| 
     592 0000a1       $C$L4:    
     593                      .dwpsn  file "../FreeRTOS/Source/tasks.c",line 845,column 4,is_stmt
     594 0000a1 E61C          MOV #-1, *SP(#14) ; |845| 
         0000a3 FF   
     595 0000a4       $C$L5:    
     596                      .dwpsn  file "../FreeRTOS/Source/tasks.c",line 848,column 3,is_stmt
     597 0000a4 A41C          MOV *SP(#14), T0 ; |848| 
     598                      .dwpsn  file "../FreeRTOS/Source/tasks.c",line 849,column 2,is_stmt
     599 0000a6 4E15          AADD #21, SP
     600                      .dwcfi  cfa_offset, 1
TMS320C55x Assembler PC v4.4.1 Sat Sep 08 17:11:34 2018

Tools Copyright (c) 1996-2012 Texas Instruments Incorporated
tasks.asm                                                            PAGE   13

     601              $C$DW$81        .dwtag  DW_TAG_TI_branch
     602                      .dwattr $C$DW$81, DW_AT_low_pc(0x00)
     603                      .dwattr $C$DW$81, DW_AT_TI_return
     604 0000a8 4804          RET
     605                                                      ; return occurs
     606                      .dwattr $C$DW$56, DW_AT_TI_end_file("../FreeRTOS/Source/tasks.c")
     607                      .dwattr $C$DW$56, DW_AT_TI_end_line(0x351)
     608                      .dwattr $C$DW$56, DW_AT_TI_end_column(0x02)
     609                      .dwendentry
     610                      .dwendtag $C$DW$56
     611              
     612 0000aa               .sect   ".text"
     613                      .align 4
     614              
     615              $C$DW$82        .dwtag  DW_TAG_subprogram, DW_AT_name("prvInitialiseNewTask")
     616                      .dwattr $C$DW$82, DW_AT_low_pc(_prvInitialiseNewTask)
     617                      .dwattr $C$DW$82, DW_AT_high_pc(0x00)
     618                      .dwattr $C$DW$82, DW_AT_TI_symbol_name("_prvInitialiseNewTask")
     619                      .dwattr $C$DW$82, DW_AT_TI_begin_file("../FreeRTOS/Source/tasks.c")
     620                      .dwattr $C$DW$82, DW_AT_TI_begin_line(0x356)
     621                      .dwattr $C$DW$82, DW_AT_TI_begin_column(0x0d)
     622                      .dwattr $C$DW$82, DW_AT_TI_max_frame_size(0x16)
     623                      .dwpsn  file "../FreeRTOS/Source/tasks.c",line 862,column 1,is_stmt,address _prvInitialiseNewTask
     624              
     625                      .dwfde $C$DW$CIE, _prvInitialiseNewTask
     626              $C$DW$83        .dwtag  DW_TAG_formal_parameter, DW_AT_name("pxTaskCode")
     627                      .dwattr $C$DW$83, DW_AT_TI_symbol_name("_pxTaskCode")
     628                      .dwattr $C$DW$83, DW_AT_type(*$C$DW$T$58)
     629                      .dwattr $C$DW$83, DW_AT_location[DW_OP_reg1]
     630              $C$DW$84        .dwtag  DW_TAG_formal_parameter, DW_AT_name("pcName")
     631                      .dwattr $C$DW$84, DW_AT_TI_symbol_name("_pcName")
     632                      .dwattr $C$DW$84, DW_AT_type(*$C$DW$T$76)
     633                      .dwattr $C$DW$84, DW_AT_location[DW_OP_reg17]
     634              $C$DW$85        .dwtag  DW_TAG_formal_parameter, DW_AT_name("ulStackDepth")
     635                      .dwattr $C$DW$85, DW_AT_TI_symbol_name("_ulStackDepth")
     636                      .dwattr $C$DW$85, DW_AT_type(*$C$DW$T$77)
     637                      .dwattr $C$DW$85, DW_AT_location[DW_OP_reg3]
     638              $C$DW$86        .dwtag  DW_TAG_formal_parameter, DW_AT_name("pvParameters")
     639                      .dwattr $C$DW$86, DW_AT_TI_symbol_name("_pvParameters")
     640                      .dwattr $C$DW$86, DW_AT_type(*$C$DW$T$53)
     641                      .dwattr $C$DW$86, DW_AT_location[DW_OP_reg19]
     642              $C$DW$87        .dwtag  DW_TAG_formal_parameter, DW_AT_name("uxPriority")
     643                      .dwattr $C$DW$87, DW_AT_TI_symbol_name("_uxPriority")
     644                      .dwattr $C$DW$87, DW_AT_type(*$C$DW$T$25)
     645                      .dwattr $C$DW$87, DW_AT_location[DW_OP_reg12]
     646              $C$DW$88        .dwtag  DW_TAG_formal_parameter, DW_AT_name("pxCreatedTask")
     647                      .dwattr $C$DW$88, DW_AT_TI_symbol_name("_pxCreatedTask")
     648                      .dwattr $C$DW$88, DW_AT_type(*$C$DW$T$79)
     649                      .dwattr $C$DW$88, DW_AT_location[DW_OP_reg21]
     650              $C$DW$89        .dwtag  DW_TAG_formal_parameter, DW_AT_name("pxNewTCB")
     651                      .dwattr $C$DW$89, DW_AT_TI_symbol_name("_pxNewTCB")
     652                      .dwattr $C$DW$89, DW_AT_type(*$C$DW$T$82)
     653                      .dwattr $C$DW$89, DW_AT_location[DW_OP_reg23]
     654              $C$DW$90        .dwtag  DW_TAG_formal_parameter, DW_AT_name("xRegions")
     655                      .dwattr $C$DW$90, DW_AT_TI_symbol_name("_xRegions")
TMS320C55x Assembler PC v4.4.1 Sat Sep 08 17:11:34 2018

Tools Copyright (c) 1996-2012 Texas Instruments Incorporated
tasks.asm                                                            PAGE   14

     656                      .dwattr $C$DW$90, DW_AT_type(*$C$DW$T$86)
     657                      .dwattr $C$DW$90, DW_AT_location[DW_OP_reg25]
     658              ;*******************************************************************************
     659              ;* FUNCTION NAME: prvInitialiseNewTask                                         *
     660              ;*                                                                             *
     661              ;*   Function Uses Regs : AC0,AC0,AC1,AC1,T0,T1,AR0,XAR0,AR1,XAR1,AR2,XAR2,AR3,*
     662              ;*                        XAR3,AR4,XAR4,SP,CARRY,TC1,M40,SATA,SATD,RDM,FRCT,   *
     663              ;*                        SMUL                                                 *
     664              ;*   Stack Frame        : Compact (No Frame Pointer, w/ debug)                 *
     665              ;*   Total Frame Size   : 22 words                                             *
     666              ;*                        (1 return address/alignment)                         *
     667              ;*                        (21 local values)                                    *
     668              ;*   Min System Stack   : 1 word                                               *
     669              ;*******************************************************************************
     670 0000ac       _prvInitialiseNewTask:
     671                      .dwcfi  cfa_offset, 1
     672                      .dwcfi  save_reg_to_mem, 91, -1
     673 0000ac 4EEB          AADD #-21, SP
     674                      .dwcfi  cfa_offset, 22
     675              $C$DW$91        .dwtag  DW_TAG_variable, DW_AT_name("pxTaskCode")
     676                      .dwattr $C$DW$91, DW_AT_TI_symbol_name("_pxTaskCode")
     677                      .dwattr $C$DW$91, DW_AT_type(*$C$DW$T$58)
     678                      .dwattr $C$DW$91, DW_AT_location[DW_OP_bregx 0x24 0]
     679              $C$DW$92        .dwtag  DW_TAG_variable, DW_AT_name("pcName")
     680                      .dwattr $C$DW$92, DW_AT_TI_symbol_name("_pcName")
     681                      .dwattr $C$DW$92, DW_AT_type(*$C$DW$T$76)
     682                      .dwattr $C$DW$92, DW_AT_location[DW_OP_bregx 0x24 2]
     683              $C$DW$93        .dwtag  DW_TAG_variable, DW_AT_name("ulStackDepth")
     684                      .dwattr $C$DW$93, DW_AT_TI_symbol_name("_ulStackDepth")
     685                      .dwattr $C$DW$93, DW_AT_type(*$C$DW$T$77)
     686                      .dwattr $C$DW$93, DW_AT_location[DW_OP_bregx 0x24 4]
     687              $C$DW$94        .dwtag  DW_TAG_variable, DW_AT_name("pvParameters")
     688                      .dwattr $C$DW$94, DW_AT_TI_symbol_name("_pvParameters")
     689                      .dwattr $C$DW$94, DW_AT_type(*$C$DW$T$53)
     690                      .dwattr $C$DW$94, DW_AT_location[DW_OP_bregx 0x24 6]
     691              $C$DW$95        .dwtag  DW_TAG_variable, DW_AT_name("uxPriority")
     692                      .dwattr $C$DW$95, DW_AT_TI_symbol_name("_uxPriority")
     693                      .dwattr $C$DW$95, DW_AT_type(*$C$DW$T$25)
     694                      .dwattr $C$DW$95, DW_AT_location[DW_OP_bregx 0x24 8]
     695              $C$DW$96        .dwtag  DW_TAG_variable, DW_AT_name("pxCreatedTask")
     696                      .dwattr $C$DW$96, DW_AT_TI_symbol_name("_pxCreatedTask")
     697                      .dwattr $C$DW$96, DW_AT_type(*$C$DW$T$79)
     698                      .dwattr $C$DW$96, DW_AT_location[DW_OP_bregx 0x24 10]
     699              $C$DW$97        .dwtag  DW_TAG_variable, DW_AT_name("pxNewTCB")
     700                      .dwattr $C$DW$97, DW_AT_TI_symbol_name("_pxNewTCB")
     701                      .dwattr $C$DW$97, DW_AT_type(*$C$DW$T$82)
     702                      .dwattr $C$DW$97, DW_AT_location[DW_OP_bregx 0x24 12]
     703              $C$DW$98        .dwtag  DW_TAG_variable, DW_AT_name("xRegions")
     704                      .dwattr $C$DW$98, DW_AT_TI_symbol_name("_xRegions")
     705                      .dwattr $C$DW$98, DW_AT_type(*$C$DW$T$86)
     706                      .dwattr $C$DW$98, DW_AT_location[DW_OP_bregx 0x24 14]
     707              $C$DW$99        .dwtag  DW_TAG_variable, DW_AT_name("pxTopOfStack")
     708                      .dwattr $C$DW$99, DW_AT_TI_symbol_name("_pxTopOfStack")
     709                      .dwattr $C$DW$99, DW_AT_type(*$C$DW$T$26)
     710                      .dwattr $C$DW$99, DW_AT_location[DW_OP_bregx 0x24 16]
TMS320C55x Assembler PC v4.4.1 Sat Sep 08 17:11:34 2018

Tools Copyright (c) 1996-2012 Texas Instruments Incorporated
tasks.asm                                                            PAGE   15

     711              $C$DW$100       .dwtag  DW_TAG_variable, DW_AT_name("pxTopOfSysStack")
     712                      .dwattr $C$DW$100, DW_AT_TI_symbol_name("_pxTopOfSysStack")
     713                      .dwattr $C$DW$100, DW_AT_type(*$C$DW$T$26)
     714                      .dwattr $C$DW$100, DW_AT_location[DW_OP_bregx 0x24 18]
     715              $C$DW$101       .dwtag  DW_TAG_variable, DW_AT_name("x")
     716                      .dwattr $C$DW$101, DW_AT_TI_symbol_name("_x")
     717                      .dwattr $C$DW$101, DW_AT_type(*$C$DW$T$25)
     718                      .dwattr $C$DW$101, DW_AT_location[DW_OP_bregx 0x24 20]
     719 0000ae EB1C          MOV XAR4, dbl(*SP(#14))
         0000b0 C5   
     720 0000b1 EB18          MOV XAR3, dbl(*SP(#12))
         0000b3 B5   
     721 0000b4 EB14          MOV XAR2, dbl(*SP(#10))
         0000b6 A5   
     722 0000b7 C410          MOV T0, *SP(#8) ; |862| 
     723 0000b9 EB0C          MOV XAR1, dbl(*SP(#6))
         0000bb 95   
     724 0000bc EB08          MOV AC1, dbl(*SP(#4)) ; |862| 
         0000be 18   
     725 0000bf EB04          MOV XAR0, dbl(*SP(#2))
         0000c1 85   
     726 0000c2 EB00          MOV AC0, dbl(*SP(#0)) ; |862| 
         0000c4 08   
     727                      .dwpsn  file "../FreeRTOS/Source/tasks.c",line 887,column 3,is_stmt
     728 0000c5 ED18          MOV dbl(*SP(#12)), XAR3
         0000c7 BF   
     729 0000c8 7600          MOV #165, T0 ; |887| 
         0000ca A548 
     730 0000cc A50A          MOV *SP(#5), T1 ; |887| 
     731 0000ce ED6D          MOV dbl(*AR3(#26)), XAR0
         0000d0 8F00 
         0000d2 1A   
     732              $C$DW$102       .dwtag  DW_TAG_TI_branch
     733                      .dwattr $C$DW$102, DW_AT_low_pc(0x00)
     734                      .dwattr $C$DW$102, DW_AT_name("_memset")
     735                      .dwattr $C$DW$102, DW_AT_TI_call
     736 0000d3 6C00          CALL #_memset ; |887| 
         0000d5 0000!
     737                                                      ; call occurs [#_memset] ; |887| 
     738                      .dwpsn  file "../FreeRTOS/Source/tasks.c",line 888,column 3,is_stmt
     739 0000d7 ED18          MOV dbl(*SP(#12)), XAR3
         0000d9 BF   
     740 0000da 7600          MOV #165, T0 ; |888| 
         0000dc A548 
     741 0000de A50A          MOV *SP(#5), T1 ; |888| 
     742 0000e0 ED6D          MOV dbl(*AR3(#28)), XAR0
         0000e2 8F00 
         0000e4 1C   
     743              $C$DW$103       .dwtag  DW_TAG_TI_branch
     744                      .dwattr $C$DW$103, DW_AT_low_pc(0x00)
     745                      .dwattr $C$DW$103, DW_AT_name("_memset")
     746                      .dwattr $C$DW$103, DW_AT_TI_call
     747 0000e5 6C00          CALL #_memset ; |888| 
         0000e7 0000!
     748                                                      ; call occurs [#_memset] ; |888| 
TMS320C55x Assembler PC v4.4.1 Sat Sep 08 17:11:34 2018

Tools Copyright (c) 1996-2012 Texas Instruments Incorporated
tasks.asm                                                            PAGE   16

     749                      .dwpsn  file "../FreeRTOS/Source/tasks.c",line 898,column 3,is_stmt
     750 0000e9 ED18          MOV dbl(*SP(#12)), XAR3
         0000eb BF   
     751 0000ec ED6D          MOV dbl(*AR3(#26)), XAR3
         0000ee BF00 
         0000f0 1A   
     752 0000f1 ED08          MOV dbl(*SP(#4)), AC0 ; |898| 
         0000f3 08   
     753 0000f4 4210          SUB #1, AC0 ; |898| 
     754 0000f6 2209          MOV AC0, AR1 ; |898| 
     755              
     756 0000f8 8E20          MOV XAR3, dbl(*SP(#16))
         0000fa BB10 
         0000fc B590 
     757              ||      AADD AR1, AR3 ; |898| 
     758              
     759                      .dwpsn  file "../FreeRTOS/Source/tasks.c",line 899,column 3,is_stmt
     760 0000fe 90B0          MOV XAR3, AC0
     761 000100 7AFF          MOV #-1 << #16, AC1 ; |899| 
         000102 FF1A 
     762 000104 7EFF          OR #0xfffc, AC1, AC1 ; |899| 
         000106 FC11 
     763 000108 2801          AND AC0, AC1 ; |899| 
     764 00010a EB20          MOV AC1, dbl(*SP(#16))
         00010c 18   
     765                      .dwpsn  file "../FreeRTOS/Source/tasks.c",line 900,column 3,is_stmt
     766 00010d ED18          MOV dbl(*SP(#12)), XAR3
         00010f BF   
     767 000110 ED08          MOV dbl(*SP(#4)), AC0 ; |900| 
         000112 08   
     768 000113 4210          SUB #1, AC0 ; |900| 
     769 000115 2209          MOV AC0, AR1 ; |900| 
     770 000117 ED6D          MOV dbl(*AR3(#28)), XAR3
         000119 BF00 
         00011b 1C   
     771              
     772 00011c 8E24          MOV XAR3, dbl(*SP(#18))
         00011e BB10 
         000120 B590 
     773              ||      AADD AR1, AR3 ; |900| 
     774              
     775                      .dwpsn  file "../FreeRTOS/Source/tasks.c",line 901,column 6,is_stmt
     776 000122 7AFF          MOV #-1 << #16, AC1 ; |901| 
         000124 FF1A 
     777 000126 90B0          MOV XAR3, AC0
     778 000128 7EFF          OR #0xfffc, AC1, AC1 ; |901| 
         00012a FC11 
     779 00012c 2801          AND AC0, AC1 ; |901| 
     780 00012e EB24          MOV AC1, dbl(*SP(#18))
         000130 18   
     781                      .dwpsn  file "../FreeRTOS/Source/tasks.c",line 935,column 7,is_stmt
     782 000131 E628          MOV #0, *SP(#20) ; |935| 
         000133 00   
     783                      .dwpsn  file "../FreeRTOS/Source/tasks.c",line 935,column 30,is_stmt
     784              
TMS320C55x Assembler PC v4.4.1 Sat Sep 08 17:11:34 2018

Tools Copyright (c) 1996-2012 Texas Instruments Incorporated
tasks.asm                                                            PAGE   17

     785 000134 A928          MOV *SP(#20), AR1 ; |935| 
     786 000136 3D8A  ||      MOV #8, AR2
     787              
     788 000138 1298          CMPU AR1 >= AR2, TC1 ; |935| 
         00013a A4   
     789 00013b 0464          BCC $C$L8,TC1 ; |935| 
         00013d 2C   
     790                                                      ; branchcc occurs ; |935| 
     791 00013e       $C$L6:    
     792 00013e       $C$DW$L$_prvInitialiseNewTask$2$B:
     793                      .dwpsn  file "../FreeRTOS/Source/tasks.c",line 937,column 3,is_stmt
     794 00013e A428          MOV *SP(#20), T0 ; |937| 
     795 000140 ED04          MOV dbl(*SP(#2)), XAR3
         000142 BF   
     796 000143 2249          MOV T0, AR1
     797 000145 AA6B          MOV *AR3(T0), AR2 ; |937| 
     798 000147 ED18          MOV dbl(*SP(#12)), XAR3
         000149 BF   
     799 00014a 1490          AADD AR1, AR3 ; |937| 
         00014c B0   
     800 00014d CA6D          MOV AR2, *AR3(#30) ; |937| 
         00014f 001E 
     801                      .dwpsn  file "../FreeRTOS/Source/tasks.c",line 942,column 3,is_stmt
     802 000151 A428          MOV *SP(#20), T0 ; |942| 
     803 000153 ED04          MOV dbl(*SP(#2)), XAR3
         000155 BF   
     804 000156 A96B          MOV *AR3(T0), AR1 ; |942| 
     805 000158 6119          BCC $C$L7,AR1 != #0 ; |942| 
     806                                                      ; branchcc occurs ; |942| 
     807 00015a       $C$DW$L$_prvInitialiseNewTask$2$E:
     808                      .dwpsn  file "../FreeRTOS/Source/tasks.c",line 944,column 4,is_stmt
     809 00015a 4A0E          B $C$L8   ; |944| 
     810                                                      ; branch occurs ; |944| 
     811 00015c       $C$L7:    
     812 00015c       $C$DW$L$_prvInitialiseNewTask$5$B:
     813                      .dwpsn  file "../FreeRTOS/Source/tasks.c",line 935,column 75,is_stmt
     814 00015c F728          ADD #1, *SP(#20) ; |935| 
         00015e 0001 
     815                      .dwpsn  file "../FreeRTOS/Source/tasks.c",line 935,column 30,is_stmt
     816              
     817 000160 A928          MOV *SP(#20), AR1 ; |935| 
     818 000162 3D8A  ||      MOV #8, AR2
     819              
     820 000164 1294          CMPU AR1 < AR2, TC1 ; |935| 
         000166 A4   
     821 000167 0464          BCC $C$L6,TC1 ; |935| 
         000169 D4   
     822                                                      ; branchcc occurs ; |935| 
     823 00016a       $C$DW$L$_prvInitialiseNewTask$5$E:
     824 00016a       $C$L8:    
     825                      .dwpsn  file "../FreeRTOS/Source/tasks.c",line 954,column 2,is_stmt
     826 00016a ED18          MOV dbl(*SP(#12)), XAR3
         00016c BF   
     827 00016d E66D          MOV #0, *AR3(#37) ; |954| 
         00016f 0000 
TMS320C55x Assembler PC v4.4.1 Sat Sep 08 17:11:34 2018

Tools Copyright (c) 1996-2012 Texas Instruments Incorporated
tasks.asm                                                            PAGE   18

         000171 25   
     828                      .dwpsn  file "../FreeRTOS/Source/tasks.c",line 958,column 2,is_stmt
     829              
     830 000172 A910          MOV *SP(#8), AR1 ; |958| 
     831 000174 3D4A  ||      MOV #4, AR2
     832              
     833 000176 1294          CMPU AR1 < AR2, TC1 ; |958| 
         000178 A4   
     834 000179 61E4          BCC $C$L9,TC1 ; |958| 
     835                                                      ; branchcc occurs ; |958| 
     836                      .dwpsn  file "../FreeRTOS/Source/tasks.c",line 960,column 3,is_stmt
     837 00017b E610          MOV #3, *SP(#8) ; |960| 
         00017d 03   
     838                      .dwpsn  file "../FreeRTOS/Source/tasks.c",line 961,column 2,is_stmt
     839 00017e       $C$L9:    
     840                      .dwpsn  file "../FreeRTOS/Source/tasks.c",line 967,column 2,is_stmt
     841 00017e ED18          MOV dbl(*SP(#12)), XAR3
         000180 BF   
     842 000181 A910          MOV *SP(#8), AR1 ; |967| 
     843 000183 C96D          MOV AR1, *AR3(#24) ; |967| 
         000185 0018 
     844                      .dwpsn  file "../FreeRTOS/Source/tasks.c",line 975,column 2,is_stmt
     845 000187 ED18          MOV dbl(*SP(#12)), XAR0
         000189 8F   
     846 00018a 1404          AADD #4, AR0 ; |975| 
         00018c 84   
     847              $C$DW$104       .dwtag  DW_TAG_TI_branch
     848                      .dwattr $C$DW$104, DW_AT_low_pc(0x00)
     849                      .dwattr $C$DW$104, DW_AT_name("_vListInitialiseItem")
     850                      .dwattr $C$DW$104, DW_AT_TI_call
     851 00018d 6C00          CALL #_vListInitialiseItem ; |975| 
         00018f 0000!
     852                                                      ; call occurs [#_vListInitialiseItem] ; |975| 
     853                      .dwpsn  file "../FreeRTOS/Source/tasks.c",line 976,column 2,is_stmt
     854 000191 ED18          MOV dbl(*SP(#12)), XAR0
         000193 8F   
     855 000194 140E          AADD #14, AR0 ; |976| 
         000196 84   
     856              $C$DW$105       .dwtag  DW_TAG_TI_branch
     857                      .dwattr $C$DW$105, DW_AT_low_pc(0x00)
     858                      .dwattr $C$DW$105, DW_AT_name("_vListInitialiseItem")
     859                      .dwattr $C$DW$105, DW_AT_TI_call
     860 000197 6C00          CALL #_vListInitialiseItem ; |976| 
         000199 0000!
     861                                                      ; call occurs [#_vListInitialiseItem] ; |976| 
     862                      .dwpsn  file "../FreeRTOS/Source/tasks.c",line 980,column 2,is_stmt
     863 00019b ED18          MOV dbl(*SP(#12)), XAR2
         00019d AF   
     864 00019e ED18          MOV dbl(*SP(#12)), XAR3
         0001a0 BF   
     865 0001a1 EB4D          MOV XAR3, dbl(*AR2(#10))
         0001a3 B500 
         0001a5 0A   
     866                      .dwpsn  file "../FreeRTOS/Source/tasks.c",line 983,column 2,is_stmt
     867 0001a6 ED18          MOV dbl(*SP(#12)), XAR3
TMS320C55x Assembler PC v4.4.1 Sat Sep 08 17:11:34 2018

Tools Copyright (c) 1996-2012 Texas Instruments Incorporated
tasks.asm                                                            PAGE   19

         0001a8 BF   
     868 0001a9 3C40          MOV #4, AC0
     869 0001ab DF10          SUB uns(*SP(#8)), AC0, AC0 ; |983| 
         0001ad 0F   
     870 0001ae C06D          MOV AC0, *AR3(#14) ; |983| 
         0001b0 000E 
     871                      .dwpsn  file "../FreeRTOS/Source/tasks.c",line 984,column 2,is_stmt
     872 0001b2 ED18          MOV dbl(*SP(#12)), XAR2
         0001b4 AF   
     873 0001b5 ED18          MOV dbl(*SP(#12)), XAR3
         0001b7 BF   
     874 0001b8 EB4D          MOV XAR3, dbl(*AR2(#20))
         0001ba B500 
         0001bc 14   
     875                      .dwpsn  file "../FreeRTOS/Source/tasks.c",line 1011,column 3,is_stmt
     876                      .dwpsn  file "../FreeRTOS/Source/tasks.c",line 1026,column 3,is_stmt
     877 0001bd ED18          MOV dbl(*SP(#12)), XAR3
         0001bf BF   
     878 0001c0 3C00          MOV #0, AC0 ; |1026| 
     879 0001c2 EB6D          MOV AC0, dbl(*AR3(#42)) ; |1026| 
         0001c4 0800 
         0001c6 2A   
     880                      .dwpsn  file "../FreeRTOS/Source/tasks.c",line 1027,column 3,is_stmt
     881 0001c7 ED18          MOV dbl(*SP(#12)), XAR3
         0001c9 BF   
     882 0001ca E66D          MOV #0, *AR3(#44) ; |1027| 
         0001cc 0000 
         0001ce 2C   
     883                      .dwpsn  file "../FreeRTOS/Source/tasks.c",line 1054,column 3,is_stmt
     884 0001cf ED00          MOV dbl(*SP(#0)), AC0 ; |1054| 
         0001d1 08   
     885 0001d2 ED0C          MOV dbl(*SP(#6)), XAR2
         0001d4 AF   
     886 0001d5 ED24          MOV dbl(*SP(#18)), XAR1
         0001d7 9F   
     887 0001d8 ED20          MOV dbl(*SP(#16)), XAR0
         0001da 8F   
     888              $C$DW$106       .dwtag  DW_TAG_TI_branch
     889                      .dwattr $C$DW$106, DW_AT_low_pc(0x00)
     890                      .dwattr $C$DW$106, DW_AT_name("_pxPortInitialiseStack")
     891                      .dwattr $C$DW$106, DW_AT_TI_call
     892 0001db 6C00          CALL #_pxPortInitialiseStack ; |1054| 
         0001dd 0000!
     893                                                      ; call occurs [#_pxPortInitialiseStack] ; |1054| 
     894 0001df ED18          MOV dbl(*SP(#12)), XAR3
         0001e1 BF   
     895 0001e2 EB61          MOV XAR0, dbl(*AR3)
         0001e4 85   
     896                      .dwpsn  file "../FreeRTOS/Source/tasks.c",line 1058,column 2,is_stmt
     897 0001e5 ED14          MOV dbl(*SP(#10)), XAR3
         0001e7 BF   
     898 0001e8 90B0          MOV XAR3, AC0
     899 0001ea 6580          BCC $C$L10,AC0 == #0 ; |1058| 
     900                                                      ; branchcc occurs ; |1058| 
     901                      .dwpsn  file "../FreeRTOS/Source/tasks.c",line 1062,column 3,is_stmt
TMS320C55x Assembler PC v4.4.1 Sat Sep 08 17:11:34 2018

Tools Copyright (c) 1996-2012 Texas Instruments Incorporated
tasks.asm                                                            PAGE   20

     902 0001ec ED14          MOV dbl(*SP(#10)), XAR2
         0001ee AF   
     903 0001ef ED18          MOV dbl(*SP(#12)), XAR3
         0001f1 BF   
     904 0001f2 EB41          MOV XAR3, dbl(*AR2)
         0001f4 B5   
     905                      .dwpsn  file "../FreeRTOS/Source/tasks.c",line 1063,column 2,is_stmt
     906 0001f5 4A00          B $C$L10  ; |1063| 
     907                                                      ; branch occurs ; |1063| 
     908 0001f7       $C$L10:    
     909 0001f7 4E15          AADD #21, SP
     910                      .dwcfi  cfa_offset, 1
     911              $C$DW$107       .dwtag  DW_TAG_TI_branch
     912                      .dwattr $C$DW$107, DW_AT_low_pc(0x00)
     913                      .dwattr $C$DW$107, DW_AT_TI_return
     914 0001f9 4804          RET
     915                                                      ; return occurs
     916              
     917              $C$DW$108       .dwtag  DW_TAG_TI_loop
     918                      .dwattr $C$DW$108, DW_AT_name("F:\eZdsp_C55x_FreeRTOS_Port\eZDSP\eZDSP_5535_Files\ccsws2\test\Debug\t
     919                      .dwattr $C$DW$108, DW_AT_TI_begin_file("../FreeRTOS/Source/tasks.c")
     920                      .dwattr $C$DW$108, DW_AT_TI_begin_line(0x3a7)
     921                      .dwattr $C$DW$108, DW_AT_TI_end_line(0x3b6)
     922              $C$DW$109       .dwtag  DW_TAG_TI_loop_range
     923                      .dwattr $C$DW$109, DW_AT_low_pc($C$DW$L$_prvInitialiseNewTask$2$B)
     924                      .dwattr $C$DW$109, DW_AT_high_pc($C$DW$L$_prvInitialiseNewTask$2$E)
     925              $C$DW$110       .dwtag  DW_TAG_TI_loop_range
     926                      .dwattr $C$DW$110, DW_AT_low_pc($C$DW$L$_prvInitialiseNewTask$5$B)
     927                      .dwattr $C$DW$110, DW_AT_high_pc($C$DW$L$_prvInitialiseNewTask$5$E)
     928                      .dwendtag $C$DW$108
     929              
     930                      .dwattr $C$DW$82, DW_AT_TI_end_file("../FreeRTOS/Source/tasks.c")
     931                      .dwattr $C$DW$82, DW_AT_TI_end_line(0x42c)
     932                      .dwattr $C$DW$82, DW_AT_TI_end_column(0x01)
     933                      .dwendentry
     934                      .dwendtag $C$DW$82
     935              
     936 0001fb               .sect   ".text"
     937                      .align 4
     938              
     939              $C$DW$111       .dwtag  DW_TAG_subprogram, DW_AT_name("prvAddNewTaskToReadyList")
     940                      .dwattr $C$DW$111, DW_AT_low_pc(_prvAddNewTaskToReadyList)
     941                      .dwattr $C$DW$111, DW_AT_high_pc(0x00)
     942                      .dwattr $C$DW$111, DW_AT_TI_symbol_name("_prvAddNewTaskToReadyList")
     943                      .dwattr $C$DW$111, DW_AT_TI_begin_file("../FreeRTOS/Source/tasks.c")
     944                      .dwattr $C$DW$111, DW_AT_TI_begin_line(0x42f)
     945                      .dwattr $C$DW$111, DW_AT_TI_begin_column(0x0d)
     946                      .dwattr $C$DW$111, DW_AT_TI_max_frame_size(0x04)
     947                      .dwpsn  file "../FreeRTOS/Source/tasks.c",line 1072,column 1,is_stmt,address _prvAddNewTaskToReadyLis
     948              
     949                      .dwfde $C$DW$CIE, _prvAddNewTaskToReadyList
     950              $C$DW$112       .dwtag  DW_TAG_formal_parameter, DW_AT_name("pxNewTCB")
     951                      .dwattr $C$DW$112, DW_AT_TI_symbol_name("_pxNewTCB")
     952                      .dwattr $C$DW$112, DW_AT_type(*$C$DW$T$82)
     953                      .dwattr $C$DW$112, DW_AT_location[DW_OP_reg17]
TMS320C55x Assembler PC v4.4.1 Sat Sep 08 17:11:34 2018

Tools Copyright (c) 1996-2012 Texas Instruments Incorporated
tasks.asm                                                            PAGE   21

     954              ;*******************************************************************************
     955              ;* FUNCTION NAME: prvAddNewTaskToReadyList                                     *
     956              ;*                                                                             *
     957              ;*   Function Uses Regs : AC0,AC0,AR0,XAR0,AR1,XAR1,AR2,AR3,XAR3,SP,CARRY,TC1, *
     958              ;*                        M40,SATA,SATD,RDM,FRCT,SMUL                          *
     959              ;*   Stack Frame        : Compact (No Frame Pointer, w/ debug)                 *
     960              ;*   Total Frame Size   : 4 words                                              *
     961              ;*                        (2 return address/alignment)                         *
     962              ;*                        (2 local values)                                     *
     963              ;*   Min System Stack   : 1 word                                               *
     964              ;*******************************************************************************
     965 0001fc       _prvAddNewTaskToReadyList:
     966                      .dwcfi  cfa_offset, 1
     967                      .dwcfi  save_reg_to_mem, 91, -1
     968 0001fc 4EFD          AADD #-3, SP
     969                      .dwcfi  cfa_offset, 4
     970              $C$DW$113       .dwtag  DW_TAG_variable, DW_AT_name("pxNewTCB")
     971                      .dwattr $C$DW$113, DW_AT_TI_symbol_name("_pxNewTCB")
     972                      .dwattr $C$DW$113, DW_AT_type(*$C$DW$T$82)
     973                      .dwattr $C$DW$113, DW_AT_location[DW_OP_bregx 0x24 0]
     974 0001fe EB00          MOV XAR0, dbl(*SP(#0))
         000200 85   
     975                      .dwpsn  file "../FreeRTOS/Source/tasks.c",line 1075,column 2,is_stmt
     976 000201 20     nop
     977 000202 46B3   bset INTM
     978 000204 F731          ADD #1, *(#_usCriticalNesting) ; |1075| 
         000206 0001 
         000208 0000 
         00020a 00!  
     979                      .dwpsn  file "../FreeRTOS/Source/tasks.c",line 1077,column 3,is_stmt
     980 00020b F731          ADD #1, *(#_uxCurrentNumberOfTasks) ; |1077| 
         00020d 0001 
         00020f 0000 
         000211 59-  
     981 000212 20            NOP
     982 000213 20            NOP
     983 000214 20            NOP
     984                      .dwpsn  file "../FreeRTOS/Source/tasks.c",line 1078,column 3,is_stmt
     985 000215 ED31          MOV dbl(*(#_pxCurrentTCB)), XAR3
         000217 BF00 
         000219 0002-
     986 00021b 90B0          MOV XAR3, AC0
     987 00021d 0410          BCC $C$L11,AC0 != #0 ; |1078| 
         00021f 1B   
     988                                                      ; branchcc occurs ; |1078| 
     989                      .dwpsn  file "../FreeRTOS/Source/tasks.c",line 1082,column 4,is_stmt
     990 000220 ED00          MOV dbl(*SP(#0)), XAR3
         000222 BF   
     991 000223 EB31          MOV XAR3, dbl(*(#_pxCurrentTCB))
         000225 B500 
         000227 0002-
     992 000229 20            NOP
     993 00022a 20            NOP
     994 00022b 20            NOP
     995                      .dwpsn  file "../FreeRTOS/Source/tasks.c",line 1084,column 4,is_stmt
TMS320C55x Assembler PC v4.4.1 Sat Sep 08 17:11:34 2018

Tools Copyright (c) 1996-2012 Texas Instruments Incorporated
tasks.asm                                                            PAGE   22

     996 00022c F031          CMP *(#_uxCurrentNumberOfTasks) == #1, TC1 ; |1084| 
         00022e 0001 
         000230 0000 
         000232 59-  
     997 000233 0474          BCC $C$L12,!TC1 ; |1084| 
         000235 2E   
     998                                                      ; branchcc occurs ; |1084| 
     999                      .dwpsn  file "../FreeRTOS/Source/tasks.c",line 1089,column 5,is_stmt
    1000              $C$DW$114       .dwtag  DW_TAG_TI_branch
    1001                      .dwattr $C$DW$114, DW_AT_low_pc(0x00)
    1002                      .dwattr $C$DW$114, DW_AT_name("_prvInitialiseTaskLists")
    1003                      .dwattr $C$DW$114, DW_AT_TI_call
    1004 000236 080D          CALL #_prvInitialiseTaskLists ; |1089| 
         000238 47   
    1005                                                      ; call occurs [#_prvInitialiseTaskLists] ; |1089| 
    1006                      .dwpsn  file "../FreeRTOS/Source/tasks.c",line 1090,column 4,is_stmt
    1007 000239 4A29          B $C$L12  ; |1090| 
    1008                                                      ; branch occurs ; |1090| 
    1009 00023b       $C$L11:    
    1010                      .dwpsn  file "../FreeRTOS/Source/tasks.c",line 1101,column 4,is_stmt
    1011 00023b A931          MOV *(#_xSchedulerRunning), AR1 ; |1101| 
         00023d 0000 
         00023f 66-  
    1012 000240 0419          BCC $C$L12,AR1 != #0 ; |1101| 
         000242 21   
    1013                                                      ; branchcc occurs ; |1101| 
    1014                      .dwpsn  file "../FreeRTOS/Source/tasks.c",line 1103,column 5,is_stmt
    1015 000243 ED00          MOV dbl(*SP(#0)), XAR3
         000245 BF   
    1016 000246 A96D          MOV *AR3(#24), AR1 ; |1103| 
         000248 0018 
    1017 00024a ED31          MOV dbl(*(#_pxCurrentTCB)), XAR3
         00024c BF00 
         00024e 0002-
    1018 000250 AA6D          MOV *AR3(#24), AR2 ; |1103| 
         000252 0018 
    1019 000254 1294          CMPU AR2 > AR1, TC1 ; |1103| 
         000256 A4   
    1020 000257 65E4          BCC $C$L12,TC1 ; |1103| 
    1021                                                      ; branchcc occurs ; |1103| 
    1022                      .dwpsn  file "../FreeRTOS/Source/tasks.c",line 1105,column 6,is_stmt
    1023 000259 ED00          MOV dbl(*SP(#0)), XAR3
         00025b BF   
    1024 00025c EB31          MOV XAR3, dbl(*(#_pxCurrentTCB))
         00025e B500 
         000260 0002-
    1025                      .dwpsn  file "../FreeRTOS/Source/tasks.c",line 1106,column 5,is_stmt
    1026 000262 4A00          B $C$L12  ; |1106| 
    1027                                                      ; branch occurs ; |1106| 
    1028 000264       $C$L12:    
    1029                      .dwpsn  file "../FreeRTOS/Source/tasks.c",line 1118,column 3,is_stmt
    1030 000264 F731          ADD #1, *(#_uxTaskNumber) ; |1118| 
         000266 0001 
         000268 0000 
         00026a 6A-  
TMS320C55x Assembler PC v4.4.1 Sat Sep 08 17:11:34 2018

Tools Copyright (c) 1996-2012 Texas Instruments Incorporated
tasks.asm                                                            PAGE   23

    1031                      .dwpsn  file "../FreeRTOS/Source/tasks.c",line 1128,column 3,is_stmt
    1032 00026b ED00          MOV dbl(*SP(#0)), XAR3
         00026d BF   
    1033 00026e A931          MOV *(#_uxTopReadyPriority), AR1 ; |1128| 
         000270 0000 
         000272 65-  
    1034 000273 AA6D          MOV *AR3(#24), AR2 ; |1128| 
         000275 0018 
    1035 000277 1298          CMPU AR2 <= AR1, TC1 ; |1128| 
         000279 A4   
    1036 00027a 64E4          BCC $C$L13,TC1 ; |1128| 
    1037                                                      ; branchcc occurs ; |1128| 
    1038 00027c A96D          MOV *AR3(#24), AR1 ; |1128| 
         00027e 0018 
    1039 000280 C931          MOV AR1, *(#_uxTopReadyPriority) ; |1128| 
         000282 0000 
         000284 65-  
    1040 000285       $C$L13:    
    1041 000285 F86D          MPYMK *AR3(#24), #10, AC0 ; |1128| 
         000287 0A00 
         000289 0018 
    1042 00028b 2209          MOV AC0, AR1 ; |1128| 
    1043 00028d EC31          AMOV #_pxReadyTasksLists, XAR0 ; |1128| 
         00028f 8E00 
         000291 0004-
    1044 000293 1490          AADD AR1, AR0 ; |1128| 
         000295 80   
    1045 000296 ED00          MOV dbl(*SP(#0)), XAR1
         000298 9F   
    1046 000299 1404          AADD #4, AR1 ; |1128| 
         00029b 94   
    1047              $C$DW$115       .dwtag  DW_TAG_TI_branch
    1048                      .dwattr $C$DW$115, DW_AT_low_pc(0x00)
    1049                      .dwattr $C$DW$115, DW_AT_name("_vListInsertEnd")
    1050                      .dwattr $C$DW$115, DW_AT_TI_call
    1051 00029c 6C00          CALL #_vListInsertEnd ; |1128| 
         00029e 0000!
    1052                                                      ; call occurs [#_vListInsertEnd] ; |1128| 
    1053                      .dwpsn  file "../FreeRTOS/Source/tasks.c",line 1130,column 3,is_stmt
    1054                      .dwpsn  file "../FreeRTOS/Source/tasks.c",line 1132,column 2,is_stmt
    1055 0002a0 A931          MOV *(#_usCriticalNesting), AR1 ; |1132| 
         0002a2 0000 
         0002a4 00!  
    1056 0002a5 0409          BCC $C$L14,AR1 == #0 ; |1132| 
         0002a7 14   
    1057                                                      ; branchcc occurs ; |1132| 
    1058 0002a8 F731          SUB #1, *(#_usCriticalNesting) ; |1132| 
         0002aa FFFF 
         0002ac 0000 
         0002ae 00!  
    1059 0002af 20            NOP
    1060 0002b0 20            NOP
    1061 0002b1 20            NOP
    1062 0002b2 A931          MOV *(#_usCriticalNesting), AR1 ; |1132| 
         0002b4 0000 
TMS320C55x Assembler PC v4.4.1 Sat Sep 08 17:11:34 2018

Tools Copyright (c) 1996-2012 Texas Instruments Incorporated
tasks.asm                                                            PAGE   24

         0002b6 00!  
    1063 0002b7 6199          BCC $C$L14,AR1 != #0 ; |1132| 
    1064                                                      ; branchcc occurs ; |1132| 
    1065 0002b9 20     nop
    1066 0002ba 46B2   bclr INTM
    1067 0002bc       $C$L14:    
    1068                      .dwpsn  file "../FreeRTOS/Source/tasks.c",line 1134,column 2,is_stmt
    1069 0002bc A931          MOV *(#_xSchedulerRunning), AR1 ; |1134| 
         0002be 0000 
         0002c0 66-  
    1070 0002c1 0409          BCC $C$L15,AR1 == #0 ; |1134| 
         0002c3 1C   
    1071                                                      ; branchcc occurs ; |1134| 
    1072                      .dwpsn  file "../FreeRTOS/Source/tasks.c",line 1138,column 3,is_stmt
    1073 0002c4 ED00          MOV dbl(*SP(#0)), XAR3
         0002c6 BF   
    1074 0002c7 A96D          MOV *AR3(#24), AR1 ; |1138| 
         0002c9 0018 
    1075 0002cb ED31          MOV dbl(*(#_pxCurrentTCB)), XAR3
         0002cd BF00 
         0002cf 0002-
    1076 0002d1 AA6D          MOV *AR3(#24), AR2 ; |1138| 
         0002d3 0018 
    1077 0002d5 12A8          CMPU AR2 >= AR1, TC1 ; |1138| 
         0002d7 94   
    1078 0002d8 6364          BCC $C$L15,TC1 ; |1138| 
    1079                                                      ; branchcc occurs ; |1138| 
    1080                      .dwpsn  file "../FreeRTOS/Source/tasks.c",line 1140,column 4,is_stmt
    1081              $C$DW$116       .dwtag  DW_TAG_TI_branch
    1082                      .dwattr $C$DW$116, DW_AT_low_pc(0x00)
    1083                      .dwattr $C$DW$116, DW_AT_name("_vPortYield")
    1084                      .dwattr $C$DW$116, DW_AT_TI_call
    1085 0002da 6C00          CALL #_vPortYield ; |1140| 
         0002dc 0000!
    1086                                                      ; call occurs [#_vPortYield] ; |1140| 
    1087                      .dwpsn  file "../FreeRTOS/Source/tasks.c",line 1141,column 3,is_stmt
    1088 0002de 4A00          B $C$L15  ; |1141| 
    1089                                                      ; branch occurs ; |1141| 
    1090 0002e0       $C$L15:    
    1091 0002e0 4E03          AADD #3, SP
    1092                      .dwcfi  cfa_offset, 1
    1093              $C$DW$117       .dwtag  DW_TAG_TI_branch
    1094                      .dwattr $C$DW$117, DW_AT_low_pc(0x00)
    1095                      .dwattr $C$DW$117, DW_AT_TI_return
    1096 0002e2 4804          RET
    1097                                                      ; return occurs
    1098                      .dwattr $C$DW$111, DW_AT_TI_end_file("../FreeRTOS/Source/tasks.c")
    1099                      .dwattr $C$DW$111, DW_AT_TI_end_line(0x47f)
    1100                      .dwattr $C$DW$111, DW_AT_TI_end_column(0x01)
    1101                      .dwendentry
    1102                      .dwendtag $C$DW$111
    1103              
    1104 0002e4               .sect   ".text"
    1105                      .align 4
    1106                      .global _vTaskDelete
TMS320C55x Assembler PC v4.4.1 Sat Sep 08 17:11:34 2018

Tools Copyright (c) 1996-2012 Texas Instruments Incorporated
tasks.asm                                                            PAGE   25

    1107              
    1108              $C$DW$118       .dwtag  DW_TAG_subprogram, DW_AT_name("vTaskDelete")
    1109                      .dwattr $C$DW$118, DW_AT_low_pc(_vTaskDelete)
    1110                      .dwattr $C$DW$118, DW_AT_high_pc(0x00)
    1111                      .dwattr $C$DW$118, DW_AT_TI_symbol_name("_vTaskDelete")
    1112                      .dwattr $C$DW$118, DW_AT_external
    1113                      .dwattr $C$DW$118, DW_AT_TI_begin_file("../FreeRTOS/Source/tasks.c")
    1114                      .dwattr $C$DW$118, DW_AT_TI_begin_line(0x484)
    1115                      .dwattr $C$DW$118, DW_AT_TI_begin_column(0x07)
    1116                      .dwattr $C$DW$118, DW_AT_TI_max_frame_size(0x06)
    1117                      .dwpsn  file "../FreeRTOS/Source/tasks.c",line 1157,column 2,is_stmt,address _vTaskDelete
    1118              
    1119                      .dwfde $C$DW$CIE, _vTaskDelete
    1120              $C$DW$119       .dwtag  DW_TAG_formal_parameter, DW_AT_name("xTaskToDelete")
    1121                      .dwattr $C$DW$119, DW_AT_TI_symbol_name("_xTaskToDelete")
    1122                      .dwattr $C$DW$119, DW_AT_type(*$C$DW$T$70)
    1123                      .dwattr $C$DW$119, DW_AT_location[DW_OP_reg17]
    1124              ;*******************************************************************************
    1125              ;* FUNCTION NAME: vTaskDelete                                                  *
    1126              ;*                                                                             *
    1127              ;*   Function Uses Regs : AC0,AC0,AC1,AC1,T0,AR0,XAR0,AR1,XAR1,AR3,XAR3,SP,    *
    1128              ;*                        CARRY,TC1,M40,SATA,SATD,RDM,FRCT,SMUL                *
    1129              ;*   Stack Frame        : Compact (No Frame Pointer, w/ debug)                 *
    1130              ;*   Total Frame Size   : 6 words                                              *
    1131              ;*                        (2 return address/alignment)                         *
    1132              ;*                        (4 local values)                                     *
    1133              ;*   Min System Stack   : 1 word                                               *
    1134              ;*******************************************************************************
    1135 0002e4       _vTaskDelete:
    1136                      .dwcfi  cfa_offset, 1
    1137                      .dwcfi  save_reg_to_mem, 91, -1
    1138 0002e4 4EFB          AADD #-5, SP
    1139                      .dwcfi  cfa_offset, 6
    1140              $C$DW$120       .dwtag  DW_TAG_variable, DW_AT_name("xTaskToDelete")
    1141                      .dwattr $C$DW$120, DW_AT_TI_symbol_name("_xTaskToDelete")
    1142                      .dwattr $C$DW$120, DW_AT_type(*$C$DW$T$70)
    1143                      .dwattr $C$DW$120, DW_AT_location[DW_OP_bregx 0x24 0]
    1144              $C$DW$121       .dwtag  DW_TAG_variable, DW_AT_name("pxTCB")
    1145                      .dwattr $C$DW$121, DW_AT_TI_symbol_name("_pxTCB")
    1146                      .dwattr $C$DW$121, DW_AT_type(*$C$DW$T$82)
    1147                      .dwattr $C$DW$121, DW_AT_location[DW_OP_bregx 0x24 2]
    1148 0002e6 EB00          MOV XAR0, dbl(*SP(#0))
         0002e8 85   
    1149                      .dwpsn  file "../FreeRTOS/Source/tasks.c",line 1160,column 3,is_stmt
    1150 0002e9 20     nop
    1151 0002ea 46B3   bset INTM
    1152 0002ec F731          ADD #1, *(#_usCriticalNesting) ; |1160| 
         0002ee 0001 
         0002f0 0000 
         0002f2 00!  
    1153                      .dwpsn  file "../FreeRTOS/Source/tasks.c",line 1164,column 4,is_stmt
    1154 0002f3 ED00          MOV dbl(*SP(#0)), XAR3
         0002f5 BF   
    1155 0002f6 90B0          MOV XAR3, AC0
    1156 0002f8 6310          BCC $C$L16,AC0 != #0 ; |1164| 
TMS320C55x Assembler PC v4.4.1 Sat Sep 08 17:11:34 2018

Tools Copyright (c) 1996-2012 Texas Instruments Incorporated
tasks.asm                                                            PAGE   26

    1157                                                      ; branchcc occurs ; |1164| 
    1158 0002fa ED31          MOV dbl(*(#_pxCurrentTCB)), XAR3
         0002fc BF00 
         0002fe 0002-
    1159 000300       $C$L16:    
    1160 000300 EB04          MOV XAR3, dbl(*SP(#2))
         000302 B5   
    1161                      .dwpsn  file "../FreeRTOS/Source/tasks.c",line 1167,column 4,is_stmt
    1162 000303 ED04          MOV dbl(*SP(#2)), XAR0
         000305 8F   
    1163 000306 1404          AADD #4, AR0 ; |1167| 
         000308 84   
    1164              $C$DW$122       .dwtag  DW_TAG_TI_branch
    1165                      .dwattr $C$DW$122, DW_AT_low_pc(0x00)
    1166                      .dwattr $C$DW$122, DW_AT_name("_uxListRemove")
    1167                      .dwattr $C$DW$122, DW_AT_TI_call
    1168 000309 6C00          CALL #_uxListRemove ; |1167| 
         00030b 0000!
    1169                                                      ; call occurs [#_uxListRemove] ; |1167| 
    1170 00030d 6004          BCC $C$L17,T0 == #0 ; |1167| 
    1171                                                      ; branchcc occurs ; |1167| 
    1172                      .dwpsn  file "../FreeRTOS/Source/tasks.c",line 1170,column 4,is_stmt
    1173 00030f       $C$L17:    
    1174                      .dwpsn  file "../FreeRTOS/Source/tasks.c",line 1177,column 4,is_stmt
    1175 00030f ED04          MOV dbl(*SP(#2)), XAR3
         000311 BF   
    1176 000312 ED6D          MOV dbl(*AR3(#22)), XAR3
         000314 BF00 
         000316 16   
    1177 000317 90B0          MOV XAR3, AC0
    1178 000319 6500          BCC $C$L18,AC0 == #0 ; |1177| 
    1179                                                      ; branchcc occurs ; |1177| 
    1180                      .dwpsn  file "../FreeRTOS/Source/tasks.c",line 1179,column 5,is_stmt
    1181 00031b ED04          MOV dbl(*SP(#2)), XAR0
         00031d 8F   
    1182 00031e 140E          AADD #14, AR0 ; |1179| 
         000320 84   
    1183              $C$DW$123       .dwtag  DW_TAG_TI_branch
    1184                      .dwattr $C$DW$123, DW_AT_low_pc(0x00)
    1185                      .dwattr $C$DW$123, DW_AT_name("_uxListRemove")
    1186                      .dwattr $C$DW$123, DW_AT_TI_call
    1187 000321 6C00          CALL #_uxListRemove ; |1179| 
         000323 0000!
    1188                                                      ; call occurs [#_uxListRemove] ; |1179| 
    1189                      .dwpsn  file "../FreeRTOS/Source/tasks.c",line 1180,column 4,is_stmt
    1190 000325       $C$L18:    
    1191                      .dwpsn  file "../FreeRTOS/Source/tasks.c",line 1190,column 4,is_stmt
    1192 000325 F731          ADD #1, *(#_uxTaskNumber) ; |1190| 
         000327 0001 
         000329 0000 
         00032b 6A-  
    1193                      .dwpsn  file "../FreeRTOS/Source/tasks.c",line 1192,column 4,is_stmt
    1194 00032c ED31          MOV dbl(*(#_pxCurrentTCB)), XAR3
         00032e BF00 
         000330 0002-
TMS320C55x Assembler PC v4.4.1 Sat Sep 08 17:11:34 2018

Tools Copyright (c) 1996-2012 Texas Instruments Incorporated
tasks.asm                                                            PAGE   27

    1195 000332 90B0          MOV XAR3, AC0
    1196 000334 ED04          MOV dbl(*SP(#2)), XAR3
         000336 BF   
    1197 000337 90B1          MOV XAR3, AC1
    1198 000339 121C          CMPU AC1 != AC0, TC1 ; |1192| 
         00033b 04   
    1199 00033c 0464          BCC $C$L19,TC1 ; |1192| 
         00033e 19   
    1200                                                      ; branchcc occurs ; |1192| 
    1201                      .dwpsn  file "../FreeRTOS/Source/tasks.c",line 1199,column 5,is_stmt
    1202 00033f ED04          MOV dbl(*SP(#2)), XAR1
         000341 9F   
    1203 000342 EC31          AMOV #_xTasksWaitingTermination, XAR0 ; |1199| 
         000344 8E00 
         000346 004E-
    1204 000348 1404          AADD #4, AR1 ; |1199| 
         00034a 94   
    1205              $C$DW$124       .dwtag  DW_TAG_TI_branch
    1206                      .dwattr $C$DW$124, DW_AT_low_pc(0x00)
    1207                      .dwattr $C$DW$124, DW_AT_name("_vListInsertEnd")
    1208                      .dwattr $C$DW$124, DW_AT_TI_call
    1209 00034b 6C00          CALL #_vListInsertEnd ; |1199| 
         00034d 0000!
    1210                                                      ; call occurs [#_vListInsertEnd] ; |1199| 
    1211                      .dwpsn  file "../FreeRTOS/Source/tasks.c",line 1204,column 5,is_stmt
    1212 00034f F731          ADD #1, *(#_uxDeletedTasksWaitingCleanUp) ; |1204| 
         000351 0001 
         000353 0000 
         000355 58-  
    1213                      .dwpsn  file "../FreeRTOS/Source/tasks.c",line 1212,column 4,is_stmt
    1214 000356 4A10          B $C$L20  ; |1212| 
    1215                                                      ; branch occurs ; |1212| 
    1216 000358       $C$L19:    
    1217                      .dwpsn  file "../FreeRTOS/Source/tasks.c",line 1215,column 5,is_stmt
    1218 000358 F731          SUB #1, *(#_uxCurrentNumberOfTasks) ; |1215| 
         00035a FFFF 
         00035c 0000 
         00035e 59-  
    1219                      .dwpsn  file "../FreeRTOS/Source/tasks.c",line 1216,column 5,is_stmt
    1220 00035f ED04          MOV dbl(*SP(#2)), XAR0
         000361 8F   
    1221              $C$DW$125       .dwtag  DW_TAG_TI_branch
    1222                      .dwattr $C$DW$125, DW_AT_low_pc(0x00)
    1223                      .dwattr $C$DW$125, DW_AT_name("_prvDeleteTCB")
    1224                      .dwattr $C$DW$125, DW_AT_TI_call
    1225 000362 080D          CALL #_prvDeleteTCB ; |1216| 
         000364 6B   
    1226                                                      ; call occurs [#_prvDeleteTCB] ; |1216| 
    1227                      .dwpsn  file "../FreeRTOS/Source/tasks.c",line 1220,column 5,is_stmt
    1228              $C$DW$126       .dwtag  DW_TAG_TI_branch
    1229                      .dwattr $C$DW$126, DW_AT_low_pc(0x00)
    1230                      .dwattr $C$DW$126, DW_AT_name("_prvResetNextTaskUnblockTime")
    1231                      .dwattr $C$DW$126, DW_AT_TI_call
    1232 000365 080D          CALL #_prvResetNextTaskUnblockTime ; |1220| 
         000367 90   
TMS320C55x Assembler PC v4.4.1 Sat Sep 08 17:11:34 2018

Tools Copyright (c) 1996-2012 Texas Instruments Incorporated
tasks.asm                                                            PAGE   28

    1233                                                      ; call occurs [#_prvResetNextTaskUnblockTime] ; |1220| 
    1234 000368       $C$L20:    
    1235                      .dwpsn  file "../FreeRTOS/Source/tasks.c",line 1225,column 3,is_stmt
    1236 000368 A931          MOV *(#_usCriticalNesting), AR1 ; |1225| 
         00036a 0000 
         00036c 00!  
    1237 00036d 0409          BCC $C$L21,AR1 == #0 ; |1225| 
         00036f 14   
    1238                                                      ; branchcc occurs ; |1225| 
    1239 000370 F731          SUB #1, *(#_usCriticalNesting) ; |1225| 
         000372 FFFF 
         000374 0000 
         000376 00!  
    1240 000377 20            NOP
    1241 000378 20            NOP
    1242 000379 20            NOP
    1243 00037a A931          MOV *(#_usCriticalNesting), AR1 ; |1225| 
         00037c 0000 
         00037e 00!  
    1244 00037f 6199          BCC $C$L21,AR1 != #0 ; |1225| 
    1245                                                      ; branchcc occurs ; |1225| 
    1246 000381 20     nop
    1247 000382 46B2   bclr INTM
    1248 000384       $C$L21:    
    1249                      .dwpsn  file "../FreeRTOS/Source/tasks.c",line 1229,column 3,is_stmt
    1250 000384 A931          MOV *(#_xSchedulerRunning), AR1 ; |1229| 
         000386 0000 
         000388 66-  
    1251 000389 0409          BCC $C$L22,AR1 == #0 ; |1229| 
         00038b 18   
    1252                                                      ; branchcc occurs ; |1229| 
    1253                      .dwpsn  file "../FreeRTOS/Source/tasks.c",line 1231,column 4,is_stmt
    1254 00038c ED31          MOV dbl(*(#_pxCurrentTCB)), XAR3
         00038e BF00 
         000390 0002-
    1255 000392 90B0          MOV XAR3, AC0
    1256 000394 ED04          MOV dbl(*SP(#2)), XAR3
         000396 BF   
    1257 000397 90B1          MOV XAR3, AC1
    1258 000399 121C          CMPU AC1 != AC0, TC1 ; |1231| 
         00039b 04   
    1259 00039c 6364          BCC $C$L22,TC1 ; |1231| 
    1260                                                      ; branchcc occurs ; |1231| 
    1261                      .dwpsn  file "../FreeRTOS/Source/tasks.c",line 1234,column 5,is_stmt
    1262              $C$DW$127       .dwtag  DW_TAG_TI_branch
    1263                      .dwattr $C$DW$127, DW_AT_low_pc(0x00)
    1264                      .dwattr $C$DW$127, DW_AT_name("_vPortYield")
    1265                      .dwattr $C$DW$127, DW_AT_TI_call
    1266 00039e 6C00          CALL #_vPortYield ; |1234| 
         0003a0 0000!
    1267                                                      ; call occurs [#_vPortYield] ; |1234| 
    1268                      .dwpsn  file "../FreeRTOS/Source/tasks.c",line 1235,column 4,is_stmt
    1269 0003a2 4A00          B $C$L22  ; |1235| 
    1270                                                      ; branch occurs ; |1235| 
    1271 0003a4       $C$L22:    
TMS320C55x Assembler PC v4.4.1 Sat Sep 08 17:11:34 2018

Tools Copyright (c) 1996-2012 Texas Instruments Incorporated
tasks.asm                                                            PAGE   29

    1272 0003a4 4E05          AADD #5, SP
    1273                      .dwcfi  cfa_offset, 1
    1274              $C$DW$128       .dwtag  DW_TAG_TI_branch
    1275                      .dwattr $C$DW$128, DW_AT_low_pc(0x00)
    1276                      .dwattr $C$DW$128, DW_AT_TI_return
    1277 0003a6 4804          RET
    1278                                                      ; return occurs
    1279                      .dwattr $C$DW$118, DW_AT_TI_end_file("../FreeRTOS/Source/tasks.c")
    1280                      .dwattr $C$DW$118, DW_AT_TI_end_line(0x4d9)
    1281                      .dwattr $C$DW$118, DW_AT_TI_end_column(0x02)
    1282                      .dwendentry
    1283                      .dwendtag $C$DW$118
    1284              
    1285 0003a8               .sect   ".text"
    1286                      .align 4
    1287                      .global _vTaskDelayUntil
    1288              
    1289              $C$DW$129       .dwtag  DW_TAG_subprogram, DW_AT_name("vTaskDelayUntil")
    1290                      .dwattr $C$DW$129, DW_AT_low_pc(_vTaskDelayUntil)
    1291                      .dwattr $C$DW$129, DW_AT_high_pc(0x00)
    1292                      .dwattr $C$DW$129, DW_AT_TI_symbol_name("_vTaskDelayUntil")
    1293                      .dwattr $C$DW$129, DW_AT_external
    1294                      .dwattr $C$DW$129, DW_AT_TI_begin_file("../FreeRTOS/Source/tasks.c")
    1295                      .dwattr $C$DW$129, DW_AT_TI_begin_line(0x4e0)
    1296                      .dwattr $C$DW$129, DW_AT_TI_begin_column(0x07)
    1297                      .dwattr $C$DW$129, DW_AT_TI_max_frame_size(0x08)
    1298                      .dwpsn  file "../FreeRTOS/Source/tasks.c",line 1249,column 2,is_stmt,address _vTaskDelayUntil
    1299              
    1300                      .dwfde $C$DW$CIE, _vTaskDelayUntil
    1301              $C$DW$130       .dwtag  DW_TAG_formal_parameter, DW_AT_name("pxPreviousWakeTime")
    1302                      .dwattr $C$DW$130, DW_AT_TI_symbol_name("_pxPreviousWakeTime")
    1303                      .dwattr $C$DW$130, DW_AT_type(*$C$DW$T$93)
    1304                      .dwattr $C$DW$130, DW_AT_location[DW_OP_reg17]
    1305              $C$DW$131       .dwtag  DW_TAG_formal_parameter, DW_AT_name("xTimeIncrement")
    1306                      .dwattr $C$DW$131, DW_AT_TI_symbol_name("_xTimeIncrement")
    1307                      .dwattr $C$DW$131, DW_AT_type(*$C$DW$T$94)
    1308                      .dwattr $C$DW$131, DW_AT_location[DW_OP_reg12]
    1309              ;*******************************************************************************
    1310              ;* FUNCTION NAME: vTaskDelayUntil                                              *
    1311              ;*                                                                             *
    1312              ;*   Function Uses Regs : AC0,T0,T1,AR0,XAR0,AR1,AR2,AR3,XAR3,SP,CARRY,TC1,M40,*
    1313              ;*                        SATA,SATD,RDM,FRCT,SMUL                              *
    1314              ;*   Stack Frame        : Compact (No Frame Pointer, w/ debug)                 *
    1315              ;*   Total Frame Size   : 8 words                                              *
    1316              ;*                        (1 return address/alignment)                         *
    1317              ;*                        (7 local values)                                     *
    1318              ;*   Min System Stack   : 1 word                                               *
    1319              ;*******************************************************************************
    1320 0003a8       _vTaskDelayUntil:
    1321                      .dwcfi  cfa_offset, 1
    1322                      .dwcfi  save_reg_to_mem, 91, -1
    1323 0003a8 4EF9          AADD #-7, SP
    1324                      .dwcfi  cfa_offset, 8
    1325              $C$DW$132       .dwtag  DW_TAG_variable, DW_AT_name("pxPreviousWakeTime")
    1326                      .dwattr $C$DW$132, DW_AT_TI_symbol_name("_pxPreviousWakeTime")
TMS320C55x Assembler PC v4.4.1 Sat Sep 08 17:11:34 2018

Tools Copyright (c) 1996-2012 Texas Instruments Incorporated
tasks.asm                                                            PAGE   30

    1327                      .dwattr $C$DW$132, DW_AT_type(*$C$DW$T$93)
    1328                      .dwattr $C$DW$132, DW_AT_location[DW_OP_bregx 0x24 0]
    1329              $C$DW$133       .dwtag  DW_TAG_variable, DW_AT_name("xTimeIncrement")
    1330                      .dwattr $C$DW$133, DW_AT_TI_symbol_name("_xTimeIncrement")
    1331                      .dwattr $C$DW$133, DW_AT_type(*$C$DW$T$94)
    1332                      .dwattr $C$DW$133, DW_AT_location[DW_OP_bregx 0x24 2]
    1333              $C$DW$134       .dwtag  DW_TAG_variable, DW_AT_name("xTimeToWake")
    1334                      .dwattr $C$DW$134, DW_AT_TI_symbol_name("_xTimeToWake")
    1335                      .dwattr $C$DW$134, DW_AT_type(*$C$DW$T$38)
    1336                      .dwattr $C$DW$134, DW_AT_location[DW_OP_bregx 0x24 3]
    1337              $C$DW$135       .dwtag  DW_TAG_variable, DW_AT_name("xAlreadyYielded")
    1338                      .dwattr $C$DW$135, DW_AT_TI_symbol_name("_xAlreadyYielded")
    1339                      .dwattr $C$DW$135, DW_AT_type(*$C$DW$T$44)
    1340                      .dwattr $C$DW$135, DW_AT_location[DW_OP_bregx 0x24 4]
    1341              $C$DW$136       .dwtag  DW_TAG_variable, DW_AT_name("xShouldDelay")
    1342                      .dwattr $C$DW$136, DW_AT_TI_symbol_name("_xShouldDelay")
    1343                      .dwattr $C$DW$136, DW_AT_type(*$C$DW$T$44)
    1344                      .dwattr $C$DW$136, DW_AT_location[DW_OP_bregx 0x24 5]
    1345 0003aa C404          MOV T0, *SP(#2) ; |1249| 
    1346 0003ac EB00          MOV XAR0, dbl(*SP(#0))
         0003ae 85   
    1347                      .dwpsn  file "../FreeRTOS/Source/tasks.c",line 1251,column 30,is_stmt
    1348 0003af E60A          MOV #0, *SP(#5) ; |1251| 
         0003b1 00   
    1349                      .dwpsn  file "../FreeRTOS/Source/tasks.c",line 1257,column 3,is_stmt
    1350              $C$DW$137       .dwtag  DW_TAG_TI_branch
    1351                      .dwattr $C$DW$137, DW_AT_low_pc(0x00)
    1352                      .dwattr $C$DW$137, DW_AT_name("_vTaskSuspendAll")
    1353                      .dwattr $C$DW$137, DW_AT_TI_call
    1354 0003b2 0805          CALL #_vTaskSuspendAll ; |1257| 
         0003b4 57   
    1355                                                      ; call occurs [#_vTaskSuspendAll] ; |1257| 
    1356              
    1357              $C$DW$138       .dwtag  DW_TAG_lexical_block, DW_AT_low_pc(0x00), DW_AT_high_pc(0x00)
    1358              $C$DW$139       .dwtag  DW_TAG_variable, DW_AT_name("xConstTickCount")
    1359                      .dwattr $C$DW$139, DW_AT_TI_symbol_name("_xConstTickCount")
    1360                      .dwattr $C$DW$139, DW_AT_type(*$C$DW$T$94)
    1361                      .dwattr $C$DW$139, DW_AT_location[DW_OP_bregx 0x24 6]
    1362                      .dwpsn  file "../FreeRTOS/Source/tasks.c",line 1261,column 21,is_stmt
    1363 0003b5 A931          MOV *(#_xTickCount), AR1 ; |1261| 
         0003b7 0000 
         0003b9 64-  
    1364 0003ba C90C          MOV AR1, *SP(#6) ; |1261| 
    1365                      .dwpsn  file "../FreeRTOS/Source/tasks.c",line 1264,column 4,is_stmt
    1366 0003bc ED00          MOV dbl(*SP(#0)), XAR3
         0003be BF   
    1367 0003bf A904          MOV *SP(#2), AR1 ; |1264| 
    1368 0003c1 D661          ADD *AR3, AR1, AR1 ; |1264| 
         0003c3 99   
    1369 0003c4 C906          MOV AR1, *SP(#3) ; |1264| 
    1370                      .dwpsn  file "../FreeRTOS/Source/tasks.c",line 1266,column 4,is_stmt
    1371 0003c6 ED00          MOV dbl(*SP(#0)), XAR3
         0003c8 BF   
    1372 0003c9 AA0C          MOV *SP(#6), AR2 ; |1266| 
    1373 0003cb A961          MOV *AR3, AR1 ; |1266| 
TMS320C55x Assembler PC v4.4.1 Sat Sep 08 17:11:34 2018

Tools Copyright (c) 1996-2012 Texas Instruments Incorporated
tasks.asm                                                            PAGE   31

    1374 0003cd 12A8          CMPU AR2 >= AR1, TC1 ; |1266| 
         0003cf 94   
    1375 0003d0 0464          BCC $C$L23,TC1 ; |1266| 
         0003d2 17   
    1376                                                      ; branchcc occurs ; |1266| 
    1377                      .dwpsn  file "../FreeRTOS/Source/tasks.c",line 1273,column 5,is_stmt
    1378 0003d3 A961          MOV *AR3, AR1 ; |1273| 
    1379 0003d5 AA06          MOV *SP(#3), AR2 ; |1273| 
    1380 0003d7 12A8          CMPU AR2 >= AR1, TC1 ; |1273| 
         0003d9 94   
    1381 0003da 0464          BCC $C$L25,TC1 ; |1273| 
         0003dc 20   
    1382                                                      ; branchcc occurs ; |1273| 
    1383 0003dd A90C          MOV *SP(#6), AR1 ; |1273| 
    1384 0003df 1298          CMPU AR2 <= AR1, TC1 ; |1273| 
         0003e1 A4   
    1385 0003e2 0464          BCC $C$L25,TC1 ; |1273| 
         0003e4 18   
    1386                                                      ; branchcc occurs ; |1273| 
    1387                      .dwpsn  file "../FreeRTOS/Source/tasks.c",line 1275,column 6,is_stmt
    1388 0003e5 E60A          MOV #1, *SP(#5) ; |1275| 
         0003e7 01   
    1389                      .dwpsn  file "../FreeRTOS/Source/tasks.c",line 1276,column 5,is_stmt
    1390 0003e8 4A13          B $C$L25  ; |1276| 
    1391                                                      ; branch occurs ; |1276| 
    1392 0003ea       $C$L23:    
    1393                      .dwpsn  file "../FreeRTOS/Source/tasks.c",line 1287,column 5,is_stmt
    1394 0003ea A961          MOV *AR3, AR1 ; |1287| 
    1395 0003ec AA06          MOV *SP(#3), AR2 ; |1287| 
    1396 0003ee 12A4          CMPU AR2 < AR1, TC1 ; |1287| 
         0003f0 94   
    1397 0003f1 63E4          BCC $C$L24,TC1 ; |1287| 
    1398                                                      ; branchcc occurs ; |1287| 
    1399 0003f3 A90C          MOV *SP(#6), AR1 ; |1287| 
    1400 0003f5 1298          CMPU AR2 <= AR1, TC1 ; |1287| 
         0003f7 A4   
    1401 0003f8 61E4          BCC $C$L25,TC1 ; |1287| 
    1402                                                      ; branchcc occurs ; |1287| 
    1403 0003fa       $C$L24:    
    1404                      .dwpsn  file "../FreeRTOS/Source/tasks.c",line 1289,column 6,is_stmt
    1405 0003fa E60A          MOV #1, *SP(#5) ; |1289| 
         0003fc 01   
    1406                      .dwpsn  file "../FreeRTOS/Source/tasks.c",line 1290,column 5,is_stmt
    1407 0003fd       $C$L25:    
    1408                      .dwpsn  file "../FreeRTOS/Source/tasks.c",line 1298,column 4,is_stmt
    1409 0003fd ED00          MOV dbl(*SP(#0)), XAR3
         0003ff BF   
    1410 000400 A906          MOV *SP(#3), AR1 ; |1298| 
    1411 000402 C961          MOV AR1, *AR3 ; |1298| 
    1412                      .dwpsn  file "../FreeRTOS/Source/tasks.c",line 1300,column 4,is_stmt
    1413 000404 A90A          MOV *SP(#5), AR1 ; |1300| 
    1414 000406 6609          BCC $C$L26,AR1 == #0 ; |1300| 
    1415                                                      ; branchcc occurs ; |1300| 
    1416                      .dwpsn  file "../FreeRTOS/Source/tasks.c",line 1306,column 5,is_stmt
    1417 000408 A006          MOV *SP(#3), AC0 ; |1306| 
TMS320C55x Assembler PC v4.4.1 Sat Sep 08 17:11:34 2018

Tools Copyright (c) 1996-2012 Texas Instruments Incorporated
tasks.asm                                                            PAGE   32

    1418              
    1419 00040a DF0C          SUB uns(*SP(#6)), AC0, AC0 ; |1306| 
         00040c 0F   
    1420 00040d 3D05  ||      MOV #0, T1
    1421              
    1422              $C$DW$140       .dwtag  DW_TAG_TI_branch
    1423                      .dwattr $C$DW$140, DW_AT_low_pc(0x00)
    1424                      .dwattr $C$DW$140, DW_AT_name("_prvAddCurrentTaskToDelayedList")
    1425                      .dwattr $C$DW$140, DW_AT_TI_call
    1426              
    1427 00040f 0812          CALL #_prvAddCurrentTaskToDelayedList ; |1306| 
         000411 C4   
    1428 000412 2304  ||      MOV AC0, T0 ; |1306| 
    1429              
    1430                                                      ; call occurs [#_prvAddCurrentTaskToDelayedList] ; |1306| 
    1431                      .dwpsn  file "../FreeRTOS/Source/tasks.c",line 1307,column 4,is_stmt
    1432              $C$L26:    
    1433                      .dwendtag $C$DW$138
    1434              
    1435                      .dwpsn  file "../FreeRTOS/Source/tasks.c",line 1313,column 3,is_stmt
    1436              $C$DW$141       .dwtag  DW_TAG_TI_branch
    1437                      .dwattr $C$DW$141, DW_AT_low_pc(0x00)
    1438                      .dwattr $C$DW$141, DW_AT_name("_xTaskResumeAll")
    1439                      .dwattr $C$DW$141, DW_AT_TI_call
    1440 000414 0805          CALL #_xTaskResumeAll ; |1313| 
         000416 01   
    1441                                                      ; call occurs [#_xTaskResumeAll] ; |1313| 
    1442 000417 C408          MOV T0, *SP(#4) ; |1313| 
    1443                      .dwpsn  file "../FreeRTOS/Source/tasks.c",line 1317,column 3,is_stmt
    1444 000419 2249          MOV T0, AR1
    1445 00041b 6319          BCC $C$L27,AR1 != #0 ; |1317| 
    1446                                                      ; branchcc occurs ; |1317| 
    1447                      .dwpsn  file "../FreeRTOS/Source/tasks.c",line 1319,column 4,is_stmt
    1448              $C$DW$142       .dwtag  DW_TAG_TI_branch
    1449                      .dwattr $C$DW$142, DW_AT_low_pc(0x00)
    1450                      .dwattr $C$DW$142, DW_AT_name("_vPortYield")
    1451                      .dwattr $C$DW$142, DW_AT_TI_call
    1452 00041d 6C00          CALL #_vPortYield ; |1319| 
         00041f 0000!
    1453                                                      ; call occurs [#_vPortYield] ; |1319| 
    1454                      .dwpsn  file "../FreeRTOS/Source/tasks.c",line 1320,column 3,is_stmt
    1455 000421 4A00          B $C$L27  ; |1320| 
    1456                                                      ; branch occurs ; |1320| 
    1457 000423       $C$L27:    
    1458 000423 4E07          AADD #7, SP
    1459                      .dwcfi  cfa_offset, 1
    1460              $C$DW$143       .dwtag  DW_TAG_TI_branch
    1461                      .dwattr $C$DW$143, DW_AT_low_pc(0x00)
    1462                      .dwattr $C$DW$143, DW_AT_TI_return
    1463 000425 4804          RET
    1464                                                      ; return occurs
    1465                      .dwattr $C$DW$129, DW_AT_TI_end_file("../FreeRTOS/Source/tasks.c")
    1466                      .dwattr $C$DW$129, DW_AT_TI_end_line(0x52d)
    1467                      .dwattr $C$DW$129, DW_AT_TI_end_column(0x02)
    1468                      .dwendentry
TMS320C55x Assembler PC v4.4.1 Sat Sep 08 17:11:34 2018

Tools Copyright (c) 1996-2012 Texas Instruments Incorporated
tasks.asm                                                            PAGE   33

    1469                      .dwendtag $C$DW$129
    1470              
    1471 000427               .sect   ".text"
    1472                      .align 4
    1473                      .global _vTaskDelay
    1474              
    1475              $C$DW$144       .dwtag  DW_TAG_subprogram, DW_AT_name("vTaskDelay")
    1476                      .dwattr $C$DW$144, DW_AT_low_pc(_vTaskDelay)
    1477                      .dwattr $C$DW$144, DW_AT_high_pc(0x00)
    1478                      .dwattr $C$DW$144, DW_AT_TI_symbol_name("_vTaskDelay")
    1479                      .dwattr $C$DW$144, DW_AT_external
    1480                      .dwattr $C$DW$144, DW_AT_TI_begin_file("../FreeRTOS/Source/tasks.c")
    1481                      .dwattr $C$DW$144, DW_AT_TI_begin_line(0x534)
    1482                      .dwattr $C$DW$144, DW_AT_TI_begin_column(0x07)
    1483                      .dwattr $C$DW$144, DW_AT_TI_max_frame_size(0x04)
    1484                      .dwpsn  file "../FreeRTOS/Source/tasks.c",line 1333,column 2,is_stmt,address _vTaskDelay
    1485              
    1486                      .dwfde $C$DW$CIE, _vTaskDelay
    1487              $C$DW$145       .dwtag  DW_TAG_formal_parameter, DW_AT_name("xTicksToDelay")
    1488                      .dwattr $C$DW$145, DW_AT_TI_symbol_name("_xTicksToDelay")
    1489                      .dwattr $C$DW$145, DW_AT_type(*$C$DW$T$94)
    1490                      .dwattr $C$DW$145, DW_AT_location[DW_OP_reg12]
    1491              ;*******************************************************************************
    1492              ;* FUNCTION NAME: vTaskDelay                                                   *
    1493              ;*                                                                             *
    1494              ;*   Function Uses Regs : T0,T1,AR1,SP,M40,SATA,SATD,RDM,FRCT,SMUL             *
    1495              ;*   Stack Frame        : Compact (No Frame Pointer, w/ debug)                 *
    1496              ;*   Total Frame Size   : 4 words                                              *
    1497              ;*                        (2 return address/alignment)                         *
    1498              ;*                        (2 local values)                                     *
    1499              ;*   Min System Stack   : 1 word                                               *
    1500              ;*******************************************************************************
    1501 000428       _vTaskDelay:
    1502                      .dwcfi  cfa_offset, 1
    1503                      .dwcfi  save_reg_to_mem, 91, -1
    1504 000428 4EFD          AADD #-3, SP
    1505                      .dwcfi  cfa_offset, 4
    1506              $C$DW$146       .dwtag  DW_TAG_variable, DW_AT_name("xTicksToDelay")
    1507                      .dwattr $C$DW$146, DW_AT_TI_symbol_name("_xTicksToDelay")
    1508                      .dwattr $C$DW$146, DW_AT_type(*$C$DW$T$94)
    1509                      .dwattr $C$DW$146, DW_AT_location[DW_OP_bregx 0x24 0]
    1510              $C$DW$147       .dwtag  DW_TAG_variable, DW_AT_name("xAlreadyYielded")
    1511                      .dwattr $C$DW$147, DW_AT_TI_symbol_name("_xAlreadyYielded")
    1512                      .dwattr $C$DW$147, DW_AT_type(*$C$DW$T$44)
    1513                      .dwattr $C$DW$147, DW_AT_location[DW_OP_bregx 0x24 1]
    1514 00042a C400          MOV T0, *SP(#0) ; |1333| 
    1515                      .dwpsn  file "../FreeRTOS/Source/tasks.c",line 1334,column 13,is_stmt
    1516 00042c E602          MOV #0, *SP(#1) ; |1334| 
         00042e 00   
    1517                      .dwpsn  file "../FreeRTOS/Source/tasks.c",line 1337,column 3,is_stmt
    1518 00042f A900          MOV *SP(#0), AR1 ; |1337| 
    1519 000431 6789          BCC $C$L28,AR1 == #0 ; |1337| 
    1520                                                      ; branchcc occurs ; |1337| 
    1521                      .dwpsn  file "../FreeRTOS/Source/tasks.c",line 1340,column 4,is_stmt
    1522              $C$DW$148       .dwtag  DW_TAG_TI_branch
TMS320C55x Assembler PC v4.4.1 Sat Sep 08 17:11:34 2018

Tools Copyright (c) 1996-2012 Texas Instruments Incorporated
tasks.asm                                                            PAGE   34

    1523                      .dwattr $C$DW$148, DW_AT_low_pc(0x00)
    1524                      .dwattr $C$DW$148, DW_AT_name("_vTaskSuspendAll")
    1525                      .dwattr $C$DW$148, DW_AT_TI_call
    1526 000433 0804          CALL #_vTaskSuspendAll ; |1340| 
         000435 D6   
    1527                                                      ; call occurs [#_vTaskSuspendAll] ; |1340| 
    1528                      .dwpsn  file "../FreeRTOS/Source/tasks.c",line 1351,column 5,is_stmt
    1529 000436 A400          MOV *SP(#0), T0 ; |1351| 
    1530              $C$DW$149       .dwtag  DW_TAG_TI_branch
    1531                      .dwattr $C$DW$149, DW_AT_low_pc(0x00)
    1532                      .dwattr $C$DW$149, DW_AT_name("_prvAddCurrentTaskToDelayedList")
    1533                      .dwattr $C$DW$149, DW_AT_TI_call
    1534              
    1535 000438 0812          CALL #_prvAddCurrentTaskToDelayedList ; |1351| 
         00043a 9B   
    1536 00043b 3D05  ||      MOV #0, T1
    1537              
    1538                                                      ; call occurs [#_prvAddCurrentTaskToDelayedList] ; |1351| 
    1539                      .dwpsn  file "../FreeRTOS/Source/tasks.c",line 1353,column 4,is_stmt
    1540              $C$DW$150       .dwtag  DW_TAG_TI_branch
    1541                      .dwattr $C$DW$150, DW_AT_low_pc(0x00)
    1542                      .dwattr $C$DW$150, DW_AT_name("_xTaskResumeAll")
    1543                      .dwattr $C$DW$150, DW_AT_TI_call
    1544 00043d 0804          CALL #_xTaskResumeAll ; |1353| 
         00043f D8   
    1545                                                      ; call occurs [#_xTaskResumeAll] ; |1353| 
    1546 000440 C402          MOV T0, *SP(#1) ; |1353| 
    1547                      .dwpsn  file "../FreeRTOS/Source/tasks.c",line 1354,column 3,is_stmt
    1548 000442       $C$L28:    
    1549                      .dwpsn  file "../FreeRTOS/Source/tasks.c",line 1362,column 3,is_stmt
    1550 000442 A902          MOV *SP(#1), AR1 ; |1362| 
    1551 000444 6319          BCC $C$L29,AR1 != #0 ; |1362| 
    1552                                                      ; branchcc occurs ; |1362| 
    1553                      .dwpsn  file "../FreeRTOS/Source/tasks.c",line 1364,column 4,is_stmt
    1554              $C$DW$151       .dwtag  DW_TAG_TI_branch
    1555                      .dwattr $C$DW$151, DW_AT_low_pc(0x00)
    1556                      .dwattr $C$DW$151, DW_AT_name("_vPortYield")
    1557                      .dwattr $C$DW$151, DW_AT_TI_call
    1558 000446 6C00          CALL #_vPortYield ; |1364| 
         000448 0000!
    1559                                                      ; call occurs [#_vPortYield] ; |1364| 
    1560                      .dwpsn  file "../FreeRTOS/Source/tasks.c",line 1365,column 3,is_stmt
    1561 00044a 4A00          B $C$L29  ; |1365| 
    1562                                                      ; branch occurs ; |1365| 
    1563 00044c       $C$L29:    
    1564 00044c 4E03          AADD #3, SP
    1565                      .dwcfi  cfa_offset, 1
    1566              $C$DW$152       .dwtag  DW_TAG_TI_branch
    1567                      .dwattr $C$DW$152, DW_AT_low_pc(0x00)
    1568                      .dwattr $C$DW$152, DW_AT_TI_return
    1569 00044e 4804          RET
    1570                                                      ; return occurs
    1571                      .dwattr $C$DW$144, DW_AT_TI_end_file("../FreeRTOS/Source/tasks.c")
    1572                      .dwattr $C$DW$144, DW_AT_TI_end_line(0x55a)
    1573                      .dwattr $C$DW$144, DW_AT_TI_end_column(0x02)
TMS320C55x Assembler PC v4.4.1 Sat Sep 08 17:11:34 2018

Tools Copyright (c) 1996-2012 Texas Instruments Incorporated
tasks.asm                                                            PAGE   35

    1574                      .dwendentry
    1575                      .dwendtag $C$DW$144
    1576              
    1577 000450               .sect   ".text"
    1578                      .align 4
    1579                      .global _uxTaskPriorityGet
    1580              
    1581              $C$DW$153       .dwtag  DW_TAG_subprogram, DW_AT_name("uxTaskPriorityGet")
    1582                      .dwattr $C$DW$153, DW_AT_low_pc(_uxTaskPriorityGet)
    1583                      .dwattr $C$DW$153, DW_AT_high_pc(0x00)
    1584                      .dwattr $C$DW$153, DW_AT_TI_symbol_name("_uxTaskPriorityGet")
    1585                      .dwattr $C$DW$153, DW_AT_external
    1586                      .dwattr $C$DW$153, DW_AT_type(*$C$DW$T$25)
    1587                      .dwattr $C$DW$153, DW_AT_TI_begin_file("../FreeRTOS/Source/tasks.c")
    1588                      .dwattr $C$DW$153, DW_AT_TI_begin_line(0x5bd)
    1589                      .dwattr $C$DW$153, DW_AT_TI_begin_column(0x0e)
    1590                      .dwattr $C$DW$153, DW_AT_TI_max_frame_size(0x06)
    1591                      .dwpsn  file "../FreeRTOS/Source/tasks.c",line 1470,column 2,is_stmt,address _uxTaskPriorityGet
    1592              
    1593                      .dwfde $C$DW$CIE, _uxTaskPriorityGet
    1594              $C$DW$154       .dwtag  DW_TAG_formal_parameter, DW_AT_name("xTask")
    1595                      .dwattr $C$DW$154, DW_AT_TI_symbol_name("_xTask")
    1596                      .dwattr $C$DW$154, DW_AT_type(*$C$DW$T$121)
    1597                      .dwattr $C$DW$154, DW_AT_location[DW_OP_reg17]
    1598              ;*******************************************************************************
    1599              ;* FUNCTION NAME: uxTaskPriorityGet                                            *
    1600              ;*                                                                             *
    1601              ;*   Function Uses Regs : AC0,AC0,T0,AR0,XAR0,AR1,AR3,XAR3,SP,CARRY,M40,SATA,  *
    1602              ;*                        SATD,RDM,FRCT,SMUL                                   *
    1603              ;*   Stack Frame        : Compact (No Frame Pointer, w/ debug)                 *
    1604              ;*   Total Frame Size   : 6 words                                              *
    1605              ;*                        (1 return address/alignment)                         *
    1606              ;*                        (5 local values)                                     *
    1607              ;*   Min System Stack   : 1 word                                               *
    1608              ;*******************************************************************************
    1609 000450       _uxTaskPriorityGet:
    1610                      .dwcfi  cfa_offset, 1
    1611                      .dwcfi  save_reg_to_mem, 91, -1
    1612 000450 4EFB          AADD #-5, SP
    1613                      .dwcfi  cfa_offset, 6
    1614              $C$DW$155       .dwtag  DW_TAG_variable, DW_AT_name("xTask")
    1615                      .dwattr $C$DW$155, DW_AT_TI_symbol_name("_xTask")
    1616                      .dwattr $C$DW$155, DW_AT_type(*$C$DW$T$121)
    1617                      .dwattr $C$DW$155, DW_AT_location[DW_OP_bregx 0x24 0]
    1618              $C$DW$156       .dwtag  DW_TAG_variable, DW_AT_name("pxTCB")
    1619                      .dwattr $C$DW$156, DW_AT_TI_symbol_name("_pxTCB")
    1620                      .dwattr $C$DW$156, DW_AT_type(*$C$DW$T$156)
    1621                      .dwattr $C$DW$156, DW_AT_location[DW_OP_bregx 0x24 2]
    1622              $C$DW$157       .dwtag  DW_TAG_variable, DW_AT_name("uxReturn")
    1623                      .dwattr $C$DW$157, DW_AT_TI_symbol_name("_uxReturn")
    1624                      .dwattr $C$DW$157, DW_AT_type(*$C$DW$T$25)
    1625                      .dwattr $C$DW$157, DW_AT_location[DW_OP_bregx 0x24 4]
    1626 000452 EB00          MOV XAR0, dbl(*SP(#0))
         000454 85   
    1627                      .dwpsn  file "../FreeRTOS/Source/tasks.c",line 1474,column 3,is_stmt
TMS320C55x Assembler PC v4.4.1 Sat Sep 08 17:11:34 2018

Tools Copyright (c) 1996-2012 Texas Instruments Incorporated
tasks.asm                                                            PAGE   36

    1628 000455 20     nop
    1629 000456 46B3   bset INTM
    1630 000458 F731          ADD #1, *(#_usCriticalNesting) ; |1474| 
         00045a 0001 
         00045c 0000 
         00045e 00!  
    1631                      .dwpsn  file "../FreeRTOS/Source/tasks.c",line 1478,column 4,is_stmt
    1632 00045f ED00          MOV dbl(*SP(#0)), XAR3
         000461 BF   
    1633 000462 90B0          MOV XAR3, AC0
    1634 000464 6310          BCC $C$L30,AC0 != #0 ; |1478| 
    1635                                                      ; branchcc occurs ; |1478| 
    1636 000466 ED31          MOV dbl(*(#_pxCurrentTCB)), XAR3
         000468 BF00 
         00046a 0002-
    1637 00046c       $C$L30:    
    1638 00046c EB04          MOV XAR3, dbl(*SP(#2))
         00046e B5   
    1639                      .dwpsn  file "../FreeRTOS/Source/tasks.c",line 1479,column 4,is_stmt
    1640 00046f A96D          MOV *AR3(#24), AR1 ; |1479| 
         000471 0018 
    1641 000473 C908          MOV AR1, *SP(#4) ; |1479| 
    1642                      .dwpsn  file "../FreeRTOS/Source/tasks.c",line 1481,column 3,is_stmt
    1643 000475 A931          MOV *(#_usCriticalNesting), AR1 ; |1481| 
         000477 0000 
         000479 00!  
    1644 00047a 0409          BCC $C$L31,AR1 == #0 ; |1481| 
         00047c 14   
    1645                                                      ; branchcc occurs ; |1481| 
    1646 00047d F731          SUB #1, *(#_usCriticalNesting) ; |1481| 
         00047f FFFF 
         000481 0000 
         000483 00!  
    1647 000484 20            NOP
    1648 000485 20            NOP
    1649 000486 20            NOP
    1650 000487 A931          MOV *(#_usCriticalNesting), AR1 ; |1481| 
         000489 0000 
         00048b 00!  
    1651 00048c 6199          BCC $C$L31,AR1 != #0 ; |1481| 
    1652                                                      ; branchcc occurs ; |1481| 
    1653 00048e 20     nop
    1654 00048f 46B2   bclr INTM
    1655 000491       $C$L31:    
    1656                      .dwpsn  file "../FreeRTOS/Source/tasks.c",line 1483,column 3,is_stmt
    1657 000491 A408          MOV *SP(#4), T0 ; |1483| 
    1658                      .dwpsn  file "../FreeRTOS/Source/tasks.c",line 1484,column 2,is_stmt
    1659 000493 4E05          AADD #5, SP
    1660                      .dwcfi  cfa_offset, 1
    1661              $C$DW$158       .dwtag  DW_TAG_TI_branch
    1662                      .dwattr $C$DW$158, DW_AT_low_pc(0x00)
    1663                      .dwattr $C$DW$158, DW_AT_TI_return
    1664 000495 4804          RET
    1665                                                      ; return occurs
    1666                      .dwattr $C$DW$153, DW_AT_TI_end_file("../FreeRTOS/Source/tasks.c")
TMS320C55x Assembler PC v4.4.1 Sat Sep 08 17:11:34 2018

Tools Copyright (c) 1996-2012 Texas Instruments Incorporated
tasks.asm                                                            PAGE   37

    1667                      .dwattr $C$DW$153, DW_AT_TI_end_line(0x5cc)
    1668                      .dwattr $C$DW$153, DW_AT_TI_end_column(0x02)
    1669                      .dwendentry
    1670                      .dwendtag $C$DW$153
    1671              
    1672 000497               .sect   ".text"
    1673                      .align 4
    1674                      .global _uxTaskPriorityGetFromISR
    1675              
    1676              $C$DW$159       .dwtag  DW_TAG_subprogram, DW_AT_name("uxTaskPriorityGetFromISR")
    1677                      .dwattr $C$DW$159, DW_AT_low_pc(_uxTaskPriorityGetFromISR)
    1678                      .dwattr $C$DW$159, DW_AT_high_pc(0x00)
    1679                      .dwattr $C$DW$159, DW_AT_TI_symbol_name("_uxTaskPriorityGetFromISR")
    1680                      .dwattr $C$DW$159, DW_AT_external
    1681                      .dwattr $C$DW$159, DW_AT_type(*$C$DW$T$25)
    1682                      .dwattr $C$DW$159, DW_AT_TI_begin_file("../FreeRTOS/Source/tasks.c")
    1683                      .dwattr $C$DW$159, DW_AT_TI_begin_line(0x5d3)
    1684                      .dwattr $C$DW$159, DW_AT_TI_begin_column(0x0e)
    1685                      .dwattr $C$DW$159, DW_AT_TI_max_frame_size(0x08)
    1686                      .dwpsn  file "../FreeRTOS/Source/tasks.c",line 1492,column 2,is_stmt,address _uxTaskPriorityGetFromIS
    1687              
    1688                      .dwfde $C$DW$CIE, _uxTaskPriorityGetFromISR
    1689              $C$DW$160       .dwtag  DW_TAG_formal_parameter, DW_AT_name("xTask")
    1690                      .dwattr $C$DW$160, DW_AT_TI_symbol_name("_xTask")
    1691                      .dwattr $C$DW$160, DW_AT_type(*$C$DW$T$121)
    1692                      .dwattr $C$DW$160, DW_AT_location[DW_OP_reg17]
    1693              ;*******************************************************************************
    1694              ;* FUNCTION NAME: uxTaskPriorityGetFromISR                                     *
    1695              ;*                                                                             *
    1696              ;*   Function Uses Regs : AC0,AC0,T0,AR0,XAR0,AR1,AR3,XAR3,SP,M40,SATA,SATD,   *
    1697              ;*                        RDM,FRCT,SMUL                                        *
    1698              ;*   Stack Frame        : Compact (No Frame Pointer, w/ debug)                 *
    1699              ;*   Total Frame Size   : 8 words                                              *
    1700              ;*                        (2 return address/alignment)                         *
    1701              ;*                        (6 local values)                                     *
    1702              ;*   Min System Stack   : 1 word                                               *
    1703              ;*******************************************************************************
    1704 000498       _uxTaskPriorityGetFromISR:
    1705                      .dwcfi  cfa_offset, 1
    1706                      .dwcfi  save_reg_to_mem, 91, -1
    1707 000498 4EF9          AADD #-7, SP
    1708                      .dwcfi  cfa_offset, 8
    1709              $C$DW$161       .dwtag  DW_TAG_variable, DW_AT_name("xTask")
    1710                      .dwattr $C$DW$161, DW_AT_TI_symbol_name("_xTask")
    1711                      .dwattr $C$DW$161, DW_AT_type(*$C$DW$T$121)
    1712                      .dwattr $C$DW$161, DW_AT_location[DW_OP_bregx 0x24 0]
    1713              $C$DW$162       .dwtag  DW_TAG_variable, DW_AT_name("pxTCB")
    1714                      .dwattr $C$DW$162, DW_AT_TI_symbol_name("_pxTCB")
    1715                      .dwattr $C$DW$162, DW_AT_type(*$C$DW$T$156)
    1716                      .dwattr $C$DW$162, DW_AT_location[DW_OP_bregx 0x24 2]
    1717              $C$DW$163       .dwtag  DW_TAG_variable, DW_AT_name("uxReturn")
    1718                      .dwattr $C$DW$163, DW_AT_TI_symbol_name("_uxReturn")
    1719                      .dwattr $C$DW$163, DW_AT_type(*$C$DW$T$25)
    1720                      .dwattr $C$DW$163, DW_AT_location[DW_OP_bregx 0x24 4]
    1721              $C$DW$164       .dwtag  DW_TAG_variable, DW_AT_name("uxSavedInterruptState")
TMS320C55x Assembler PC v4.4.1 Sat Sep 08 17:11:34 2018

Tools Copyright (c) 1996-2012 Texas Instruments Incorporated
tasks.asm                                                            PAGE   38

    1722                      .dwattr $C$DW$164, DW_AT_TI_symbol_name("_uxSavedInterruptState")
    1723                      .dwattr $C$DW$164, DW_AT_type(*$C$DW$T$25)
    1724                      .dwattr $C$DW$164, DW_AT_location[DW_OP_bregx 0x24 5]
    1725 00049a EB00          MOV XAR0, dbl(*SP(#0))
         00049c 85   
    1726                      .dwpsn  file "../FreeRTOS/Source/tasks.c",line 1514,column 3,is_stmt
    1727 00049d E60A          MOV #0, *SP(#5) ; |1514| 
         00049f 00   
    1728                      .dwpsn  file "../FreeRTOS/Source/tasks.c",line 1518,column 4,is_stmt
    1729 0004a0 ED00          MOV dbl(*SP(#0)), XAR3
         0004a2 BF   
    1730 0004a3 90B0          MOV XAR3, AC0
    1731 0004a5 6310          BCC $C$L32,AC0 != #0 ; |1518| 
    1732                                                      ; branchcc occurs ; |1518| 
    1733 0004a7 ED31          MOV dbl(*(#_pxCurrentTCB)), XAR3
         0004a9 BF00 
         0004ab 0002-
    1734 0004ad       $C$L32:    
    1735 0004ad EB04          MOV XAR3, dbl(*SP(#2))
         0004af B5   
    1736                      .dwpsn  file "../FreeRTOS/Source/tasks.c",line 1519,column 4,is_stmt
    1737 0004b0 A96D          MOV *AR3(#24), AR1 ; |1519| 
         0004b2 0018 
    1738 0004b4 C908          MOV AR1, *SP(#4) ; |1519| 
    1739                      .dwpsn  file "../FreeRTOS/Source/tasks.c",line 1521,column 3,is_stmt
    1740                      .dwpsn  file "../FreeRTOS/Source/tasks.c",line 1523,column 3,is_stmt
    1741 0004b6 2294          MOV AR1, T0
    1742                      .dwpsn  file "../FreeRTOS/Source/tasks.c",line 1524,column 2,is_stmt
    1743 0004b8 4E07          AADD #7, SP
    1744                      .dwcfi  cfa_offset, 1
    1745              $C$DW$165       .dwtag  DW_TAG_TI_branch
    1746                      .dwattr $C$DW$165, DW_AT_low_pc(0x00)
    1747                      .dwattr $C$DW$165, DW_AT_TI_return
    1748 0004ba 4804          RET
    1749                                                      ; return occurs
    1750                      .dwattr $C$DW$159, DW_AT_TI_end_file("../FreeRTOS/Source/tasks.c")
    1751                      .dwattr $C$DW$159, DW_AT_TI_end_line(0x5f4)
    1752                      .dwattr $C$DW$159, DW_AT_TI_end_column(0x02)
    1753                      .dwendentry
    1754                      .dwendtag $C$DW$159
    1755              
    1756 0004bc               .sect   ".text"
    1757                      .align 4
    1758                      .global _vTaskPrioritySet
    1759              
    1760              $C$DW$166       .dwtag  DW_TAG_subprogram, DW_AT_name("vTaskPrioritySet")
    1761                      .dwattr $C$DW$166, DW_AT_low_pc(_vTaskPrioritySet)
    1762                      .dwattr $C$DW$166, DW_AT_high_pc(0x00)
    1763                      .dwattr $C$DW$166, DW_AT_TI_symbol_name("_vTaskPrioritySet")
    1764                      .dwattr $C$DW$166, DW_AT_external
    1765                      .dwattr $C$DW$166, DW_AT_TI_begin_file("../FreeRTOS/Source/tasks.c")
    1766                      .dwattr $C$DW$166, DW_AT_TI_begin_line(0x5fb)
    1767                      .dwattr $C$DW$166, DW_AT_TI_begin_column(0x07)
    1768                      .dwattr $C$DW$166, DW_AT_TI_max_frame_size(0x0a)
    1769                      .dwpsn  file "../FreeRTOS/Source/tasks.c",line 1532,column 2,is_stmt,address _vTaskPrioritySet
TMS320C55x Assembler PC v4.4.1 Sat Sep 08 17:11:34 2018

Tools Copyright (c) 1996-2012 Texas Instruments Incorporated
tasks.asm                                                            PAGE   39

    1770              
    1771                      .dwfde $C$DW$CIE, _vTaskPrioritySet
    1772              $C$DW$167       .dwtag  DW_TAG_formal_parameter, DW_AT_name("xTask")
    1773                      .dwattr $C$DW$167, DW_AT_TI_symbol_name("_xTask")
    1774                      .dwattr $C$DW$167, DW_AT_type(*$C$DW$T$70)
    1775                      .dwattr $C$DW$167, DW_AT_location[DW_OP_reg17]
    1776              $C$DW$168       .dwtag  DW_TAG_formal_parameter, DW_AT_name("uxNewPriority")
    1777                      .dwattr $C$DW$168, DW_AT_TI_symbol_name("_uxNewPriority")
    1778                      .dwattr $C$DW$168, DW_AT_type(*$C$DW$T$25)
    1779                      .dwattr $C$DW$168, DW_AT_location[DW_OP_reg12]
    1780              ;*******************************************************************************
    1781              ;* FUNCTION NAME: vTaskPrioritySet                                             *
    1782              ;*                                                                             *
    1783              ;*   Function Uses Regs : AC0,AC0,AC1,AC1,T0,AR0,XAR0,AR1,XAR1,AR2,AR3,XAR3,SP,*
    1784              ;*                        CARRY,TC1,M40,SATA,SATD,RDM,FRCT,SMUL                *
    1785              ;*   Stack Frame        : Compact (No Frame Pointer, w/ debug)                 *
    1786              ;*   Total Frame Size   : 10 words                                             *
    1787              ;*                        (1 return address/alignment)                         *
    1788              ;*                        (9 local values)                                     *
    1789              ;*   Min System Stack   : 1 word                                               *
    1790              ;*******************************************************************************
    1791 0004bc       _vTaskPrioritySet:
    1792                      .dwcfi  cfa_offset, 1
    1793                      .dwcfi  save_reg_to_mem, 91, -1
    1794 0004bc 4EF7          AADD #-9, SP
    1795                      .dwcfi  cfa_offset, 10
    1796              $C$DW$169       .dwtag  DW_TAG_variable, DW_AT_name("xTask")
    1797                      .dwattr $C$DW$169, DW_AT_TI_symbol_name("_xTask")
    1798                      .dwattr $C$DW$169, DW_AT_type(*$C$DW$T$70)
    1799                      .dwattr $C$DW$169, DW_AT_location[DW_OP_bregx 0x24 0]
    1800              $C$DW$170       .dwtag  DW_TAG_variable, DW_AT_name("uxNewPriority")
    1801                      .dwattr $C$DW$170, DW_AT_TI_symbol_name("_uxNewPriority")
    1802                      .dwattr $C$DW$170, DW_AT_type(*$C$DW$T$25)
    1803                      .dwattr $C$DW$170, DW_AT_location[DW_OP_bregx 0x24 2]
    1804              $C$DW$171       .dwtag  DW_TAG_variable, DW_AT_name("pxTCB")
    1805                      .dwattr $C$DW$171, DW_AT_TI_symbol_name("_pxTCB")
    1806                      .dwattr $C$DW$171, DW_AT_type(*$C$DW$T$82)
    1807                      .dwattr $C$DW$171, DW_AT_location[DW_OP_bregx 0x24 4]
    1808              $C$DW$172       .dwtag  DW_TAG_variable, DW_AT_name("uxCurrentBasePriority")
    1809                      .dwattr $C$DW$172, DW_AT_TI_symbol_name("_uxCurrentBasePriority")
    1810                      .dwattr $C$DW$172, DW_AT_type(*$C$DW$T$25)
    1811                      .dwattr $C$DW$172, DW_AT_location[DW_OP_bregx 0x24 6]
    1812              $C$DW$173       .dwtag  DW_TAG_variable, DW_AT_name("uxPriorityUsedOnEntry")
    1813                      .dwattr $C$DW$173, DW_AT_TI_symbol_name("_uxPriorityUsedOnEntry")
    1814                      .dwattr $C$DW$173, DW_AT_type(*$C$DW$T$25)
    1815                      .dwattr $C$DW$173, DW_AT_location[DW_OP_bregx 0x24 7]
    1816              $C$DW$174       .dwtag  DW_TAG_variable, DW_AT_name("xYieldRequired")
    1817                      .dwattr $C$DW$174, DW_AT_TI_symbol_name("_xYieldRequired")
    1818                      .dwattr $C$DW$174, DW_AT_type(*$C$DW$T$44)
    1819                      .dwattr $C$DW$174, DW_AT_location[DW_OP_bregx 0x24 8]
    1820 0004be C404          MOV T0, *SP(#2) ; |1532| 
    1821 0004c0 EB00          MOV XAR0, dbl(*SP(#0))
         0004c2 85   
    1822                      .dwpsn  file "../FreeRTOS/Source/tasks.c",line 1535,column 13,is_stmt
    1823 0004c3 E610          MOV #0, *SP(#8) ; |1535| 
TMS320C55x Assembler PC v4.4.1 Sat Sep 08 17:11:34 2018

Tools Copyright (c) 1996-2012 Texas Instruments Incorporated
tasks.asm                                                            PAGE   40

         0004c5 00   
    1824                      .dwpsn  file "../FreeRTOS/Source/tasks.c",line 1540,column 3,is_stmt
    1825              
    1826 0004c6 A904          MOV *SP(#2), AR1 ; |1540| 
    1827 0004c8 3D4A  ||      MOV #4, AR2
    1828              
    1829 0004ca 1294          CMPU AR1 < AR2, TC1 ; |1540| 
         0004cc A4   
    1830 0004cd 61E4          BCC $C$L33,TC1 ; |1540| 
    1831                                                      ; branchcc occurs ; |1540| 
    1832                      .dwpsn  file "../FreeRTOS/Source/tasks.c",line 1542,column 4,is_stmt
    1833 0004cf E604          MOV #3, *SP(#2) ; |1542| 
         0004d1 03   
    1834                      .dwpsn  file "../FreeRTOS/Source/tasks.c",line 1543,column 3,is_stmt
    1835 0004d2       $C$L33:    
    1836                      .dwpsn  file "../FreeRTOS/Source/tasks.c",line 1549,column 3,is_stmt
    1837 0004d2 20     nop
    1838 0004d3 46B3   bset INTM
    1839 0004d5 F731          ADD #1, *(#_usCriticalNesting) ; |1549| 
         0004d7 0001 
         0004d9 0000 
         0004db 00!  
    1840                      .dwpsn  file "../FreeRTOS/Source/tasks.c",line 1553,column 4,is_stmt
    1841 0004dc ED00          MOV dbl(*SP(#0)), XAR3
         0004de BF   
    1842 0004df 90B0          MOV XAR3, AC0
    1843 0004e1 6310          BCC $C$L34,AC0 != #0 ; |1553| 
    1844                                                      ; branchcc occurs ; |1553| 
    1845 0004e3 ED31          MOV dbl(*(#_pxCurrentTCB)), XAR3
         0004e5 BF00 
         0004e7 0002-
    1846 0004e9       $C$L34:    
    1847 0004e9 EB08          MOV XAR3, dbl(*SP(#4))
         0004eb B5   
    1848                      .dwpsn  file "../FreeRTOS/Source/tasks.c",line 1563,column 5,is_stmt
    1849 0004ec A96D          MOV *AR3(#24), AR1 ; |1563| 
         0004ee 0018 
    1850 0004f0 C90C          MOV AR1, *SP(#6) ; |1563| 
    1851                      .dwpsn  file "../FreeRTOS/Source/tasks.c",line 1567,column 4,is_stmt
    1852 0004f2 AA0C          MOV *SP(#6), AR2 ; |1567| 
    1853 0004f4 A904          MOV *SP(#2), AR1 ; |1567| 
    1854 0004f6 12A0          CMPU AR2 == AR1, TC1 ; |1567| 
         0004f8 94   
    1855 0004f9 6D64          BCC $C$L44,TC1 ; |1567| 
         0004fb 00E1 
    1856                                                      ; branchcc occurs ; |1567| 
    1857                      .dwpsn  file "../FreeRTOS/Source/tasks.c",line 1571,column 5,is_stmt
    1858              
    1859 0004fd AA04          MOV *SP(#2), AR2 ; |1571| 
    1860 0004ff 23A9  ||      MOV AR2, AR1
    1861              
    1862 000501 1298          CMPU AR2 <= AR1, TC1 ; |1571| 
         000503 A4   
    1863 000504 0464          BCC $C$L35,TC1 ; |1571| 
         000506 28   
TMS320C55x Assembler PC v4.4.1 Sat Sep 08 17:11:34 2018

Tools Copyright (c) 1996-2012 Texas Instruments Incorporated
tasks.asm                                                            PAGE   41

    1864                                                      ; branchcc occurs ; |1571| 
    1865                      .dwpsn  file "../FreeRTOS/Source/tasks.c",line 1573,column 6,is_stmt
    1866 000507 ED31          MOV dbl(*(#_pxCurrentTCB)), XAR3
         000509 BF00 
         00050b 0002-
    1867 00050d 90B0          MOV XAR3, AC0
    1868 00050f ED08          MOV dbl(*SP(#4)), XAR3
         000511 BF   
    1869 000512 90B1          MOV XAR3, AC1
    1870 000514 1210          CMPU AC1 == AC0, TC1 ; |1573| 
         000516 04   
    1871 000517 0464          BCC $C$L36,TC1 ; |1573| 
         000519 2A   
    1872                                                      ; branchcc occurs ; |1573| 
    1873                      .dwpsn  file "../FreeRTOS/Source/tasks.c",line 1578,column 7,is_stmt
    1874 00051a ED31          MOV dbl(*(#_pxCurrentTCB)), XAR3
         00051c BF00 
         00051e 0002-
    1875 000520 A96D          MOV *AR3(#24), AR1 ; |1578| 
         000522 0018 
    1876 000524 12A4          CMPU AR2 < AR1, TC1 ; |1578| 
         000526 94   
    1877 000527 0464          BCC $C$L36,TC1 ; |1578| 
         000529 1A   
    1878                                                      ; branchcc occurs ; |1578| 
    1879                      .dwpsn  file "../FreeRTOS/Source/tasks.c",line 1580,column 8,is_stmt
    1880 00052a E610          MOV #1, *SP(#8) ; |1580| 
         00052c 01   
    1881                      .dwpsn  file "../FreeRTOS/Source/tasks.c",line 1581,column 7,is_stmt
    1882 00052d 4A15          B $C$L36  ; |1581| 
    1883                                                      ; branch occurs ; |1581| 
    1884 00052f       $C$L35:    
    1885                      .dwpsn  file "../FreeRTOS/Source/tasks.c",line 1594,column 10,is_stmt
    1886 00052f ED31          MOV dbl(*(#_pxCurrentTCB)), XAR3
         000531 BF00 
         000533 0002-
    1887 000535 90B0          MOV XAR3, AC0
    1888 000537 ED08          MOV dbl(*SP(#4)), XAR3
         000539 BF   
    1889 00053a 90B1          MOV XAR3, AC1
    1890 00053c 121C          CMPU AC1 != AC0, TC1 ; |1594| 
         00053e 04   
    1891 00053f 61E4          BCC $C$L36,TC1 ; |1594| 
    1892                                                      ; branchcc occurs ; |1594| 
    1893                      .dwpsn  file "../FreeRTOS/Source/tasks.c",line 1599,column 6,is_stmt
    1894 000541 E610          MOV #1, *SP(#8) ; |1599| 
         000543 01   
    1895                      .dwpsn  file "../FreeRTOS/Source/tasks.c",line 1600,column 5,is_stmt
    1896 000544       $C$L36:    
    1897                      .dwpsn  file "../FreeRTOS/Source/tasks.c",line 1611,column 5,is_stmt
    1898 000544 ED08          MOV dbl(*SP(#4)), XAR3
         000546 BF   
    1899 000547 A96D          MOV *AR3(#24), AR1 ; |1611| 
         000549 0018 
    1900 00054b C90E          MOV AR1, *SP(#7) ; |1611| 
TMS320C55x Assembler PC v4.4.1 Sat Sep 08 17:11:34 2018

Tools Copyright (c) 1996-2012 Texas Instruments Incorporated
tasks.asm                                                            PAGE   42

    1901                      .dwpsn  file "../FreeRTOS/Source/tasks.c",line 1631,column 6,is_stmt
    1902 00054d ED08          MOV dbl(*SP(#4)), XAR3
         00054f BF   
    1903 000550 A904          MOV *SP(#2), AR1 ; |1631| 
    1904 000552 C96D          MOV AR1, *AR3(#24) ; |1631| 
         000554 0018 
    1905                      .dwpsn  file "../FreeRTOS/Source/tasks.c",line 1637,column 5,is_stmt
    1906 000556 ED08          MOV dbl(*SP(#4)), XAR3
         000558 BF   
    1907 000559 A96D          MOV *AR3(#14), AR1 ; |1637| 
         00055b 000E 
    1908 00055d 7D80          AND #0x8000, AR1, AR1 ; |1637| 
         00055f 0099 
    1909 000561 6499          BCC $C$L37,AR1 != #0 ; |1637| 
    1910                                                      ; branchcc occurs ; |1637| 
    1911                      .dwpsn  file "../FreeRTOS/Source/tasks.c",line 1639,column 6,is_stmt
    1912 000563 3C40          MOV #4, AC0
    1913 000565 DF04          SUB uns(*SP(#2)), AC0, AC0 ; |1639| 
         000567 0F   
    1914 000568 C06D          MOV AC0, *AR3(#14) ; |1639| 
         00056a 000E 
    1915                      .dwpsn  file "../FreeRTOS/Source/tasks.c",line 1640,column 5,is_stmt
    1916 00056c       $C$L37:    
    1917                      .dwpsn  file "../FreeRTOS/Source/tasks.c",line 1650,column 5,is_stmt
    1918 00056c F80E          MPYMK *SP(#7), #10, AC1 ; |1650| 
         00056e 0A10 
    1919 000570 2219          MOV AC1, AR1 ; |1650| 
    1920 000572 EC31          AMOV #_pxReadyTasksLists, XAR3 ; |1650| 
         000574 BE00 
         000576 0004-
    1921 000578 1490          AADD AR1, AR3 ; |1650| 
         00057a B0   
    1922 00057b 90B0          MOV XAR3, AC0
    1923 00057d ED08          MOV dbl(*SP(#4)), XAR3
         00057f BF   
    1924 000580 ED6D          MOV dbl(*AR3(#12)), XAR3
         000582 BF00 
         000584 0C   
    1925 000585 90B1          MOV XAR3, AC1
    1926 000587 121C          CMPU AC1 != AC0, TC1 ; |1650| 
         000589 04   
    1927 00058a 6264          BCC $C$L38,TC1 ; |1650| 
    1928                                                      ; branchcc occurs ; |1650| 
    1929 00058c 3C19          MOV #1, AR1
    1930 00058e 4A02          B $C$L39  ; |1650| 
    1931                                                      ; branch occurs ; |1650| 
    1932 000590       $C$L38:    
    1933 000590 3C09          MOV #0, AR1
    1934 000592       $C$L39:    
    1935 000592 0409          BCC $C$L42,AR1 == #0 ; |1650| 
         000594 41   
    1936                                                      ; branchcc occurs ; |1650| 
    1937                      .dwpsn  file "../FreeRTOS/Source/tasks.c",line 1655,column 6,is_stmt
    1938 000595 ED08          MOV dbl(*SP(#4)), XAR0
         000597 8F   
TMS320C55x Assembler PC v4.4.1 Sat Sep 08 17:11:34 2018

Tools Copyright (c) 1996-2012 Texas Instruments Incorporated
tasks.asm                                                            PAGE   43

    1939 000598 1404          AADD #4, AR0 ; |1655| 
         00059a 84   
    1940              $C$DW$175       .dwtag  DW_TAG_TI_branch
    1941                      .dwattr $C$DW$175, DW_AT_low_pc(0x00)
    1942                      .dwattr $C$DW$175, DW_AT_name("_uxListRemove")
    1943                      .dwattr $C$DW$175, DW_AT_TI_call
    1944 00059b 6C00          CALL #_uxListRemove ; |1655| 
         00059d 0000!
    1945                                                      ; call occurs [#_uxListRemove] ; |1655| 
    1946 00059f 6004          BCC $C$L40,T0 == #0 ; |1655| 
    1947                                                      ; branchcc occurs ; |1655| 
    1948                      .dwpsn  file "../FreeRTOS/Source/tasks.c",line 1661,column 6,is_stmt
    1949 0005a1       $C$L40:    
    1950                      .dwpsn  file "../FreeRTOS/Source/tasks.c",line 1666,column 6,is_stmt
    1951 0005a1 ED08          MOV dbl(*SP(#4)), XAR3
         0005a3 BF   
    1952 0005a4 A931          MOV *(#_uxTopReadyPriority), AR1 ; |1666| 
         0005a6 0000 
         0005a8 65-  
    1953 0005a9 AA6D          MOV *AR3(#24), AR2 ; |1666| 
         0005ab 0018 
    1954 0005ad 1298          CMPU AR2 <= AR1, TC1 ; |1666| 
         0005af A4   
    1955 0005b0 64E4          BCC $C$L41,TC1 ; |1666| 
    1956                                                      ; branchcc occurs ; |1666| 
    1957 0005b2 A96D          MOV *AR3(#24), AR1 ; |1666| 
         0005b4 0018 
    1958 0005b6 C931          MOV AR1, *(#_uxTopReadyPriority) ; |1666| 
         0005b8 0000 
         0005ba 65-  
    1959 0005bb       $C$L41:    
    1960 0005bb F86D          MPYMK *AR3(#24), #10, AC0 ; |1666| 
         0005bd 0A00 
         0005bf 0018 
    1961 0005c1 2209          MOV AC0, AR1 ; |1666| 
    1962 0005c3 EC31          AMOV #_pxReadyTasksLists, XAR0 ; |1666| 
         0005c5 8E00 
         0005c7 0004-
    1963 0005c9 1490          AADD AR1, AR0 ; |1666| 
         0005cb 80   
    1964 0005cc ED08          MOV dbl(*SP(#4)), XAR1
         0005ce 9F   
    1965 0005cf 1404          AADD #4, AR1 ; |1666| 
         0005d1 94   
    1966              $C$DW$176       .dwtag  DW_TAG_TI_branch
    1967                      .dwattr $C$DW$176, DW_AT_low_pc(0x00)
    1968                      .dwattr $C$DW$176, DW_AT_name("_vListInsertEnd")
    1969                      .dwattr $C$DW$176, DW_AT_TI_call
    1970 0005d2 6C00          CALL #_vListInsertEnd ; |1666| 
         0005d4 0000!
    1971                                                      ; call occurs [#_vListInsertEnd] ; |1666| 
    1972                      .dwpsn  file "../FreeRTOS/Source/tasks.c",line 1667,column 5,is_stmt
    1973 0005d6       $C$L42:    
    1974                      .dwpsn  file "../FreeRTOS/Source/tasks.c",line 1673,column 5,is_stmt
    1975 0005d6 A910          MOV *SP(#8), AR1 ; |1673| 
TMS320C55x Assembler PC v4.4.1 Sat Sep 08 17:11:34 2018

Tools Copyright (c) 1996-2012 Texas Instruments Incorporated
tasks.asm                                                            PAGE   44

    1976 0005d8 6209          BCC $C$L43,AR1 == #0 ; |1673| 
    1977                                                      ; branchcc occurs ; |1673| 
    1978                      .dwpsn  file "../FreeRTOS/Source/tasks.c",line 1675,column 6,is_stmt
    1979              $C$DW$177       .dwtag  DW_TAG_TI_branch
    1980                      .dwattr $C$DW$177, DW_AT_low_pc(0x00)
    1981                      .dwattr $C$DW$177, DW_AT_name("_vPortYield")
    1982                      .dwattr $C$DW$177, DW_AT_TI_call
    1983 0005da 6C00          CALL #_vPortYield ; |1675| 
         0005dc 0000!
    1984                                                      ; call occurs [#_vPortYield] ; |1675| 
    1985                      .dwpsn  file "../FreeRTOS/Source/tasks.c",line 1676,column 5,is_stmt
    1986 0005de       $C$L43:    
    1987                      .dwpsn  file "../FreeRTOS/Source/tasks.c",line 1684,column 5,is_stmt
    1988 0005de       $C$L44:    
    1989                      .dwpsn  file "../FreeRTOS/Source/tasks.c",line 1687,column 3,is_stmt
    1990 0005de A931          MOV *(#_usCriticalNesting), AR1 ; |1687| 
         0005e0 0000 
         0005e2 00!  
    1991 0005e3 0409          BCC $C$L45,AR1 == #0 ; |1687| 
         0005e5 14   
    1992                                                      ; branchcc occurs ; |1687| 
    1993 0005e6 F731          SUB #1, *(#_usCriticalNesting) ; |1687| 
         0005e8 FFFF 
         0005ea 0000 
         0005ec 00!  
    1994 0005ed 20            NOP
    1995 0005ee 20            NOP
    1996 0005ef 20            NOP
    1997 0005f0 A931          MOV *(#_usCriticalNesting), AR1 ; |1687| 
         0005f2 0000 
         0005f4 00!  
    1998 0005f5 6199          BCC $C$L45,AR1 != #0 ; |1687| 
    1999                                                      ; branchcc occurs ; |1687| 
    2000 0005f7 20     nop
    2001 0005f8 46B2   bclr INTM
    2002                      .dwpsn  file "../FreeRTOS/Source/tasks.c",line 1688,column 2,is_stmt
    2003 0005fa       $C$L45:    
    2004 0005fa 4E09          AADD #9, SP
    2005                      .dwcfi  cfa_offset, 1
    2006              $C$DW$178       .dwtag  DW_TAG_TI_branch
    2007                      .dwattr $C$DW$178, DW_AT_low_pc(0x00)
    2008                      .dwattr $C$DW$178, DW_AT_TI_return
    2009 0005fc 4804          RET
    2010                                                      ; return occurs
    2011                      .dwattr $C$DW$166, DW_AT_TI_end_file("../FreeRTOS/Source/tasks.c")
    2012                      .dwattr $C$DW$166, DW_AT_TI_end_line(0x698)
    2013                      .dwattr $C$DW$166, DW_AT_TI_end_column(0x02)
    2014                      .dwendentry
    2015                      .dwendtag $C$DW$166
    2016              
    2017 0005fe               .sect   ".text"
    2018                      .align 4
    2019                      .global _vTaskSuspend
    2020              
    2021              $C$DW$179       .dwtag  DW_TAG_subprogram, DW_AT_name("vTaskSuspend")
TMS320C55x Assembler PC v4.4.1 Sat Sep 08 17:11:34 2018

Tools Copyright (c) 1996-2012 Texas Instruments Incorporated
tasks.asm                                                            PAGE   45

    2022                      .dwattr $C$DW$179, DW_AT_low_pc(_vTaskSuspend)
    2023                      .dwattr $C$DW$179, DW_AT_high_pc(0x00)
    2024                      .dwattr $C$DW$179, DW_AT_TI_symbol_name("_vTaskSuspend")
    2025                      .dwattr $C$DW$179, DW_AT_external
    2026                      .dwattr $C$DW$179, DW_AT_TI_begin_file("../FreeRTOS/Source/tasks.c")
    2027                      .dwattr $C$DW$179, DW_AT_TI_begin_line(0x69f)
    2028                      .dwattr $C$DW$179, DW_AT_TI_begin_column(0x07)
    2029                      .dwattr $C$DW$179, DW_AT_TI_max_frame_size(0x06)
    2030                      .dwpsn  file "../FreeRTOS/Source/tasks.c",line 1696,column 2,is_stmt,address _vTaskSuspend
    2031              
    2032                      .dwfde $C$DW$CIE, _vTaskSuspend
    2033              $C$DW$180       .dwtag  DW_TAG_formal_parameter, DW_AT_name("xTaskToSuspend")
    2034                      .dwattr $C$DW$180, DW_AT_TI_symbol_name("_xTaskToSuspend")
    2035                      .dwattr $C$DW$180, DW_AT_type(*$C$DW$T$70)
    2036                      .dwattr $C$DW$180, DW_AT_location[DW_OP_reg17]
    2037              ;*******************************************************************************
    2038              ;* FUNCTION NAME: vTaskSuspend                                                 *
    2039              ;*                                                                             *
    2040              ;*   Function Uses Regs : AC0,AC0,AC1,AC1,T0,AR0,XAR0,AR1,XAR1,AR2,AR3,XAR3,SP,*
    2041              ;*                        CARRY,TC1,M40,SATA,SATD,RDM,FRCT,SMUL                *
    2042              ;*   Stack Frame        : Compact (No Frame Pointer, w/ debug)                 *
    2043              ;*   Total Frame Size   : 6 words                                              *
    2044              ;*                        (2 return address/alignment)                         *
    2045              ;*                        (4 local values)                                     *
    2046              ;*   Min System Stack   : 1 word                                               *
    2047              ;*******************************************************************************
    2048 000600       _vTaskSuspend:
    2049                      .dwcfi  cfa_offset, 1
    2050                      .dwcfi  save_reg_to_mem, 91, -1
    2051 000600 4EFB          AADD #-5, SP
    2052                      .dwcfi  cfa_offset, 6
    2053              $C$DW$181       .dwtag  DW_TAG_variable, DW_AT_name("xTaskToSuspend")
    2054                      .dwattr $C$DW$181, DW_AT_TI_symbol_name("_xTaskToSuspend")
    2055                      .dwattr $C$DW$181, DW_AT_type(*$C$DW$T$70)
    2056                      .dwattr $C$DW$181, DW_AT_location[DW_OP_bregx 0x24 0]
    2057              $C$DW$182       .dwtag  DW_TAG_variable, DW_AT_name("pxTCB")
    2058                      .dwattr $C$DW$182, DW_AT_TI_symbol_name("_pxTCB")
    2059                      .dwattr $C$DW$182, DW_AT_type(*$C$DW$T$82)
    2060                      .dwattr $C$DW$182, DW_AT_location[DW_OP_bregx 0x24 2]
    2061 000602 EB00          MOV XAR0, dbl(*SP(#0))
         000604 85   
    2062                      .dwpsn  file "../FreeRTOS/Source/tasks.c",line 1699,column 3,is_stmt
    2063 000605 20     nop
    2064 000606 46B3   bset INTM
    2065 000608 F731          ADD #1, *(#_usCriticalNesting) ; |1699| 
         00060a 0001 
         00060c 0000 
         00060e 00!  
    2066                      .dwpsn  file "../FreeRTOS/Source/tasks.c",line 1703,column 4,is_stmt
    2067 00060f ED00          MOV dbl(*SP(#0)), XAR3
         000611 BF   
    2068 000612 90B0          MOV XAR3, AC0
    2069 000614 6310          BCC $C$L46,AC0 != #0 ; |1703| 
    2070                                                      ; branchcc occurs ; |1703| 
    2071 000616 ED31          MOV dbl(*(#_pxCurrentTCB)), XAR3
TMS320C55x Assembler PC v4.4.1 Sat Sep 08 17:11:34 2018

Tools Copyright (c) 1996-2012 Texas Instruments Incorporated
tasks.asm                                                            PAGE   46

         000618 BF00 
         00061a 0002-
    2072 00061c       $C$L46:    
    2073 00061c EB04          MOV XAR3, dbl(*SP(#2))
         00061e B5   
    2074                      .dwpsn  file "../FreeRTOS/Source/tasks.c",line 1709,column 4,is_stmt
    2075 00061f ED04          MOV dbl(*SP(#2)), XAR0
         000621 8F   
    2076 000622 1404          AADD #4, AR0 ; |1709| 
         000624 84   
    2077              $C$DW$183       .dwtag  DW_TAG_TI_branch
    2078                      .dwattr $C$DW$183, DW_AT_low_pc(0x00)
    2079                      .dwattr $C$DW$183, DW_AT_name("_uxListRemove")
    2080                      .dwattr $C$DW$183, DW_AT_TI_call
    2081 000625 6C00          CALL #_uxListRemove ; |1709| 
         000627 0000!
    2082                                                      ; call occurs [#_uxListRemove] ; |1709| 
    2083 000629 6004          BCC $C$L47,T0 == #0 ; |1709| 
    2084                                                      ; branchcc occurs ; |1709| 
    2085                      .dwpsn  file "../FreeRTOS/Source/tasks.c",line 1712,column 4,is_stmt
    2086 00062b       $C$L47:    
    2087                      .dwpsn  file "../FreeRTOS/Source/tasks.c",line 1719,column 4,is_stmt
    2088 00062b ED04          MOV dbl(*SP(#2)), XAR3
         00062d BF   
    2089 00062e ED6D          MOV dbl(*AR3(#22)), XAR3
         000630 BF00 
         000632 16   
    2090 000633 90B0          MOV XAR3, AC0
    2091 000635 6500          BCC $C$L48,AC0 == #0 ; |1719| 
    2092                                                      ; branchcc occurs ; |1719| 
    2093                      .dwpsn  file "../FreeRTOS/Source/tasks.c",line 1721,column 5,is_stmt
    2094 000637 ED04          MOV dbl(*SP(#2)), XAR0
         000639 8F   
    2095 00063a 140E          AADD #14, AR0 ; |1721| 
         00063c 84   
    2096              $C$DW$184       .dwtag  DW_TAG_TI_branch
    2097                      .dwattr $C$DW$184, DW_AT_low_pc(0x00)
    2098                      .dwattr $C$DW$184, DW_AT_name("_uxListRemove")
    2099                      .dwattr $C$DW$184, DW_AT_TI_call
    2100 00063d 6C00          CALL #_uxListRemove ; |1721| 
         00063f 0000!
    2101                                                      ; call occurs [#_uxListRemove] ; |1721| 
    2102                      .dwpsn  file "../FreeRTOS/Source/tasks.c",line 1722,column 4,is_stmt
    2103 000641       $C$L48:    
    2104                      .dwpsn  file "../FreeRTOS/Source/tasks.c",line 1728,column 4,is_stmt
    2105 000641 ED04          MOV dbl(*SP(#2)), XAR1
         000643 9F   
    2106 000644 EC31          AMOV #_xSuspendedTaskList, XAR0 ; |1728| 
         000646 8E00 
         000648 005A-
    2107 00064a 1404          AADD #4, AR1 ; |1728| 
         00064c 94   
    2108              $C$DW$185       .dwtag  DW_TAG_TI_branch
    2109                      .dwattr $C$DW$185, DW_AT_low_pc(0x00)
    2110                      .dwattr $C$DW$185, DW_AT_name("_vListInsertEnd")
TMS320C55x Assembler PC v4.4.1 Sat Sep 08 17:11:34 2018

Tools Copyright (c) 1996-2012 Texas Instruments Incorporated
tasks.asm                                                            PAGE   47

    2111                      .dwattr $C$DW$185, DW_AT_TI_call
    2112 00064d 6C00          CALL #_vListInsertEnd ; |1728| 
         00064f 0000!
    2113                                                      ; call occurs [#_vListInsertEnd] ; |1728| 
    2114                      .dwpsn  file "../FreeRTOS/Source/tasks.c",line 1732,column 5,is_stmt
    2115 000651 ED04          MOV dbl(*SP(#2)), XAR3
         000653 BF   
    2116 000654 F06D          CMP *AR3(#44) == #1, TC1 ; |1732| 
         000656 0001 
         000658 002C 
    2117 00065a 62F4          BCC $C$L49,!TC1 ; |1732| 
    2118                                                      ; branchcc occurs ; |1732| 
    2119                      .dwpsn  file "../FreeRTOS/Source/tasks.c",line 1736,column 6,is_stmt
    2120 00065c E66D          MOV #0, *AR3(#44) ; |1736| 
         00065e 0000 
         000660 2C   
    2121 000661       $C$L49:    
    2122                      .dwpsn  file "../FreeRTOS/Source/tasks.c",line 1741,column 3,is_stmt
    2123 000661 A931          MOV *(#_usCriticalNesting), AR1 ; |1741| 
         000663 0000 
         000665 00!  
    2124 000666 0409          BCC $C$L50,AR1 == #0 ; |1741| 
         000668 14   
    2125                                                      ; branchcc occurs ; |1741| 
    2126 000669 F731          SUB #1, *(#_usCriticalNesting) ; |1741| 
         00066b FFFF 
         00066d 0000 
         00066f 00!  
    2127 000670 20            NOP
    2128 000671 20            NOP
    2129 000672 20            NOP
    2130 000673 A931          MOV *(#_usCriticalNesting), AR1 ; |1741| 
         000675 0000 
         000677 00!  
    2131 000678 6199          BCC $C$L50,AR1 != #0 ; |1741| 
    2132                                                      ; branchcc occurs ; |1741| 
    2133 00067a 20     nop
    2134 00067b 46B2   bclr INTM
    2135 00067d       $C$L50:    
    2136                      .dwpsn  file "../FreeRTOS/Source/tasks.c",line 1743,column 3,is_stmt
    2137 00067d A931          MOV *(#_xSchedulerRunning), AR1 ; |1743| 
         00067f 0000 
         000681 66-  
    2138 000682 0409          BCC $C$L51,AR1 == #0 ; |1743| 
         000684 29   
    2139                                                      ; branchcc occurs ; |1743| 
    2140                      .dwpsn  file "../FreeRTOS/Source/tasks.c",line 1747,column 4,is_stmt
    2141 000685 20     nop
    2142 000686 46B3   bset INTM
    2143 000688 F731          ADD #1, *(#_usCriticalNesting) ; |1747| 
         00068a 0001 
         00068c 0000 
         00068e 00!  
    2144                      .dwpsn  file "../FreeRTOS/Source/tasks.c",line 1749,column 5,is_stmt
    2145              $C$DW$186       .dwtag  DW_TAG_TI_branch
TMS320C55x Assembler PC v4.4.1 Sat Sep 08 17:11:34 2018

Tools Copyright (c) 1996-2012 Texas Instruments Incorporated
tasks.asm                                                            PAGE   48

    2146                      .dwattr $C$DW$186, DW_AT_low_pc(0x00)
    2147                      .dwattr $C$DW$186, DW_AT_name("_prvResetNextTaskUnblockTime")
    2148                      .dwattr $C$DW$186, DW_AT_TI_call
    2149 00068f 080A          CALL #_prvResetNextTaskUnblockTime ; |1749| 
         000691 66   
    2150                                                      ; call occurs [#_prvResetNextTaskUnblockTime] ; |1749| 
    2151                      .dwpsn  file "../FreeRTOS/Source/tasks.c",line 1751,column 4,is_stmt
    2152 000692 A931          MOV *(#_usCriticalNesting), AR1 ; |1751| 
         000694 0000 
         000696 00!  
    2153 000697 0409          BCC $C$L51,AR1 == #0 ; |1751| 
         000699 14   
    2154                                                      ; branchcc occurs ; |1751| 
    2155 00069a F731          SUB #1, *(#_usCriticalNesting) ; |1751| 
         00069c FFFF 
         00069e 0000 
         0006a0 00!  
    2156 0006a1 20            NOP
    2157 0006a2 20            NOP
    2158 0006a3 20            NOP
    2159 0006a4 A931          MOV *(#_usCriticalNesting), AR1 ; |1751| 
         0006a6 0000 
         0006a8 00!  
    2160 0006a9 6199          BCC $C$L51,AR1 != #0 ; |1751| 
    2161                                                      ; branchcc occurs ; |1751| 
    2162 0006ab 20     nop
    2163 0006ac 46B2   bclr INTM
    2164                      .dwpsn  file "../FreeRTOS/Source/tasks.c",line 1752,column 3,is_stmt
    2165 0006ae       $C$L51:    
    2166                      .dwpsn  file "../FreeRTOS/Source/tasks.c",line 1758,column 3,is_stmt
    2167 0006ae ED31          MOV dbl(*(#_pxCurrentTCB)), XAR3
         0006b0 BF00 
         0006b2 0002-
    2168 0006b4 90B0          MOV XAR3, AC0
    2169 0006b6 ED04          MOV dbl(*SP(#2)), XAR3
         0006b8 BF   
    2170 0006b9 90B1          MOV XAR3, AC1
    2171 0006bb 121C          CMPU AC1 != AC0, TC1 ; |1758| 
         0006bd 04   
    2172 0006be 0464          BCC $C$L54,TC1 ; |1758| 
         0006c0 2B   
    2173                                                      ; branchcc occurs ; |1758| 
    2174                      .dwpsn  file "../FreeRTOS/Source/tasks.c",line 1760,column 4,is_stmt
    2175 0006c1 A931          MOV *(#_xSchedulerRunning), AR1 ; |1760| 
         0006c3 0000 
         0006c5 66-  
    2176 0006c6 6309          BCC $C$L52,AR1 == #0 ; |1760| 
    2177                                                      ; branchcc occurs ; |1760| 
    2178                      .dwpsn  file "../FreeRTOS/Source/tasks.c",line 1764,column 5,is_stmt
    2179              $C$DW$187       .dwtag  DW_TAG_TI_branch
    2180                      .dwattr $C$DW$187, DW_AT_low_pc(0x00)
    2181                      .dwattr $C$DW$187, DW_AT_name("_vPortYield")
    2182                      .dwattr $C$DW$187, DW_AT_TI_call
    2183 0006c8 6C00          CALL #_vPortYield ; |1764| 
         0006ca 0000!
TMS320C55x Assembler PC v4.4.1 Sat Sep 08 17:11:34 2018

Tools Copyright (c) 1996-2012 Texas Instruments Incorporated
tasks.asm                                                            PAGE   49

    2184                                                      ; call occurs [#_vPortYield] ; |1764| 
    2185                      .dwpsn  file "../FreeRTOS/Source/tasks.c",line 1765,column 4,is_stmt
    2186 0006cc 4A1E          B $C$L54  ; |1765| 
    2187                                                      ; branch occurs ; |1765| 
    2188 0006ce       $C$L52:    
    2189                      .dwpsn  file "../FreeRTOS/Source/tasks.c",line 1771,column 5,is_stmt
    2190 0006ce A931          MOV *(#_uxCurrentNumberOfTasks), AR1 ; |1771| 
         0006d0 0000 
         0006d2 59-  
    2191 0006d3 AA31          MOV *(#_xSuspendedTaskList), AR2 ; |1771| 
         0006d5 0000 
         0006d7 5A-  
    2192 0006d8 12AC          CMPU AR2 != AR1, TC1 ; |1771| 
         0006da 94   
    2193 0006db 6564          BCC $C$L53,TC1 ; |1771| 
    2194                                                      ; branchcc occurs ; |1771| 
    2195                      .dwpsn  file "../FreeRTOS/Source/tasks.c",line 1777,column 6,is_stmt
    2196 0006dd 3C00          MOV #0, AC0 ; |1777| 
    2197 0006df EB31          MOV AC0, dbl(*(#_pxCurrentTCB))
         0006e1 0800 
         0006e3 0002-
    2198                      .dwpsn  file "../FreeRTOS/Source/tasks.c",line 1778,column 5,is_stmt
    2199 0006e5 4A05          B $C$L54  ; |1778| 
    2200                                                      ; branch occurs ; |1778| 
    2201 0006e7       $C$L53:    
    2202                      .dwpsn  file "../FreeRTOS/Source/tasks.c",line 1781,column 6,is_stmt
    2203              $C$DW$188       .dwtag  DW_TAG_TI_branch
    2204                      .dwattr $C$DW$188, DW_AT_low_pc(0x00)
    2205                      .dwattr $C$DW$188, DW_AT_name("_vTaskSwitchContext")
    2206                      .dwattr $C$DW$188, DW_AT_TI_call
    2207 0006e7 0804          CALL #_vTaskSwitchContext ; |1781| 
         0006e9 FA   
    2208                                                      ; call occurs [#_vTaskSwitchContext] ; |1781| 
    2209                      .dwpsn  file "../FreeRTOS/Source/tasks.c",line 1784,column 3,is_stmt
    2210 0006ea 4A00          B $C$L54  ; |1784| 
    2211                                                      ; branch occurs ; |1784| 
    2212 0006ec       $C$L54:    
    2213 0006ec 4E05          AADD #5, SP
    2214                      .dwcfi  cfa_offset, 1
    2215              $C$DW$189       .dwtag  DW_TAG_TI_branch
    2216                      .dwattr $C$DW$189, DW_AT_low_pc(0x00)
    2217                      .dwattr $C$DW$189, DW_AT_TI_return
    2218 0006ee 4804          RET
    2219                                                      ; return occurs
    2220                      .dwattr $C$DW$179, DW_AT_TI_end_file("../FreeRTOS/Source/tasks.c")
    2221                      .dwattr $C$DW$179, DW_AT_TI_end_line(0x6fd)
    2222                      .dwattr $C$DW$179, DW_AT_TI_end_column(0x02)
    2223                      .dwendentry
    2224                      .dwendtag $C$DW$179
    2225              
    2226 0006f0               .sect   ".text"
    2227                      .align 4
    2228              
    2229              $C$DW$190       .dwtag  DW_TAG_subprogram, DW_AT_name("prvTaskIsTaskSuspended")
    2230                      .dwattr $C$DW$190, DW_AT_low_pc(_prvTaskIsTaskSuspended)
TMS320C55x Assembler PC v4.4.1 Sat Sep 08 17:11:34 2018

Tools Copyright (c) 1996-2012 Texas Instruments Incorporated
tasks.asm                                                            PAGE   50

    2231                      .dwattr $C$DW$190, DW_AT_high_pc(0x00)
    2232                      .dwattr $C$DW$190, DW_AT_TI_symbol_name("_prvTaskIsTaskSuspended")
    2233                      .dwattr $C$DW$190, DW_AT_type(*$C$DW$T$44)
    2234                      .dwattr $C$DW$190, DW_AT_TI_begin_file("../FreeRTOS/Source/tasks.c")
    2235                      .dwattr $C$DW$190, DW_AT_TI_begin_line(0x704)
    2236                      .dwattr $C$DW$190, DW_AT_TI_begin_column(0x14)
    2237                      .dwattr $C$DW$190, DW_AT_TI_max_frame_size(0x08)
    2238                      .dwpsn  file "../FreeRTOS/Source/tasks.c",line 1797,column 2,is_stmt,address _prvTaskIsTaskSuspended
    2239              
    2240                      .dwfde $C$DW$CIE, _prvTaskIsTaskSuspended
    2241              $C$DW$191       .dwtag  DW_TAG_formal_parameter, DW_AT_name("xTask")
    2242                      .dwattr $C$DW$191, DW_AT_TI_symbol_name("_xTask")
    2243                      .dwattr $C$DW$191, DW_AT_type(*$C$DW$T$121)
    2244                      .dwattr $C$DW$191, DW_AT_location[DW_OP_reg17]
    2245              ;*******************************************************************************
    2246              ;* FUNCTION NAME: prvTaskIsTaskSuspended                                       *
    2247              ;*                                                                             *
    2248              ;*   Function Uses Regs : AC0,AC0,AC1,AC1,T0,AR0,XAR0,AR1,AR3,XAR3,SP,TC1,M40, *
    2249              ;*                        SATA,SATD,RDM,FRCT,SMUL                              *
    2250              ;*   Stack Frame        : Compact (No Frame Pointer, w/ debug)                 *
    2251              ;*   Total Frame Size   : 8 words                                              *
    2252              ;*                        (2 return address/alignment)                         *
    2253              ;*                        (6 local values)                                     *
    2254              ;*   Min System Stack   : 1 word                                               *
    2255              ;*******************************************************************************
    2256 0006f0       _prvTaskIsTaskSuspended:
    2257                      .dwcfi  cfa_offset, 1
    2258                      .dwcfi  save_reg_to_mem, 91, -1
    2259 0006f0 4EF9          AADD #-7, SP
    2260                      .dwcfi  cfa_offset, 8
    2261              $C$DW$192       .dwtag  DW_TAG_variable, DW_AT_name("xTask")
    2262                      .dwattr $C$DW$192, DW_AT_TI_symbol_name("_xTask")
    2263                      .dwattr $C$DW$192, DW_AT_type(*$C$DW$T$121)
    2264                      .dwattr $C$DW$192, DW_AT_location[DW_OP_bregx 0x24 0]
    2265              $C$DW$193       .dwtag  DW_TAG_variable, DW_AT_name("xReturn")
    2266                      .dwattr $C$DW$193, DW_AT_TI_symbol_name("_xReturn")
    2267                      .dwattr $C$DW$193, DW_AT_type(*$C$DW$T$44)
    2268                      .dwattr $C$DW$193, DW_AT_location[DW_OP_bregx 0x24 2]
    2269              $C$DW$194       .dwtag  DW_TAG_variable, DW_AT_name("pxTCB")
    2270                      .dwattr $C$DW$194, DW_AT_TI_symbol_name("_pxTCB")
    2271                      .dwattr $C$DW$194, DW_AT_type(*$C$DW$T$157)
    2272                      .dwattr $C$DW$194, DW_AT_location[DW_OP_bregx 0x24 4]
    2273 0006f2 EB00          MOV XAR0, dbl(*SP(#0))
         0006f4 85   
    2274                      .dwpsn  file "../FreeRTOS/Source/tasks.c",line 1798,column 13,is_stmt
    2275 0006f5 E604          MOV #0, *SP(#2) ; |1798| 
         0006f7 00   
    2276                      .dwpsn  file "../FreeRTOS/Source/tasks.c",line 1799,column 22,is_stmt
    2277 0006f8 ED00          MOV dbl(*SP(#0)), XAR3
         0006fa BF   
    2278 0006fb EB08          MOV XAR3, dbl(*SP(#4))
         0006fd B5   
    2279                      .dwpsn  file "../FreeRTOS/Source/tasks.c",line 1808,column 3,is_stmt
    2280 0006fe EC31          AMOV #_xSuspendedTaskList, XAR3 ; |1808| 
         000700 BE00 
TMS320C55x Assembler PC v4.4.1 Sat Sep 08 17:11:34 2018

Tools Copyright (c) 1996-2012 Texas Instruments Incorporated
tasks.asm                                                            PAGE   51

         000702 005A-
    2281 000704 90B0          MOV XAR3, AC0
    2282 000706 ED08          MOV dbl(*SP(#4)), XAR3
         000708 BF   
    2283 000709 ED6D          MOV dbl(*AR3(#12)), XAR3
         00070b BF00 
         00070d 0C   
    2284 00070e 90B1          MOV XAR3, AC1
    2285 000710 121C          CMPU AC1 != AC0, TC1 ; |1808| 
         000712 04   
    2286 000713 6264          BCC $C$L55,TC1 ; |1808| 
    2287                                                      ; branchcc occurs ; |1808| 
    2288 000715 3C19          MOV #1, AR1
    2289 000717 4A02          B $C$L56  ; |1808| 
    2290                                                      ; branch occurs ; |1808| 
    2291 000719       $C$L55:    
    2292 000719 3C09          MOV #0, AR1
    2293 00071b       $C$L56:    
    2294 00071b 0409          BCC $C$L61,AR1 == #0 ; |1808| 
         00071d 39   
    2295                                                      ; branchcc occurs ; |1808| 
    2296                      .dwpsn  file "../FreeRTOS/Source/tasks.c",line 1811,column 4,is_stmt
    2297 00071e EC31          AMOV #_xPendingReadyList, XAR3 ; |1811| 
         000720 BE00 
         000722 0044-
    2298 000724 90B0          MOV XAR3, AC0
    2299 000726 ED08          MOV dbl(*SP(#4)), XAR3
         000728 BF   
    2300 000729 ED6D          MOV dbl(*AR3(#22)), XAR3
         00072b BF00 
         00072d 16   
    2301 00072e 90B1          MOV XAR3, AC1
    2302 000730 121C          CMPU AC1 != AC0, TC1 ; |1811| 
         000732 04   
    2303 000733 6264          BCC $C$L57,TC1 ; |1811| 
    2304                                                      ; branchcc occurs ; |1811| 
    2305 000735 3C19          MOV #1, AR1
    2306 000737 4A02          B $C$L58  ; |1811| 
    2307                                                      ; branch occurs ; |1811| 
    2308 000739       $C$L57:    
    2309 000739 3C09          MOV #0, AR1
    2310 00073b       $C$L58:    
    2311 00073b 0419          BCC $C$L61,AR1 != #0 ; |1811| 
         00073d 19   
    2312                                                      ; branchcc occurs ; |1811| 
    2313                      .dwpsn  file "../FreeRTOS/Source/tasks.c",line 1815,column 5,is_stmt
    2314 00073e ED08          MOV dbl(*SP(#4)), XAR3
         000740 BF   
    2315 000741 ED6D          MOV dbl(*AR3(#22)), XAR3
         000743 BF00 
         000745 16   
    2316 000746 90B0          MOV XAR3, AC0
    2317 000748 6210          BCC $C$L59,AC0 != #0 ; |1815| 
    2318                                                      ; branchcc occurs ; |1815| 
    2319 00074a 3C19          MOV #1, AR1
TMS320C55x Assembler PC v4.4.1 Sat Sep 08 17:11:34 2018

Tools Copyright (c) 1996-2012 Texas Instruments Incorporated
tasks.asm                                                            PAGE   52

    2320 00074c 4A02          B $C$L60  ; |1815| 
    2321                                                      ; branch occurs ; |1815| 
    2322 00074e       $C$L59:    
    2323 00074e 3C09          MOV #0, AR1
    2324 000750       $C$L60:    
    2325 000750 6289          BCC $C$L61,AR1 == #0 ; |1815| 
    2326                                                      ; branchcc occurs ; |1815| 
    2327                      .dwpsn  file "../FreeRTOS/Source/tasks.c",line 1817,column 6,is_stmt
    2328 000752 E604          MOV #1, *SP(#2) ; |1817| 
         000754 01   
    2329                      .dwpsn  file "../FreeRTOS/Source/tasks.c",line 1818,column 5,is_stmt
    2330 000755 4A00          B $C$L61  ; |1818| 
    2331                                                      ; branch occurs ; |1818| 
    2332 000757       $C$L61:    
    2333                      .dwpsn  file "../FreeRTOS/Source/tasks.c",line 1834,column 3,is_stmt
    2334 000757 A404          MOV *SP(#2), T0 ; |1834| 
    2335                      .dwpsn  file "../FreeRTOS/Source/tasks.c",line 1835,column 2,is_stmt
    2336 000759 4E07          AADD #7, SP
    2337                      .dwcfi  cfa_offset, 1
    2338              $C$DW$195       .dwtag  DW_TAG_TI_branch
    2339                      .dwattr $C$DW$195, DW_AT_low_pc(0x00)
    2340                      .dwattr $C$DW$195, DW_AT_TI_return
    2341 00075b 4804          RET
    2342                                                      ; return occurs
    2343                      .dwattr $C$DW$190, DW_AT_TI_end_file("../FreeRTOS/Source/tasks.c")
    2344                      .dwattr $C$DW$190, DW_AT_TI_end_line(0x72b)
    2345                      .dwattr $C$DW$190, DW_AT_TI_end_column(0x02)
    2346                      .dwendentry
    2347                      .dwendtag $C$DW$190
    2348              
    2349 00075d               .sect   ".text"
    2350                      .align 4
    2351                      .global _vTaskResume
    2352              
    2353              $C$DW$196       .dwtag  DW_TAG_subprogram, DW_AT_name("vTaskResume")
    2354                      .dwattr $C$DW$196, DW_AT_low_pc(_vTaskResume)
    2355                      .dwattr $C$DW$196, DW_AT_high_pc(0x00)
    2356                      .dwattr $C$DW$196, DW_AT_TI_symbol_name("_vTaskResume")
    2357                      .dwattr $C$DW$196, DW_AT_external
    2358                      .dwattr $C$DW$196, DW_AT_TI_begin_file("../FreeRTOS/Source/tasks.c")
    2359                      .dwattr $C$DW$196, DW_AT_TI_begin_line(0x732)
    2360                      .dwattr $C$DW$196, DW_AT_TI_begin_column(0x07)
    2361                      .dwattr $C$DW$196, DW_AT_TI_max_frame_size(0x06)
    2362                      .dwpsn  file "../FreeRTOS/Source/tasks.c",line 1843,column 2,is_stmt,address _vTaskResume
    2363              
    2364                      .dwfde $C$DW$CIE, _vTaskResume
    2365              $C$DW$197       .dwtag  DW_TAG_formal_parameter, DW_AT_name("xTaskToResume")
    2366                      .dwattr $C$DW$197, DW_AT_TI_symbol_name("_xTaskToResume")
    2367                      .dwattr $C$DW$197, DW_AT_type(*$C$DW$T$70)
    2368                      .dwattr $C$DW$197, DW_AT_location[DW_OP_reg17]
    2369              ;*******************************************************************************
    2370              ;* FUNCTION NAME: vTaskResume                                                  *
    2371              ;*                                                                             *
    2372              ;*   Function Uses Regs : AC0,AC0,AC1,AC1,T0,AR0,XAR0,AR1,XAR1,AR2,AR3,XAR3,SP,*
    2373              ;*                        CARRY,TC1,M40,SATA,SATD,RDM,FRCT,SMUL                *
TMS320C55x Assembler PC v4.4.1 Sat Sep 08 17:11:34 2018

Tools Copyright (c) 1996-2012 Texas Instruments Incorporated
tasks.asm                                                            PAGE   53

    2374              ;*   Stack Frame        : Compact (No Frame Pointer, w/ debug)                 *
    2375              ;*   Total Frame Size   : 6 words                                              *
    2376              ;*                        (2 return address/alignment)                         *
    2377              ;*                        (4 local values)                                     *
    2378              ;*   Min System Stack   : 1 word                                               *
    2379              ;*******************************************************************************
    2380 000760       _vTaskResume:
    2381                      .dwcfi  cfa_offset, 1
    2382                      .dwcfi  save_reg_to_mem, 91, -1
    2383 000760 4EFB          AADD #-5, SP
    2384                      .dwcfi  cfa_offset, 6
    2385              $C$DW$198       .dwtag  DW_TAG_variable, DW_AT_name("xTaskToResume")
    2386                      .dwattr $C$DW$198, DW_AT_TI_symbol_name("_xTaskToResume")
    2387                      .dwattr $C$DW$198, DW_AT_type(*$C$DW$T$70)
    2388                      .dwattr $C$DW$198, DW_AT_location[DW_OP_bregx 0x24 0]
    2389              $C$DW$199       .dwtag  DW_TAG_variable, DW_AT_name("pxTCB")
    2390                      .dwattr $C$DW$199, DW_AT_TI_symbol_name("_pxTCB")
    2391                      .dwattr $C$DW$199, DW_AT_type(*$C$DW$T$159)
    2392                      .dwattr $C$DW$199, DW_AT_location[DW_OP_bregx 0x24 2]
    2393 000762 EB00          MOV XAR0, dbl(*SP(#0))
         000764 85   
    2394                      .dwpsn  file "../FreeRTOS/Source/tasks.c",line 1844,column 16,is_stmt
    2395 000765 ED00          MOV dbl(*SP(#0)), XAR3
         000767 BF   
    2396 000768 EB04          MOV XAR3, dbl(*SP(#2))
         00076a B5   
    2397                      .dwpsn  file "../FreeRTOS/Source/tasks.c",line 1851,column 3,is_stmt
    2398 00076b ED31          MOV dbl(*(#_pxCurrentTCB)), XAR3
         00076d BF00 
         00076f 0002-
    2399 000771 90B0          MOV XAR3, AC0
    2400 000773 ED04          MOV dbl(*SP(#2)), XAR3
         000775 BF   
    2401 000776 90B1          MOV XAR3, AC1
    2402 000778 1210          CMPU AC1 == AC0, TC1 ; |1851| 
         00077a 04   
    2403 00077b 6D64          BCC $C$L64,TC1 ; |1851| 
         00077d 008F 
    2404                                                      ; branchcc occurs ; |1851| 
    2405 00077f 90B0          MOV XAR3, AC0
    2406 000781 6D00          BCC $C$L64,AC0 == #0 ; |1851| 
         000783 0089 
    2407                                                      ; branchcc occurs ; |1851| 
    2408                      .dwpsn  file "../FreeRTOS/Source/tasks.c",line 1853,column 4,is_stmt
    2409 000785 20     nop
    2410 000786 46B3   bset INTM
    2411 000788 F731          ADD #1, *(#_usCriticalNesting) ; |1853| 
         00078a 0001 
         00078c 0000 
         00078e 00!  
    2412                      .dwpsn  file "../FreeRTOS/Source/tasks.c",line 1855,column 5,is_stmt
    2413              $C$DW$200       .dwtag  DW_TAG_TI_branch
    2414                      .dwattr $C$DW$200, DW_AT_low_pc(0x00)
    2415                      .dwattr $C$DW$200, DW_AT_name("_prvTaskIsTaskSuspended")
    2416                      .dwattr $C$DW$200, DW_AT_TI_call
TMS320C55x Assembler PC v4.4.1 Sat Sep 08 17:11:34 2018

Tools Copyright (c) 1996-2012 Texas Instruments Incorporated
tasks.asm                                                            PAGE   54

    2417 00078f 08FF          CALL #_prvTaskIsTaskSuspended ; |1855| 
         000791 5E   
    2418                                                      ; call occurs [#_prvTaskIsTaskSuspended] ; |1855| 
    2419 000792 0404          BCC $C$L63,T0 == #0 ; |1855| 
         000794 5B   
    2420                                                      ; branchcc occurs ; |1855| 
    2421                      .dwpsn  file "../FreeRTOS/Source/tasks.c",line 1861,column 6,is_stmt
    2422 000795 ED04          MOV dbl(*SP(#2)), XAR0
         000797 8F   
    2423 000798 1404          AADD #4, AR0 ; |1861| 
         00079a 84   
    2424              $C$DW$201       .dwtag  DW_TAG_TI_branch
    2425                      .dwattr $C$DW$201, DW_AT_low_pc(0x00)
    2426                      .dwattr $C$DW$201, DW_AT_name("_uxListRemove")
    2427                      .dwattr $C$DW$201, DW_AT_TI_call
    2428 00079b 6C00          CALL #_uxListRemove ; |1861| 
         00079d 0000!
    2429                                                      ; call occurs [#_uxListRemove] ; |1861| 
    2430                      .dwpsn  file "../FreeRTOS/Source/tasks.c",line 1862,column 6,is_stmt
    2431 00079f ED04          MOV dbl(*SP(#2)), XAR3
         0007a1 BF   
    2432 0007a2 A931          MOV *(#_uxTopReadyPriority), AR1 ; |1862| 
         0007a4 0000 
         0007a6 65-  
    2433 0007a7 AA6D          MOV *AR3(#24), AR2 ; |1862| 
         0007a9 0018 
    2434 0007ab 1298          CMPU AR2 <= AR1, TC1 ; |1862| 
         0007ad A4   
    2435 0007ae 64E4          BCC $C$L62,TC1 ; |1862| 
    2436                                                      ; branchcc occurs ; |1862| 
    2437 0007b0 A96D          MOV *AR3(#24), AR1 ; |1862| 
         0007b2 0018 
    2438 0007b4 C931          MOV AR1, *(#_uxTopReadyPriority) ; |1862| 
         0007b6 0000 
         0007b8 65-  
    2439 0007b9       $C$L62:    
    2440 0007b9 F86D          MPYMK *AR3(#24), #10, AC0 ; |1862| 
         0007bb 0A00 
         0007bd 0018 
    2441 0007bf 2209          MOV AC0, AR1 ; |1862| 
    2442 0007c1 EC31          AMOV #_pxReadyTasksLists, XAR0 ; |1862| 
         0007c3 8E00 
         0007c5 0004-
    2443 0007c7 1490          AADD AR1, AR0 ; |1862| 
         0007c9 80   
    2444 0007ca ED04          MOV dbl(*SP(#2)), XAR1
         0007cc 9F   
    2445 0007cd 1404          AADD #4, AR1 ; |1862| 
         0007cf 94   
    2446              $C$DW$202       .dwtag  DW_TAG_TI_branch
    2447                      .dwattr $C$DW$202, DW_AT_low_pc(0x00)
    2448                      .dwattr $C$DW$202, DW_AT_name("_vListInsertEnd")
    2449                      .dwattr $C$DW$202, DW_AT_TI_call
    2450 0007d0 6C00          CALL #_vListInsertEnd ; |1862| 
         0007d2 0000!
TMS320C55x Assembler PC v4.4.1 Sat Sep 08 17:11:34 2018

Tools Copyright (c) 1996-2012 Texas Instruments Incorporated
tasks.asm                                                            PAGE   55

    2451                                                      ; call occurs [#_vListInsertEnd] ; |1862| 
    2452                      .dwpsn  file "../FreeRTOS/Source/tasks.c",line 1865,column 6,is_stmt
    2453 0007d4 ED31          MOV dbl(*(#_pxCurrentTCB)), XAR3
         0007d6 BF00 
         0007d8 0002-
    2454 0007da A96D          MOV *AR3(#24), AR1 ; |1865| 
         0007dc 0018 
    2455 0007de ED04          MOV dbl(*SP(#2)), XAR3
         0007e0 BF   
    2456 0007e1 AA6D          MOV *AR3(#24), AR2 ; |1865| 
         0007e3 0018 
    2457 0007e5 12A4          CMPU AR2 < AR1, TC1 ; |1865| 
         0007e7 94   
    2458 0007e8 6364          BCC $C$L63,TC1 ; |1865| 
    2459                                                      ; branchcc occurs ; |1865| 
    2460                      .dwpsn  file "../FreeRTOS/Source/tasks.c",line 1870,column 7,is_stmt
    2461              $C$DW$203       .dwtag  DW_TAG_TI_branch
    2462                      .dwattr $C$DW$203, DW_AT_low_pc(0x00)
    2463                      .dwattr $C$DW$203, DW_AT_name("_vPortYield")
    2464                      .dwattr $C$DW$203, DW_AT_TI_call
    2465 0007ea 6C00          CALL #_vPortYield ; |1870| 
         0007ec 0000!
    2466                                                      ; call occurs [#_vPortYield] ; |1870| 
    2467                      .dwpsn  file "../FreeRTOS/Source/tasks.c",line 1871,column 6,is_stmt
    2468 0007ee 4A00          B $C$L63  ; |1871| 
    2469                                                      ; branch occurs ; |1871| 
    2470 0007f0       $C$L63:    
    2471                      .dwpsn  file "../FreeRTOS/Source/tasks.c",line 1882,column 4,is_stmt
    2472 0007f0 A931          MOV *(#_usCriticalNesting), AR1 ; |1882| 
         0007f2 0000 
         0007f4 00!  
    2473 0007f5 0409          BCC $C$L64,AR1 == #0 ; |1882| 
         0007f7 16   
    2474                                                      ; branchcc occurs ; |1882| 
    2475 0007f8 F731          SUB #1, *(#_usCriticalNesting) ; |1882| 
         0007fa FFFF 
         0007fc 0000 
         0007fe 00!  
    2476 0007ff 20            NOP
    2477 000800 20            NOP
    2478 000801 20            NOP
    2479 000802 A931          MOV *(#_usCriticalNesting), AR1 ; |1882| 
         000804 0000 
         000806 00!  
    2480 000807 6299          BCC $C$L64,AR1 != #0 ; |1882| 
    2481                                                      ; branchcc occurs ; |1882| 
    2482 000809 20     nop
    2483 00080a 46B2   bclr INTM
    2484                      .dwpsn  file "../FreeRTOS/Source/tasks.c",line 1883,column 3,is_stmt
    2485 00080c 4A00          B $C$L64  ; |1883| 
    2486                                                      ; branch occurs ; |1883| 
    2487 00080e       $C$L64:    
    2488 00080e 4E05          AADD #5, SP
    2489                      .dwcfi  cfa_offset, 1
    2490              $C$DW$204       .dwtag  DW_TAG_TI_branch
TMS320C55x Assembler PC v4.4.1 Sat Sep 08 17:11:34 2018

Tools Copyright (c) 1996-2012 Texas Instruments Incorporated
tasks.asm                                                            PAGE   56

    2491                      .dwattr $C$DW$204, DW_AT_low_pc(0x00)
    2492                      .dwattr $C$DW$204, DW_AT_TI_return
    2493 000810 4804          RET
    2494                                                      ; return occurs
    2495                      .dwattr $C$DW$196, DW_AT_TI_end_file("../FreeRTOS/Source/tasks.c")
    2496                      .dwattr $C$DW$196, DW_AT_TI_end_line(0x760)
    2497                      .dwattr $C$DW$196, DW_AT_TI_end_column(0x02)
    2498                      .dwendentry
    2499                      .dwendtag $C$DW$196
    2500              
    2501 000812               .sect   ".text"
    2502                      .align 4
    2503                      .global _xTaskResumeFromISR
    2504              
    2505              $C$DW$205       .dwtag  DW_TAG_subprogram, DW_AT_name("xTaskResumeFromISR")
    2506                      .dwattr $C$DW$205, DW_AT_low_pc(_xTaskResumeFromISR)
    2507                      .dwattr $C$DW$205, DW_AT_high_pc(0x00)
    2508                      .dwattr $C$DW$205, DW_AT_TI_symbol_name("_xTaskResumeFromISR")
    2509                      .dwattr $C$DW$205, DW_AT_external
    2510                      .dwattr $C$DW$205, DW_AT_type(*$C$DW$T$44)
    2511                      .dwattr $C$DW$205, DW_AT_TI_begin_file("../FreeRTOS/Source/tasks.c")
    2512                      .dwattr $C$DW$205, DW_AT_TI_begin_line(0x768)
    2513                      .dwattr $C$DW$205, DW_AT_TI_begin_column(0x0d)
    2514                      .dwattr $C$DW$205, DW_AT_TI_max_frame_size(0x08)
    2515                      .dwpsn  file "../FreeRTOS/Source/tasks.c",line 1897,column 2,is_stmt,address _xTaskResumeFromISR
    2516              
    2517                      .dwfde $C$DW$CIE, _xTaskResumeFromISR
    2518              $C$DW$206       .dwtag  DW_TAG_formal_parameter, DW_AT_name("xTaskToResume")
    2519                      .dwattr $C$DW$206, DW_AT_TI_symbol_name("_xTaskToResume")
    2520                      .dwattr $C$DW$206, DW_AT_type(*$C$DW$T$70)
    2521                      .dwattr $C$DW$206, DW_AT_location[DW_OP_reg17]
    2522              ;*******************************************************************************
    2523              ;* FUNCTION NAME: xTaskResumeFromISR                                           *
    2524              ;*                                                                             *
    2525              ;*   Function Uses Regs : AC0,T0,AR0,XAR0,AR1,XAR1,AR2,AR3,XAR3,SP,TC1,M40,    *
    2526              ;*                        SATA,SATD,RDM,FRCT,SMUL                              *
    2527              ;*   Stack Frame        : Compact (No Frame Pointer, w/ debug)                 *
    2528              ;*   Total Frame Size   : 8 words                                              *
    2529              ;*                        (1 return address/alignment)                         *
    2530              ;*                        (7 local values)                                     *
    2531              ;*   Min System Stack   : 1 word                                               *
    2532              ;*******************************************************************************
    2533 000814       _xTaskResumeFromISR:
    2534                      .dwcfi  cfa_offset, 1
    2535                      .dwcfi  save_reg_to_mem, 91, -1
    2536 000814 4EF9          AADD #-7, SP
    2537                      .dwcfi  cfa_offset, 8
    2538              $C$DW$207       .dwtag  DW_TAG_variable, DW_AT_name("xTaskToResume")
    2539                      .dwattr $C$DW$207, DW_AT_TI_symbol_name("_xTaskToResume")
    2540                      .dwattr $C$DW$207, DW_AT_type(*$C$DW$T$70)
    2541                      .dwattr $C$DW$207, DW_AT_location[DW_OP_bregx 0x24 0]
    2542              $C$DW$208       .dwtag  DW_TAG_variable, DW_AT_name("xYieldRequired")
    2543                      .dwattr $C$DW$208, DW_AT_TI_symbol_name("_xYieldRequired")
    2544                      .dwattr $C$DW$208, DW_AT_type(*$C$DW$T$44)
    2545                      .dwattr $C$DW$208, DW_AT_location[DW_OP_bregx 0x24 2]
TMS320C55x Assembler PC v4.4.1 Sat Sep 08 17:11:34 2018

Tools Copyright (c) 1996-2012 Texas Instruments Incorporated
tasks.asm                                                            PAGE   57

    2546              $C$DW$209       .dwtag  DW_TAG_variable, DW_AT_name("pxTCB")
    2547                      .dwattr $C$DW$209, DW_AT_TI_symbol_name("_pxTCB")
    2548                      .dwattr $C$DW$209, DW_AT_type(*$C$DW$T$159)
    2549                      .dwattr $C$DW$209, DW_AT_location[DW_OP_bregx 0x24 4]
    2550              $C$DW$210       .dwtag  DW_TAG_variable, DW_AT_name("uxSavedInterruptStatus")
    2551                      .dwattr $C$DW$210, DW_AT_TI_symbol_name("_uxSavedInterruptStatus")
    2552                      .dwattr $C$DW$210, DW_AT_type(*$C$DW$T$25)
    2553                      .dwattr $C$DW$210, DW_AT_location[DW_OP_bregx 0x24 6]
    2554 000816 EB00          MOV XAR0, dbl(*SP(#0))
         000818 85   
    2555                      .dwpsn  file "../FreeRTOS/Source/tasks.c",line 1898,column 13,is_stmt
    2556 000819 E604          MOV #0, *SP(#2) ; |1898| 
         00081b 00   
    2557                      .dwpsn  file "../FreeRTOS/Source/tasks.c",line 1899,column 16,is_stmt
    2558 00081c ED00          MOV dbl(*SP(#0)), XAR3
         00081e BF   
    2559 00081f EB08          MOV XAR3, dbl(*SP(#4))
         000821 B5   
    2560                      .dwpsn  file "../FreeRTOS/Source/tasks.c",line 1922,column 3,is_stmt
    2561 000822 E60C          MOV #0, *SP(#6) ; |1922| 
         000824 00   
    2562                      .dwpsn  file "../FreeRTOS/Source/tasks.c",line 1924,column 4,is_stmt
    2563 000825 ED08          MOV dbl(*SP(#4)), XAR0
         000827 8F   
    2564              $C$DW$211       .dwtag  DW_TAG_TI_branch
    2565                      .dwattr $C$DW$211, DW_AT_low_pc(0x00)
    2566                      .dwattr $C$DW$211, DW_AT_name("_prvTaskIsTaskSuspended")
    2567                      .dwattr $C$DW$211, DW_AT_TI_call
    2568 000828 08FE          CALL #_prvTaskIsTaskSuspended ; |1924| 
         00082a C5   
    2569                                                      ; call occurs [#_prvTaskIsTaskSuspended] ; |1924| 
    2570 00082b 0404          BCC $C$L68,T0 == #0 ; |1924| 
         00082d 72   
    2571                                                      ; branchcc occurs ; |1924| 
    2572                      .dwpsn  file "../FreeRTOS/Source/tasks.c",line 1929,column 5,is_stmt
    2573 00082e A931          MOV *(#_uxSchedulerSuspended), AR1 ; |1929| 
         000830 0000 
         000832 6E-  
    2574 000833 0419          BCC $C$L67,AR1 != #0 ; |1929| 
         000835 5A   
    2575                                                      ; branchcc occurs ; |1929| 
    2576                      .dwpsn  file "../FreeRTOS/Source/tasks.c",line 1933,column 6,is_stmt
    2577 000836 ED31          MOV dbl(*(#_pxCurrentTCB)), XAR3
         000838 BF00 
         00083a 0002-
    2578 00083c A96D          MOV *AR3(#24), AR1 ; |1933| 
         00083e 0018 
    2579 000840 ED08          MOV dbl(*SP(#4)), XAR3
         000842 BF   
    2580 000843 AA6D          MOV *AR3(#24), AR2 ; |1933| 
         000845 0018 
    2581 000847 12A4          CMPU AR2 < AR1, TC1 ; |1933| 
         000849 94   
    2582 00084a 61E4          BCC $C$L65,TC1 ; |1933| 
    2583                                                      ; branchcc occurs ; |1933| 
TMS320C55x Assembler PC v4.4.1 Sat Sep 08 17:11:34 2018

Tools Copyright (c) 1996-2012 Texas Instruments Incorporated
tasks.asm                                                            PAGE   58

    2584                      .dwpsn  file "../FreeRTOS/Source/tasks.c",line 1935,column 7,is_stmt
    2585 00084c E604          MOV #1, *SP(#2) ; |1935| 
         00084e 01   
    2586                      .dwpsn  file "../FreeRTOS/Source/tasks.c",line 1936,column 6,is_stmt
    2587 00084f       $C$L65:    
    2588                      .dwpsn  file "../FreeRTOS/Source/tasks.c",line 1942,column 6,is_stmt
    2589 00084f ED08          MOV dbl(*SP(#4)), XAR0
         000851 8F   
    2590 000852 1404          AADD #4, AR0 ; |1942| 
         000854 84   
    2591              $C$DW$212       .dwtag  DW_TAG_TI_branch
    2592                      .dwattr $C$DW$212, DW_AT_low_pc(0x00)
    2593                      .dwattr $C$DW$212, DW_AT_name("_uxListRemove")
    2594                      .dwattr $C$DW$212, DW_AT_TI_call
    2595 000855 6C00          CALL #_uxListRemove ; |1942| 
         000857 0000!
    2596                                                      ; call occurs [#_uxListRemove] ; |1942| 
    2597                      .dwpsn  file "../FreeRTOS/Source/tasks.c",line 1943,column 6,is_stmt
    2598 000859 ED08          MOV dbl(*SP(#4)), XAR3
         00085b BF   
    2599 00085c A931          MOV *(#_uxTopReadyPriority), AR1 ; |1943| 
         00085e 0000 
         000860 65-  
    2600 000861 AA6D          MOV *AR3(#24), AR2 ; |1943| 
         000863 0018 
    2601 000865 1298          CMPU AR2 <= AR1, TC1 ; |1943| 
         000867 A4   
    2602 000868 64E4          BCC $C$L66,TC1 ; |1943| 
    2603                                                      ; branchcc occurs ; |1943| 
    2604 00086a A96D          MOV *AR3(#24), AR1 ; |1943| 
         00086c 0018 
    2605 00086e C931          MOV AR1, *(#_uxTopReadyPriority) ; |1943| 
         000870 0000 
         000872 65-  
    2606 000873       $C$L66:    
    2607 000873 F86D          MPYMK *AR3(#24), #10, AC0 ; |1943| 
         000875 0A00 
         000877 0018 
    2608 000879 2209          MOV AC0, AR1 ; |1943| 
    2609 00087b EC31          AMOV #_pxReadyTasksLists, XAR0 ; |1943| 
         00087d 8E00 
         00087f 0004-
    2610 000881 1490          AADD AR1, AR0 ; |1943| 
         000883 80   
    2611 000884 ED08          MOV dbl(*SP(#4)), XAR1
         000886 9F   
    2612 000887 1404          AADD #4, AR1 ; |1943| 
         000889 94   
    2613              $C$DW$213       .dwtag  DW_TAG_TI_branch
    2614                      .dwattr $C$DW$213, DW_AT_low_pc(0x00)
    2615                      .dwattr $C$DW$213, DW_AT_name("_vListInsertEnd")
    2616                      .dwattr $C$DW$213, DW_AT_TI_call
    2617 00088a 6C00          CALL #_vListInsertEnd ; |1943| 
         00088c 0000!
    2618                                                      ; call occurs [#_vListInsertEnd] ; |1943| 
TMS320C55x Assembler PC v4.4.1 Sat Sep 08 17:11:34 2018

Tools Copyright (c) 1996-2012 Texas Instruments Incorporated
tasks.asm                                                            PAGE   59

    2619                      .dwpsn  file "../FreeRTOS/Source/tasks.c",line 1944,column 5,is_stmt
    2620 00088e 4A10          B $C$L68  ; |1944| 
    2621                                                      ; branch occurs ; |1944| 
    2622 000890       $C$L67:    
    2623                      .dwpsn  file "../FreeRTOS/Source/tasks.c",line 1950,column 6,is_stmt
    2624 000890 ED08          MOV dbl(*SP(#4)), XAR1
         000892 9F   
    2625 000893 EC31          AMOV #_xPendingReadyList, XAR0 ; |1950| 
         000895 8E00 
         000897 0044-
    2626 000899 140E          AADD #14, AR1 ; |1950| 
         00089b 94   
    2627              $C$DW$214       .dwtag  DW_TAG_TI_branch
    2628                      .dwattr $C$DW$214, DW_AT_low_pc(0x00)
    2629                      .dwattr $C$DW$214, DW_AT_name("_vListInsertEnd")
    2630                      .dwattr $C$DW$214, DW_AT_TI_call
    2631 00089c 6C00          CALL #_vListInsertEnd ; |1950| 
         00089e 0000!
    2632                                                      ; call occurs [#_vListInsertEnd] ; |1950| 
    2633                      .dwpsn  file "../FreeRTOS/Source/tasks.c",line 1952,column 4,is_stmt
    2634 0008a0       $C$L68:    
    2635                      .dwpsn  file "../FreeRTOS/Source/tasks.c",line 1958,column 3,is_stmt
    2636                      .dwpsn  file "../FreeRTOS/Source/tasks.c",line 1960,column 3,is_stmt
    2637 0008a0 A404          MOV *SP(#2), T0 ; |1960| 
    2638                      .dwpsn  file "../FreeRTOS/Source/tasks.c",line 1961,column 2,is_stmt
    2639 0008a2 4E07          AADD #7, SP
    2640                      .dwcfi  cfa_offset, 1
    2641              $C$DW$215       .dwtag  DW_TAG_TI_branch
    2642                      .dwattr $C$DW$215, DW_AT_low_pc(0x00)
    2643                      .dwattr $C$DW$215, DW_AT_TI_return
    2644 0008a4 4804          RET
    2645                                                      ; return occurs
    2646                      .dwattr $C$DW$205, DW_AT_TI_end_file("../FreeRTOS/Source/tasks.c")
    2647                      .dwattr $C$DW$205, DW_AT_TI_end_line(0x7a9)
    2648                      .dwattr $C$DW$205, DW_AT_TI_end_column(0x02)
    2649                      .dwendentry
    2650                      .dwendtag $C$DW$205
    2651              
    2652 0008a6               .sect   ".text"
    2653                      .align 4
    2654                      .global _vTaskStartScheduler
    2655              
    2656              $C$DW$216       .dwtag  DW_TAG_subprogram, DW_AT_name("vTaskStartScheduler")
    2657                      .dwattr $C$DW$216, DW_AT_low_pc(_vTaskStartScheduler)
    2658                      .dwattr $C$DW$216, DW_AT_high_pc(0x00)
    2659                      .dwattr $C$DW$216, DW_AT_TI_symbol_name("_vTaskStartScheduler")
    2660                      .dwattr $C$DW$216, DW_AT_external
    2661                      .dwattr $C$DW$216, DW_AT_TI_begin_file("../FreeRTOS/Source/tasks.c")
    2662                      .dwattr $C$DW$216, DW_AT_TI_begin_line(0x7ae)
    2663                      .dwattr $C$DW$216, DW_AT_TI_begin_column(0x06)
    2664                      .dwattr $C$DW$216, DW_AT_TI_max_frame_size(0x02)
    2665                      .dwpsn  file "../FreeRTOS/Source/tasks.c",line 1967,column 1,is_stmt,address _vTaskStartScheduler
    2666              
    2667                      .dwfde $C$DW$CIE, _vTaskStartScheduler
    2668              ;*******************************************************************************
TMS320C55x Assembler PC v4.4.1 Sat Sep 08 17:11:34 2018

Tools Copyright (c) 1996-2012 Texas Instruments Incorporated
tasks.asm                                                            PAGE   60

    2669              ;* FUNCTION NAME: vTaskStartScheduler                                          *
    2670              ;*                                                                             *
    2671              ;*   Function Uses Regs : AC0,AC0,T0,T1,AR0,XAR0,AR1,XAR1,AR2,XAR2,SP,TC1,M40, *
    2672              ;*                        SATA,SATD,RDM,FRCT,SMUL                              *
    2673              ;*   Stack Frame        : Compact (No Frame Pointer, w/ debug)                 *
    2674              ;*   Total Frame Size   : 2 words                                              *
    2675              ;*                        (1 return address/alignment)                         *
    2676              ;*                        (1 local values)                                     *
    2677              ;*   Min System Stack   : 1 word                                               *
    2678              ;*******************************************************************************
    2679 0008a8       _vTaskStartScheduler:
    2680                      .dwcfi  cfa_offset, 1
    2681                      .dwcfi  save_reg_to_mem, 91, -1
    2682 0008a8 4EFF          AADD #-1, SP
    2683                      .dwcfi  cfa_offset, 2
    2684              $C$DW$217       .dwtag  DW_TAG_variable, DW_AT_name("xReturn")
    2685                      .dwattr $C$DW$217, DW_AT_TI_symbol_name("_xReturn")
    2686                      .dwattr $C$DW$217, DW_AT_type(*$C$DW$T$44)
    2687                      .dwattr $C$DW$217, DW_AT_location[DW_OP_bregx 0x24 0]
    2688                      .dwpsn  file "../FreeRTOS/Source/tasks.c",line 2000,column 3,is_stmt
    2689 0008aa 7A00          MOV #(_prvIdleTask >> 16) << #16, AC0 ; |2000| 
         0008ac 000A%
    2690 0008ae EC31          AMOV #_xIdleTaskHandle, XAR2 ; |2000| 
         0008b0 AE00 
         0008b2 006C-
    2691 0008b4 EC31          AMOV #0, XAR1 ; |2000| 
         0008b6 9E00 
         0008b8 0000 
    2692 0008ba EC31          AMOV #$C$FSL1, XAR0 ; |2000| 
         0008bc 8E00 
         0008be 0000+
    2693 0008c0 7600          MOV #128, T0 ; |2000| 
         0008c2 8048 
    2694 0008c4 7E00          OR #(_prvIdleTask & 0xffff), AC0, AC0 ; |2000| 
         0008c6 0000%
    2695              $C$DW$218       .dwtag  DW_TAG_TI_branch
    2696                      .dwattr $C$DW$218, DW_AT_low_pc(0x00)
    2697                      .dwattr $C$DW$218, DW_AT_name("_xTaskCreate")
    2698                      .dwattr $C$DW$218, DW_AT_TI_call
    2699              
    2700 0008c8 08F7          CALL #_xTaskCreate ; |2000| 
         0008ca 33   
    2701 0008cb 3D05  ||      MOV #0, T1
    2702              
    2703                                                      ; call occurs [#_xTaskCreate] ; |2000| 
    2704 0008cd C400          MOV T0, *SP(#0) ; |2000| 
    2705                      .dwpsn  file "../FreeRTOS/Source/tasks.c",line 2022,column 2,is_stmt
    2706 0008cf F000          CMP *SP(#0) == #1, TC1 ; |2022| 
         0008d1 0001 
    2707 0008d3 0474          BCC $C$L69,!TC1 ; |2022| 
         0008d5 1E   
    2708                                                      ; branchcc occurs ; |2022| 
    2709                      .dwpsn  file "../FreeRTOS/Source/tasks.c",line 2038,column 3,is_stmt
    2710 0008d6 20     nop
    2711 0008d7 46B3   bset INTM
TMS320C55x Assembler PC v4.4.1 Sat Sep 08 17:11:34 2018

Tools Copyright (c) 1996-2012 Texas Instruments Incorporated
tasks.asm                                                            PAGE   61

    2712                      .dwpsn  file "../FreeRTOS/Source/tasks.c",line 2048,column 3,is_stmt
    2713 0008d9 FB31          MOV #65535, *(#_xNextTaskUnblockTime) ; |2048| 
         0008db FFFF 
         0008dd 0000 
         0008df 6B-  
    2714                      .dwpsn  file "../FreeRTOS/Source/tasks.c",line 2049,column 3,is_stmt
    2715 0008e0 E631          MOV #1, *(#_xSchedulerRunning) ; |2049| 
         0008e2 0100 
         0008e4 0066-
    2716                      .dwpsn  file "../FreeRTOS/Source/tasks.c",line 2050,column 3,is_stmt
    2717 0008e6 E631          MOV #0, *(#_xTickCount) ; |2050| 
         0008e8 0000 
         0008ea 0064-
    2718                      .dwpsn  file "../FreeRTOS/Source/tasks.c",line 2064,column 3,is_stmt
    2719              $C$DW$219       .dwtag  DW_TAG_TI_branch
    2720                      .dwattr $C$DW$219, DW_AT_low_pc(0x00)
    2721                      .dwattr $C$DW$219, DW_AT_name("_xPortStartScheduler")
    2722                      .dwattr $C$DW$219, DW_AT_TI_call
    2723 0008ec 6C00          CALL #_xPortStartScheduler ; |2064| 
         0008ee 0000!
    2724                                                      ; call occurs [#_xPortStartScheduler] ; |2064| 
    2725 0008f0 6114          BCC $C$L69,T0 != #0 ; |2064| 
    2726                                                      ; branchcc occurs ; |2064| 
    2727                      .dwpsn  file "../FreeRTOS/Source/tasks.c",line 2068,column 3,is_stmt
    2728                      .dwpsn  file "../FreeRTOS/Source/tasks.c",line 2073,column 2,is_stmt
    2729 0008f2 4A00          B $C$L69  ; |2073| 
    2730                                                      ; branch occurs ; |2073| 
    2731 0008f4       $C$L69:    
    2732 0008f4 4E01          AADD #1, SP
    2733                      .dwcfi  cfa_offset, 1
    2734              $C$DW$220       .dwtag  DW_TAG_TI_branch
    2735                      .dwattr $C$DW$220, DW_AT_low_pc(0x00)
    2736                      .dwattr $C$DW$220, DW_AT_TI_return
    2737 0008f6 4804          RET
    2738                                                      ; return occurs
    2739                      .dwattr $C$DW$216, DW_AT_TI_end_file("../FreeRTOS/Source/tasks.c")
    2740                      .dwattr $C$DW$216, DW_AT_TI_end_line(0x825)
    2741                      .dwattr $C$DW$216, DW_AT_TI_end_column(0x01)
    2742                      .dwendentry
    2743                      .dwendtag $C$DW$216
    2744              
    2745 0008f8               .sect   ".text"
    2746                      .align 4
    2747                      .global _vTaskEndScheduler
    2748              
    2749              $C$DW$221       .dwtag  DW_TAG_subprogram, DW_AT_name("vTaskEndScheduler")
    2750                      .dwattr $C$DW$221, DW_AT_low_pc(_vTaskEndScheduler)
    2751                      .dwattr $C$DW$221, DW_AT_high_pc(0x00)
    2752                      .dwattr $C$DW$221, DW_AT_TI_symbol_name("_vTaskEndScheduler")
    2753                      .dwattr $C$DW$221, DW_AT_external
    2754                      .dwattr $C$DW$221, DW_AT_TI_begin_file("../FreeRTOS/Source/tasks.c")
    2755                      .dwattr $C$DW$221, DW_AT_TI_begin_line(0x828)
    2756                      .dwattr $C$DW$221, DW_AT_TI_begin_column(0x06)
    2757                      .dwattr $C$DW$221, DW_AT_TI_max_frame_size(0x02)
    2758                      .dwpsn  file "../FreeRTOS/Source/tasks.c",line 2089,column 1,is_stmt,address _vTaskEndScheduler
TMS320C55x Assembler PC v4.4.1 Sat Sep 08 17:11:34 2018

Tools Copyright (c) 1996-2012 Texas Instruments Incorporated
tasks.asm                                                            PAGE   62

    2759              
    2760                      .dwfde $C$DW$CIE, _vTaskEndScheduler
    2761              ;*******************************************************************************
    2762              ;* FUNCTION NAME: vTaskEndScheduler                                            *
    2763              ;*                                                                             *
    2764              ;*   Function Uses Regs : SP,M40,SATA,SATD,RDM,FRCT,SMUL                       *
    2765              ;*   Stack Frame        : Compact (No Frame Pointer, w/ debug)                 *
    2766              ;*   Total Frame Size   : 2 words                                              *
    2767              ;*                        (2 return address/alignment)                         *
    2768              ;*   Min System Stack   : 1 word                                               *
    2769              ;*******************************************************************************
    2770 0008f8       _vTaskEndScheduler:
    2771                      .dwcfi  cfa_offset, 1
    2772                      .dwcfi  save_reg_to_mem, 91, -1
    2773 0008f8 4EFF          AADD #-1, SP
    2774                      .dwcfi  cfa_offset, 2
    2775                      .dwpsn  file "../FreeRTOS/Source/tasks.c",line 2093,column 2,is_stmt
    2776 0008fa 20     nop
    2777 0008fb 46B3   bset INTM
    2778                      .dwpsn  file "../FreeRTOS/Source/tasks.c",line 2094,column 2,is_stmt
    2779 0008fd E631          MOV #0, *(#_xSchedulerRunning) ; |2094| 
         0008ff 0000 
         000901 0066-
    2780                      .dwpsn  file "../FreeRTOS/Source/tasks.c",line 2095,column 2,is_stmt
    2781              $C$DW$222       .dwtag  DW_TAG_TI_branch
    2782                      .dwattr $C$DW$222, DW_AT_low_pc(0x00)
    2783                      .dwattr $C$DW$222, DW_AT_name("_vPortEndScheduler")
    2784                      .dwattr $C$DW$222, DW_AT_TI_call
    2785 000903 6C00          CALL #_vPortEndScheduler ; |2095| 
         000905 0000!
    2786                                                      ; call occurs [#_vPortEndScheduler] ; |2095| 
    2787                      .dwpsn  file "../FreeRTOS/Source/tasks.c",line 2096,column 1,is_stmt
    2788 000907 4E01          AADD #1, SP
    2789                      .dwcfi  cfa_offset, 1
    2790              $C$DW$223       .dwtag  DW_TAG_TI_branch
    2791                      .dwattr $C$DW$223, DW_AT_low_pc(0x00)
    2792                      .dwattr $C$DW$223, DW_AT_TI_return
    2793 000909 4804          RET
    2794                                                      ; return occurs
    2795                      .dwattr $C$DW$221, DW_AT_TI_end_file("../FreeRTOS/Source/tasks.c")
    2796                      .dwattr $C$DW$221, DW_AT_TI_end_line(0x830)
    2797                      .dwattr $C$DW$221, DW_AT_TI_end_column(0x01)
    2798                      .dwendentry
    2799                      .dwendtag $C$DW$221
    2800              
    2801 00090b               .sect   ".text"
    2802                      .align 4
    2803                      .global _vTaskSuspendAll
    2804              
    2805              $C$DW$224       .dwtag  DW_TAG_subprogram, DW_AT_name("vTaskSuspendAll")
    2806                      .dwattr $C$DW$224, DW_AT_low_pc(_vTaskSuspendAll)
    2807                      .dwattr $C$DW$224, DW_AT_high_pc(0x00)
    2808                      .dwattr $C$DW$224, DW_AT_TI_symbol_name("_vTaskSuspendAll")
    2809                      .dwattr $C$DW$224, DW_AT_external
    2810                      .dwattr $C$DW$224, DW_AT_TI_begin_file("../FreeRTOS/Source/tasks.c")
TMS320C55x Assembler PC v4.4.1 Sat Sep 08 17:11:34 2018

Tools Copyright (c) 1996-2012 Texas Instruments Incorporated
tasks.asm                                                            PAGE   63

    2811                      .dwattr $C$DW$224, DW_AT_TI_begin_line(0x833)
    2812                      .dwattr $C$DW$224, DW_AT_TI_begin_column(0x06)
    2813                      .dwattr $C$DW$224, DW_AT_TI_max_frame_size(0x01)
    2814                      .dwpsn  file "../FreeRTOS/Source/tasks.c",line 2100,column 1,is_stmt,address _vTaskSuspendAll
    2815              
    2816                      .dwfde $C$DW$CIE, _vTaskSuspendAll
    2817              ;*******************************************************************************
    2818              ;* FUNCTION NAME: vTaskSuspendAll                                              *
    2819              ;*                                                                             *
    2820              ;*   Function Uses Regs : SP,CARRY,M40,SATA,SATD,RDM,FRCT,SMUL                 *
    2821              ;*   Stack Frame        : Compact (No Frame Pointer, w/ debug)                 *
    2822              ;*   Total Frame Size   : 1 word                                               *
    2823              ;*                        (1 return address/alignment)                         *
    2824              ;*   Min System Stack   : 1 word                                               *
    2825              ;*******************************************************************************
    2826 00090c       _vTaskSuspendAll:
    2827                      .dwcfi  cfa_offset, 1
    2828                      .dwcfi  save_reg_to_mem, 91, -1
    2829                      .dwpsn  file "../FreeRTOS/Source/tasks.c",line 2105,column 2,is_stmt
    2830 00090c F731          ADD #1, *(#_uxSchedulerSuspended) ; |2105| 
         00090e 0001 
         000910 0000 
         000912 6E-  
    2831                      .dwpsn  file "../FreeRTOS/Source/tasks.c",line 2106,column 1,is_stmt
    2832              $C$DW$225       .dwtag  DW_TAG_TI_branch
    2833                      .dwattr $C$DW$225, DW_AT_low_pc(0x00)
    2834                      .dwattr $C$DW$225, DW_AT_TI_return
    2835 000913 4804          RET
    2836                                                      ; return occurs
    2837                      .dwattr $C$DW$224, DW_AT_TI_end_file("../FreeRTOS/Source/tasks.c")
    2838                      .dwattr $C$DW$224, DW_AT_TI_end_line(0x83a)
    2839                      .dwattr $C$DW$224, DW_AT_TI_end_column(0x01)
    2840                      .dwendentry
    2841                      .dwendtag $C$DW$224
    2842              
    2843 000915               .sect   ".text"
    2844                      .align 4
    2845                      .global _xTaskResumeAll
    2846              
    2847              $C$DW$226       .dwtag  DW_TAG_subprogram, DW_AT_name("xTaskResumeAll")
    2848                      .dwattr $C$DW$226, DW_AT_low_pc(_xTaskResumeAll)
    2849                      .dwattr $C$DW$226, DW_AT_high_pc(0x00)
    2850                      .dwattr $C$DW$226, DW_AT_TI_symbol_name("_xTaskResumeAll")
    2851                      .dwattr $C$DW$226, DW_AT_external
    2852                      .dwattr $C$DW$226, DW_AT_type(*$C$DW$T$44)
    2853                      .dwattr $C$DW$226, DW_AT_TI_begin_file("../FreeRTOS/Source/tasks.c")
    2854                      .dwattr $C$DW$226, DW_AT_TI_begin_line(0x87c)
    2855                      .dwattr $C$DW$226, DW_AT_TI_begin_column(0x0c)
    2856                      .dwattr $C$DW$226, DW_AT_TI_max_frame_size(0x06)
    2857                      .dwpsn  file "../FreeRTOS/Source/tasks.c",line 2173,column 1,is_stmt,address _xTaskResumeAll
    2858              
    2859                      .dwfde $C$DW$CIE, _xTaskResumeAll
    2860              ;*******************************************************************************
    2861              ;* FUNCTION NAME: xTaskResumeAll                                               *
    2862              ;*                                                                             *
TMS320C55x Assembler PC v4.4.1 Sat Sep 08 17:11:34 2018

Tools Copyright (c) 1996-2012 Texas Instruments Incorporated
tasks.asm                                                            PAGE   64

    2863              ;*   Function Uses Regs : AC0,AC0,T0,AR0,XAR0,AR1,XAR1,AR2,AR3,XAR3,SP,CARRY,  *
    2864              ;*                        TC1,M40,SATA,SATD,RDM,FRCT,SMUL                      *
    2865              ;*   Stack Frame        : Compact (No Frame Pointer, w/ debug)                 *
    2866              ;*   Total Frame Size   : 6 words                                              *
    2867              ;*                        (2 return address/alignment)                         *
    2868              ;*                        (4 local values)                                     *
    2869              ;*   Min System Stack   : 1 word                                               *
    2870              ;*******************************************************************************
    2871 000918       _xTaskResumeAll:
    2872                      .dwcfi  cfa_offset, 1
    2873                      .dwcfi  save_reg_to_mem, 91, -1
    2874 000918 4EFB          AADD #-5, SP
    2875                      .dwcfi  cfa_offset, 6
    2876              $C$DW$227       .dwtag  DW_TAG_variable, DW_AT_name("pxTCB")
    2877                      .dwattr $C$DW$227, DW_AT_TI_symbol_name("_pxTCB")
    2878                      .dwattr $C$DW$227, DW_AT_type(*$C$DW$T$82)
    2879                      .dwattr $C$DW$227, DW_AT_location[DW_OP_bregx 0x24 0]
    2880              $C$DW$228       .dwtag  DW_TAG_variable, DW_AT_name("xAlreadyYielded")
    2881                      .dwattr $C$DW$228, DW_AT_TI_symbol_name("_xAlreadyYielded")
    2882                      .dwattr $C$DW$228, DW_AT_type(*$C$DW$T$44)
    2883                      .dwattr $C$DW$228, DW_AT_location[DW_OP_bregx 0x24 2]
    2884                      .dwpsn  file "../FreeRTOS/Source/tasks.c",line 2174,column 8,is_stmt
    2885 00091a 3C00          MOV #0, AC0 ; |2174| 
    2886 00091c EB00          MOV AC0, dbl(*SP(#0))
         00091e 08   
    2887                      .dwpsn  file "../FreeRTOS/Source/tasks.c",line 2175,column 12,is_stmt
    2888 00091f E604          MOV #0, *SP(#2) ; |2175| 
         000921 00   
    2889                      .dwpsn  file "../FreeRTOS/Source/tasks.c",line 2186,column 2,is_stmt
    2890 000922 20     nop
    2891 000923 46B3   bset INTM
    2892 000925 F731          ADD #1, *(#_usCriticalNesting) ; |2186| 
         000927 0001 
         000929 0000 
         00092b 00!  
    2893                      .dwpsn  file "../FreeRTOS/Source/tasks.c",line 2188,column 3,is_stmt
    2894 00092c F731          SUB #1, *(#_uxSchedulerSuspended) ; |2188| 
         00092e FFFF 
         000930 0000 
         000932 6E-  
    2895 000933 20            NOP
    2896 000934 20            NOP
    2897 000935 20            NOP
    2898                      .dwpsn  file "../FreeRTOS/Source/tasks.c",line 2190,column 3,is_stmt
    2899 000936 A931          MOV *(#_uxSchedulerSuspended), AR1 ; |2190| 
         000938 0000 
         00093a 6E-  
    2900 00093b 6D19          BCC $C$L79,AR1 != #0 ; |2190| 
         00093d 00CC 
    2901                                                      ; branchcc occurs ; |2190| 
    2902                      .dwpsn  file "../FreeRTOS/Source/tasks.c",line 2192,column 4,is_stmt
    2903 00093f A931          MOV *(#_uxCurrentNumberOfTasks), AR1 ; |2192| 
         000941 0000 
         000943 59-  
    2904 000944 6D09          BCC $C$L79,AR1 == #0 ; |2192| 
TMS320C55x Assembler PC v4.4.1 Sat Sep 08 17:11:34 2018

Tools Copyright (c) 1996-2012 Texas Instruments Incorporated
tasks.asm                                                            PAGE   65

         000946 00C3 
    2905                                                      ; branchcc occurs ; |2192| 
    2906                      .dwpsn  file "../FreeRTOS/Source/tasks.c",line 2196,column 5,is_stmt
    2907 000948 0600          B $C$L72  ; |2196| 
         00094a 71   
    2908                                                      ; branch occurs ; |2196| 
    2909 00094b       $C$L70:    
    2910 00094b       $C$DW$L$_xTaskResumeAll$4$B:
    2911                      .dwpsn  file "../FreeRTOS/Source/tasks.c",line 2198,column 6,is_stmt
    2912 00094b ED31          MOV dbl(*(#(_xPendingReadyList+6))), XAR3
         00094d BF00 
         00094f 004A-
    2913 000951 ED7D          MOV dbl(*AR3(short(#6))), XAR3
         000953 BF   
    2914 000954 EB00          MOV XAR3, dbl(*SP(#0))
         000956 B5   
    2915                      .dwpsn  file "../FreeRTOS/Source/tasks.c",line 2199,column 6,is_stmt
    2916 000957 ED00          MOV dbl(*SP(#0)), XAR0
         000959 8F   
    2917 00095a 140E          AADD #14, AR0 ; |2199| 
         00095c 84   
    2918              $C$DW$229       .dwtag  DW_TAG_TI_branch
    2919                      .dwattr $C$DW$229, DW_AT_low_pc(0x00)
    2920                      .dwattr $C$DW$229, DW_AT_name("_uxListRemove")
    2921                      .dwattr $C$DW$229, DW_AT_TI_call
    2922 00095d 6C00          CALL #_uxListRemove ; |2199| 
         00095f 0000!
    2923                                                      ; call occurs [#_uxListRemove] ; |2199| 
    2924                      .dwpsn  file "../FreeRTOS/Source/tasks.c",line 2200,column 6,is_stmt
    2925 000961 ED00          MOV dbl(*SP(#0)), XAR0
         000963 8F   
    2926 000964 1404          AADD #4, AR0 ; |2200| 
         000966 84   
    2927              $C$DW$230       .dwtag  DW_TAG_TI_branch
    2928                      .dwattr $C$DW$230, DW_AT_low_pc(0x00)
    2929                      .dwattr $C$DW$230, DW_AT_name("_uxListRemove")
    2930                      .dwattr $C$DW$230, DW_AT_TI_call
    2931 000967 6C00          CALL #_uxListRemove ; |2200| 
         000969 0000!
    2932                                                      ; call occurs [#_uxListRemove] ; |2200| 
    2933                      .dwpsn  file "../FreeRTOS/Source/tasks.c",line 2201,column 6,is_stmt
    2934 00096b ED00          MOV dbl(*SP(#0)), XAR3
         00096d BF   
    2935 00096e A931          MOV *(#_uxTopReadyPriority), AR1 ; |2201| 
         000970 0000 
         000972 65-  
    2936 000973 AA6D          MOV *AR3(#24), AR2 ; |2201| 
         000975 0018 
    2937 000977 1298          CMPU AR2 <= AR1, TC1 ; |2201| 
         000979 A4   
    2938 00097a 64E4          BCC $C$L71,TC1 ; |2201| 
    2939                                                      ; branchcc occurs ; |2201| 
    2940 00097c       $C$DW$L$_xTaskResumeAll$4$E:
    2941 00097c       $C$DW$L$_xTaskResumeAll$5$B:
    2942 00097c A96D          MOV *AR3(#24), AR1 ; |2201| 
TMS320C55x Assembler PC v4.4.1 Sat Sep 08 17:11:34 2018

Tools Copyright (c) 1996-2012 Texas Instruments Incorporated
tasks.asm                                                            PAGE   66

         00097e 0018 
    2943 000980 C931          MOV AR1, *(#_uxTopReadyPriority) ; |2201| 
         000982 0000 
         000984 65-  
    2944 000985       $C$DW$L$_xTaskResumeAll$5$E:
    2945 000985       $C$L71:    
    2946 000985       $C$DW$L$_xTaskResumeAll$6$B:
    2947 000985 F86D          MPYMK *AR3(#24), #10, AC0 ; |2201| 
         000987 0A00 
         000989 0018 
    2948 00098b 2209          MOV AC0, AR1 ; |2201| 
    2949 00098d EC31          AMOV #_pxReadyTasksLists, XAR0 ; |2201| 
         00098f 8E00 
         000991 0004-
    2950 000993 1490          AADD AR1, AR0 ; |2201| 
         000995 80   
    2951 000996 ED00          MOV dbl(*SP(#0)), XAR1
         000998 9F   
    2952 000999 1404          AADD #4, AR1 ; |2201| 
         00099b 94   
    2953              $C$DW$231       .dwtag  DW_TAG_TI_branch
    2954                      .dwattr $C$DW$231, DW_AT_low_pc(0x00)
    2955                      .dwattr $C$DW$231, DW_AT_name("_vListInsertEnd")
    2956                      .dwattr $C$DW$231, DW_AT_TI_call
    2957 00099c 6C00          CALL #_vListInsertEnd ; |2201| 
         00099e 0000!
    2958                                                      ; call occurs [#_vListInsertEnd] ; |2201| 
    2959                      .dwpsn  file "../FreeRTOS/Source/tasks.c",line 2205,column 6,is_stmt
    2960 0009a0 ED31          MOV dbl(*(#_pxCurrentTCB)), XAR3
         0009a2 BF00 
         0009a4 0002-
    2961 0009a6 A96D          MOV *AR3(#24), AR1 ; |2205| 
         0009a8 0018 
    2962 0009aa ED00          MOV dbl(*SP(#0)), XAR3
         0009ac BF   
    2963 0009ad AA6D          MOV *AR3(#24), AR2 ; |2205| 
         0009af 0018 
    2964 0009b1 12A4          CMPU AR2 < AR1, TC1 ; |2205| 
         0009b3 94   
    2965 0009b4 6364          BCC $C$L72,TC1 ; |2205| 
    2966                                                      ; branchcc occurs ; |2205| 
    2967 0009b6       $C$DW$L$_xTaskResumeAll$6$E:
    2968 0009b6       $C$DW$L$_xTaskResumeAll$7$B:
    2969                      .dwpsn  file "../FreeRTOS/Source/tasks.c",line 2207,column 7,is_stmt
    2970 0009b6 E631          MOV #1, *(#_xYieldPending) ; |2207| 
         0009b8 0100 
         0009ba 0068-
    2971                      .dwpsn  file "../FreeRTOS/Source/tasks.c",line 2208,column 6,is_stmt
    2972 0009bc       $C$DW$L$_xTaskResumeAll$7$E:
    2973 0009bc       $C$L72:    
    2974 0009bc       $C$DW$L$_xTaskResumeAll$8$B:
    2975                      .dwpsn  file "../FreeRTOS/Source/tasks.c",line 2196,column 12,is_stmt
    2976 0009bc A931          MOV *(#_xPendingReadyList), AR1 ; |2196| 
         0009be 0000 
         0009c0 44-  
TMS320C55x Assembler PC v4.4.1 Sat Sep 08 17:11:34 2018

Tools Copyright (c) 1996-2012 Texas Instruments Incorporated
tasks.asm                                                            PAGE   67

    2977 0009c1 6219          BCC $C$L73,AR1 != #0 ; |2196| 
    2978                                                      ; branchcc occurs ; |2196| 
    2979 0009c3       $C$DW$L$_xTaskResumeAll$8$E:
    2980 0009c3       $C$DW$L$_xTaskResumeAll$9$B:
    2981 0009c3 3C19          MOV #1, AR1
    2982 0009c5 4A02          B $C$L74  ; |2196| 
    2983                                                      ; branch occurs ; |2196| 
    2984 0009c7       $C$DW$L$_xTaskResumeAll$9$E:
    2985 0009c7       $C$L73:    
    2986 0009c7       $C$DW$L$_xTaskResumeAll$10$B:
    2987 0009c7 3C09          MOV #0, AR1
    2988 0009c9       $C$DW$L$_xTaskResumeAll$10$E:
    2989 0009c9       $C$L74:    
    2990 0009c9       $C$DW$L$_xTaskResumeAll$11$B:
    2991 0009c9 6D09          BCC $C$L70,AR1 == #0 ; |2196| 
         0009cb FF7E 
    2992                                                      ; branchcc occurs ; |2196| 
    2993 0009cd       $C$DW$L$_xTaskResumeAll$11$E:
    2994                      .dwpsn  file "../FreeRTOS/Source/tasks.c",line 2215,column 5,is_stmt
    2995 0009cd ED00          MOV dbl(*SP(#0)), XAR3
         0009cf BF   
    2996 0009d0 90B0          MOV XAR3, AC0
    2997 0009d2 6180          BCC $C$L75,AC0 == #0 ; |2215| 
    2998                                                      ; branchcc occurs ; |2215| 
    2999                      .dwpsn  file "../FreeRTOS/Source/tasks.c",line 2223,column 6,is_stmt
    3000              $C$DW$232       .dwtag  DW_TAG_TI_branch
    3001                      .dwattr $C$DW$232, DW_AT_low_pc(0x00)
    3002                      .dwattr $C$DW$232, DW_AT_name("_prvResetNextTaskUnblockTime")
    3003                      .dwattr $C$DW$232, DW_AT_TI_call
    3004 0009d4 0807          CALL #_prvResetNextTaskUnblockTime ; |2223| 
         0009d6 21   
    3005                                                      ; call occurs [#_prvResetNextTaskUnblockTime] ; |2223| 
    3006 0009d7       $C$L75:    
    3007              
    3008              $C$DW$233       .dwtag  DW_TAG_lexical_block, DW_AT_low_pc(0x00), DW_AT_high_pc(0x00)
    3009              $C$DW$234       .dwtag  DW_TAG_variable, DW_AT_name("uxPendedCounts")
    3010                      .dwattr $C$DW$234, DW_AT_TI_symbol_name("_uxPendedCounts")
    3011                      .dwattr $C$DW$234, DW_AT_type(*$C$DW$T$25)
    3012                      .dwattr $C$DW$234, DW_AT_location[DW_OP_bregx 0x24 3]
    3013                      .dwpsn  file "../FreeRTOS/Source/tasks.c",line 2231,column 18,is_stmt
    3014 0009d7 A931          MOV *(#_uxPendedTicks), AR1 ; |2231| 
         0009d9 0000 
         0009db 67-  
    3015 0009dc C906          MOV AR1, *SP(#3) ; |2231| 
    3016                      .dwpsn  file "../FreeRTOS/Source/tasks.c",line 2233,column 6,is_stmt
    3017 0009de 0409          BCC $C$L78,AR1 == #0 ; |2233| 
         0009e0 1A   
    3018                                                      ; branchcc occurs ; |2233| 
    3019 0009e1       $C$L76:    
    3020 0009e1       $C$DW$L$_xTaskResumeAll$15$B:
    3021                      .dwpsn  file "../FreeRTOS/Source/tasks.c",line 2237,column 8,is_stmt
    3022              $C$DW$235       .dwtag  DW_TAG_TI_branch
    3023                      .dwattr $C$DW$235, DW_AT_low_pc(0x00)
    3024                      .dwattr $C$DW$235, DW_AT_name("_xTaskIncrementTick")
    3025                      .dwattr $C$DW$235, DW_AT_TI_call
TMS320C55x Assembler PC v4.4.1 Sat Sep 08 17:11:34 2018

Tools Copyright (c) 1996-2012 Texas Instruments Incorporated
tasks.asm                                                            PAGE   68

    3026 0009e1 0800          CALL #_xTaskIncrementTick ; |2237| 
         0009e3 C0   
    3027                                                      ; call occurs [#_xTaskIncrementTick] ; |2237| 
    3028 0009e4 6304          BCC $C$L77,T0 == #0 ; |2237| 
    3029                                                      ; branchcc occurs ; |2237| 
    3030 0009e6       $C$DW$L$_xTaskResumeAll$15$E:
    3031 0009e6       $C$DW$L$_xTaskResumeAll$16$B:
    3032                      .dwpsn  file "../FreeRTOS/Source/tasks.c",line 2239,column 9,is_stmt
    3033 0009e6 E631          MOV #1, *(#_xYieldPending) ; |2239| 
         0009e8 0100 
         0009ea 0068-
    3034                      .dwpsn  file "../FreeRTOS/Source/tasks.c",line 2240,column 8,is_stmt
    3035 0009ec       $C$DW$L$_xTaskResumeAll$16$E:
    3036 0009ec       $C$L77:    
    3037 0009ec       $C$DW$L$_xTaskResumeAll$17$B:
    3038                      .dwpsn  file "../FreeRTOS/Source/tasks.c",line 2245,column 8,is_stmt
    3039 0009ec F706          SUB #1, *SP(#3) ; |2245| 
         0009ee FFFF 
    3040                      .dwpsn  file "../FreeRTOS/Source/tasks.c",line 2246,column 16,is_stmt
    3041 0009f0 A906          MOV *SP(#3), AR1 ; |2246| 
    3042 0009f2 0419          BCC $C$L76,AR1 != #0 ; |2246| 
         0009f4 EC   
    3043                                                      ; branchcc occurs ; |2246| 
    3044 0009f5       $C$DW$L$_xTaskResumeAll$17$E:
    3045                      .dwpsn  file "../FreeRTOS/Source/tasks.c",line 2248,column 7,is_stmt
    3046 0009f5 E631          MOV #0, *(#_uxPendedTicks) ; |2248| 
         0009f7 0000 
         0009f9 0067-
    3047                      .dwpsn  file "../FreeRTOS/Source/tasks.c",line 2249,column 6,is_stmt
    3048              $C$L78:    
    3049                      .dwendtag $C$DW$233
    3050              
    3051                      .dwpsn  file "../FreeRTOS/Source/tasks.c",line 2256,column 5,is_stmt
    3052 0009fb A931          MOV *(#_xYieldPending), AR1 ; |2256| 
         0009fd 0000 
         0009ff 68-  
    3053 000a00 6489          BCC $C$L79,AR1 == #0 ; |2256| 
    3054                                                      ; branchcc occurs ; |2256| 
    3055                      .dwpsn  file "../FreeRTOS/Source/tasks.c",line 2260,column 7,is_stmt
    3056 000a02 E604          MOV #1, *SP(#2) ; |2260| 
         000a04 01   
    3057                      .dwpsn  file "../FreeRTOS/Source/tasks.c",line 2263,column 6,is_stmt
    3058              $C$DW$236       .dwtag  DW_TAG_TI_branch
    3059                      .dwattr $C$DW$236, DW_AT_low_pc(0x00)
    3060                      .dwattr $C$DW$236, DW_AT_name("_vPortYield")
    3061                      .dwattr $C$DW$236, DW_AT_TI_call
    3062 000a05 6C00          CALL #_vPortYield ; |2263| 
         000a07 0000!
    3063                                                      ; call occurs [#_vPortYield] ; |2263| 
    3064                      .dwpsn  file "../FreeRTOS/Source/tasks.c",line 2264,column 5,is_stmt
    3065 000a09 4A00          B $C$L79  ; |2264| 
    3066                                                      ; branch occurs ; |2264| 
    3067 000a0b       $C$L79:    
    3068                      .dwpsn  file "../FreeRTOS/Source/tasks.c",line 2276,column 2,is_stmt
    3069 000a0b A931          MOV *(#_usCriticalNesting), AR1 ; |2276| 
TMS320C55x Assembler PC v4.4.1 Sat Sep 08 17:11:34 2018

Tools Copyright (c) 1996-2012 Texas Instruments Incorporated
tasks.asm                                                            PAGE   69

         000a0d 0000 
         000a0f 00!  
    3070 000a10 0409          BCC $C$L80,AR1 == #0 ; |2276| 
         000a12 14   
    3071                                                      ; branchcc occurs ; |2276| 
    3072 000a13 F731          SUB #1, *(#_usCriticalNesting) ; |2276| 
         000a15 FFFF 
         000a17 0000 
         000a19 00!  
    3073 000a1a 20            NOP
    3074 000a1b 20            NOP
    3075 000a1c 20            NOP
    3076 000a1d A931          MOV *(#_usCriticalNesting), AR1 ; |2276| 
         000a1f 0000 
         000a21 00!  
    3077 000a22 6199          BCC $C$L80,AR1 != #0 ; |2276| 
    3078                                                      ; branchcc occurs ; |2276| 
    3079 000a24 20     nop
    3080 000a25 46B2   bclr INTM
    3081 000a27       $C$L80:    
    3082                      .dwpsn  file "../FreeRTOS/Source/tasks.c",line 2278,column 2,is_stmt
    3083 000a27 A404          MOV *SP(#2), T0 ; |2278| 
    3084                      .dwpsn  file "../FreeRTOS/Source/tasks.c",line 2279,column 1,is_stmt
    3085 000a29 4E05          AADD #5, SP
    3086                      .dwcfi  cfa_offset, 1
    3087              $C$DW$237       .dwtag  DW_TAG_TI_branch
    3088                      .dwattr $C$DW$237, DW_AT_low_pc(0x00)
    3089                      .dwattr $C$DW$237, DW_AT_TI_return
    3090 000a2b 4804          RET
    3091                                                      ; return occurs
    3092              
    3093              $C$DW$238       .dwtag  DW_TAG_TI_loop
    3094                      .dwattr $C$DW$238, DW_AT_name("F:\eZdsp_C55x_FreeRTOS_Port\eZDSP\eZDSP_5535_Files\ccsws2\test\Debug\t
    3095                      .dwattr $C$DW$238, DW_AT_TI_begin_file("../FreeRTOS/Source/tasks.c")
    3096                      .dwattr $C$DW$238, DW_AT_TI_begin_line(0x8bb)
    3097                      .dwattr $C$DW$238, DW_AT_TI_end_line(0x8c6)
    3098              $C$DW$239       .dwtag  DW_TAG_TI_loop_range
    3099                      .dwattr $C$DW$239, DW_AT_low_pc($C$DW$L$_xTaskResumeAll$15$B)
    3100                      .dwattr $C$DW$239, DW_AT_high_pc($C$DW$L$_xTaskResumeAll$15$E)
    3101              $C$DW$240       .dwtag  DW_TAG_TI_loop_range
    3102                      .dwattr $C$DW$240, DW_AT_low_pc($C$DW$L$_xTaskResumeAll$16$B)
    3103                      .dwattr $C$DW$240, DW_AT_high_pc($C$DW$L$_xTaskResumeAll$16$E)
    3104              $C$DW$241       .dwtag  DW_TAG_TI_loop_range
    3105                      .dwattr $C$DW$241, DW_AT_low_pc($C$DW$L$_xTaskResumeAll$17$B)
    3106                      .dwattr $C$DW$241, DW_AT_high_pc($C$DW$L$_xTaskResumeAll$17$E)
    3107                      .dwendtag $C$DW$238
    3108              
    3109              
    3110              $C$DW$242       .dwtag  DW_TAG_TI_loop
    3111                      .dwattr $C$DW$242, DW_AT_name("F:\eZdsp_C55x_FreeRTOS_Port\eZDSP\eZDSP_5535_Files\ccsws2\test\Debug\t
    3112                      .dwattr $C$DW$242, DW_AT_TI_begin_file("../FreeRTOS/Source/tasks.c")
    3113                      .dwattr $C$DW$242, DW_AT_TI_begin_line(0x894)
    3114                      .dwattr $C$DW$242, DW_AT_TI_end_line(0x8a0)
    3115              $C$DW$243       .dwtag  DW_TAG_TI_loop_range
    3116                      .dwattr $C$DW$243, DW_AT_low_pc($C$DW$L$_xTaskResumeAll$8$B)
TMS320C55x Assembler PC v4.4.1 Sat Sep 08 17:11:34 2018

Tools Copyright (c) 1996-2012 Texas Instruments Incorporated
tasks.asm                                                            PAGE   70

    3117                      .dwattr $C$DW$243, DW_AT_high_pc($C$DW$L$_xTaskResumeAll$8$E)
    3118              $C$DW$244       .dwtag  DW_TAG_TI_loop_range
    3119                      .dwattr $C$DW$244, DW_AT_low_pc($C$DW$L$_xTaskResumeAll$9$B)
    3120                      .dwattr $C$DW$244, DW_AT_high_pc($C$DW$L$_xTaskResumeAll$9$E)
    3121              $C$DW$245       .dwtag  DW_TAG_TI_loop_range
    3122                      .dwattr $C$DW$245, DW_AT_low_pc($C$DW$L$_xTaskResumeAll$10$B)
    3123                      .dwattr $C$DW$245, DW_AT_high_pc($C$DW$L$_xTaskResumeAll$10$E)
    3124              $C$DW$246       .dwtag  DW_TAG_TI_loop_range
    3125                      .dwattr $C$DW$246, DW_AT_low_pc($C$DW$L$_xTaskResumeAll$11$B)
    3126                      .dwattr $C$DW$246, DW_AT_high_pc($C$DW$L$_xTaskResumeAll$11$E)
    3127              $C$DW$247       .dwtag  DW_TAG_TI_loop_range
    3128                      .dwattr $C$DW$247, DW_AT_low_pc($C$DW$L$_xTaskResumeAll$4$B)
    3129                      .dwattr $C$DW$247, DW_AT_high_pc($C$DW$L$_xTaskResumeAll$4$E)
    3130              $C$DW$248       .dwtag  DW_TAG_TI_loop_range
    3131                      .dwattr $C$DW$248, DW_AT_low_pc($C$DW$L$_xTaskResumeAll$5$B)
    3132                      .dwattr $C$DW$248, DW_AT_high_pc($C$DW$L$_xTaskResumeAll$5$E)
