TMS320C55x Assembler PC v4.4.1 Sat Sep 08 17:11:34 2018

Tools Copyright (c) 1996-2012 Texas Instruments Incorporated
tasks.asm                                                            PAGE    1

    7824              ; Temporary Registers Used: None
       1              ;*******************************************************************************
       2              ;* TMS320C55x C/C++ Codegen                                          PC v4.4.1 *
       3              ;* Date/Time created: Sat Sep 08 17:11:31 2018                                 *
       4              ;*******************************************************************************
       5                      .compiler_opts --hll_source=on --mem_model:code=flat --mem_model:data=large --object_format=coff --si
       6                      .mmregs
       7                      .cpl_on
       8                      .arms_on
       9                      .c54cm_off
      10                      .asg AR6, FP
      11                      .asg XAR6, XFP
      12                      .asg DPH, MDP
      13                      .model call=c55_std
      14                      .model mem=large
      15                      .noremark 5002  ; code respects overwrite rules
      16              ;*******************************************************************************
      17              ;* GLOBAL FILE PARAMETERS                                                      *
      18              ;*                                                                             *
      19              ;*   Architecture       : TMS320C55x                                           *
      20              ;*   Optimizing for     : Speed                                                *
      21              ;*   Memory             : Large Model (23-Bit Data Pointers)                   *
      22              ;*   Calls              : Normal Library ASM calls                             *
      23              ;*   Debug Info         : Standard TI Debug Information                        *
      24              ;*******************************************************************************
      25              
      26              $C$DW$CU        .dwtag  DW_TAG_compile_unit
      27                      .dwattr $C$DW$CU, DW_AT_name("../FreeRTOS/Source/tasks.c")
      28                      .dwattr $C$DW$CU, DW_AT_producer("TMS320C55x C/C++ Codegen PC v4.4.1 Copyright (c) 1996-2012 Texas In
      29                      .dwattr $C$DW$CU, DW_AT_TI_version(0x01)
      30                      .dwattr $C$DW$CU, DW_AT_comp_dir("F:\eZdsp_C55x_FreeRTOS_Port\eZDSP\eZDSP_5535_Files\ccsws2\test\Debu
      31              ;******************************************************************************
      32              ;* CINIT RECORDS                                                              *
      33              ;******************************************************************************
      34 000000               .sect   ".cinit"
      35                      .align  1
      36 000000 0002          .field          2,16
      37 000001 0000-         .field          _pxCurrentTCB+0,24
         000002 0200 
      38 000002 0200          .field          0,8
      39 000003 0000          .field  0,32                    ; _pxCurrentTCB @ 0
         000004 0000 
      40              
      41 000005               .sect   ".cinit"
      42                      .align  1
      43 000005 0001          .field          1,16
      44 000006 0000-         .field          _uxDeletedTasksWaitingCleanUp+0,24
         000007 5800 
      45 000007 5800          .field          0,8
      46 000008 0000          .field  0,16                    ; _uxDeletedTasksWaitingCleanUp @ 0
      47              
      48 000009               .sect   ".cinit"
      49                      .align  1
      50 000009 0001          .field          1,16
      51 00000a 0000-         .field          _uxCurrentNumberOfTasks+0,24
TMS320C55x Assembler PC v4.4.1 Sat Sep 08 17:11:34 2018

Tools Copyright (c) 1996-2012 Texas Instruments Incorporated
tasks.asm                                                            PAGE    2

         00000b 5900 
      52 00000b 5900          .field          0,8
      53 00000c 0000          .field  0,16                    ; _uxCurrentNumberOfTasks @ 0
      54              
      55 00000d               .sect   ".cinit"
      56                      .align  1
      57 00000d 0001          .field          1,16
      58 00000e 0000-         .field          _xTickCount+0,24
         00000f 6400 
      59 00000f 6400          .field          0,8
      60 000010 0000          .field  0,16                    ; _xTickCount @ 0
      61              
      62 000011               .sect   ".cinit"
      63                      .align  1
      64 000011 0001          .field          1,16
      65 000012 0000-         .field          _uxTopReadyPriority+0,24
         000013 6500 
      66 000013 6500          .field          0,8
      67 000014 0000          .field  0,16                    ; _uxTopReadyPriority @ 0
      68              
      69 000015               .sect   ".cinit"
      70                      .align  1
      71 000015 0001          .field          1,16
      72 000016 0000-         .field          _xSchedulerRunning+0,24
         000017 6600 
      73 000017 6600          .field          0,8
      74 000018 0000          .field  0,16                    ; _xSchedulerRunning @ 0
      75              
      76 000019               .sect   ".cinit"
      77                      .align  1
      78 000019 0001          .field          1,16
      79 00001a 0000-         .field          _uxPendedTicks+0,24
         00001b 6700 
      80 00001b 6700          .field          0,8
      81 00001c 0000          .field  0,16                    ; _uxPendedTicks @ 0
      82              
      83 00001d               .sect   ".cinit"
      84                      .align  1
      85 00001d 0001          .field          1,16
      86 00001e 0000-         .field          _xYieldPending+0,24
         00001f 6800 
      87 00001f 6800          .field          0,8
      88 000020 0000          .field  0,16                    ; _xYieldPending @ 0
      89              
      90 000021               .sect   ".cinit"
      91                      .align  1
      92 000021 0001          .field          1,16
      93 000022 0000-         .field          _xNumOfOverflows+0,24
         000023 6900 
      94 000023 6900          .field          0,8
      95 000024 0000          .field  0,16                    ; _xNumOfOverflows @ 0
      96              
      97 000025               .sect   ".cinit"
      98                      .align  1
      99 000025 0001          .field          1,16
TMS320C55x Assembler PC v4.4.1 Sat Sep 08 17:11:34 2018

Tools Copyright (c) 1996-2012 Texas Instruments Incorporated
tasks.asm                                                            PAGE    3

     100 000026 0000-         .field          _uxTaskNumber+0,24
         000027 6A00 
     101 000027 6A00          .field          0,8
     102 000028 0000          .field  0,16                    ; _uxTaskNumber @ 0
     103              
     104 000029               .sect   ".cinit"
     105                      .align  1
     106 000029 0001          .field          1,16
     107 00002a 0000-         .field          _xNextTaskUnblockTime+0,24
         00002b 6B00 
     108 00002b 6B00          .field          0,8
     109 00002c 0000          .field  0,16                    ; _xNextTaskUnblockTime @ 0
     110              
     111 00002d               .sect   ".cinit"
     112                      .align  1
     113 00002d 0002          .field          2,16
     114 00002e 0000-         .field          _xIdleTaskHandle+0,24
         00002f 6C00 
     115 00002f 6C00          .field          0,8
     116 000030 0000          .field  0,32                    ; _xIdleTaskHandle @ 0
         000031 0000 
     117              
     118 000032               .sect   ".cinit"
     119                      .align  1
     120 000032 0001          .field          1,16
     121 000033 0000-         .field          _uxSchedulerSuspended+0,24
         000034 6E00 
     122 000034 6E00          .field          0,8
     123 000035 0000          .field  0,16                    ; _uxSchedulerSuspended @ 0
     124              
     125              
     126              $C$DW$1 .dwtag  DW_TAG_subprogram, DW_AT_name("memset")
     127                      .dwattr $C$DW$1, DW_AT_TI_symbol_name("_memset")
     128                      .dwattr $C$DW$1, DW_AT_type(*$C$DW$T$3)
     129                      .dwattr $C$DW$1, DW_AT_declaration
     130                      .dwattr $C$DW$1, DW_AT_external
     131              $C$DW$2 .dwtag  DW_TAG_formal_parameter
     132                      .dwattr $C$DW$2, DW_AT_type(*$C$DW$T$3)
     133              $C$DW$3 .dwtag  DW_TAG_formal_parameter
     134                      .dwattr $C$DW$3, DW_AT_type(*$C$DW$T$10)
     135              $C$DW$4 .dwtag  DW_TAG_formal_parameter
     136                      .dwattr $C$DW$4, DW_AT_type(*$C$DW$T$48)
     137                      .dwendtag $C$DW$1
     138              
     139              
     140              $C$DW$5 .dwtag  DW_TAG_subprogram, DW_AT_name("vPortYield")
     141                      .dwattr $C$DW$5, DW_AT_TI_symbol_name("_vPortYield")
     142                      .dwattr $C$DW$5, DW_AT_declaration
     143                      .dwattr $C$DW$5, DW_AT_external
     144              
     145              $C$DW$6 .dwtag  DW_TAG_subprogram, DW_AT_name("pxPortInitialiseStack")
     146                      .dwattr $C$DW$6, DW_AT_TI_symbol_name("_pxPortInitialiseStack")
     147                      .dwattr $C$DW$6, DW_AT_type(*$C$DW$T$26)
     148                      .dwattr $C$DW$6, DW_AT_declaration
     149                      .dwattr $C$DW$6, DW_AT_external
TMS320C55x Assembler PC v4.4.1 Sat Sep 08 17:11:34 2018

Tools Copyright (c) 1996-2012 Texas Instruments Incorporated
tasks.asm                                                            PAGE    4

     150              $C$DW$7 .dwtag  DW_TAG_formal_parameter
     151                      .dwattr $C$DW$7, DW_AT_type(*$C$DW$T$26)
     152              $C$DW$8 .dwtag  DW_TAG_formal_parameter
     153                      .dwattr $C$DW$8, DW_AT_type(*$C$DW$T$26)
     154              $C$DW$9 .dwtag  DW_TAG_formal_parameter
     155                      .dwattr $C$DW$9, DW_AT_type(*$C$DW$T$58)
     156              $C$DW$10        .dwtag  DW_TAG_formal_parameter
     157                      .dwattr $C$DW$10, DW_AT_type(*$C$DW$T$3)
     158                      .dwendtag $C$DW$6
     159              
     160              
     161              $C$DW$11        .dwtag  DW_TAG_subprogram, DW_AT_name("pvPortMalloc")
     162                      .dwattr $C$DW$11, DW_AT_TI_symbol_name("_pvPortMalloc")
     163                      .dwattr $C$DW$11, DW_AT_type(*$C$DW$T$3)
     164                      .dwattr $C$DW$11, DW_AT_declaration
     165                      .dwattr $C$DW$11, DW_AT_external
     166              $C$DW$12        .dwtag  DW_TAG_formal_parameter
     167                      .dwattr $C$DW$12, DW_AT_type(*$C$DW$T$48)
     168                      .dwendtag $C$DW$11
     169              
     170              
     171              $C$DW$13        .dwtag  DW_TAG_subprogram, DW_AT_name("vPortFree")
     172                      .dwattr $C$DW$13, DW_AT_TI_symbol_name("_vPortFree")
     173                      .dwattr $C$DW$13, DW_AT_declaration
     174                      .dwattr $C$DW$13, DW_AT_external
     175              $C$DW$14        .dwtag  DW_TAG_formal_parameter
     176                      .dwattr $C$DW$14, DW_AT_type(*$C$DW$T$3)
     177                      .dwendtag $C$DW$13
     178              
     179              
     180              $C$DW$15        .dwtag  DW_TAG_subprogram, DW_AT_name("xPortStartScheduler")
     181                      .dwattr $C$DW$15, DW_AT_TI_symbol_name("_xPortStartScheduler")
     182                      .dwattr $C$DW$15, DW_AT_type(*$C$DW$T$44)
     183                      .dwattr $C$DW$15, DW_AT_declaration
     184                      .dwattr $C$DW$15, DW_AT_external
     185              
     186              $C$DW$16        .dwtag  DW_TAG_subprogram, DW_AT_name("vPortEndScheduler")
     187                      .dwattr $C$DW$16, DW_AT_TI_symbol_name("_vPortEndScheduler")
     188                      .dwattr $C$DW$16, DW_AT_declaration
     189                      .dwattr $C$DW$16, DW_AT_external
     190              
     191              $C$DW$17        .dwtag  DW_TAG_subprogram, DW_AT_name("vListInitialise")
     192                      .dwattr $C$DW$17, DW_AT_TI_symbol_name("_vListInitialise")
     193                      .dwattr $C$DW$17, DW_AT_declaration
     194                      .dwattr $C$DW$17, DW_AT_external
     195              $C$DW$18        .dwtag  DW_TAG_formal_parameter
     196                      .dwattr $C$DW$18, DW_AT_type(*$C$DW$T$61)
     197                      .dwendtag $C$DW$17
     198              
     199              
     200              $C$DW$19        .dwtag  DW_TAG_subprogram, DW_AT_name("vListInitialiseItem")
     201                      .dwattr $C$DW$19, DW_AT_TI_symbol_name("_vListInitialiseItem")
     202                      .dwattr $C$DW$19, DW_AT_declaration
     203                      .dwattr $C$DW$19, DW_AT_external
     204              $C$DW$20        .dwtag  DW_TAG_formal_parameter
TMS320C55x Assembler PC v4.4.1 Sat Sep 08 17:11:34 2018

Tools Copyright (c) 1996-2012 Texas Instruments Incorporated
tasks.asm                                                            PAGE    5

     205                      .dwattr $C$DW$20, DW_AT_type(*$C$DW$T$64)
     206                      .dwendtag $C$DW$19
     207              
     208              
     209              $C$DW$21        .dwtag  DW_TAG_subprogram, DW_AT_name("vListInsert")
     210                      .dwattr $C$DW$21, DW_AT_TI_symbol_name("_vListInsert")
     211                      .dwattr $C$DW$21, DW_AT_declaration
     212                      .dwattr $C$DW$21, DW_AT_external
     213              $C$DW$22        .dwtag  DW_TAG_formal_parameter
     214                      .dwattr $C$DW$22, DW_AT_type(*$C$DW$T$61)
     215              $C$DW$23        .dwtag  DW_TAG_formal_parameter
     216                      .dwattr $C$DW$23, DW_AT_type(*$C$DW$T$64)
     217                      .dwendtag $C$DW$21
     218              
     219              
     220              $C$DW$24        .dwtag  DW_TAG_subprogram, DW_AT_name("vListInsertEnd")
     221                      .dwattr $C$DW$24, DW_AT_TI_symbol_name("_vListInsertEnd")
     222                      .dwattr $C$DW$24, DW_AT_declaration
     223                      .dwattr $C$DW$24, DW_AT_external
     224              $C$DW$25        .dwtag  DW_TAG_formal_parameter
     225                      .dwattr $C$DW$25, DW_AT_type(*$C$DW$T$61)
     226              $C$DW$26        .dwtag  DW_TAG_formal_parameter
     227                      .dwattr $C$DW$26, DW_AT_type(*$C$DW$T$64)
     228                      .dwendtag $C$DW$24
     229              
     230              
     231              $C$DW$27        .dwtag  DW_TAG_subprogram, DW_AT_name("uxListRemove")
     232                      .dwattr $C$DW$27, DW_AT_TI_symbol_name("_uxListRemove")
     233                      .dwattr $C$DW$27, DW_AT_type(*$C$DW$T$25)
     234                      .dwattr $C$DW$27, DW_AT_declaration
     235                      .dwattr $C$DW$27, DW_AT_external
     236              $C$DW$28        .dwtag  DW_TAG_formal_parameter
     237                      .dwattr $C$DW$28, DW_AT_type(*$C$DW$T$64)
     238                      .dwendtag $C$DW$27
     239              
     240              
     241              $C$DW$29        .dwtag  DW_TAG_subprogram, DW_AT_name("vApplicationStackOverflowHook")
     242                      .dwattr $C$DW$29, DW_AT_TI_symbol_name("_vApplicationStackOverflowHook")
     243                      .dwattr $C$DW$29, DW_AT_declaration
     244                      .dwattr $C$DW$29, DW_AT_external
     245              $C$DW$30        .dwtag  DW_TAG_formal_parameter
     246                      .dwattr $C$DW$30, DW_AT_type(*$C$DW$T$70)
     247              $C$DW$31        .dwtag  DW_TAG_formal_parameter
     248                      .dwattr $C$DW$31, DW_AT_type(*$C$DW$T$71)
     249                      .dwendtag $C$DW$29
     250              
     251              
     252              $C$DW$32        .dwtag  DW_TAG_subprogram, DW_AT_name("vApplicationIdleHook")
     253                      .dwattr $C$DW$32, DW_AT_TI_symbol_name("_vApplicationIdleHook")
     254                      .dwattr $C$DW$32, DW_AT_declaration
     255                      .dwattr $C$DW$32, DW_AT_external
     256                      .global _stackStruct
     257 000000               .bss    _stackStruct,2,0,2
     258              $C$DW$33        .dwtag  DW_TAG_variable, DW_AT_name("stackStruct")
     259                      .dwattr $C$DW$33, DW_AT_TI_symbol_name("_stackStruct")
TMS320C55x Assembler PC v4.4.1 Sat Sep 08 17:11:34 2018

Tools Copyright (c) 1996-2012 Texas Instruments Incorporated
tasks.asm                                                            PAGE    6

     260                      .dwattr $C$DW$33, DW_AT_location[DW_OP_addr _stackStruct]
     261                      .dwattr $C$DW$33, DW_AT_type(*$C$DW$T$154)
     262                      .dwattr $C$DW$33, DW_AT_external
     263                      .global _pxCurrentTCB
     264 000002               .bss    _pxCurrentTCB,2,0,2
     265              $C$DW$34        .dwtag  DW_TAG_variable, DW_AT_name("pxCurrentTCB")
     266                      .dwattr $C$DW$34, DW_AT_TI_symbol_name("_pxCurrentTCB")
     267                      .dwattr $C$DW$34, DW_AT_location[DW_OP_addr _pxCurrentTCB]
     268                      .dwattr $C$DW$34, DW_AT_type(*$C$DW$T$158)
     269                      .dwattr $C$DW$34, DW_AT_external
     270 000004               .bss    _pxReadyTasksLists,40,0,2
     271              $C$DW$35        .dwtag  DW_TAG_variable, DW_AT_name("pxReadyTasksLists")
     272                      .dwattr $C$DW$35, DW_AT_TI_symbol_name("_pxReadyTasksLists")
     273                      .dwattr $C$DW$35, DW_AT_type(*$C$DW$T$161)
     274                      .dwattr $C$DW$35, DW_AT_location[DW_OP_addr _pxReadyTasksLists]
     275 00002c               .bss    _xDelayedTaskList1,10,0,2
     276              $C$DW$36        .dwtag  DW_TAG_variable, DW_AT_name("xDelayedTaskList1")
     277                      .dwattr $C$DW$36, DW_AT_TI_symbol_name("_xDelayedTaskList1")
     278                      .dwattr $C$DW$36, DW_AT_type(*$C$DW$T$59)
     279                      .dwattr $C$DW$36, DW_AT_location[DW_OP_addr _xDelayedTaskList1]
     280 000036               .bss    _xDelayedTaskList2,10,0,2
     281              $C$DW$37        .dwtag  DW_TAG_variable, DW_AT_name("xDelayedTaskList2")
     282                      .dwattr $C$DW$37, DW_AT_TI_symbol_name("_xDelayedTaskList2")
     283                      .dwattr $C$DW$37, DW_AT_type(*$C$DW$T$59)
     284                      .dwattr $C$DW$37, DW_AT_location[DW_OP_addr _xDelayedTaskList2]
     285 000040               .bss    _pxDelayedTaskList,2,0,2
     286              $C$DW$38        .dwtag  DW_TAG_variable, DW_AT_name("pxDelayedTaskList")
     287                      .dwattr $C$DW$38, DW_AT_TI_symbol_name("_pxDelayedTaskList")
     288                      .dwattr $C$DW$38, DW_AT_type(*$C$DW$T$160)
     289                      .dwattr $C$DW$38, DW_AT_location[DW_OP_addr _pxDelayedTaskList]
     290 000042               .bss    _pxOverflowDelayedTaskList,2,0,2
     291              $C$DW$39        .dwtag  DW_TAG_variable, DW_AT_name("pxOverflowDelayedTaskList")
     292                      .dwattr $C$DW$39, DW_AT_TI_symbol_name("_pxOverflowDelayedTaskList")
     293                      .dwattr $C$DW$39, DW_AT_type(*$C$DW$T$160)
     294                      .dwattr $C$DW$39, DW_AT_location[DW_OP_addr _pxOverflowDelayedTaskList]
     295 000044               .bss    _xPendingReadyList,10,0,2
     296              $C$DW$40        .dwtag  DW_TAG_variable, DW_AT_name("xPendingReadyList")
     297                      .dwattr $C$DW$40, DW_AT_TI_symbol_name("_xPendingReadyList")
     298                      .dwattr $C$DW$40, DW_AT_type(*$C$DW$T$59)
     299                      .dwattr $C$DW$40, DW_AT_location[DW_OP_addr _xPendingReadyList]
     300 00004e               .bss    _xTasksWaitingTermination,10,0,2
     301              $C$DW$41        .dwtag  DW_TAG_variable, DW_AT_name("xTasksWaitingTermination")
     302                      .dwattr $C$DW$41, DW_AT_TI_symbol_name("_xTasksWaitingTermination")
     303                      .dwattr $C$DW$41, DW_AT_type(*$C$DW$T$59)
     304                      .dwattr $C$DW$41, DW_AT_location[DW_OP_addr _xTasksWaitingTermination]
     305 000058               .bss    _uxDeletedTasksWaitingCleanUp,1,0,0
     306              $C$DW$42        .dwtag  DW_TAG_variable, DW_AT_name("uxDeletedTasksWaitingCleanUp")
     307                      .dwattr $C$DW$42, DW_AT_TI_symbol_name("_uxDeletedTasksWaitingCleanUp")
     308                      .dwattr $C$DW$42, DW_AT_type(*$C$DW$T$34)
     309                      .dwattr $C$DW$42, DW_AT_location[DW_OP_addr _uxDeletedTasksWaitingCleanUp]
     310 00005a               .bss    _xSuspendedTaskList,10,0,2
     311              $C$DW$43        .dwtag  DW_TAG_variable, DW_AT_name("xSuspendedTaskList")
     312                      .dwattr $C$DW$43, DW_AT_TI_symbol_name("_xSuspendedTaskList")
     313                      .dwattr $C$DW$43, DW_AT_type(*$C$DW$T$59)
     314                      .dwattr $C$DW$43, DW_AT_location[DW_OP_addr _xSuspendedTaskList]
TMS320C55x Assembler PC v4.4.1 Sat Sep 08 17:11:34 2018

Tools Copyright (c) 1996-2012 Texas Instruments Incorporated
tasks.asm                                                            PAGE    7

     315 000059               .bss    _uxCurrentNumberOfTasks,1,0,0
     316              $C$DW$44        .dwtag  DW_TAG_variable, DW_AT_name("uxCurrentNumberOfTasks")
     317                      .dwattr $C$DW$44, DW_AT_TI_symbol_name("_uxCurrentNumberOfTasks")
     318                      .dwattr $C$DW$44, DW_AT_type(*$C$DW$T$34)
     319                      .dwattr $C$DW$44, DW_AT_location[DW_OP_addr _uxCurrentNumberOfTasks]
     320 000064               .bss    _xTickCount,1,0,0
     321              $C$DW$45        .dwtag  DW_TAG_variable, DW_AT_name("xTickCount")
     322                      .dwattr $C$DW$45, DW_AT_TI_symbol_name("_xTickCount")
     323                      .dwattr $C$DW$45, DW_AT_type(*$C$DW$T$142)
     324                      .dwattr $C$DW$45, DW_AT_location[DW_OP_addr _xTickCount]
     325 000065               .bss    _uxTopReadyPriority,1,0,0
     326              $C$DW$46        .dwtag  DW_TAG_variable, DW_AT_name("uxTopReadyPriority")
     327                      .dwattr $C$DW$46, DW_AT_TI_symbol_name("_uxTopReadyPriority")
     328                      .dwattr $C$DW$46, DW_AT_type(*$C$DW$T$34)
     329                      .dwattr $C$DW$46, DW_AT_location[DW_OP_addr _uxTopReadyPriority]
     330 000066               .bss    _xSchedulerRunning,1,0,0
     331              $C$DW$47        .dwtag  DW_TAG_variable, DW_AT_name("xSchedulerRunning")
     332                      .dwattr $C$DW$47, DW_AT_TI_symbol_name("_xSchedulerRunning")
     333                      .dwattr $C$DW$47, DW_AT_type(*$C$DW$T$114)
     334                      .dwattr $C$DW$47, DW_AT_location[DW_OP_addr _xSchedulerRunning]
     335 000067               .bss    _uxPendedTicks,1,0,0
     336              $C$DW$48        .dwtag  DW_TAG_variable, DW_AT_name("uxPendedTicks")
     337                      .dwattr $C$DW$48, DW_AT_TI_symbol_name("_uxPendedTicks")
     338                      .dwattr $C$DW$48, DW_AT_type(*$C$DW$T$34)
     339                      .dwattr $C$DW$48, DW_AT_location[DW_OP_addr _uxPendedTicks]
     340 000068               .bss    _xYieldPending,1,0,0
     341              $C$DW$49        .dwtag  DW_TAG_variable, DW_AT_name("xYieldPending")
     342                      .dwattr $C$DW$49, DW_AT_TI_symbol_name("_xYieldPending")
     343                      .dwattr $C$DW$49, DW_AT_type(*$C$DW$T$114)
     344                      .dwattr $C$DW$49, DW_AT_location[DW_OP_addr _xYieldPending]
     345 000069               .bss    _xNumOfOverflows,1,0,0
     346              $C$DW$50        .dwtag  DW_TAG_variable, DW_AT_name("xNumOfOverflows")
     347                      .dwattr $C$DW$50, DW_AT_TI_symbol_name("_xNumOfOverflows")
     348                      .dwattr $C$DW$50, DW_AT_type(*$C$DW$T$114)
     349                      .dwattr $C$DW$50, DW_AT_location[DW_OP_addr _xNumOfOverflows]
     350 00006a               .bss    _uxTaskNumber,1,0,0
     351              $C$DW$51        .dwtag  DW_TAG_variable, DW_AT_name("uxTaskNumber")
     352                      .dwattr $C$DW$51, DW_AT_TI_symbol_name("_uxTaskNumber")
     353                      .dwattr $C$DW$51, DW_AT_type(*$C$DW$T$25)
     354                      .dwattr $C$DW$51, DW_AT_location[DW_OP_addr _uxTaskNumber]
     355 00006b               .bss    _xNextTaskUnblockTime,1,0,0
     356              $C$DW$52        .dwtag  DW_TAG_variable, DW_AT_name("xNextTaskUnblockTime")
     357                      .dwattr $C$DW$52, DW_AT_TI_symbol_name("_xNextTaskUnblockTime")
     358                      .dwattr $C$DW$52, DW_AT_type(*$C$DW$T$142)
     359                      .dwattr $C$DW$52, DW_AT_location[DW_OP_addr _xNextTaskUnblockTime]
     360 00006c               .bss    _xIdleTaskHandle,2,0,2
     361              $C$DW$53        .dwtag  DW_TAG_variable, DW_AT_name("xIdleTaskHandle")
     362                      .dwattr $C$DW$53, DW_AT_TI_symbol_name("_xIdleTaskHandle")
     363                      .dwattr $C$DW$53, DW_AT_type(*$C$DW$T$70)
     364                      .dwattr $C$DW$53, DW_AT_location[DW_OP_addr _xIdleTaskHandle]
     365 00006e               .bss    _uxSchedulerSuspended,1,0,0
     366              $C$DW$54        .dwtag  DW_TAG_variable, DW_AT_name("uxSchedulerSuspended")
     367                      .dwattr $C$DW$54, DW_AT_TI_symbol_name("_uxSchedulerSuspended")
     368                      .dwattr $C$DW$54, DW_AT_type(*$C$DW$T$34)
     369                      .dwattr $C$DW$54, DW_AT_location[DW_OP_addr _uxSchedulerSuspended]
TMS320C55x Assembler PC v4.4.1 Sat Sep 08 17:11:34 2018

Tools Copyright (c) 1996-2012 Texas Instruments Incorporated
tasks.asm                                                            PAGE    8

     370              $C$DW$55        .dwtag  DW_TAG_variable, DW_AT_name("usCriticalNesting")
     371                      .dwattr $C$DW$55, DW_AT_TI_symbol_name("_usCriticalNesting")
     372                      .dwattr $C$DW$55, DW_AT_type(*$C$DW$T$144)
     373                      .dwattr $C$DW$55, DW_AT_declaration
     374                      .dwattr $C$DW$55, DW_AT_external
     375              ;       F:\TI_CCS_7P4\ccsv7\tools\compiler\c5500_4.4.1\bin\acp55.exe -@f:\\AppData\\Local\\Temp\\0743212 
     376 000000               .sect   ".text"
     377                      .align 4
     378                      .global _xTaskCreate
     379              
     380              $C$DW$56        .dwtag  DW_TAG_subprogram, DW_AT_name("xTaskCreate")
     381                      .dwattr $C$DW$56, DW_AT_low_pc(_xTaskCreate)
     382                      .dwattr $C$DW$56, DW_AT_high_pc(0x00)
     383                      .dwattr $C$DW$56, DW_AT_TI_symbol_name("_xTaskCreate")
     384                      .dwattr $C$DW$56, DW_AT_external
     385                      .dwattr $C$DW$56, DW_AT_type(*$C$DW$T$44)
     386                      .dwattr $C$DW$56, DW_AT_TI_begin_file("../FreeRTOS/Source/tasks.c")
     387                      .dwattr $C$DW$56, DW_AT_TI_begin_line(0x2f4)
     388                      .dwattr $C$DW$56, DW_AT_TI_begin_column(0x0d)
     389                      .dwattr $C$DW$56, DW_AT_TI_max_frame_size(0x16)
     390                      .dwpsn  file "../FreeRTOS/Source/tasks.c",line 762,column 2,is_stmt,address _xTaskCreate
     391              
     392                      .dwfde $C$DW$CIE, _xTaskCreate
     393              $C$DW$57        .dwtag  DW_TAG_formal_parameter, DW_AT_name("pxTaskCode")
     394                      .dwattr $C$DW$57, DW_AT_TI_symbol_name("_pxTaskCode")
     395                      .dwattr $C$DW$57, DW_AT_type(*$C$DW$T$58)
     396                      .dwattr $C$DW$57, DW_AT_location[DW_OP_reg1]
     397              $C$DW$58        .dwtag  DW_TAG_formal_parameter, DW_AT_name("pcName")
     398                      .dwattr $C$DW$58, DW_AT_TI_symbol_name("_pcName")
     399                      .dwattr $C$DW$58, DW_AT_type(*$C$DW$T$76)
     400                      .dwattr $C$DW$58, DW_AT_location[DW_OP_reg17]
     401              $C$DW$59        .dwtag  DW_TAG_formal_parameter, DW_AT_name("usStackDepth")
     402                      .dwattr $C$DW$59, DW_AT_TI_symbol_name("_usStackDepth")
     403                      .dwattr $C$DW$59, DW_AT_type(*$C$DW$T$118)
     404                      .dwattr $C$DW$59, DW_AT_location[DW_OP_reg12]
     405              $C$DW$60        .dwtag  DW_TAG_formal_parameter, DW_AT_name("pvParameters")
     406                      .dwattr $C$DW$60, DW_AT_TI_symbol_name("_pvParameters")
     407                      .dwattr $C$DW$60, DW_AT_type(*$C$DW$T$53)
     408                      .dwattr $C$DW$60, DW_AT_location[DW_OP_reg19]
     409              $C$DW$61        .dwtag  DW_TAG_formal_parameter, DW_AT_name("uxPriority")
     410                      .dwattr $C$DW$61, DW_AT_TI_symbol_name("_uxPriority")
     411                      .dwattr $C$DW$61, DW_AT_type(*$C$DW$T$25)
     412                      .dwattr $C$DW$61, DW_AT_location[DW_OP_reg13]
     413              $C$DW$62        .dwtag  DW_TAG_formal_parameter, DW_AT_name("pxCreatedTask")
     414                      .dwattr $C$DW$62, DW_AT_TI_symbol_name("_pxCreatedTask")
     415                      .dwattr $C$DW$62, DW_AT_type(*$C$DW$T$79)
     416                      .dwattr $C$DW$62, DW_AT_location[DW_OP_reg21]
     417              ;*******************************************************************************
     418              ;* FUNCTION NAME: xTaskCreate                                                  *
     419              ;*                                                                             *
     420              ;*   Function Uses Regs : AC0,AC0,AC1,AC1,T0,T1,AR0,XAR0,AR1,XAR1,AR2,XAR2,AR3,*
     421              ;*                        XAR3,AR4,XAR4,SP,M40,SATA,SATD,RDM,FRCT,SMUL         *
     422              ;*   Stack Frame        : Compact (No Frame Pointer, w/ debug)                 *
     423              ;*   Total Frame Size   : 22 words                                             *
     424              ;*                        (2 return address/alignment)                         *
TMS320C55x Assembler PC v4.4.1 Sat Sep 08 17:11:34 2018

Tools Copyright (c) 1996-2012 Texas Instruments Incorporated
tasks.asm                                                            PAGE    9

     425              ;*                        (20 local values)                                    *
     426              ;*   Min System Stack   : 1 word                                               *
     427              ;*******************************************************************************
     428 000000       _xTaskCreate:
     429                      .dwcfi  cfa_offset, 1
     430                      .dwcfi  save_reg_to_mem, 91, -1
     431 000000 4EEB          AADD #-21, SP
     432                      .dwcfi  cfa_offset, 22
     433              $C$DW$63        .dwtag  DW_TAG_variable, DW_AT_name("pxTaskCode")
     434                      .dwattr $C$DW$63, DW_AT_TI_symbol_name("_pxTaskCode")
     435                      .dwattr $C$DW$63, DW_AT_type(*$C$DW$T$58)
     436                      .dwattr $C$DW$63, DW_AT_location[DW_OP_bregx 0x24 0]
     437              $C$DW$64        .dwtag  DW_TAG_variable, DW_AT_name("pcName")
     438                      .dwattr $C$DW$64, DW_AT_TI_symbol_name("_pcName")
     439                      .dwattr $C$DW$64, DW_AT_type(*$C$DW$T$76)
     440                      .dwattr $C$DW$64, DW_AT_location[DW_OP_bregx 0x24 2]
     441              $C$DW$65        .dwtag  DW_TAG_variable, DW_AT_name("usStackDepth")
     442                      .dwattr $C$DW$65, DW_AT_TI_symbol_name("_usStackDepth")
     443                      .dwattr $C$DW$65, DW_AT_type(*$C$DW$T$118)
     444                      .dwattr $C$DW$65, DW_AT_location[DW_OP_bregx 0x24 4]
     445              $C$DW$66        .dwtag  DW_TAG_variable, DW_AT_name("pvParameters")
     446                      .dwattr $C$DW$66, DW_AT_TI_symbol_name("_pvParameters")
     447                      .dwattr $C$DW$66, DW_AT_type(*$C$DW$T$53)
     448                      .dwattr $C$DW$66, DW_AT_location[DW_OP_bregx 0x24 6]
     449              $C$DW$67        .dwtag  DW_TAG_variable, DW_AT_name("uxPriority")
     450                      .dwattr $C$DW$67, DW_AT_TI_symbol_name("_uxPriority")
     451                      .dwattr $C$DW$67, DW_AT_type(*$C$DW$T$25)
     452                      .dwattr $C$DW$67, DW_AT_location[DW_OP_bregx 0x24 8]
     453              $C$DW$68        .dwtag  DW_TAG_variable, DW_AT_name("pxCreatedTask")
     454                      .dwattr $C$DW$68, DW_AT_TI_symbol_name("_pxCreatedTask")
     455                      .dwattr $C$DW$68, DW_AT_type(*$C$DW$T$79)
     456                      .dwattr $C$DW$68, DW_AT_location[DW_OP_bregx 0x24 10]
     457              $C$DW$69        .dwtag  DW_TAG_variable, DW_AT_name("pxNewTCB")
     458                      .dwattr $C$DW$69, DW_AT_TI_symbol_name("_pxNewTCB")
     459                      .dwattr $C$DW$69, DW_AT_type(*$C$DW$T$82)
     460                      .dwattr $C$DW$69, DW_AT_location[DW_OP_bregx 0x24 12]
     461              $C$DW$70        .dwtag  DW_TAG_variable, DW_AT_name("xReturn")
     462                      .dwattr $C$DW$70, DW_AT_TI_symbol_name("_xReturn")
     463                      .dwattr $C$DW$70, DW_AT_type(*$C$DW$T$44)
     464                      .dwattr $C$DW$70, DW_AT_location[DW_OP_bregx 0x24 14]
     465 000002 EB14          MOV XAR2, dbl(*SP(#10))
         000004 A5   
     466 000005 C510          MOV T1, *SP(#8) ; |762| 
     467 000007 EB0C          MOV XAR1, dbl(*SP(#6))
         000009 95   
     468 00000a C408          MOV T0, *SP(#4) ; |762| 
     469 00000c EB04          MOV XAR0, dbl(*SP(#2))
         00000e 85   
     470 00000f EB00          MOV AC0, dbl(*SP(#0)) ; |762| 
         000011 08   
     471              
     472              $C$DW$71        .dwtag  DW_TAG_lexical_block, DW_AT_low_pc(0x00), DW_AT_high_pc(0x00)
     473              $C$DW$72        .dwtag  DW_TAG_variable, DW_AT_name("pxStack")
     474                      .dwattr $C$DW$72, DW_AT_TI_symbol_name("_pxStack")
     475                      .dwattr $C$DW$72, DW_AT_type(*$C$DW$T$26)
TMS320C55x Assembler PC v4.4.1 Sat Sep 08 17:11:34 2018

Tools Copyright (c) 1996-2012 Texas Instruments Incorporated
tasks.asm                                                            PAGE   10

     476                      .dwattr $C$DW$72, DW_AT_location[DW_OP_bregx 0x24 16]
     477              $C$DW$73        .dwtag  DW_TAG_variable, DW_AT_name("pxSysStack")
     478                      .dwattr $C$DW$73, DW_AT_TI_symbol_name("_pxSysStack")
     479                      .dwattr $C$DW$73, DW_AT_type(*$C$DW$T$26)
     480                      .dwattr $C$DW$73, DW_AT_location[DW_OP_bregx 0x24 18]
     481                      .dwpsn  file "../FreeRTOS/Source/tasks.c",line 800,column 4,is_stmt
     482 000012 A408          MOV *SP(#4), T0 ; |800| 
     483              $C$DW$74        .dwtag  DW_TAG_TI_branch
     484                      .dwattr $C$DW$74, DW_AT_low_pc(0x00)
     485                      .dwattr $C$DW$74, DW_AT_name("_pvPortMalloc")
     486                      .dwattr $C$DW$74, DW_AT_TI_call
     487 000014 6C00          CALL #_pvPortMalloc ; |800| 
         000016 0000!
     488                                                      ; call occurs [#_pvPortMalloc] ; |800| 
     489 000018 EB20          MOV XAR0, dbl(*SP(#16))
         00001a 85   
     490                      .dwpsn  file "../FreeRTOS/Source/tasks.c",line 801,column 4,is_stmt
     491 00001b A408          MOV *SP(#4), T0 ; |801| 
     492              $C$DW$75        .dwtag  DW_TAG_TI_branch
     493                      .dwattr $C$DW$75, DW_AT_low_pc(0x00)
     494                      .dwattr $C$DW$75, DW_AT_name("_pvPortMalloc")
     495                      .dwattr $C$DW$75, DW_AT_TI_call
     496 00001d 6C00          CALL #_pvPortMalloc ; |801| 
         00001f 0000!
     497                                                      ; call occurs [#_pvPortMalloc] ; |801| 
     498 000021 EB24          MOV XAR0, dbl(*SP(#18))
         000023 85   
     499                      .dwpsn  file "../FreeRTOS/Source/tasks.c",line 803,column 4,is_stmt
     500 000024 ED20          MOV dbl(*SP(#16)), XAR3
         000026 BF   
     501 000027 90B0          MOV XAR3, AC0
     502 000029 0400          BCC $C$L2,AC0 == #0 ; |803| 
         00002b 43   
     503                                                      ; branchcc occurs ; |803| 
     504 00002c ED24          MOV dbl(*SP(#18)), XAR3
         00002e BF   
     505 00002f 90B0          MOV XAR3, AC0
     506 000031 0400          BCC $C$L2,AC0 == #0 ; |803| 
         000033 3B   
     507                                                      ; branchcc occurs ; |803| 
     508                      .dwpsn  file "../FreeRTOS/Source/tasks.c",line 806,column 5,is_stmt
     509 000034 7600          MOV #46, T0 ; |806| 
         000036 2E48 
     510              $C$DW$76        .dwtag  DW_TAG_TI_branch
     511                      .dwattr $C$DW$76, DW_AT_low_pc(0x00)
     512                      .dwattr $C$DW$76, DW_AT_name("_pvPortMalloc")
     513                      .dwattr $C$DW$76, DW_AT_TI_call
     514 000038 6C00          CALL #_pvPortMalloc ; |806| 
         00003a 0000!
     515                                                      ; call occurs [#_pvPortMalloc] ; |806| 
     516 00003c EB18          MOV XAR0, dbl(*SP(#12))
         00003e 85   
     517                      .dwpsn  file "../FreeRTOS/Source/tasks.c",line 808,column 5,is_stmt
     518 00003f ED18          MOV dbl(*SP(#12)), XAR3
         000041 BF   
TMS320C55x Assembler PC v4.4.1 Sat Sep 08 17:11:34 2018

Tools Copyright (c) 1996-2012 Texas Instruments Incorporated
tasks.asm                                                            PAGE   11

     519 000042 90B0          MOV XAR3, AC0
     520 000044 0400          BCC $C$L1,AC0 == #0 ; |808| 
         000046 18   
     521                                                      ; branchcc occurs ; |808| 
     522                      .dwpsn  file "../FreeRTOS/Source/tasks.c",line 811,column 6,is_stmt
     523 000047 ED18          MOV dbl(*SP(#12)), XAR2
         000049 AF   
     524 00004a ED20          MOV dbl(*SP(#16)), XAR3
         00004c BF   
     525 00004d EB4D          MOV XAR3, dbl(*AR2(#26))
         00004f B500 
         000051 1A   
     526                      .dwpsn  file "../FreeRTOS/Source/tasks.c",line 812,column 6,is_stmt
     527 000052 ED18          MOV dbl(*SP(#12)), XAR2
         000054 AF   
     528 000055 ED24          MOV dbl(*SP(#18)), XAR3
         000057 BF   
     529 000058 EB4D          MOV XAR3, dbl(*AR2(#26))
         00005a B500 
         00005c 1A   
     530                      .dwpsn  file "../FreeRTOS/Source/tasks.c",line 813,column 5,is_stmt
     531 00005d 4A15          B $C$L3   ; |813| 
     532                                                      ; branch occurs ; |813| 
     533 00005f       $C$L1:    
     534                      .dwpsn  file "../FreeRTOS/Source/tasks.c",line 818,column 6,is_stmt
     535 00005f ED20          MOV dbl(*SP(#16)), XAR0
         000061 8F   
     536              $C$DW$77        .dwtag  DW_TAG_TI_branch
     537                      .dwattr $C$DW$77, DW_AT_low_pc(0x00)
     538                      .dwattr $C$DW$77, DW_AT_name("_vPortFree")
     539                      .dwattr $C$DW$77, DW_AT_TI_call
     540 000062 6C00          CALL #_vPortFree ; |818| 
         000064 0000!
     541                                                      ; call occurs [#_vPortFree] ; |818| 
     542                      .dwpsn  file "../FreeRTOS/Source/tasks.c",line 819,column 6,is_stmt
     543 000066 ED24          MOV dbl(*SP(#18)), XAR0
         000068 8F   
     544              $C$DW$78        .dwtag  DW_TAG_TI_branch
     545                      .dwattr $C$DW$78, DW_AT_low_pc(0x00)
     546                      .dwattr $C$DW$78, DW_AT_name("_vPortFree")
     547                      .dwattr $C$DW$78, DW_AT_TI_call
     548 000069 6C00          CALL #_vPortFree ; |819| 
         00006b 0000!
     549                                                      ; call occurs [#_vPortFree] ; |819| 
     550                      .dwpsn  file "../FreeRTOS/Source/tasks.c",line 821,column 4,is_stmt
     551 00006d 4A05          B $C$L3   ; |821| 
     552                                                      ; branch occurs ; |821| 
     553 00006f       $C$L2:    
     554                      .dwpsn  file "../FreeRTOS/Source/tasks.c",line 824,column 5,is_stmt
     555 00006f 3C00          MOV #0, AC0 ; |824| 
     556 000071 EB18          MOV AC0, dbl(*SP(#12))
         000073 08   
     557              $C$L3:    
     558                      .dwendtag $C$DW$71
     559              
TMS320C55x Assembler PC v4.4.1 Sat Sep 08 17:11:34 2018

Tools Copyright (c) 1996-2012 Texas Instruments Incorporated
tasks.asm                                                            PAGE   12

     560                      .dwpsn  file "../FreeRTOS/Source/tasks.c",line 829,column 3,is_stmt
     561 000074 ED18          MOV dbl(*SP(#12)), XAR3
         000076 BF   
     562 000077 90B0          MOV XAR3, AC0
     563 000079 0400          BCC $C$L4,AC0 == #0 ; |829| 
         00007b 25   
     564                                                      ; branchcc occurs ; |829| 
     565                      .dwpsn  file "../FreeRTOS/Source/tasks.c",line 839,column 4,is_stmt
     566 00007c DF08          MOV uns(*SP(#4)), AC1 ; |839| 
         00007e 15   
     567 00007f ED00          MOV dbl(*SP(#0)), AC0 ; |839| 
         000081 08   
     568 000082 ED04          MOV dbl(*SP(#2)), XAR0
         000084 8F   
     569 000085 ED0C          MOV dbl(*SP(#6)), XAR1
         000087 9F   
     570 000088 A410          MOV *SP(#8), T0 ; |839| 
     571 00008a ED14          MOV dbl(*SP(#10)), XAR2
         00008c AF   
     572 00008d EC31          AMOV #0, XAR4 ; |839| 
         00008f CE00 
         000091 0000 
     573              $C$DW$79        .dwtag  DW_TAG_TI_branch
     574                      .dwattr $C$DW$79, DW_AT_low_pc(0x00)
     575                      .dwattr $C$DW$79, DW_AT_name("_prvInitialiseNewTask")
     576                      .dwattr $C$DW$79, DW_AT_TI_call
     577 000093 0800          CALL #_prvInitialiseNewTask ; |839| 
         000095 16   
     578                                                      ; call occurs [#_prvInitialiseNewTask] ; |839| 
     579                      .dwpsn  file "../FreeRTOS/Source/tasks.c",line 840,column 4,is_stmt
     580 000096 ED18          MOV dbl(*SP(#12)), XAR0
         000098 8F   
     581              $C$DW$80        .dwtag  DW_TAG_TI_branch
     582                      .dwattr $C$DW$80, DW_AT_low_pc(0x00)
     583                      .dwattr $C$DW$80, DW_AT_name("_prvAddNewTaskToReadyList")
     584                      .dwattr $C$DW$80, DW_AT_TI_call
     585 000099 0801          CALL #_prvAddNewTaskToReadyList ; |840| 
         00009b 60   
     586                                                      ; call occurs [#_prvAddNewTaskToReadyList] ; |840| 
     587                      .dwpsn  file "../FreeRTOS/Source/tasks.c",line 841,column 4,is_stmt
     588 00009c E61C          MOV #1, *SP(#14) ; |841| 
         00009e 01   
     589                      .dwpsn  file "../FreeRTOS/Source/tasks.c",line 842,column 3,is_stmt
     590 00009f 4A03          B $C$L5   ; |842| 
     591                                                      ; branch occurs ; |842| 
     592 0000a1       $C$L4:    
     593                      .dwpsn  file "../FreeRTOS/Source/tasks.c",line 845,column 4,is_stmt
     594 0000a1 E61C          MOV #-1, *SP(#14) ; |845| 
         0000a3 FF   
     595 0000a4       $C$L5:    
     596                      .dwpsn  file "../FreeRTOS/Source/tasks.c",line 848,column 3,is_stmt
     597 0000a4 A41C          MOV *SP(#14), T0 ; |848| 
     598                      .dwpsn  file "../FreeRTOS/Source/tasks.c",line 849,column 2,is_stmt
     599 0000a6 4E15          AADD #21, SP
     600                      .dwcfi  cfa_offset, 1
TMS320C55x Assembler PC v4.4.1 Sat Sep 08 17:11:34 2018

Tools Copyright (c) 1996-2012 Texas Instruments Incorporated
tasks.asm                                                            PAGE   13

     601              $C$DW$81        .dwtag  DW_TAG_TI_branch
     602                      .dwattr $C$DW$81, DW_AT_low_pc(0x00)
     603                      .dwattr $C$DW$81, DW_AT_TI_return
     604 0000a8 4804          RET
     605                                                      ; return occurs
     606                      .dwattr $C$DW$56, DW_AT_TI_end_file("../FreeRTOS/Source/tasks.c")
     607                      .dwattr $C$DW$56, DW_AT_TI_end_line(0x351)
     608                      .dwattr $C$DW$56, DW_AT_TI_end_column(0x02)
     609                      .dwendentry
     610                      .dwendtag $C$DW$56
     611              
     612 0000aa               .sect   ".text"
     613                      .align 4
     614              
     615              $C$DW$82        .dwtag  DW_TAG_subprogram, DW_AT_name("prvInitialiseNewTask")
     616                      .dwattr $C$DW$82, DW_AT_low_pc(_prvInitialiseNewTask)
     617                      .dwattr $C$DW$82, DW_AT_high_pc(0x00)
     618                      .dwattr $C$DW$82, DW_AT_TI_symbol_name("_prvInitialiseNewTask")
     619                      .dwattr $C$DW$82, DW_AT_TI_begin_file("../FreeRTOS/Source/tasks.c")
     620                      .dwattr $C$DW$82, DW_AT_TI_begin_line(0x356)
     621                      .dwattr $C$DW$82, DW_AT_TI_begin_column(0x0d)
     622                      .dwattr $C$DW$82, DW_AT_TI_max_frame_size(0x16)
     623                      .dwpsn  file "../FreeRTOS/Source/tasks.c",line 862,column 1,is_stmt,address _prvInitialiseNewTask
     624              
     625                      .dwfde $C$DW$CIE, _prvInitialiseNewTask
     626              $C$DW$83        .dwtag  DW_TAG_formal_parameter, DW_AT_name("pxTaskCode")
     627                      .dwattr $C$DW$83, DW_AT_TI_symbol_name("_pxTaskCode")
     628                      .dwattr $C$DW$83, DW_AT_type(*$C$DW$T$58)
     629                      .dwattr $C$DW$83, DW_AT_location[DW_OP_reg1]
     630              $C$DW$84        .dwtag  DW_TAG_formal_parameter, DW_AT_name("pcName")
     631                      .dwattr $C$DW$84, DW_AT_TI_symbol_name("_pcName")
     632                      .dwattr $C$DW$84, DW_AT_type(*$C$DW$T$76)
     633                      .dwattr $C$DW$84, DW_AT_location[DW_OP_reg17]
     634              $C$DW$85        .dwtag  DW_TAG_formal_parameter, DW_AT_name("ulStackDepth")
     635                      .dwattr $C$DW$85, DW_AT_TI_symbol_name("_ulStackDepth")
     636                      .dwattr $C$DW$85, DW_AT_type(*$C$DW$T$77)
     637                      .dwattr $C$DW$85, DW_AT_location[DW_OP_reg3]
     638              $C$DW$86        .dwtag  DW_TAG_formal_parameter, DW_AT_name("pvParameters")
     639                      .dwattr $C$DW$86, DW_AT_TI_symbol_name("_pvParameters")
     640                      .dwattr $C$DW$86, DW_AT_type(*$C$DW$T$53)
     641                      .dwattr $C$DW$86, DW_AT_location[DW_OP_reg19]
     642              $C$DW$87        .dwtag  DW_TAG_formal_parameter, DW_AT_name("uxPriority")
     643                      .dwattr $C$DW$87, DW_AT_TI_symbol_name("_uxPriority")
     644                      .dwattr $C$DW$87, DW_AT_type(*$C$DW$T$25)
     645                      .dwattr $C$DW$87, DW_AT_location[DW_OP_reg12]
     646              $C$DW$88        .dwtag  DW_TAG_formal_parameter, DW_AT_name("pxCreatedTask")
     647                      .dwattr $C$DW$88, DW_AT_TI_symbol_name("_pxCreatedTask")
     648                      .dwattr $C$DW$88, DW_AT_type(*$C$DW$T$79)
     649                      .dwattr $C$DW$88, DW_AT_location[DW_OP_reg21]
     650              $C$DW$89        .dwtag  DW_TAG_formal_parameter, DW_AT_name("pxNewTCB")
     651                      .dwattr $C$DW$89, DW_AT_TI_symbol_name("_pxNewTCB")
     652                      .dwattr $C$DW$89, DW_AT_type(*$C$DW$T$82)
     653                      .dwattr $C$DW$89, DW_AT_location[DW_OP_reg23]
     654              $C$DW$90        .dwtag  DW_TAG_formal_parameter, DW_AT_name("xRegions")
     655                      .dwattr $C$DW$90, DW_AT_TI_symbol_name("_xRegions")
TMS320C55x Assembler PC v4.4.1 Sat Sep 08 17:11:34 2018

Tools Copyright (c) 1996-2012 Texas Instruments Incorporated
tasks.asm                                                            PAGE   14

     656                      .dwattr $C$DW$90, DW_AT_type(*$C$DW$T$86)
     657                      .dwattr $C$DW$90, DW_AT_location[DW_OP_reg25]
     658              ;*******************************************************************************
     659              ;* FUNCTION NAME: prvInitialiseNewTask                                         *
     660              ;*                                                                             *
     661              ;*   Function Uses Regs : AC0,AC0,AC1,AC1,T0,T1,AR0,XAR0,AR1,XAR1,AR2,XAR2,AR3,*
     662              ;*                        XAR3,AR4,XAR4,SP,CARRY,TC1,M40,SATA,SATD,RDM,FRCT,   *
     663              ;*                        SMUL                                                 *
     664              ;*   Stack Frame        : Compact (No Frame Pointer, w/ debug)                 *
     665              ;*   Total Frame Size   : 22 words                                             *
     666              ;*                        (1 return address/alignment)                         *
     667              ;*                        (21 local values)                                    *
     668              ;*   Min System Stack   : 1 word                                               *
     669              ;*******************************************************************************
     670 0000ac       _prvInitialiseNewTask:
     671                      .dwcfi  cfa_offset, 1
     672                      .dwcfi  save_reg_to_mem, 91, -1
     673 0000ac 4EEB          AADD #-21, SP
     674                      .dwcfi  cfa_offset, 22
     675              $C$DW$91        .dwtag  DW_TAG_variable, DW_AT_name("pxTaskCode")
     676                      .dwattr $C$DW$91, DW_AT_TI_symbol_name("_pxTaskCode")
     677                      .dwattr $C$DW$91, DW_AT_type(*$C$DW$T$58)
     678                      .dwattr $C$DW$91, DW_AT_location[DW_OP_bregx 0x24 0]
     679              $C$DW$92        .dwtag  DW_TAG_variable, DW_AT_name("pcName")
     680                      .dwattr $C$DW$92, DW_AT_TI_symbol_name("_pcName")
     681                      .dwattr $C$DW$92, DW_AT_type(*$C$DW$T$76)
     682                      .dwattr $C$DW$92, DW_AT_location[DW_OP_bregx 0x24 2]
     683              $C$DW$93        .dwtag  DW_TAG_variable, DW_AT_name("ulStackDepth")
     684                      .dwattr $C$DW$93, DW_AT_TI_symbol_name("_ulStackDepth")
     685                      .dwattr $C$DW$93, DW_AT_type(*$C$DW$T$77)
     686                      .dwattr $C$DW$93, DW_AT_location[DW_OP_bregx 0x24 4]
     687              $C$DW$94        .dwtag  DW_TAG_variable, DW_AT_name("pvParameters")
     688                      .dwattr $C$DW$94, DW_AT_TI_symbol_name("_pvParameters")
     689                      .dwattr $C$DW$94, DW_AT_type(*$C$DW$T$53)
     690                      .dwattr $C$DW$94, DW_AT_location[DW_OP_bregx 0x24 6]
     691              $C$DW$95        .dwtag  DW_TAG_variable, DW_AT_name("uxPriority")
     692                      .dwattr $C$DW$95, DW_AT_TI_symbol_name("_uxPriority")
     693                      .dwattr $C$DW$95, DW_AT_type(*$C$DW$T$25)
     694                      .dwattr $C$DW$95, DW_AT_location[DW_OP_bregx 0x24 8]
     695              $C$DW$96        .dwtag  DW_TAG_variable, DW_AT_name("pxCreatedTask")
     696                      .dwattr $C$DW$96, DW_AT_TI_symbol_name("_pxCreatedTask")
     697                      .dwattr $C$DW$96, DW_AT_type(*$C$DW$T$79)
     698                      .dwattr $C$DW$96, DW_AT_location[DW_OP_bregx 0x24 10]
     699              $C$DW$97        .dwtag  DW_TAG_variable, DW_AT_name("pxNewTCB")
     700                      .dwattr $C$DW$97, DW_AT_TI_symbol_name("_pxNewTCB")
     701                      .dwattr $C$DW$97, DW_AT_type(*$C$DW$T$82)
     702                      .dwattr $C$DW$97, DW_AT_location[DW_OP_bregx 0x24 12]
     703              $C$DW$98        .dwtag  DW_TAG_variable, DW_AT_name("xRegions")
     704                      .dwattr $C$DW$98, DW_AT_TI_symbol_name("_xRegions")
     705                      .dwattr $C$DW$98, DW_AT_type(*$C$DW$T$86)
     706                      .dwattr $C$DW$98, DW_AT_location[DW_OP_bregx 0x24 14]
     707              $C$DW$99        .dwtag  DW_TAG_variable, DW_AT_name("pxTopOfStack")
     708                      .dwattr $C$DW$99, DW_AT_TI_symbol_name("_pxTopOfStack")
     709                      .dwattr $C$DW$99, DW_AT_type(*$C$DW$T$26)
     710                      .dwattr $C$DW$99, DW_AT_location[DW_OP_bregx 0x24 16]
TMS320C55x Assembler PC v4.4.1 Sat Sep 08 17:11:34 2018

Tools Copyright (c) 1996-2012 Texas Instruments Incorporated
tasks.asm                                                            PAGE   15

     711              $C$DW$100       .dwtag  DW_TAG_variable, DW_AT_name("pxTopOfSysStack")
     712                      .dwattr $C$DW$100, DW_AT_TI_symbol_name("_pxTopOfSysStack")
     713                      .dwattr $C$DW$100, DW_AT_type(*$C$DW$T$26)
     714                      .dwattr $C$DW$100, DW_AT_location[DW_OP_bregx 0x24 18]
     715              $C$DW$101       .dwtag  DW_TAG_variable, DW_AT_name("x")
     716                      .dwattr $C$DW$101, DW_AT_TI_symbol_name("_x")
     717                      .dwattr $C$DW$101, DW_AT_type(*$C$DW$T$25)
     718                      .dwattr $C$DW$101, DW_AT_location[DW_OP_bregx 0x24 20]
     719 0000ae EB1C          MOV XAR4, dbl(*SP(#14))
         0000b0 C5   
     720 0000b1 EB18          MOV XAR3, dbl(*SP(#12))
         0000b3 B5   
     721 0000b4 EB14          MOV XAR2, dbl(*SP(#10))
         0000b6 A5   
     722 0000b7 C410          MOV T0, *SP(#8) ; |862| 
     723 0000b9 EB0C          MOV XAR1, dbl(*SP(#6))
         0000bb 95   
     724 0000bc EB08          MOV AC1, dbl(*SP(#4)) ; |862| 
         0000be 18   
     725 0000bf EB04          MOV XAR0, dbl(*SP(#2))
         0000c1 85   
     726 0000c2 EB00          MOV AC0, dbl(*SP(#0)) ; |862| 
         0000c4 08   
     727                      .dwpsn  file "../FreeRTOS/Source/tasks.c",line 887,column 3,is_stmt
     728 0000c5 ED18          MOV dbl(*SP(#12)), XAR3
         0000c7 BF   
     729 0000c8 7600          MOV #165, T0 ; |887| 
         0000ca A548 
     730 0000cc A50A          MOV *SP(#5), T1 ; |887| 
     731 0000ce ED6D          MOV dbl(*AR3(#26)), XAR0
         0000d0 8F00 
         0000d2 1A   
     732              $C$DW$102       .dwtag  DW_TAG_TI_branch
     733                      .dwattr $C$DW$102, DW_AT_low_pc(0x00)
     734                      .dwattr $C$DW$102, DW_AT_name("_memset")
     735                      .dwattr $C$DW$102, DW_AT_TI_call
     736 0000d3 6C00          CALL #_memset ; |887| 
         0000d5 0000!
     737                                                      ; call occurs [#_memset] ; |887| 
     738                      .dwpsn  file "../FreeRTOS/Source/tasks.c",line 888,column 3,is_stmt
     739 0000d7 ED18          MOV dbl(*SP(#12)), XAR3
         0000d9 BF   
     740 0000da 7600          MOV #165, T0 ; |888| 
         0000dc A548 
     741 0000de A50A          MOV *SP(#5), T1 ; |888| 
     742 0000e0 ED6D          MOV dbl(*AR3(#28)), XAR0
         0000e2 8F00 
         0000e4 1C   
     743              $C$DW$103       .dwtag  DW_TAG_TI_branch
     744                      .dwattr $C$DW$103, DW_AT_low_pc(0x00)
     745                      .dwattr $C$DW$103, DW_AT_name("_memset")
     746                      .dwattr $C$DW$103, DW_AT_TI_call
     747 0000e5 6C00          CALL #_memset ; |888| 
         0000e7 0000!
     748                                                      ; call occurs [#_memset] ; |888| 
TMS320C55x Assembler PC v4.4.1 Sat Sep 08 17:11:34 2018

Tools Copyright (c) 1996-2012 Texas Instruments Incorporated
tasks.asm                                                            PAGE   16

     749                      .dwpsn  file "../FreeRTOS/Source/tasks.c",line 898,column 3,is_stmt
     750 0000e9 ED18          MOV dbl(*SP(#12)), XAR3
         0000eb BF   
     751 0000ec ED6D          MOV dbl(*AR3(#26)), XAR3
         0000ee BF00 
         0000f0 1A   
     752 0000f1 ED08          MOV dbl(*SP(#4)), AC0 ; |898| 
         0000f3 08   
     753 0000f4 4210          SUB #1, AC0 ; |898| 
     754 0000f6 2209          MOV AC0, AR1 ; |898| 
     755              
     756 0000f8 8E20          MOV XAR3, dbl(*SP(#16))
         0000fa BB10 
         0000fc B590 
     757              ||      AADD AR1, AR3 ; |898| 
     758              
     759                      .dwpsn  file "../FreeRTOS/Source/tasks.c",line 899,column 3,is_stmt
     760 0000fe 90B0          MOV XAR3, AC0
     761 000100 7AFF          MOV #-1 << #16, AC1 ; |899| 
         000102 FF1A 
     762 000104 7EFF          OR #0xfffc, AC1, AC1 ; |899| 
         000106 FC11 
     763 000108 2801          AND AC0, AC1 ; |899| 
     764 00010a EB20          MOV AC1, dbl(*SP(#16))
         00010c 18   
     765                      .dwpsn  file "../FreeRTOS/Source/tasks.c",line 900,column 3,is_stmt
     766 00010d ED18          MOV dbl(*SP(#12)), XAR3
         00010f BF   
     767 000110 ED08          MOV dbl(*SP(#4)), AC0 ; |900| 
         000112 08   
     768 000113 4210          SUB #1, AC0 ; |900| 
     769 000115 2209          MOV AC0, AR1 ; |900| 
     770 000117 ED6D          MOV dbl(*AR3(#28)), XAR3
         000119 BF00 
         00011b 1C   
     771              
     772 00011c 8E24          MOV XAR3, dbl(*SP(#18))
         00011e BB10 
         000120 B590 
     773              ||      AADD AR1, AR3 ; |900| 
     774              
     775                      .dwpsn  file "../FreeRTOS/Source/tasks.c",line 901,column 6,is_stmt
     776 000122 7AFF          MOV #-1 << #16, AC1 ; |901| 
         000124 FF1A 
     777 000126 90B0          MOV XAR3, AC0
     778 000128 7EFF          OR #0xfffc, AC1, AC1 ; |901| 
         00012a FC11 
     779 00012c 2801          AND AC0, AC1 ; |901| 
     780 00012e EB24          MOV AC1, dbl(*SP(#18))
         000130 18   
     781                      .dwpsn  file "../FreeRTOS/Source/tasks.c",line 935,column 7,is_stmt
     782 000131 E628          MOV #0, *SP(#20) ; |935| 
         000133 00   
     783                      .dwpsn  file "../FreeRTOS/Source/tasks.c",line 935,column 30,is_stmt
     784              
TMS320C55x Assembler PC v4.4.1 Sat Sep 08 17:11:34 2018

Tools Copyright (c) 1996-2012 Texas Instruments Incorporated
tasks.asm                                                            PAGE   17

     785 000134 A928          MOV *SP(#20), AR1 ; |935| 
     786 000136 3D8A  ||      MOV #8, AR2
     787              
     788 000138 1298          CMPU AR1 >= AR2, TC1 ; |935| 
         00013a A4   
     789 00013b 0464          BCC $C$L8,TC1 ; |935| 
         00013d 2C   
     790                                                      ; branchcc occurs ; |935| 
     791 00013e       $C$L6:    
     792 00013e       $C$DW$L$_prvInitialiseNewTask$2$B:
     793                      .dwpsn  file "../FreeRTOS/Source/tasks.c",line 937,column 3,is_stmt
     794 00013e A428          MOV *SP(#20), T0 ; |937| 
     795 000140 ED04          MOV dbl(*SP(#2)), XAR3
         000142 BF   
     796 000143 2249          MOV T0, AR1
     797 000145 AA6B          MOV *AR3(T0), AR2 ; |937| 
     798 000147 ED18          MOV dbl(*SP(#12)), XAR3
         000149 BF   
     799 00014a 1490          AADD AR1, AR3 ; |937| 
         00014c B0   
     800 00014d CA6D          MOV AR2, *AR3(#30) ; |937| 
         00014f 001E 
     801                      .dwpsn  file "../FreeRTOS/Source/tasks.c",line 942,column 3,is_stmt
     802 000151 A428          MOV *SP(#20), T0 ; |942| 
     803 000153 ED04          MOV dbl(*SP(#2)), XAR3
         000155 BF   
     804 000156 A96B          MOV *AR3(T0), AR1 ; |942| 
     805 000158 6119          BCC $C$L7,AR1 != #0 ; |942| 
     806                                                      ; branchcc occurs ; |942| 
     807 00015a       $C$DW$L$_prvInitialiseNewTask$2$E:
     808                      .dwpsn  file "../FreeRTOS/Source/tasks.c",line 944,column 4,is_stmt
     809 00015a 4A0E          B $C$L8   ; |944| 
     810                                                      ; branch occurs ; |944| 
     811 00015c       $C$L7:    
     812 00015c       $C$DW$L$_prvInitialiseNewTask$5$B:
     813                      .dwpsn  file "../FreeRTOS/Source/tasks.c",line 935,column 75,is_stmt
     814 00015c F728          ADD #1, *SP(#20) ; |935| 
         00015e 0001 
     815                      .dwpsn  file "../FreeRTOS/Source/tasks.c",line 935,column 30,is_stmt
     816              
     817 000160 A928          MOV *SP(#20), AR1 ; |935| 
     818 000162 3D8A  ||      MOV #8, AR2
     819              
     820 000164 1294          CMPU AR1 < AR2, TC1 ; |935| 
         000166 A4   
     821 000167 0464          BCC $C$L6,TC1 ; |935| 
         000169 D4   
     822                                                      ; branchcc occurs ; |935| 
     823 00016a       $C$DW$L$_prvInitialiseNewTask$5$E:
     824 00016a       $C$L8:    
     825                      .dwpsn  file "../FreeRTOS/Source/tasks.c",line 954,column 2,is_stmt
     826 00016a ED18          MOV dbl(*SP(#12)), XAR3
         00016c BF   
     827 00016d E66D          MOV #0, *AR3(#37) ; |954| 
         00016f 0000 
TMS320C55x Assembler PC v4.4.1 Sat Sep 08 17:11:34 2018

Tools Copyright (c) 1996-2012 Texas Instruments Incorporated
tasks.asm                                                            PAGE   18

         000171 25   
     828                      .dwpsn  file "../FreeRTOS/Source/tasks.c",line 958,column 2,is_stmt
     829              
     830 000172 A910          MOV *SP(#8), AR1 ; |958| 
     831 000174 3D4A  ||      MOV #4, AR2
     832              
     833 000176 1294          CMPU AR1 < AR2, TC1 ; |958| 
         000178 A4   
     834 000179 61E4          BCC $C$L9,TC1 ; |958| 
     835                                                      ; branchcc occurs ; |958| 
     836                      .dwpsn  file "../FreeRTOS/Source/tasks.c",line 960,column 3,is_stmt
     837 00017b E610          MOV #3, *SP(#8) ; |960| 
         00017d 03   
     838                      .dwpsn  file "../FreeRTOS/Source/tasks.c",line 961,column 2,is_stmt
     839 00017e       $C$L9:    
     840                      .dwpsn  file "../FreeRTOS/Source/tasks.c",line 967,column 2,is_stmt
     841 00017e ED18          MOV dbl(*SP(#12)), XAR3
         000180 BF   
     842 000181 A910          MOV *SP(#8), AR1 ; |967| 
     843 000183 C96D          MOV AR1, *AR3(#24) ; |967| 
         000185 0018 
     844                      .dwpsn  file "../FreeRTOS/Source/tasks.c",line 975,column 2,is_stmt
     845 000187 ED18          MOV dbl(*SP(#12)), XAR0
         000189 8F   
     846 00018a 1404          AADD #4, AR0 ; |975| 
         00018c 84   
     847              $C$DW$104       .dwtag  DW_TAG_TI_branch
     848                      .dwattr $C$DW$104, DW_AT_low_pc(0x00)
     849                      .dwattr $C$DW$104, DW_AT_name("_vListInitialiseItem")
     850                      .dwattr $C$DW$104, DW_AT_TI_call
     851 00018d 6C00          CALL #_vListInitialiseItem ; |975| 
         00018f 0000!
     852                                                      ; call occurs [#_vListInitialiseItem] ; |975| 
     853                      .dwpsn  file "../FreeRTOS/Source/tasks.c",line 976,column 2,is_stmt
     854 000191 ED18          MOV dbl(*SP(#12)), XAR0
         000193 8F   
     855 000194 140E          AADD #14, AR0 ; |976| 
         000196 84   
     856              $C$DW$105       .dwtag  DW_TAG_TI_branch
     857                      .dwattr $C$DW$105, DW_AT_low_pc(0x00)
     858                      .dwattr $C$DW$105, DW_AT_name("_vListInitialiseItem")
     859                      .dwattr $C$DW$105, DW_AT_TI_call
     860 000197 6C00          CALL #_vListInitialiseItem ; |976| 
         000199 0000!
     861                                                      ; call occurs [#_vListInitialiseItem] ; |976| 
     862                      .dwpsn  file "../FreeRTOS/Source/tasks.c",line 980,column 2,is_stmt
     863 00019b ED18          MOV dbl(*SP(#12)), XAR2
         00019d AF   
     864 00019e ED18          MOV dbl(*SP(#12)), XAR3
         0001a0 BF   
     865 0001a1 EB4D          MOV XAR3, dbl(*AR2(#10))
         0001a3 B500 
         0001a5 0A   
     866                      .dwpsn  file "../FreeRTOS/Source/tasks.c",line 983,column 2,is_stmt
     867 0001a6 ED18          MOV dbl(*SP(#12)), XAR3
TMS320C55x Assembler PC v4.4.1 Sat Sep 08 17:11:34 2018

Tools Copyright (c) 1996-2012 Texas Instruments Incorporated
tasks.asm                                                            PAGE   19

         0001a8 BF   
     868 0001a9 3C40          MOV #4, AC0
     869 0001ab DF10          SUB uns(*SP(#8)), AC0, AC0 ; |983| 
         0001ad 0F   
     870 0001ae C06D          MOV AC0, *AR3(#14) ; |983| 
         0001b0 000E 
     871                      .dwpsn  file "../FreeRTOS/Source/tasks.c",line 984,column 2,is_stmt
     872 0001b2 ED18          MOV dbl(*SP(#12)), XAR2
         0001b4 AF   
     873 0001b5 ED18          MOV dbl(*SP(#12)), XAR3
         0001b7 BF   
     874 0001b8 EB4D          MOV XAR3, dbl(*AR2(#20))
         0001ba B500 
         0001bc 14   
     875                      .dwpsn  file "../FreeRTOS/Source/tasks.c",line 1011,column 3,is_stmt
     876                      .dwpsn  file "../FreeRTOS/Source/tasks.c",line 1026,column 3,is_stmt
     877 0001bd ED18          MOV dbl(*SP(#12)), XAR3
         0001bf BF   
     878 0001c0 3C00          MOV #0, AC0 ; |1026| 
     879 0001c2 EB6D          MOV AC0, dbl(*AR3(#42)) ; |1026| 
         0001c4 0800 
         0001c6 2A   
     880                      .dwpsn  file "../FreeRTOS/Source/tasks.c",line 1027,column 3,is_stmt
     881 0001c7 ED18          MOV dbl(*SP(#12)), XAR3
         0001c9 BF   
     882 0001ca E66D          MOV #0, *AR3(#44) ; |1027| 
         0001cc 0000 
         0001ce 2C   
     883                      .dwpsn  file "../FreeRTOS/Source/tasks.c",line 1054,column 3,is_stmt
     884 0001cf ED00          MOV dbl(*SP(#0)), AC0 ; |1054| 
         0001d1 08   
     885 0001d2 ED0C          MOV dbl(*SP(#6)), XAR2
         0001d4 AF   
     886 0001d5 ED24          MOV dbl(*SP(#18)), XAR1
         0001d7 9F   
     887 0001d8 ED20          MOV dbl(*SP(#16)), XAR0
         0001da 8F   
     888              $C$DW$106       .dwtag  DW_TAG_TI_branch
     889                      .dwattr $C$DW$106, DW_AT_low_pc(0x00)
     890                      .dwattr $C$DW$106, DW_AT_name("_pxPortInitialiseStack")
     891                      .dwattr $C$DW$106, DW_AT_TI_call
     892 0001db 6C00          CALL #_pxPortInitialiseStack ; |1054| 
         0001dd 0000!
     893                                                      ; call occurs [#_pxPortInitialiseStack] ; |1054| 
     894 0001df ED18          MOV dbl(*SP(#12)), XAR3
         0001e1 BF   
     895 0001e2 EB61          MOV XAR0, dbl(*AR3)
         0001e4 85   
     896                      .dwpsn  file "../FreeRTOS/Source/tasks.c",line 1058,column 2,is_stmt
     897 0001e5 ED14          MOV dbl(*SP(#10)), XAR3
         0001e7 BF   
     898 0001e8 90B0          MOV XAR3, AC0
     899 0001ea 6580          BCC $C$L10,AC0 == #0 ; |1058| 
     900                                                      ; branchcc occurs ; |1058| 
     901                      .dwpsn  file "../FreeRTOS/Source/tasks.c",line 1062,column 3,is_stmt
TMS320C55x Assembler PC v4.4.1 Sat Sep 08 17:11:34 2018

Tools Copyright (c) 1996-2012 Texas Instruments Incorporated
tasks.asm                                                            PAGE   20

     902 0001ec ED14          MOV dbl(*SP(#10)), XAR2
         0001ee AF   
     903 0001ef ED18          MOV dbl(*SP(#12)), XAR3
         0001f1 BF   
     904 0001f2 EB41          MOV XAR3, dbl(*AR2)
         0001f4 B5   
     905                      .dwpsn  file "../FreeRTOS/Source/tasks.c",line 1063,column 2,is_stmt
     906 0001f5 4A00          B $C$L10  ; |1063| 
     907                                                      ; branch occurs ; |1063| 
     908 0001f7       $C$L10:    
     909 0001f7 4E15          AADD #21, SP
     910                      .dwcfi  cfa_offset, 1
     911              $C$DW$107       .dwtag  DW_TAG_TI_branch
     912                      .dwattr $C$DW$107, DW_AT_low_pc(0x00)
     913                      .dwattr $C$DW$107, DW_AT_TI_return
     914 0001f9 4804          RET
     915                                                      ; return occurs
     916              
     917              $C$DW$108       .dwtag  DW_TAG_TI_loop
     918                      .dwattr $C$DW$108, DW_AT_name("F:\eZdsp_C55x_FreeRTOS_Port\eZDSP\eZDSP_5535_Files\ccsws2\test\Debug\t
     919                      .dwattr $C$DW$108, DW_AT_TI_begin_file("../FreeRTOS/Source/tasks.c")
     920                      .dwattr $C$DW$108, DW_AT_TI_begin_line(0x3a7)
     921                      .dwattr $C$DW$108, DW_AT_TI_end_line(0x3b6)
     922              $C$DW$109       .dwtag  DW_TAG_TI_loop_range
     923                      .dwattr $C$DW$109, DW_AT_low_pc($C$DW$L$_prvInitialiseNewTask$2$B)
     924                      .dwattr $C$DW$109, DW_AT_high_pc($C$DW$L$_prvInitialiseNewTask$2$E)
     925              $C$DW$110       .dwtag  DW_TAG_TI_loop_range
     926                      .dwattr $C$DW$110, DW_AT_low_pc($C$DW$L$_prvInitialiseNewTask$5$B)
     927                      .dwattr $C$DW$110, DW_AT_high_pc($C$DW$L$_prvInitialiseNewTask$5$E)
     928                      .dwendtag $C$DW$108
     929              
     930                      .dwattr $C$DW$82, DW_AT_TI_end_file("../FreeRTOS/Source/tasks.c")
     931                      .dwattr $C$DW$82, DW_AT_TI_end_line(0x42c)
     932                      .dwattr $C$DW$82, DW_AT_TI_end_column(0x01)
     933                      .dwendentry
     934                      .dwendtag $C$DW$82
     935              
     936 0001fb               .sect   ".text"
     937                      .align 4
     938              
     939              $C$DW$111       .dwtag  DW_TAG_subprogram, DW_AT_name("prvAddNewTaskToReadyList")
     940                      .dwattr $C$DW$111, DW_AT_low_pc(_prvAddNewTaskToReadyList)
     941                      .dwattr $C$DW$111, DW_AT_high_pc(0x00)
     942                      .dwattr $C$DW$111, DW_AT_TI_symbol_name("_prvAddNewTaskToReadyList")
     943                      .dwattr $C$DW$111, DW_AT_TI_begin_file("../FreeRTOS/Source/tasks.c")
     944                      .dwattr $C$DW$111, DW_AT_TI_begin_line(0x42f)
     945                      .dwattr $C$DW$111, DW_AT_TI_begin_column(0x0d)
     946                      .dwattr $C$DW$111, DW_AT_TI_max_frame_size(0x04)
     947                      .dwpsn  file "../FreeRTOS/Source/tasks.c",line 1072,column 1,is_stmt,address _prvAddNewTaskToReadyLis
     948              
     949                      .dwfde $C$DW$CIE, _prvAddNewTaskToReadyList
     950              $C$DW$112       .dwtag  DW_TAG_formal_parameter, DW_AT_name("pxNewTCB")
     951                      .dwattr $C$DW$112, DW_AT_TI_symbol_name("_pxNewTCB")
     952                      .dwattr $C$DW$112, DW_AT_type(*$C$DW$T$82)
     953                      .dwattr $C$DW$112, DW_AT_location[DW_OP_reg17]
TMS320C55x Assembler PC v4.4.1 Sat Sep 08 17:11:34 2018

Tools Copyright (c) 1996-2012 Texas Instruments Incorporated
tasks.asm                                                            PAGE   21

     954              ;*******************************************************************************
     955              ;* FUNCTION NAME: prvAddNewTaskToReadyList                                     *
     956              ;*                                                                             *
     957              ;*   Function Uses Regs : AC0,AC0,AR0,XAR0,AR1,XAR1,AR2,AR3,XAR3,SP,CARRY,TC1, *
     958              ;*                        M40,SATA,SATD,RDM,FRCT,SMUL                          *
     959              ;*   Stack Frame        : Compact (No Frame Pointer, w/ debug)                 *
     960              ;*   Total Frame Size   : 4 words                                              *
     961              ;*                        (2 return address/alignment)                         *
     962              ;*                        (2 local values)                                     *
     963              ;*   Min System Stack   : 1 word                                               *
     964              ;*******************************************************************************
     965 0001fc       _prvAddNewTaskToReadyList:
     966                      .dwcfi  cfa_offset, 1
     967                      .dwcfi  save_reg_to_mem, 91, -1
     968 0001fc 4EFD          AADD #-3, SP
     969                      .dwcfi  cfa_offset, 4
     970              $C$DW$113       .dwtag  DW_TAG_variable, DW_AT_name("pxNewTCB")
     971                      .dwattr $C$DW$113, DW_AT_TI_symbol_name("_pxNewTCB")
     972                      .dwattr $C$DW$113, DW_AT_type(*$C$DW$T$82)
     973                      .dwattr $C$DW$113, DW_AT_location[DW_OP_bregx 0x24 0]
     974 0001fe EB00          MOV XAR0, dbl(*SP(#0))
         000200 85   
     975                      .dwpsn  file "../FreeRTOS/Source/tasks.c",line 1075,column 2,is_stmt
     976 000201 20     nop
     977 000202 46B3   bset INTM
     978 000204 F731          ADD #1, *(#_usCriticalNesting) ; |1075| 
         000206 0001 
         000208 0000 
         00020a 00!  
     979                      .dwpsn  file "../FreeRTOS/Source/tasks.c",line 1077,column 3,is_stmt
     980 00020b F731          ADD #1, *(#_uxCurrentNumberOfTasks) ; |1077| 
         00020d 0001 
         00020f 0000 
         000211 59-  
     981 000212 20            NOP
     982 000213 20            NOP
     983 000214 20            NOP
     984                      .dwpsn  file "../FreeRTOS/Source/tasks.c",line 1078,column 3,is_stmt
     985 000215 ED31          MOV dbl(*(#_pxCurrentTCB)), XAR3
         000217 BF00 
         000219 0002-
     986 00021b 90B0          MOV XAR3, AC0
     987 00021d 0410          BCC $C$L11,AC0 != #0 ; |1078| 
         00021f 1B   
     988                                                      ; branchcc occurs ; |1078| 
     989                      .dwpsn  file "../FreeRTOS/Source/tasks.c",line 1082,column 4,is_stmt
     990 000220 ED00          MOV dbl(*SP(#0)), XAR3
         000222 BF   
     991 000223 EB31          MOV XAR3, dbl(*(#_pxCurrentTCB))
         000225 B500 
         000227 0002-
     992 000229 20            NOP
     993 00022a 20            NOP
     994 00022b 20            NOP
     995                      .dwpsn  file "../FreeRTOS/Source/tasks.c",line 1084,column 4,is_stmt
TMS320C55x Assembler PC v4.4.1 Sat Sep 08 17:11:34 2018

Tools Copyright (c) 1996-2012 Texas Instruments Incorporated
tasks.asm                                                            PAGE   22

     996 00022c F031          CMP *(#_uxCurrentNumberOfTasks) == #1, TC1 ; |1084| 
         00022e 0001 
         000230 0000 
         000232 59-  
     997 000233 0474          BCC $C$L12,!TC1 ; |1084| 
         000235 2E   
     998                                                      ; branchcc occurs ; |1084| 
     999                      .dwpsn  file "../FreeRTOS/Source/tasks.c",line 1089,column 5,is_stmt
    1000              $C$DW$114       .dwtag  DW_TAG_TI_branch
    1001                      .dwattr $C$DW$114, DW_AT_low_pc(0x00)
    1002                      .dwattr $C$DW$114, DW_AT_name("_prvInitialiseTaskLists")
    1003                      .dwattr $C$DW$114, DW_AT_TI_call
    1004 000236 080D          CALL #_prvInitialiseTaskLists ; |1089| 
         000238 47   
    1005                                                      ; call occurs [#_prvInitialiseTaskLists] ; |1089| 
    1006                      .dwpsn  file "../FreeRTOS/Source/tasks.c",line 1090,column 4,is_stmt
    1007 000239 4A29          B $C$L12  ; |1090| 
    1008                                                      ; branch occurs ; |1090| 
    1009 00023b       $C$L11:    
    1010                      .dwpsn  file "../FreeRTOS/Source/tasks.c",line 1101,column 4,is_stmt
    1011 00023b A931          MOV *(#_xSchedulerRunning), AR1 ; |1101| 
         00023d 0000 
         00023f 66-  
    1012 000240 0419          BCC $C$L12,AR1 != #0 ; |1101| 
         000242 21   
    1013                                                      ; branchcc occurs ; |1101| 
    1014                      .dwpsn  file "../FreeRTOS/Source/tasks.c",line 1103,column 5,is_stmt
    1015 000243 ED00          MOV dbl(*SP(#0)), XAR3
         000245 BF   
    1016 000246 A96D          MOV *AR3(#24), AR1 ; |1103| 
         000248 0018 
    1017 00024a ED31          MOV dbl(*(#_pxCurrentTCB)), XAR3
         00024c BF00 
         00024e 0002-
    1018 000250 AA6D          MOV *AR3(#24), AR2 ; |1103| 
         000252 0018 
    1019 000254 1294          CMPU AR2 > AR1, TC1 ; |1103| 
         000256 A4   
    1020 000257 65E4          BCC $C$L12,TC1 ; |1103| 
    1021                                                      ; branchcc occurs ; |1103| 
    1022                      .dwpsn  file "../FreeRTOS/Source/tasks.c",line 1105,column 6,is_stmt
    1023 000259 ED00          MOV dbl(*SP(#0)), XAR3
         00025b BF   
    1024 00025c EB31          MOV XAR3, dbl(*(#_pxCurrentTCB))
         00025e B500 
         000260 0002-
    1025                      .dwpsn  file "../FreeRTOS/Source/tasks.c",line 1106,column 5,is_stmt
    1026 000262 4A00          B $C$L12  ; |1106| 
    1027                                                      ; branch occurs ; |1106| 
    1028 000264       $C$L12:    
    1029                      .dwpsn  file "../FreeRTOS/Source/tasks.c",line 1118,column 3,is_stmt
    1030 000264 F731          ADD #1, *(#_uxTaskNumber) ; |1118| 
         000266 0001 
         000268 0000 
         00026a 6A-  
TMS320C55x Assembler PC v4.4.1 Sat Sep 08 17:11:34 2018

Tools Copyright (c) 1996-2012 Texas Instruments Incorporated
tasks.asm                                                            PAGE   23

    1031                      .dwpsn  file "../FreeRTOS/Source/tasks.c",line 1128,column 3,is_stmt
    1032 00026b ED00          MOV dbl(*SP(#0)), XAR3
         00026d BF   
    1033 00026e A931          MOV *(#_uxTopReadyPriority), AR1 ; |1128| 
         000270 0000 
         000272 65-  
    1034 000273 AA6D          MOV *AR3(#24), AR2 ; |1128| 
         000275 0018 
    1035 000277 1298          CMPU AR2 <= AR1, TC1 ; |1128| 
         000279 A4   
    1036 00027a 64E4          BCC $C$L13,TC1 ; |1128| 
    1037                                                      ; branchcc occurs ; |1128| 
    1038 00027c A96D          MOV *AR3(#24), AR1 ; |1128| 
         00027e 0018 
    1039 000280 C931          MOV AR1, *(#_uxTopReadyPriority) ; |1128| 
         000282 0000 
         000284 65-  
    1040 000285       $C$L13:    
    1041 000285 F86D          MPYMK *AR3(#24), #10, AC0 ; |1128| 
         000287 0A00 
         000289 0018 
    1042 00028b 2209          MOV AC0, AR1 ; |1128| 
    1043 00028d EC31          AMOV #_pxReadyTasksLists, XAR0 ; |1128| 
         00028f 8E00 
         000291 0004-
    1044 000293 1490          AADD AR1, AR0 ; |1128| 
         000295 80   
    1045 000296 ED00          MOV dbl(*SP(#0)), XAR1
         000298 9F   
    1046 000299 1404          AADD #4, AR1 ; |1128| 
         00029b 94   
    1047              $C$DW$115       .dwtag  DW_TAG_TI_branch
    1048                      .dwattr $C$DW$115, DW_AT_low_pc(0x00)
    1049                      .dwattr $C$DW$115, DW_AT_name("_vListInsertEnd")
    1050                      .dwattr $C$DW$115, DW_AT_TI_call
    1051 00029c 6C00          CALL #_vListInsertEnd ; |1128| 
         00029e 0000!
    1052                                                      ; call occurs [#_vListInsertEnd] ; |1128| 
    1053                      .dwpsn  file "../FreeRTOS/Source/tasks.c",line 1130,column 3,is_stmt
    1054                      .dwpsn  file "../FreeRTOS/Source/tasks.c",line 1132,column 2,is_stmt
    1055 0002a0 A931          MOV *(#_usCriticalNesting), AR1 ; |1132| 
         0002a2 0000 
         0002a4 00!  
    1056 0002a5 0409          BCC $C$L14,AR1 == #0 ; |1132| 
         0002a7 14   
    1057                                                      ; branchcc occurs ; |1132| 
    1058 0002a8 F731          SUB #1, *(#_usCriticalNesting) ; |1132| 
         0002aa FFFF 
         0002ac 0000 
         0002ae 00!  
    1059 0002af 20            NOP
    1060 0002b0 20            NOP
    1061 0002b1 20            NOP
    1062 0002b2 A931          MOV *(#_usCriticalNesting), AR1 ; |1132| 
         0002b4 0000 
TMS320C55x Assembler PC v4.4.1 Sat Sep 08 17:11:34 2018

Tools Copyright (c) 1996-2012 Texas Instruments Incorporated
tasks.asm                                                            PAGE   24

         0002b6 00!  
    1063 0002b7 6199          BCC $C$L14,AR1 != #0 ; |1132| 
    1064                                                      ; branchcc occurs ; |1132| 
    1065 0002b9 20     nop
    1066 0002ba 46B2   bclr INTM
    1067 0002bc       $C$L14:    
    1068                      .dwpsn  file "../FreeRTOS/Source/tasks.c",line 1134,column 2,is_stmt
    1069 0002bc A931          MOV *(#_xSchedulerRunning), AR1 ; |1134| 
         0002be 0000 
         0002c0 66-  
    1070 0002c1 0409          BCC $C$L15,AR1 == #0 ; |1134| 
         0002c3 1C   
    1071                                                      ; branchcc occurs ; |1134| 
    1072                      .dwpsn  file "../FreeRTOS/Source/tasks.c",line 1138,column 3,is_stmt
    1073 0002c4 ED00          MOV dbl(*SP(#0)), XAR3
         0002c6 BF   
    1074 0002c7 A96D          MOV *AR3(#24), AR1 ; |1138| 
         0002c9 0018 
    1075 0002cb ED31          MOV dbl(*(#_pxCurrentTCB)), XAR3
         0002cd BF00 
         0002cf 0002-
    1076 0002d1 AA6D          MOV *AR3(#24), AR2 ; |1138| 
         0002d3 0018 
    1077 0002d5 12A8          CMPU AR2 >= AR1, TC1 ; |1138| 
         0002d7 94   
    1078 0002d8 6364          BCC $C$L15,TC1 ; |1138| 
    1079                                                      ; branchcc occurs ; |1138| 
    1080                      .dwpsn  file "../FreeRTOS/Source/tasks.c",line 1140,column 4,is_stmt
    1081              $C$DW$116       .dwtag  DW_TAG_TI_branch
    1082                      .dwattr $C$DW$116, DW_AT_low_pc(0x00)
    1083                      .dwattr $C$DW$116, DW_AT_name("_vPortYield")
    1084                      .dwattr $C$DW$116, DW_AT_TI_call
    1085 0002da 6C00          CALL #_vPortYield ; |1140| 
         0002dc 0000!
    1086                                                      ; call occurs [#_vPortYield] ; |1140| 
    1087                      .dwpsn  file "../FreeRTOS/Source/tasks.c",line 1141,column 3,is_stmt
    1088 0002de 4A00          B $C$L15  ; |1141| 
    1089                                                      ; branch occurs ; |1141| 
    1090 0002e0       $C$L15:    
    1091 0002e0 4E03          AADD #3, SP
    1092                      .dwcfi  cfa_offset, 1
    1093              $C$DW$117       .dwtag  DW_TAG_TI_branch
    1094                      .dwattr $C$DW$117, DW_AT_low_pc(0x00)
    1095                      .dwattr $C$DW$117, DW_AT_TI_return
    1096 0002e2 4804          RET
    1097                                                      ; return occurs
    1098                      .dwattr $C$DW$111, DW_AT_TI_end_file("../FreeRTOS/Source/tasks.c")
    1099                      .dwattr $C$DW$111, DW_AT_TI_end_line(0x47f)
    1100                      .dwattr $C$DW$111, DW_AT_TI_end_column(0x01)
    1101                      .dwendentry
    1102                      .dwendtag $C$DW$111
    1103              
    1104 0002e4               .sect   ".text"
    1105                      .align 4
    1106                      .global _vTaskDelete
TMS320C55x Assembler PC v4.4.1 Sat Sep 08 17:11:34 2018

Tools Copyright (c) 1996-2012 Texas Instruments Incorporated
tasks.asm                                                            PAGE   25

    1107              
    1108              $C$DW$118       .dwtag  DW_TAG_subprogram, DW_AT_name("vTaskDelete")
    1109                      .dwattr $C$DW$118, DW_AT_low_pc(_vTaskDelete)
    1110                      .dwattr $C$DW$118, DW_AT_high_pc(0x00)
    1111                      .dwattr $C$DW$118, DW_AT_TI_symbol_name("_vTaskDelete")
    1112                      .dwattr $C$DW$118, DW_AT_external
    1113                      .dwattr $C$DW$118, DW_AT_TI_begin_file("../FreeRTOS/Source/tasks.c")
    1114                      .dwattr $C$DW$118, DW_AT_TI_begin_line(0x484)
    1115                      .dwattr $C$DW$118, DW_AT_TI_begin_column(0x07)
    1116                      .dwattr $C$DW$118, DW_AT_TI_max_frame_size(0x06)
    1117                      .dwpsn  file "../FreeRTOS/Source/tasks.c",line 1157,column 2,is_stmt,address _vTaskDelete
    1118              
    1119                      .dwfde $C$DW$CIE, _vTaskDelete
    1120              $C$DW$119       .dwtag  DW_TAG_formal_parameter, DW_AT_name("xTaskToDelete")
    1121                      .dwattr $C$DW$119, DW_AT_TI_symbol_name("_xTaskToDelete")
    1122                      .dwattr $C$DW$119, DW_AT_type(*$C$DW$T$70)
    1123                      .dwattr $C$DW$119, DW_AT_location[DW_OP_reg17]
    1124              ;*******************************************************************************
    1125              ;* FUNCTION NAME: vTaskDelete                                                  *
    1126              ;*                                                                             *
    1127              ;*   Function Uses Regs : AC0,AC0,AC1,AC1,T0,AR0,XAR0,AR1,XAR1,AR3,XAR3,SP,    *
    1128              ;*                        CARRY,TC1,M40,SATA,SATD,RDM,FRCT,SMUL                *
    1129              ;*   Stack Frame        : Compact (No Frame Pointer, w/ debug)                 *
    1130              ;*   Total Frame Size   : 6 words                                              *
    1131              ;*                        (2 return address/alignment)                         *
    1132              ;*                        (4 local values)                                     *
    1133              ;*   Min System Stack   : 1 word                                               *
    1134              ;*******************************************************************************
    1135 0002e4       _vTaskDelete:
    1136                      .dwcfi  cfa_offset, 1
    1137                      .dwcfi  save_reg_to_mem, 91, -1
    1138 0002e4 4EFB          AADD #-5, SP
    1139                      .dwcfi  cfa_offset, 6
    1140              $C$DW$120       .dwtag  DW_TAG_variable, DW_AT_name("xTaskToDelete")
    1141                      .dwattr $C$DW$120, DW_AT_TI_symbol_name("_xTaskToDelete")
    1142                      .dwattr $C$DW$120, DW_AT_type(*$C$DW$T$70)
    1143                      .dwattr $C$DW$120, DW_AT_location[DW_OP_bregx 0x24 0]
    1144              $C$DW$121       .dwtag  DW_TAG_variable, DW_AT_name("pxTCB")
    1145                      .dwattr $C$DW$121, DW_AT_TI_symbol_name("_pxTCB")
    1146                      .dwattr $C$DW$121, DW_AT_type(*$C$DW$T$82)
    1147                      .dwattr $C$DW$121, DW_AT_location[DW_OP_bregx 0x24 2]
    1148 0002e6 EB00          MOV XAR0, dbl(*SP(#0))
         0002e8 85   
    1149                      .dwpsn  file "../FreeRTOS/Source/tasks.c",line 1160,column 3,is_stmt
    1150 0002e9 20     nop
    1151 0002ea 46B3   bset INTM
    1152 0002ec F731          ADD #1, *(#_usCriticalNesting) ; |1160| 
         0002ee 0001 
         0002f0 0000 
         0002f2 00!  
    1153                      .dwpsn  file "../FreeRTOS/Source/tasks.c",line 1164,column 4,is_stmt
    1154 0002f3 ED00          MOV dbl(*SP(#0)), XAR3
         0002f5 BF   
    1155 0002f6 90B0          MOV XAR3, AC0
    1156 0002f8 6310          BCC $C$L16,AC0 != #0 ; |1164| 
TMS320C55x Assembler PC v4.4.1 Sat Sep 08 17:11:34 2018

Tools Copyright (c) 1996-2012 Texas Instruments Incorporated
tasks.asm                                                            PAGE   26

    1157                                                      ; branchcc occurs ; |1164| 
    1158 0002fa ED31          MOV dbl(*(#_pxCurrentTCB)), XAR3
         0002fc BF00 
         0002fe 0002-
    1159 000300       $C$L16:    
    1160 000300 EB04          MOV XAR3, dbl(*SP(#2))
         000302 B5   
    1161                      .dwpsn  file "../FreeRTOS/Source/tasks.c",line 1167,column 4,is_stmt
    1162 000303 ED04          MOV dbl(*SP(#2)), XAR0
         000305 8F   
    1163 000306 1404          AADD #4, AR0 ; |1167| 
         000308 84   
    1164              $C$DW$122       .dwtag  DW_TAG_TI_branch
    1165                      .dwattr $C$DW$122, DW_AT_low_pc(0x00)
    1166                      .dwattr $C$DW$122, DW_AT_name("_uxListRemove")
    1167                      .dwattr $C$DW$122, DW_AT_TI_call
    1168 000309 6C00          CALL #_uxListRemove ; |1167| 
         00030b 0000!
    1169                                                      ; call occurs [#_uxListRemove] ; |1167| 
    1170 00030d 6004          BCC $C$L17,T0 == #0 ; |1167| 
    1171                                                      ; branchcc occurs ; |1167| 
    1172                      .dwpsn  file "../FreeRTOS/Source/tasks.c",line 1170,column 4,is_stmt
    1173 00030f       $C$L17:    
    1174                      .dwpsn  file "../FreeRTOS/Source/tasks.c",line 1177,column 4,is_stmt
    1175 00030f ED04          MOV dbl(*SP(#2)), XAR3
         000311 BF   
    1176 000312 ED6D          MOV dbl(*AR3(#22)), XAR3
         000314 BF00 
         000316 16   
    1177 000317 90B0          MOV XAR3, AC0
    1178 000319 6500          BCC $C$L18,AC0 == #0 ; |1177| 
    1179                                                      ; branchcc occurs ; |1177| 
    1180                      .dwpsn  file "../FreeRTOS/Source/tasks.c",line 1179,column 5,is_stmt
    1181 00031b ED04          MOV dbl(*SP(#2)), XAR0
         00031d 8F   
    1182 00031e 140E          AADD #14, AR0 ; |1179| 
         000320 84   
    1183              $C$DW$123       .dwtag  DW_TAG_TI_branch
    1184                      .dwattr $C$DW$123, DW_AT_low_pc(0x00)
    1185                      .dwattr $C$DW$123, DW_AT_name("_uxListRemove")
    1186                      .dwattr $C$DW$123, DW_AT_TI_call
    1187 000321 6C00          CALL #_uxListRemove ; |1179| 
         000323 0000!
    1188                                                      ; call occurs [#_uxListRemove] ; |1179| 
    1189                      .dwpsn  file "../FreeRTOS/Source/tasks.c",line 1180,column 4,is_stmt
    1190 000325       $C$L18:    
    1191                      .dwpsn  file "../FreeRTOS/Source/tasks.c",line 1190,column 4,is_stmt
    1192 000325 F731          ADD #1, *(#_uxTaskNumber) ; |1190| 
         000327 0001 
         000329 0000 
         00032b 6A-  
    1193                      .dwpsn  file "../FreeRTOS/Source/tasks.c",line 1192,column 4,is_stmt
    1194 00032c ED31          MOV dbl(*(#_pxCurrentTCB)), XAR3
         00032e BF00 
         000330 0002-
TMS320C55x Assembler PC v4.4.1 Sat Sep 08 17:11:34 2018

Tools Copyright (c) 1996-2012 Texas Instruments Incorporated
tasks.asm                                                            PAGE   27

    1195 000332 90B0          MOV XAR3, AC0
    1196 000334 ED04          MOV dbl(*SP(#2)), XAR3
         000336 BF   
    1197 000337 90B1          MOV XAR3, AC1
    1198 000339 121C          CMPU AC1 != AC0, TC1 ; |1192| 
         00033b 04   
    1199 00033c 0464          BCC $C$L19,TC1 ; |1192| 
         00033e 19   
    1200                                                      ; branchcc occurs ; |1192| 
    1201                      .dwpsn  file "../FreeRTOS/Source/tasks.c",line 1199,column 5,is_stmt
    1202 00033f ED04          MOV dbl(*SP(#2)), XAR1
         000341 9F   
    1203 000342 EC31          AMOV #_xTasksWaitingTermination, XAR0 ; |1199| 
         000344 8E00 
         000346 004E-
    1204 000348 1404          AADD #4, AR1 ; |1199| 
         00034a 94   
    1205              $C$DW$124       .dwtag  DW_TAG_TI_branch
    1206                      .dwattr $C$DW$124, DW_AT_low_pc(0x00)
    1207                      .dwattr $C$DW$124, DW_AT_name("_vListInsertEnd")
    1208                      .dwattr $C$DW$124, DW_AT_TI_call
    1209 00034b 6C00          CALL #_vListInsertEnd ; |1199| 
         00034d 0000!
    1210                                                      ; call occurs [#_vListInsertEnd] ; |1199| 
    1211                      .dwpsn  file "../FreeRTOS/Source/tasks.c",line 1204,column 5,is_stmt
    1212 00034f F731          ADD #1, *(#_uxDeletedTasksWaitingCleanUp) ; |1204| 
         000351 0001 
         000353 0000 
         000355 58-  
    1213                      .dwpsn  file "../FreeRTOS/Source/tasks.c",line 1212,column 4,is_stmt
    1214 000356 4A10          B $C$L20  ; |1212| 
    1215                                                      ; branch occurs ; |1212| 
    1216 000358       $C$L19:    
    1217                      .dwpsn  file "../FreeRTOS/Source/tasks.c",line 1215,column 5,is_stmt
    1218 000358 F731          SUB #1, *(#_uxCurrentNumberOfTasks) ; |1215| 
         00035a FFFF 
         00035c 0000 
         00035e 59-  
    1219                      .dwpsn  file "../FreeRTOS/Source/tasks.c",line 1216,column 5,is_stmt
    1220 00035f ED04          MOV dbl(*SP(#2)), XAR0
         000361 8F   
    1221              $C$DW$125       .dwtag  DW_TAG_TI_branch
    1222                      .dwattr $C$DW$125, DW_AT_low_pc(0x00)
    1223                      .dwattr $C$DW$125, DW_AT_name("_prvDeleteTCB")
    1224                      .dwattr $C$DW$125, DW_AT_TI_call
    1225 000362 080D          CALL #_prvDeleteTCB ; |1216| 
         000364 6B   
    1226                                                      ; call occurs [#_prvDeleteTCB] ; |1216| 
    1227                      .dwpsn  file "../FreeRTOS/Source/tasks.c",line 1220,column 5,is_stmt
    1228              $C$DW$126       .dwtag  DW_TAG_TI_branch
    1229                      .dwattr $C$DW$126, DW_AT_low_pc(0x00)
    1230                      .dwattr $C$DW$126, DW_AT_name("_prvResetNextTaskUnblockTime")
    1231                      .dwattr $C$DW$126, DW_AT_TI_call
    1232 000365 080D          CALL #_prvResetNextTaskUnblockTime ; |1220| 
         000367 90   
TMS320C55x Assembler PC v4.4.1 Sat Sep 08 17:11:34 2018

Tools Copyright (c) 1996-2012 Texas Instruments Incorporated
tasks.asm                                                            PAGE   28

    1233                                                      ; call occurs [#_prvResetNextTaskUnblockTime] ; |1220| 
    1234 000368       $C$L20:    
    1235                      .dwpsn  file "../FreeRTOS/Source/tasks.c",line 1225,column 3,is_stmt
    1236 000368 A931          MOV *(#_usCriticalNesting), AR1 ; |1225| 
         00036a 0000 
         00036c 00!  
    1237 00036d 0409          BCC $C$L21,AR1 == #0 ; |1225| 
         00036f 14   
    1238                                                      ; branchcc occurs ; |1225| 
    1239 000370 F731          SUB #1, *(#_usCriticalNesting) ; |1225| 
         000372 FFFF 
         000374 0000 
         000376 00!  
    1240 000377 20            NOP
    1241 000378 20            NOP
    1242 000379 20            NOP
    1243 00037a A931          MOV *(#_usCriticalNesting), AR1 ; |1225| 
         00037c 0000 
         00037e 00!  
    1244 00037f 6199          BCC $C$L21,AR1 != #0 ; |1225| 
    1245                                                      ; branchcc occurs ; |1225| 
    1246 000381 20     nop
    1247 000382 46B2   bclr INTM
    1248 000384       $C$L21:    
    1249                      .dwpsn  file "../FreeRTOS/Source/tasks.c",line 1229,column 3,is_stmt
    1250 000384 A931          MOV *(#_xSchedulerRunning), AR1 ; |1229| 
         000386 0000 
         000388 66-  
    1251 000389 0409          BCC $C$L22,AR1 == #0 ; |1229| 
         00038b 18   
    1252                                                      ; branchcc occurs ; |1229| 
    1253                      .dwpsn  file "../FreeRTOS/Source/tasks.c",line 1231,column 4,is_stmt
    1254 00038c ED31          MOV dbl(*(#_pxCurrentTCB)), XAR3
         00038e BF00 
         000390 0002-
    1255 000392 90B0          MOV XAR3, AC0
    1256 000394 ED04          MOV dbl(*SP(#2)), XAR3
         000396 BF   
    1257 000397 90B1          MOV XAR3, AC1
    1258 000399 121C          CMPU AC1 != AC0, TC1 ; |1231| 
         00039b 04   
    1259 00039c 6364          BCC $C$L22,TC1 ; |1231| 
    1260                                                      ; branchcc occurs ; |1231| 
    1261                      .dwpsn  file "../FreeRTOS/Source/tasks.c",line 1234,column 5,is_stmt
    1262              $C$DW$127       .dwtag  DW_TAG_TI_branch
    1263                      .dwattr $C$DW$127, DW_AT_low_pc(0x00)
    1264                      .dwattr $C$DW$127, DW_AT_name("_vPortYield")
    1265                      .dwattr $C$DW$127, DW_AT_TI_call
    1266 00039e 6C00          CALL #_vPortYield ; |1234| 
         0003a0 0000!
    1267                                                      ; call occurs [#_vPortYield] ; |1234| 
    1268                      .dwpsn  file "../FreeRTOS/Source/tasks.c",line 1235,column 4,is_stmt
    1269 0003a2 4A00          B $C$L22  ; |1235| 
    1270                                                      ; branch occurs ; |1235| 
    1271 0003a4       $C$L22:    
TMS320C55x Assembler PC v4.4.1 Sat Sep 08 17:11:34 2018

Tools Copyright (c) 1996-2012 Texas Instruments Incorporated
tasks.asm                                                            PAGE   29

    1272 0003a4 4E05          AADD #5, SP
    1273                      .dwcfi  cfa_offset, 1
    1274              $C$DW$128       .dwtag  DW_TAG_TI_branch
    1275                      .dwattr $C$DW$128, DW_AT_low_pc(0x00)
    1276                      .dwattr $C$DW$128, DW_AT_TI_return
    1277 0003a6 4804          RET
    1278                                                      ; return occurs
    1279                      .dwattr $C$DW$118, DW_AT_TI_end_file("../FreeRTOS/Source/tasks.c")
    1280                      .dwattr $C$DW$118, DW_AT_TI_end_line(0x4d9)
    1281                      .dwattr $C$DW$118, DW_AT_TI_end_column(0x02)
    1282                      .dwendentry
    1283                      .dwendtag $C$DW$118
    1284              
    1285 0003a8               .sect   ".text"
    1286                      .align 4
    1287                      .global _vTaskDelayUntil
    1288              
    1289              $C$DW$129       .dwtag  DW_TAG_subprogram, DW_AT_name("vTaskDelayUntil")
    1290                      .dwattr $C$DW$129, DW_AT_low_pc(_vTaskDelayUntil)
    1291                      .dwattr $C$DW$129, DW_AT_high_pc(0x00)
    1292                      .dwattr $C$DW$129, DW_AT_TI_symbol_name("_vTaskDelayUntil")
    1293                      .dwattr $C$DW$129, DW_AT_external
    1294                      .dwattr $C$DW$129, DW_AT_TI_begin_file("../FreeRTOS/Source/tasks.c")
    1295                      .dwattr $C$DW$129, DW_AT_TI_begin_line(0x4e0)
    1296                      .dwattr $C$DW$129, DW_AT_TI_begin_column(0x07)
    1297                      .dwattr $C$DW$129, DW_AT_TI_max_frame_size(0x08)
    1298                      .dwpsn  file "../FreeRTOS/Source/tasks.c",line 1249,column 2,is_stmt,address _vTaskDelayUntil
    1299              
    1300                      .dwfde $C$DW$CIE, _vTaskDelayUntil
    1301              $C$DW$130       .dwtag  DW_TAG_formal_parameter, DW_AT_name("pxPreviousWakeTime")
    1302                      .dwattr $C$DW$130, DW_AT_TI_symbol_name("_pxPreviousWakeTime")
    1303                      .dwattr $C$DW$130, DW_AT_type(*$C$DW$T$93)
    1304                      .dwattr $C$DW$130, DW_AT_location[DW_OP_reg17]
    1305              $C$DW$131       .dwtag  DW_TAG_formal_parameter, DW_AT_name("xTimeIncrement")
    1306                      .dwattr $C$DW$131, DW_AT_TI_symbol_name("_xTimeIncrement")
    1307                      .dwattr $C$DW$131, DW_AT_type(*$C$DW$T$94)
    1308                      .dwattr $C$DW$131, DW_AT_location[DW_OP_reg12]
    1309              ;*******************************************************************************
    1310              ;* FUNCTION NAME: vTaskDelayUntil                                              *
    1311              ;*                                                                             *
    1312              ;*   Function Uses Regs : AC0,T0,T1,AR0,XAR0,AR1,AR2,AR3,XAR3,SP,CARRY,TC1,M40,*
    1313              ;*                        SATA,SATD,RDM,FRCT,SMUL                              *
    1314              ;*   Stack Frame        : Compact (No Frame Pointer, w/ debug)                 *
    1315              ;*   Total Frame Size   : 8 words                                              *
    1316              ;*                        (1 return address/alignment)                         *
    1317              ;*                        (7 local values)                                     *
    1318              ;*   Min System Stack   : 1 word                                               *
    1319              ;*******************************************************************************
    1320 0003a8       _vTaskDelayUntil:
    1321                      .dwcfi  cfa_offset, 1
    1322                      .dwcfi  save_reg_to_mem, 91, -1
    1323 0003a8 4EF9          AADD #-7, SP
    1324                      .dwcfi  cfa_offset, 8
    1325              $C$DW$132       .dwtag  DW_TAG_variable, DW_AT_name("pxPreviousWakeTime")
    1326                      .dwattr $C$DW$132, DW_AT_TI_symbol_name("_pxPreviousWakeTime")
TMS320C55x Assembler PC v4.4.1 Sat Sep 08 17:11:34 2018

Tools Copyright (c) 1996-2012 Texas Instruments Incorporated
tasks.asm                                                            PAGE   30

    1327                      .dwattr $C$DW$132, DW_AT_type(*$C$DW$T$93)
    1328                      .dwattr $C$DW$132, DW_AT_location[DW_OP_bregx 0x24 0]
    1329              $C$DW$133       .dwtag  DW_TAG_variable, DW_AT_name("xTimeIncrement")
    1330                      .dwattr $C$DW$133, DW_AT_TI_symbol_name("_xTimeIncrement")
    1331                      .dwattr $C$DW$133, DW_AT_type(*$C$DW$T$94)
    1332                      .dwattr $C$DW$133, DW_AT_location[DW_OP_bregx 0x24 2]
    1333              $C$DW$134       .dwtag  DW_TAG_variable, DW_AT_name("xTimeToWake")
    1334                      .dwattr $C$DW$134, DW_AT_TI_symbol_name("_xTimeToWake")
    1335                      .dwattr $C$DW$134, DW_AT_type(*$C$DW$T$38)
    1336                      .dwattr $C$DW$134, DW_AT_location[DW_OP_bregx 0x24 3]
    1337              $C$DW$135       .dwtag  DW_TAG_variable, DW_AT_name("xAlreadyYielded")
    1338                      .dwattr $C$DW$135, DW_AT_TI_symbol_name("_xAlreadyYielded")
    1339                      .dwattr $C$DW$135, DW_AT_type(*$C$DW$T$44)
    1340                      .dwattr $C$DW$135, DW_AT_location[DW_OP_bregx 0x24 4]
    1341              $C$DW$136       .dwtag  DW_TAG_variable, DW_AT_name("xShouldDelay")
    1342                      .dwattr $C$DW$136, DW_AT_TI_symbol_name("_xShouldDelay")
    1343                      .dwattr $C$DW$136, DW_AT_type(*$C$DW$T$44)
    1344                      .dwattr $C$DW$136, DW_AT_location[DW_OP_bregx 0x24 5]
    1345 0003aa C404          MOV T0, *SP(#2) ; |1249| 
    1346 0003ac EB00          MOV XAR0, dbl(*SP(#0))
         0003ae 85   
    1347                      .dwpsn  file "../FreeRTOS/Source/tasks.c",line 1251,column 30,is_stmt
    1348 0003af E60A          MOV #0, *SP(#5) ; |1251| 
         0003b1 00   
    1349                      .dwpsn  file "../FreeRTOS/Source/tasks.c",line 1257,column 3,is_stmt
    1350              $C$DW$137       .dwtag  DW_TAG_TI_branch
    1351                      .dwattr $C$DW$137, DW_AT_low_pc(0x00)
    1352                      .dwattr $C$DW$137, DW_AT_name("_vTaskSuspendAll")
    1353                      .dwattr $C$DW$137, DW_AT_TI_call
    1354 0003b2 0805          CALL #_vTaskSuspendAll ; |1257| 
         0003b4 57   
    1355                                                      ; call occurs [#_vTaskSuspendAll] ; |1257| 
    1356              
    1357              $C$DW$138       .dwtag  DW_TAG_lexical_block, DW_AT_low_pc(0x00), DW_AT_high_pc(0x00)
    1358              $C$DW$139       .dwtag  DW_TAG_variable, DW_AT_name("xConstTickCount")
    1359                      .dwattr $C$DW$139, DW_AT_TI_symbol_name("_xConstTickCount")
    1360                      .dwattr $C$DW$139, DW_AT_type(*$C$DW$T$94)
    1361                      .dwattr $C$DW$139, DW_AT_location[DW_OP_bregx 0x24 6]
    1362                      .dwpsn  file "../FreeRTOS/Source/tasks.c",line 1261,column 21,is_stmt
    1363 0003b5 A931          MOV *(#_xTickCount), AR1 ; |1261| 
         0003b7 0000 
         0003b9 64-  
    1364 0003ba C90C          MOV AR1, *SP(#6) ; |1261| 
    1365                      .dwpsn  file "../FreeRTOS/Source/tasks.c",line 1264,column 4,is_stmt
    1366 0003bc ED00          MOV dbl(*SP(#0)), XAR3
         0003be BF   
    1367 0003bf A904          MOV *SP(#2), AR1 ; |1264| 
    1368 0003c1 D661          ADD *AR3, AR1, AR1 ; |1264| 
         0003c3 99   
    1369 0003c4 C906          MOV AR1, *SP(#3) ; |1264| 
    1370                      .dwpsn  file "../FreeRTOS/Source/tasks.c",line 1266,column 4,is_stmt
    1371 0003c6 ED00          MOV dbl(*SP(#0)), XAR3
         0003c8 BF   
    1372 0003c9 AA0C          MOV *SP(#6), AR2 ; |1266| 
    1373 0003cb A961          MOV *AR3, AR1 ; |1266| 
TMS320C55x Assembler PC v4.4.1 Sat Sep 08 17:11:34 2018

Tools Copyright (c) 1996-2012 Texas Instruments Incorporated
tasks.asm                                                            PAGE   31

    1374 0003cd 12A8          CMPU AR2 >= AR1, TC1 ; |1266| 
         0003cf 94   
    1375 0003d0 0464          BCC $C$L23,TC1 ; |1266| 
         0003d2 17   
    1376                                                      ; branchcc occurs ; |1266| 
    1377                      .dwpsn  file "../FreeRTOS/Source/tasks.c",line 1273,column 5,is_stmt
    1378 0003d3 A961          MOV *AR3, AR1 ; |1273| 
    1379 0003d5 AA06          MOV *SP(#3), AR2 ; |1273| 
    1380 0003d7 12A8          CMPU AR2 >= AR1, TC1 ; |1273| 
         0003d9 94   
    1381 0003da 0464          BCC $C$L25,TC1 ; |1273| 
         0003dc 20   
    1382                                                      ; branchcc occurs ; |1273| 
    1383 0003dd A90C          MOV *SP(#6), AR1 ; |1273| 
    1384 0003df 1298          CMPU AR2 <= AR1, TC1 ; |1273| 
         0003e1 A4   
    1385 0003e2 0464          BCC $C$L25,TC1 ; |1273| 
         0003e4 18   
    1386                                                      ; branchcc occurs ; |1273| 
    1387                      .dwpsn  file "../FreeRTOS/Source/tasks.c",line 1275,column 6,is_stmt
    1388 0003e5 E60A          MOV #1, *SP(#5) ; |1275| 
         0003e7 01   
    1389                      .dwpsn  file "../FreeRTOS/Source/tasks.c",line 1276,column 5,is_stmt
    1390 0003e8 4A13          B $C$L25  ; |1276| 
    1391                                                      ; branch occurs ; |1276| 
    1392 0003ea       $C$L23:    
    1393                      .dwpsn  file "../FreeRTOS/Source/tasks.c",line 1287,column 5,is_stmt
    1394 0003ea A961          MOV *AR3, AR1 ; |1287| 
    1395 0003ec AA06          MOV *SP(#3), AR2 ; |1287| 
    1396 0003ee 12A4          CMPU AR2 < AR1, TC1 ; |1287| 
         0003f0 94   
    1397 0003f1 63E4          BCC $C$L24,TC1 ; |1287| 
    1398                                                      ; branchcc occurs ; |1287| 
    1399 0003f3 A90C          MOV *SP(#6), AR1 ; |1287| 
    1400 0003f5 1298          CMPU AR2 <= AR1, TC1 ; |1287| 
         0003f7 A4   
    1401 0003f8 61E4          BCC $C$L25,TC1 ; |1287| 
    1402                                                      ; branchcc occurs ; |1287| 
    1403 0003fa       $C$L24:    
    1404                      .dwpsn  file "../FreeRTOS/Source/tasks.c",line 1289,column 6,is_stmt
    1405 0003fa E60A          MOV #1, *SP(#5) ; |1289| 
         0003fc 01   
    1406                      .dwpsn  file "../FreeRTOS/Source/tasks.c",line 1290,column 5,is_stmt
    1407 0003fd       $C$L25:    
    1408                      .dwpsn  file "../FreeRTOS/Source/tasks.c",line 1298,column 4,is_stmt
    1409 0003fd ED00          MOV dbl(*SP(#0)), XAR3
         0003ff BF   
    1410 000400 A906          MOV *SP(#3), AR1 ; |1298| 
    1411 000402 C961          MOV AR1, *AR3 ; |1298| 
    1412                      .dwpsn  file "../FreeRTOS/Source/tasks.c",line 1300,column 4,is_stmt
    1413 000404 A90A          MOV *SP(#5), AR1 ; |1300| 
    1414 000406 6609          BCC $C$L26,AR1 == #0 ; |1300| 
    1415                                                      ; branchcc occurs ; |1300| 
    1416                      .dwpsn  file "../FreeRTOS/Source/tasks.c",line 1306,column 5,is_stmt
    1417 000408 A006          MOV *SP(#3), AC0 ; |1306| 
TMS320C55x Assembler PC v4.4.1 Sat Sep 08 17:11:34 2018

Tools Copyright (c) 1996-2012 Texas Instruments Incorporated
tasks.asm                                                            PAGE   32

    1418              
    1419 00040a DF0C          SUB uns(*SP(#6)), AC0, AC0 ; |1306| 
         00040c 0F   
    1420 00040d 3D05  ||      MOV #0, T1
    1421              
    1422              $C$DW$140       .dwtag  DW_TAG_TI_branch
    1423                      .dwattr $C$DW$140, DW_AT_low_pc(0x00)
    1424                      .dwattr $C$DW$140, DW_AT_name("_prvAddCurrentTaskToDelayedList")
    1425                      .dwattr $C$DW$140, DW_AT_TI_call
    1426              
    1427 00040f 0812          CALL #_prvAddCurrentTaskToDelayedList ; |1306| 
         000411 C4   
    1428 000412 2304  ||      MOV AC0, T0 ; |1306| 
    1429              
    1430                                                      ; call occurs [#_prvAddCurrentTaskToDelayedList] ; |1306| 
    1431                      .dwpsn  file "../FreeRTOS/Source/tasks.c",line 1307,column 4,is_stmt
    1432              $C$L26:    
    1433                      .dwendtag $C$DW$138
    1434              
    1435                      .dwpsn  file "../FreeRTOS/Source/tasks.c",line 1313,column 3,is_stmt
    1436              $C$DW$141       .dwtag  DW_TAG_TI_branch
    1437                      .dwattr $C$DW$141, DW_AT_low_pc(0x00)
    1438                      .dwattr $C$DW$141, DW_AT_name("_xTaskResumeAll")
    1439                      .dwattr $C$DW$141, DW_AT_TI_call
    1440 000414 0805          CALL #_xTaskResumeAll ; |1313| 
         000416 01   
    1441                                                      ; call occurs [#_xTaskResumeAll] ; |1313| 
    1442 000417 C408          MOV T0, *SP(#4) ; |1313| 
    1443                      .dwpsn  file "../FreeRTOS/Source/tasks.c",line 1317,column 3,is_stmt
    1444 000419 2249          MOV T0, AR1
    1445 00041b 6319          BCC $C$L27,AR1 != #0 ; |1317| 
    1446                                                      ; branchcc occurs ; |1317| 
    1447                      .dwpsn  file "../FreeRTOS/Source/tasks.c",line 1319,column 4,is_stmt
    1448              $C$DW$142       .dwtag  DW_TAG_TI_branch
    1449                      .dwattr $C$DW$142, DW_AT_low_pc(0x00)
    1450                      .dwattr $C$DW$142, DW_AT_name("_vPortYield")
    1451                      .dwattr $C$DW$142, DW_AT_TI_call
    1452 00041d 6C00          CALL #_vPortYield ; |1319| 
         00041f 0000!
    1453                                                      ; call occurs [#_vPortYield] ; |1319| 
    1454                      .dwpsn  file "../FreeRTOS/Source/tasks.c",line 1320,column 3,is_stmt
    1455 000421 4A00          B $C$L27  ; |1320| 
    1456                                                      ; branch occurs ; |1320| 
    1457 000423       $C$L27:    
    1458 000423 4E07          AADD #7, SP
    1459                      .dwcfi  cfa_offset, 1
    1460              $C$DW$143       .dwtag  DW_TAG_TI_branch
    1461                      .dwattr $C$DW$143, DW_AT_low_pc(0x00)
    1462                      .dwattr $C$DW$143, DW_AT_TI_return
    1463 000425 4804          RET
    1464                                                      ; return occurs
    1465                      .dwattr $C$DW$129, DW_AT_TI_end_file("../FreeRTOS/Source/tasks.c")
    1466                      .dwattr $C$DW$129, DW_AT_TI_end_line(0x52d)
    1467                      .dwattr $C$DW$129, DW_AT_TI_end_column(0x02)
    1468                      .dwendentry
TMS320C55x Assembler PC v4.4.1 Sat Sep 08 17:11:34 2018

Tools Copyright (c) 1996-2012 Texas Instruments Incorporated
tasks.asm                                                            PAGE   33

    1469                      .dwendtag $C$DW$129
    1470              
    1471 000427               .sect   ".text"
    1472                      .align 4
    1473                      .global _vTaskDelay
    1474              
    1475              $C$DW$144       .dwtag  DW_TAG_subprogram, DW_AT_name("vTaskDelay")
    1476                      .dwattr $C$DW$144, DW_AT_low_pc(_vTaskDelay)
    1477                      .dwattr $C$DW$144, DW_AT_high_pc(0x00)
    1478                      .dwattr $C$DW$144, DW_AT_TI_symbol_name("_vTaskDelay")
    1479                      .dwattr $C$DW$144, DW_AT_external
    1480                      .dwattr $C$DW$144, DW_AT_TI_begin_file("../FreeRTOS/Source/tasks.c")
    1481                      .dwattr $C$DW$144, DW_AT_TI_begin_line(0x534)
    1482                      .dwattr $C$DW$144, DW_AT_TI_begin_column(0x07)
    1483                      .dwattr $C$DW$144, DW_AT_TI_max_frame_size(0x04)
    1484                      .dwpsn  file "../FreeRTOS/Source/tasks.c",line 1333,column 2,is_stmt,address _vTaskDelay
    1485              
    1486                      .dwfde $C$DW$CIE, _vTaskDelay
    1487              $C$DW$145       .dwtag  DW_TAG_formal_parameter, DW_AT_name("xTicksToDelay")
    1488                      .dwattr $C$DW$145, DW_AT_TI_symbol_name("_xTicksToDelay")
    1489                      .dwattr $C$DW$145, DW_AT_type(*$C$DW$T$94)
    1490                      .dwattr $C$DW$145, DW_AT_location[DW_OP_reg12]
    1491              ;*******************************************************************************
    1492              ;* FUNCTION NAME: vTaskDelay                                                   *
    1493              ;*                                                                             *
    1494              ;*   Function Uses Regs : T0,T1,AR1,SP,M40,SATA,SATD,RDM,FRCT,SMUL             *
    1495              ;*   Stack Frame        : Compact (No Frame Pointer, w/ debug)                 *
    1496              ;*   Total Frame Size   : 4 words                                              *
    1497              ;*                        (2 return address/alignment)                         *
    1498              ;*                        (2 local values)                                     *
    1499              ;*   Min System Stack   : 1 word                                               *
    1500              ;*******************************************************************************
    1501 000428       _vTaskDelay:
    1502                      .dwcfi  cfa_offset, 1
    1503                      .dwcfi  save_reg_to_mem, 91, -1
    1504 000428 4EFD          AADD #-3, SP
    1505                      .dwcfi  cfa_offset, 4
    1506              $C$DW$146       .dwtag  DW_TAG_variable, DW_AT_name("xTicksToDelay")
    1507                      .dwattr $C$DW$146, DW_AT_TI_symbol_name("_xTicksToDelay")
    1508                      .dwattr $C$DW$146, DW_AT_type(*$C$DW$T$94)
    1509                      .dwattr $C$DW$146, DW_AT_location[DW_OP_bregx 0x24 0]
    1510              $C$DW$147       .dwtag  DW_TAG_variable, DW_AT_name("xAlreadyYielded")
    1511                      .dwattr $C$DW$147, DW_AT_TI_symbol_name("_xAlreadyYielded")
    1512                      .dwattr $C$DW$147, DW_AT_type(*$C$DW$T$44)
    1513                      .dwattr $C$DW$147, DW_AT_location[DW_OP_bregx 0x24 1]
    1514 00042a C400          MOV T0, *SP(#0) ; |1333| 
    1515                      .dwpsn  file "../FreeRTOS/Source/tasks.c",line 1334,column 13,is_stmt
    1516 00042c E602          MOV #0, *SP(#1) ; |1334| 
         00042e 00   
    1517                      .dwpsn  file "../FreeRTOS/Source/tasks.c",line 1337,column 3,is_stmt
    1518 00042f A900          MOV *SP(#0), AR1 ; |1337| 
    1519 000431 6789          BCC $C$L28,AR1 == #0 ; |1337| 
    1520                                                      ; branchcc occurs ; |1337| 
    1521                      .dwpsn  file "../FreeRTOS/Source/tasks.c",line 1340,column 4,is_stmt
    1522              $C$DW$148       .dwtag  DW_TAG_TI_branch
TMS320C55x Assembler PC v4.4.1 Sat Sep 08 17:11:34 2018

Tools Copyright (c) 1996-2012 Texas Instruments Incorporated
tasks.asm                                                            PAGE   34

    1523                      .dwattr $C$DW$148, DW_AT_low_pc(0x00)
    1524                      .dwattr $C$DW$148, DW_AT_name("_vTaskSuspendAll")
    1525                      .dwattr $C$DW$148, DW_AT_TI_call
    1526 000433 0804          CALL #_vTaskSuspendAll ; |1340| 
         000435 D6   
    1527                                                      ; call occurs [#_vTaskSuspendAll] ; |1340| 
    1528                      .dwpsn  file "../FreeRTOS/Source/tasks.c",line 1351,column 5,is_stmt
    1529 000436 A400          MOV *SP(#0), T0 ; |1351| 
    1530              $C$DW$149       .dwtag  DW_TAG_TI_branch
    1531                      .dwattr $C$DW$149, DW_AT_low_pc(0x00)
    1532                      .dwattr $C$DW$149, DW_AT_name("_prvAddCurrentTaskToDelayedList")
    1533                      .dwattr $C$DW$149, DW_AT_TI_call
    1534              
    1535 000438 0812          CALL #_prvAddCurrentTaskToDelayedList ; |1351| 
         00043a 9B   
    1536 00043b 3D05  ||      MOV #0, T1
    1537              
    1538                                                      ; call occurs [#_prvAddCurrentTaskToDelayedList] ; |1351| 
    1539                      .dwpsn  file "../FreeRTOS/Source/tasks.c",line 1353,column 4,is_stmt
    1540              $C$DW$150       .dwtag  DW_TAG_TI_branch
    1541                      .dwattr $C$DW$150, DW_AT_low_pc(0x00)
    1542                      .dwattr $C$DW$150, DW_AT_name("_xTaskResumeAll")
    1543                      .dwattr $C$DW$150, DW_AT_TI_call
    1544 00043d 0804          CALL #_xTaskResumeAll ; |1353| 
         00043f D8   
    1545                                                      ; call occurs [#_xTaskResumeAll] ; |1353| 
    1546 000440 C402          MOV T0, *SP(#1) ; |1353| 
    1547                      .dwpsn  file "../FreeRTOS/Source/tasks.c",line 1354,column 3,is_stmt
    1548 000442       $C$L28:    
    1549                      .dwpsn  file "../FreeRTOS/Source/tasks.c",line 1362,column 3,is_stmt
    1550 000442 A902          MOV *SP(#1), AR1 ; |1362| 
    1551 000444 6319          BCC $C$L29,AR1 != #0 ; |1362| 
    1552                                                      ; branchcc occurs ; |1362| 
    1553                      .dwpsn  file "../FreeRTOS/Source/tasks.c",line 1364,column 4,is_stmt
    1554              $C$DW$151       .dwtag  DW_TAG_TI_branch
    1555                      .dwattr $C$DW$151, DW_AT_low_pc(0x00)
    1556                      .dwattr $C$DW$151, DW_AT_name("_vPortYield")
    1557                      .dwattr $C$DW$151, DW_AT_TI_call
    1558 000446 6C00          CALL #_vPortYield ; |1364| 
         000448 0000!
    1559                                                      ; call occurs [#_vPortYield] ; |1364| 
    1560                      .dwpsn  file "../FreeRTOS/Source/tasks.c",line 1365,column 3,is_stmt
    1561 00044a 4A00          B $C$L29  ; |1365| 
    1562                                                      ; branch occurs ; |1365| 
    1563 00044c       $C$L29:    
    1564 00044c 4E03          AADD #3, SP
    1565                      .dwcfi  cfa_offset, 1
    1566              $C$DW$152       .dwtag  DW_TAG_TI_branch
    1567                      .dwattr $C$DW$152, DW_AT_low_pc(0x00)
    1568                      .dwattr $C$DW$152, DW_AT_TI_return
    1569 00044e 4804          RET
    1570                                                      ; return occurs
    1571                      .dwattr $C$DW$144, DW_AT_TI_end_file("../FreeRTOS/Source/tasks.c")
    1572                      .dwattr $C$DW$144, DW_AT_TI_end_line(0x55a)
    1573                      .dwattr $C$DW$144, DW_AT_TI_end_column(0x02)
TMS320C55x Assembler PC v4.4.1 Sat Sep 08 17:11:34 2018

Tools Copyright (c) 1996-2012 Texas Instruments Incorporated
tasks.asm                                                            PAGE   35

    1574                      .dwendentry
    1575                      .dwendtag $C$DW$144
    1576              
    1577 000450               .sect   ".text"
    1578                      .align 4
    1579                      .global _uxTaskPriorityGet
    1580              
    1581              $C$DW$153       .dwtag  DW_TAG_subprogram, DW_AT_name("uxTaskPriorityGet")
    1582                      .dwattr $C$DW$153, DW_AT_low_pc(_uxTaskPriorityGet)
    1583                      .dwattr $C$DW$153, DW_AT_high_pc(0x00)
    1584                      .dwattr $C$DW$153, DW_AT_TI_symbol_name("_uxTaskPriorityGet")
    1585                      .dwattr $C$DW$153, DW_AT_external
    1586                      .dwattr $C$DW$153, DW_AT_type(*$C$DW$T$25)
    1587                      .dwattr $C$DW$153, DW_AT_TI_begin_file("../FreeRTOS/Source/tasks.c")
    1588                      .dwattr $C$DW$153, DW_AT_TI_begin_line(0x5bd)
    1589                      .dwattr $C$DW$153, DW_AT_TI_begin_column(0x0e)
    1590                      .dwattr $C$DW$153, DW_AT_TI_max_frame_size(0x06)
    1591                      .dwpsn  file "../FreeRTOS/Source/tasks.c",line 1470,column 2,is_stmt,address _uxTaskPriorityGet
    1592              
    1593                      .dwfde $C$DW$CIE, _uxTaskPriorityGet
    1594              $C$DW$154       .dwtag  DW_TAG_formal_parameter, DW_AT_name("xTask")
    1595                      .dwattr $C$DW$154, DW_AT_TI_symbol_name("_xTask")
    1596                      .dwattr $C$DW$154, DW_AT_type(*$C$DW$T$121)
    1597                      .dwattr $C$DW$154, DW_AT_location[DW_OP_reg17]
    1598              ;*******************************************************************************
    1599              ;* FUNCTION NAME: uxTaskPriorityGet                                            *
    1600              ;*                                                                             *
    1601              ;*   Function Uses Regs : AC0,AC0,T0,AR0,XAR0,AR1,AR3,XAR3,SP,CARRY,M40,SATA,  *
    1602              ;*                        SATD,RDM,FRCT,SMUL                                   *
    1603              ;*   Stack Frame        : Compact (No Frame Pointer, w/ debug)                 *
    1604              ;*   Total Frame Size   : 6 words                                              *
    1605              ;*                        (1 return address/alignment)                         *
    1606              ;*                        (5 local values)                                     *
    1607              ;*   Min System Stack   : 1 word                                               *
    1608              ;*******************************************************************************
    1609 000450       _uxTaskPriorityGet:
    1610                      .dwcfi  cfa_offset, 1
    1611                      .dwcfi  save_reg_to_mem, 91, -1
    1612 000450 4EFB          AADD #-5, SP
    1613                      .dwcfi  cfa_offset, 6
    1614              $C$DW$155       .dwtag  DW_TAG_variable, DW_AT_name("xTask")
    1615                      .dwattr $C$DW$155, DW_AT_TI_symbol_name("_xTask")
    1616                      .dwattr $C$DW$155, DW_AT_type(*$C$DW$T$121)
    1617                      .dwattr $C$DW$155, DW_AT_location[DW_OP_bregx 0x24 0]
    1618              $C$DW$156       .dwtag  DW_TAG_variable, DW_AT_name("pxTCB")
    1619                      .dwattr $C$DW$156, DW_AT_TI_symbol_name("_pxTCB")
    1620                      .dwattr $C$DW$156, DW_AT_type(*$C$DW$T$156)
    1621                      .dwattr $C$DW$156, DW_AT_location[DW_OP_bregx 0x24 2]
    1622              $C$DW$157       .dwtag  DW_TAG_variable, DW_AT_name("uxReturn")
    1623                      .dwattr $C$DW$157, DW_AT_TI_symbol_name("_uxReturn")
    1624                      .dwattr $C$DW$157, DW_AT_type(*$C$DW$T$25)
    1625                      .dwattr $C$DW$157, DW_AT_location[DW_OP_bregx 0x24 4]
    1626 000452 EB00          MOV XAR0, dbl(*SP(#0))
         000454 85   
    1627                      .dwpsn  file "../FreeRTOS/Source/tasks.c",line 1474,column 3,is_stmt
TMS320C55x Assembler PC v4.4.1 Sat Sep 08 17:11:34 2018

Tools Copyright (c) 1996-2012 Texas Instruments Incorporated
tasks.asm                                                            PAGE   36

    1628 000455 20     nop
    1629 000456 46B3   bset INTM
    1630 000458 F731          ADD #1, *(#_usCriticalNesting) ; |1474| 
         00045a 0001 
         00045c 0000 
         00045e 00!  
    1631                      .dwpsn  file "../FreeRTOS/Source/tasks.c",line 1478,column 4,is_stmt
    1632 00045f ED00          MOV dbl(*SP(#0)), XAR3
         000461 BF   
    1633 000462 90B0          MOV XAR3, AC0
    1634 000464 6310          BCC $C$L30,AC0 != #0 ; |1478| 
    1635                                                      ; branchcc occurs ; |1478| 
    1636 000466 ED31          MOV dbl(*(#_pxCurrentTCB)), XAR3
         000468 BF00 
         00046a 0002-
    1637 00046c       $C$L30:    
    1638 00046c EB04          MOV XAR3, dbl(*SP(#2))
         00046e B5   
    1639                      .dwpsn  file "../FreeRTOS/Source/tasks.c",line 1479,column 4,is_stmt
    1640 00046f A96D          MOV *AR3(#24), AR1 ; |1479| 
         000471 0018 
    1641 000473 C908          MOV AR1, *SP(#4) ; |1479| 
    1642                      .dwpsn  file "../FreeRTOS/Source/tasks.c",line 1481,column 3,is_stmt
    1643 000475 A931          MOV *(#_usCriticalNesting), AR1 ; |1481| 
         000477 0000 
         000479 00!  
    1644 00047a 0409          BCC $C$L31,AR1 == #0 ; |1481| 
         00047c 14   
    1645                                                      ; branchcc occurs ; |1481| 
    1646 00047d F731          SUB #1, *(#_usCriticalNesting) ; |1481| 
         00047f FFFF 
         000481 0000 
         000483 00!  
    1647 000484 20            NOP
    1648 000485 20            NOP
    1649 000486 20            NOP
    1650 000487 A931          MOV *(#_usCriticalNesting), AR1 ; |1481| 
         000489 0000 
         00048b 00!  
    1651 00048c 6199          BCC $C$L31,AR1 != #0 ; |1481| 
    1652                                                      ; branchcc occurs ; |1481| 
    1653 00048e 20     nop
    1654 00048f 46B2   bclr INTM
    1655 000491       $C$L31:    
    1656                      .dwpsn  file "../FreeRTOS/Source/tasks.c",line 1483,column 3,is_stmt
    1657 000491 A408          MOV *SP(#4), T0 ; |1483| 
    1658                      .dwpsn  file "../FreeRTOS/Source/tasks.c",line 1484,column 2,is_stmt
    1659 000493 4E05          AADD #5, SP
    1660                      .dwcfi  cfa_offset, 1
    1661              $C$DW$158       .dwtag  DW_TAG_TI_branch
    1662                      .dwattr $C$DW$158, DW_AT_low_pc(0x00)
    1663                      .dwattr $C$DW$158, DW_AT_TI_return
    1664 000495 4804          RET
    1665                                                      ; return occurs
    1666                      .dwattr $C$DW$153, DW_AT_TI_end_file("../FreeRTOS/Source/tasks.c")
TMS320C55x Assembler PC v4.4.1 Sat Sep 08 17:11:34 2018

Tools Copyright (c) 1996-2012 Texas Instruments Incorporated
tasks.asm                                                            PAGE   37

    1667                      .dwattr $C$DW$153, DW_AT_TI_end_line(0x5cc)
    1668                      .dwattr $C$DW$153, DW_AT_TI_end_column(0x02)
    1669                      .dwendentry
    1670                      .dwendtag $C$DW$153
    1671              
    1672 000497               .sect   ".text"
    1673                      .align 4
    1674                      .global _uxTaskPriorityGetFromISR
    1675              
    1676              $C$DW$159       .dwtag  DW_TAG_subprogram, DW_AT_name("uxTaskPriorityGetFromISR")
    1677                      .dwattr $C$DW$159, DW_AT_low_pc(_uxTaskPriorityGetFromISR)
    1678                      .dwattr $C$DW$159, DW_AT_high_pc(0x00)
    1679                      .dwattr $C$DW$159, DW_AT_TI_symbol_name("_uxTaskPriorityGetFromISR")
    1680                      .dwattr $C$DW$159, DW_AT_external
    1681                      .dwattr $C$DW$159, DW_AT_type(*$C$DW$T$25)
    1682                      .dwattr $C$DW$159, DW_AT_TI_begin_file("../FreeRTOS/Source/tasks.c")
    1683                      .dwattr $C$DW$159, DW_AT_TI_begin_line(0x5d3)
    1684                      .dwattr $C$DW$159, DW_AT_TI_begin_column(0x0e)
    1685                      .dwattr $C$DW$159, DW_AT_TI_max_frame_size(0x08)
    1686                      .dwpsn  file "../FreeRTOS/Source/tasks.c",line 1492,column 2,is_stmt,address _uxTaskPriorityGetFromIS
    1687              
    1688                      .dwfde $C$DW$CIE, _uxTaskPriorityGetFromISR
    1689              $C$DW$160       .dwtag  DW_TAG_formal_parameter, DW_AT_name("xTask")
    1690                      .dwattr $C$DW$160, DW_AT_TI_symbol_name("_xTask")
    1691                      .dwattr $C$DW$160, DW_AT_type(*$C$DW$T$121)
    1692                      .dwattr $C$DW$160, DW_AT_location[DW_OP_reg17]
    1693              ;*******************************************************************************
    1694              ;* FUNCTION NAME: uxTaskPriorityGetFromISR                                     *
    1695              ;*                                                                             *
    1696              ;*   Function Uses Regs : AC0,AC0,T0,AR0,XAR0,AR1,AR3,XAR3,SP,M40,SATA,SATD,   *
    1697              ;*                        RDM,FRCT,SMUL                                        *
    1698              ;*   Stack Frame        : Compact (No Frame Pointer, w/ debug)                 *
    1699              ;*   Total Frame Size   : 8 words                                              *
    1700              ;*                        (2 return address/alignment)                         *
    1701              ;*                        (6 local values)                                     *
    1702              ;*   Min System Stack   : 1 word                                               *
    1703              ;*******************************************************************************
    1704 000498       _uxTaskPriorityGetFromISR:
    1705                      .dwcfi  cfa_offset, 1
    1706                      .dwcfi  save_reg_to_mem, 91, -1
    1707 000498 4EF9          AADD #-7, SP
    1708                      .dwcfi  cfa_offset, 8
    1709              $C$DW$161       .dwtag  DW_TAG_variable, DW_AT_name("xTask")
    1710                      .dwattr $C$DW$161, DW_AT_TI_symbol_name("_xTask")
    1711                      .dwattr $C$DW$161, DW_AT_type(*$C$DW$T$121)
    1712                      .dwattr $C$DW$161, DW_AT_location[DW_OP_bregx 0x24 0]
    1713              $C$DW$162       .dwtag  DW_TAG_variable, DW_AT_name("pxTCB")
    1714                      .dwattr $C$DW$162, DW_AT_TI_symbol_name("_pxTCB")
    1715                      .dwattr $C$DW$162, DW_AT_type(*$C$DW$T$156)
    1716                      .dwattr $C$DW$162, DW_AT_location[DW_OP_bregx 0x24 2]
    1717              $C$DW$163       .dwtag  DW_TAG_variable, DW_AT_name("uxReturn")
    1718                      .dwattr $C$DW$163, DW_AT_TI_symbol_name("_uxReturn")
    1719                      .dwattr $C$DW$163, DW_AT_type(*$C$DW$T$25)
    1720                      .dwattr $C$DW$163, DW_AT_location[DW_OP_bregx 0x24 4]
    1721              $C$DW$164       .dwtag  DW_TAG_variable, DW_AT_name("uxSavedInterruptState")
TMS320C55x Assembler PC v4.4.1 Sat Sep 08 17:11:34 2018

Tools Copyright (c) 1996-2012 Texas Instruments Incorporated
tasks.asm                                                            PAGE   38

    1722                      .dwattr $C$DW$164, DW_AT_TI_symbol_name("_uxSavedInterruptState")
    1723                      .dwattr $C$DW$164, DW_AT_type(*$C$DW$T$25)
    1724                      .dwattr $C$DW$164, DW_AT_location[DW_OP_bregx 0x24 5]
    1725 00049a EB00          MOV XAR0, dbl(*SP(#0))
         00049c 85   
    1726                      .dwpsn  file "../FreeRTOS/Source/tasks.c",line 1514,column 3,is_stmt
    1727 00049d E60A          MOV #0, *SP(#5) ; |1514| 
         00049f 00   
    1728                      .dwpsn  file "../FreeRTOS/Source/tasks.c",line 1518,column 4,is_stmt
    1729 0004a0 ED00          MOV dbl(*SP(#0)), XAR3
         0004a2 BF   
    1730 0004a3 90B0          MOV XAR3, AC0
    1731 0004a5 6310          BCC $C$L32,AC0 != #0 ; |1518| 
    1732                                                      ; branchcc occurs ; |1518| 
    1733 0004a7 ED31          MOV dbl(*(#_pxCurrentTCB)), XAR3
         0004a9 BF00 
         0004ab 0002-
    1734 0004ad       $C$L32:    
    1735 0004ad EB04          MOV XAR3, dbl(*SP(#2))
         0004af B5   
    1736                      .dwpsn  file "../FreeRTOS/Source/tasks.c",line 1519,column 4,is_stmt
    1737 0004b0 A96D          MOV *AR3(#24), AR1 ; |1519| 
         0004b2 0018 
    1738 0004b4 C908          MOV AR1, *SP(#4) ; |1519| 
    1739                      .dwpsn  file "../FreeRTOS/Source/tasks.c",line 1521,column 3,is_stmt
    1740                      .dwpsn  file "../FreeRTOS/Source/tasks.c",line 1523,column 3,is_stmt
    1741 0004b6 2294          MOV AR1, T0
    1742                      .dwpsn  file "../FreeRTOS/Source/tasks.c",line 1524,column 2,is_stmt
    1743 0004b8 4E07          AADD #7, SP
    1744                      .dwcfi  cfa_offset, 1
    1745              $C$DW$165       .dwtag  DW_TAG_TI_branch
    1746                      .dwattr $C$DW$165, DW_AT_low_pc(0x00)
    1747                      .dwattr $C$DW$165, DW_AT_TI_return
    1748 0004ba 4804          RET
    1749                                                      ; return occurs
    1750                      .dwattr $C$DW$159, DW_AT_TI_end_file("../FreeRTOS/Source/tasks.c")
    1751                      .dwattr $C$DW$159, DW_AT_TI_end_line(0x5f4)
    1752                      .dwattr $C$DW$159, DW_AT_TI_end_column(0x02)
    1753                      .dwendentry
    1754                      .dwendtag $C$DW$159
    1755              
    1756 0004bc               .sect   ".text"
    1757                      .align 4
    1758                      .global _vTaskPrioritySet
    1759              
    1760              $C$DW$166       .dwtag  DW_TAG_subprogram, DW_AT_name("vTaskPrioritySet")
    1761                      .dwattr $C$DW$166, DW_AT_low_pc(_vTaskPrioritySet)
    1762                      .dwattr $C$DW$166, DW_AT_high_pc(0x00)
    1763                      .dwattr $C$DW$166, DW_AT_TI_symbol_name("_vTaskPrioritySet")
    1764                      .dwattr $C$DW$166, DW_AT_external
    1765                      .dwattr $C$DW$166, DW_AT_TI_begin_file("../FreeRTOS/Source/tasks.c")
    1766                      .dwattr $C$DW$166, DW_AT_TI_begin_line(0x5fb)
    1767                      .dwattr $C$DW$166, DW_AT_TI_begin_column(0x07)
    1768                      .dwattr $C$DW$166, DW_AT_TI_max_frame_size(0x0a)
    1769                      .dwpsn  file "../FreeRTOS/Source/tasks.c",line 1532,column 2,is_stmt,address _vTaskPrioritySet
TMS320C55x Assembler PC v4.4.1 Sat Sep 08 17:11:34 2018

Tools Copyright (c) 1996-2012 Texas Instruments Incorporated
tasks.asm                                                            PAGE   39

    1770              
    1771                      .dwfde $C$DW$CIE, _vTaskPrioritySet
    1772              $C$DW$167       .dwtag  DW_TAG_formal_parameter, DW_AT_name("xTask")
    1773                      .dwattr $C$DW$167, DW_AT_TI_symbol_name("_xTask")
    1774                      .dwattr $C$DW$167, DW_AT_type(*$C$DW$T$70)
    1775                      .dwattr $C$DW$167, DW_AT_location[DW_OP_reg17]
    1776              $C$DW$168       .dwtag  DW_TAG_formal_parameter, DW_AT_name("uxNewPriority")
    1777                      .dwattr $C$DW$168, DW_AT_TI_symbol_name("_uxNewPriority")
    1778                      .dwattr $C$DW$168, DW_AT_type(*$C$DW$T$25)
    1779                      .dwattr $C$DW$168, DW_AT_location[DW_OP_reg12]
    1780              ;*******************************************************************************
    1781              ;* FUNCTION NAME: vTaskPrioritySet                                             *
    1782              ;*                                                                             *
    1783              ;*   Function Uses Regs : AC0,AC0,AC1,AC1,T0,AR0,XAR0,AR1,XAR1,AR2,AR3,XAR3,SP,*
    1784              ;*                        CARRY,TC1,M40,SATA,SATD,RDM,FRCT,SMUL                *
    1785              ;*   Stack Frame        : Compact (No Frame Pointer, w/ debug)                 *
    1786              ;*   Total Frame Size   : 10 words                                             *
    1787              ;*                        (1 return address/alignment)                         *
    1788              ;*                        (9 local values)                                     *
    1789              ;*   Min System Stack   : 1 word                                               *
    1790              ;*******************************************************************************
    1791 0004bc       _vTaskPrioritySet:
    1792                      .dwcfi  cfa_offset, 1
    1793                      .dwcfi  save_reg_to_mem, 91, -1
    1794 0004bc 4EF7          AADD #-9, SP
    1795                      .dwcfi  cfa_offset, 10
    1796              $C$DW$169       .dwtag  DW_TAG_variable, DW_AT_name("xTask")
    1797                      .dwattr $C$DW$169, DW_AT_TI_symbol_name("_xTask")
    1798                      .dwattr $C$DW$169, DW_AT_type(*$C$DW$T$70)
    1799                      .dwattr $C$DW$169, DW_AT_location[DW_OP_bregx 0x24 0]
    1800              $C$DW$170       .dwtag  DW_TAG_variable, DW_AT_name("uxNewPriority")
    1801                      .dwattr $C$DW$170, DW_AT_TI_symbol_name("_uxNewPriority")
    1802                      .dwattr $C$DW$170, DW_AT_type(*$C$DW$T$25)
    1803                      .dwattr $C$DW$170, DW_AT_location[DW_OP_bregx 0x24 2]
    1804              $C$DW$171       .dwtag  DW_TAG_variable, DW_AT_name("pxTCB")
    1805                      .dwattr $C$DW$171, DW_AT_TI_symbol_name("_pxTCB")
    1806                      .dwattr $C$DW$171, DW_AT_type(*$C$DW$T$82)
    1807                      .dwattr $C$DW$171, DW_AT_location[DW_OP_bregx 0x24 4]
    1808              $C$DW$172       .dwtag  DW_TAG_variable, DW_AT_name("uxCurrentBasePriority")
    1809                      .dwattr $C$DW$172, DW_AT_TI_symbol_name("_uxCurrentBasePriority")
    1810                      .dwattr $C$DW$172, DW_AT_type(*$C$DW$T$25)
    1811                      .dwattr $C$DW$172, DW_AT_location[DW_OP_bregx 0x24 6]
    1812              $C$DW$173       .dwtag  DW_TAG_variable, DW_AT_name("uxPriorityUsedOnEntry")
    1813                      .dwattr $C$DW$173, DW_AT_TI_symbol_name("_uxPriorityUsedOnEntry")
    1814                      .dwattr $C$DW$173, DW_AT_type(*$C$DW$T$25)
    1815                      .dwattr $C$DW$173, DW_AT_location[DW_OP_bregx 0x24 7]
    1816              $C$DW$174       .dwtag  DW_TAG_variable, DW_AT_name("xYieldRequired")
    1817                      .dwattr $C$DW$174, DW_AT_TI_symbol_name("_xYieldRequired")
    1818                      .dwattr $C$DW$174, DW_AT_type(*$C$DW$T$44)
    1819                      .dwattr $C$DW$174, DW_AT_location[DW_OP_bregx 0x24 8]
    1820 0004be C404          MOV T0, *SP(#2) ; |1532| 
    1821 0004c0 EB00          MOV XAR0, dbl(*SP(#0))
         0004c2 85   
    1822                      .dwpsn  file "../FreeRTOS/Source/tasks.c",line 1535,column 13,is_stmt
    1823 0004c3 E610          MOV #0, *SP(#8) ; |1535| 
TMS320C55x Assembler PC v4.4.1 Sat Sep 08 17:11:34 2018

Tools Copyright (c) 1996-2012 Texas Instruments Incorporated
tasks.asm                                                            PAGE   40

         0004c5 00   
    1824                      .dwpsn  file "../FreeRTOS/Source/tasks.c",line 1540,column 3,is_stmt
    1825              
    1826 0004c6 A904          MOV *SP(#2), AR1 ; |1540| 
    1827 0004c8 3D4A  ||      MOV #4, AR2
    1828              
    1829 0004ca 1294          CMPU AR1 < AR2, TC1 ; |1540| 
         0004cc A4   
    1830 0004cd 61E4          BCC $C$L33,TC1 ; |1540| 
    1831                                                      ; branchcc occurs ; |1540| 
    1832                      .dwpsn  file "../FreeRTOS/Source/tasks.c",line 1542,column 4,is_stmt
    1833 0004cf E604          MOV #3, *SP(#2) ; |1542| 
         0004d1 03   
    1834                      .dwpsn  file "../FreeRTOS/Source/tasks.c",line 1543,column 3,is_stmt
    1835 0004d2       $C$L33:    
    1836                      .dwpsn  file "../FreeRTOS/Source/tasks.c",line 1549,column 3,is_stmt
    1837 0004d2 20     nop
    1838 0004d3 46B3   bset INTM
    1839 0004d5 F731          ADD #1, *(#_usCriticalNesting) ; |1549| 
         0004d7 0001 
         0004d9 0000 
         0004db 00!  
    1840                      .dwpsn  file "../FreeRTOS/Source/tasks.c",line 1553,column 4,is_stmt
    1841 0004dc ED00          MOV dbl(*SP(#0)), XAR3
         0004de BF   
    1842 0004df 90B0          MOV XAR3, AC0
    1843 0004e1 6310          BCC $C$L34,AC0 != #0 ; |1553| 
    1844                                                      ; branchcc occurs ; |1553| 
    1845 0004e3 ED31          MOV dbl(*(#_pxCurrentTCB)), XAR3
         0004e5 BF00 
         0004e7 0002-
    1846 0004e9       $C$L34:    
    1847 0004e9 EB08          MOV XAR3, dbl(*SP(#4))
         0004eb B5   
    1848                      .dwpsn  file "../FreeRTOS/Source/tasks.c",line 1563,column 5,is_stmt
    1849 0004ec A96D          MOV *AR3(#24), AR1 ; |1563| 
         0004ee 0018 
    1850 0004f0 C90C          MOV AR1, *SP(#6) ; |1563| 
    1851                      .dwpsn  file "../FreeRTOS/Source/tasks.c",line 1567,column 4,is_stmt
    1852 0004f2 AA0C          MOV *SP(#6), AR2 ; |1567| 
    1853 0004f4 A904          MOV *SP(#2), AR1 ; |1567| 
    1854 0004f6 12A0          CMPU AR2 == AR1, TC1 ; |1567| 
         0004f8 94   
    1855 0004f9 6D64          BCC $C$L44,TC1 ; |1567| 
         0004fb 00E1 
    1856                                                      ; branchcc occurs ; |1567| 
    1857                      .dwpsn  file "../FreeRTOS/Source/tasks.c",line 1571,column 5,is_stmt
    1858              
    1859 0004fd AA04          MOV *SP(#2), AR2 ; |1571| 
    1860 0004ff 23A9  ||      MOV AR2, AR1
    1861              
    1862 000501 1298          CMPU AR2 <= AR1, TC1 ; |1571| 
         000503 A4   
    1863 000504 0464          BCC $C$L35,TC1 ; |1571| 
         000506 28   
TMS320C55x Assembler PC v4.4.1 Sat Sep 08 17:11:34 2018

Tools Copyright (c) 1996-2012 Texas Instruments Incorporated
tasks.asm                                                            PAGE   41

    1864                                                      ; branchcc occurs ; |1571| 
    1865                      .dwpsn  file "../FreeRTOS/Source/tasks.c",line 1573,column 6,is_stmt
    1866 000507 ED31          MOV dbl(*(#_pxCurrentTCB)), XAR3
         000509 BF00 
         00050b 0002-
    1867 00050d 90B0          MOV XAR3, AC0
    1868 00050f ED08          MOV dbl(*SP(#4)), XAR3
         000511 BF   
    1869 000512 90B1          MOV XAR3, AC1
    1870 000514 1210          CMPU AC1 == AC0, TC1 ; |1573| 
         000516 04   
    1871 000517 0464          BCC $C$L36,TC1 ; |1573| 
         000519 2A   
    1872                                                      ; branchcc occurs ; |1573| 
    1873                      .dwpsn  file "../FreeRTOS/Source/tasks.c",line 1578,column 7,is_stmt
    1874 00051a ED31          MOV dbl(*(#_pxCurrentTCB)), XAR3
         00051c BF00 
         00051e 0002-
    1875 000520 A96D          MOV *AR3(#24), AR1 ; |1578| 
         000522 0018 
    1876 000524 12A4          CMPU AR2 < AR1, TC1 ; |1578| 
         000526 94   
    1877 000527 0464          BCC $C$L36,TC1 ; |1578| 
         000529 1A   
    1878                                                      ; branchcc occurs ; |1578| 
    1879                      .dwpsn  file "../FreeRTOS/Source/tasks.c",line 1580,column 8,is_stmt
    1880 00052a E610          MOV #1, *SP(#8) ; |1580| 
         00052c 01   
    1881                      .dwpsn  file "../FreeRTOS/Source/tasks.c",line 1581,column 7,is_stmt
    1882 00052d 4A15          B $C$L36  ; |1581| 
    1883                                                      ; branch occurs ; |1581| 
    1884 00052f       $C$L35:    
    1885                      .dwpsn  file "../FreeRTOS/Source/tasks.c",line 1594,column 10,is_stmt
    1886 00052f ED31          MOV dbl(*(#_pxCurrentTCB)), XAR3
         000531 BF00 
         000533 0002-
    1887 000535 90B0          MOV XAR3, AC0
    1888 000537 ED08          MOV dbl(*SP(#4)), XAR3
         000539 BF   
    1889 00053a 90B1          MOV XAR3, AC1
    1890 00053c 121C          CMPU AC1 != AC0, TC1 ; |1594| 
         00053e 04   
    1891 00053f 61E4          BCC $C$L36,TC1 ; |1594| 
    1892                                                      ; branchcc occurs ; |1594| 
    1893                      .dwpsn  file "../FreeRTOS/Source/tasks.c",line 1599,column 6,is_stmt
    1894 000541 E610          MOV #1, *SP(#8) ; |1599| 
         000543 01   
    1895                      .dwpsn  file "../FreeRTOS/Source/tasks.c",line 1600,column 5,is_stmt
    1896 000544       $C$L36:    
    1897                      .dwpsn  file "../FreeRTOS/Source/tasks.c",line 1611,column 5,is_stmt
    1898 000544 ED08          MOV dbl(*SP(#4)), XAR3
         000546 BF   
    1899 000547 A96D          MOV *AR3(#24), AR1 ; |1611| 
         000549 0018 
    1900 00054b C90E          MOV AR1, *SP(#7) ; |1611| 
TMS320C55x Assembler PC v4.4.1 Sat Sep 08 17:11:34 2018

Tools Copyright (c) 1996-2012 Texas Instruments Incorporated
tasks.asm                                                            PAGE   42

    1901                      .dwpsn  file "../FreeRTOS/Source/tasks.c",line 1631,column 6,is_stmt
    1902 00054d ED08          MOV dbl(*SP(#4)), XAR3
         00054f BF   
    1903 000550 A904          MOV *SP(#2), AR1 ; |1631| 
    1904 000552 C96D          MOV AR1, *AR3(#24) ; |1631| 
         000554 0018 
    1905                      .dwpsn  file "../FreeRTOS/Source/tasks.c",line 1637,column 5,is_stmt
    1906 000556 ED08          MOV dbl(*SP(#4)), XAR3
         000558 BF   
    1907 000559 A96D          MOV *AR3(#14), AR1 ; |1637| 
         00055b 000E 
    1908 00055d 7D80          AND #0x8000, AR1, AR1 ; |1637| 
         00055f 0099 
    1909 000561 6499          BCC $C$L37,AR1 != #0 ; |1637| 
    1910                                                      ; branchcc occurs ; |1637| 
    1911                      .dwpsn  file "../FreeRTOS/Source/tasks.c",line 1639,column 6,is_stmt
    1912 000563 3C40          MOV #4, AC0
    1913 000565 DF04          SUB uns(*SP(#2)), AC0, AC0 ; |1639| 
         000567 0F   
    1914 000568 C06D          MOV AC0, *AR3(#14) ; |1639| 
         00056a 000E 
    1915                      .dwpsn  file "../FreeRTOS/Source/tasks.c",line 1640,column 5,is_stmt
    1916 00056c       $C$L37:    
    1917                      .dwpsn  file "../FreeRTOS/Source/tasks.c",line 1650,column 5,is_stmt
    1918 00056c F80E          MPYMK *SP(#7), #10, AC1 ; |1650| 
         00056e 0A10 
    1919 000570 2219          MOV AC1, AR1 ; |1650| 
    1920 000572 EC31          AMOV #_pxReadyTasksLists, XAR3 ; |1650| 
         000574 BE00 
         000576 0004-
    1921 000578 1490          AADD AR1, AR3 ; |1650| 
         00057a B0   
    1922 00057b 90B0          MOV XAR3, AC0
    1923 00057d ED08          MOV dbl(*SP(#4)), XAR3
         00057f BF   
    1924 000580 ED6D          MOV dbl(*AR3(#12)), XAR3
         000582 BF00 
         000584 0C   
    1925 000585 90B1          MOV XAR3, AC1
    1926 000587 121C          CMPU AC1 != AC0, TC1 ; |1650| 
         000589 04   
    1927 00058a 6264          BCC $C$L38,TC1 ; |1650| 
    1928                                                      ; branchcc occurs ; |1650| 
    1929 00058c 3C19          MOV #1, AR1
    1930 00058e 4A02          B $C$L39  ; |1650| 
    1931                                                      ; branch occurs ; |1650| 
    1932 000590       $C$L38:    
    1933 000590 3C09          MOV #0, AR1
    1934 000592       $C$L39:    
    1935 000592 0409          BCC $C$L42,AR1 == #0 ; |1650| 
         000594 41   
    1936                                                      ; branchcc occurs ; |1650| 
    1937                      .dwpsn  file "../FreeRTOS/Source/tasks.c",line 1655,column 6,is_stmt
    1938 000595 ED08          MOV dbl(*SP(#4)), XAR0
         000597 8F   
TMS320C55x Assembler PC v4.4.1 Sat Sep 08 17:11:34 2018

Tools Copyright (c) 1996-2012 Texas Instruments Incorporated
tasks.asm                                                            PAGE   43

    1939 000598 1404          AADD #4, AR0 ; |1655| 
         00059a 84   
    1940              $C$DW$175       .dwtag  DW_TAG_TI_branch
    1941                      .dwattr $C$DW$175, DW_AT_low_pc(0x00)
    1942                      .dwattr $C$DW$175, DW_AT_name("_uxListRemove")
    1943                      .dwattr $C$DW$175, DW_AT_TI_call
    1944 00059b 6C00          CALL #_uxListRemove ; |1655| 
         00059d 0000!
    1945                                                      ; call occurs [#_uxListRemove] ; |1655| 
    1946 00059f 6004          BCC $C$L40,T0 == #0 ; |1655| 
    1947                                                      ; branchcc occurs ; |1655| 
    1948                      .dwpsn  file "../FreeRTOS/Source/tasks.c",line 1661,column 6,is_stmt
    1949 0005a1       $C$L40:    
    1950                      .dwpsn  file "../FreeRTOS/Source/tasks.c",line 1666,column 6,is_stmt
    1951 0005a1 ED08          MOV dbl(*SP(#4)), XAR3
         0005a3 BF   
    1952 0005a4 A931          MOV *(#_uxTopReadyPriority), AR1 ; |1666| 
         0005a6 0000 
         0005a8 65-  
    1953 0005a9 AA6D          MOV *AR3(#24), AR2 ; |1666| 
         0005ab 0018 
    1954 0005ad 1298          CMPU AR2 <= AR1, TC1 ; |1666| 
         0005af A4   
    1955 0005b0 64E4          BCC $C$L41,TC1 ; |1666| 
    1956                                                      ; branchcc occurs ; |1666| 
    1957 0005b2 A96D          MOV *AR3(#24), AR1 ; |1666| 
         0005b4 0018 
    1958 0005b6 C931          MOV AR1, *(#_uxTopReadyPriority) ; |1666| 
         0005b8 0000 
         0005ba 65-  
    1959 0005bb       $C$L41:    
    1960 0005bb F86D          MPYMK *AR3(#24), #10, AC0 ; |1666| 
         0005bd 0A00 
         0005bf 0018 
    1961 0005c1 2209          MOV AC0, AR1 ; |1666| 
    1962 0005c3 EC31          AMOV #_pxReadyTasksLists, XAR0 ; |1666| 
         0005c5 8E00 
         0005c7 0004-
    1963 0005c9 1490          AADD AR1, AR0 ; |1666| 
         0005cb 80   
    1964 0005cc ED08          MOV dbl(*SP(#4)), XAR1
         0005ce 9F   
    1965 0005cf 1404          AADD #4, AR1 ; |1666| 
         0005d1 94   
    1966              $C$DW$176       .dwtag  DW_TAG_TI_branch
    1967                      .dwattr $C$DW$176, DW_AT_low_pc(0x00)
    1968                      .dwattr $C$DW$176, DW_AT_name("_vListInsertEnd")
    1969                      .dwattr $C$DW$176, DW_AT_TI_call
    1970 0005d2 6C00          CALL #_vListInsertEnd ; |1666| 
         0005d4 0000!
    1971                                                      ; call occurs [#_vListInsertEnd] ; |1666| 
    1972                      .dwpsn  file "../FreeRTOS/Source/tasks.c",line 1667,column 5,is_stmt
    1973 0005d6       $C$L42:    
    1974                      .dwpsn  file "../FreeRTOS/Source/tasks.c",line 1673,column 5,is_stmt
    1975 0005d6 A910          MOV *SP(#8), AR1 ; |1673| 
TMS320C55x Assembler PC v4.4.1 Sat Sep 08 17:11:34 2018

Tools Copyright (c) 1996-2012 Texas Instruments Incorporated
tasks.asm                                                            PAGE   44

    1976 0005d8 6209          BCC $C$L43,AR1 == #0 ; |1673| 
    1977                                                      ; branchcc occurs ; |1673| 
    1978                      .dwpsn  file "../FreeRTOS/Source/tasks.c",line 1675,column 6,is_stmt
    1979              $C$DW$177       .dwtag  DW_TAG_TI_branch
    1980                      .dwattr $C$DW$177, DW_AT_low_pc(0x00)
    1981                      .dwattr $C$DW$177, DW_AT_name("_vPortYield")
    1982                      .dwattr $C$DW$177, DW_AT_TI_call
    1983 0005da 6C00          CALL #_vPortYield ; |1675| 
         0005dc 0000!
    1984                                                      ; call occurs [#_vPortYield] ; |1675| 
    1985                      .dwpsn  file "../FreeRTOS/Source/tasks.c",line 1676,column 5,is_stmt
    1986 0005de       $C$L43:    
    1987                      .dwpsn  file "../FreeRTOS/Source/tasks.c",line 1684,column 5,is_stmt
    1988 0005de       $C$L44:    
    1989                      .dwpsn  file "../FreeRTOS/Source/tasks.c",line 1687,column 3,is_stmt
    1990 0005de A931          MOV *(#_usCriticalNesting), AR1 ; |1687| 
         0005e0 0000 
         0005e2 00!  
    1991 0005e3 0409          BCC $C$L45,AR1 == #0 ; |1687| 
         0005e5 14   
    1992                                                      ; branchcc occurs ; |1687| 
    1993 0005e6 F731          SUB #1, *(#_usCriticalNesting) ; |1687| 
         0005e8 FFFF 
         0005ea 0000 
         0005ec 00!  
    1994 0005ed 20            NOP
    1995 0005ee 20            NOP
    1996 0005ef 20            NOP
    1997 0005f0 A931          MOV *(#_usCriticalNesting), AR1 ; |1687| 
         0005f2 0000 
         0005f4 00!  
    1998 0005f5 6199          BCC $C$L45,AR1 != #0 ; |1687| 
    1999                                                      ; branchcc occurs ; |1687| 
    2000 0005f7 20     nop
    2001 0005f8 46B2   bclr INTM
    2002                      .dwpsn  file "../FreeRTOS/Source/tasks.c",line 1688,column 2,is_stmt
    2003 0005fa       $C$L45:    
    2004 0005fa 4E09          AADD #9, SP
    2005                      .dwcfi  cfa_offset, 1
    2006              $C$DW$178       .dwtag  DW_TAG_TI_branch
    2007                      .dwattr $C$DW$178, DW_AT_low_pc(0x00)
    2008                      .dwattr $C$DW$178, DW_AT_TI_return
    2009 0005fc 4804          RET
    2010                                                      ; return occurs
    2011                      .dwattr $C$DW$166, DW_AT_TI_end_file("../FreeRTOS/Source/tasks.c")
    2012                      .dwattr $C$DW$166, DW_AT_TI_end_line(0x698)
    2013                      .dwattr $C$DW$166, DW_AT_TI_end_column(0x02)
    2014                      .dwendentry
    2015                      .dwendtag $C$DW$166
    2016              
    2017 0005fe               .sect   ".text"
    2018                      .align 4
    2019                      .global _vTaskSuspend
    2020              
    2021              $C$DW$179       .dwtag  DW_TAG_subprogram, DW_AT_name("vTaskSuspend")
TMS320C55x Assembler PC v4.4.1 Sat Sep 08 17:11:34 2018

Tools Copyright (c) 1996-2012 Texas Instruments Incorporated
tasks.asm                                                            PAGE   45

    2022                      .dwattr $C$DW$179, DW_AT_low_pc(_vTaskSuspend)
    2023                      .dwattr $C$DW$179, DW_AT_high_pc(0x00)
    2024                      .dwattr $C$DW$179, DW_AT_TI_symbol_name("_vTaskSuspend")
    2025                      .dwattr $C$DW$179, DW_AT_external
    2026                      .dwattr $C$DW$179, DW_AT_TI_begin_file("../FreeRTOS/Source/tasks.c")
    2027                      .dwattr $C$DW$179, DW_AT_TI_begin_line(0x69f)
    2028                      .dwattr $C$DW$179, DW_AT_TI_begin_column(0x07)
    2029                      .dwattr $C$DW$179, DW_AT_TI_max_frame_size(0x06)
    2030                      .dwpsn  file "../FreeRTOS/Source/tasks.c",line 1696,column 2,is_stmt,address _vTaskSuspend
    2031              
    2032                      .dwfde $C$DW$CIE, _vTaskSuspend
    2033              $C$DW$180       .dwtag  DW_TAG_formal_parameter, DW_AT_name("xTaskToSuspend")
    2034                      .dwattr $C$DW$180, DW_AT_TI_symbol_name("_xTaskToSuspend")
    2035                      .dwattr $C$DW$180, DW_AT_type(*$C$DW$T$70)
    2036                      .dwattr $C$DW$180, DW_AT_location[DW_OP_reg17]
    2037              ;*******************************************************************************
    2038              ;* FUNCTION NAME: vTaskSuspend                                                 *
    2039              ;*                                                                             *
    2040              ;*   Function Uses Regs : AC0,AC0,AC1,AC1,T0,AR0,XAR0,AR1,XAR1,AR2,AR3,XAR3,SP,*
    2041              ;*                        CARRY,TC1,M40,SATA,SATD,RDM,FRCT,SMUL                *
    2042              ;*   Stack Frame        : Compact (No Frame Pointer, w/ debug)                 *
    2043              ;*   Total Frame Size   : 6 words                                              *
    2044              ;*                        (2 return address/alignment)                         *
    2045              ;*                        (4 local values)                                     *
    2046              ;*   Min System Stack   : 1 word                                               *
    2047              ;*******************************************************************************
    2048 000600       _vTaskSuspend:
    2049                      .dwcfi  cfa_offset, 1
    2050                      .dwcfi  save_reg_to_mem, 91, -1
    2051 000600 4EFB          AADD #-5, SP
    2052                      .dwcfi  cfa_offset, 6
    2053              $C$DW$181       .dwtag  DW_TAG_variable, DW_AT_name("xTaskToSuspend")
    2054                      .dwattr $C$DW$181, DW_AT_TI_symbol_name("_xTaskToSuspend")
    2055                      .dwattr $C$DW$181, DW_AT_type(*$C$DW$T$70)
    2056                      .dwattr $C$DW$181, DW_AT_location[DW_OP_bregx 0x24 0]
    2057              $C$DW$182       .dwtag  DW_TAG_variable, DW_AT_name("pxTCB")
    2058                      .dwattr $C$DW$182, DW_AT_TI_symbol_name("_pxTCB")
    2059                      .dwattr $C$DW$182, DW_AT_type(*$C$DW$T$82)
    2060                      .dwattr $C$DW$182, DW_AT_location[DW_OP_bregx 0x24 2]
    2061 000602 EB00          MOV XAR0, dbl(*SP(#0))
         000604 85   
    2062                      .dwpsn  file "../FreeRTOS/Source/tasks.c",line 1699,column 3,is_stmt
    2063 000605 20     nop
    2064 000606 46B3   bset INTM
    2065 000608 F731          ADD #1, *(#_usCriticalNesting) ; |1699| 
         00060a 0001 
         00060c 0000 
         00060e 00!  
    2066                      .dwpsn  file "../FreeRTOS/Source/tasks.c",line 1703,column 4,is_stmt
    2067 00060f ED00          MOV dbl(*SP(#0)), XAR3
         000611 BF   
    2068 000612 90B0          MOV XAR3, AC0
    2069 000614 6310          BCC $C$L46,AC0 != #0 ; |1703| 
    2070                                                      ; branchcc occurs ; |1703| 
    2071 000616 ED31          MOV dbl(*(#_pxCurrentTCB)), XAR3
TMS320C55x Assembler PC v4.4.1 Sat Sep 08 17:11:34 2018

Tools Copyright (c) 1996-2012 Texas Instruments Incorporated
tasks.asm                                                            PAGE   46

         000618 BF00 
         00061a 0002-
    2072 00061c       $C$L46:    
    2073 00061c EB04          MOV XAR3, dbl(*SP(#2))
         00061e B5   
    2074                      .dwpsn  file "../FreeRTOS/Source/tasks.c",line 1709,column 4,is_stmt
    2075 00061f ED04          MOV dbl(*SP(#2)), XAR0
         000621 8F   
    2076 000622 1404          AADD #4, AR0 ; |1709| 
         000624 84   
    2077              $C$DW$183       .dwtag  DW_TAG_TI_branch
    2078                      .dwattr $C$DW$183, DW_AT_low_pc(0x00)
    2079                      .dwattr $C$DW$183, DW_AT_name("_uxListRemove")
    2080                      .dwattr $C$DW$183, DW_AT_TI_call
    2081 000625 6C00          CALL #_uxListRemove ; |1709| 
         000627 0000!
    2082                                                      ; call occurs [#_uxListRemove] ; |1709| 
    2083 000629 6004          BCC $C$L47,T0 == #0 ; |1709| 
    2084                                                      ; branchcc occurs ; |1709| 
    2085                      .dwpsn  file "../FreeRTOS/Source/tasks.c",line 1712,column 4,is_stmt
    2086 00062b       $C$L47:    
    2087                      .dwpsn  file "../FreeRTOS/Source/tasks.c",line 1719,column 4,is_stmt
    2088 00062b ED04          MOV dbl(*SP(#2)), XAR3
         00062d BF   
    2089 00062e ED6D          MOV dbl(*AR3(#22)), XAR3
         000630 BF00 
         000632 16   
    2090 000633 90B0          MOV XAR3, AC0
    2091 000635 6500          BCC $C$L48,AC0 == #0 ; |1719| 
    2092                                                      ; branchcc occurs ; |1719| 
    2093                      .dwpsn  file "../FreeRTOS/Source/tasks.c",line 1721,column 5,is_stmt
    2094 000637 ED04          MOV dbl(*SP(#2)), XAR0
         000639 8F   
    2095 00063a 140E          AADD #14, AR0 ; |1721| 
         00063c 84   
    2096              $C$DW$184       .dwtag  DW_TAG_TI_branch
    2097                      .dwattr $C$DW$184, DW_AT_low_pc(0x00)
    2098                      .dwattr $C$DW$184, DW_AT_name("_uxListRemove")
    2099                      .dwattr $C$DW$184, DW_AT_TI_call
    2100 00063d 6C00          CALL #_uxListRemove ; |1721| 
         00063f 0000!
    2101                                                      ; call occurs [#_uxListRemove] ; |1721| 
    2102                      .dwpsn  file "../FreeRTOS/Source/tasks.c",line 1722,column 4,is_stmt
    2103 000641       $C$L48:    
    2104                      .dwpsn  file "../FreeRTOS/Source/tasks.c",line 1728,column 4,is_stmt
    2105 000641 ED04          MOV dbl(*SP(#2)), XAR1
         000643 9F   
    2106 000644 EC31          AMOV #_xSuspendedTaskList, XAR0 ; |1728| 
         000646 8E00 
         000648 005A-
    2107 00064a 1404          AADD #4, AR1 ; |1728| 
         00064c 94   
    2108              $C$DW$185       .dwtag  DW_TAG_TI_branch
    2109                      .dwattr $C$DW$185, DW_AT_low_pc(0x00)
    2110                      .dwattr $C$DW$185, DW_AT_name("_vListInsertEnd")
TMS320C55x Assembler PC v4.4.1 Sat Sep 08 17:11:34 2018

Tools Copyright (c) 1996-2012 Texas Instruments Incorporated
tasks.asm                                                            PAGE   47

    2111                      .dwattr $C$DW$185, DW_AT_TI_call
    2112 00064d 6C00          CALL #_vListInsertEnd ; |1728| 
         00064f 0000!
    2113                                                      ; call occurs [#_vListInsertEnd] ; |1728| 
    2114                      .dwpsn  file "../FreeRTOS/Source/tasks.c",line 1732,column 5,is_stmt
    2115 000651 ED04          MOV dbl(*SP(#2)), XAR3
         000653 BF   
    2116 000654 F06D          CMP *AR3(#44) == #1, TC1 ; |1732| 
         000656 0001 
         000658 002C 
    2117 00065a 62F4          BCC $C$L49,!TC1 ; |1732| 
    2118                                                      ; branchcc occurs ; |1732| 
    2119                      .dwpsn  file "../FreeRTOS/Source/tasks.c",line 1736,column 6,is_stmt
    2120 00065c E66D          MOV #0, *AR3(#44) ; |1736| 
         00065e 0000 
         000660 2C   
    2121 000661       $C$L49:    
    2122                      .dwpsn  file "../FreeRTOS/Source/tasks.c",line 1741,column 3,is_stmt
    2123 000661 A931          MOV *(#_usCriticalNesting), AR1 ; |1741| 
         000663 0000 
         000665 00!  
    2124 000666 0409          BCC $C$L50,AR1 == #0 ; |1741| 
         000668 14   
    2125                                                      ; branchcc occurs ; |1741| 
    2126 000669 F731          SUB #1, *(#_usCriticalNesting) ; |1741| 
         00066b FFFF 
         00066d 0000 
         00066f 00!  
    2127 000670 20            NOP
    2128 000671 20            NOP
    2129 000672 20            NOP
    2130 000673 A931          MOV *(#_usCriticalNesting), AR1 ; |1741| 
         000675 0000 
         000677 00!  
    2131 000678 6199          BCC $C$L50,AR1 != #0 ; |1741| 
    2132                                                      ; branchcc occurs ; |1741| 
    2133 00067a 20     nop
    2134 00067b 46B2   bclr INTM
    2135 00067d       $C$L50:    
    2136                      .dwpsn  file "../FreeRTOS/Source/tasks.c",line 1743,column 3,is_stmt
    2137 00067d A931          MOV *(#_xSchedulerRunning), AR1 ; |1743| 
         00067f 0000 
         000681 66-  
    2138 000682 0409          BCC $C$L51,AR1 == #0 ; |1743| 
         000684 29   
    2139                                                      ; branchcc occurs ; |1743| 
    2140                      .dwpsn  file "../FreeRTOS/Source/tasks.c",line 1747,column 4,is_stmt
    2141 000685 20     nop
    2142 000686 46B3   bset INTM
    2143 000688 F731          ADD #1, *(#_usCriticalNesting) ; |1747| 
         00068a 0001 
         00068c 0000 
         00068e 00!  
    2144                      .dwpsn  file "../FreeRTOS/Source/tasks.c",line 1749,column 5,is_stmt
    2145              $C$DW$186       .dwtag  DW_TAG_TI_branch
TMS320C55x Assembler PC v4.4.1 Sat Sep 08 17:11:34 2018

Tools Copyright (c) 1996-2012 Texas Instruments Incorporated
tasks.asm                                                            PAGE   48

    2146                      .dwattr $C$DW$186, DW_AT_low_pc(0x00)
    2147                      .dwattr $C$DW$186, DW_AT_name("_prvResetNextTaskUnblockTime")
    2148                      .dwattr $C$DW$186, DW_AT_TI_call
    2149 00068f 080A          CALL #_prvResetNextTaskUnblockTime ; |1749| 
         000691 66   
    2150                                                      ; call occurs [#_prvResetNextTaskUnblockTime] ; |1749| 
    2151                      .dwpsn  file "../FreeRTOS/Source/tasks.c",line 1751,column 4,is_stmt
    2152 000692 A931          MOV *(#_usCriticalNesting), AR1 ; |1751| 
         000694 0000 
         000696 00!  
    2153 000697 0409          BCC $C$L51,AR1 == #0 ; |1751| 
         000699 14   
    2154                                                      ; branchcc occurs ; |1751| 
    2155 00069a F731          SUB #1, *(#_usCriticalNesting) ; |1751| 
         00069c FFFF 
         00069e 0000 
         0006a0 00!  
    2156 0006a1 20            NOP
    2157 0006a2 20            NOP
    2158 0006a3 20            NOP
    2159 0006a4 A931          MOV *(#_usCriticalNesting), AR1 ; |1751| 
         0006a6 0000 
         0006a8 00!  
    2160 0006a9 6199          BCC $C$L51,AR1 != #0 ; |1751| 
    2161                                                      ; branchcc occurs ; |1751| 
    2162 0006ab 20     nop
    2163 0006ac 46B2   bclr INTM
    2164                      .dwpsn  file "../FreeRTOS/Source/tasks.c",line 1752,column 3,is_stmt
    2165 0006ae       $C$L51:    
    2166                      .dwpsn  file "../FreeRTOS/Source/tasks.c",line 1758,column 3,is_stmt
    2167 0006ae ED31          MOV dbl(*(#_pxCurrentTCB)), XAR3
         0006b0 BF00 
         0006b2 0002-
    2168 0006b4 90B0          MOV XAR3, AC0
    2169 0006b6 ED04          MOV dbl(*SP(#2)), XAR3
         0006b8 BF   
    2170 0006b9 90B1          MOV XAR3, AC1
    2171 0006bb 121C          CMPU AC1 != AC0, TC1 ; |1758| 
         0006bd 04   
    2172 0006be 0464          BCC $C$L54,TC1 ; |1758| 
         0006c0 2B   
    2173                                                      ; branchcc occurs ; |1758| 
    2174                      .dwpsn  file "../FreeRTOS/Source/tasks.c",line 1760,column 4,is_stmt
    2175 0006c1 A931          MOV *(#_xSchedulerRunning), AR1 ; |1760| 
         0006c3 0000 
         0006c5 66-  
    2176 0006c6 6309          BCC $C$L52,AR1 == #0 ; |1760| 
    2177                                                      ; branchcc occurs ; |1760| 
    2178                      .dwpsn  file "../FreeRTOS/Source/tasks.c",line 1764,column 5,is_stmt
    2179              $C$DW$187       .dwtag  DW_TAG_TI_branch
    2180                      .dwattr $C$DW$187, DW_AT_low_pc(0x00)
    2181                      .dwattr $C$DW$187, DW_AT_name("_vPortYield")
    2182                      .dwattr $C$DW$187, DW_AT_TI_call
    2183 0006c8 6C00          CALL #_vPortYield ; |1764| 
         0006ca 0000!
TMS320C55x Assembler PC v4.4.1 Sat Sep 08 17:11:34 2018

Tools Copyright (c) 1996-2012 Texas Instruments Incorporated
tasks.asm                                                            PAGE   49

    2184                                                      ; call occurs [#_vPortYield] ; |1764| 
    2185                      .dwpsn  file "../FreeRTOS/Source/tasks.c",line 1765,column 4,is_stmt
    2186 0006cc 4A1E          B $C$L54  ; |1765| 
    2187                                                      ; branch occurs ; |1765| 
    2188 0006ce       $C$L52:    
    2189                      .dwpsn  file "../FreeRTOS/Source/tasks.c",line 1771,column 5,is_stmt
    2190 0006ce A931          MOV *(#_uxCurrentNumberOfTasks), AR1 ; |1771| 
         0006d0 0000 
         0006d2 59-  
    2191 0006d3 AA31          MOV *(#_xSuspendedTaskList), AR2 ; |1771| 
         0006d5 0000 
         0006d7 5A-  
    2192 0006d8 12AC          CMPU AR2 != AR1, TC1 ; |1771| 
         0006da 94   
    2193 0006db 6564          BCC $C$L53,TC1 ; |1771| 
    2194                                                      ; branchcc occurs ; |1771| 
    2195                      .dwpsn  file "../FreeRTOS/Source/tasks.c",line 1777,column 6,is_stmt
    2196 0006dd 3C00          MOV #0, AC0 ; |1777| 
    2197 0006df EB31          MOV AC0, dbl(*(#_pxCurrentTCB))
         0006e1 0800 
         0006e3 0002-
    2198                      .dwpsn  file "../FreeRTOS/Source/tasks.c",line 1778,column 5,is_stmt
    2199 0006e5 4A05          B $C$L54  ; |1778| 
    2200                                                      ; branch occurs ; |1778| 
    2201 0006e7       $C$L53:    
    2202                      .dwpsn  file "../FreeRTOS/Source/tasks.c",line 1781,column 6,is_stmt
    2203              $C$DW$188       .dwtag  DW_TAG_TI_branch
    2204                      .dwattr $C$DW$188, DW_AT_low_pc(0x00)
    2205                      .dwattr $C$DW$188, DW_AT_name("_vTaskSwitchContext")
    2206                      .dwattr $C$DW$188, DW_AT_TI_call
    2207 0006e7 0804          CALL #_vTaskSwitchContext ; |1781| 
         0006e9 FA   
    2208                                                      ; call occurs [#_vTaskSwitchContext] ; |1781| 
    2209                      .dwpsn  file "../FreeRTOS/Source/tasks.c",line 1784,column 3,is_stmt
    2210 0006ea 4A00          B $C$L54  ; |1784| 
    2211                                                      ; branch occurs ; |1784| 
    2212 0006ec       $C$L54:    
    2213 0006ec 4E05          AADD #5, SP
    2214                      .dwcfi  cfa_offset, 1
    2215              $C$DW$189       .dwtag  DW_TAG_TI_branch
    2216                      .dwattr $C$DW$189, DW_AT_low_pc(0x00)
    2217                      .dwattr $C$DW$189, DW_AT_TI_return
    2218 0006ee 4804          RET
    2219                                                      ; return occurs
    2220                      .dwattr $C$DW$179, DW_AT_TI_end_file("../FreeRTOS/Source/tasks.c")
    2221                      .dwattr $C$DW$179, DW_AT_TI_end_line(0x6fd)
    2222                      .dwattr $C$DW$179, DW_AT_TI_end_column(0x02)
    2223                      .dwendentry
    2224                      .dwendtag $C$DW$179
    2225              
    2226 0006f0               .sect   ".text"
    2227                      .align 4
    2228              
    2229              $C$DW$190       .dwtag  DW_TAG_subprogram, DW_AT_name("prvTaskIsTaskSuspended")
    2230                      .dwattr $C$DW$190, DW_AT_low_pc(_prvTaskIsTaskSuspended)
TMS320C55x Assembler PC v4.4.1 Sat Sep 08 17:11:34 2018

Tools Copyright (c) 1996-2012 Texas Instruments Incorporated
tasks.asm                                                            PAGE   50

    2231                      .dwattr $C$DW$190, DW_AT_high_pc(0x00)
    2232                      .dwattr $C$DW$190, DW_AT_TI_symbol_name("_prvTaskIsTaskSuspended")
    2233                      .dwattr $C$DW$190, DW_AT_type(*$C$DW$T$44)
    2234                      .dwattr $C$DW$190, DW_AT_TI_begin_file("../FreeRTOS/Source/tasks.c")
    2235                      .dwattr $C$DW$190, DW_AT_TI_begin_line(0x704)
    2236                      .dwattr $C$DW$190, DW_AT_TI_begin_column(0x14)
    2237                      .dwattr $C$DW$190, DW_AT_TI_max_frame_size(0x08)
    2238                      .dwpsn  file "../FreeRTOS/Source/tasks.c",line 1797,column 2,is_stmt,address _prvTaskIsTaskSuspended
    2239              
    2240                      .dwfde $C$DW$CIE, _prvTaskIsTaskSuspended
    2241              $C$DW$191       .dwtag  DW_TAG_formal_parameter, DW_AT_name("xTask")
    2242                      .dwattr $C$DW$191, DW_AT_TI_symbol_name("_xTask")
    2243                      .dwattr $C$DW$191, DW_AT_type(*$C$DW$T$121)
    2244                      .dwattr $C$DW$191, DW_AT_location[DW_OP_reg17]
    2245              ;*******************************************************************************
    2246              ;* FUNCTION NAME: prvTaskIsTaskSuspended                                       *
    2247              ;*                                                                             *
    2248              ;*   Function Uses Regs : AC0,AC0,AC1,AC1,T0,AR0,XAR0,AR1,AR3,XAR3,SP,TC1,M40, *
    2249              ;*                        SATA,SATD,RDM,FRCT,SMUL                              *
    2250              ;*   Stack Frame        : Compact (No Frame Pointer, w/ debug)                 *
    2251              ;*   Total Frame Size   : 8 words                                              *
    2252              ;*                        (2 return address/alignment)                         *
    2253              ;*                        (6 local values)                                     *
    2254              ;*   Min System Stack   : 1 word                                               *
    2255              ;*******************************************************************************
    2256 0006f0       _prvTaskIsTaskSuspended:
    2257                      .dwcfi  cfa_offset, 1
    2258                      .dwcfi  save_reg_to_mem, 91, -1
    2259 0006f0 4EF9          AADD #-7, SP
    2260                      .dwcfi  cfa_offset, 8
    2261              $C$DW$192       .dwtag  DW_TAG_variable, DW_AT_name("xTask")
    2262                      .dwattr $C$DW$192, DW_AT_TI_symbol_name("_xTask")
    2263                      .dwattr $C$DW$192, DW_AT_type(*$C$DW$T$121)
    2264                      .dwattr $C$DW$192, DW_AT_location[DW_OP_bregx 0x24 0]
    2265              $C$DW$193       .dwtag  DW_TAG_variable, DW_AT_name("xReturn")
    2266                      .dwattr $C$DW$193, DW_AT_TI_symbol_name("_xReturn")
    2267                      .dwattr $C$DW$193, DW_AT_type(*$C$DW$T$44)
    2268                      .dwattr $C$DW$193, DW_AT_location[DW_OP_bregx 0x24 2]
    2269              $C$DW$194       .dwtag  DW_TAG_variable, DW_AT_name("pxTCB")
    2270                      .dwattr $C$DW$194, DW_AT_TI_symbol_name("_pxTCB")
    2271                      .dwattr $C$DW$194, DW_AT_type(*$C$DW$T$157)
    2272                      .dwattr $C$DW$194, DW_AT_location[DW_OP_bregx 0x24 4]
    2273 0006f2 EB00          MOV XAR0, dbl(*SP(#0))
         0006f4 85   
    2274                      .dwpsn  file "../FreeRTOS/Source/tasks.c",line 1798,column 13,is_stmt
    2275 0006f5 E604          MOV #0, *SP(#2) ; |1798| 
         0006f7 00   
    2276                      .dwpsn  file "../FreeRTOS/Source/tasks.c",line 1799,column 22,is_stmt
    2277 0006f8 ED00          MOV dbl(*SP(#0)), XAR3
         0006fa BF   
    2278 0006fb EB08          MOV XAR3, dbl(*SP(#4))
         0006fd B5   
    2279                      .dwpsn  file "../FreeRTOS/Source/tasks.c",line 1808,column 3,is_stmt
    2280 0006fe EC31          AMOV #_xSuspendedTaskList, XAR3 ; |1808| 
         000700 BE00 
TMS320C55x Assembler PC v4.4.1 Sat Sep 08 17:11:34 2018

Tools Copyright (c) 1996-2012 Texas Instruments Incorporated
tasks.asm                                                            PAGE   51

         000702 005A-
    2281 000704 90B0          MOV XAR3, AC0
    2282 000706 ED08          MOV dbl(*SP(#4)), XAR3
         000708 BF   
    2283 000709 ED6D          MOV dbl(*AR3(#12)), XAR3
         00070b BF00 
         00070d 0C   
    2284 00070e 90B1          MOV XAR3, AC1
    2285 000710 121C          CMPU AC1 != AC0, TC1 ; |1808| 
         000712 04   
    2286 000713 6264          BCC $C$L55,TC1 ; |1808| 
    2287                                                      ; branchcc occurs ; |1808| 
    2288 000715 3C19          MOV #1, AR1
    2289 000717 4A02          B $C$L56  ; |1808| 
    2290                                                      ; branch occurs ; |1808| 
    2291 000719       $C$L55:    
    2292 000719 3C09          MOV #0, AR1
    2293 00071b       $C$L56:    
    2294 00071b 0409          BCC $C$L61,AR1 == #0 ; |1808| 
         00071d 39   
    2295                                                      ; branchcc occurs ; |1808| 
    2296                      .dwpsn  file "../FreeRTOS/Source/tasks.c",line 1811,column 4,is_stmt
    2297 00071e EC31          AMOV #_xPendingReadyList, XAR3 ; |1811| 
         000720 BE00 
         000722 0044-
    2298 000724 90B0          MOV XAR3, AC0
    2299 000726 ED08          MOV dbl(*SP(#4)), XAR3
         000728 BF   
    2300 000729 ED6D          MOV dbl(*AR3(#22)), XAR3
         00072b BF00 
         00072d 16   
    2301 00072e 90B1          MOV XAR3, AC1
    2302 000730 121C          CMPU AC1 != AC0, TC1 ; |1811| 
         000732 04   
    2303 000733 6264          BCC $C$L57,TC1 ; |1811| 
    2304                                                      ; branchcc occurs ; |1811| 
    2305 000735 3C19          MOV #1, AR1
    2306 000737 4A02          B $C$L58  ; |1811| 
    2307                                                      ; branch occurs ; |1811| 
    2308 000739       $C$L57:    
    2309 000739 3C09          MOV #0, AR1
    2310 00073b       $C$L58:    
    2311 00073b 0419          BCC $C$L61,AR1 != #0 ; |1811| 
         00073d 19   
    2312                                                      ; branchcc occurs ; |1811| 
    2313                      .dwpsn  file "../FreeRTOS/Source/tasks.c",line 1815,column 5,is_stmt
    2314 00073e ED08          MOV dbl(*SP(#4)), XAR3
         000740 BF   
    2315 000741 ED6D          MOV dbl(*AR3(#22)), XAR3
         000743 BF00 
         000745 16   
    2316 000746 90B0          MOV XAR3, AC0
    2317 000748 6210          BCC $C$L59,AC0 != #0 ; |1815| 
    2318                                                      ; branchcc occurs ; |1815| 
    2319 00074a 3C19          MOV #1, AR1
TMS320C55x Assembler PC v4.4.1 Sat Sep 08 17:11:34 2018

Tools Copyright (c) 1996-2012 Texas Instruments Incorporated
tasks.asm                                                            PAGE   52

    2320 00074c 4A02          B $C$L60  ; |1815| 
    2321                                                      ; branch occurs ; |1815| 
    2322 00074e       $C$L59:    
    2323 00074e 3C09          MOV #0, AR1
    2324 000750       $C$L60:    
    2325 000750 6289          BCC $C$L61,AR1 == #0 ; |1815| 
    2326                                                      ; branchcc occurs ; |1815| 
    2327                      .dwpsn  file "../FreeRTOS/Source/tasks.c",line 1817,column 6,is_stmt
    2328 000752 E604          MOV #1, *SP(#2) ; |1817| 
         000754 01   
    2329                      .dwpsn  file "../FreeRTOS/Source/tasks.c",line 1818,column 5,is_stmt
    2330 000755 4A00          B $C$L61  ; |1818| 
    2331                                                      ; branch occurs ; |1818| 
    2332 000757       $C$L61:    
    2333                      .dwpsn  file "../FreeRTOS/Source/tasks.c",line 1834,column 3,is_stmt
    2334 000757 A404          MOV *SP(#2), T0 ; |1834| 
    2335                      .dwpsn  file "../FreeRTOS/Source/tasks.c",line 1835,column 2,is_stmt
    2336 000759 4E07          AADD #7, SP
    2337                      .dwcfi  cfa_offset, 1
    2338              $C$DW$195       .dwtag  DW_TAG_TI_branch
    2339                      .dwattr $C$DW$195, DW_AT_low_pc(0x00)
    2340                      .dwattr $C$DW$195, DW_AT_TI_return
    2341 00075b 4804          RET
    2342                                                      ; return occurs
    2343                      .dwattr $C$DW$190, DW_AT_TI_end_file("../FreeRTOS/Source/tasks.c")
    2344                      .dwattr $C$DW$190, DW_AT_TI_end_line(0x72b)
    2345                      .dwattr $C$DW$190, DW_AT_TI_end_column(0x02)
    2346                      .dwendentry
    2347                      .dwendtag $C$DW$190
    2348              
    2349 00075d               .sect   ".text"
    2350                      .align 4
    2351                      .global _vTaskResume
    2352              
    2353              $C$DW$196       .dwtag  DW_TAG_subprogram, DW_AT_name("vTaskResume")
    2354                      .dwattr $C$DW$196, DW_AT_low_pc(_vTaskResume)
    2355                      .dwattr $C$DW$196, DW_AT_high_pc(0x00)
    2356                      .dwattr $C$DW$196, DW_AT_TI_symbol_name("_vTaskResume")
    2357                      .dwattr $C$DW$196, DW_AT_external
    2358                      .dwattr $C$DW$196, DW_AT_TI_begin_file("../FreeRTOS/Source/tasks.c")
    2359                      .dwattr $C$DW$196, DW_AT_TI_begin_line(0x732)
    2360                      .dwattr $C$DW$196, DW_AT_TI_begin_column(0x07)
    2361                      .dwattr $C$DW$196, DW_AT_TI_max_frame_size(0x06)
    2362                      .dwpsn  file "../FreeRTOS/Source/tasks.c",line 1843,column 2,is_stmt,address _vTaskResume
    2363              
    2364                      .dwfde $C$DW$CIE, _vTaskResume
    2365              $C$DW$197       .dwtag  DW_TAG_formal_parameter, DW_AT_name("xTaskToResume")
    2366                      .dwattr $C$DW$197, DW_AT_TI_symbol_name("_xTaskToResume")
    2367                      .dwattr $C$DW$197, DW_AT_type(*$C$DW$T$70)
    2368                      .dwattr $C$DW$197, DW_AT_location[DW_OP_reg17]
    2369              ;*******************************************************************************
    2370              ;* FUNCTION NAME: vTaskResume                                                  *
    2371              ;*                                                                             *
    2372              ;*   Function Uses Regs : AC0,AC0,AC1,AC1,T0,AR0,XAR0,AR1,XAR1,AR2,AR3,XAR3,SP,*
    2373              ;*                        CARRY,TC1,M40,SATA,SATD,RDM,FRCT,SMUL                *
TMS320C55x Assembler PC v4.4.1 Sat Sep 08 17:11:34 2018

Tools Copyright (c) 1996-2012 Texas Instruments Incorporated
tasks.asm                                                            PAGE   53

    2374              ;*   Stack Frame        : Compact (No Frame Pointer, w/ debug)                 *
    2375              ;*   Total Frame Size   : 6 words                                              *
    2376              ;*                        (2 return address/alignment)                         *
    2377              ;*                        (4 local values)                                     *
    2378              ;*   Min System Stack   : 1 word                                               *
    2379              ;*******************************************************************************
    2380 000760       _vTaskResume:
    2381                      .dwcfi  cfa_offset, 1
    2382                      .dwcfi  save_reg_to_mem, 91, -1
    2383 000760 4EFB          AADD #-5, SP
    2384                      .dwcfi  cfa_offset, 6
    2385              $C$DW$198       .dwtag  DW_TAG_variable, DW_AT_name("xTaskToResume")
    2386                      .dwattr $C$DW$198, DW_AT_TI_symbol_name("_xTaskToResume")
    2387                      .dwattr $C$DW$198, DW_AT_type(*$C$DW$T$70)
    2388                      .dwattr $C$DW$198, DW_AT_location[DW_OP_bregx 0x24 0]
    2389              $C$DW$199       .dwtag  DW_TAG_variable, DW_AT_name("pxTCB")
    2390                      .dwattr $C$DW$199, DW_AT_TI_symbol_name("_pxTCB")
    2391                      .dwattr $C$DW$199, DW_AT_type(*$C$DW$T$159)
    2392                      .dwattr $C$DW$199, DW_AT_location[DW_OP_bregx 0x24 2]
    2393 000762 EB00          MOV XAR0, dbl(*SP(#0))
         000764 85   
    2394                      .dwpsn  file "../FreeRTOS/Source/tasks.c",line 1844,column 16,is_stmt
    2395 000765 ED00          MOV dbl(*SP(#0)), XAR3
         000767 BF   
    2396 000768 EB04          MOV XAR3, dbl(*SP(#2))
         00076a B5   
    2397                      .dwpsn  file "../FreeRTOS/Source/tasks.c",line 1851,column 3,is_stmt
    2398 00076b ED31          MOV dbl(*(#_pxCurrentTCB)), XAR3
         00076d BF00 
         00076f 0002-
    2399 000771 90B0          MOV XAR3, AC0
    2400 000773 ED04          MOV dbl(*SP(#2)), XAR3
         000775 BF   
    2401 000776 90B1          MOV XAR3, AC1
    2402 000778 1210          CMPU AC1 == AC0, TC1 ; |1851| 
         00077a 04   
    2403 00077b 6D64          BCC $C$L64,TC1 ; |1851| 
         00077d 008F 
    2404                                                      ; branchcc occurs ; |1851| 
    2405 00077f 90B0          MOV XAR3, AC0
    2406 000781 6D00          BCC $C$L64,AC0 == #0 ; |1851| 
         000783 0089 
    2407                                                      ; branchcc occurs ; |1851| 
    2408                      .dwpsn  file "../FreeRTOS/Source/tasks.c",line 1853,column 4,is_stmt
    2409 000785 20     nop
    2410 000786 46B3   bset INTM
    2411 000788 F731          ADD #1, *(#_usCriticalNesting) ; |1853| 
         00078a 0001 
         00078c 0000 
         00078e 00!  
    2412                      .dwpsn  file "../FreeRTOS/Source/tasks.c",line 1855,column 5,is_stmt
    2413              $C$DW$200       .dwtag  DW_TAG_TI_branch
    2414                      .dwattr $C$DW$200, DW_AT_low_pc(0x00)
    2415                      .dwattr $C$DW$200, DW_AT_name("_prvTaskIsTaskSuspended")
    2416                      .dwattr $C$DW$200, DW_AT_TI_call
TMS320C55x Assembler PC v4.4.1 Sat Sep 08 17:11:34 2018

Tools Copyright (c) 1996-2012 Texas Instruments Incorporated
tasks.asm                                                            PAGE   54

    2417 00078f 08FF          CALL #_prvTaskIsTaskSuspended ; |1855| 
         000791 5E   
    2418                                                      ; call occurs [#_prvTaskIsTaskSuspended] ; |1855| 
    2419 000792 0404          BCC $C$L63,T0 == #0 ; |1855| 
         000794 5B   
    2420                                                      ; branchcc occurs ; |1855| 
    2421                      .dwpsn  file "../FreeRTOS/Source/tasks.c",line 1861,column 6,is_stmt
    2422 000795 ED04          MOV dbl(*SP(#2)), XAR0
         000797 8F   
    2423 000798 1404          AADD #4, AR0 ; |1861| 
         00079a 84   
    2424              $C$DW$201       .dwtag  DW_TAG_TI_branch
    2425                      .dwattr $C$DW$201, DW_AT_low_pc(0x00)
    2426                      .dwattr $C$DW$201, DW_AT_name("_uxListRemove")
    2427                      .dwattr $C$DW$201, DW_AT_TI_call
    2428 00079b 6C00          CALL #_uxListRemove ; |1861| 
         00079d 0000!
    2429                                                      ; call occurs [#_uxListRemove] ; |1861| 
    2430                      .dwpsn  file "../FreeRTOS/Source/tasks.c",line 1862,column 6,is_stmt
    2431 00079f ED04          MOV dbl(*SP(#2)), XAR3
         0007a1 BF   
    2432 0007a2 A931          MOV *(#_uxTopReadyPriority), AR1 ; |1862| 
         0007a4 0000 
         0007a6 65-  
    2433 0007a7 AA6D          MOV *AR3(#24), AR2 ; |1862| 
         0007a9 0018 
    2434 0007ab 1298          CMPU AR2 <= AR1, TC1 ; |1862| 
         0007ad A4   
    2435 0007ae 64E4          BCC $C$L62,TC1 ; |1862| 
    2436                                                      ; branchcc occurs ; |1862| 
    2437 0007b0 A96D          MOV *AR3(#24), AR1 ; |1862| 
         0007b2 0018 
    2438 0007b4 C931          MOV AR1, *(#_uxTopReadyPriority) ; |1862| 
         0007b6 0000 
         0007b8 65-  
    2439 0007b9       $C$L62:    
    2440 0007b9 F86D          MPYMK *AR3(#24), #10, AC0 ; |1862| 
         0007bb 0A00 
         0007bd 0018 
    2441 0007bf 2209          MOV AC0, AR1 ; |1862| 
    2442 0007c1 EC31          AMOV #_pxReadyTasksLists, XAR0 ; |1862| 
         0007c3 8E00 
         0007c5 0004-
    2443 0007c7 1490          AADD AR1, AR0 ; |1862| 
         0007c9 80   
    2444 0007ca ED04          MOV dbl(*SP(#2)), XAR1
         0007cc 9F   
    2445 0007cd 1404          AADD #4, AR1 ; |1862| 
         0007cf 94   
    2446              $C$DW$202       .dwtag  DW_TAG_TI_branch
    2447                      .dwattr $C$DW$202, DW_AT_low_pc(0x00)
    2448                      .dwattr $C$DW$202, DW_AT_name("_vListInsertEnd")
    2449                      .dwattr $C$DW$202, DW_AT_TI_call
    2450 0007d0 6C00          CALL #_vListInsertEnd ; |1862| 
         0007d2 0000!
TMS320C55x Assembler PC v4.4.1 Sat Sep 08 17:11:34 2018

Tools Copyright (c) 1996-2012 Texas Instruments Incorporated
tasks.asm                                                            PAGE   55

    2451                                                      ; call occurs [#_vListInsertEnd] ; |1862| 
    2452                      .dwpsn  file "../FreeRTOS/Source/tasks.c",line 1865,column 6,is_stmt
    2453 0007d4 ED31          MOV dbl(*(#_pxCurrentTCB)), XAR3
         0007d6 BF00 
         0007d8 0002-
    2454 0007da A96D          MOV *AR3(#24), AR1 ; |1865| 
         0007dc 0018 
    2455 0007de ED04          MOV dbl(*SP(#2)), XAR3
         0007e0 BF   
    2456 0007e1 AA6D          MOV *AR3(#24), AR2 ; |1865| 
         0007e3 0018 
    2457 0007e5 12A4          CMPU AR2 < AR1, TC1 ; |1865| 
         0007e7 94   
    2458 0007e8 6364          BCC $C$L63,TC1 ; |1865| 
    2459                                                      ; branchcc occurs ; |1865| 
    2460                      .dwpsn  file "../FreeRTOS/Source/tasks.c",line 1870,column 7,is_stmt
    2461              $C$DW$203       .dwtag  DW_TAG_TI_branch
    2462                      .dwattr $C$DW$203, DW_AT_low_pc(0x00)
    2463                      .dwattr $C$DW$203, DW_AT_name("_vPortYield")
    2464                      .dwattr $C$DW$203, DW_AT_TI_call
    2465 0007ea 6C00          CALL #_vPortYield ; |1870| 
         0007ec 0000!
    2466                                                      ; call occurs [#_vPortYield] ; |1870| 
    2467                      .dwpsn  file "../FreeRTOS/Source/tasks.c",line 1871,column 6,is_stmt
    2468 0007ee 4A00          B $C$L63  ; |1871| 
    2469                                                      ; branch occurs ; |1871| 
    2470 0007f0       $C$L63:    
    2471                      .dwpsn  file "../FreeRTOS/Source/tasks.c",line 1882,column 4,is_stmt
    2472 0007f0 A931          MOV *(#_usCriticalNesting), AR1 ; |1882| 
         0007f2 0000 
         0007f4 00!  
    2473 0007f5 0409          BCC $C$L64,AR1 == #0 ; |1882| 
         0007f7 16   
    2474                                                      ; branchcc occurs ; |1882| 
    2475 0007f8 F731          SUB #1, *(#_usCriticalNesting) ; |1882| 
         0007fa FFFF 
         0007fc 0000 
         0007fe 00!  
    2476 0007ff 20            NOP
    2477 000800 20            NOP
    2478 000801 20            NOP
    2479 000802 A931          MOV *(#_usCriticalNesting), AR1 ; |1882| 
         000804 0000 
         000806 00!  
    2480 000807 6299          BCC $C$L64,AR1 != #0 ; |1882| 
    2481                                                      ; branchcc occurs ; |1882| 
    2482 000809 20     nop
    2483 00080a 46B2   bclr INTM
    2484                      .dwpsn  file "../FreeRTOS/Source/tasks.c",line 1883,column 3,is_stmt
    2485 00080c 4A00          B $C$L64  ; |1883| 
    2486                                                      ; branch occurs ; |1883| 
    2487 00080e       $C$L64:    
    2488 00080e 4E05          AADD #5, SP
    2489                      .dwcfi  cfa_offset, 1
    2490              $C$DW$204       .dwtag  DW_TAG_TI_branch
TMS320C55x Assembler PC v4.4.1 Sat Sep 08 17:11:34 2018

Tools Copyright (c) 1996-2012 Texas Instruments Incorporated
tasks.asm                                                            PAGE   56

    2491                      .dwattr $C$DW$204, DW_AT_low_pc(0x00)
    2492                      .dwattr $C$DW$204, DW_AT_TI_return
    2493 000810 4804          RET
    2494                                                      ; return occurs
    2495                      .dwattr $C$DW$196, DW_AT_TI_end_file("../FreeRTOS/Source/tasks.c")
    2496                      .dwattr $C$DW$196, DW_AT_TI_end_line(0x760)
    2497                      .dwattr $C$DW$196, DW_AT_TI_end_column(0x02)
    2498                      .dwendentry
    2499                      .dwendtag $C$DW$196
    2500              
    2501 000812               .sect   ".text"
    2502                      .align 4
    2503                      .global _xTaskResumeFromISR
    2504              
    2505              $C$DW$205       .dwtag  DW_TAG_subprogram, DW_AT_name("xTaskResumeFromISR")
    2506                      .dwattr $C$DW$205, DW_AT_low_pc(_xTaskResumeFromISR)
    2507                      .dwattr $C$DW$205, DW_AT_high_pc(0x00)
    2508                      .dwattr $C$DW$205, DW_AT_TI_symbol_name("_xTaskResumeFromISR")
    2509                      .dwattr $C$DW$205, DW_AT_external
    2510                      .dwattr $C$DW$205, DW_AT_type(*$C$DW$T$44)
    2511                      .dwattr $C$DW$205, DW_AT_TI_begin_file("../FreeRTOS/Source/tasks.c")
    2512                      .dwattr $C$DW$205, DW_AT_TI_begin_line(0x768)
    2513                      .dwattr $C$DW$205, DW_AT_TI_begin_column(0x0d)
    2514                      .dwattr $C$DW$205, DW_AT_TI_max_frame_size(0x08)
    2515                      .dwpsn  file "../FreeRTOS/Source/tasks.c",line 1897,column 2,is_stmt,address _xTaskResumeFromISR
    2516              
    2517                      .dwfde $C$DW$CIE, _xTaskResumeFromISR
    2518              $C$DW$206       .dwtag  DW_TAG_formal_parameter, DW_AT_name("xTaskToResume")
    2519                      .dwattr $C$DW$206, DW_AT_TI_symbol_name("_xTaskToResume")
    2520                      .dwattr $C$DW$206, DW_AT_type(*$C$DW$T$70)
    2521                      .dwattr $C$DW$206, DW_AT_location[DW_OP_reg17]
    2522              ;*******************************************************************************
    2523              ;* FUNCTION NAME: xTaskResumeFromISR                                           *
    2524              ;*                                                                             *
    2525              ;*   Function Uses Regs : AC0,T0,AR0,XAR0,AR1,XAR1,AR2,AR3,XAR3,SP,TC1,M40,    *
    2526              ;*                        SATA,SATD,RDM,FRCT,SMUL                              *
    2527              ;*   Stack Frame        : Compact (No Frame Pointer, w/ debug)                 *
    2528              ;*   Total Frame Size   : 8 words                                              *
    2529              ;*                        (1 return address/alignment)                         *
    2530              ;*                        (7 local values)                                     *
    2531              ;*   Min System Stack   : 1 word                                               *
    2532              ;*******************************************************************************
    2533 000814       _xTaskResumeFromISR:
    2534                      .dwcfi  cfa_offset, 1
    2535                      .dwcfi  save_reg_to_mem, 91, -1
    2536 000814 4EF9          AADD #-7, SP
    2537                      .dwcfi  cfa_offset, 8
    2538              $C$DW$207       .dwtag  DW_TAG_variable, DW_AT_name("xTaskToResume")
    2539                      .dwattr $C$DW$207, DW_AT_TI_symbol_name("_xTaskToResume")
    2540                      .dwattr $C$DW$207, DW_AT_type(*$C$DW$T$70)
    2541                      .dwattr $C$DW$207, DW_AT_location[DW_OP_bregx 0x24 0]
    2542              $C$DW$208       .dwtag  DW_TAG_variable, DW_AT_name("xYieldRequired")
    2543                      .dwattr $C$DW$208, DW_AT_TI_symbol_name("_xYieldRequired")
    2544                      .dwattr $C$DW$208, DW_AT_type(*$C$DW$T$44)
    2545                      .dwattr $C$DW$208, DW_AT_location[DW_OP_bregx 0x24 2]
TMS320C55x Assembler PC v4.4.1 Sat Sep 08 17:11:34 2018

Tools Copyright (c) 1996-2012 Texas Instruments Incorporated
tasks.asm                                                            PAGE   57

    2546              $C$DW$209       .dwtag  DW_TAG_variable, DW_AT_name("pxTCB")
    2547                      .dwattr $C$DW$209, DW_AT_TI_symbol_name("_pxTCB")
    2548                      .dwattr $C$DW$209, DW_AT_type(*$C$DW$T$159)
    2549                      .dwattr $C$DW$209, DW_AT_location[DW_OP_bregx 0x24 4]
    2550              $C$DW$210       .dwtag  DW_TAG_variable, DW_AT_name("uxSavedInterruptStatus")
    2551                      .dwattr $C$DW$210, DW_AT_TI_symbol_name("_uxSavedInterruptStatus")
    2552                      .dwattr $C$DW$210, DW_AT_type(*$C$DW$T$25)
    2553                      .dwattr $C$DW$210, DW_AT_location[DW_OP_bregx 0x24 6]
    2554 000816 EB00          MOV XAR0, dbl(*SP(#0))
         000818 85   
    2555                      .dwpsn  file "../FreeRTOS/Source/tasks.c",line 1898,column 13,is_stmt
    2556 000819 E604          MOV #0, *SP(#2) ; |1898| 
         00081b 00   
    2557                      .dwpsn  file "../FreeRTOS/Source/tasks.c",line 1899,column 16,is_stmt
    2558 00081c ED00          MOV dbl(*SP(#0)), XAR3
         00081e BF   
    2559 00081f EB08          MOV XAR3, dbl(*SP(#4))
         000821 B5   
    2560                      .dwpsn  file "../FreeRTOS/Source/tasks.c",line 1922,column 3,is_stmt
    2561 000822 E60C          MOV #0, *SP(#6) ; |1922| 
         000824 00   
    2562                      .dwpsn  file "../FreeRTOS/Source/tasks.c",line 1924,column 4,is_stmt
    2563 000825 ED08          MOV dbl(*SP(#4)), XAR0
         000827 8F   
    2564              $C$DW$211       .dwtag  DW_TAG_TI_branch
    2565                      .dwattr $C$DW$211, DW_AT_low_pc(0x00)
    2566                      .dwattr $C$DW$211, DW_AT_name("_prvTaskIsTaskSuspended")
    2567                      .dwattr $C$DW$211, DW_AT_TI_call
    2568 000828 08FE          CALL #_prvTaskIsTaskSuspended ; |1924| 
         00082a C5   
    2569                                                      ; call occurs [#_prvTaskIsTaskSuspended] ; |1924| 
    2570 00082b 0404          BCC $C$L68,T0 == #0 ; |1924| 
         00082d 72   
    2571                                                      ; branchcc occurs ; |1924| 
    2572                      .dwpsn  file "../FreeRTOS/Source/tasks.c",line 1929,column 5,is_stmt
    2573 00082e A931          MOV *(#_uxSchedulerSuspended), AR1 ; |1929| 
         000830 0000 
         000832 6E-  
    2574 000833 0419          BCC $C$L67,AR1 != #0 ; |1929| 
         000835 5A   
    2575                                                      ; branchcc occurs ; |1929| 
    2576                      .dwpsn  file "../FreeRTOS/Source/tasks.c",line 1933,column 6,is_stmt
    2577 000836 ED31          MOV dbl(*(#_pxCurrentTCB)), XAR3
         000838 BF00 
         00083a 0002-
    2578 00083c A96D          MOV *AR3(#24), AR1 ; |1933| 
         00083e 0018 
    2579 000840 ED08          MOV dbl(*SP(#4)), XAR3
         000842 BF   
    2580 000843 AA6D          MOV *AR3(#24), AR2 ; |1933| 
         000845 0018 
    2581 000847 12A4          CMPU AR2 < AR1, TC1 ; |1933| 
         000849 94   
    2582 00084a 61E4          BCC $C$L65,TC1 ; |1933| 
    2583                                                      ; branchcc occurs ; |1933| 
TMS320C55x Assembler PC v4.4.1 Sat Sep 08 17:11:34 2018

Tools Copyright (c) 1996-2012 Texas Instruments Incorporated
tasks.asm                                                            PAGE   58

    2584                      .dwpsn  file "../FreeRTOS/Source/tasks.c",line 1935,column 7,is_stmt
    2585 00084c E604          MOV #1, *SP(#2) ; |1935| 
         00084e 01   
    2586                      .dwpsn  file "../FreeRTOS/Source/tasks.c",line 1936,column 6,is_stmt
    2587 00084f       $C$L65:    
    2588                      .dwpsn  file "../FreeRTOS/Source/tasks.c",line 1942,column 6,is_stmt
    2589 00084f ED08          MOV dbl(*SP(#4)), XAR0
         000851 8F   
    2590 000852 1404          AADD #4, AR0 ; |1942| 
         000854 84   
    2591              $C$DW$212       .dwtag  DW_TAG_TI_branch
    2592                      .dwattr $C$DW$212, DW_AT_low_pc(0x00)
    2593                      .dwattr $C$DW$212, DW_AT_name("_uxListRemove")
    2594                      .dwattr $C$DW$212, DW_AT_TI_call
    2595 000855 6C00          CALL #_uxListRemove ; |1942| 
         000857 0000!
    2596                                                      ; call occurs [#_uxListRemove] ; |1942| 
    2597                      .dwpsn  file "../FreeRTOS/Source/tasks.c",line 1943,column 6,is_stmt
    2598 000859 ED08          MOV dbl(*SP(#4)), XAR3
         00085b BF   
    2599 00085c A931          MOV *(#_uxTopReadyPriority), AR1 ; |1943| 
         00085e 0000 
         000860 65-  
    2600 000861 AA6D          MOV *AR3(#24), AR2 ; |1943| 
         000863 0018 
    2601 000865 1298          CMPU AR2 <= AR1, TC1 ; |1943| 
         000867 A4   
    2602 000868 64E4          BCC $C$L66,TC1 ; |1943| 
    2603                                                      ; branchcc occurs ; |1943| 
    2604 00086a A96D          MOV *AR3(#24), AR1 ; |1943| 
         00086c 0018 
    2605 00086e C931          MOV AR1, *(#_uxTopReadyPriority) ; |1943| 
         000870 0000 
         000872 65-  
    2606 000873       $C$L66:    
    2607 000873 F86D          MPYMK *AR3(#24), #10, AC0 ; |1943| 
         000875 0A00 
         000877 0018 
    2608 000879 2209          MOV AC0, AR1 ; |1943| 
    2609 00087b EC31          AMOV #_pxReadyTasksLists, XAR0 ; |1943| 
         00087d 8E00 
         00087f 0004-
    2610 000881 1490          AADD AR1, AR0 ; |1943| 
         000883 80   
    2611 000884 ED08          MOV dbl(*SP(#4)), XAR1
         000886 9F   
    2612 000887 1404          AADD #4, AR1 ; |1943| 
         000889 94   
    2613              $C$DW$213       .dwtag  DW_TAG_TI_branch
    2614                      .dwattr $C$DW$213, DW_AT_low_pc(0x00)
    2615                      .dwattr $C$DW$213, DW_AT_name("_vListInsertEnd")
    2616                      .dwattr $C$DW$213, DW_AT_TI_call
    2617 00088a 6C00          CALL #_vListInsertEnd ; |1943| 
         00088c 0000!
    2618                                                      ; call occurs [#_vListInsertEnd] ; |1943| 
TMS320C55x Assembler PC v4.4.1 Sat Sep 08 17:11:34 2018

Tools Copyright (c) 1996-2012 Texas Instruments Incorporated
tasks.asm                                                            PAGE   59

    2619                      .dwpsn  file "../FreeRTOS/Source/tasks.c",line 1944,column 5,is_stmt
    2620 00088e 4A10          B $C$L68  ; |1944| 
    2621                                                      ; branch occurs ; |1944| 
    2622 000890       $C$L67:    
    2623                      .dwpsn  file "../FreeRTOS/Source/tasks.c",line 1950,column 6,is_stmt
    2624 000890 ED08          MOV dbl(*SP(#4)), XAR1
         000892 9F   
    2625 000893 EC31          AMOV #_xPendingReadyList, XAR0 ; |1950| 
         000895 8E00 
         000897 0044-
    2626 000899 140E          AADD #14, AR1 ; |1950| 
         00089b 94   
    2627              $C$DW$214       .dwtag  DW_TAG_TI_branch
    2628                      .dwattr $C$DW$214, DW_AT_low_pc(0x00)
    2629                      .dwattr $C$DW$214, DW_AT_name("_vListInsertEnd")
    2630                      .dwattr $C$DW$214, DW_AT_TI_call
    2631 00089c 6C00          CALL #_vListInsertEnd ; |1950| 
         00089e 0000!
    2632                                                      ; call occurs [#_vListInsertEnd] ; |1950| 
    2633                      .dwpsn  file "../FreeRTOS/Source/tasks.c",line 1952,column 4,is_stmt
    2634 0008a0       $C$L68:    
    2635                      .dwpsn  file "../FreeRTOS/Source/tasks.c",line 1958,column 3,is_stmt
    2636                      .dwpsn  file "../FreeRTOS/Source/tasks.c",line 1960,column 3,is_stmt
    2637 0008a0 A404          MOV *SP(#2), T0 ; |1960| 
    2638                      .dwpsn  file "../FreeRTOS/Source/tasks.c",line 1961,column 2,is_stmt
    2639 0008a2 4E07          AADD #7, SP
    2640                      .dwcfi  cfa_offset, 1
    2641              $C$DW$215       .dwtag  DW_TAG_TI_branch
    2642                      .dwattr $C$DW$215, DW_AT_low_pc(0x00)
    2643                      .dwattr $C$DW$215, DW_AT_TI_return
    2644 0008a4 4804          RET
    2645                                                      ; return occurs
    2646                      .dwattr $C$DW$205, DW_AT_TI_end_file("../FreeRTOS/Source/tasks.c")
    2647                      .dwattr $C$DW$205, DW_AT_TI_end_line(0x7a9)
    2648                      .dwattr $C$DW$205, DW_AT_TI_end_column(0x02)
    2649                      .dwendentry
    2650                      .dwendtag $C$DW$205
    2651              
    2652 0008a6               .sect   ".text"
    2653                      .align 4
    2654                      .global _vTaskStartScheduler
    2655              
    2656              $C$DW$216       .dwtag  DW_TAG_subprogram, DW_AT_name("vTaskStartScheduler")
    2657                      .dwattr $C$DW$216, DW_AT_low_pc(_vTaskStartScheduler)
    2658                      .dwattr $C$DW$216, DW_AT_high_pc(0x00)
    2659                      .dwattr $C$DW$216, DW_AT_TI_symbol_name("_vTaskStartScheduler")
    2660                      .dwattr $C$DW$216, DW_AT_external
    2661                      .dwattr $C$DW$216, DW_AT_TI_begin_file("../FreeRTOS/Source/tasks.c")
    2662                      .dwattr $C$DW$216, DW_AT_TI_begin_line(0x7ae)
    2663                      .dwattr $C$DW$216, DW_AT_TI_begin_column(0x06)
    2664                      .dwattr $C$DW$216, DW_AT_TI_max_frame_size(0x02)
    2665                      .dwpsn  file "../FreeRTOS/Source/tasks.c",line 1967,column 1,is_stmt,address _vTaskStartScheduler
    2666              
    2667                      .dwfde $C$DW$CIE, _vTaskStartScheduler
    2668              ;*******************************************************************************
TMS320C55x Assembler PC v4.4.1 Sat Sep 08 17:11:34 2018

Tools Copyright (c) 1996-2012 Texas Instruments Incorporated
tasks.asm                                                            PAGE   60

    2669              ;* FUNCTION NAME: vTaskStartScheduler                                          *
    2670              ;*                                                                             *
    2671              ;*   Function Uses Regs : AC0,AC0,T0,T1,AR0,XAR0,AR1,XAR1,AR2,XAR2,SP,TC1,M40, *
    2672              ;*                        SATA,SATD,RDM,FRCT,SMUL                              *
    2673              ;*   Stack Frame        : Compact (No Frame Pointer, w/ debug)                 *
    2674              ;*   Total Frame Size   : 2 words                                              *
    2675              ;*                        (1 return address/alignment)                         *
    2676              ;*                        (1 local values)                                     *
    2677              ;*   Min System Stack   : 1 word                                               *
    2678              ;*******************************************************************************
    2679 0008a8       _vTaskStartScheduler:
    2680                      .dwcfi  cfa_offset, 1
    2681                      .dwcfi  save_reg_to_mem, 91, -1
    2682 0008a8 4EFF          AADD #-1, SP
    2683                      .dwcfi  cfa_offset, 2
    2684              $C$DW$217       .dwtag  DW_TAG_variable, DW_AT_name("xReturn")
    2685                      .dwattr $C$DW$217, DW_AT_TI_symbol_name("_xReturn")
    2686                      .dwattr $C$DW$217, DW_AT_type(*$C$DW$T$44)
    2687                      .dwattr $C$DW$217, DW_AT_location[DW_OP_bregx 0x24 0]
    2688                      .dwpsn  file "../FreeRTOS/Source/tasks.c",line 2000,column 3,is_stmt
    2689 0008aa 7A00          MOV #(_prvIdleTask >> 16) << #16, AC0 ; |2000| 
         0008ac 000A%
    2690 0008ae EC31          AMOV #_xIdleTaskHandle, XAR2 ; |2000| 
         0008b0 AE00 
         0008b2 006C-
    2691 0008b4 EC31          AMOV #0, XAR1 ; |2000| 
         0008b6 9E00 
         0008b8 0000 
    2692 0008ba EC31          AMOV #$C$FSL1, XAR0 ; |2000| 
         0008bc 8E00 
         0008be 0000+
    2693 0008c0 7600          MOV #128, T0 ; |2000| 
         0008c2 8048 
    2694 0008c4 7E00          OR #(_prvIdleTask & 0xffff), AC0, AC0 ; |2000| 
         0008c6 0000%
    2695              $C$DW$218       .dwtag  DW_TAG_TI_branch
    2696                      .dwattr $C$DW$218, DW_AT_low_pc(0x00)
    2697                      .dwattr $C$DW$218, DW_AT_name("_xTaskCreate")
    2698                      .dwattr $C$DW$218, DW_AT_TI_call
    2699              
    2700 0008c8 08F7          CALL #_xTaskCreate ; |2000| 
         0008ca 33   
    2701 0008cb 3D05  ||      MOV #0, T1
    2702              
    2703                                                      ; call occurs [#_xTaskCreate] ; |2000| 
    2704 0008cd C400          MOV T0, *SP(#0) ; |2000| 
    2705                      .dwpsn  file "../FreeRTOS/Source/tasks.c",line 2022,column 2,is_stmt
    2706 0008cf F000          CMP *SP(#0) == #1, TC1 ; |2022| 
         0008d1 0001 
    2707 0008d3 0474          BCC $C$L69,!TC1 ; |2022| 
         0008d5 1E   
    2708                                                      ; branchcc occurs ; |2022| 
    2709                      .dwpsn  file "../FreeRTOS/Source/tasks.c",line 2038,column 3,is_stmt
    2710 0008d6 20     nop
    2711 0008d7 46B3   bset INTM
TMS320C55x Assembler PC v4.4.1 Sat Sep 08 17:11:34 2018

Tools Copyright (c) 1996-2012 Texas Instruments Incorporated
tasks.asm                                                            PAGE   61

    2712                      .dwpsn  file "../FreeRTOS/Source/tasks.c",line 2048,column 3,is_stmt
    2713 0008d9 FB31          MOV #65535, *(#_xNextTaskUnblockTime) ; |2048| 
         0008db FFFF 
         0008dd 0000 
         0008df 6B-  
    2714                      .dwpsn  file "../FreeRTOS/Source/tasks.c",line 2049,column 3,is_stmt
    2715 0008e0 E631          MOV #1, *(#_xSchedulerRunning) ; |2049| 
         0008e2 0100 
         0008e4 0066-
    2716                      .dwpsn  file "../FreeRTOS/Source/tasks.c",line 2050,column 3,is_stmt
    2717 0008e6 E631          MOV #0, *(#_xTickCount) ; |2050| 
         0008e8 0000 
         0008ea 0064-
    2718                      .dwpsn  file "../FreeRTOS/Source/tasks.c",line 2064,column 3,is_stmt
    2719              $C$DW$219       .dwtag  DW_TAG_TI_branch
    2720                      .dwattr $C$DW$219, DW_AT_low_pc(0x00)
    2721                      .dwattr $C$DW$219, DW_AT_name("_xPortStartScheduler")
    2722                      .dwattr $C$DW$219, DW_AT_TI_call
    2723 0008ec 6C00          CALL #_xPortStartScheduler ; |2064| 
         0008ee 0000!
    2724                                                      ; call occurs [#_xPortStartScheduler] ; |2064| 
    2725 0008f0 6114          BCC $C$L69,T0 != #0 ; |2064| 
    2726                                                      ; branchcc occurs ; |2064| 
    2727                      .dwpsn  file "../FreeRTOS/Source/tasks.c",line 2068,column 3,is_stmt
    2728                      .dwpsn  file "../FreeRTOS/Source/tasks.c",line 2073,column 2,is_stmt
    2729 0008f2 4A00          B $C$L69  ; |2073| 
    2730                                                      ; branch occurs ; |2073| 
    2731 0008f4       $C$L69:    
    2732 0008f4 4E01          AADD #1, SP
    2733                      .dwcfi  cfa_offset, 1
    2734              $C$DW$220       .dwtag  DW_TAG_TI_branch
    2735                      .dwattr $C$DW$220, DW_AT_low_pc(0x00)
    2736                      .dwattr $C$DW$220, DW_AT_TI_return
    2737 0008f6 4804          RET
    2738                                                      ; return occurs
    2739                      .dwattr $C$DW$216, DW_AT_TI_end_file("../FreeRTOS/Source/tasks.c")
    2740                      .dwattr $C$DW$216, DW_AT_TI_end_line(0x825)
    2741                      .dwattr $C$DW$216, DW_AT_TI_end_column(0x01)
    2742                      .dwendentry
    2743                      .dwendtag $C$DW$216
    2744              
    2745 0008f8               .sect   ".text"
    2746                      .align 4
    2747                      .global _vTaskEndScheduler
    2748              
    2749              $C$DW$221       .dwtag  DW_TAG_subprogram, DW_AT_name("vTaskEndScheduler")
    2750                      .dwattr $C$DW$221, DW_AT_low_pc(_vTaskEndScheduler)
    2751                      .dwattr $C$DW$221, DW_AT_high_pc(0x00)
    2752                      .dwattr $C$DW$221, DW_AT_TI_symbol_name("_vTaskEndScheduler")
    2753                      .dwattr $C$DW$221, DW_AT_external
    2754                      .dwattr $C$DW$221, DW_AT_TI_begin_file("../FreeRTOS/Source/tasks.c")
    2755                      .dwattr $C$DW$221, DW_AT_TI_begin_line(0x828)
    2756                      .dwattr $C$DW$221, DW_AT_TI_begin_column(0x06)
    2757                      .dwattr $C$DW$221, DW_AT_TI_max_frame_size(0x02)
    2758                      .dwpsn  file "../FreeRTOS/Source/tasks.c",line 2089,column 1,is_stmt,address _vTaskEndScheduler
TMS320C55x Assembler PC v4.4.1 Sat Sep 08 17:11:34 2018

Tools Copyright (c) 1996-2012 Texas Instruments Incorporated
tasks.asm                                                            PAGE   62

    2759              
    2760                      .dwfde $C$DW$CIE, _vTaskEndScheduler
    2761              ;*******************************************************************************
    2762              ;* FUNCTION NAME: vTaskEndScheduler                                            *
    2763              ;*                                                                             *
    2764              ;*   Function Uses Regs : SP,M40,SATA,SATD,RDM,FRCT,SMUL                       *
    2765              ;*   Stack Frame        : Compact (No Frame Pointer, w/ debug)                 *
    2766              ;*   Total Frame Size   : 2 words                                              *
    2767              ;*                        (2 return address/alignment)                         *
    2768              ;*   Min System Stack   : 1 word                                               *
    2769              ;*******************************************************************************
    2770 0008f8       _vTaskEndScheduler:
    2771                      .dwcfi  cfa_offset, 1
    2772                      .dwcfi  save_reg_to_mem, 91, -1
    2773 0008f8 4EFF          AADD #-1, SP
    2774                      .dwcfi  cfa_offset, 2
    2775                      .dwpsn  file "../FreeRTOS/Source/tasks.c",line 2093,column 2,is_stmt
    2776 0008fa 20     nop
    2777 0008fb 46B3   bset INTM
    2778                      .dwpsn  file "../FreeRTOS/Source/tasks.c",line 2094,column 2,is_stmt
    2779 0008fd E631          MOV #0, *(#_xSchedulerRunning) ; |2094| 
         0008ff 0000 
         000901 0066-
    2780                      .dwpsn  file "../FreeRTOS/Source/tasks.c",line 2095,column 2,is_stmt
    2781              $C$DW$222       .dwtag  DW_TAG_TI_branch
    2782                      .dwattr $C$DW$222, DW_AT_low_pc(0x00)
    2783                      .dwattr $C$DW$222, DW_AT_name("_vPortEndScheduler")
    2784                      .dwattr $C$DW$222, DW_AT_TI_call
    2785 000903 6C00          CALL #_vPortEndScheduler ; |2095| 
         000905 0000!
    2786                                                      ; call occurs [#_vPortEndScheduler] ; |2095| 
    2787                      .dwpsn  file "../FreeRTOS/Source/tasks.c",line 2096,column 1,is_stmt
    2788 000907 4E01          AADD #1, SP
    2789                      .dwcfi  cfa_offset, 1
    2790              $C$DW$223       .dwtag  DW_TAG_TI_branch
    2791                      .dwattr $C$DW$223, DW_AT_low_pc(0x00)
    2792                      .dwattr $C$DW$223, DW_AT_TI_return
    2793 000909 4804          RET
    2794                                                      ; return occurs
    2795                      .dwattr $C$DW$221, DW_AT_TI_end_file("../FreeRTOS/Source/tasks.c")
    2796                      .dwattr $C$DW$221, DW_AT_TI_end_line(0x830)
    2797                      .dwattr $C$DW$221, DW_AT_TI_end_column(0x01)
    2798                      .dwendentry
    2799                      .dwendtag $C$DW$221
    2800              
    2801 00090b               .sect   ".text"
    2802                      .align 4
    2803                      .global _vTaskSuspendAll
    2804              
    2805              $C$DW$224       .dwtag  DW_TAG_subprogram, DW_AT_name("vTaskSuspendAll")
    2806                      .dwattr $C$DW$224, DW_AT_low_pc(_vTaskSuspendAll)
    2807                      .dwattr $C$DW$224, DW_AT_high_pc(0x00)
    2808                      .dwattr $C$DW$224, DW_AT_TI_symbol_name("_vTaskSuspendAll")
    2809                      .dwattr $C$DW$224, DW_AT_external
    2810                      .dwattr $C$DW$224, DW_AT_TI_begin_file("../FreeRTOS/Source/tasks.c")
TMS320C55x Assembler PC v4.4.1 Sat Sep 08 17:11:34 2018

Tools Copyright (c) 1996-2012 Texas Instruments Incorporated
tasks.asm                                                            PAGE   63

    2811                      .dwattr $C$DW$224, DW_AT_TI_begin_line(0x833)
    2812                      .dwattr $C$DW$224, DW_AT_TI_begin_column(0x06)
    2813                      .dwattr $C$DW$224, DW_AT_TI_max_frame_size(0x01)
    2814                      .dwpsn  file "../FreeRTOS/Source/tasks.c",line 2100,column 1,is_stmt,address _vTaskSuspendAll
    2815              
    2816                      .dwfde $C$DW$CIE, _vTaskSuspendAll
    2817              ;*******************************************************************************
    2818              ;* FUNCTION NAME: vTaskSuspendAll                                              *
    2819              ;*                                                                             *
    2820              ;*   Function Uses Regs : SP,CARRY,M40,SATA,SATD,RDM,FRCT,SMUL                 *
    2821              ;*   Stack Frame        : Compact (No Frame Pointer, w/ debug)                 *
    2822              ;*   Total Frame Size   : 1 word                                               *
    2823              ;*                        (1 return address/alignment)                         *
    2824              ;*   Min System Stack   : 1 word                                               *
    2825              ;*******************************************************************************
    2826 00090c       _vTaskSuspendAll:
    2827                      .dwcfi  cfa_offset, 1
    2828                      .dwcfi  save_reg_to_mem, 91, -1
    2829                      .dwpsn  file "../FreeRTOS/Source/tasks.c",line 2105,column 2,is_stmt
    2830 00090c F731          ADD #1, *(#_uxSchedulerSuspended) ; |2105| 
         00090e 0001 
         000910 0000 
         000912 6E-  
    2831                      .dwpsn  file "../FreeRTOS/Source/tasks.c",line 2106,column 1,is_stmt
    2832              $C$DW$225       .dwtag  DW_TAG_TI_branch
    2833                      .dwattr $C$DW$225, DW_AT_low_pc(0x00)
    2834                      .dwattr $C$DW$225, DW_AT_TI_return
    2835 000913 4804          RET
    2836                                                      ; return occurs
    2837                      .dwattr $C$DW$224, DW_AT_TI_end_file("../FreeRTOS/Source/tasks.c")
    2838                      .dwattr $C$DW$224, DW_AT_TI_end_line(0x83a)
    2839                      .dwattr $C$DW$224, DW_AT_TI_end_column(0x01)
    2840                      .dwendentry
    2841                      .dwendtag $C$DW$224
    2842              
    2843 000915               .sect   ".text"
    2844                      .align 4
    2845                      .global _xTaskResumeAll
    2846              
    2847              $C$DW$226       .dwtag  DW_TAG_subprogram, DW_AT_name("xTaskResumeAll")
    2848                      .dwattr $C$DW$226, DW_AT_low_pc(_xTaskResumeAll)
    2849                      .dwattr $C$DW$226, DW_AT_high_pc(0x00)
    2850                      .dwattr $C$DW$226, DW_AT_TI_symbol_name("_xTaskResumeAll")
    2851                      .dwattr $C$DW$226, DW_AT_external
    2852                      .dwattr $C$DW$226, DW_AT_type(*$C$DW$T$44)
    2853                      .dwattr $C$DW$226, DW_AT_TI_begin_file("../FreeRTOS/Source/tasks.c")
    2854                      .dwattr $C$DW$226, DW_AT_TI_begin_line(0x87c)
    2855                      .dwattr $C$DW$226, DW_AT_TI_begin_column(0x0c)
    2856                      .dwattr $C$DW$226, DW_AT_TI_max_frame_size(0x06)
    2857                      .dwpsn  file "../FreeRTOS/Source/tasks.c",line 2173,column 1,is_stmt,address _xTaskResumeAll
    2858              
    2859                      .dwfde $C$DW$CIE, _xTaskResumeAll
    2860              ;*******************************************************************************
    2861              ;* FUNCTION NAME: xTaskResumeAll                                               *
    2862              ;*                                                                             *
TMS320C55x Assembler PC v4.4.1 Sat Sep 08 17:11:34 2018

Tools Copyright (c) 1996-2012 Texas Instruments Incorporated
tasks.asm                                                            PAGE   64

    2863              ;*   Function Uses Regs : AC0,AC0,T0,AR0,XAR0,AR1,XAR1,AR2,AR3,XAR3,SP,CARRY,  *
    2864              ;*                        TC1,M40,SATA,SATD,RDM,FRCT,SMUL                      *
    2865              ;*   Stack Frame        : Compact (No Frame Pointer, w/ debug)                 *
    2866              ;*   Total Frame Size   : 6 words                                              *
    2867              ;*                        (2 return address/alignment)                         *
    2868              ;*                        (4 local values)                                     *
    2869              ;*   Min System Stack   : 1 word                                               *
    2870              ;*******************************************************************************
    2871 000918       _xTaskResumeAll:
    2872                      .dwcfi  cfa_offset, 1
    2873                      .dwcfi  save_reg_to_mem, 91, -1
    2874 000918 4EFB          AADD #-5, SP
    2875                      .dwcfi  cfa_offset, 6
    2876              $C$DW$227       .dwtag  DW_TAG_variable, DW_AT_name("pxTCB")
    2877                      .dwattr $C$DW$227, DW_AT_TI_symbol_name("_pxTCB")
    2878                      .dwattr $C$DW$227, DW_AT_type(*$C$DW$T$82)
    2879                      .dwattr $C$DW$227, DW_AT_location[DW_OP_bregx 0x24 0]
    2880              $C$DW$228       .dwtag  DW_TAG_variable, DW_AT_name("xAlreadyYielded")
    2881                      .dwattr $C$DW$228, DW_AT_TI_symbol_name("_xAlreadyYielded")
    2882                      .dwattr $C$DW$228, DW_AT_type(*$C$DW$T$44)
    2883                      .dwattr $C$DW$228, DW_AT_location[DW_OP_bregx 0x24 2]
    2884                      .dwpsn  file "../FreeRTOS/Source/tasks.c",line 2174,column 8,is_stmt
    2885 00091a 3C00          MOV #0, AC0 ; |2174| 
    2886 00091c EB00          MOV AC0, dbl(*SP(#0))
         00091e 08   
    2887                      .dwpsn  file "../FreeRTOS/Source/tasks.c",line 2175,column 12,is_stmt
    2888 00091f E604          MOV #0, *SP(#2) ; |2175| 
         000921 00   
    2889                      .dwpsn  file "../FreeRTOS/Source/tasks.c",line 2186,column 2,is_stmt
    2890 000922 20     nop
    2891 000923 46B3   bset INTM
    2892 000925 F731          ADD #1, *(#_usCriticalNesting) ; |2186| 
         000927 0001 
         000929 0000 
         00092b 00!  
    2893                      .dwpsn  file "../FreeRTOS/Source/tasks.c",line 2188,column 3,is_stmt
    2894 00092c F731          SUB #1, *(#_uxSchedulerSuspended) ; |2188| 
         00092e FFFF 
         000930 0000 
         000932 6E-  
    2895 000933 20            NOP
    2896 000934 20            NOP
    2897 000935 20            NOP
    2898                      .dwpsn  file "../FreeRTOS/Source/tasks.c",line 2190,column 3,is_stmt
    2899 000936 A931          MOV *(#_uxSchedulerSuspended), AR1 ; |2190| 
         000938 0000 
         00093a 6E-  
    2900 00093b 6D19          BCC $C$L79,AR1 != #0 ; |2190| 
         00093d 00CC 
    2901                                                      ; branchcc occurs ; |2190| 
    2902                      .dwpsn  file "../FreeRTOS/Source/tasks.c",line 2192,column 4,is_stmt
    2903 00093f A931          MOV *(#_uxCurrentNumberOfTasks), AR1 ; |2192| 
         000941 0000 
         000943 59-  
    2904 000944 6D09          BCC $C$L79,AR1 == #0 ; |2192| 
TMS320C55x Assembler PC v4.4.1 Sat Sep 08 17:11:34 2018

Tools Copyright (c) 1996-2012 Texas Instruments Incorporated
tasks.asm                                                            PAGE   65

         000946 00C3 
    2905                                                      ; branchcc occurs ; |2192| 
    2906                      .dwpsn  file "../FreeRTOS/Source/tasks.c",line 2196,column 5,is_stmt
    2907 000948 0600          B $C$L72  ; |2196| 
         00094a 71   
    2908                                                      ; branch occurs ; |2196| 
    2909 00094b       $C$L70:    
    2910 00094b       $C$DW$L$_xTaskResumeAll$4$B:
    2911                      .dwpsn  file "../FreeRTOS/Source/tasks.c",line 2198,column 6,is_stmt
    2912 00094b ED31          MOV dbl(*(#(_xPendingReadyList+6))), XAR3
         00094d BF00 
         00094f 004A-
    2913 000951 ED7D          MOV dbl(*AR3(short(#6))), XAR3
         000953 BF   
    2914 000954 EB00          MOV XAR3, dbl(*SP(#0))
         000956 B5   
    2915                      .dwpsn  file "../FreeRTOS/Source/tasks.c",line 2199,column 6,is_stmt
    2916 000957 ED00          MOV dbl(*SP(#0)), XAR0
         000959 8F   
    2917 00095a 140E          AADD #14, AR0 ; |2199| 
         00095c 84   
    2918              $C$DW$229       .dwtag  DW_TAG_TI_branch
    2919                      .dwattr $C$DW$229, DW_AT_low_pc(0x00)
    2920                      .dwattr $C$DW$229, DW_AT_name("_uxListRemove")
    2921                      .dwattr $C$DW$229, DW_AT_TI_call
    2922 00095d 6C00          CALL #_uxListRemove ; |2199| 
         00095f 0000!
    2923                                                      ; call occurs [#_uxListRemove] ; |2199| 
    2924                      .dwpsn  file "../FreeRTOS/Source/tasks.c",line 2200,column 6,is_stmt
    2925 000961 ED00          MOV dbl(*SP(#0)), XAR0
         000963 8F   
    2926 000964 1404          AADD #4, AR0 ; |2200| 
         000966 84   
    2927              $C$DW$230       .dwtag  DW_TAG_TI_branch
    2928                      .dwattr $C$DW$230, DW_AT_low_pc(0x00)
    2929                      .dwattr $C$DW$230, DW_AT_name("_uxListRemove")
    2930                      .dwattr $C$DW$230, DW_AT_TI_call
    2931 000967 6C00          CALL #_uxListRemove ; |2200| 
         000969 0000!
    2932                                                      ; call occurs [#_uxListRemove] ; |2200| 
    2933                      .dwpsn  file "../FreeRTOS/Source/tasks.c",line 2201,column 6,is_stmt
    2934 00096b ED00          MOV dbl(*SP(#0)), XAR3
         00096d BF   
    2935 00096e A931          MOV *(#_uxTopReadyPriority), AR1 ; |2201| 
         000970 0000 
         000972 65-  
    2936 000973 AA6D          MOV *AR3(#24), AR2 ; |2201| 
         000975 0018 
    2937 000977 1298          CMPU AR2 <= AR1, TC1 ; |2201| 
         000979 A4   
    2938 00097a 64E4          BCC $C$L71,TC1 ; |2201| 
    2939                                                      ; branchcc occurs ; |2201| 
    2940 00097c       $C$DW$L$_xTaskResumeAll$4$E:
    2941 00097c       $C$DW$L$_xTaskResumeAll$5$B:
    2942 00097c A96D          MOV *AR3(#24), AR1 ; |2201| 
TMS320C55x Assembler PC v4.4.1 Sat Sep 08 17:11:34 2018

Tools Copyright (c) 1996-2012 Texas Instruments Incorporated
tasks.asm                                                            PAGE   66

         00097e 0018 
    2943 000980 C931          MOV AR1, *(#_uxTopReadyPriority) ; |2201| 
         000982 0000 
         000984 65-  
    2944 000985       $C$DW$L$_xTaskResumeAll$5$E:
    2945 000985       $C$L71:    
    2946 000985       $C$DW$L$_xTaskResumeAll$6$B:
    2947 000985 F86D          MPYMK *AR3(#24), #10, AC0 ; |2201| 
         000987 0A00 
         000989 0018 
    2948 00098b 2209          MOV AC0, AR1 ; |2201| 
    2949 00098d EC31          AMOV #_pxReadyTasksLists, XAR0 ; |2201| 
         00098f 8E00 
         000991 0004-
    2950 000993 1490          AADD AR1, AR0 ; |2201| 
         000995 80   
    2951 000996 ED00          MOV dbl(*SP(#0)), XAR1
         000998 9F   
    2952 000999 1404          AADD #4, AR1 ; |2201| 
         00099b 94   
    2953              $C$DW$231       .dwtag  DW_TAG_TI_branch
    2954                      .dwattr $C$DW$231, DW_AT_low_pc(0x00)
    2955                      .dwattr $C$DW$231, DW_AT_name("_vListInsertEnd")
    2956                      .dwattr $C$DW$231, DW_AT_TI_call
    2957 00099c 6C00          CALL #_vListInsertEnd ; |2201| 
         00099e 0000!
    2958                                                      ; call occurs [#_vListInsertEnd] ; |2201| 
    2959                      .dwpsn  file "../FreeRTOS/Source/tasks.c",line 2205,column 6,is_stmt
    2960 0009a0 ED31          MOV dbl(*(#_pxCurrentTCB)), XAR3
         0009a2 BF00 
         0009a4 0002-
    2961 0009a6 A96D          MOV *AR3(#24), AR1 ; |2205| 
         0009a8 0018 
    2962 0009aa ED00          MOV dbl(*SP(#0)), XAR3
         0009ac BF   
    2963 0009ad AA6D          MOV *AR3(#24), AR2 ; |2205| 
         0009af 0018 
    2964 0009b1 12A4          CMPU AR2 < AR1, TC1 ; |2205| 
         0009b3 94   
    2965 0009b4 6364          BCC $C$L72,TC1 ; |2205| 
    2966                                                      ; branchcc occurs ; |2205| 
    2967 0009b6       $C$DW$L$_xTaskResumeAll$6$E:
    2968 0009b6       $C$DW$L$_xTaskResumeAll$7$B:
    2969                      .dwpsn  file "../FreeRTOS/Source/tasks.c",line 2207,column 7,is_stmt
    2970 0009b6 E631          MOV #1, *(#_xYieldPending) ; |2207| 
         0009b8 0100 
         0009ba 0068-
    2971                      .dwpsn  file "../FreeRTOS/Source/tasks.c",line 2208,column 6,is_stmt
    2972 0009bc       $C$DW$L$_xTaskResumeAll$7$E:
    2973 0009bc       $C$L72:    
    2974 0009bc       $C$DW$L$_xTaskResumeAll$8$B:
    2975                      .dwpsn  file "../FreeRTOS/Source/tasks.c",line 2196,column 12,is_stmt
    2976 0009bc A931          MOV *(#_xPendingReadyList), AR1 ; |2196| 
         0009be 0000 
         0009c0 44-  
TMS320C55x Assembler PC v4.4.1 Sat Sep 08 17:11:34 2018

Tools Copyright (c) 1996-2012 Texas Instruments Incorporated
tasks.asm                                                            PAGE   67

    2977 0009c1 6219          BCC $C$L73,AR1 != #0 ; |2196| 
    2978                                                      ; branchcc occurs ; |2196| 
    2979 0009c3       $C$DW$L$_xTaskResumeAll$8$E:
    2980 0009c3       $C$DW$L$_xTaskResumeAll$9$B:
    2981 0009c3 3C19          MOV #1, AR1
    2982 0009c5 4A02          B $C$L74  ; |2196| 
    2983                                                      ; branch occurs ; |2196| 
    2984 0009c7       $C$DW$L$_xTaskResumeAll$9$E:
    2985 0009c7       $C$L73:    
    2986 0009c7       $C$DW$L$_xTaskResumeAll$10$B:
    2987 0009c7 3C09          MOV #0, AR1
    2988 0009c9       $C$DW$L$_xTaskResumeAll$10$E:
    2989 0009c9       $C$L74:    
    2990 0009c9       $C$DW$L$_xTaskResumeAll$11$B:
    2991 0009c9 6D09          BCC $C$L70,AR1 == #0 ; |2196| 
         0009cb FF7E 
    2992                                                      ; branchcc occurs ; |2196| 
    2993 0009cd       $C$DW$L$_xTaskResumeAll$11$E:
    2994                      .dwpsn  file "../FreeRTOS/Source/tasks.c",line 2215,column 5,is_stmt
    2995 0009cd ED00          MOV dbl(*SP(#0)), XAR3
         0009cf BF   
    2996 0009d0 90B0          MOV XAR3, AC0
    2997 0009d2 6180          BCC $C$L75,AC0 == #0 ; |2215| 
    2998                                                      ; branchcc occurs ; |2215| 
    2999                      .dwpsn  file "../FreeRTOS/Source/tasks.c",line 2223,column 6,is_stmt
    3000              $C$DW$232       .dwtag  DW_TAG_TI_branch
    3001                      .dwattr $C$DW$232, DW_AT_low_pc(0x00)
    3002                      .dwattr $C$DW$232, DW_AT_name("_prvResetNextTaskUnblockTime")
    3003                      .dwattr $C$DW$232, DW_AT_TI_call
    3004 0009d4 0807          CALL #_prvResetNextTaskUnblockTime ; |2223| 
         0009d6 21   
    3005                                                      ; call occurs [#_prvResetNextTaskUnblockTime] ; |2223| 
    3006 0009d7       $C$L75:    
    3007              
    3008              $C$DW$233       .dwtag  DW_TAG_lexical_block, DW_AT_low_pc(0x00), DW_AT_high_pc(0x00)
    3009              $C$DW$234       .dwtag  DW_TAG_variable, DW_AT_name("uxPendedCounts")
    3010                      .dwattr $C$DW$234, DW_AT_TI_symbol_name("_uxPendedCounts")
    3011                      .dwattr $C$DW$234, DW_AT_type(*$C$DW$T$25)
    3012                      .dwattr $C$DW$234, DW_AT_location[DW_OP_bregx 0x24 3]
    3013                      .dwpsn  file "../FreeRTOS/Source/tasks.c",line 2231,column 18,is_stmt
    3014 0009d7 A931          MOV *(#_uxPendedTicks), AR1 ; |2231| 
         0009d9 0000 
         0009db 67-  
    3015 0009dc C906          MOV AR1, *SP(#3) ; |2231| 
    3016                      .dwpsn  file "../FreeRTOS/Source/tasks.c",line 2233,column 6,is_stmt
    3017 0009de 0409          BCC $C$L78,AR1 == #0 ; |2233| 
         0009e0 1A   
    3018                                                      ; branchcc occurs ; |2233| 
    3019 0009e1       $C$L76:    
    3020 0009e1       $C$DW$L$_xTaskResumeAll$15$B:
    3021                      .dwpsn  file "../FreeRTOS/Source/tasks.c",line 2237,column 8,is_stmt
    3022              $C$DW$235       .dwtag  DW_TAG_TI_branch
    3023                      .dwattr $C$DW$235, DW_AT_low_pc(0x00)
    3024                      .dwattr $C$DW$235, DW_AT_name("_xTaskIncrementTick")
    3025                      .dwattr $C$DW$235, DW_AT_TI_call
TMS320C55x Assembler PC v4.4.1 Sat Sep 08 17:11:34 2018

Tools Copyright (c) 1996-2012 Texas Instruments Incorporated
tasks.asm                                                            PAGE   68

    3026 0009e1 0800          CALL #_xTaskIncrementTick ; |2237| 
         0009e3 C0   
    3027                                                      ; call occurs [#_xTaskIncrementTick] ; |2237| 
    3028 0009e4 6304          BCC $C$L77,T0 == #0 ; |2237| 
    3029                                                      ; branchcc occurs ; |2237| 
    3030 0009e6       $C$DW$L$_xTaskResumeAll$15$E:
    3031 0009e6       $C$DW$L$_xTaskResumeAll$16$B:
    3032                      .dwpsn  file "../FreeRTOS/Source/tasks.c",line 2239,column 9,is_stmt
    3033 0009e6 E631          MOV #1, *(#_xYieldPending) ; |2239| 
         0009e8 0100 
         0009ea 0068-
    3034                      .dwpsn  file "../FreeRTOS/Source/tasks.c",line 2240,column 8,is_stmt
    3035 0009ec       $C$DW$L$_xTaskResumeAll$16$E:
    3036 0009ec       $C$L77:    
    3037 0009ec       $C$DW$L$_xTaskResumeAll$17$B:
    3038                      .dwpsn  file "../FreeRTOS/Source/tasks.c",line 2245,column 8,is_stmt
    3039 0009ec F706          SUB #1, *SP(#3) ; |2245| 
         0009ee FFFF 
    3040                      .dwpsn  file "../FreeRTOS/Source/tasks.c",line 2246,column 16,is_stmt
    3041 0009f0 A906          MOV *SP(#3), AR1 ; |2246| 
    3042 0009f2 0419          BCC $C$L76,AR1 != #0 ; |2246| 
         0009f4 EC   
    3043                                                      ; branchcc occurs ; |2246| 
    3044 0009f5       $C$DW$L$_xTaskResumeAll$17$E:
    3045                      .dwpsn  file "../FreeRTOS/Source/tasks.c",line 2248,column 7,is_stmt
    3046 0009f5 E631          MOV #0, *(#_uxPendedTicks) ; |2248| 
         0009f7 0000 
         0009f9 0067-
    3047                      .dwpsn  file "../FreeRTOS/Source/tasks.c",line 2249,column 6,is_stmt
    3048              $C$L78:    
    3049                      .dwendtag $C$DW$233
    3050              
    3051                      .dwpsn  file "../FreeRTOS/Source/tasks.c",line 2256,column 5,is_stmt
    3052 0009fb A931          MOV *(#_xYieldPending), AR1 ; |2256| 
         0009fd 0000 
         0009ff 68-  
    3053 000a00 6489          BCC $C$L79,AR1 == #0 ; |2256| 
    3054                                                      ; branchcc occurs ; |2256| 
    3055                      .dwpsn  file "../FreeRTOS/Source/tasks.c",line 2260,column 7,is_stmt
    3056 000a02 E604          MOV #1, *SP(#2) ; |2260| 
         000a04 01   
    3057                      .dwpsn  file "../FreeRTOS/Source/tasks.c",line 2263,column 6,is_stmt
    3058              $C$DW$236       .dwtag  DW_TAG_TI_branch
    3059                      .dwattr $C$DW$236, DW_AT_low_pc(0x00)
    3060                      .dwattr $C$DW$236, DW_AT_name("_vPortYield")
    3061                      .dwattr $C$DW$236, DW_AT_TI_call
    3062 000a05 6C00          CALL #_vPortYield ; |2263| 
         000a07 0000!
    3063                                                      ; call occurs [#_vPortYield] ; |2263| 
    3064                      .dwpsn  file "../FreeRTOS/Source/tasks.c",line 2264,column 5,is_stmt
    3065 000a09 4A00          B $C$L79  ; |2264| 
    3066                                                      ; branch occurs ; |2264| 
    3067 000a0b       $C$L79:    
    3068                      .dwpsn  file "../FreeRTOS/Source/tasks.c",line 2276,column 2,is_stmt
    3069 000a0b A931          MOV *(#_usCriticalNesting), AR1 ; |2276| 
TMS320C55x Assembler PC v4.4.1 Sat Sep 08 17:11:34 2018

Tools Copyright (c) 1996-2012 Texas Instruments Incorporated
tasks.asm                                                            PAGE   69

         000a0d 0000 
         000a0f 00!  
    3070 000a10 0409          BCC $C$L80,AR1 == #0 ; |2276| 
         000a12 14   
    3071                                                      ; branchcc occurs ; |2276| 
    3072 000a13 F731          SUB #1, *(#_usCriticalNesting) ; |2276| 
         000a15 FFFF 
         000a17 0000 
         000a19 00!  
    3073 000a1a 20            NOP
    3074 000a1b 20            NOP
    3075 000a1c 20            NOP
    3076 000a1d A931          MOV *(#_usCriticalNesting), AR1 ; |2276| 
         000a1f 0000 
         000a21 00!  
    3077 000a22 6199          BCC $C$L80,AR1 != #0 ; |2276| 
    3078                                                      ; branchcc occurs ; |2276| 
    3079 000a24 20     nop
    3080 000a25 46B2   bclr INTM
    3081 000a27       $C$L80:    
    3082                      .dwpsn  file "../FreeRTOS/Source/tasks.c",line 2278,column 2,is_stmt
    3083 000a27 A404          MOV *SP(#2), T0 ; |2278| 
    3084                      .dwpsn  file "../FreeRTOS/Source/tasks.c",line 2279,column 1,is_stmt
    3085 000a29 4E05          AADD #5, SP
    3086                      .dwcfi  cfa_offset, 1
    3087              $C$DW$237       .dwtag  DW_TAG_TI_branch
    3088                      .dwattr $C$DW$237, DW_AT_low_pc(0x00)
    3089                      .dwattr $C$DW$237, DW_AT_TI_return
    3090 000a2b 4804          RET
    3091                                                      ; return occurs
    3092              
    3093              $C$DW$238       .dwtag  DW_TAG_TI_loop
    3094                      .dwattr $C$DW$238, DW_AT_name("F:\eZdsp_C55x_FreeRTOS_Port\eZDSP\eZDSP_5535_Files\ccsws2\test\Debug\t
    3095                      .dwattr $C$DW$238, DW_AT_TI_begin_file("../FreeRTOS/Source/tasks.c")
    3096                      .dwattr $C$DW$238, DW_AT_TI_begin_line(0x8bb)
    3097                      .dwattr $C$DW$238, DW_AT_TI_end_line(0x8c6)
    3098              $C$DW$239       .dwtag  DW_TAG_TI_loop_range
    3099                      .dwattr $C$DW$239, DW_AT_low_pc($C$DW$L$_xTaskResumeAll$15$B)
    3100                      .dwattr $C$DW$239, DW_AT_high_pc($C$DW$L$_xTaskResumeAll$15$E)
    3101              $C$DW$240       .dwtag  DW_TAG_TI_loop_range
    3102                      .dwattr $C$DW$240, DW_AT_low_pc($C$DW$L$_xTaskResumeAll$16$B)
    3103                      .dwattr $C$DW$240, DW_AT_high_pc($C$DW$L$_xTaskResumeAll$16$E)
    3104              $C$DW$241       .dwtag  DW_TAG_TI_loop_range
    3105                      .dwattr $C$DW$241, DW_AT_low_pc($C$DW$L$_xTaskResumeAll$17$B)
    3106                      .dwattr $C$DW$241, DW_AT_high_pc($C$DW$L$_xTaskResumeAll$17$E)
    3107                      .dwendtag $C$DW$238
    3108              
    3109              
    3110              $C$DW$242       .dwtag  DW_TAG_TI_loop
    3111                      .dwattr $C$DW$242, DW_AT_name("F:\eZdsp_C55x_FreeRTOS_Port\eZDSP\eZDSP_5535_Files\ccsws2\test\Debug\t
    3112                      .dwattr $C$DW$242, DW_AT_TI_begin_file("../FreeRTOS/Source/tasks.c")
    3113                      .dwattr $C$DW$242, DW_AT_TI_begin_line(0x894)
    3114                      .dwattr $C$DW$242, DW_AT_TI_end_line(0x8a0)
    3115              $C$DW$243       .dwtag  DW_TAG_TI_loop_range
    3116                      .dwattr $C$DW$243, DW_AT_low_pc($C$DW$L$_xTaskResumeAll$8$B)
TMS320C55x Assembler PC v4.4.1 Sat Sep 08 17:11:34 2018

Tools Copyright (c) 1996-2012 Texas Instruments Incorporated
tasks.asm                                                            PAGE   70

    3117                      .dwattr $C$DW$243, DW_AT_high_pc($C$DW$L$_xTaskResumeAll$8$E)
    3118              $C$DW$244       .dwtag  DW_TAG_TI_loop_range
    3119                      .dwattr $C$DW$244, DW_AT_low_pc($C$DW$L$_xTaskResumeAll$9$B)
    3120                      .dwattr $C$DW$244, DW_AT_high_pc($C$DW$L$_xTaskResumeAll$9$E)
    3121              $C$DW$245       .dwtag  DW_TAG_TI_loop_range
    3122                      .dwattr $C$DW$245, DW_AT_low_pc($C$DW$L$_xTaskResumeAll$10$B)
    3123                      .dwattr $C$DW$245, DW_AT_high_pc($C$DW$L$_xTaskResumeAll$10$E)
    3124              $C$DW$246       .dwtag  DW_TAG_TI_loop_range
    3125                      .dwattr $C$DW$246, DW_AT_low_pc($C$DW$L$_xTaskResumeAll$11$B)
    3126                      .dwattr $C$DW$246, DW_AT_high_pc($C$DW$L$_xTaskResumeAll$11$E)
    3127              $C$DW$247       .dwtag  DW_TAG_TI_loop_range
    3128                      .dwattr $C$DW$247, DW_AT_low_pc($C$DW$L$_xTaskResumeAll$4$B)
    3129                      .dwattr $C$DW$247, DW_AT_high_pc($C$DW$L$_xTaskResumeAll$4$E)
    3130              $C$DW$248       .dwtag  DW_TAG_TI_loop_range
    3131                      .dwattr $C$DW$248, DW_AT_low_pc($C$DW$L$_xTaskResumeAll$5$B)
    3132                      .dwattr $C$DW$248, DW_AT_high_pc($C$DW$L$_xTaskResumeAll$5$E)
    3133              $C$DW$249       .dwtag  DW_TAG_TI_loop_range
    3134                      .dwattr $C$DW$249, DW_AT_low_pc($C$DW$L$_xTaskResumeAll$7$B)
    3135                      .dwattr $C$DW$249, DW_AT_high_pc($C$DW$L$_xTaskResumeAll$7$E)
    3136              $C$DW$250       .dwtag  DW_TAG_TI_loop_range
    3137                      .dwattr $C$DW$250, DW_AT_low_pc($C$DW$L$_xTaskResumeAll$6$B)
    3138                      .dwattr $C$DW$250, DW_AT_high_pc($C$DW$L$_xTaskResumeAll$6$E)
    3139                      .dwendtag $C$DW$242
    3140              
    3141                      .dwattr $C$DW$226, DW_AT_TI_end_file("../FreeRTOS/Source/tasks.c")
    3142                      .dwattr $C$DW$226, DW_AT_TI_end_line(0x8e7)
    3143                      .dwattr $C$DW$226, DW_AT_TI_end_column(0x01)
    3144                      .dwendentry
    3145                      .dwendtag $C$DW$226
    3146              
    3147 000a2d               .sect   ".text"
    3148                      .align 4
    3149                      .global _xTaskGetTickCount
    3150              
    3151              $C$DW$251       .dwtag  DW_TAG_subprogram, DW_AT_name("xTaskGetTickCount")
    3152                      .dwattr $C$DW$251, DW_AT_low_pc(_xTaskGetTickCount)
    3153                      .dwattr $C$DW$251, DW_AT_high_pc(0x00)
    3154                      .dwattr $C$DW$251, DW_AT_TI_symbol_name("_xTaskGetTickCount")
    3155                      .dwattr $C$DW$251, DW_AT_external
    3156                      .dwattr $C$DW$251, DW_AT_type(*$C$DW$T$38)
    3157                      .dwattr $C$DW$251, DW_AT_TI_begin_file("../FreeRTOS/Source/tasks.c")
    3158                      .dwattr $C$DW$251, DW_AT_TI_begin_line(0x8ea)
    3159                      .dwattr $C$DW$251, DW_AT_TI_begin_column(0x0c)
    3160                      .dwattr $C$DW$251, DW_AT_TI_max_frame_size(0x02)
    3161                      .dwpsn  file "../FreeRTOS/Source/tasks.c",line 2283,column 1,is_stmt,address _xTaskGetTickCount
    3162              
    3163                      .dwfde $C$DW$CIE, _xTaskGetTickCount
    3164              ;*******************************************************************************
    3165              ;* FUNCTION NAME: xTaskGetTickCount                                            *
    3166              ;*                                                                             *
    3167              ;*   Function Uses Regs : T0,AR1,SP,CARRY,M40,SATA,SATD,RDM,FRCT,SMUL          *
    3168              ;*   Stack Frame        : Compact (No Frame Pointer, w/ debug)                 *
    3169              ;*   Total Frame Size   : 2 words                                              *
    3170              ;*                        (1 return address/alignment)                         *
    3171              ;*                        (1 local values)                                     *
TMS320C55x Assembler PC v4.4.1 Sat Sep 08 17:11:34 2018

Tools Copyright (c) 1996-2012 Texas Instruments Incorporated
tasks.asm                                                            PAGE   71

    3172              ;*   Min System Stack   : 1 word                                               *
    3173              ;*******************************************************************************
    3174 000a30       _xTaskGetTickCount:
    3175                      .dwcfi  cfa_offset, 1
    3176                      .dwcfi  save_reg_to_mem, 91, -1
    3177 000a30 4EFF          AADD #-1, SP
    3178                      .dwcfi  cfa_offset, 2
    3179              $C$DW$252       .dwtag  DW_TAG_variable, DW_AT_name("xTicks")
    3180                      .dwattr $C$DW$252, DW_AT_TI_symbol_name("_xTicks")
    3181                      .dwattr $C$DW$252, DW_AT_type(*$C$DW$T$38)
    3182                      .dwattr $C$DW$252, DW_AT_location[DW_OP_bregx 0x24 0]
    3183                      .dwpsn  file "../FreeRTOS/Source/tasks.c",line 2287,column 2,is_stmt
    3184 000a32 20     nop
    3185 000a33 46B3   bset INTM
    3186 000a35 F731          ADD #1, *(#_usCriticalNesting) ; |2287| 
         000a37 0001 
         000a39 0000 
         000a3b 00!  
    3187 000a3c 20            NOP
    3188 000a3d 20            NOP
    3189 000a3e 20            NOP
    3190                      .dwpsn  file "../FreeRTOS/Source/tasks.c",line 2289,column 3,is_stmt
    3191 000a3f A931          MOV *(#_xTickCount), AR1 ; |2289| 
         000a41 0000 
         000a43 64-  
    3192 000a44 C900          MOV AR1, *SP(#0) ; |2289| 
    3193                      .dwpsn  file "../FreeRTOS/Source/tasks.c",line 2291,column 2,is_stmt
    3194 000a46 A931          MOV *(#_usCriticalNesting), AR1 ; |2291| 
         000a48 0000 
         000a4a 00!  
    3195 000a4b 0409          BCC $C$L81,AR1 == #0 ; |2291| 
         000a4d 14   
    3196                                                      ; branchcc occurs ; |2291| 
    3197 000a4e F731          SUB #1, *(#_usCriticalNesting) ; |2291| 
         000a50 FFFF 
         000a52 0000 
         000a54 00!  
    3198 000a55 20            NOP
    3199 000a56 20            NOP
    3200 000a57 20            NOP
    3201 000a58 A931          MOV *(#_usCriticalNesting), AR1 ; |2291| 
         000a5a 0000 
         000a5c 00!  
    3202 000a5d 6199          BCC $C$L81,AR1 != #0 ; |2291| 
    3203                                                      ; branchcc occurs ; |2291| 
    3204 000a5f 20     nop
    3205 000a60 46B2   bclr INTM
    3206 000a62       $C$L81:    
    3207                      .dwpsn  file "../FreeRTOS/Source/tasks.c",line 2293,column 2,is_stmt
    3208 000a62 A400          MOV *SP(#0), T0 ; |2293| 
    3209                      .dwpsn  file "../FreeRTOS/Source/tasks.c",line 2294,column 1,is_stmt
    3210 000a64 4E01          AADD #1, SP
    3211                      .dwcfi  cfa_offset, 1
    3212              $C$DW$253       .dwtag  DW_TAG_TI_branch
    3213                      .dwattr $C$DW$253, DW_AT_low_pc(0x00)
TMS320C55x Assembler PC v4.4.1 Sat Sep 08 17:11:34 2018

Tools Copyright (c) 1996-2012 Texas Instruments Incorporated
tasks.asm                                                            PAGE   72

    3214                      .dwattr $C$DW$253, DW_AT_TI_return
    3215 000a66 4804          RET
    3216                                                      ; return occurs
    3217                      .dwattr $C$DW$251, DW_AT_TI_end_file("../FreeRTOS/Source/tasks.c")
    3218                      .dwattr $C$DW$251, DW_AT_TI_end_line(0x8f6)
    3219                      .dwattr $C$DW$251, DW_AT_TI_end_column(0x01)
    3220                      .dwendentry
    3221                      .dwendtag $C$DW$251
    3222              
    3223 000a68               .sect   ".text"
    3224                      .align 4
    3225                      .global _xTaskGetTickCountFromISR
    3226              
    3227              $C$DW$254       .dwtag  DW_TAG_subprogram, DW_AT_name("xTaskGetTickCountFromISR")
    3228                      .dwattr $C$DW$254, DW_AT_low_pc(_xTaskGetTickCountFromISR)
    3229                      .dwattr $C$DW$254, DW_AT_high_pc(0x00)
    3230                      .dwattr $C$DW$254, DW_AT_TI_symbol_name("_xTaskGetTickCountFromISR")
    3231                      .dwattr $C$DW$254, DW_AT_external
    3232                      .dwattr $C$DW$254, DW_AT_type(*$C$DW$T$38)
    3233                      .dwattr $C$DW$254, DW_AT_TI_begin_file("../FreeRTOS/Source/tasks.c")
    3234                      .dwattr $C$DW$254, DW_AT_TI_begin_line(0x8f9)
    3235                      .dwattr $C$DW$254, DW_AT_TI_begin_column(0x0c)
    3236                      .dwattr $C$DW$254, DW_AT_TI_max_frame_size(0x04)
    3237                      .dwpsn  file "../FreeRTOS/Source/tasks.c",line 2298,column 1,is_stmt,address _xTaskGetTickCountFromIS
    3238              
    3239                      .dwfde $C$DW$CIE, _xTaskGetTickCountFromISR
    3240              ;*******************************************************************************
    3241              ;* FUNCTION NAME: xTaskGetTickCountFromISR                                     *
    3242              ;*                                                                             *
    3243              ;*   Function Uses Regs : T0,AR1,SP,M40,SATA,SATD,RDM,FRCT,SMUL                *
    3244              ;*   Stack Frame        : Compact (No Frame Pointer, w/ debug)                 *
    3245              ;*   Total Frame Size   : 4 words                                              *
    3246              ;*                        (2 return address/alignment)                         *
    3247              ;*                        (2 local values)                                     *
    3248              ;*   Min System Stack   : 1 word                                               *
    3249              ;*******************************************************************************
    3250 000a68       _xTaskGetTickCountFromISR:
    3251                      .dwcfi  cfa_offset, 1
    3252                      .dwcfi  save_reg_to_mem, 91, -1
    3253 000a68 4EFD          AADD #-3, SP
    3254                      .dwcfi  cfa_offset, 4
    3255              $C$DW$255       .dwtag  DW_TAG_variable, DW_AT_name("xReturn")
    3256                      .dwattr $C$DW$255, DW_AT_TI_symbol_name("_xReturn")
    3257                      .dwattr $C$DW$255, DW_AT_type(*$C$DW$T$38)
    3258                      .dwattr $C$DW$255, DW_AT_location[DW_OP_bregx 0x24 0]
    3259              $C$DW$256       .dwtag  DW_TAG_variable, DW_AT_name("uxSavedInterruptStatus")
    3260                      .dwattr $C$DW$256, DW_AT_TI_symbol_name("_uxSavedInterruptStatus")
    3261                      .dwattr $C$DW$256, DW_AT_type(*$C$DW$T$25)
    3262                      .dwattr $C$DW$256, DW_AT_location[DW_OP_bregx 0x24 1]
    3263                      .dwpsn  file "../FreeRTOS/Source/tasks.c",line 2318,column 2,is_stmt
    3264 000a6a E602          MOV #0, *SP(#1) ; |2318| 
         000a6c 00   
    3265                      .dwpsn  file "../FreeRTOS/Source/tasks.c",line 2320,column 3,is_stmt
    3266 000a6d A931          MOV *(#_xTickCount), AR1 ; |2320| 
         000a6f 0000 
TMS320C55x Assembler PC v4.4.1 Sat Sep 08 17:11:34 2018

Tools Copyright (c) 1996-2012 Texas Instruments Incorporated
tasks.asm                                                            PAGE   73

         000a71 64-  
    3267 000a72 C900          MOV AR1, *SP(#0) ; |2320| 
    3268                      .dwpsn  file "../FreeRTOS/Source/tasks.c",line 2322,column 2,is_stmt
    3269                      .dwpsn  file "../FreeRTOS/Source/tasks.c",line 2324,column 2,is_stmt
    3270 000a74 2294          MOV AR1, T0
    3271                      .dwpsn  file "../FreeRTOS/Source/tasks.c",line 2325,column 1,is_stmt
    3272 000a76 4E03          AADD #3, SP
    3273                      .dwcfi  cfa_offset, 1
    3274              $C$DW$257       .dwtag  DW_TAG_TI_branch
    3275                      .dwattr $C$DW$257, DW_AT_low_pc(0x00)
    3276                      .dwattr $C$DW$257, DW_AT_TI_return
    3277 000a78 4804          RET
    3278                                                      ; return occurs
    3279                      .dwattr $C$DW$254, DW_AT_TI_end_file("../FreeRTOS/Source/tasks.c")
    3280                      .dwattr $C$DW$254, DW_AT_TI_end_line(0x915)
    3281                      .dwattr $C$DW$254, DW_AT_TI_end_column(0x01)
    3282                      .dwendentry
    3283                      .dwendtag $C$DW$254
    3284              
    3285 000a7a               .sect   ".text"
    3286                      .align 4
    3287                      .global _uxTaskGetNumberOfTasks
    3288              
    3289              $C$DW$258       .dwtag  DW_TAG_subprogram, DW_AT_name("uxTaskGetNumberOfTasks")
    3290                      .dwattr $C$DW$258, DW_AT_low_pc(_uxTaskGetNumberOfTasks)
    3291                      .dwattr $C$DW$258, DW_AT_high_pc(0x00)
    3292                      .dwattr $C$DW$258, DW_AT_TI_symbol_name("_uxTaskGetNumberOfTasks")
    3293                      .dwattr $C$DW$258, DW_AT_external
    3294                      .dwattr $C$DW$258, DW_AT_type(*$C$DW$T$25)
    3295                      .dwattr $C$DW$258, DW_AT_TI_begin_file("../FreeRTOS/Source/tasks.c")
    3296                      .dwattr $C$DW$258, DW_AT_TI_begin_line(0x918)
    3297                      .dwattr $C$DW$258, DW_AT_TI_begin_column(0x0d)
    3298                      .dwattr $C$DW$258, DW_AT_TI_max_frame_size(0x01)
    3299                      .dwpsn  file "../FreeRTOS/Source/tasks.c",line 2329,column 1,is_stmt,address _uxTaskGetNumberOfTasks
    3300              
    3301                      .dwfde $C$DW$CIE, _uxTaskGetNumberOfTasks
    3302              ;*******************************************************************************
    3303              ;* FUNCTION NAME: uxTaskGetNumberOfTasks                                       *
    3304              ;*                                                                             *
    3305              ;*   Function Uses Regs : T0,SP,M40,SATA,SATD,RDM,FRCT,SMUL                    *
    3306              ;*   Stack Frame        : Compact (No Frame Pointer, w/ debug)                 *
    3307              ;*   Total Frame Size   : 1 word                                               *
    3308              ;*                        (1 return address/alignment)                         *
    3309              ;*   Min System Stack   : 1 word                                               *
    3310              ;*******************************************************************************
    3311 000a7c       _uxTaskGetNumberOfTasks:
    3312                      .dwcfi  cfa_offset, 1
    3313                      .dwcfi  save_reg_to_mem, 91, -1
    3314                      .dwpsn  file "../FreeRTOS/Source/tasks.c",line 2332,column 2,is_stmt
    3315 000a7c A431          MOV *(#_uxCurrentNumberOfTasks), T0 ; |2332| 
         000a7e 0000 
         000a80 59-  
    3316                      .dwpsn  file "../FreeRTOS/Source/tasks.c",line 2333,column 1,is_stmt
    3317              $C$DW$259       .dwtag  DW_TAG_TI_branch
    3318                      .dwattr $C$DW$259, DW_AT_low_pc(0x00)
TMS320C55x Assembler PC v4.4.1 Sat Sep 08 17:11:34 2018

Tools Copyright (c) 1996-2012 Texas Instruments Incorporated
tasks.asm                                                            PAGE   74

    3319                      .dwattr $C$DW$259, DW_AT_TI_return
    3320 000a81 4804          RET
    3321                                                      ; return occurs
    3322                      .dwattr $C$DW$258, DW_AT_TI_end_file("../FreeRTOS/Source/tasks.c")
    3323                      .dwattr $C$DW$258, DW_AT_TI_end_line(0x91d)
    3324                      .dwattr $C$DW$258, DW_AT_TI_end_column(0x01)
    3325                      .dwendentry
    3326                      .dwendtag $C$DW$258
    3327              
    3328 000a83               .sect   ".text"
    3329                      .align 4
    3330                      .global _pcTaskGetName
    3331              
    3332              $C$DW$260       .dwtag  DW_TAG_subprogram, DW_AT_name("pcTaskGetName")
    3333                      .dwattr $C$DW$260, DW_AT_low_pc(_pcTaskGetName)
    3334                      .dwattr $C$DW$260, DW_AT_high_pc(0x00)
    3335                      .dwattr $C$DW$260, DW_AT_TI_symbol_name("_pcTaskGetName")
    3336                      .dwattr $C$DW$260, DW_AT_external
    3337                      .dwattr $C$DW$260, DW_AT_type(*$C$DW$T$71)
    3338                      .dwattr $C$DW$260, DW_AT_TI_begin_file("../FreeRTOS/Source/tasks.c")
    3339                      .dwattr $C$DW$260, DW_AT_TI_begin_line(0x920)
    3340                      .dwattr $C$DW$260, DW_AT_TI_begin_column(0x07)
    3341                      .dwattr $C$DW$260, DW_AT_TI_max_frame_size(0x06)
    3342                      .dwpsn  file "../FreeRTOS/Source/tasks.c",line 2337,column 1,is_stmt,address _pcTaskGetName
    3343              
    3344                      .dwfde $C$DW$CIE, _pcTaskGetName
    3345              $C$DW$261       .dwtag  DW_TAG_formal_parameter, DW_AT_name("xTaskToQuery")
    3346                      .dwattr $C$DW$261, DW_AT_TI_symbol_name("_xTaskToQuery")
    3347                      .dwattr $C$DW$261, DW_AT_type(*$C$DW$T$70)
    3348                      .dwattr $C$DW$261, DW_AT_location[DW_OP_reg17]
    3349              ;*******************************************************************************
    3350              ;* FUNCTION NAME: pcTaskGetName                                                *
    3351              ;*                                                                             *
    3352              ;*   Function Uses Regs : AC0,AC0,AR0,XAR0,AR3,XAR3,SP,M40,SATA,SATD,RDM,FRCT, *
    3353              ;*                        SMUL                                                 *
    3354              ;*   Stack Frame        : Compact (No Frame Pointer, w/ debug)                 *
    3355              ;*   Total Frame Size   : 6 words                                              *
    3356              ;*                        (2 return address/alignment)                         *
    3357              ;*                        (4 local values)                                     *
    3358              ;*   Min System Stack   : 1 word                                               *
    3359              ;*******************************************************************************
    3360 000a84       _pcTaskGetName:
    3361                      .dwcfi  cfa_offset, 1
    3362                      .dwcfi  save_reg_to_mem, 91, -1
    3363 000a84 4EFB          AADD #-5, SP
    3364                      .dwcfi  cfa_offset, 6
    3365              $C$DW$262       .dwtag  DW_TAG_variable, DW_AT_name("xTaskToQuery")
    3366                      .dwattr $C$DW$262, DW_AT_TI_symbol_name("_xTaskToQuery")
    3367                      .dwattr $C$DW$262, DW_AT_type(*$C$DW$T$70)
    3368                      .dwattr $C$DW$262, DW_AT_location[DW_OP_bregx 0x24 0]
    3369              $C$DW$263       .dwtag  DW_TAG_variable, DW_AT_name("pxTCB")
    3370                      .dwattr $C$DW$263, DW_AT_TI_symbol_name("_pxTCB")
    3371                      .dwattr $C$DW$263, DW_AT_type(*$C$DW$T$82)
    3372                      .dwattr $C$DW$263, DW_AT_location[DW_OP_bregx 0x24 2]
    3373 000a86 EB00          MOV XAR0, dbl(*SP(#0))
TMS320C55x Assembler PC v4.4.1 Sat Sep 08 17:11:34 2018

Tools Copyright (c) 1996-2012 Texas Instruments Incorporated
tasks.asm                                                            PAGE   75

         000a88 85   
    3374                      .dwpsn  file "../FreeRTOS/Source/tasks.c",line 2342,column 2,is_stmt
    3375 000a89 ED00          MOV dbl(*SP(#0)), XAR3
         000a8b BF   
    3376 000a8c 90B0          MOV XAR3, AC0
    3377 000a8e 6310          BCC $C$L82,AC0 != #0 ; |2342| 
    3378                                                      ; branchcc occurs ; |2342| 
    3379 000a90 ED31          MOV dbl(*(#_pxCurrentTCB)), XAR3
         000a92 BF00 
         000a94 0002-
    3380 000a96       $C$L82:    
    3381 000a96 EB04          MOV XAR3, dbl(*SP(#2))
         000a98 B5   
    3382                      .dwpsn  file "../FreeRTOS/Source/tasks.c",line 2344,column 2,is_stmt
    3383 000a99 ED04          MOV dbl(*SP(#2)), XAR0
         000a9b 8F   
    3384 000a9c 141E          AADD #30, AR0 ; |2344| 
         000a9e 84   
    3385                      .dwpsn  file "../FreeRTOS/Source/tasks.c",line 2345,column 1,is_stmt
    3386 000a9f 4E05          AADD #5, SP
    3387                      .dwcfi  cfa_offset, 1
    3388              $C$DW$264       .dwtag  DW_TAG_TI_branch
    3389                      .dwattr $C$DW$264, DW_AT_low_pc(0x00)
    3390                      .dwattr $C$DW$264, DW_AT_TI_return
    3391 000aa1 4804          RET
    3392                                                      ; return occurs
    3393                      .dwattr $C$DW$260, DW_AT_TI_end_file("../FreeRTOS/Source/tasks.c")
    3394                      .dwattr $C$DW$260, DW_AT_TI_end_line(0x929)
    3395                      .dwattr $C$DW$260, DW_AT_TI_end_column(0x01)
    3396                      .dwendentry
    3397                      .dwendtag $C$DW$260
    3398              
    3399 000aa3               .sect   ".text"
    3400                      .align 4
    3401                      .global _xTaskIncrementTick
    3402              
    3403              $C$DW$265       .dwtag  DW_TAG_subprogram, DW_AT_name("xTaskIncrementTick")
    3404                      .dwattr $C$DW$265, DW_AT_low_pc(_xTaskIncrementTick)
    3405                      .dwattr $C$DW$265, DW_AT_high_pc(0x00)
    3406                      .dwattr $C$DW$265, DW_AT_TI_symbol_name("_xTaskIncrementTick")
    3407                      .dwattr $C$DW$265, DW_AT_external
    3408                      .dwattr $C$DW$265, DW_AT_type(*$C$DW$T$44)
    3409                      .dwattr $C$DW$265, DW_AT_TI_begin_file("../FreeRTOS/Source/tasks.c")
    3410                      .dwattr $C$DW$265, DW_AT_TI_begin_line(0xa67)
    3411                      .dwattr $C$DW$265, DW_AT_TI_begin_column(0x0c)
    3412                      .dwattr $C$DW$265, DW_AT_TI_max_frame_size(0x0a)
    3413                      .dwpsn  file "../FreeRTOS/Source/tasks.c",line 2664,column 1,is_stmt,address _xTaskIncrementTick
    3414              
    3415                      .dwfde $C$DW$CIE, _xTaskIncrementTick
    3416              ;*******************************************************************************
    3417              ;* FUNCTION NAME: xTaskIncrementTick                                           *
    3418              ;*                                                                             *
    3419              ;*   Function Uses Regs : AC0,AC0,T0,AR0,XAR0,AR1,XAR1,AR2,AR3,XAR3,SP,CARRY,  *
    3420              ;*                        TC1,M40,SATA,SATD,RDM,FRCT,SMUL                      *
    3421              ;*   Stack Frame        : Compact (No Frame Pointer, w/ debug)                 *
TMS320C55x Assembler PC v4.4.1 Sat Sep 08 17:11:34 2018

Tools Copyright (c) 1996-2012 Texas Instruments Incorporated
tasks.asm                                                            PAGE   76

    3422              ;*   Total Frame Size   : 10 words                                             *
    3423              ;*                        (2 return address/alignment)                         *
    3424              ;*                        (8 local values)                                     *
    3425              ;*   Min System Stack   : 1 word                                               *
    3426              ;*******************************************************************************
    3427 000aa4       _xTaskIncrementTick:
    3428                      .dwcfi  cfa_offset, 1
    3429                      .dwcfi  save_reg_to_mem, 91, -1
    3430 000aa4 4EF7          AADD #-9, SP
    3431                      .dwcfi  cfa_offset, 10
    3432              $C$DW$266       .dwtag  DW_TAG_variable, DW_AT_name("pxTCB")
    3433                      .dwattr $C$DW$266, DW_AT_TI_symbol_name("_pxTCB")
    3434                      .dwattr $C$DW$266, DW_AT_type(*$C$DW$T$82)
    3435                      .dwattr $C$DW$266, DW_AT_location[DW_OP_bregx 0x24 0]
    3436              $C$DW$267       .dwtag  DW_TAG_variable, DW_AT_name("xItemValue")
    3437                      .dwattr $C$DW$267, DW_AT_TI_symbol_name("_xItemValue")
    3438                      .dwattr $C$DW$267, DW_AT_type(*$C$DW$T$38)
    3439                      .dwattr $C$DW$267, DW_AT_location[DW_OP_bregx 0x24 2]
    3440              $C$DW$268       .dwtag  DW_TAG_variable, DW_AT_name("xSwitchRequired")
    3441                      .dwattr $C$DW$268, DW_AT_TI_symbol_name("_xSwitchRequired")
    3442                      .dwattr $C$DW$268, DW_AT_type(*$C$DW$T$44)
    3443                      .dwattr $C$DW$268, DW_AT_location[DW_OP_bregx 0x24 3]
    3444                      .dwpsn  file "../FreeRTOS/Source/tasks.c",line 2667,column 12,is_stmt
    3445 000aa6 E606          MOV #0, *SP(#3) ; |2667| 
         000aa8 00   
    3446                      .dwpsn  file "../FreeRTOS/Source/tasks.c",line 2673,column 2,is_stmt
    3447 000aa9 A931          MOV *(#_uxSchedulerSuspended), AR1 ; |2673| 
         000aab 0000 
         000aad 6E-  
    3448 000aae 6D19          BCC $C$L92,AR1 != #0 ; |2673| 
         000ab0 011A 
    3449                                                      ; branchcc occurs ; |2673| 
    3450              
    3451              $C$DW$269       .dwtag  DW_TAG_lexical_block, DW_AT_low_pc(0x00), DW_AT_high_pc(0x00)
    3452              $C$DW$270       .dwtag  DW_TAG_variable, DW_AT_name("xConstTickCount")
    3453                      .dwattr $C$DW$270, DW_AT_TI_symbol_name("_xConstTickCount")
    3454                      .dwattr $C$DW$270, DW_AT_type(*$C$DW$T$94)
    3455                      .dwattr $C$DW$270, DW_AT_location[DW_OP_bregx 0x24 4]
    3456                      .dwpsn  file "../FreeRTOS/Source/tasks.c",line 2677,column 20,is_stmt
    3457 000ab2 A931          MOV *(#_xTickCount), AR1 ; |2677| 
         000ab4 0000 
         000ab6 64-  
    3458 000ab7 4019          ADD #1, AR1 ; |2677| 
    3459 000ab9 C908          MOV AR1, *SP(#4) ; |2677| 
    3460                      .dwpsn  file "../FreeRTOS/Source/tasks.c",line 2681,column 3,is_stmt
    3461 000abb C931          MOV AR1, *(#_xTickCount) ; |2681| 
         000abd 0000 
         000abf 64-  
    3462                      .dwpsn  file "../FreeRTOS/Source/tasks.c",line 2683,column 3,is_stmt
    3463 000ac0 0419          BCC $C$L83,AR1 != #0 ; |2683| 
         000ac2 28   
    3464                                                      ; branchcc occurs ; |2683| 
    3465              
    3466              $C$DW$271       .dwtag  DW_TAG_lexical_block, DW_AT_low_pc(0x00), DW_AT_high_pc(0x00)
    3467              $C$DW$272       .dwtag  DW_TAG_variable, DW_AT_name("pxTemp")
TMS320C55x Assembler PC v4.4.1 Sat Sep 08 17:11:34 2018

Tools Copyright (c) 1996-2012 Texas Instruments Incorporated
tasks.asm                                                            PAGE   77

    3468                      .dwattr $C$DW$272, DW_AT_TI_symbol_name("_pxTemp")
    3469                      .dwattr $C$DW$272, DW_AT_type(*$C$DW$T$60)
    3470                      .dwattr $C$DW$272, DW_AT_location[DW_OP_bregx 0x24 6]
    3471                      .dwpsn  file "../FreeRTOS/Source/tasks.c",line 2685,column 4,is_stmt
    3472 000ac3 ED31          MOV dbl(*(#_pxDelayedTaskList)), XAR3
         000ac5 BF00 
         000ac7 0040-
    3473 000ac9 EB0C          MOV XAR3, dbl(*SP(#6))
         000acb B5   
    3474 000acc ED31          MOV dbl(*(#_pxOverflowDelayedTaskList)), XAR3
         000ace BF00 
         000ad0 0042-
    3475 000ad2 EB31          MOV XAR3, dbl(*(#_pxDelayedTaskList))
         000ad4 B500 
         000ad6 0040-
    3476 000ad8 ED0C          MOV dbl(*SP(#6)), XAR3
         000ada BF   
    3477 000adb EB31          MOV XAR3, dbl(*(#_pxOverflowDelayedTaskList))
         000add B500 
         000adf 0042-
    3478 000ae1 F731          ADD #1, *(#_xNumOfOverflows) ; |2685| 
         000ae3 0001 
         000ae5 0000 
         000ae7 69-  
    3479              $C$DW$273       .dwtag  DW_TAG_TI_branch
    3480                      .dwattr $C$DW$273, DW_AT_low_pc(0x00)
    3481                      .dwattr $C$DW$273, DW_AT_name("_prvResetNextTaskUnblockTime")
    3482                      .dwattr $C$DW$273, DW_AT_TI_call
    3483 000ae8 0806          CALL #_prvResetNextTaskUnblockTime ; |2685| 
         000aea 0D   
    3484                                                      ; call occurs [#_prvResetNextTaskUnblockTime] ; |2685| 
    3485                      .dwendtag $C$DW$271
    3486              
    3487                      .dwpsn  file "../FreeRTOS/Source/tasks.c",line 2686,column 3,is_stmt
    3488 000aeb       $C$L83:    
    3489                      .dwpsn  file "../FreeRTOS/Source/tasks.c",line 2696,column 3,is_stmt
    3490 000aeb A931          MOV *(#_xNextTaskUnblockTime), AR1 ; |2696| 
         000aed 0000 
         000aef 6B-  
    3491 000af0 AA08          MOV *SP(#4), AR2 ; |2696| 
    3492 000af2 12A4          CMPU AR2 < AR1, TC1 ; |2696| 
         000af4 94   
    3493 000af5 6D64          BCC $C$L91,TC1 ; |2696| 
         000af7 00B1 
    3494                                                      ; branchcc occurs ; |2696| 
    3495 000af9       $C$L84:    
    3496 000af9       $C$DW$L$_xTaskIncrementTick$5$B:
    3497                      .dwpsn  file "../FreeRTOS/Source/tasks.c",line 2700,column 5,is_stmt
    3498 000af9 ED31          MOV dbl(*(#_pxDelayedTaskList)), XAR3
         000afb BF00 
         000afd 0040-
    3499 000aff A961          MOV *AR3, AR1 ; |2700| 
    3500 000b01 6219          BCC $C$L85,AR1 != #0 ; |2700| 
    3501                                                      ; branchcc occurs ; |2700| 
    3502 000b03       $C$DW$L$_xTaskIncrementTick$5$E:
TMS320C55x Assembler PC v4.4.1 Sat Sep 08 17:11:34 2018

Tools Copyright (c) 1996-2012 Texas Instruments Incorporated
tasks.asm                                                            PAGE   78

    3503 000b03       $C$DW$L$_xTaskIncrementTick$6$B:
    3504 000b03 3C19          MOV #1, AR1
    3505 000b05 4A02          B $C$L86  ; |2700| 
    3506                                                      ; branch occurs ; |2700| 
    3507 000b07       $C$DW$L$_xTaskIncrementTick$6$E:
    3508 000b07       $C$L85:    
    3509 000b07       $C$DW$L$_xTaskIncrementTick$7$B:
    3510 000b07 3C09          MOV #0, AR1
    3511 000b09       $C$DW$L$_xTaskIncrementTick$7$E:
    3512 000b09       $C$L86:    
    3513 000b09       $C$DW$L$_xTaskIncrementTick$8$B:
    3514 000b09 6509          BCC $C$L87,AR1 == #0 ; |2700| 
    3515                                                      ; branchcc occurs ; |2700| 
    3516 000b0b       $C$DW$L$_xTaskIncrementTick$8$E:
    3517                      .dwpsn  file "../FreeRTOS/Source/tasks.c",line 2707,column 6,is_stmt
    3518 000b0b FB31          MOV #65535, *(#_xNextTaskUnblockTime) ; |2707| 
         000b0d FFFF 
         000b0f 0000 
         000b11 6B-  
    3519                      .dwpsn  file "../FreeRTOS/Source/tasks.c",line 2708,column 6,is_stmt
    3520 000b12 0600          B $C$L91  ; |2708| 
         000b14 95   
    3521                                                      ; branch occurs ; |2708| 
    3522 000b15       $C$L87:    
    3523 000b15       $C$DW$L$_xTaskIncrementTick$11$B:
    3524                      .dwpsn  file "../FreeRTOS/Source/tasks.c",line 2716,column 6,is_stmt
    3525 000b15 ED31          MOV dbl(*(#_pxDelayedTaskList)), XAR3
         000b17 BF00 
         000b19 0040-
    3526 000b1b ED7D          MOV dbl(*AR3(short(#6))), XAR3
         000b1d BF   
    3527 000b1e ED7D          MOV dbl(*AR3(short(#6))), XAR3
         000b20 BF   
    3528 000b21 EB00          MOV XAR3, dbl(*SP(#0))
         000b23 B5   
    3529                      .dwpsn  file "../FreeRTOS/Source/tasks.c",line 2717,column 6,is_stmt
    3530 000b24 A979          MOV *AR3(short(#4)), AR1 ; |2717| 
    3531 000b26 C904          MOV AR1, *SP(#2) ; |2717| 
    3532                      .dwpsn  file "../FreeRTOS/Source/tasks.c",line 2719,column 6,is_stmt
    3533 000b28 AA08          MOV *SP(#4), AR2 ; |2719| 
    3534 000b2a 12A8          CMPU AR2 >= AR1, TC1 ; |2719| 
         000b2c 94   
    3535 000b2d 6464          BCC $C$L88,TC1 ; |2719| 
    3536                                                      ; branchcc occurs ; |2719| 
    3537 000b2f       $C$DW$L$_xTaskIncrementTick$11$E:
    3538                      .dwpsn  file "../FreeRTOS/Source/tasks.c",line 2726,column 7,is_stmt
    3539 000b2f C931          MOV AR1, *(#_xNextTaskUnblockTime) ; |2726| 
         000b31 0000 
         000b33 6B-  
    3540                      .dwpsn  file "../FreeRTOS/Source/tasks.c",line 2727,column 7,is_stmt
    3541 000b34 0600          B $C$L91  ; |2727| 
         000b36 73   
    3542                                                      ; branch occurs ; |2727| 
    3543 000b37       $C$L88:    
    3544 000b37       $C$DW$L$_xTaskIncrementTick$14$B:
TMS320C55x Assembler PC v4.4.1 Sat Sep 08 17:11:34 2018

Tools Copyright (c) 1996-2012 Texas Instruments Incorporated
tasks.asm                                                            PAGE   79

    3545                      .dwpsn  file "../FreeRTOS/Source/tasks.c",line 2735,column 6,is_stmt
    3546 000b37 ED00          MOV dbl(*SP(#0)), XAR0
         000b39 8F   
    3547 000b3a 1404          AADD #4, AR0 ; |2735| 
         000b3c 84   
    3548              $C$DW$274       .dwtag  DW_TAG_TI_branch
    3549                      .dwattr $C$DW$274, DW_AT_low_pc(0x00)
    3550                      .dwattr $C$DW$274, DW_AT_name("_uxListRemove")
    3551                      .dwattr $C$DW$274, DW_AT_TI_call
    3552 000b3d 6C00          CALL #_uxListRemove ; |2735| 
         000b3f 0000!
    3553                                                      ; call occurs [#_uxListRemove] ; |2735| 
    3554                      .dwpsn  file "../FreeRTOS/Source/tasks.c",line 2739,column 6,is_stmt
    3555 000b41 ED00          MOV dbl(*SP(#0)), XAR3
         000b43 BF   
    3556 000b44 ED6D          MOV dbl(*AR3(#22)), XAR3
         000b46 BF00 
         000b48 16   
    3557 000b49 90B0          MOV XAR3, AC0
    3558 000b4b 6500          BCC $C$L89,AC0 == #0 ; |2739| 
    3559                                                      ; branchcc occurs ; |2739| 
    3560 000b4d       $C$DW$L$_xTaskIncrementTick$14$E:
    3561 000b4d       $C$DW$L$_xTaskIncrementTick$15$B:
    3562                      .dwpsn  file "../FreeRTOS/Source/tasks.c",line 2741,column 7,is_stmt
    3563 000b4d ED00          MOV dbl(*SP(#0)), XAR0
         000b4f 8F   
    3564 000b50 140E          AADD #14, AR0 ; |2741| 
         000b52 84   
    3565              $C$DW$275       .dwtag  DW_TAG_TI_branch
    3566                      .dwattr $C$DW$275, DW_AT_low_pc(0x00)
    3567                      .dwattr $C$DW$275, DW_AT_name("_uxListRemove")
    3568                      .dwattr $C$DW$275, DW_AT_TI_call
    3569 000b53 6C00          CALL #_uxListRemove ; |2741| 
         000b55 0000!
    3570                                                      ; call occurs [#_uxListRemove] ; |2741| 
    3571                      .dwpsn  file "../FreeRTOS/Source/tasks.c",line 2742,column 6,is_stmt
    3572 000b57       $C$DW$L$_xTaskIncrementTick$15$E:
    3573 000b57       $C$L89:    
    3574 000b57       $C$DW$L$_xTaskIncrementTick$16$B:
    3575                      .dwpsn  file "../FreeRTOS/Source/tasks.c",line 2750,column 6,is_stmt
    3576 000b57 ED00          MOV dbl(*SP(#0)), XAR3
         000b59 BF   
    3577 000b5a A931          MOV *(#_uxTopReadyPriority), AR1 ; |2750| 
         000b5c 0000 
         000b5e 65-  
    3578 000b5f AA6D          MOV *AR3(#24), AR2 ; |2750| 
         000b61 0018 
    3579 000b63 1298          CMPU AR2 <= AR1, TC1 ; |2750| 
         000b65 A4   
    3580 000b66 64E4          BCC $C$L90,TC1 ; |2750| 
    3581                                                      ; branchcc occurs ; |2750| 
    3582 000b68       $C$DW$L$_xTaskIncrementTick$16$E:
    3583 000b68       $C$DW$L$_xTaskIncrementTick$17$B:
    3584 000b68 A96D          MOV *AR3(#24), AR1 ; |2750| 
         000b6a 0018 
TMS320C55x Assembler PC v4.4.1 Sat Sep 08 17:11:34 2018

Tools Copyright (c) 1996-2012 Texas Instruments Incorporated
tasks.asm                                                            PAGE   80

    3585 000b6c C931          MOV AR1, *(#_uxTopReadyPriority) ; |2750| 
         000b6e 0000 
         000b70 65-  
    3586 000b71       $C$DW$L$_xTaskIncrementTick$17$E:
    3587 000b71       $C$L90:    
    3588 000b71       $C$DW$L$_xTaskIncrementTick$18$B:
    3589 000b71 F86D          MPYMK *AR3(#24), #10, AC0 ; |2750| 
         000b73 0A00 
         000b75 0018 
    3590 000b77 2209          MOV AC0, AR1 ; |2750| 
    3591 000b79 EC31          AMOV #_pxReadyTasksLists, XAR0 ; |2750| 
         000b7b 8E00 
         000b7d 0004-
    3592 000b7f 1490          AADD AR1, AR0 ; |2750| 
         000b81 80   
    3593 000b82 ED00          MOV dbl(*SP(#0)), XAR1
         000b84 9F   
    3594 000b85 1404          AADD #4, AR1 ; |2750| 
         000b87 94   
    3595              $C$DW$276       .dwtag  DW_TAG_TI_branch
    3596                      .dwattr $C$DW$276, DW_AT_low_pc(0x00)
    3597                      .dwattr $C$DW$276, DW_AT_name("_vListInsertEnd")
    3598                      .dwattr $C$DW$276, DW_AT_TI_call
    3599 000b88 6C00          CALL #_vListInsertEnd ; |2750| 
         000b8a 0000!
    3600                                                      ; call occurs [#_vListInsertEnd] ; |2750| 
    3601                      .dwpsn  file "../FreeRTOS/Source/tasks.c",line 2760,column 7,is_stmt
    3602 000b8c ED31          MOV dbl(*(#_pxCurrentTCB)), XAR3
         000b8e BF00 
         000b90 0002-
    3603 000b92 A96D          MOV *AR3(#24), AR1 ; |2760| 
         000b94 0018 
    3604 000b96 ED00          MOV dbl(*SP(#0)), XAR3
         000b98 BF   
    3605 000b99 AA6D          MOV *AR3(#24), AR2 ; |2760| 
         000b9b 0018 
    3606 000b9d 12A4          CMPU AR2 < AR1, TC1 ; |2760| 
         000b9f 94   
    3607 000ba0 6D64          BCC $C$L84,TC1 ; |2760| 
         000ba2 FF55 
    3608                                                      ; branchcc occurs ; |2760| 
    3609 000ba4       $C$DW$L$_xTaskIncrementTick$18$E:
    3610 000ba4       $C$DW$L$_xTaskIncrementTick$19$B:
    3611                      .dwpsn  file "../FreeRTOS/Source/tasks.c",line 2762,column 8,is_stmt
    3612 000ba4 E606          MOV #1, *SP(#3) ; |2762| 
         000ba6 01   
    3613                      .dwpsn  file "../FreeRTOS/Source/tasks.c",line 2763,column 7,is_stmt
    3614 000ba7 06FF          B $C$L84  ; |2763| 
         000ba9 4F   
    3615                                                      ; branch occurs ; |2763| 
    3616 000baa       $C$DW$L$_xTaskIncrementTick$19$E:
    3617 000baa       $C$L91:    
    3618                      .dwpsn  file "../FreeRTOS/Source/tasks.c",line 2779,column 4,is_stmt
    3619 000baa ED31          MOV dbl(*(#_pxCurrentTCB)), XAR3
         000bac BF00 
TMS320C55x Assembler PC v4.4.1 Sat Sep 08 17:11:34 2018

Tools Copyright (c) 1996-2012 Texas Instruments Incorporated
tasks.asm                                                            PAGE   81

         000bae 0002-
    3620 000bb0 F86D          MPYMK *AR3(#24), #10, AC0 ; |2779| 
         000bb2 0A00 
         000bb4 0018 
    3621 000bb6 2204          MOV AC0, T0 ; |2779| 
    3622 000bb8 EC31          AMOV #_pxReadyTasksLists, XAR3 ; |2779| 
         000bba BE00 
         000bbc 0004-
    3623              
    3624 000bbe A96B          MOV *AR3(T0), AR1 ; |2779| 
    3625 000bc0 3D1A  ||      MOV #1, AR2
    3626              
    3627 000bc2 12A8          CMPU AR1 <= AR2, TC1 ; |2779| 
         000bc4 94   
    3628 000bc5 6664          BCC $C$L93,TC1 ; |2779| 
    3629                                                      ; branchcc occurs ; |2779| 
    3630                      .dwpsn  file "../FreeRTOS/Source/tasks.c",line 2781,column 5,is_stmt
    3631 000bc7 E606          MOV #1, *SP(#3) ; |2781| 
         000bc9 01   
    3632                      .dwpsn  file "../FreeRTOS/Source/tasks.c",line 2782,column 4,is_stmt
    3633 000bca 4A07          B $C$L93  ; |2782| 
    3634                                                      ; branch occurs ; |2782| 
    3635                      .dwendtag $C$DW$269
    3636              
    3637 000bcc       $C$L92:    
    3638                      .dwpsn  file "../FreeRTOS/Source/tasks.c",line 2807,column 3,is_stmt
    3639 000bcc F731          ADD #1, *(#_uxPendedTicks) ; |2807| 
         000bce 0001 
         000bd0 0000 
         000bd2 67-  
    3640 000bd3       $C$L93:    
    3641                      .dwpsn  file "../FreeRTOS/Source/tasks.c",line 2820,column 3,is_stmt
    3642 000bd3 A931          MOV *(#_xYieldPending), AR1 ; |2820| 
         000bd5 0000 
         000bd7 68-  
    3643 000bd8 6189          BCC $C$L94,AR1 == #0 ; |2820| 
    3644                                                      ; branchcc occurs ; |2820| 
    3645                      .dwpsn  file "../FreeRTOS/Source/tasks.c",line 2822,column 4,is_stmt
    3646 000bda E606          MOV #1, *SP(#3) ; |2822| 
         000bdc 01   
    3647                      .dwpsn  file "../FreeRTOS/Source/tasks.c",line 2823,column 3,is_stmt
    3648 000bdd       $C$L94:    
    3649                      .dwpsn  file "../FreeRTOS/Source/tasks.c",line 2831,column 2,is_stmt
    3650 000bdd A406          MOV *SP(#3), T0 ; |2831| 
    3651                      .dwpsn  file "../FreeRTOS/Source/tasks.c",line 2832,column 1,is_stmt
    3652 000bdf 4E09          AADD #9, SP
    3653                      .dwcfi  cfa_offset, 1
    3654              $C$DW$277       .dwtag  DW_TAG_TI_branch
    3655                      .dwattr $C$DW$277, DW_AT_low_pc(0x00)
    3656                      .dwattr $C$DW$277, DW_AT_TI_return
    3657 000be1 4804          RET
    3658                                                      ; return occurs
    3659              
    3660              $C$DW$278       .dwtag  DW_TAG_TI_loop
    3661                      .dwattr $C$DW$278, DW_AT_name("F:\eZdsp_C55x_FreeRTOS_Port\eZDSP\eZDSP_5535_Files\ccsws2\test\Debug\t
TMS320C55x Assembler PC v4.4.1 Sat Sep 08 17:11:34 2018

Tools Copyright (c) 1996-2012 Texas Instruments Incorporated
tasks.asm                                                            PAGE   82

    3662                      .dwattr $C$DW$278, DW_AT_TI_begin_file("../FreeRTOS/Source/tasks.c")
    3663                      .dwattr $C$DW$278, DW_AT_TI_begin_line(0xa8a)
    3664                      .dwattr $C$DW$278, DW_AT_TI_end_line(0xad3)
    3665              $C$DW$279       .dwtag  DW_TAG_TI_loop_range
    3666                      .dwattr $C$DW$279, DW_AT_low_pc($C$DW$L$_xTaskIncrementTick$5$B)
    3667                      .dwattr $C$DW$279, DW_AT_high_pc($C$DW$L$_xTaskIncrementTick$5$E)
    3668              $C$DW$280       .dwtag  DW_TAG_TI_loop_range
    3669                      .dwattr $C$DW$280, DW_AT_low_pc($C$DW$L$_xTaskIncrementTick$6$B)
    3670                      .dwattr $C$DW$280, DW_AT_high_pc($C$DW$L$_xTaskIncrementTick$6$E)
    3671              $C$DW$281       .dwtag  DW_TAG_TI_loop_range
    3672                      .dwattr $C$DW$281, DW_AT_low_pc($C$DW$L$_xTaskIncrementTick$7$B)
    3673                      .dwattr $C$DW$281, DW_AT_high_pc($C$DW$L$_xTaskIncrementTick$7$E)
    3674              $C$DW$282       .dwtag  DW_TAG_TI_loop_range
    3675                      .dwattr $C$DW$282, DW_AT_low_pc($C$DW$L$_xTaskIncrementTick$8$B)
    3676                      .dwattr $C$DW$282, DW_AT_high_pc($C$DW$L$_xTaskIncrementTick$8$E)
    3677              $C$DW$283       .dwtag  DW_TAG_TI_loop_range
    3678                      .dwattr $C$DW$283, DW_AT_low_pc($C$DW$L$_xTaskIncrementTick$11$B)
    3679                      .dwattr $C$DW$283, DW_AT_high_pc($C$DW$L$_xTaskIncrementTick$11$E)
    3680              $C$DW$284       .dwtag  DW_TAG_TI_loop_range
    3681                      .dwattr $C$DW$284, DW_AT_low_pc($C$DW$L$_xTaskIncrementTick$14$B)
    3682                      .dwattr $C$DW$284, DW_AT_high_pc($C$DW$L$_xTaskIncrementTick$14$E)
    3683              $C$DW$285       .dwtag  DW_TAG_TI_loop_range
    3684                      .dwattr $C$DW$285, DW_AT_low_pc($C$DW$L$_xTaskIncrementTick$15$B)
    3685                      .dwattr $C$DW$285, DW_AT_high_pc($C$DW$L$_xTaskIncrementTick$15$E)
    3686              $C$DW$286       .dwtag  DW_TAG_TI_loop_range
    3687                      .dwattr $C$DW$286, DW_AT_low_pc($C$DW$L$_xTaskIncrementTick$16$B)
    3688                      .dwattr $C$DW$286, DW_AT_high_pc($C$DW$L$_xTaskIncrementTick$16$E)
    3689              $C$DW$287       .dwtag  DW_TAG_TI_loop_range
    3690                      .dwattr $C$DW$287, DW_AT_low_pc($C$DW$L$_xTaskIncrementTick$17$B)
    3691                      .dwattr $C$DW$287, DW_AT_high_pc($C$DW$L$_xTaskIncrementTick$17$E)
    3692              $C$DW$288       .dwtag  DW_TAG_TI_loop_range
    3693                      .dwattr $C$DW$288, DW_AT_low_pc($C$DW$L$_xTaskIncrementTick$19$B)
    3694                      .dwattr $C$DW$288, DW_AT_high_pc($C$DW$L$_xTaskIncrementTick$19$E)
    3695              $C$DW$289       .dwtag  DW_TAG_TI_loop_range
    3696                      .dwattr $C$DW$289, DW_AT_low_pc($C$DW$L$_xTaskIncrementTick$18$B)
    3697                      .dwattr $C$DW$289, DW_AT_high_pc($C$DW$L$_xTaskIncrementTick$18$E)
    3698                      .dwendtag $C$DW$278
    3699              
    3700                      .dwattr $C$DW$265, DW_AT_TI_end_file("../FreeRTOS/Source/tasks.c")
    3701                      .dwattr $C$DW$265, DW_AT_TI_end_line(0xb10)
    3702                      .dwattr $C$DW$265, DW_AT_TI_end_column(0x01)
    3703                      .dwendentry
    3704                      .dwendtag $C$DW$265
    3705              
    3706 000be3               .sect   ".text"
    3707                      .align 4
    3708                      .global _vTaskSwitchContext
    3709              
    3710              $C$DW$290       .dwtag  DW_TAG_subprogram, DW_AT_name("vTaskSwitchContext")
    3711                      .dwattr $C$DW$290, DW_AT_low_pc(_vTaskSwitchContext)
    3712                      .dwattr $C$DW$290, DW_AT_high_pc(0x00)
    3713                      .dwattr $C$DW$290, DW_AT_TI_symbol_name("_vTaskSwitchContext")
    3714                      .dwattr $C$DW$290, DW_AT_external
    3715                      .dwattr $C$DW$290, DW_AT_TI_begin_file("../FreeRTOS/Source/tasks.c")
    3716                      .dwattr $C$DW$290, DW_AT_TI_begin_line(0xb6f)
TMS320C55x Assembler PC v4.4.1 Sat Sep 08 17:11:34 2018

Tools Copyright (c) 1996-2012 Texas Instruments Incorporated
tasks.asm                                                            PAGE   83

    3717                      .dwattr $C$DW$290, DW_AT_TI_begin_column(0x06)
    3718                      .dwattr $C$DW$290, DW_AT_TI_max_frame_size(0x06)
    3719                      .dwpsn  file "../FreeRTOS/Source/tasks.c",line 2928,column 1,is_stmt,address _vTaskSwitchContext
    3720              
    3721                      .dwfde $C$DW$CIE, _vTaskSwitchContext
    3722              ;*******************************************************************************
    3723              ;* FUNCTION NAME: vTaskSwitchContext                                           *
    3724              ;*                                                                             *
    3725              ;*   Function Uses Regs : AC0,AC0,AC1,AC1,T0,AR0,XAR0,AR1,XAR1,AR2,XAR2,AR3,   *
    3726              ;*                        XAR3,SP,CARRY,TC1,M40,SATA,SATD,RDM,FRCT,SMUL        *
    3727              ;*   Stack Frame        : Compact (No Frame Pointer, w/ debug)                 *
    3728              ;*   Total Frame Size   : 6 words                                              *
    3729              ;*                        (2 return address/alignment)                         *
    3730              ;*                        (4 local values)                                     *
    3731              ;*   Min System Stack   : 1 word                                               *
    3732              ;*******************************************************************************
    3733 000be4       _vTaskSwitchContext:
    3734                      .dwcfi  cfa_offset, 1
    3735                      .dwcfi  save_reg_to_mem, 91, -1
    3736 000be4 4EFB          AADD #-5, SP
    3737                      .dwcfi  cfa_offset, 6
    3738                      .dwpsn  file "../FreeRTOS/Source/tasks.c",line 2929,column 2,is_stmt
    3739 000be6 A931          MOV *(#_uxSchedulerSuspended), AR1 ; |2929| 
         000be8 0000 
         000bea 6E-  
    3740 000beb 6489          BCC $C$L95,AR1 == #0 ; |2929| 
    3741                                                      ; branchcc occurs ; |2929| 
    3742                      .dwpsn  file "../FreeRTOS/Source/tasks.c",line 2933,column 3,is_stmt
    3743 000bed E631          MOV #1, *(#_xYieldPending) ; |2933| 
         000bef 0100 
         000bf1 0068-
    3744                      .dwpsn  file "../FreeRTOS/Source/tasks.c",line 2934,column 2,is_stmt
    3745 000bf3 0600          B $C$L103 ; |2934| 
         000bf5 DF   
    3746                                                      ; branch occurs ; |2934| 
    3747 000bf6       $C$L95:    
    3748                      .dwpsn  file "../FreeRTOS/Source/tasks.c",line 2937,column 3,is_stmt
    3749 000bf6 E631          MOV #0, *(#_xYieldPending) ; |2937| 
         000bf8 0000 
         000bfa 0068-
    3750 000bfc 20            NOP
    3751 000bfd 20            NOP
    3752 000bfe 20            NOP
    3753              
    3754              $C$DW$291       .dwtag  DW_TAG_lexical_block, DW_AT_low_pc(0x00), DW_AT_high_pc(0x00)
    3755              $C$DW$292       .dwtag  DW_TAG_variable, DW_AT_name("pulStack")
    3756                      .dwattr $C$DW$292, DW_AT_TI_symbol_name("_pulStack")
    3757                      .dwattr $C$DW$292, DW_AT_type(*$C$DW$T$149)
    3758                      .dwattr $C$DW$292, DW_AT_location[DW_OP_bregx 0x24 0]
    3759              $C$DW$293       .dwtag  DW_TAG_variable, DW_AT_name("ulCheckValue")
    3760                      .dwattr $C$DW$293, DW_AT_TI_symbol_name("_ulCheckValue")
    3761                      .dwattr $C$DW$293, DW_AT_type(*$C$DW$T$77)
    3762                      .dwattr $C$DW$293, DW_AT_location[DW_OP_bregx 0x24 2]
    3763                      .dwpsn  file "../FreeRTOS/Source/tasks.c",line 2968,column 3,is_stmt
    3764 000bff ED31          MOV dbl(*(#_pxCurrentTCB)), XAR3
TMS320C55x Assembler PC v4.4.1 Sat Sep 08 17:11:34 2018

Tools Copyright (c) 1996-2012 Texas Instruments Incorporated
tasks.asm                                                            PAGE   84

         000c01 BF00 
         000c03 0002-
    3765 000c05 7AA5          MOV #-23131 << #16, AC0 ; |2968| 
         000c07 A50A 
    3766 000c09 7EA5          OR #0xa5a5, AC0, AC0 ; |2968| 
         000c0b A500 
    3767 000c0d ED6D          MOV dbl(*AR3(#26)), XAR3
         000c0f BF00 
         000c11 1A   
    3768 000c12 EB00          MOV XAR3, dbl(*SP(#0))
         000c14 B5   
    3769 000c15 EB04          MOV AC0, dbl(*SP(#2)) ; |2968| 
         000c17 08   
    3770 000c18 ED00          MOV dbl(*SP(#0)), XAR3
         000c1a BF   
    3771 000c1b ED04          MOV dbl(*SP(#2)), AC0 ; |2968| 
         000c1d 08   
    3772 000c1e ED61          MOV dbl(*AR3), AC1 ; |2968| 
         000c20 18   
    3773 000c21 121C          CMPU AC1 != AC0, TC1 ; |2968| 
         000c23 04   
    3774 000c24 0464          BCC $C$L96,TC1 ; |2968| 
         000c26 23   
    3775                                                      ; branchcc occurs ; |2968| 
    3776 000c27 ED04          MOV dbl(*SP(#2)), AC0 ; |2968| 
         000c29 08   
    3777 000c2a ED75          MOV dbl(*AR3(short(#2))), AC1 ; |2968| 
         000c2c 18   
    3778 000c2d 121C          CMPU AC1 != AC0, TC1 ; |2968| 
         000c2f 04   
    3779 000c30 0464          BCC $C$L96,TC1 ; |2968| 
         000c32 17   
    3780                                                      ; branchcc occurs ; |2968| 
    3781 000c33 ED04          MOV dbl(*SP(#2)), AC0 ; |2968| 
         000c35 08   
    3782 000c36 ED79          MOV dbl(*AR3(short(#4))), AC1 ; |2968| 
         000c38 18   
    3783 000c39 121C          CMPU AC1 != AC0, TC1 ; |2968| 
         000c3b 04   
    3784 000c3c 6664          BCC $C$L96,TC1 ; |2968| 
    3785                                                      ; branchcc occurs ; |2968| 
    3786 000c3e ED04          MOV dbl(*SP(#2)), AC0 ; |2968| 
         000c40 08   
    3787 000c41 ED7D          MOV dbl(*AR3(short(#6))), AC1 ; |2968| 
         000c43 18   
    3788 000c44 1210          CMPU AC1 == AC0, TC1 ; |2968| 
         000c46 04   
    3789 000c47 0464          BCC $C$L97,TC1 ; |2968| 
         000c49 13   
    3790                                                      ; branchcc occurs ; |2968| 
    3791 000c4a       $C$L96:    
    3792 000c4a ED31          MOV dbl(*(#_pxCurrentTCB)), XAR1
         000c4c 9F00 
         000c4e 0002-
    3793 000c50 ED31          MOV dbl(*(#_pxCurrentTCB)), XAR0
TMS320C55x Assembler PC v4.4.1 Sat Sep 08 17:11:34 2018

Tools Copyright (c) 1996-2012 Texas Instruments Incorporated
tasks.asm                                                            PAGE   85

         000c52 8F00 
         000c54 0002-
    3794 000c56 141E          AADD #30, AR1 ; |2968| 
         000c58 94   
    3795              $C$DW$294       .dwtag  DW_TAG_TI_branch
    3796                      .dwattr $C$DW$294, DW_AT_low_pc(0x00)
    3797                      .dwattr $C$DW$294, DW_AT_name("_vApplicationStackOverflowHook")
    3798                      .dwattr $C$DW$294, DW_AT_TI_call
    3799 000c59 6C00          CALL #_vApplicationStackOverflowHook ; |2968| 
         000c5b 0000!
    3800                                                      ; call occurs [#_vApplicationStackOverflowHook] ; |2968| 
    3801              $C$L97:    
    3802                      .dwendtag $C$DW$291
    3803              
    3804              
    3805              $C$DW$295       .dwtag  DW_TAG_lexical_block, DW_AT_low_pc(0x00), DW_AT_high_pc(0x00)
    3806              $C$DW$296       .dwtag  DW_TAG_variable, DW_AT_name("uxTopPriority")
    3807                      .dwattr $C$DW$296, DW_AT_TI_symbol_name("_uxTopPriority")
    3808                      .dwattr $C$DW$296, DW_AT_type(*$C$DW$T$25)
    3809                      .dwattr $C$DW$296, DW_AT_location[DW_OP_bregx 0x24 0]
    3810                      .dwpsn  file "../FreeRTOS/Source/tasks.c",line 2979,column 3,is_stmt
    3811 000c5d A931          MOV *(#_uxTopReadyPriority), AR1 ; |2979| 
         000c5f 0000 
         000c61 65-  
    3812 000c62 EC31          AMOV #_pxReadyTasksLists, XAR3 ; |2979| 
         000c64 BE00 
         000c66 0004-
    3813 000c68 C900          MOV AR1, *SP(#0) ; |2979| 
    3814 000c6a 4A04          B $C$L99  ; |2979| 
    3815                                                      ; branch occurs ; |2979| 
    3816 000c6c       $C$L98:    
    3817 000c6c       $C$DW$L$_vTaskSwitchContext$9$B:
    3818 000c6c F700          SUB #1, *SP(#0) ; |2979| 
         000c6e FFFF 
    3819 000c70       $C$DW$L$_vTaskSwitchContext$9$E:
    3820 000c70       $C$L99:    
    3821 000c70       $C$DW$L$_vTaskSwitchContext$10$B:
    3822 000c70 F800          MPYMK *SP(#0), #10, AC0 ; |2979| 
         000c72 0A00 
    3823 000c74 2204          MOV AC0, T0 ; |2979| 
    3824 000c76 A96B          MOV *AR3(T0), AR1 ; |2979| 
    3825 000c78 6219          BCC $C$L100,AR1 != #0 ; |2979| 
    3826                                                      ; branchcc occurs ; |2979| 
    3827 000c7a       $C$DW$L$_vTaskSwitchContext$10$E:
    3828 000c7a       $C$DW$L$_vTaskSwitchContext$11$B:
    3829 000c7a 3C19          MOV #1, AR1
    3830 000c7c 4A02          B $C$L101 ; |2979| 
    3831                                                      ; branch occurs ; |2979| 
    3832 000c7e       $C$DW$L$_vTaskSwitchContext$11$E:
    3833 000c7e       $C$L100:    
    3834 000c7e       $C$DW$L$_vTaskSwitchContext$12$B:
    3835 000c7e 3C09          MOV #0, AR1
    3836 000c80       $C$DW$L$_vTaskSwitchContext$12$E:
    3837 000c80       $C$L101:    
    3838 000c80       $C$DW$L$_vTaskSwitchContext$13$B:
TMS320C55x Assembler PC v4.4.1 Sat Sep 08 17:11:34 2018

Tools Copyright (c) 1996-2012 Texas Instruments Incorporated
tasks.asm                                                            PAGE   86

    3839 000c80 0419          BCC $C$L98,AR1 != #0 ; |2979| 
         000c82 E9   
    3840                                                      ; branchcc occurs ; |2979| 
    3841 000c83       $C$DW$L$_vTaskSwitchContext$13$E:
    3842              
    3843              $C$DW$297       .dwtag  DW_TAG_lexical_block, DW_AT_low_pc(0x00), DW_AT_high_pc(0x00)
    3844              $C$DW$298       .dwtag  DW_TAG_variable, DW_AT_name("pxConstList")
    3845                      .dwattr $C$DW$298, DW_AT_TI_symbol_name("_pxConstList")
    3846                      .dwattr $C$DW$298, DW_AT_type(*$C$DW$T$61)
    3847                      .dwattr $C$DW$298, DW_AT_location[DW_OP_bregx 0x24 2]
    3848 000c83 F800          MPYMK *SP(#0), #10, AC0 ; |2979| 
         000c85 0A00 
    3849 000c87 2209          MOV AC0, AR1 ; |2979| 
    3850              
    3851 000c89 8E04          MOV XAR3, dbl(*SP(#2))
         000c8b BB10 
         000c8d B590 
    3852              ||      AADD AR1, AR3 ; |2979| 
    3853              
    3854 000c8f ED75          MOV dbl(*AR3(short(#2))), XAR3
         000c91 BF   
    3855 000c92 ED75          MOV dbl(*AR3(short(#2))), XAR2
         000c94 AF   
    3856 000c95 ED04          MOV dbl(*SP(#2)), XAR3
         000c97 BF   
    3857 000c98 EB75          MOV XAR2, dbl(*AR3(short(#2)))
         000c9a A5   
    3858 000c9b ED04          MOV dbl(*SP(#2)), XAR3
         000c9d BF   
    3859 000c9e 1404          AADD #4, AR3 ; |2979| 
         000ca0 B4   
    3860 000ca1 90B0          MOV XAR3, AC0
    3861 000ca3 ED04          MOV dbl(*SP(#2)), XAR3
         000ca5 BF   
    3862 000ca6 ED75          MOV dbl(*AR3(short(#2))), XAR3
         000ca8 BF   
    3863 000ca9 90B1          MOV XAR3, AC1
    3864 000cab 121C          CMPU AC1 != AC0, TC1 ; |2979| 
         000cad 04   
    3865 000cae 67E4          BCC $C$L102,TC1 ; |2979| 
    3866                                                      ; branchcc occurs ; |2979| 
    3867 000cb0 ED04          MOV dbl(*SP(#2)), XAR3
         000cb2 BF   
    3868 000cb3 ED75          MOV dbl(*AR3(short(#2))), XAR3
         000cb5 BF   
    3869 000cb6 ED75          MOV dbl(*AR3(short(#2))), XAR2
         000cb8 AF   
    3870 000cb9 ED04          MOV dbl(*SP(#2)), XAR3
         000cbb BF   
    3871 000cbc EB75          MOV XAR2, dbl(*AR3(short(#2)))
         000cbe A5   
    3872 000cbf       $C$L102:    
    3873 000cbf ED04          MOV dbl(*SP(#2)), XAR3
         000cc1 BF   
    3874 000cc2 ED75          MOV dbl(*AR3(short(#2))), XAR3
TMS320C55x Assembler PC v4.4.1 Sat Sep 08 17:11:34 2018

Tools Copyright (c) 1996-2012 Texas Instruments Incorporated
tasks.asm                                                            PAGE   87

         000cc4 BF   
    3875 000cc5 ED7D          MOV dbl(*AR3(short(#6))), XAR3
         000cc7 BF   
    3876 000cc8 EB31          MOV XAR3, dbl(*(#_pxCurrentTCB))
         000cca B500 
         000ccc 0002-
    3877                      .dwendtag $C$DW$297
    3878              
    3879 000cce A900          MOV *SP(#0), AR1 ; |2979| 
    3880 000cd0 C931          MOV AR1, *(#_uxTopReadyPriority) ; |2979| 
         000cd2 0000 
         000cd4 65-  
    3881                      .dwendtag $C$DW$295
    3882              
    3883                      .dwpsn  file "../FreeRTOS/Source/tasks.c",line 2997,column 1,is_stmt
    3884 000cd5       $C$L103:    
    3885 000cd5 4E05          AADD #5, SP
    3886                      .dwcfi  cfa_offset, 1
    3887              $C$DW$299       .dwtag  DW_TAG_TI_branch
    3888                      .dwattr $C$DW$299, DW_AT_low_pc(0x00)
    3889                      .dwattr $C$DW$299, DW_AT_TI_return
    3890 000cd7 4804          RET
    3891                                                      ; return occurs
    3892              
    3893              $C$DW$300       .dwtag  DW_TAG_TI_loop
    3894                      .dwattr $C$DW$300, DW_AT_name("F:\eZdsp_C55x_FreeRTOS_Port\eZDSP\eZDSP_5535_Files\ccsws2\test\Debug\t
    3895                      .dwattr $C$DW$300, DW_AT_TI_begin_file("../FreeRTOS/Source/tasks.c")
    3896                      .dwattr $C$DW$300, DW_AT_TI_begin_line(0xba3)
    3897                      .dwattr $C$DW$300, DW_AT_TI_end_line(0xba3)
    3898              $C$DW$301       .dwtag  DW_TAG_TI_loop_range
    3899                      .dwattr $C$DW$301, DW_AT_low_pc($C$DW$L$_vTaskSwitchContext$10$B)
    3900                      .dwattr $C$DW$301, DW_AT_high_pc($C$DW$L$_vTaskSwitchContext$10$E)
    3901              $C$DW$302       .dwtag  DW_TAG_TI_loop_range
    3902                      .dwattr $C$DW$302, DW_AT_low_pc($C$DW$L$_vTaskSwitchContext$11$B)
    3903                      .dwattr $C$DW$302, DW_AT_high_pc($C$DW$L$_vTaskSwitchContext$11$E)
    3904              $C$DW$303       .dwtag  DW_TAG_TI_loop_range
    3905                      .dwattr $C$DW$303, DW_AT_low_pc($C$DW$L$_vTaskSwitchContext$12$B)
    3906                      .dwattr $C$DW$303, DW_AT_high_pc($C$DW$L$_vTaskSwitchContext$12$E)
    3907              $C$DW$304       .dwtag  DW_TAG_TI_loop_range
    3908                      .dwattr $C$DW$304, DW_AT_low_pc($C$DW$L$_vTaskSwitchContext$13$B)
    3909                      .dwattr $C$DW$304, DW_AT_high_pc($C$DW$L$_vTaskSwitchContext$13$E)
    3910              $C$DW$305       .dwtag  DW_TAG_TI_loop_range
    3911                      .dwattr $C$DW$305, DW_AT_low_pc($C$DW$L$_vTaskSwitchContext$9$B)
    3912                      .dwattr $C$DW$305, DW_AT_high_pc($C$DW$L$_vTaskSwitchContext$9$E)
    3913                      .dwendtag $C$DW$300
    3914              
    3915                      .dwattr $C$DW$290, DW_AT_TI_end_file("../FreeRTOS/Source/tasks.c")
    3916                      .dwattr $C$DW$290, DW_AT_TI_end_line(0xbb5)
    3917                      .dwattr $C$DW$290, DW_AT_TI_end_column(0x01)
    3918                      .dwendentry
    3919                      .dwendtag $C$DW$290
    3920              
    3921 000cd9               .sect   ".text"
    3922                      .align 4
    3923                      .global _vTaskPlaceOnEventList
TMS320C55x Assembler PC v4.4.1 Sat Sep 08 17:11:34 2018

Tools Copyright (c) 1996-2012 Texas Instruments Incorporated
tasks.asm                                                            PAGE   88

    3924              
    3925              $C$DW$306       .dwtag  DW_TAG_subprogram, DW_AT_name("vTaskPlaceOnEventList")
    3926                      .dwattr $C$DW$306, DW_AT_low_pc(_vTaskPlaceOnEventList)
    3927                      .dwattr $C$DW$306, DW_AT_high_pc(0x00)
    3928                      .dwattr $C$DW$306, DW_AT_TI_symbol_name("_vTaskPlaceOnEventList")
    3929                      .dwattr $C$DW$306, DW_AT_external
    3930                      .dwattr $C$DW$306, DW_AT_TI_begin_file("../FreeRTOS/Source/tasks.c")
    3931                      .dwattr $C$DW$306, DW_AT_TI_begin_line(0xbb8)
    3932                      .dwattr $C$DW$306, DW_AT_TI_begin_column(0x06)
    3933                      .dwattr $C$DW$306, DW_AT_TI_max_frame_size(0x04)
    3934                      .dwpsn  file "../FreeRTOS/Source/tasks.c",line 3001,column 1,is_stmt,address _vTaskPlaceOnEventList
    3935              
    3936                      .dwfde $C$DW$CIE, _vTaskPlaceOnEventList
    3937              $C$DW$307       .dwtag  DW_TAG_formal_parameter, DW_AT_name("pxEventList")
    3938                      .dwattr $C$DW$307, DW_AT_TI_symbol_name("_pxEventList")
    3939                      .dwattr $C$DW$307, DW_AT_type(*$C$DW$T$61)
    3940                      .dwattr $C$DW$307, DW_AT_location[DW_OP_reg17]
    3941              $C$DW$308       .dwtag  DW_TAG_formal_parameter, DW_AT_name("xTicksToWait")
    3942                      .dwattr $C$DW$308, DW_AT_TI_symbol_name("_xTicksToWait")
    3943                      .dwattr $C$DW$308, DW_AT_type(*$C$DW$T$94)
    3944                      .dwattr $C$DW$308, DW_AT_location[DW_OP_reg12]
    3945              ;*******************************************************************************
    3946              ;* FUNCTION NAME: vTaskPlaceOnEventList                                        *
    3947              ;*                                                                             *
    3948              ;*   Function Uses Regs : T0,T1,AR0,XAR0,AR1,XAR1,SP,M40,SATA,SATD,RDM,FRCT,   *
    3949              ;*                        SMUL                                                 *
    3950              ;*   Stack Frame        : Compact (No Frame Pointer, w/ debug)                 *
    3951              ;*   Total Frame Size   : 4 words                                              *
    3952              ;*                        (1 return address/alignment)                         *
    3953              ;*                        (3 local values)                                     *
    3954              ;*   Min System Stack   : 1 word                                               *
    3955              ;*******************************************************************************
    3956 000cdc       _vTaskPlaceOnEventList:
    3957                      .dwcfi  cfa_offset, 1
    3958                      .dwcfi  save_reg_to_mem, 91, -1
    3959 000cdc 4EFD          AADD #-3, SP
    3960                      .dwcfi  cfa_offset, 4
    3961              $C$DW$309       .dwtag  DW_TAG_variable, DW_AT_name("pxEventList")
    3962                      .dwattr $C$DW$309, DW_AT_TI_symbol_name("_pxEventList")
    3963                      .dwattr $C$DW$309, DW_AT_type(*$C$DW$T$61)
    3964                      .dwattr $C$DW$309, DW_AT_location[DW_OP_bregx 0x24 0]
    3965              $C$DW$310       .dwtag  DW_TAG_variable, DW_AT_name("xTicksToWait")
    3966                      .dwattr $C$DW$310, DW_AT_TI_symbol_name("_xTicksToWait")
    3967                      .dwattr $C$DW$310, DW_AT_type(*$C$DW$T$94)
    3968                      .dwattr $C$DW$310, DW_AT_location[DW_OP_bregx 0x24 2]
    3969 000cde C404          MOV T0, *SP(#2) ; |3001| 
    3970 000ce0 EB00          MOV XAR0, dbl(*SP(#0))
         000ce2 85   
    3971                      .dwpsn  file "../FreeRTOS/Source/tasks.c",line 3011,column 2,is_stmt
    3972 000ce3 ED31          MOV dbl(*(#_pxCurrentTCB)), XAR1
         000ce5 9F00 
         000ce7 0002-
    3973 000ce9 140E          AADD #14, AR1 ; |3011| 
         000ceb 94   
    3974              $C$DW$311       .dwtag  DW_TAG_TI_branch
TMS320C55x Assembler PC v4.4.1 Sat Sep 08 17:11:34 2018

Tools Copyright (c) 1996-2012 Texas Instruments Incorporated
tasks.asm                                                            PAGE   89

    3975                      .dwattr $C$DW$311, DW_AT_low_pc(0x00)
    3976                      .dwattr $C$DW$311, DW_AT_name("_vListInsert")
    3977                      .dwattr $C$DW$311, DW_AT_TI_call
    3978 000cec 6C00          CALL #_vListInsert ; |3011| 
         000cee 0000!
    3979                                                      ; call occurs [#_vListInsert] ; |3011| 
    3980                      .dwpsn  file "../FreeRTOS/Source/tasks.c",line 3013,column 2,is_stmt
    3981              
    3982 000cf0 A404          MOV *SP(#2), T0 ; |3013| 
    3983 000cf2 3D15  ||      MOV #1, T1
    3984              
    3985              $C$DW$312       .dwtag  DW_TAG_TI_branch
    3986                      .dwattr $C$DW$312, DW_AT_low_pc(0x00)
    3987                      .dwattr $C$DW$312, DW_AT_name("_prvAddCurrentTaskToDelayedList")
    3988                      .dwattr $C$DW$312, DW_AT_TI_call
    3989 000cf4 0809          CALL #_prvAddCurrentTaskToDelayedList ; |3013| 
         000cf6 E1   
    3990                                                      ; call occurs [#_prvAddCurrentTaskToDelayedList] ; |3013| 
    3991                      .dwpsn  file "../FreeRTOS/Source/tasks.c",line 3014,column 1,is_stmt
    3992 000cf7 4E03          AADD #3, SP
    3993                      .dwcfi  cfa_offset, 1
    3994              $C$DW$313       .dwtag  DW_TAG_TI_branch
    3995                      .dwattr $C$DW$313, DW_AT_low_pc(0x00)
    3996                      .dwattr $C$DW$313, DW_AT_TI_return
    3997 000cf9 4804          RET
    3998                                                      ; return occurs
    3999                      .dwattr $C$DW$306, DW_AT_TI_end_file("../FreeRTOS/Source/tasks.c")
    4000                      .dwattr $C$DW$306, DW_AT_TI_end_line(0xbc6)
    4001                      .dwattr $C$DW$306, DW_AT_TI_end_column(0x01)
    4002                      .dwendentry
    4003                      .dwendtag $C$DW$306
    4004              
    4005 000cfb               .sect   ".text"
    4006                      .align 4
    4007                      .global _vTaskPlaceOnUnorderedEventList
    4008              
    4009              $C$DW$314       .dwtag  DW_TAG_subprogram, DW_AT_name("vTaskPlaceOnUnorderedEventList")
    4010                      .dwattr $C$DW$314, DW_AT_low_pc(_vTaskPlaceOnUnorderedEventList)
    4011                      .dwattr $C$DW$314, DW_AT_high_pc(0x00)
    4012                      .dwattr $C$DW$314, DW_AT_TI_symbol_name("_vTaskPlaceOnUnorderedEventList")
    4013                      .dwattr $C$DW$314, DW_AT_external
    4014                      .dwattr $C$DW$314, DW_AT_TI_begin_file("../FreeRTOS/Source/tasks.c")
    4015                      .dwattr $C$DW$314, DW_AT_TI_begin_line(0xbc9)
    4016                      .dwattr $C$DW$314, DW_AT_TI_begin_column(0x06)
    4017                      .dwattr $C$DW$314, DW_AT_TI_max_frame_size(0x06)
    4018                      .dwpsn  file "../FreeRTOS/Source/tasks.c",line 3018,column 1,is_stmt,address _vTaskPlaceOnUnorderedEv
    4019              
    4020                      .dwfde $C$DW$CIE, _vTaskPlaceOnUnorderedEventList
    4021              $C$DW$315       .dwtag  DW_TAG_formal_parameter, DW_AT_name("pxEventList")
    4022                      .dwattr $C$DW$315, DW_AT_TI_symbol_name("_pxEventList")
    4023                      .dwattr $C$DW$315, DW_AT_type(*$C$DW$T$60)
    4024                      .dwattr $C$DW$315, DW_AT_location[DW_OP_reg17]
    4025              $C$DW$316       .dwtag  DW_TAG_formal_parameter, DW_AT_name("xItemValue")
    4026                      .dwattr $C$DW$316, DW_AT_TI_symbol_name("_xItemValue")
    4027                      .dwattr $C$DW$316, DW_AT_type(*$C$DW$T$94)
TMS320C55x Assembler PC v4.4.1 Sat Sep 08 17:11:34 2018

Tools Copyright (c) 1996-2012 Texas Instruments Incorporated
tasks.asm                                                            PAGE   90

    4028                      .dwattr $C$DW$316, DW_AT_location[DW_OP_reg12]
    4029              $C$DW$317       .dwtag  DW_TAG_formal_parameter, DW_AT_name("xTicksToWait")
    4030                      .dwattr $C$DW$317, DW_AT_TI_symbol_name("_xTicksToWait")
    4031                      .dwattr $C$DW$317, DW_AT_type(*$C$DW$T$94)
    4032                      .dwattr $C$DW$317, DW_AT_location[DW_OP_reg13]
    4033              ;*******************************************************************************
    4034              ;* FUNCTION NAME: vTaskPlaceOnUnorderedEventList                               *
    4035              ;*                                                                             *
    4036              ;*   Function Uses Regs : T0,T1,AR0,XAR0,AR1,XAR1,AR3,XAR3,SP,M40,SATA,SATD,   *
    4037              ;*                        RDM,FRCT,SMUL                                        *
    4038              ;*   Stack Frame        : Compact (No Frame Pointer, w/ debug)                 *
    4039              ;*   Total Frame Size   : 6 words                                              *
    4040              ;*                        (2 return address/alignment)                         *
    4041              ;*                        (4 local values)                                     *
    4042              ;*   Min System Stack   : 1 word                                               *
    4043              ;*******************************************************************************
    4044 000cfc       _vTaskPlaceOnUnorderedEventList:
    4045                      .dwcfi  cfa_offset, 1
    4046                      .dwcfi  save_reg_to_mem, 91, -1
    4047 000cfc 4EFB          AADD #-5, SP
    4048                      .dwcfi  cfa_offset, 6
    4049              $C$DW$318       .dwtag  DW_TAG_variable, DW_AT_name("pxEventList")
    4050                      .dwattr $C$DW$318, DW_AT_TI_symbol_name("_pxEventList")
    4051                      .dwattr $C$DW$318, DW_AT_type(*$C$DW$T$60)
    4052                      .dwattr $C$DW$318, DW_AT_location[DW_OP_bregx 0x24 0]
    4053              $C$DW$319       .dwtag  DW_TAG_variable, DW_AT_name("xItemValue")
    4054                      .dwattr $C$DW$319, DW_AT_TI_symbol_name("_xItemValue")
    4055                      .dwattr $C$DW$319, DW_AT_type(*$C$DW$T$94)
    4056                      .dwattr $C$DW$319, DW_AT_location[DW_OP_bregx 0x24 2]
    4057              $C$DW$320       .dwtag  DW_TAG_variable, DW_AT_name("xTicksToWait")
    4058                      .dwattr $C$DW$320, DW_AT_TI_symbol_name("_xTicksToWait")
    4059                      .dwattr $C$DW$320, DW_AT_type(*$C$DW$T$94)
    4060                      .dwattr $C$DW$320, DW_AT_location[DW_OP_bregx 0x24 3]
    4061 000cfe C506          MOV T1, *SP(#3) ; |3018| 
    4062 000d00 C404          MOV T0, *SP(#2) ; |3018| 
    4063 000d02 EB00          MOV XAR0, dbl(*SP(#0))
         000d04 85   
    4064                      .dwpsn  file "../FreeRTOS/Source/tasks.c",line 3028,column 2,is_stmt
    4065 000d05 ED31          MOV dbl(*(#_pxCurrentTCB)), XAR3
         000d07 BF00 
         000d09 0002-
    4066 000d0b A904          MOV *SP(#2), AR1 ; |3028| 
    4067 000d0d EC1E          BSET @#15, AR1 ; |3028| 
         000d0f 90   
    4068 000d10 C96D          MOV AR1, *AR3(#14) ; |3028| 
         000d12 000E 
    4069                      .dwpsn  file "../FreeRTOS/Source/tasks.c",line 3035,column 2,is_stmt
    4070 000d14 ED31          MOV dbl(*(#_pxCurrentTCB)), XAR1
         000d16 9F00 
         000d18 0002-
    4071 000d1a ED00          MOV dbl(*SP(#0)), XAR0
         000d1c 8F   
    4072 000d1d 140E          AADD #14, AR1 ; |3035| 
         000d1f 94   
    4073              $C$DW$321       .dwtag  DW_TAG_TI_branch
TMS320C55x Assembler PC v4.4.1 Sat Sep 08 17:11:34 2018

Tools Copyright (c) 1996-2012 Texas Instruments Incorporated
tasks.asm                                                            PAGE   91

    4074                      .dwattr $C$DW$321, DW_AT_low_pc(0x00)
    4075                      .dwattr $C$DW$321, DW_AT_name("_vListInsertEnd")
    4076                      .dwattr $C$DW$321, DW_AT_TI_call
    4077 000d20 6C00          CALL #_vListInsertEnd ; |3035| 
         000d22 0000!
    4078                                                      ; call occurs [#_vListInsertEnd] ; |3035| 
    4079                      .dwpsn  file "../FreeRTOS/Source/tasks.c",line 3037,column 2,is_stmt
    4080              
    4081 000d24 A406          MOV *SP(#3), T0 ; |3037| 
    4082 000d26 3D15  ||      MOV #1, T1
    4083              
    4084              $C$DW$322       .dwtag  DW_TAG_TI_branch
    4085                      .dwattr $C$DW$322, DW_AT_low_pc(0x00)
    4086                      .dwattr $C$DW$322, DW_AT_name("_prvAddCurrentTaskToDelayedList")
    4087                      .dwattr $C$DW$322, DW_AT_TI_call
    4088 000d28 0809          CALL #_prvAddCurrentTaskToDelayedList ; |3037| 
         000d2a AD   
    4089                                                      ; call occurs [#_prvAddCurrentTaskToDelayedList] ; |3037| 
    4090                      .dwpsn  file "../FreeRTOS/Source/tasks.c",line 3038,column 1,is_stmt
    4091 000d2b 4E05          AADD #5, SP
    4092                      .dwcfi  cfa_offset, 1
    4093              $C$DW$323       .dwtag  DW_TAG_TI_branch
    4094                      .dwattr $C$DW$323, DW_AT_low_pc(0x00)
    4095                      .dwattr $C$DW$323, DW_AT_TI_return
    4096 000d2d 4804          RET
    4097                                                      ; return occurs
    4098                      .dwattr $C$DW$314, DW_AT_TI_end_file("../FreeRTOS/Source/tasks.c")
    4099                      .dwattr $C$DW$314, DW_AT_TI_end_line(0xbde)
    4100                      .dwattr $C$DW$314, DW_AT_TI_end_column(0x01)
    4101                      .dwendentry
    4102                      .dwendtag $C$DW$314
    4103              
    4104 000d2f               .sect   ".text"
    4105                      .align 4
    4106                      .global _xTaskRemoveFromEventList
    4107              
    4108              $C$DW$324       .dwtag  DW_TAG_subprogram, DW_AT_name("xTaskRemoveFromEventList")
    4109                      .dwattr $C$DW$324, DW_AT_low_pc(_xTaskRemoveFromEventList)
    4110                      .dwattr $C$DW$324, DW_AT_high_pc(0x00)
    4111                      .dwattr $C$DW$324, DW_AT_TI_symbol_name("_xTaskRemoveFromEventList")
    4112                      .dwattr $C$DW$324, DW_AT_external
    4113                      .dwattr $C$DW$324, DW_AT_type(*$C$DW$T$44)
    4114                      .dwattr $C$DW$324, DW_AT_TI_begin_file("../FreeRTOS/Source/tasks.c")
    4115                      .dwattr $C$DW$324, DW_AT_TI_begin_line(0xc02)
    4116                      .dwattr $C$DW$324, DW_AT_TI_begin_column(0x0c)
    4117                      .dwattr $C$DW$324, DW_AT_TI_max_frame_size(0x06)
    4118                      .dwpsn  file "../FreeRTOS/Source/tasks.c",line 3075,column 1,is_stmt,address _xTaskRemoveFromEventLis
    4119              
    4120                      .dwfde $C$DW$CIE, _xTaskRemoveFromEventList
    4121              $C$DW$325       .dwtag  DW_TAG_formal_parameter, DW_AT_name("pxEventList")
    4122                      .dwattr $C$DW$325, DW_AT_TI_symbol_name("_pxEventList")
    4123                      .dwattr $C$DW$325, DW_AT_type(*$C$DW$T$127)
    4124                      .dwattr $C$DW$325, DW_AT_location[DW_OP_reg17]
    4125              ;*******************************************************************************
    4126              ;* FUNCTION NAME: xTaskRemoveFromEventList                                     *
TMS320C55x Assembler PC v4.4.1 Sat Sep 08 17:11:34 2018

Tools Copyright (c) 1996-2012 Texas Instruments Incorporated
tasks.asm                                                            PAGE   92

    4127              ;*                                                                             *
    4128              ;*   Function Uses Regs : AC0,T0,AR0,XAR0,AR1,XAR1,AR2,AR3,XAR3,SP,TC1,M40,    *
    4129              ;*                        SATA,SATD,RDM,FRCT,SMUL                              *
    4130              ;*   Stack Frame        : Compact (No Frame Pointer, w/ debug)                 *
    4131              ;*   Total Frame Size   : 6 words                                              *
    4132              ;*                        (1 return address/alignment)                         *
    4133              ;*                        (5 local values)                                     *
    4134              ;*   Min System Stack   : 1 word                                               *
    4135              ;*******************************************************************************
    4136 000d30       _xTaskRemoveFromEventList:
    4137                      .dwcfi  cfa_offset, 1
    4138                      .dwcfi  save_reg_to_mem, 91, -1
    4139 000d30 4EFB          AADD #-5, SP
    4140                      .dwcfi  cfa_offset, 6
    4141              $C$DW$326       .dwtag  DW_TAG_variable, DW_AT_name("pxEventList")
    4142                      .dwattr $C$DW$326, DW_AT_TI_symbol_name("_pxEventList")
    4143                      .dwattr $C$DW$326, DW_AT_type(*$C$DW$T$127)
    4144                      .dwattr $C$DW$326, DW_AT_location[DW_OP_bregx 0x24 0]
    4145              $C$DW$327       .dwtag  DW_TAG_variable, DW_AT_name("pxUnblockedTCB")
    4146                      .dwattr $C$DW$327, DW_AT_TI_symbol_name("_pxUnblockedTCB")
    4147                      .dwattr $C$DW$327, DW_AT_type(*$C$DW$T$82)
    4148                      .dwattr $C$DW$327, DW_AT_location[DW_OP_bregx 0x24 2]
    4149              $C$DW$328       .dwtag  DW_TAG_variable, DW_AT_name("xReturn")
    4150                      .dwattr $C$DW$328, DW_AT_TI_symbol_name("_xReturn")
    4151                      .dwattr $C$DW$328, DW_AT_type(*$C$DW$T$44)
    4152                      .dwattr $C$DW$328, DW_AT_location[DW_OP_bregx 0x24 4]
    4153 000d32 EB00          MOV XAR0, dbl(*SP(#0))
         000d34 85   
    4154                      .dwpsn  file "../FreeRTOS/Source/tasks.c",line 3092,column 2,is_stmt
    4155 000d35 ED00          MOV dbl(*SP(#0)), XAR3
         000d37 BF   
    4156 000d38 ED7D          MOV dbl(*AR3(short(#6))), XAR3
         000d3a BF   
    4157 000d3b ED7D          MOV dbl(*AR3(short(#6))), XAR3
         000d3d BF   
    4158 000d3e EB04          MOV XAR3, dbl(*SP(#2))
         000d40 B5   
    4159                      .dwpsn  file "../FreeRTOS/Source/tasks.c",line 3094,column 2,is_stmt
    4160 000d41 ED04          MOV dbl(*SP(#2)), XAR0
         000d43 8F   
    4161 000d44 140E          AADD #14, AR0 ; |3094| 
         000d46 84   
    4162              $C$DW$329       .dwtag  DW_TAG_TI_branch
    4163                      .dwattr $C$DW$329, DW_AT_low_pc(0x00)
    4164                      .dwattr $C$DW$329, DW_AT_name("_uxListRemove")
    4165                      .dwattr $C$DW$329, DW_AT_TI_call
    4166 000d47 6C00          CALL #_uxListRemove ; |3094| 
         000d49 0000!
    4167                                                      ; call occurs [#_uxListRemove] ; |3094| 
    4168                      .dwpsn  file "../FreeRTOS/Source/tasks.c",line 3096,column 2,is_stmt
    4169 000d4b A931          MOV *(#_uxSchedulerSuspended), AR1 ; |3096| 
         000d4d 0000 
         000d4f 6E-  
    4170 000d50 0419          BCC $C$L105,AR1 != #0 ; |3096| 
         000d52 41   
TMS320C55x Assembler PC v4.4.1 Sat Sep 08 17:11:34 2018

Tools Copyright (c) 1996-2012 Texas Instruments Incorporated
tasks.asm                                                            PAGE   93

    4171                                                      ; branchcc occurs ; |3096| 
    4172                      .dwpsn  file "../FreeRTOS/Source/tasks.c",line 3098,column 3,is_stmt
    4173 000d53 ED04          MOV dbl(*SP(#2)), XAR0
         000d55 8F   
    4174 000d56 1404          AADD #4, AR0 ; |3098| 
         000d58 84   
    4175              $C$DW$330       .dwtag  DW_TAG_TI_branch
    4176                      .dwattr $C$DW$330, DW_AT_low_pc(0x00)
    4177                      .dwattr $C$DW$330, DW_AT_name("_uxListRemove")
    4178                      .dwattr $C$DW$330, DW_AT_TI_call
    4179 000d59 6C00          CALL #_uxListRemove ; |3098| 
         000d5b 0000!
    4180                                                      ; call occurs [#_uxListRemove] ; |3098| 
    4181                      .dwpsn  file "../FreeRTOS/Source/tasks.c",line 3099,column 3,is_stmt
    4182 000d5d ED04          MOV dbl(*SP(#2)), XAR3
         000d5f BF   
    4183 000d60 A931          MOV *(#_uxTopReadyPriority), AR1 ; |3099| 
         000d62 0000 
         000d64 65-  
    4184 000d65 AA6D          MOV *AR3(#24), AR2 ; |3099| 
         000d67 0018 
    4185 000d69 1298          CMPU AR2 <= AR1, TC1 ; |3099| 
         000d6b A4   
    4186 000d6c 64E4          BCC $C$L104,TC1 ; |3099| 
    4187                                                      ; branchcc occurs ; |3099| 
    4188 000d6e A96D          MOV *AR3(#24), AR1 ; |3099| 
         000d70 0018 
    4189 000d72 C931          MOV AR1, *(#_uxTopReadyPriority) ; |3099| 
         000d74 0000 
         000d76 65-  
    4190 000d77       $C$L104:    
    4191 000d77 F86D          MPYMK *AR3(#24), #10, AC0 ; |3099| 
         000d79 0A00 
         000d7b 0018 
    4192 000d7d 2209          MOV AC0, AR1 ; |3099| 
    4193 000d7f EC31          AMOV #_pxReadyTasksLists, XAR0 ; |3099| 
         000d81 8E00 
         000d83 0004-
    4194 000d85 1490          AADD AR1, AR0 ; |3099| 
         000d87 80   
    4195 000d88 ED04          MOV dbl(*SP(#2)), XAR1
         000d8a 9F   
    4196 000d8b 1404          AADD #4, AR1 ; |3099| 
         000d8d 94   
    4197              $C$DW$331       .dwtag  DW_TAG_TI_branch
    4198                      .dwattr $C$DW$331, DW_AT_low_pc(0x00)
    4199                      .dwattr $C$DW$331, DW_AT_name("_vListInsertEnd")
    4200                      .dwattr $C$DW$331, DW_AT_TI_call
    4201 000d8e 6C00          CALL #_vListInsertEnd ; |3099| 
         000d90 0000!
    4202                                                      ; call occurs [#_vListInsertEnd] ; |3099| 
    4203                      .dwpsn  file "../FreeRTOS/Source/tasks.c",line 3100,column 2,is_stmt
    4204 000d92 4A10          B $C$L106 ; |3100| 
    4205                                                      ; branch occurs ; |3100| 
    4206 000d94       $C$L105:    
TMS320C55x Assembler PC v4.4.1 Sat Sep 08 17:11:34 2018

Tools Copyright (c) 1996-2012 Texas Instruments Incorporated
tasks.asm                                                            PAGE   94

    4207                      .dwpsn  file "../FreeRTOS/Source/tasks.c",line 3105,column 3,is_stmt
    4208 000d94 ED04          MOV dbl(*SP(#2)), XAR1
         000d96 9F   
    4209 000d97 EC31          AMOV #_xPendingReadyList, XAR0 ; |3105| 
         000d99 8E00 
         000d9b 0044-
    4210 000d9d 140E          AADD #14, AR1 ; |3105| 
         000d9f 94   
    4211              $C$DW$332       .dwtag  DW_TAG_TI_branch
    4212                      .dwattr $C$DW$332, DW_AT_low_pc(0x00)
    4213                      .dwattr $C$DW$332, DW_AT_name("_vListInsertEnd")
    4214                      .dwattr $C$DW$332, DW_AT_TI_call
    4215 000da0 6C00          CALL #_vListInsertEnd ; |3105| 
         000da2 0000!
    4216                                                      ; call occurs [#_vListInsertEnd] ; |3105| 
    4217 000da4       $C$L106:    
    4218                      .dwpsn  file "../FreeRTOS/Source/tasks.c",line 3108,column 2,is_stmt
    4219 000da4 ED31          MOV dbl(*(#_pxCurrentTCB)), XAR3
         000da6 BF00 
         000da8 0002-
    4220 000daa A96D          MOV *AR3(#24), AR1 ; |3108| 
         000dac 0018 
    4221 000dae ED04          MOV dbl(*SP(#2)), XAR3
         000db0 BF   
    4222 000db1 AA6D          MOV *AR3(#24), AR2 ; |3108| 
         000db3 0018 
    4223 000db5 1298          CMPU AR2 <= AR1, TC1 ; |3108| 
         000db7 A4   
    4224 000db8 65E4          BCC $C$L107,TC1 ; |3108| 
    4225                                                      ; branchcc occurs ; |3108| 
    4226                      .dwpsn  file "../FreeRTOS/Source/tasks.c",line 3113,column 3,is_stmt
    4227 000dba E608          MOV #1, *SP(#4) ; |3113| 
         000dbc 01   
    4228                      .dwpsn  file "../FreeRTOS/Source/tasks.c",line 3117,column 3,is_stmt
    4229 000dbd E631          MOV #1, *(#_xYieldPending) ; |3117| 
         000dbf 0100 
         000dc1 0068-
    4230                      .dwpsn  file "../FreeRTOS/Source/tasks.c",line 3118,column 2,is_stmt
    4231 000dc3 4A03          B $C$L108 ; |3118| 
    4232                                                      ; branch occurs ; |3118| 
    4233 000dc5       $C$L107:    
    4234                      .dwpsn  file "../FreeRTOS/Source/tasks.c",line 3121,column 3,is_stmt
    4235 000dc5 E608          MOV #0, *SP(#4) ; |3121| 
         000dc7 00   
    4236 000dc8       $C$L108:    
    4237                      .dwpsn  file "../FreeRTOS/Source/tasks.c",line 3138,column 2,is_stmt
    4238 000dc8 A408          MOV *SP(#4), T0 ; |3138| 
    4239                      .dwpsn  file "../FreeRTOS/Source/tasks.c",line 3139,column 1,is_stmt
    4240 000dca 4E05          AADD #5, SP
    4241                      .dwcfi  cfa_offset, 1
    4242              $C$DW$333       .dwtag  DW_TAG_TI_branch
    4243                      .dwattr $C$DW$333, DW_AT_low_pc(0x00)
    4244                      .dwattr $C$DW$333, DW_AT_TI_return
    4245 000dcc 4804          RET
    4246                                                      ; return occurs
TMS320C55x Assembler PC v4.4.1 Sat Sep 08 17:11:34 2018

Tools Copyright (c) 1996-2012 Texas Instruments Incorporated
tasks.asm                                                            PAGE   95

    4247                      .dwattr $C$DW$324, DW_AT_TI_end_file("../FreeRTOS/Source/tasks.c")
    4248                      .dwattr $C$DW$324, DW_AT_TI_end_line(0xc43)
    4249                      .dwattr $C$DW$324, DW_AT_TI_end_column(0x01)
    4250                      .dwendentry
    4251                      .dwendtag $C$DW$324
    4252              
    4253 000dce               .sect   ".text"
    4254                      .align 4
    4255                      .global _vTaskRemoveFromUnorderedEventList
    4256              
    4257              $C$DW$334       .dwtag  DW_TAG_subprogram, DW_AT_name("vTaskRemoveFromUnorderedEventList")
    4258                      .dwattr $C$DW$334, DW_AT_low_pc(_vTaskRemoveFromUnorderedEventList)
    4259                      .dwattr $C$DW$334, DW_AT_high_pc(0x00)
    4260                      .dwattr $C$DW$334, DW_AT_TI_symbol_name("_vTaskRemoveFromUnorderedEventList")
    4261                      .dwattr $C$DW$334, DW_AT_external
    4262                      .dwattr $C$DW$334, DW_AT_TI_begin_file("../FreeRTOS/Source/tasks.c")
    4263                      .dwattr $C$DW$334, DW_AT_TI_begin_line(0xc46)
    4264                      .dwattr $C$DW$334, DW_AT_TI_begin_column(0x06)
    4265                      .dwattr $C$DW$334, DW_AT_TI_max_frame_size(0x08)
    4266                      .dwpsn  file "../FreeRTOS/Source/tasks.c",line 3143,column 1,is_stmt,address _vTaskRemoveFromUnordere
    4267              
    4268                      .dwfde $C$DW$CIE, _vTaskRemoveFromUnorderedEventList
    4269              $C$DW$335       .dwtag  DW_TAG_formal_parameter, DW_AT_name("pxEventListItem")
    4270                      .dwattr $C$DW$335, DW_AT_TI_symbol_name("_pxEventListItem")
    4271                      .dwattr $C$DW$335, DW_AT_type(*$C$DW$T$35)
    4272                      .dwattr $C$DW$335, DW_AT_location[DW_OP_reg17]
    4273              $C$DW$336       .dwtag  DW_TAG_formal_parameter, DW_AT_name("xItemValue")
    4274                      .dwattr $C$DW$336, DW_AT_TI_symbol_name("_xItemValue")
    4275                      .dwattr $C$DW$336, DW_AT_type(*$C$DW$T$94)
    4276                      .dwattr $C$DW$336, DW_AT_location[DW_OP_reg12]
    4277              ;*******************************************************************************
    4278              ;* FUNCTION NAME: vTaskRemoveFromUnorderedEventList                            *
    4279              ;*                                                                             *
    4280              ;*   Function Uses Regs : AC0,T0,AR0,XAR0,AR1,XAR1,AR2,AR3,XAR3,SP,TC1,M40,    *
    4281              ;*                        SATA,SATD,RDM,FRCT,SMUL                              *
    4282              ;*   Stack Frame        : Compact (No Frame Pointer, w/ debug)                 *
    4283              ;*   Total Frame Size   : 8 words                                              *
    4284              ;*                        (2 return address/alignment)                         *
    4285              ;*                        (6 local values)                                     *
    4286              ;*   Min System Stack   : 1 word                                               *
    4287              ;*******************************************************************************
    4288 000dd0       _vTaskRemoveFromUnorderedEventList:
    4289                      .dwcfi  cfa_offset, 1
    4290                      .dwcfi  save_reg_to_mem, 91, -1
    4291 000dd0 4EF9          AADD #-7, SP
    4292                      .dwcfi  cfa_offset, 8
    4293              $C$DW$337       .dwtag  DW_TAG_variable, DW_AT_name("pxEventListItem")
    4294                      .dwattr $C$DW$337, DW_AT_TI_symbol_name("_pxEventListItem")
    4295                      .dwattr $C$DW$337, DW_AT_type(*$C$DW$T$35)
    4296                      .dwattr $C$DW$337, DW_AT_location[DW_OP_bregx 0x24 0]
    4297              $C$DW$338       .dwtag  DW_TAG_variable, DW_AT_name("xItemValue")
    4298                      .dwattr $C$DW$338, DW_AT_TI_symbol_name("_xItemValue")
    4299                      .dwattr $C$DW$338, DW_AT_type(*$C$DW$T$94)
    4300                      .dwattr $C$DW$338, DW_AT_location[DW_OP_bregx 0x24 2]
    4301              $C$DW$339       .dwtag  DW_TAG_variable, DW_AT_name("pxUnblockedTCB")
TMS320C55x Assembler PC v4.4.1 Sat Sep 08 17:11:34 2018

Tools Copyright (c) 1996-2012 Texas Instruments Incorporated
tasks.asm                                                            PAGE   96

    4302                      .dwattr $C$DW$339, DW_AT_TI_symbol_name("_pxUnblockedTCB")
    4303                      .dwattr $C$DW$339, DW_AT_type(*$C$DW$T$82)
    4304                      .dwattr $C$DW$339, DW_AT_location[DW_OP_bregx 0x24 4]
    4305 000dd2 C404          MOV T0, *SP(#2) ; |3143| 
    4306 000dd4 EB00          MOV XAR0, dbl(*SP(#0))
         000dd6 85   
    4307                      .dwpsn  file "../FreeRTOS/Source/tasks.c",line 3151,column 2,is_stmt
    4308 000dd7 ED00          MOV dbl(*SP(#0)), XAR3
         000dd9 BF   
    4309 000dda A904          MOV *SP(#2), AR1 ; |3151| 
    4310 000ddc EC1E          BSET @#15, AR1 ; |3151| 
         000dde 90   
    4311 000ddf C961          MOV AR1, *AR3 ; |3151| 
    4312                      .dwpsn  file "../FreeRTOS/Source/tasks.c",line 3155,column 2,is_stmt
    4313 000de1 ED00          MOV dbl(*SP(#0)), XAR3
         000de3 BF   
    4314 000de4 ED7D          MOV dbl(*AR3(short(#6))), XAR3
         000de6 BF   
    4315 000de7 EB08          MOV XAR3, dbl(*SP(#4))
         000de9 B5   
    4316                      .dwpsn  file "../FreeRTOS/Source/tasks.c",line 3157,column 2,is_stmt
    4317 000dea ED00          MOV dbl(*SP(#0)), XAR0
         000dec 8F   
    4318              $C$DW$340       .dwtag  DW_TAG_TI_branch
    4319                      .dwattr $C$DW$340, DW_AT_low_pc(0x00)
    4320                      .dwattr $C$DW$340, DW_AT_name("_uxListRemove")
    4321                      .dwattr $C$DW$340, DW_AT_TI_call
    4322 000ded 6C00          CALL #_uxListRemove ; |3157| 
         000def 0000!
    4323                                                      ; call occurs [#_uxListRemove] ; |3157| 
    4324                      .dwpsn  file "../FreeRTOS/Source/tasks.c",line 3162,column 2,is_stmt
    4325 000df1 ED08          MOV dbl(*SP(#4)), XAR0
         000df3 8F   
    4326 000df4 1404          AADD #4, AR0 ; |3162| 
         000df6 84   
    4327              $C$DW$341       .dwtag  DW_TAG_TI_branch
    4328                      .dwattr $C$DW$341, DW_AT_low_pc(0x00)
    4329                      .dwattr $C$DW$341, DW_AT_name("_uxListRemove")
    4330                      .dwattr $C$DW$341, DW_AT_TI_call
    4331 000df7 6C00          CALL #_uxListRemove ; |3162| 
         000df9 0000!
    4332                                                      ; call occurs [#_uxListRemove] ; |3162| 
    4333                      .dwpsn  file "../FreeRTOS/Source/tasks.c",line 3163,column 2,is_stmt
    4334 000dfb ED08          MOV dbl(*SP(#4)), XAR3
         000dfd BF   
    4335 000dfe A931          MOV *(#_uxTopReadyPriority), AR1 ; |3163| 
         000e00 0000 
         000e02 65-  
    4336 000e03 AA6D          MOV *AR3(#24), AR2 ; |3163| 
         000e05 0018 
    4337 000e07 1298          CMPU AR2 <= AR1, TC1 ; |3163| 
         000e09 A4   
    4338 000e0a 64E4          BCC $C$L109,TC1 ; |3163| 
    4339                                                      ; branchcc occurs ; |3163| 
    4340 000e0c A96D          MOV *AR3(#24), AR1 ; |3163| 
TMS320C55x Assembler PC v4.4.1 Sat Sep 08 17:11:34 2018

Tools Copyright (c) 1996-2012 Texas Instruments Incorporated
tasks.asm                                                            PAGE   97

         000e0e 0018 
    4341 000e10 C931          MOV AR1, *(#_uxTopReadyPriority) ; |3163| 
         000e12 0000 
         000e14 65-  
    4342 000e15       $C$L109:    
    4343 000e15 F86D          MPYMK *AR3(#24), #10, AC0 ; |3163| 
         000e17 0A00 
         000e19 0018 
    4344 000e1b 2209          MOV AC0, AR1 ; |3163| 
    4345 000e1d EC31          AMOV #_pxReadyTasksLists, XAR0 ; |3163| 
         000e1f 8E00 
         000e21 0004-
    4346 000e23 1490          AADD AR1, AR0 ; |3163| 
         000e25 80   
    4347 000e26 ED08          MOV dbl(*SP(#4)), XAR1
         000e28 9F   
    4348 000e29 1404          AADD #4, AR1 ; |3163| 
         000e2b 94   
    4349              $C$DW$342       .dwtag  DW_TAG_TI_branch
    4350                      .dwattr $C$DW$342, DW_AT_low_pc(0x00)
    4351                      .dwattr $C$DW$342, DW_AT_name("_vListInsertEnd")
    4352                      .dwattr $C$DW$342, DW_AT_TI_call
    4353 000e2c 6C00          CALL #_vListInsertEnd ; |3163| 
         000e2e 0000!
    4354                                                      ; call occurs [#_vListInsertEnd] ; |3163| 
    4355                      .dwpsn  file "../FreeRTOS/Source/tasks.c",line 3165,column 2,is_stmt
    4356 000e30 ED31          MOV dbl(*(#_pxCurrentTCB)), XAR3
         000e32 BF00 
         000e34 0002-
    4357 000e36 A96D          MOV *AR3(#24), AR1 ; |3165| 
         000e38 0018 
    4358 000e3a ED08          MOV dbl(*SP(#4)), XAR3
         000e3c BF   
    4359 000e3d AA6D          MOV *AR3(#24), AR2 ; |3165| 
         000e3f 0018 
    4360 000e41 1298          CMPU AR2 <= AR1, TC1 ; |3165| 
         000e43 A4   
    4361 000e44 6364          BCC $C$L110,TC1 ; |3165| 
    4362                                                      ; branchcc occurs ; |3165| 
    4363                      .dwpsn  file "../FreeRTOS/Source/tasks.c",line 3171,column 3,is_stmt
    4364 000e46 E631          MOV #1, *(#_xYieldPending) ; |3171| 
         000e48 0100 
         000e4a 0068-
    4365                      .dwpsn  file "../FreeRTOS/Source/tasks.c",line 3173,column 1,is_stmt
    4366 000e4c       $C$L110:    
    4367 000e4c 4E07          AADD #7, SP
    4368                      .dwcfi  cfa_offset, 1
    4369              $C$DW$343       .dwtag  DW_TAG_TI_branch
    4370                      .dwattr $C$DW$343, DW_AT_low_pc(0x00)
    4371                      .dwattr $C$DW$343, DW_AT_TI_return
    4372 000e4e 4804          RET
    4373                                                      ; return occurs
    4374                      .dwattr $C$DW$334, DW_AT_TI_end_file("../FreeRTOS/Source/tasks.c")
    4375                      .dwattr $C$DW$334, DW_AT_TI_end_line(0xc65)
    4376                      .dwattr $C$DW$334, DW_AT_TI_end_column(0x01)
TMS320C55x Assembler PC v4.4.1 Sat Sep 08 17:11:34 2018

Tools Copyright (c) 1996-2012 Texas Instruments Incorporated
tasks.asm                                                            PAGE   98

    4377                      .dwendentry
    4378                      .dwendtag $C$DW$334
    4379              
    4380 000e50               .sect   ".text"
    4381                      .align 4
    4382                      .global _vTaskSetTimeOutState
    4383              
    4384              $C$DW$344       .dwtag  DW_TAG_subprogram, DW_AT_name("vTaskSetTimeOutState")
    4385                      .dwattr $C$DW$344, DW_AT_low_pc(_vTaskSetTimeOutState)
    4386                      .dwattr $C$DW$344, DW_AT_high_pc(0x00)
    4387                      .dwattr $C$DW$344, DW_AT_TI_symbol_name("_vTaskSetTimeOutState")
    4388                      .dwattr $C$DW$344, DW_AT_external
    4389                      .dwattr $C$DW$344, DW_AT_TI_begin_file("../FreeRTOS/Source/tasks.c")
    4390                      .dwattr $C$DW$344, DW_AT_TI_begin_line(0xc68)
    4391                      .dwattr $C$DW$344, DW_AT_TI_begin_column(0x06)
    4392                      .dwattr $C$DW$344, DW_AT_TI_max_frame_size(0x04)
    4393                      .dwpsn  file "../FreeRTOS/Source/tasks.c",line 3177,column 1,is_stmt,address _vTaskSetTimeOutState
    4394              
    4395                      .dwfde $C$DW$CIE, _vTaskSetTimeOutState
    4396              $C$DW$345       .dwtag  DW_TAG_formal_parameter, DW_AT_name("pxTimeOut")
    4397                      .dwattr $C$DW$345, DW_AT_TI_symbol_name("_pxTimeOut")
    4398                      .dwattr $C$DW$345, DW_AT_type(*$C$DW$T$103)
    4399                      .dwattr $C$DW$345, DW_AT_location[DW_OP_reg17]
    4400              ;*******************************************************************************
    4401              ;* FUNCTION NAME: vTaskSetTimeOutState                                         *
    4402              ;*                                                                             *
    4403              ;*   Function Uses Regs : AR0,XAR0,AR1,AR3,XAR3,SP,CARRY,M40,SATA,SATD,RDM,    *
    4404              ;*                        FRCT,SMUL                                            *
    4405              ;*   Stack Frame        : Compact (No Frame Pointer, w/ debug)                 *
    4406              ;*   Total Frame Size   : 4 words                                              *
    4407              ;*                        (2 return address/alignment)                         *
    4408              ;*                        (2 local values)                                     *
    4409              ;*   Min System Stack   : 1 word                                               *
    4410              ;*******************************************************************************
    4411 000e50       _vTaskSetTimeOutState:
    4412                      .dwcfi  cfa_offset, 1
    4413                      .dwcfi  save_reg_to_mem, 91, -1
    4414 000e50 4EFD          AADD #-3, SP
    4415                      .dwcfi  cfa_offset, 4
    4416              $C$DW$346       .dwtag  DW_TAG_variable, DW_AT_name("pxTimeOut")
    4417                      .dwattr $C$DW$346, DW_AT_TI_symbol_name("_pxTimeOut")
    4418                      .dwattr $C$DW$346, DW_AT_type(*$C$DW$T$103)
    4419                      .dwattr $C$DW$346, DW_AT_location[DW_OP_bregx 0x24 0]
    4420 000e52 EB00          MOV XAR0, dbl(*SP(#0))
         000e54 85   
    4421                      .dwpsn  file "../FreeRTOS/Source/tasks.c",line 3179,column 2,is_stmt
    4422 000e55 20     nop
    4423 000e56 46B3   bset INTM
    4424 000e58 F731          ADD #1, *(#_usCriticalNesting) ; |3179| 
         000e5a 0001 
         000e5c 0000 
         000e5e 00!  
    4425 000e5f 20            NOP
    4426 000e60 20            NOP
    4427                      .dwpsn  file "../FreeRTOS/Source/tasks.c",line 3181,column 3,is_stmt
TMS320C55x Assembler PC v4.4.1 Sat Sep 08 17:11:34 2018

Tools Copyright (c) 1996-2012 Texas Instruments Incorporated
tasks.asm                                                            PAGE   99

    4428 000e61 ED00          MOV dbl(*SP(#0)), XAR3
         000e63 BF   
    4429 000e64 A931          MOV *(#_xNumOfOverflows), AR1 ; |3181| 
         000e66 0000 
         000e68 69-  
    4430 000e69 C961          MOV AR1, *AR3 ; |3181| 
    4431                      .dwpsn  file "../FreeRTOS/Source/tasks.c",line 3182,column 3,is_stmt
    4432 000e6b ED00          MOV dbl(*SP(#0)), XAR3
         000e6d BF   
    4433 000e6e A931          MOV *(#_xTickCount), AR1 ; |3182| 
         000e70 0000 
         000e72 64-  
    4434 000e73 C973          MOV AR1, *AR3(short(#1)) ; |3182| 
    4435                      .dwpsn  file "../FreeRTOS/Source/tasks.c",line 3184,column 2,is_stmt
    4436 000e75 A931          MOV *(#_usCriticalNesting), AR1 ; |3184| 
         000e77 0000 
         000e79 00!  
    4437 000e7a 0409          BCC $C$L111,AR1 == #0 ; |3184| 
         000e7c 14   
    4438                                                      ; branchcc occurs ; |3184| 
    4439 000e7d F731          SUB #1, *(#_usCriticalNesting) ; |3184| 
         000e7f FFFF 
         000e81 0000 
         000e83 00!  
    4440 000e84 20            NOP
    4441 000e85 20            NOP
    4442 000e86 20            NOP
    4443 000e87 A931          MOV *(#_usCriticalNesting), AR1 ; |3184| 
         000e89 0000 
         000e8b 00!  
    4444 000e8c 6199          BCC $C$L111,AR1 != #0 ; |3184| 
    4445                                                      ; branchcc occurs ; |3184| 
    4446 000e8e 20     nop
    4447 000e8f 46B2   bclr INTM
    4448                      .dwpsn  file "../FreeRTOS/Source/tasks.c",line 3185,column 1,is_stmt
    4449 000e91       $C$L111:    
    4450 000e91 4E03          AADD #3, SP
    4451                      .dwcfi  cfa_offset, 1
    4452              $C$DW$347       .dwtag  DW_TAG_TI_branch
    4453                      .dwattr $C$DW$347, DW_AT_low_pc(0x00)
    4454                      .dwattr $C$DW$347, DW_AT_TI_return
    4455 000e93 4804          RET
    4456                                                      ; return occurs
    4457                      .dwattr $C$DW$344, DW_AT_TI_end_file("../FreeRTOS/Source/tasks.c")
    4458                      .dwattr $C$DW$344, DW_AT_TI_end_line(0xc71)
    4459                      .dwattr $C$DW$344, DW_AT_TI_end_column(0x01)
    4460                      .dwendentry
    4461                      .dwendtag $C$DW$344
    4462              
    4463 000e95               .sect   ".text"
    4464                      .align 4
    4465                      .global _vTaskInternalSetTimeOutState
    4466              
    4467              $C$DW$348       .dwtag  DW_TAG_subprogram, DW_AT_name("vTaskInternalSetTimeOutState")
    4468                      .dwattr $C$DW$348, DW_AT_low_pc(_vTaskInternalSetTimeOutState)
TMS320C55x Assembler PC v4.4.1 Sat Sep 08 17:11:34 2018

Tools Copyright (c) 1996-2012 Texas Instruments Incorporated
tasks.asm                                                            PAGE  100

    4469                      .dwattr $C$DW$348, DW_AT_high_pc(0x00)
    4470                      .dwattr $C$DW$348, DW_AT_TI_symbol_name("_vTaskInternalSetTimeOutState")
    4471                      .dwattr $C$DW$348, DW_AT_external
    4472                      .dwattr $C$DW$348, DW_AT_TI_begin_file("../FreeRTOS/Source/tasks.c")
    4473                      .dwattr $C$DW$348, DW_AT_TI_begin_line(0xc74)
    4474                      .dwattr $C$DW$348, DW_AT_TI_begin_column(0x06)
    4475                      .dwattr $C$DW$348, DW_AT_TI_max_frame_size(0x04)
    4476                      .dwpsn  file "../FreeRTOS/Source/tasks.c",line 3189,column 1,is_stmt,address _vTaskInternalSetTimeOut
    4477              
    4478                      .dwfde $C$DW$CIE, _vTaskInternalSetTimeOutState
    4479              $C$DW$349       .dwtag  DW_TAG_formal_parameter, DW_AT_name("pxTimeOut")
    4480                      .dwattr $C$DW$349, DW_AT_TI_symbol_name("_pxTimeOut")
    4481                      .dwattr $C$DW$349, DW_AT_type(*$C$DW$T$103)
    4482                      .dwattr $C$DW$349, DW_AT_location[DW_OP_reg17]
    4483              ;*******************************************************************************
    4484              ;* FUNCTION NAME: vTaskInternalSetTimeOutState                                 *
    4485              ;*                                                                             *
    4486              ;*   Function Uses Regs : AR0,XAR0,AR1,AR3,XAR3,SP,M40,SATA,SATD,RDM,FRCT,SMUL *
    4487              ;*   Stack Frame        : Compact (No Frame Pointer, w/ debug)                 *
    4488              ;*   Total Frame Size   : 4 words                                              *
    4489              ;*                        (2 return address/alignment)                         *
    4490              ;*                        (2 local values)                                     *
    4491              ;*   Min System Stack   : 1 word                                               *
    4492              ;*******************************************************************************
    4493 000e98       _vTaskInternalSetTimeOutState:
    4494                      .dwcfi  cfa_offset, 1
    4495                      .dwcfi  save_reg_to_mem, 91, -1
    4496 000e98 4EFD          AADD #-3, SP
    4497                      .dwcfi  cfa_offset, 4
    4498              $C$DW$350       .dwtag  DW_TAG_variable, DW_AT_name("pxTimeOut")
    4499                      .dwattr $C$DW$350, DW_AT_TI_symbol_name("_pxTimeOut")
    4500                      .dwattr $C$DW$350, DW_AT_type(*$C$DW$T$103)
    4501                      .dwattr $C$DW$350, DW_AT_location[DW_OP_bregx 0x24 0]
    4502 000e9a EB00          MOV XAR0, dbl(*SP(#0))
         000e9c 85   
    4503                      .dwpsn  file "../FreeRTOS/Source/tasks.c",line 3191,column 2,is_stmt
    4504 000e9d ED00          MOV dbl(*SP(#0)), XAR3
         000e9f BF   
    4505 000ea0 A931          MOV *(#_xNumOfOverflows), AR1 ; |3191| 
         000ea2 0000 
         000ea4 69-  
    4506 000ea5 C961          MOV AR1, *AR3 ; |3191| 
    4507                      .dwpsn  file "../FreeRTOS/Source/tasks.c",line 3192,column 2,is_stmt
    4508 000ea7 ED00          MOV dbl(*SP(#0)), XAR3
         000ea9 BF   
    4509 000eaa A931          MOV *(#_xTickCount), AR1 ; |3192| 
         000eac 0000 
         000eae 64-  
    4510 000eaf C973          MOV AR1, *AR3(short(#1)) ; |3192| 
    4511                      .dwpsn  file "../FreeRTOS/Source/tasks.c",line 3193,column 1,is_stmt
    4512 000eb1 4E03          AADD #3, SP
    4513                      .dwcfi  cfa_offset, 1
    4514              $C$DW$351       .dwtag  DW_TAG_TI_branch
    4515                      .dwattr $C$DW$351, DW_AT_low_pc(0x00)
    4516                      .dwattr $C$DW$351, DW_AT_TI_return
TMS320C55x Assembler PC v4.4.1 Sat Sep 08 17:11:34 2018

Tools Copyright (c) 1996-2012 Texas Instruments Incorporated
tasks.asm                                                            PAGE  101

    4517 000eb3 4804          RET
    4518                                                      ; return occurs
    4519                      .dwattr $C$DW$348, DW_AT_TI_end_file("../FreeRTOS/Source/tasks.c")
    4520                      .dwattr $C$DW$348, DW_AT_TI_end_line(0xc79)
    4521                      .dwattr $C$DW$348, DW_AT_TI_end_column(0x01)
    4522                      .dwendentry
    4523                      .dwendtag $C$DW$348
    4524              
    4525 000eb5               .sect   ".text"
    4526                      .align 4
    4527                      .global _xTaskCheckForTimeOut
    4528              
    4529              $C$DW$352       .dwtag  DW_TAG_subprogram, DW_AT_name("xTaskCheckForTimeOut")
    4530                      .dwattr $C$DW$352, DW_AT_low_pc(_xTaskCheckForTimeOut)
    4531                      .dwattr $C$DW$352, DW_AT_high_pc(0x00)
    4532                      .dwattr $C$DW$352, DW_AT_TI_symbol_name("_xTaskCheckForTimeOut")
    4533                      .dwattr $C$DW$352, DW_AT_external
    4534                      .dwattr $C$DW$352, DW_AT_type(*$C$DW$T$44)
    4535                      .dwattr $C$DW$352, DW_AT_TI_begin_file("../FreeRTOS/Source/tasks.c")
    4536                      .dwattr $C$DW$352, DW_AT_TI_begin_line(0xc7c)
    4537                      .dwattr $C$DW$352, DW_AT_TI_begin_column(0x0c)
    4538                      .dwattr $C$DW$352, DW_AT_TI_max_frame_size(0x08)
    4539                      .dwpsn  file "../FreeRTOS/Source/tasks.c",line 3197,column 1,is_stmt,address _xTaskCheckForTimeOut
    4540              
    4541                      .dwfde $C$DW$CIE, _xTaskCheckForTimeOut
    4542              $C$DW$353       .dwtag  DW_TAG_formal_parameter, DW_AT_name("pxTimeOut")
    4543                      .dwattr $C$DW$353, DW_AT_TI_symbol_name("_pxTimeOut")
    4544                      .dwattr $C$DW$353, DW_AT_type(*$C$DW$T$103)
    4545                      .dwattr $C$DW$353, DW_AT_location[DW_OP_reg17]
    4546              $C$DW$354       .dwtag  DW_TAG_formal_parameter, DW_AT_name("pxTicksToWait")
    4547                      .dwattr $C$DW$354, DW_AT_TI_symbol_name("_pxTicksToWait")
    4548                      .dwattr $C$DW$354, DW_AT_type(*$C$DW$T$93)
    4549                      .dwattr $C$DW$354, DW_AT_location[DW_OP_reg19]
    4550              ;*******************************************************************************
    4551              ;* FUNCTION NAME: xTaskCheckForTimeOut                                         *
    4552              ;*                                                                             *
    4553              ;*   Function Uses Regs : AC0,T0,AR0,XAR0,AR1,XAR1,AR2,AR3,XAR3,SP,CARRY,TC1,  *
    4554              ;*                        M40,SATA,SATD,RDM,FRCT,SMUL                          *
    4555              ;*   Stack Frame        : Compact (No Frame Pointer, w/ debug)                 *
    4556              ;*   Total Frame Size   : 8 words                                              *
    4557              ;*                        (1 return address/alignment)                         *
    4558              ;*                        (7 local values)                                     *
    4559              ;*   Min System Stack   : 1 word                                               *
    4560              ;*******************************************************************************
    4561 000eb8       _xTaskCheckForTimeOut:
    4562                      .dwcfi  cfa_offset, 1
    4563                      .dwcfi  save_reg_to_mem, 91, -1
    4564 000eb8 4EF9          AADD #-7, SP
    4565                      .dwcfi  cfa_offset, 8
    4566              $C$DW$355       .dwtag  DW_TAG_variable, DW_AT_name("pxTimeOut")
    4567                      .dwattr $C$DW$355, DW_AT_TI_symbol_name("_pxTimeOut")
    4568                      .dwattr $C$DW$355, DW_AT_type(*$C$DW$T$103)
    4569                      .dwattr $C$DW$355, DW_AT_location[DW_OP_bregx 0x24 0]
    4570              $C$DW$356       .dwtag  DW_TAG_variable, DW_AT_name("pxTicksToWait")
    4571                      .dwattr $C$DW$356, DW_AT_TI_symbol_name("_pxTicksToWait")
TMS320C55x Assembler PC v4.4.1 Sat Sep 08 17:11:34 2018

Tools Copyright (c) 1996-2012 Texas Instruments Incorporated
tasks.asm                                                            PAGE  102

    4572                      .dwattr $C$DW$356, DW_AT_type(*$C$DW$T$93)
    4573                      .dwattr $C$DW$356, DW_AT_location[DW_OP_bregx 0x24 2]
    4574              $C$DW$357       .dwtag  DW_TAG_variable, DW_AT_name("xReturn")
    4575                      .dwattr $C$DW$357, DW_AT_TI_symbol_name("_xReturn")
    4576                      .dwattr $C$DW$357, DW_AT_type(*$C$DW$T$44)
    4577                      .dwattr $C$DW$357, DW_AT_location[DW_OP_bregx 0x24 4]
    4578 000eba EB04          MOV XAR1, dbl(*SP(#2))
         000ebc 95   
    4579 000ebd EB00          MOV XAR0, dbl(*SP(#0))
         000ebf 85   
    4580                      .dwpsn  file "../FreeRTOS/Source/tasks.c",line 3203,column 2,is_stmt
    4581 000ec0 20     nop
    4582 000ec1 46B3   bset INTM
    4583 000ec3 F731          ADD #1, *(#_usCriticalNesting) ; |3203| 
         000ec5 0001 
         000ec7 0000 
         000ec9 00!  
    4584 000eca 20            NOP
    4585 000ecb 20            NOP
    4586 000ecc 20            NOP
    4587              
    4588              $C$DW$358       .dwtag  DW_TAG_lexical_block, DW_AT_low_pc(0x00), DW_AT_high_pc(0x00)
    4589              $C$DW$359       .dwtag  DW_TAG_variable, DW_AT_name("xConstTickCount")
    4590                      .dwattr $C$DW$359, DW_AT_TI_symbol_name("_xConstTickCount")
    4591                      .dwattr $C$DW$359, DW_AT_type(*$C$DW$T$94)
    4592                      .dwattr $C$DW$359, DW_AT_location[DW_OP_bregx 0x24 5]
    4593              $C$DW$360       .dwtag  DW_TAG_variable, DW_AT_name("xElapsedTime")
    4594                      .dwattr $C$DW$360, DW_AT_TI_symbol_name("_xElapsedTime")
    4595                      .dwattr $C$DW$360, DW_AT_type(*$C$DW$T$94)
    4596                      .dwattr $C$DW$360, DW_AT_location[DW_OP_bregx 0x24 6]
    4597                      .dwpsn  file "../FreeRTOS/Source/tasks.c",line 3206,column 20,is_stmt
    4598 000ecd A931          MOV *(#_xTickCount), AR1 ; |3206| 
         000ecf 0000 
         000ed1 64-  
    4599 000ed2 C90A          MOV AR1, *SP(#5) ; |3206| 
    4600                      .dwpsn  file "../FreeRTOS/Source/tasks.c",line 3207,column 20,is_stmt
    4601 000ed4 ED00          MOV dbl(*SP(#0)), XAR3
         000ed6 BF   
    4602 000ed7 2290          MOV AR1, AC0
    4603 000ed9 DF73          SUB uns(*AR3(short(#1))), AC0, AC0 ; |3207| 
         000edb 0F   
    4604 000edc C00C          MOV AC0, *SP(#6) ; |3207| 
    4605                      .dwpsn  file "../FreeRTOS/Source/tasks.c",line 3221,column 4,is_stmt
    4606 000ede ED04          MOV dbl(*SP(#2)), XAR3
         000ee0 BF   
    4607 000ee1 76FF          MOV #65535, AR2 ; |3221| 
         000ee3 FFA8 
    4608 000ee5 A961          MOV *AR3, AR1 ; |3221| 
    4609 000ee7 129C          CMPU AR1 != AR2, TC1 ; |3221| 
         000ee9 A4   
    4610 000eea 6364          BCC $C$L112,TC1 ; |3221| 
    4611                                                      ; branchcc occurs ; |3221| 
    4612                      .dwpsn  file "../FreeRTOS/Source/tasks.c",line 3226,column 5,is_stmt
    4613 000eec E608          MOV #0, *SP(#4) ; |3226| 
         000eee 00   
TMS320C55x Assembler PC v4.4.1 Sat Sep 08 17:11:34 2018

Tools Copyright (c) 1996-2012 Texas Instruments Incorporated
tasks.asm                                                            PAGE  103

    4614                      .dwpsn  file "../FreeRTOS/Source/tasks.c",line 3227,column 4,is_stmt
    4615 000eef 0600          B $C$L115 ; |3227| 
         000ef1 42   
    4616                                                      ; branch occurs ; |3227| 
    4617 000ef2       $C$L112:    
    4618                      .dwpsn  file "../FreeRTOS/Source/tasks.c",line 3231,column 3,is_stmt
    4619 000ef2 ED00          MOV dbl(*SP(#0)), XAR3
         000ef4 BF   
    4620 000ef5 AA31          MOV *(#_xNumOfOverflows), AR2 ; |3231| 
         000ef7 0000 
         000ef9 69-  
    4621 000efa A961          MOV *AR3, AR1 ; |3231| 
    4622 000efc 12A0          CMP AR2 == AR1, TC1 ; |3231| 
         000efe 90   
    4623 000eff 6764          BCC $C$L113,TC1 ; |3231| 
    4624                                                      ; branchcc occurs ; |3231| 
    4625 000f01 A973          MOV *AR3(short(#1)), AR1 ; |3231| 
    4626 000f03 AA0A          MOV *SP(#5), AR2 ; |3231| 
    4627 000f05 12A4          CMPU AR2 < AR1, TC1 ; |3231| 
         000f07 94   
    4628 000f08 62E4          BCC $C$L113,TC1 ; |3231| 
    4629                                                      ; branchcc occurs ; |3231| 
    4630                      .dwpsn  file "../FreeRTOS/Source/tasks.c",line 3238,column 4,is_stmt
    4631 000f0a E608          MOV #1, *SP(#4) ; |3238| 
         000f0c 01   
    4632                      .dwpsn  file "../FreeRTOS/Source/tasks.c",line 3239,column 3,is_stmt
    4633 000f0d 4A25          B $C$L115 ; |3239| 
    4634                                                      ; branch occurs ; |3239| 
    4635 000f0f       $C$L113:    
    4636                      .dwpsn  file "../FreeRTOS/Source/tasks.c",line 3240,column 8,is_stmt
    4637 000f0f ED04          MOV dbl(*SP(#2)), XAR3
         000f11 BF   
    4638              
    4639 000f12 A961          MOV *AR3, AR1 ; |3240| 
    4640 000f14 230A  ||      MOV AC0, AR2 ; |3240| 
    4641              
    4642 000f16 12A8          CMPU AR2 >= AR1, TC1 ; |3240| 
         000f18 94   
    4643 000f19 0464          BCC $C$L114,TC1 ; |3240| 
         000f1b 12   
    4644                                                      ; branchcc occurs ; |3240| 
    4645                      .dwpsn  file "../FreeRTOS/Source/tasks.c",line 3243,column 4,is_stmt
    4646 000f1c A061          MOV *AR3, AC0 ; |3243| 
    4647 000f1e DF0C          SUB uns(*SP(#6)), AC0, AC0 ; |3243| 
         000f20 0F   
    4648 000f21 C061          MOV AC0, *AR3 ; |3243| 
    4649                      .dwpsn  file "../FreeRTOS/Source/tasks.c",line 3244,column 4,is_stmt
    4650 000f23 ED00          MOV dbl(*SP(#0)), XAR0
         000f25 8F   
    4651              $C$DW$361       .dwtag  DW_TAG_TI_branch
    4652                      .dwattr $C$DW$361, DW_AT_low_pc(0x00)
    4653                      .dwattr $C$DW$361, DW_AT_name("_vTaskInternalSetTimeOutState")
    4654                      .dwattr $C$DW$361, DW_AT_TI_call
    4655 000f26 08FF          CALL #_vTaskInternalSetTimeOutState ; |3244| 
         000f28 6F   
TMS320C55x Assembler PC v4.4.1 Sat Sep 08 17:11:34 2018

Tools Copyright (c) 1996-2012 Texas Instruments Incorporated
tasks.asm                                                            PAGE  104

    4656                                                      ; call occurs [#_vTaskInternalSetTimeOutState] ; |3244| 
    4657                      .dwpsn  file "../FreeRTOS/Source/tasks.c",line 3245,column 4,is_stmt
    4658 000f29 E608          MOV #0, *SP(#4) ; |3245| 
         000f2b 00   
    4659                      .dwpsn  file "../FreeRTOS/Source/tasks.c",line 3246,column 3,is_stmt
    4660 000f2c 4A06          B $C$L115 ; |3246| 
    4661                                                      ; branch occurs ; |3246| 
    4662 000f2e       $C$L114:    
    4663                      .dwpsn  file "../FreeRTOS/Source/tasks.c",line 3249,column 4,is_stmt
    4664 000f2e E661          MOV #0, *AR3 ; |3249| 
         000f30 00   
    4665                      .dwpsn  file "../FreeRTOS/Source/tasks.c",line 3250,column 4,is_stmt
    4666 000f31 E608          MOV #1, *SP(#4) ; |3250| 
         000f33 01   
    4667              $C$L115:    
    4668                      .dwendtag $C$DW$358
    4669              
    4670                      .dwpsn  file "../FreeRTOS/Source/tasks.c",line 3253,column 2,is_stmt
    4671 000f34 A931          MOV *(#_usCriticalNesting), AR1 ; |3253| 
         000f36 0000 
         000f38 00!  
    4672 000f39 0409          BCC $C$L116,AR1 == #0 ; |3253| 
         000f3b 14   
    4673                                                      ; branchcc occurs ; |3253| 
    4674 000f3c F731          SUB #1, *(#_usCriticalNesting) ; |3253| 
         000f3e FFFF 
         000f40 0000 
         000f42 00!  
    4675 000f43 20            NOP
    4676 000f44 20            NOP
    4677 000f45 20            NOP
    4678 000f46 A931          MOV *(#_usCriticalNesting), AR1 ; |3253| 
         000f48 0000 
         000f4a 00!  
    4679 000f4b 6199          BCC $C$L116,AR1 != #0 ; |3253| 
    4680                                                      ; branchcc occurs ; |3253| 
    4681 000f4d 20     nop
    4682 000f4e 46B2   bclr INTM
    4683 000f50       $C$L116:    
    4684                      .dwpsn  file "../FreeRTOS/Source/tasks.c",line 3255,column 2,is_stmt
    4685 000f50 A408          MOV *SP(#4), T0 ; |3255| 
    4686                      .dwpsn  file "../FreeRTOS/Source/tasks.c",line 3256,column 1,is_stmt
    4687 000f52 4E07          AADD #7, SP
    4688                      .dwcfi  cfa_offset, 1
    4689              $C$DW$362       .dwtag  DW_TAG_TI_branch
    4690                      .dwattr $C$DW$362, DW_AT_low_pc(0x00)
    4691                      .dwattr $C$DW$362, DW_AT_TI_return
    4692 000f54 4804          RET
    4693                                                      ; return occurs
    4694                      .dwattr $C$DW$352, DW_AT_TI_end_file("../FreeRTOS/Source/tasks.c")
    4695                      .dwattr $C$DW$352, DW_AT_TI_end_line(0xcb8)
    4696                      .dwattr $C$DW$352, DW_AT_TI_end_column(0x01)
    4697                      .dwendentry
    4698                      .dwendtag $C$DW$352
    4699              
TMS320C55x Assembler PC v4.4.1 Sat Sep 08 17:11:34 2018

Tools Copyright (c) 1996-2012 Texas Instruments Incorporated
tasks.asm                                                            PAGE  105

    4700 000f56               .sect   ".text"
    4701                      .align 4
    4702                      .global _vTaskMissedYield
    4703              
    4704              $C$DW$363       .dwtag  DW_TAG_subprogram, DW_AT_name("vTaskMissedYield")
    4705                      .dwattr $C$DW$363, DW_AT_low_pc(_vTaskMissedYield)
    4706                      .dwattr $C$DW$363, DW_AT_high_pc(0x00)
    4707                      .dwattr $C$DW$363, DW_AT_TI_symbol_name("_vTaskMissedYield")
    4708                      .dwattr $C$DW$363, DW_AT_external
    4709                      .dwattr $C$DW$363, DW_AT_TI_begin_file("../FreeRTOS/Source/tasks.c")
    4710                      .dwattr $C$DW$363, DW_AT_TI_begin_line(0xcbb)
    4711                      .dwattr $C$DW$363, DW_AT_TI_begin_column(0x06)
    4712                      .dwattr $C$DW$363, DW_AT_TI_max_frame_size(0x01)
    4713                      .dwpsn  file "../FreeRTOS/Source/tasks.c",line 3260,column 1,is_stmt,address _vTaskMissedYield
    4714              
    4715                      .dwfde $C$DW$CIE, _vTaskMissedYield
    4716              ;*******************************************************************************
    4717              ;* FUNCTION NAME: vTaskMissedYield                                             *
    4718              ;*                                                                             *
    4719              ;*   Function Uses Regs : SP,M40,SATA,SATD,RDM,FRCT,SMUL                       *
    4720              ;*   Stack Frame        : Compact (No Frame Pointer, w/ debug)                 *
    4721              ;*   Total Frame Size   : 1 word                                               *
    4722              ;*                        (1 return address/alignment)                         *
    4723              ;*   Min System Stack   : 1 word                                               *
    4724              ;*******************************************************************************
    4725 000f58       _vTaskMissedYield:
    4726                      .dwcfi  cfa_offset, 1
    4727                      .dwcfi  save_reg_to_mem, 91, -1
    4728                      .dwpsn  file "../FreeRTOS/Source/tasks.c",line 3261,column 2,is_stmt
    4729 000f58 E631          MOV #1, *(#_xYieldPending) ; |3261| 
         000f5a 0100 
         000f5c 0068-
    4730                      .dwpsn  file "../FreeRTOS/Source/tasks.c",line 3262,column 1,is_stmt
    4731              $C$DW$364       .dwtag  DW_TAG_TI_branch
    4732                      .dwattr $C$DW$364, DW_AT_low_pc(0x00)
    4733                      .dwattr $C$DW$364, DW_AT_TI_return
    4734 000f5e 4804          RET
    4735                                                      ; return occurs
    4736                      .dwattr $C$DW$363, DW_AT_TI_end_file("../FreeRTOS/Source/tasks.c")
    4737                      .dwattr $C$DW$363, DW_AT_TI_end_line(0xcbe)
    4738                      .dwattr $C$DW$363, DW_AT_TI_end_column(0x01)
    4739                      .dwendentry
    4740                      .dwendtag $C$DW$363
    4741              
    4742 000f60               .sect   ".text"
    4743                      .align 4
    4744              
    4745              $C$DW$365       .dwtag  DW_TAG_subprogram, DW_AT_name("prvIdleTask")
    4746                      .dwattr $C$DW$365, DW_AT_low_pc(_prvIdleTask)
    4747                      .dwattr $C$DW$365, DW_AT_high_pc(0x00)
    4748                      .dwattr $C$DW$365, DW_AT_TI_symbol_name("_prvIdleTask")
    4749                      .dwattr $C$DW$365, DW_AT_TI_begin_file("../FreeRTOS/Source/tasks.c")
    4750                      .dwattr $C$DW$365, DW_AT_TI_begin_line(0xcf2)
    4751                      .dwattr $C$DW$365, DW_AT_TI_begin_column(0x08)
    4752                      .dwattr $C$DW$365, DW_AT_TI_max_frame_size(0x04)
TMS320C55x Assembler PC v4.4.1 Sat Sep 08 17:11:34 2018

Tools Copyright (c) 1996-2012 Texas Instruments Incorporated
tasks.asm                                                            PAGE  106

    4753                      .dwpsn  file "../FreeRTOS/Source/tasks.c",line 3315,column 1,is_stmt,address _prvIdleTask
    4754              
    4755                      .dwfde $C$DW$CIE, _prvIdleTask
    4756              $C$DW$366       .dwtag  DW_TAG_formal_parameter, DW_AT_name("pvParameters")
    4757                      .dwattr $C$DW$366, DW_AT_TI_symbol_name("_pvParameters")
    4758                      .dwattr $C$DW$366, DW_AT_type(*$C$DW$T$3)
    4759                      .dwattr $C$DW$366, DW_AT_location[DW_OP_reg17]
    4760              ;*******************************************************************************
    4761              ;* FUNCTION NAME: prvIdleTask                                                  *
    4762              ;*                                                                             *
    4763              ;*   Function Uses Regs : T2,AR0,XAR0,AR1,SP,TC1,M40,SATA,SATD,RDM,FRCT,SMUL   *
    4764              ;*   Save On Entry Regs : T2                                                   *
    4765              ;*   Stack Frame        : Compact (No Frame Pointer, w/ debug)                 *
    4766              ;*   Total Frame Size   : 4 words                                              *
    4767              ;*                        (1 return address/alignment)                         *
    4768              ;*                        (2 local values)                                     *
    4769              ;*                        (1 register save area)                               *
    4770              ;*   Min System Stack   : 1 word                                               *
    4771              ;*******************************************************************************
    4772 000f60       _prvIdleTask:
    4773                      .dwcfi  cfa_offset, 1
    4774                      .dwcfi  save_reg_to_mem, 91, -1
    4775 000f60 5066          PSH T2
    4776                      .dwcfi  cfa_offset, 2
    4777                      .dwcfi  save_reg_to_mem, 14, -2
    4778 000f62 4EFE          AADD #-2, SP
    4779                      .dwcfi  cfa_offset, 4
    4780              $C$DW$367       .dwtag  DW_TAG_variable, DW_AT_name("pvParameters")
    4781                      .dwattr $C$DW$367, DW_AT_TI_symbol_name("_pvParameters")
    4782                      .dwattr $C$DW$367, DW_AT_type(*$C$DW$T$3)
    4783                      .dwattr $C$DW$367, DW_AT_location[DW_OP_bregx 0x24 0]
    4784              
    4785 000f64 EB00          MOV XAR0, dbl(*SP(#0))
         000f66 85   
    4786 000f67 3D16  ||      MOV #1, T2
    4787              
    4788                      .dwpsn  file "../FreeRTOS/Source/tasks.c",line 3317,column 2,is_stmt
    4789 000f69       $C$L117:    
    4790 000f69       $C$DW$L$_prvIdleTask$2$B:
    4791                      .dwpsn  file "../FreeRTOS/Source/tasks.c",line 3331,column 3,is_stmt
    4792              $C$DW$368       .dwtag  DW_TAG_TI_branch
    4793                      .dwattr $C$DW$368, DW_AT_low_pc(0x00)
    4794                      .dwattr $C$DW$368, DW_AT_name("_prvCheckTasksWaitingTermination")
    4795                      .dwattr $C$DW$368, DW_AT_TI_call
    4796 000f69 0800          CALL #_prvCheckTasksWaitingTermination ; |3331| 
         000f6b 94   
    4797                                                      ; call occurs [#_prvCheckTasksWaitingTermination] ; |3331| 
    4798                      .dwpsn  file "../FreeRTOS/Source/tasks.c",line 3354,column 4,is_stmt
    4799 000f6c A931          MOV *(#_pxReadyTasksLists), AR1 ; |3354| 
         000f6e 0000 
         000f70 04-  
    4800 000f71 1268          CMPU AR1 <= T2, TC1 ; |3354| 
         000f73 94   
    4801 000f74 6264          BCC $C$L118,TC1 ; |3354| 
    4802                                                      ; branchcc occurs ; |3354| 
TMS320C55x Assembler PC v4.4.1 Sat Sep 08 17:11:34 2018

Tools Copyright (c) 1996-2012 Texas Instruments Incorporated
tasks.asm                                                            PAGE  107

    4803 000f76       $C$DW$L$_prvIdleTask$2$E:
    4804 000f76       $C$DW$L$_prvIdleTask$3$B:
    4805                      .dwpsn  file "../FreeRTOS/Source/tasks.c",line 3356,column 5,is_stmt
    4806              $C$DW$369       .dwtag  DW_TAG_TI_branch
    4807                      .dwattr $C$DW$369, DW_AT_low_pc(0x00)
    4808                      .dwattr $C$DW$369, DW_AT_name("_vPortYield")
    4809                      .dwattr $C$DW$369, DW_AT_TI_call
    4810 000f76 6C00          CALL #_vPortYield ; |3356| 
         000f78 0000!
    4811                                                      ; call occurs [#_vPortYield] ; |3356| 
    4812                      .dwpsn  file "../FreeRTOS/Source/tasks.c",line 3357,column 4,is_stmt
    4813 000f7a       $C$DW$L$_prvIdleTask$3$E:
    4814 000f7a       $C$L118:    
    4815 000f7a       $C$DW$L$_prvIdleTask$4$B:
    4816                      .dwpsn  file "../FreeRTOS/Source/tasks.c",line 3374,column 4,is_stmt
    4817              $C$DW$370       .dwtag  DW_TAG_TI_branch
    4818                      .dwattr $C$DW$370, DW_AT_low_pc(0x00)
    4819                      .dwattr $C$DW$370, DW_AT_name("_vApplicationIdleHook")
    4820                      .dwattr $C$DW$370, DW_AT_TI_call
    4821 000f7a 6C00          CALL #_vApplicationIdleHook ; |3374| 
         000f7c 0000!
    4822                                                      ; call occurs [#_vApplicationIdleHook] ; |3374| 
    4823                      .dwpsn  file "../FreeRTOS/Source/tasks.c",line 3427,column 2,is_stmt
    4824 000f7e 4A69          B $C$L117 ; |3427| 
    4825                                                      ; branch occurs ; |3427| 
    4826 000f80       $C$DW$L$_prvIdleTask$4$E:
    4827                      .dwcfi  cfa_offset, 2
    4828                      .dwcfi  restore_reg, 14
    4829                      .dwcfi  cfa_offset, 1
    4830              
    4831              $C$DW$371       .dwtag  DW_TAG_TI_loop
    4832                      .dwattr $C$DW$371, DW_AT_name("F:\eZdsp_C55x_FreeRTOS_Port\eZDSP\eZDSP_5535_Files\ccsws2\test\Debug\t
    4833                      .dwattr $C$DW$371, DW_AT_TI_begin_file("../FreeRTOS/Source/tasks.c")
    4834                      .dwattr $C$DW$371, DW_AT_TI_begin_line(0xcff)
    4835                      .dwattr $C$DW$371, DW_AT_TI_end_line(0xd63)
    4836              $C$DW$372       .dwtag  DW_TAG_TI_loop_range
    4837                      .dwattr $C$DW$372, DW_AT_low_pc($C$DW$L$_prvIdleTask$2$B)
    4838                      .dwattr $C$DW$372, DW_AT_high_pc($C$DW$L$_prvIdleTask$2$E)
    4839              $C$DW$373       .dwtag  DW_TAG_TI_loop_range
    4840                      .dwattr $C$DW$373, DW_AT_low_pc($C$DW$L$_prvIdleTask$3$B)
    4841                      .dwattr $C$DW$373, DW_AT_high_pc($C$DW$L$_prvIdleTask$3$E)
    4842              $C$DW$374       .dwtag  DW_TAG_TI_loop_range
    4843                      .dwattr $C$DW$374, DW_AT_low_pc($C$DW$L$_prvIdleTask$4$B)
    4844                      .dwattr $C$DW$374, DW_AT_high_pc($C$DW$L$_prvIdleTask$4$E)
    4845                      .dwendtag $C$DW$371
    4846              
    4847                      .dwattr $C$DW$365, DW_AT_TI_end_file("../FreeRTOS/Source/tasks.c")
    4848                      .dwattr $C$DW$365, DW_AT_TI_end_line(0xd64)
    4849                      .dwattr $C$DW$365, DW_AT_TI_end_column(0x01)
    4850                      .dwendentry
    4851                      .dwendtag $C$DW$365
    4852              
    4853 000f80               .sect   ".text"
    4854                      .align 4
    4855              
TMS320C55x Assembler PC v4.4.1 Sat Sep 08 17:11:34 2018

Tools Copyright (c) 1996-2012 Texas Instruments Incorporated
tasks.asm                                                            PAGE  108

    4856              $C$DW$375       .dwtag  DW_TAG_subprogram, DW_AT_name("prvInitialiseTaskLists")
    4857                      .dwattr $C$DW$375, DW_AT_low_pc(_prvInitialiseTaskLists)
    4858                      .dwattr $C$DW$375, DW_AT_high_pc(0x00)
    4859                      .dwattr $C$DW$375, DW_AT_TI_symbol_name("_prvInitialiseTaskLists")
    4860                      .dwattr $C$DW$375, DW_AT_TI_begin_file("../FreeRTOS/Source/tasks.c")
    4861                      .dwattr $C$DW$375, DW_AT_TI_begin_line(0xdc6)
    4862                      .dwattr $C$DW$375, DW_AT_TI_begin_column(0x0d)
    4863                      .dwattr $C$DW$375, DW_AT_TI_max_frame_size(0x02)
    4864                      .dwpsn  file "../FreeRTOS/Source/tasks.c",line 3527,column 1,is_stmt,address _prvInitialiseTaskLists
    4865              
    4866                      .dwfde $C$DW$CIE, _prvInitialiseTaskLists
    4867              ;*******************************************************************************
    4868              ;* FUNCTION NAME: prvInitialiseTaskLists                                       *
    4869              ;*                                                                             *
    4870              ;*   Function Uses Regs : AC0,AR0,XAR0,AR1,AR2,AR3,XAR3,SP,CARRY,TC1,M40,SATA, *
    4871              ;*                        SATD,RDM,FRCT,SMUL                                   *
    4872              ;*   Stack Frame        : Compact (No Frame Pointer, w/ debug)                 *
    4873              ;*   Total Frame Size   : 2 words                                              *
    4874              ;*                        (1 return address/alignment)                         *
    4875              ;*                        (1 local values)                                     *
    4876              ;*   Min System Stack   : 1 word                                               *
    4877              ;*******************************************************************************
    4878 000f80       _prvInitialiseTaskLists:
    4879                      .dwcfi  cfa_offset, 1
    4880                      .dwcfi  save_reg_to_mem, 91, -1
    4881 000f80 4EFF          AADD #-1, SP
    4882                      .dwcfi  cfa_offset, 2
    4883              $C$DW$376       .dwtag  DW_TAG_variable, DW_AT_name("uxPriority")
    4884                      .dwattr $C$DW$376, DW_AT_TI_symbol_name("_uxPriority")
    4885                      .dwattr $C$DW$376, DW_AT_type(*$C$DW$T$25)
    4886                      .dwattr $C$DW$376, DW_AT_location[DW_OP_bregx 0x24 0]
    4887                      .dwpsn  file "../FreeRTOS/Source/tasks.c",line 3530,column 7,is_stmt
    4888 000f82 E600          MOV #0, *SP(#0) ; |3530| 
         000f84 00   
    4889                      .dwpsn  file "../FreeRTOS/Source/tasks.c",line 3530,column 40,is_stmt
    4890              
    4891 000f85 A900          MOV *SP(#0), AR1 ; |3530| 
    4892 000f87 3D4A  ||      MOV #4, AR2
    4893              
    4894 000f89 1298          CMPU AR1 >= AR2, TC1 ; |3530| 
         000f8b A4   
    4895 000f8c 0464          BCC $C$L120,TC1 ; |3530| 
         000f8e 21   
    4896                                                      ; branchcc occurs ; |3530| 
    4897 000f8f       $C$L119:    
    4898 000f8f       $C$DW$L$_prvInitialiseTaskLists$2$B:
    4899                      .dwpsn  file "../FreeRTOS/Source/tasks.c",line 3532,column 3,is_stmt
    4900 000f8f F800          MPYMK *SP(#0), #10, AC0 ; |3532| 
         000f91 0A00 
    4901 000f93 2209          MOV AC0, AR1 ; |3532| 
    4902 000f95 EC31          AMOV #_pxReadyTasksLists, XAR0 ; |3532| 
         000f97 8E00 
         000f99 0004-
    4903 000f9b 1490          AADD AR1, AR0 ; |3532| 
         000f9d 80   
TMS320C55x Assembler PC v4.4.1 Sat Sep 08 17:11:34 2018

Tools Copyright (c) 1996-2012 Texas Instruments Incorporated
tasks.asm                                                            PAGE  109

    4904              $C$DW$377       .dwtag  DW_TAG_TI_branch
    4905                      .dwattr $C$DW$377, DW_AT_low_pc(0x00)
    4906                      .dwattr $C$DW$377, DW_AT_name("_vListInitialise")
    4907                      .dwattr $C$DW$377, DW_AT_TI_call
    4908 000f9e 6C00          CALL #_vListInitialise ; |3532| 
         000fa0 0000!
    4909                                                      ; call occurs [#_vListInitialise] ; |3532| 
    4910                      .dwpsn  file "../FreeRTOS/Source/tasks.c",line 3530,column 91,is_stmt
    4911 000fa2 F700          ADD #1, *SP(#0) ; |3530| 
         000fa4 0001 
    4912                      .dwpsn  file "../FreeRTOS/Source/tasks.c",line 3530,column 40,is_stmt
    4913              
    4914 000fa6 A900          MOV *SP(#0), AR1 ; |3530| 
    4915 000fa8 3D4A  ||      MOV #4, AR2
    4916              
    4917 000faa 1294          CMPU AR1 < AR2, TC1 ; |3530| 
         000fac A4   
    4918 000fad 0464          BCC $C$L119,TC1 ; |3530| 
         000faf DF   
    4919                                                      ; branchcc occurs ; |3530| 
    4920 000fb0       $C$DW$L$_prvInitialiseTaskLists$2$E:
    4921 000fb0       $C$L120:    
    4922                      .dwpsn  file "../FreeRTOS/Source/tasks.c",line 3535,column 2,is_stmt
    4923 000fb0 EC31          AMOV #_xDelayedTaskList1, XAR0 ; |3535| 
         000fb2 8E00 
         000fb4 002C-
    4924              $C$DW$378       .dwtag  DW_TAG_TI_branch
    4925                      .dwattr $C$DW$378, DW_AT_low_pc(0x00)
    4926                      .dwattr $C$DW$378, DW_AT_name("_vListInitialise")
    4927                      .dwattr $C$DW$378, DW_AT_TI_call
    4928 000fb6 6C00          CALL #_vListInitialise ; |3535| 
         000fb8 0000!
    4929                                                      ; call occurs [#_vListInitialise] ; |3535| 
    4930                      .dwpsn  file "../FreeRTOS/Source/tasks.c",line 3536,column 2,is_stmt
    4931 000fba EC31          AMOV #_xDelayedTaskList2, XAR0 ; |3536| 
         000fbc 8E00 
         000fbe 0036-
    4932              $C$DW$379       .dwtag  DW_TAG_TI_branch
    4933                      .dwattr $C$DW$379, DW_AT_low_pc(0x00)
    4934                      .dwattr $C$DW$379, DW_AT_name("_vListInitialise")
    4935                      .dwattr $C$DW$379, DW_AT_TI_call
    4936 000fc0 6C00          CALL #_vListInitialise ; |3536| 
         000fc2 0000!
    4937                                                      ; call occurs [#_vListInitialise] ; |3536| 
    4938                      .dwpsn  file "../FreeRTOS/Source/tasks.c",line 3537,column 2,is_stmt
    4939 000fc4 EC31          AMOV #_xPendingReadyList, XAR0 ; |3537| 
         000fc6 8E00 
         000fc8 0044-
    4940              $C$DW$380       .dwtag  DW_TAG_TI_branch
    4941                      .dwattr $C$DW$380, DW_AT_low_pc(0x00)
    4942                      .dwattr $C$DW$380, DW_AT_name("_vListInitialise")
    4943                      .dwattr $C$DW$380, DW_AT_TI_call
    4944 000fca 6C00          CALL #_vListInitialise ; |3537| 
         000fcc 0000!
    4945                                                      ; call occurs [#_vListInitialise] ; |3537| 
TMS320C55x Assembler PC v4.4.1 Sat Sep 08 17:11:34 2018

Tools Copyright (c) 1996-2012 Texas Instruments Incorporated
tasks.asm                                                            PAGE  110

    4946                      .dwpsn  file "../FreeRTOS/Source/tasks.c",line 3541,column 3,is_stmt
    4947 000fce EC31          AMOV #_xTasksWaitingTermination, XAR0 ; |3541| 
         000fd0 8E00 
         000fd2 004E-
    4948              $C$DW$381       .dwtag  DW_TAG_TI_branch
    4949                      .dwattr $C$DW$381, DW_AT_low_pc(0x00)
    4950                      .dwattr $C$DW$381, DW_AT_name("_vListInitialise")
    4951                      .dwattr $C$DW$381, DW_AT_TI_call
    4952 000fd4 6C00          CALL #_vListInitialise ; |3541| 
         000fd6 0000!
    4953                                                      ; call occurs [#_vListInitialise] ; |3541| 
    4954                      .dwpsn  file "../FreeRTOS/Source/tasks.c",line 3547,column 3,is_stmt
    4955 000fd8 EC31          AMOV #_xSuspendedTaskList, XAR0 ; |3547| 
         000fda 8E00 
         000fdc 005A-
    4956              $C$DW$382       .dwtag  DW_TAG_TI_branch
    4957                      .dwattr $C$DW$382, DW_AT_low_pc(0x00)
    4958                      .dwattr $C$DW$382, DW_AT_name("_vListInitialise")
    4959                      .dwattr $C$DW$382, DW_AT_TI_call
    4960 000fde 6C00          CALL #_vListInitialise ; |3547| 
         000fe0 0000!
    4961                                                      ; call occurs [#_vListInitialise] ; |3547| 
    4962                      .dwpsn  file "../FreeRTOS/Source/tasks.c",line 3553,column 2,is_stmt
    4963 000fe2 EC31          AMOV #_xDelayedTaskList1, XAR3 ; |3553| 
         000fe4 BE00 
         000fe6 002C-
    4964 000fe8 EB31          MOV XAR3, dbl(*(#_pxDelayedTaskList))
         000fea B500 
         000fec 0040-
    4965                      .dwpsn  file "../FreeRTOS/Source/tasks.c",line 3554,column 2,is_stmt
    4966 000fee EC31          AMOV #_xDelayedTaskList2, XAR3 ; |3554| 
         000ff0 BE00 
         000ff2 0036-
    4967 000ff4 EB31          MOV XAR3, dbl(*(#_pxOverflowDelayedTaskList))
         000ff6 B500 
         000ff8 0042-
    4968                      .dwpsn  file "../FreeRTOS/Source/tasks.c",line 3555,column 1,is_stmt
    4969 000ffa 4E01          AADD #1, SP
    4970                      .dwcfi  cfa_offset, 1
    4971              $C$DW$383       .dwtag  DW_TAG_TI_branch
    4972                      .dwattr $C$DW$383, DW_AT_low_pc(0x00)
    4973                      .dwattr $C$DW$383, DW_AT_TI_return
    4974 000ffc 4804          RET
    4975                                                      ; return occurs
    4976              
    4977              $C$DW$384       .dwtag  DW_TAG_TI_loop
    4978                      .dwattr $C$DW$384, DW_AT_name("F:\eZdsp_C55x_FreeRTOS_Port\eZDSP\eZDSP_5535_Files\ccsws2\test\Debug\t
    4979                      .dwattr $C$DW$384, DW_AT_TI_begin_file("../FreeRTOS/Source/tasks.c")
    4980                      .dwattr $C$DW$384, DW_AT_TI_begin_line(0xdca)
    4981                      .dwattr $C$DW$384, DW_AT_TI_end_line(0xdcd)
    4982              $C$DW$385       .dwtag  DW_TAG_TI_loop_range
    4983                      .dwattr $C$DW$385, DW_AT_low_pc($C$DW$L$_prvInitialiseTaskLists$2$B)
    4984                      .dwattr $C$DW$385, DW_AT_high_pc($C$DW$L$_prvInitialiseTaskLists$2$E)
    4985                      .dwendtag $C$DW$384
    4986              
TMS320C55x Assembler PC v4.4.1 Sat Sep 08 17:11:34 2018

Tools Copyright (c) 1996-2012 Texas Instruments Incorporated
tasks.asm                                                            PAGE  111

    4987                      .dwattr $C$DW$375, DW_AT_TI_end_file("../FreeRTOS/Source/tasks.c")
    4988                      .dwattr $C$DW$375, DW_AT_TI_end_line(0xde3)
    4989                      .dwattr $C$DW$375, DW_AT_TI_end_column(0x01)
    4990                      .dwendentry
    4991                      .dwendtag $C$DW$375
    4992              
    4993 000ffe               .sect   ".text"
    4994                      .align 4
    4995              
    4996              $C$DW$386       .dwtag  DW_TAG_subprogram, DW_AT_name("prvCheckTasksWaitingTermination")
    4997                      .dwattr $C$DW$386, DW_AT_low_pc(_prvCheckTasksWaitingTermination)
    4998                      .dwattr $C$DW$386, DW_AT_high_pc(0x00)
    4999                      .dwattr $C$DW$386, DW_AT_TI_symbol_name("_prvCheckTasksWaitingTermination")
    5000                      .dwattr $C$DW$386, DW_AT_TI_begin_file("../FreeRTOS/Source/tasks.c")
    5001                      .dwattr $C$DW$386, DW_AT_TI_begin_line(0xde6)
    5002                      .dwattr $C$DW$386, DW_AT_TI_begin_column(0x0d)
    5003                      .dwattr $C$DW$386, DW_AT_TI_max_frame_size(0x04)
    5004                      .dwpsn  file "../FreeRTOS/Source/tasks.c",line 3559,column 1,is_stmt,address _prvCheckTasksWaitingTer
    5005              
    5006                      .dwfde $C$DW$CIE, _prvCheckTasksWaitingTermination
    5007              ;*******************************************************************************
    5008              ;* FUNCTION NAME: prvCheckTasksWaitingTermination                              *
    5009              ;*                                                                             *
    5010              ;*   Function Uses Regs : AR0,XAR0,AR1,AR3,XAR3,SP,CARRY,M40,SATA,SATD,RDM,    *
    5011              ;*                        FRCT,SMUL                                            *
    5012              ;*   Stack Frame        : Compact (No Frame Pointer, w/ debug)                 *
    5013              ;*   Total Frame Size   : 4 words                                              *
    5014              ;*                        (2 return address/alignment)                         *
    5015              ;*                        (2 local values)                                     *
    5016              ;*   Min System Stack   : 1 word                                               *
    5017              ;*******************************************************************************
    5018 001000       _prvCheckTasksWaitingTermination:
    5019                      .dwcfi  cfa_offset, 1
    5020                      .dwcfi  save_reg_to_mem, 91, -1
    5021 001000 4EFD          AADD #-3, SP
    5022                      .dwcfi  cfa_offset, 4
    5023              
    5024              $C$DW$387       .dwtag  DW_TAG_lexical_block, DW_AT_low_pc(0x00), DW_AT_high_pc(0x00)
    5025              $C$DW$388       .dwtag  DW_TAG_variable, DW_AT_name("pxTCB")
    5026                      .dwattr $C$DW$388, DW_AT_TI_symbol_name("_pxTCB")
    5027                      .dwattr $C$DW$388, DW_AT_type(*$C$DW$T$82)
    5028                      .dwattr $C$DW$388, DW_AT_location[DW_OP_bregx 0x24 0]
    5029                      .dwpsn  file "../FreeRTOS/Source/tasks.c",line 3569,column 10,is_stmt
    5030 001002 A931          MOV *(#_uxDeletedTasksWaitingCleanUp), AR1 ; |3569| 
         001004 0000 
         001006 58-  
    5031 001007 0409          BCC $C$L123,AR1 == #0 ; |3569| 
         001009 5B   
    5032                                                      ; branchcc occurs ; |3569| 
    5033 00100a       $C$L121:    
    5034 00100a       $C$DW$L$_prvCheckTasksWaitingTermination$2$B:
    5035                      .dwpsn  file "../FreeRTOS/Source/tasks.c",line 3571,column 4,is_stmt
    5036 00100a 20     nop
    5037 00100b 46B3   bset INTM
    5038 00100d F731          ADD #1, *(#_usCriticalNesting) ; |3571| 
TMS320C55x Assembler PC v4.4.1 Sat Sep 08 17:11:34 2018

Tools Copyright (c) 1996-2012 Texas Instruments Incorporated
tasks.asm                                                            PAGE  112

         00100f 0001 
         001011 0000 
         001013 00!  
    5039                      .dwpsn  file "../FreeRTOS/Source/tasks.c",line 3573,column 5,is_stmt
    5040 001014 ED31          MOV dbl(*(#(_xTasksWaitingTermination+6))), XAR3
         001016 BF00 
         001018 0054-
    5041 00101a ED7D          MOV dbl(*AR3(short(#6))), XAR3
         00101c BF   
    5042 00101d EB00          MOV XAR3, dbl(*SP(#0))
         00101f B5   
    5043                      .dwpsn  file "../FreeRTOS/Source/tasks.c",line 3574,column 5,is_stmt
    5044 001020 ED00          MOV dbl(*SP(#0)), XAR0
         001022 8F   
    5045 001023 1404          AADD #4, AR0 ; |3574| 
         001025 84   
    5046              $C$DW$389       .dwtag  DW_TAG_TI_branch
    5047                      .dwattr $C$DW$389, DW_AT_low_pc(0x00)
    5048                      .dwattr $C$DW$389, DW_AT_name("_uxListRemove")
    5049                      .dwattr $C$DW$389, DW_AT_TI_call
    5050 001026 6C00          CALL #_uxListRemove ; |3574| 
         001028 0000!
    5051                                                      ; call occurs [#_uxListRemove] ; |3574| 
    5052                      .dwpsn  file "../FreeRTOS/Source/tasks.c",line 3575,column 5,is_stmt
    5053 00102a F731          SUB #1, *(#_uxCurrentNumberOfTasks) ; |3575| 
         00102c FFFF 
         00102e 0000 
         001030 59-  
    5054                      .dwpsn  file "../FreeRTOS/Source/tasks.c",line 3576,column 5,is_stmt
    5055 001031 F731          SUB #1, *(#_uxDeletedTasksWaitingCleanUp) ; |3576| 
         001033 FFFF 
         001035 0000 
         001037 58-  
    5056 001038 20            NOP
    5057 001039 20            NOP
    5058 00103a 20            NOP
    5059                      .dwpsn  file "../FreeRTOS/Source/tasks.c",line 3578,column 4,is_stmt
    5060 00103b A931          MOV *(#_usCriticalNesting), AR1 ; |3578| 
         00103d 0000 
         00103f 00!  
    5061 001040 0409          BCC $C$L122,AR1 == #0 ; |3578| 
         001042 14   
    5062                                                      ; branchcc occurs ; |3578| 
    5063 001043       $C$DW$L$_prvCheckTasksWaitingTermination$2$E:
    5064 001043       $C$DW$L$_prvCheckTasksWaitingTermination$3$B:
    5065 001043 F731          SUB #1, *(#_usCriticalNesting) ; |3578| 
         001045 FFFF 
         001047 0000 
         001049 00!  
    5066 00104a 20            NOP
    5067 00104b 20            NOP
    5068 00104c 20            NOP
    5069 00104d A931          MOV *(#_usCriticalNesting), AR1 ; |3578| 
         00104f 0000 
         001051 00!  
TMS320C55x Assembler PC v4.4.1 Sat Sep 08 17:11:34 2018

Tools Copyright (c) 1996-2012 Texas Instruments Incorporated
tasks.asm                                                            PAGE  113

    5070 001052 6199          BCC $C$L122,AR1 != #0 ; |3578| 
    5071                                                      ; branchcc occurs ; |3578| 
    5072 001054       $C$DW$L$_prvCheckTasksWaitingTermination$3$E:
    5073 001054       $C$DW$L$_prvCheckTasksWaitingTermination$4$B:
    5074 001054 20     nop
    5075 001055 46B2   bclr INTM
    5076 001057       $C$DW$L$_prvCheckTasksWaitingTermination$4$E:
    5077 001057       $C$L122:    
    5078 001057       $C$DW$L$_prvCheckTasksWaitingTermination$5$B:
    5079                      .dwpsn  file "../FreeRTOS/Source/tasks.c",line 3580,column 4,is_stmt
    5080 001057 ED00          MOV dbl(*SP(#0)), XAR0
         001059 8F   
    5081              $C$DW$390       .dwtag  DW_TAG_TI_branch
    5082                      .dwattr $C$DW$390, DW_AT_low_pc(0x00)
    5083                      .dwattr $C$DW$390, DW_AT_name("_prvDeleteTCB")
    5084                      .dwattr $C$DW$390, DW_AT_TI_call
    5085 00105a 0800          CALL #_prvDeleteTCB ; |3580| 
         00105c 73   
    5086                                                      ; call occurs [#_prvDeleteTCB] ; |3580| 
    5087                      .dwpsn  file "../FreeRTOS/Source/tasks.c",line 3569,column 10,is_stmt
    5088 00105d A931          MOV *(#_uxDeletedTasksWaitingCleanUp), AR1 ; |3569| 
         00105f 0000 
         001061 58-  
    5089 001062 0419          BCC $C$L121,AR1 != #0 ; |3569| 
         001064 A5   
    5090                                                      ; branchcc occurs ; |3569| 
    5091              $C$DW$L$_prvCheckTasksWaitingTermination$5$E:
    5092                      .dwendtag $C$DW$387
    5093              
    5094                      .dwpsn  file "../FreeRTOS/Source/tasks.c",line 3584,column 1,is_stmt
    5095 001065       $C$L123:    
    5096 001065 4E03          AADD #3, SP
    5097                      .dwcfi  cfa_offset, 1
    5098              $C$DW$391       .dwtag  DW_TAG_TI_branch
    5099                      .dwattr $C$DW$391, DW_AT_low_pc(0x00)
    5100                      .dwattr $C$DW$391, DW_AT_TI_return
    5101 001067 4804          RET
    5102                                                      ; return occurs
    5103              
    5104              $C$DW$392       .dwtag  DW_TAG_TI_loop
    5105                      .dwattr $C$DW$392, DW_AT_name("F:\eZdsp_C55x_FreeRTOS_Port\eZDSP\eZDSP_5535_Files\ccsws2\test\Debug\t
    5106                      .dwattr $C$DW$392, DW_AT_TI_begin_file("../FreeRTOS/Source/tasks.c")
    5107                      .dwattr $C$DW$392, DW_AT_TI_begin_line(0xdf1)
    5108                      .dwattr $C$DW$392, DW_AT_TI_end_line(0xdfd)
    5109              $C$DW$393       .dwtag  DW_TAG_TI_loop_range
    5110                      .dwattr $C$DW$393, DW_AT_low_pc($C$DW$L$_prvCheckTasksWaitingTermination$2$B)
    5111                      .dwattr $C$DW$393, DW_AT_high_pc($C$DW$L$_prvCheckTasksWaitingTermination$2$E)
    5112              $C$DW$394       .dwtag  DW_TAG_TI_loop_range
    5113                      .dwattr $C$DW$394, DW_AT_low_pc($C$DW$L$_prvCheckTasksWaitingTermination$3$B)
    5114                      .dwattr $C$DW$394, DW_AT_high_pc($C$DW$L$_prvCheckTasksWaitingTermination$3$E)
    5115              $C$DW$395       .dwtag  DW_TAG_TI_loop_range
    5116                      .dwattr $C$DW$395, DW_AT_low_pc($C$DW$L$_prvCheckTasksWaitingTermination$4$B)
    5117                      .dwattr $C$DW$395, DW_AT_high_pc($C$DW$L$_prvCheckTasksWaitingTermination$4$E)
    5118              $C$DW$396       .dwtag  DW_TAG_TI_loop_range
    5119                      .dwattr $C$DW$396, DW_AT_low_pc($C$DW$L$_prvCheckTasksWaitingTermination$5$B)
TMS320C55x Assembler PC v4.4.1 Sat Sep 08 17:11:34 2018

Tools Copyright (c) 1996-2012 Texas Instruments Incorporated
tasks.asm                                                            PAGE  114

    5120                      .dwattr $C$DW$396, DW_AT_high_pc($C$DW$L$_prvCheckTasksWaitingTermination$5$E)
    5121                      .dwendtag $C$DW$392
    5122              
    5123                      .dwattr $C$DW$386, DW_AT_TI_end_file("../FreeRTOS/Source/tasks.c")
    5124                      .dwattr $C$DW$386, DW_AT_TI_end_line(0xe00)
    5125                      .dwattr $C$DW$386, DW_AT_TI_end_column(0x01)
    5126                      .dwendentry
    5127                      .dwendtag $C$DW$386
    5128              
    5129 001069               .sect   ".text"
    5130                      .align 4
    5131              
    5132              $C$DW$397       .dwtag  DW_TAG_subprogram, DW_AT_name("prvTaskCheckFreeStackSpace")
    5133                      .dwattr $C$DW$397, DW_AT_low_pc(_prvTaskCheckFreeStackSpace)
    5134                      .dwattr $C$DW$397, DW_AT_high_pc(0x00)
    5135                      .dwattr $C$DW$397, DW_AT_TI_symbol_name("_prvTaskCheckFreeStackSpace")
    5136                      .dwattr $C$DW$397, DW_AT_type(*$C$DW$T$117)
    5137                      .dwattr $C$DW$397, DW_AT_TI_begin_file("../FreeRTOS/Source/tasks.c")
    5138                      .dwattr $C$DW$397, DW_AT_TI_begin_line(0xe8a)
    5139                      .dwattr $C$DW$397, DW_AT_TI_begin_column(0x20)
    5140                      .dwattr $C$DW$397, DW_AT_TI_max_frame_size(0x06)
    5141                      .dwpsn  file "../FreeRTOS/Source/tasks.c",line 3723,column 2,is_stmt,address _prvTaskCheckFreeStackSp
    5142              
    5143                      .dwfde $C$DW$CIE, _prvTaskCheckFreeStackSpace
    5144              $C$DW$398       .dwtag  DW_TAG_formal_parameter, DW_AT_name("pucStackByte")
    5145                      .dwattr $C$DW$398, DW_AT_TI_symbol_name("_pucStackByte")
    5146                      .dwattr $C$DW$398, DW_AT_type(*$C$DW$T$113)
    5147                      .dwattr $C$DW$398, DW_AT_location[DW_OP_reg17]
    5148              ;*******************************************************************************
    5149              ;* FUNCTION NAME: prvTaskCheckFreeStackSpace                                   *
    5150              ;*                                                                             *
    5151              ;*   Function Uses Regs : AC0,AC0,T0,AR0,XAR0,AR3,XAR3,SP,CARRY,TC1,M40,SATA,  *
    5152              ;*                        SATD,RDM,FRCT,SMUL                                   *
    5153              ;*   Stack Frame        : Compact (No Frame Pointer, w/ debug)                 *
    5154              ;*   Total Frame Size   : 6 words                                              *
    5155              ;*                        (2 return address/alignment)                         *
    5156              ;*                        (4 local values)                                     *
    5157              ;*   Min System Stack   : 1 word                                               *
    5158              ;*******************************************************************************
    5159 00106c       _prvTaskCheckFreeStackSpace:
    5160                      .dwcfi  cfa_offset, 1
    5161                      .dwcfi  save_reg_to_mem, 91, -1
    5162 00106c 4EFB          AADD #-5, SP
    5163                      .dwcfi  cfa_offset, 6
    5164              $C$DW$399       .dwtag  DW_TAG_variable, DW_AT_name("pucStackByte")
    5165                      .dwattr $C$DW$399, DW_AT_TI_symbol_name("_pucStackByte")
    5166                      .dwattr $C$DW$399, DW_AT_type(*$C$DW$T$113)
    5167                      .dwattr $C$DW$399, DW_AT_location[DW_OP_bregx 0x24 0]
    5168              $C$DW$400       .dwtag  DW_TAG_variable, DW_AT_name("ulCount")
    5169                      .dwattr $C$DW$400, DW_AT_TI_symbol_name("_ulCount")
    5170                      .dwattr $C$DW$400, DW_AT_type(*$C$DW$T$29)
    5171                      .dwattr $C$DW$400, DW_AT_location[DW_OP_bregx 0x24 2]
    5172 00106e EB00          MOV XAR0, dbl(*SP(#0))
         001070 85   
    5173                      .dwpsn  file "../FreeRTOS/Source/tasks.c",line 3724,column 11,is_stmt
TMS320C55x Assembler PC v4.4.1 Sat Sep 08 17:11:34 2018

Tools Copyright (c) 1996-2012 Texas Instruments Incorporated
tasks.asm                                                            PAGE  115

    5174 001071 3C00          MOV #0, AC0 ; |3724| 
    5175 001073 EB04          MOV AC0, dbl(*SP(#2)) ; |3724| 
         001075 08   
    5176                      .dwpsn  file "../FreeRTOS/Source/tasks.c",line 3726,column 10,is_stmt
    5177 001076 ED00          MOV dbl(*SP(#0)), XAR3
         001078 BF   
    5178 001079 F061          CMP *AR3 == #165, TC1 ; |3726| 
         00107b 00A5 
    5179 00107d 0474          BCC $C$L125,!TC1 ; |3726| 
         00107f 17   
    5180                                                      ; branchcc occurs ; |3726| 
    5181 001080       $C$L124:    
    5182 001080       $C$DW$L$_prvTaskCheckFreeStackSpace$2$B:
    5183                      .dwpsn  file "../FreeRTOS/Source/tasks.c",line 3728,column 4,is_stmt
    5184 001080 B463          AMAR *AR3+
    5185 001082 EB00          MOV XAR3, dbl(*SP(#0))
         001084 B5   
    5186                      .dwpsn  file "../FreeRTOS/Source/tasks.c",line 3729,column 4,is_stmt
    5187 001085 ED04          MOV dbl(*SP(#2)), AC0 ; |3729| 
         001087 08   
    5188 001088 4010          ADD #1, AC0 ; |3729| 
    5189 00108a EB04          MOV AC0, dbl(*SP(#2)) ; |3729| 
         00108c 08   
    5190                      .dwpsn  file "../FreeRTOS/Source/tasks.c",line 3726,column 10,is_stmt
    5191 00108d ED00          MOV dbl(*SP(#0)), XAR3
         00108f BF   
    5192 001090 F061          CMP *AR3 == #165, TC1 ; |3726| 
         001092 00A5 
    5193 001094 0464          BCC $C$L124,TC1 ; |3726| 
         001096 E9   
    5194                                                      ; branchcc occurs ; |3726| 
    5195 001097       $C$DW$L$_prvTaskCheckFreeStackSpace$2$E:
    5196 001097       $C$L125:    
    5197                      .dwpsn  file "../FreeRTOS/Source/tasks.c",line 3732,column 3,is_stmt
    5198 001097 ED04          MOV dbl(*SP(#2)), AC0 ; |3732| 
         001099 08   
    5199 00109a EB04          MOV AC0, dbl(*SP(#2)) ; |3732| 
         00109c 08   
    5200                      .dwpsn  file "../FreeRTOS/Source/tasks.c",line 3734,column 3,is_stmt
    5201 00109d A406          MOV *SP(#3), T0 ; |3734| 
    5202                      .dwpsn  file "../FreeRTOS/Source/tasks.c",line 3735,column 2,is_stmt
    5203 00109f 4E05          AADD #5, SP
    5204                      .dwcfi  cfa_offset, 1
    5205              $C$DW$401       .dwtag  DW_TAG_TI_branch
    5206                      .dwattr $C$DW$401, DW_AT_low_pc(0x00)
    5207                      .dwattr $C$DW$401, DW_AT_TI_return
    5208 0010a1 4804          RET
    5209                                                      ; return occurs
    5210              
    5211              $C$DW$402       .dwtag  DW_TAG_TI_loop
    5212                      .dwattr $C$DW$402, DW_AT_name("F:\eZdsp_C55x_FreeRTOS_Port\eZDSP\eZDSP_5535_Files\ccsws2\test\Debug\t
    5213                      .dwattr $C$DW$402, DW_AT_TI_begin_file("../FreeRTOS/Source/tasks.c")
    5214                      .dwattr $C$DW$402, DW_AT_TI_begin_line(0xe8e)
    5215                      .dwattr $C$DW$402, DW_AT_TI_end_line(0xe92)
    5216              $C$DW$403       .dwtag  DW_TAG_TI_loop_range
TMS320C55x Assembler PC v4.4.1 Sat Sep 08 17:11:34 2018

Tools Copyright (c) 1996-2012 Texas Instruments Incorporated
tasks.asm                                                            PAGE  116

    5217                      .dwattr $C$DW$403, DW_AT_low_pc($C$DW$L$_prvTaskCheckFreeStackSpace$2$B)
    5218                      .dwattr $C$DW$403, DW_AT_high_pc($C$DW$L$_prvTaskCheckFreeStackSpace$2$E)
    5219                      .dwendtag $C$DW$402
    5220              
    5221                      .dwattr $C$DW$397, DW_AT_TI_end_file("../FreeRTOS/Source/tasks.c")
    5222                      .dwattr $C$DW$397, DW_AT_TI_end_line(0xe97)
    5223                      .dwattr $C$DW$397, DW_AT_TI_end_column(0x02)
    5224                      .dwendentry
    5225                      .dwendtag $C$DW$397
    5226              
    5227 0010a3               .sect   ".text"
    5228                      .align 4
    5229                      .global _uxTaskGetStackHighWaterMark
    5230              
    5231              $C$DW$404       .dwtag  DW_TAG_subprogram, DW_AT_name("uxTaskGetStackHighWaterMark")
    5232                      .dwattr $C$DW$404, DW_AT_low_pc(_uxTaskGetStackHighWaterMark)
    5233                      .dwattr $C$DW$404, DW_AT_high_pc(0x00)
    5234                      .dwattr $C$DW$404, DW_AT_TI_symbol_name("_uxTaskGetStackHighWaterMark")
    5235                      .dwattr $C$DW$404, DW_AT_external
    5236                      .dwattr $C$DW$404, DW_AT_type(*$C$DW$T$25)
    5237                      .dwattr $C$DW$404, DW_AT_TI_begin_file("../FreeRTOS/Source/tasks.c")
    5238                      .dwattr $C$DW$404, DW_AT_TI_begin_line(0xe9e)
    5239                      .dwattr $C$DW$404, DW_AT_TI_begin_column(0x0e)
    5240                      .dwattr $C$DW$404, DW_AT_TI_max_frame_size(0x08)
    5241                      .dwpsn  file "../FreeRTOS/Source/tasks.c",line 3743,column 2,is_stmt,address _uxTaskGetStackHighWater
    5242              
    5243                      .dwfde $C$DW$CIE, _uxTaskGetStackHighWaterMark
    5244              $C$DW$405       .dwtag  DW_TAG_formal_parameter, DW_AT_name("xTask")
    5245                      .dwattr $C$DW$405, DW_AT_TI_symbol_name("_xTask")
    5246                      .dwattr $C$DW$405, DW_AT_type(*$C$DW$T$70)
    5247                      .dwattr $C$DW$405, DW_AT_location[DW_OP_reg17]
    5248              ;*******************************************************************************
    5249              ;* FUNCTION NAME: uxTaskGetStackHighWaterMark                                  *
    5250              ;*                                                                             *
    5251              ;*   Function Uses Regs : AC0,AC0,T0,AR0,XAR0,AR3,XAR3,SP,M40,SATA,SATD,RDM,   *
    5252              ;*                        FRCT,SMUL                                            *
    5253              ;*   Stack Frame        : Compact (No Frame Pointer, w/ debug)                 *
    5254              ;*   Total Frame Size   : 8 words                                              *
    5255              ;*                        (1 return address/alignment)                         *
    5256              ;*                        (7 local values)                                     *
    5257              ;*   Min System Stack   : 1 word                                               *
    5258              ;*******************************************************************************
    5259 0010a4       _uxTaskGetStackHighWaterMark:
    5260                      .dwcfi  cfa_offset, 1
    5261                      .dwcfi  save_reg_to_mem, 91, -1
    5262 0010a4 4EF9          AADD #-7, SP
    5263                      .dwcfi  cfa_offset, 8
    5264              $C$DW$406       .dwtag  DW_TAG_variable, DW_AT_name("xTask")
    5265                      .dwattr $C$DW$406, DW_AT_TI_symbol_name("_xTask")
    5266                      .dwattr $C$DW$406, DW_AT_type(*$C$DW$T$70)
    5267                      .dwattr $C$DW$406, DW_AT_location[DW_OP_bregx 0x24 0]
    5268              $C$DW$407       .dwtag  DW_TAG_variable, DW_AT_name("pxTCB")
    5269                      .dwattr $C$DW$407, DW_AT_TI_symbol_name("_pxTCB")
    5270                      .dwattr $C$DW$407, DW_AT_type(*$C$DW$T$82)
    5271                      .dwattr $C$DW$407, DW_AT_location[DW_OP_bregx 0x24 2]
TMS320C55x Assembler PC v4.4.1 Sat Sep 08 17:11:34 2018

Tools Copyright (c) 1996-2012 Texas Instruments Incorporated
tasks.asm                                                            PAGE  117

    5272              $C$DW$408       .dwtag  DW_TAG_variable, DW_AT_name("pucEndOfStack")
    5273                      .dwattr $C$DW$408, DW_AT_TI_symbol_name("_pucEndOfStack")
    5274                      .dwattr $C$DW$408, DW_AT_type(*$C$DW$T$111)
    5275                      .dwattr $C$DW$408, DW_AT_location[DW_OP_bregx 0x24 4]
    5276              $C$DW$409       .dwtag  DW_TAG_variable, DW_AT_name("uxReturn")
    5277                      .dwattr $C$DW$409, DW_AT_TI_symbol_name("_uxReturn")
    5278                      .dwattr $C$DW$409, DW_AT_type(*$C$DW$T$25)
    5279                      .dwattr $C$DW$409, DW_AT_location[DW_OP_bregx 0x24 6]
    5280 0010a6 EB00          MOV XAR0, dbl(*SP(#0))
         0010a8 85   
    5281                      .dwpsn  file "../FreeRTOS/Source/tasks.c",line 3748,column 3,is_stmt
    5282 0010a9 ED00          MOV dbl(*SP(#0)), XAR3
         0010ab BF   
    5283 0010ac 90B0          MOV XAR3, AC0
    5284 0010ae 6310          BCC $C$L126,AC0 != #0 ; |3748| 
    5285                                                      ; branchcc occurs ; |3748| 
    5286 0010b0 ED31          MOV dbl(*(#_pxCurrentTCB)), XAR3
         0010b2 BF00 
         0010b4 0002-
    5287 0010b6       $C$L126:    
    5288 0010b6 EB04          MOV XAR3, dbl(*SP(#2))
         0010b8 B5   
    5289                      .dwpsn  file "../FreeRTOS/Source/tasks.c",line 3752,column 4,is_stmt
    5290 0010b9 ED6D          MOV dbl(*AR3(#26)), XAR3
         0010bb BF00 
         0010bd 1A   
    5291 0010be EB08          MOV XAR3, dbl(*SP(#4))
         0010c0 B5   
    5292                      .dwpsn  file "../FreeRTOS/Source/tasks.c",line 3762,column 3,is_stmt
    5293 0010c1 ED08          MOV dbl(*SP(#4)), XAR0
         0010c3 8F   
    5294              $C$DW$410       .dwtag  DW_TAG_TI_branch
    5295                      .dwattr $C$DW$410, DW_AT_low_pc(0x00)
    5296                      .dwattr $C$DW$410, DW_AT_name("_prvTaskCheckFreeStackSpace")
    5297                      .dwattr $C$DW$410, DW_AT_TI_call
    5298 0010c4 08FF          CALL #_prvTaskCheckFreeStackSpace ; |3762| 
         0010c6 A5   
    5299                                                      ; call occurs [#_prvTaskCheckFreeStackSpace] ; |3762| 
    5300 0010c7 C40C          MOV T0, *SP(#6) ; |3762| 
    5301                      .dwpsn  file "../FreeRTOS/Source/tasks.c",line 3764,column 3,is_stmt
    5302                      .dwpsn  file "../FreeRTOS/Source/tasks.c",line 3765,column 2,is_stmt
    5303 0010c9 4E07          AADD #7, SP
    5304                      .dwcfi  cfa_offset, 1
    5305              $C$DW$411       .dwtag  DW_TAG_TI_branch
    5306                      .dwattr $C$DW$411, DW_AT_low_pc(0x00)
    5307                      .dwattr $C$DW$411, DW_AT_TI_return
    5308 0010cb 4804          RET
    5309                                                      ; return occurs
    5310                      .dwattr $C$DW$404, DW_AT_TI_end_file("../FreeRTOS/Source/tasks.c")
    5311                      .dwattr $C$DW$404, DW_AT_TI_end_line(0xeb5)
    5312                      .dwattr $C$DW$404, DW_AT_TI_end_column(0x02)
    5313                      .dwendentry
    5314                      .dwendtag $C$DW$404
    5315              
    5316 0010cd               .sect   ".text"
TMS320C55x Assembler PC v4.4.1 Sat Sep 08 17:11:34 2018

Tools Copyright (c) 1996-2012 Texas Instruments Incorporated
tasks.asm                                                            PAGE  118

    5317                      .align 4
    5318              
    5319              $C$DW$412       .dwtag  DW_TAG_subprogram, DW_AT_name("prvDeleteTCB")
    5320                      .dwattr $C$DW$412, DW_AT_low_pc(_prvDeleteTCB)
    5321                      .dwattr $C$DW$412, DW_AT_high_pc(0x00)
    5322                      .dwattr $C$DW$412, DW_AT_TI_symbol_name("_prvDeleteTCB")
    5323                      .dwattr $C$DW$412, DW_AT_TI_begin_file("../FreeRTOS/Source/tasks.c")
    5324                      .dwattr $C$DW$412, DW_AT_TI_begin_line(0xebc)
    5325                      .dwattr $C$DW$412, DW_AT_TI_begin_column(0x0e)
    5326                      .dwattr $C$DW$412, DW_AT_TI_max_frame_size(0x04)
    5327                      .dwpsn  file "../FreeRTOS/Source/tasks.c",line 3773,column 2,is_stmt,address _prvDeleteTCB
    5328              
    5329                      .dwfde $C$DW$CIE, _prvDeleteTCB
    5330              $C$DW$413       .dwtag  DW_TAG_formal_parameter, DW_AT_name("pxTCB")
    5331                      .dwattr $C$DW$413, DW_AT_TI_symbol_name("_pxTCB")
    5332                      .dwattr $C$DW$413, DW_AT_type(*$C$DW$T$82)
    5333                      .dwattr $C$DW$413, DW_AT_location[DW_OP_reg17]
    5334              ;*******************************************************************************
    5335              ;* FUNCTION NAME: prvDeleteTCB                                                 *
    5336              ;*                                                                             *
    5337              ;*   Function Uses Regs : AR0,XAR0,AR3,XAR3,SP,M40,SATA,SATD,RDM,FRCT,SMUL     *
    5338              ;*   Stack Frame        : Compact (No Frame Pointer, w/ debug)                 *
    5339              ;*   Total Frame Size   : 4 words                                              *
    5340              ;*                        (2 return address/alignment)                         *
    5341              ;*                        (2 local values)                                     *
    5342              ;*   Min System Stack   : 1 word                                               *
    5343              ;*******************************************************************************
    5344 0010d0       _prvDeleteTCB:
    5345                      .dwcfi  cfa_offset, 1
    5346                      .dwcfi  save_reg_to_mem, 91, -1
    5347 0010d0 4EFD          AADD #-3, SP
    5348                      .dwcfi  cfa_offset, 4
    5349              $C$DW$414       .dwtag  DW_TAG_variable, DW_AT_name("pxTCB")
    5350                      .dwattr $C$DW$414, DW_AT_TI_symbol_name("_pxTCB")
    5351                      .dwattr $C$DW$414, DW_AT_type(*$C$DW$T$82)
    5352                      .dwattr $C$DW$414, DW_AT_location[DW_OP_bregx 0x24 0]
    5353 0010d2 EB00          MOV XAR0, dbl(*SP(#0))
         0010d4 85   
    5354                      .dwpsn  file "../FreeRTOS/Source/tasks.c",line 3777,column 3,is_stmt
    5355                      .dwpsn  file "../FreeRTOS/Source/tasks.c",line 3791,column 4,is_stmt
    5356 0010d5 ED00          MOV dbl(*SP(#0)), XAR3
         0010d7 BF   
    5357 0010d8 ED6D          MOV dbl(*AR3(#26)), XAR0
         0010da 8F00 
         0010dc 1A   
    5358              $C$DW$415       .dwtag  DW_TAG_TI_branch
    5359                      .dwattr $C$DW$415, DW_AT_low_pc(0x00)
    5360                      .dwattr $C$DW$415, DW_AT_name("_vPortFree")
    5361                      .dwattr $C$DW$415, DW_AT_TI_call
    5362 0010dd 6C00          CALL #_vPortFree ; |3791| 
         0010df 0000!
    5363                                                      ; call occurs [#_vPortFree] ; |3791| 
    5364                      .dwpsn  file "../FreeRTOS/Source/tasks.c",line 3792,column 4,is_stmt
    5365 0010e1 ED00          MOV dbl(*SP(#0)), XAR3
         0010e3 BF   
TMS320C55x Assembler PC v4.4.1 Sat Sep 08 17:11:34 2018

Tools Copyright (c) 1996-2012 Texas Instruments Incorporated
tasks.asm                                                            PAGE  119

    5366 0010e4 ED6D          MOV dbl(*AR3(#28)), XAR0
         0010e6 8F00 
         0010e8 1C   
    5367              $C$DW$416       .dwtag  DW_TAG_TI_branch
    5368                      .dwattr $C$DW$416, DW_AT_low_pc(0x00)
    5369                      .dwattr $C$DW$416, DW_AT_name("_vPortFree")
    5370                      .dwattr $C$DW$416, DW_AT_TI_call
    5371 0010e9 6C00          CALL #_vPortFree ; |3792| 
         0010eb 0000!
    5372                                                      ; call occurs [#_vPortFree] ; |3792| 
    5373                      .dwpsn  file "../FreeRTOS/Source/tasks.c",line 3793,column 4,is_stmt
    5374 0010ed ED00          MOV dbl(*SP(#0)), XAR0
         0010ef 8F   
    5375              $C$DW$417       .dwtag  DW_TAG_TI_branch
    5376                      .dwattr $C$DW$417, DW_AT_low_pc(0x00)
    5377                      .dwattr $C$DW$417, DW_AT_name("_vPortFree")
    5378                      .dwattr $C$DW$417, DW_AT_TI_call
    5379 0010f0 6C00          CALL #_vPortFree ; |3793| 
         0010f2 0000!
    5380                                                      ; call occurs [#_vPortFree] ; |3793| 
    5381                      .dwpsn  file "../FreeRTOS/Source/tasks.c",line 3823,column 2,is_stmt
    5382 0010f4 4E03          AADD #3, SP
    5383                      .dwcfi  cfa_offset, 1
    5384              $C$DW$418       .dwtag  DW_TAG_TI_branch
    5385                      .dwattr $C$DW$418, DW_AT_low_pc(0x00)
    5386                      .dwattr $C$DW$418, DW_AT_TI_return
    5387 0010f6 4804          RET
    5388                                                      ; return occurs
    5389                      .dwattr $C$DW$412, DW_AT_TI_end_file("../FreeRTOS/Source/tasks.c")
    5390                      .dwattr $C$DW$412, DW_AT_TI_end_line(0xeef)
    5391                      .dwattr $C$DW$412, DW_AT_TI_end_column(0x02)
    5392                      .dwendentry
    5393                      .dwendtag $C$DW$412
    5394              
    5395 0010f8               .sect   ".text"
    5396                      .align 4
    5397              
    5398              $C$DW$419       .dwtag  DW_TAG_subprogram, DW_AT_name("prvResetNextTaskUnblockTime")
    5399                      .dwattr $C$DW$419, DW_AT_low_pc(_prvResetNextTaskUnblockTime)
    5400                      .dwattr $C$DW$419, DW_AT_high_pc(0x00)
    5401                      .dwattr $C$DW$419, DW_AT_TI_symbol_name("_prvResetNextTaskUnblockTime")
    5402                      .dwattr $C$DW$419, DW_AT_TI_begin_file("../FreeRTOS/Source/tasks.c")
    5403                      .dwattr $C$DW$419, DW_AT_TI_begin_line(0xef4)
    5404                      .dwattr $C$DW$419, DW_AT_TI_begin_column(0x0d)
    5405                      .dwattr $C$DW$419, DW_AT_TI_max_frame_size(0x04)
    5406                      .dwpsn  file "../FreeRTOS/Source/tasks.c",line 3829,column 1,is_stmt,address _prvResetNextTaskUnblock
    5407              
    5408                      .dwfde $C$DW$CIE, _prvResetNextTaskUnblockTime
    5409              ;*******************************************************************************
    5410              ;* FUNCTION NAME: prvResetNextTaskUnblockTime                                  *
    5411              ;*                                                                             *
    5412              ;*   Function Uses Regs : AR1,AR3,XAR3,SP,M40,SATA,SATD,RDM,FRCT,SMUL          *
    5413              ;*   Stack Frame        : Compact (No Frame Pointer, w/ debug)                 *
    5414              ;*   Total Frame Size   : 4 words                                              *
    5415              ;*                        (2 return address/alignment)                         *
TMS320C55x Assembler PC v4.4.1 Sat Sep 08 17:11:34 2018

Tools Copyright (c) 1996-2012 Texas Instruments Incorporated
tasks.asm                                                            PAGE  120

    5416              ;*                        (2 local values)                                     *
    5417              ;*   Min System Stack   : 1 word                                               *
    5418              ;*******************************************************************************
    5419 0010f8       _prvResetNextTaskUnblockTime:
    5420                      .dwcfi  cfa_offset, 1
    5421                      .dwcfi  save_reg_to_mem, 91, -1
    5422 0010f8 4EFD          AADD #-3, SP
    5423                      .dwcfi  cfa_offset, 4
    5424              $C$DW$420       .dwtag  DW_TAG_variable, DW_AT_name("pxTCB")
    5425                      .dwattr $C$DW$420, DW_AT_TI_symbol_name("_pxTCB")
    5426                      .dwattr $C$DW$420, DW_AT_type(*$C$DW$T$82)
    5427                      .dwattr $C$DW$420, DW_AT_location[DW_OP_bregx 0x24 0]
    5428                      .dwpsn  file "../FreeRTOS/Source/tasks.c",line 3832,column 2,is_stmt
    5429 0010fa ED31          MOV dbl(*(#_pxDelayedTaskList)), XAR3
         0010fc BF00 
         0010fe 0040-
    5430 001100 A961          MOV *AR3, AR1 ; |3832| 
    5431 001102 6219          BCC $C$L127,AR1 != #0 ; |3832| 
    5432                                                      ; branchcc occurs ; |3832| 
    5433 001104 3C19          MOV #1, AR1
    5434 001106 4A02          B $C$L128 ; |3832| 
    5435                                                      ; branch occurs ; |3832| 
    5436 001108       $C$L127:    
    5437 001108 3C09          MOV #0, AR1
    5438 00110a       $C$L128:    
    5439 00110a 6489          BCC $C$L129,AR1 == #0 ; |3832| 
    5440                                                      ; branchcc occurs ; |3832| 
    5441                      .dwpsn  file "../FreeRTOS/Source/tasks.c",line 3838,column 3,is_stmt
    5442 00110c FB31          MOV #65535, *(#_xNextTaskUnblockTime) ; |3838| 
         00110e FFFF 
         001110 0000 
         001112 6B-  
    5443                      .dwpsn  file "../FreeRTOS/Source/tasks.c",line 3839,column 2,is_stmt
    5444 001113 4A16          B $C$L130 ; |3839| 
    5445                                                      ; branch occurs ; |3839| 
    5446 001115       $C$L129:    
    5447                      .dwpsn  file "../FreeRTOS/Source/tasks.c",line 3846,column 3,is_stmt
    5448 001115 ED31          MOV dbl(*(#_pxDelayedTaskList)), XAR3
         001117 BF00 
         001119 0040-
    5449 00111b ED7D          MOV dbl(*AR3(short(#6))), XAR3
         00111d BF   
    5450 00111e ED7D          MOV dbl(*AR3(short(#6))), XAR3
         001120 BF   
    5451 001121 EB00          MOV XAR3, dbl(*SP(#0))
         001123 B5   
    5452                      .dwpsn  file "../FreeRTOS/Source/tasks.c",line 3847,column 3,is_stmt
    5453 001124 A979          MOV *AR3(short(#4)), AR1 ; |3847| 
    5454 001126 C931          MOV AR1, *(#_xNextTaskUnblockTime) ; |3847| 
         001128 0000 
         00112a 6B-  
    5455                      .dwpsn  file "../FreeRTOS/Source/tasks.c",line 3849,column 1,is_stmt
    5456 00112b       $C$L130:    
    5457 00112b 4E03          AADD #3, SP
    5458                      .dwcfi  cfa_offset, 1
TMS320C55x Assembler PC v4.4.1 Sat Sep 08 17:11:34 2018

Tools Copyright (c) 1996-2012 Texas Instruments Incorporated
tasks.asm                                                            PAGE  121

    5459              $C$DW$421       .dwtag  DW_TAG_TI_branch
    5460                      .dwattr $C$DW$421, DW_AT_low_pc(0x00)
    5461                      .dwattr $C$DW$421, DW_AT_TI_return
    5462 00112d 4804          RET
    5463                                                      ; return occurs
    5464                      .dwattr $C$DW$419, DW_AT_TI_end_file("../FreeRTOS/Source/tasks.c")
    5465                      .dwattr $C$DW$419, DW_AT_TI_end_line(0xf09)
    5466                      .dwattr $C$DW$419, DW_AT_TI_end_column(0x01)
    5467                      .dwendentry
    5468                      .dwendtag $C$DW$419
    5469              
    5470 00112f               .sect   ".text"
    5471                      .align 4
    5472                      .global _uxTaskResetEventItemValue
    5473              
    5474              $C$DW$422       .dwtag  DW_TAG_subprogram, DW_AT_name("uxTaskResetEventItemValue")
    5475                      .dwattr $C$DW$422, DW_AT_low_pc(_uxTaskResetEventItemValue)
    5476                      .dwattr $C$DW$422, DW_AT_high_pc(0x00)
    5477                      .dwattr $C$DW$422, DW_AT_TI_symbol_name("_uxTaskResetEventItemValue")
    5478                      .dwattr $C$DW$422, DW_AT_external
    5479                      .dwattr $C$DW$422, DW_AT_type(*$C$DW$T$38)
    5480                      .dwattr $C$DW$422, DW_AT_TI_begin_file("../FreeRTOS/Source/tasks.c")
    5481                      .dwattr $C$DW$422, DW_AT_TI_begin_line(0x1181)
    5482                      .dwattr $C$DW$422, DW_AT_TI_begin_column(0x0c)
    5483                      .dwattr $C$DW$422, DW_AT_TI_max_frame_size(0x02)
    5484                      .dwpsn  file "../FreeRTOS/Source/tasks.c",line 4482,column 1,is_stmt,address _uxTaskResetEventItemVal
    5485              
    5486                      .dwfde $C$DW$CIE, _uxTaskResetEventItemValue
    5487              ;*******************************************************************************
    5488              ;* FUNCTION NAME: uxTaskResetEventItemValue                                    *
    5489              ;*                                                                             *
    5490              ;*   Function Uses Regs : AC0,T0,AR1,AR3,XAR3,SP,CARRY,M40,SATA,SATD,RDM,FRCT, *
    5491              ;*                        SMUL                                                 *
    5492              ;*   Stack Frame        : Compact (No Frame Pointer, w/ debug)                 *
    5493              ;*   Total Frame Size   : 2 words                                              *
    5494              ;*                        (1 return address/alignment)                         *
    5495              ;*                        (1 local values)                                     *
    5496              ;*   Min System Stack   : 1 word                                               *
    5497              ;*******************************************************************************
    5498 001130       _uxTaskResetEventItemValue:
    5499                      .dwcfi  cfa_offset, 1
    5500                      .dwcfi  save_reg_to_mem, 91, -1
    5501 001130 4EFF          AADD #-1, SP
    5502                      .dwcfi  cfa_offset, 2
    5503              $C$DW$423       .dwtag  DW_TAG_variable, DW_AT_name("uxReturn")
    5504                      .dwattr $C$DW$423, DW_AT_TI_symbol_name("_uxReturn")
    5505                      .dwattr $C$DW$423, DW_AT_type(*$C$DW$T$38)
    5506                      .dwattr $C$DW$423, DW_AT_location[DW_OP_bregx 0x24 0]
    5507                      .dwpsn  file "../FreeRTOS/Source/tasks.c",line 4485,column 2,is_stmt
    5508 001132 ED31          MOV dbl(*(#_pxCurrentTCB)), XAR3
         001134 BF00 
         001136 0002-
    5509 001138 A96D          MOV *AR3(#14), AR1 ; |4485| 
         00113a 000E 
    5510 00113c C900          MOV AR1, *SP(#0) ; |4485| 
TMS320C55x Assembler PC v4.4.1 Sat Sep 08 17:11:34 2018

Tools Copyright (c) 1996-2012 Texas Instruments Incorporated
tasks.asm                                                            PAGE  122

    5511                      .dwpsn  file "../FreeRTOS/Source/tasks.c",line 4489,column 2,is_stmt
    5512 00113e ED31          MOV dbl(*(#_pxCurrentTCB)), XAR3
         001140 BF00 
         001142 0002-
    5513 001144 3C40          MOV #4, AC0
    5514 001146 DF6D          SUB uns(*AR3(#24)), AC0, AC0 ; |4489| 
         001148 0F00 
         00114a 18   
    5515 00114b ED31          MOV dbl(*(#_pxCurrentTCB)), XAR3
         00114d BF00 
         00114f 0002-
    5516 001151 C06D          MOV AC0, *AR3(#14) ; |4489| 
         001153 000E 
    5517                      .dwpsn  file "../FreeRTOS/Source/tasks.c",line 4491,column 2,is_stmt
    5518 001155 A400          MOV *SP(#0), T0 ; |4491| 
    5519                      .dwpsn  file "../FreeRTOS/Source/tasks.c",line 4492,column 1,is_stmt
    5520 001157 4E01          AADD #1, SP
    5521                      .dwcfi  cfa_offset, 1
    5522              $C$DW$424       .dwtag  DW_TAG_TI_branch
    5523                      .dwattr $C$DW$424, DW_AT_low_pc(0x00)
    5524                      .dwattr $C$DW$424, DW_AT_TI_return
    5525 001159 4804          RET
    5526                                                      ; return occurs
    5527                      .dwattr $C$DW$422, DW_AT_TI_end_file("../FreeRTOS/Source/tasks.c")
    5528                      .dwattr $C$DW$422, DW_AT_TI_end_line(0x118c)
    5529                      .dwattr $C$DW$422, DW_AT_TI_end_column(0x01)
    5530                      .dwendentry
    5531                      .dwendtag $C$DW$422
    5532              
    5533 00115b               .sect   ".text"
    5534                      .align 4
    5535                      .global _ulTaskNotifyTake
    5536              
    5537              $C$DW$425       .dwtag  DW_TAG_subprogram, DW_AT_name("ulTaskNotifyTake")
    5538                      .dwattr $C$DW$425, DW_AT_low_pc(_ulTaskNotifyTake)
    5539                      .dwattr $C$DW$425, DW_AT_high_pc(0x00)
    5540                      .dwattr $C$DW$425, DW_AT_TI_symbol_name("_ulTaskNotifyTake")
    5541                      .dwattr $C$DW$425, DW_AT_external
    5542                      .dwattr $C$DW$425, DW_AT_type(*$C$DW$T$29)
    5543                      .dwattr $C$DW$425, DW_AT_TI_begin_file("../FreeRTOS/Source/tasks.c")
    5544                      .dwattr $C$DW$425, DW_AT_TI_begin_line(0x11a2)
    5545                      .dwattr $C$DW$425, DW_AT_TI_begin_column(0x0b)
    5546                      .dwattr $C$DW$425, DW_AT_TI_max_frame_size(0x06)
    5547                      .dwpsn  file "../FreeRTOS/Source/tasks.c",line 4515,column 2,is_stmt,address _ulTaskNotifyTake
    5548              
    5549                      .dwfde $C$DW$CIE, _ulTaskNotifyTake
    5550              $C$DW$426       .dwtag  DW_TAG_formal_parameter, DW_AT_name("xClearCountOnExit")
    5551                      .dwattr $C$DW$426, DW_AT_TI_symbol_name("_xClearCountOnExit")
    5552                      .dwattr $C$DW$426, DW_AT_type(*$C$DW$T$44)
    5553                      .dwattr $C$DW$426, DW_AT_location[DW_OP_reg12]
    5554              $C$DW$427       .dwtag  DW_TAG_formal_parameter, DW_AT_name("xTicksToWait")
    5555                      .dwattr $C$DW$427, DW_AT_TI_symbol_name("_xTicksToWait")
    5556                      .dwattr $C$DW$427, DW_AT_type(*$C$DW$T$38)
    5557                      .dwattr $C$DW$427, DW_AT_location[DW_OP_reg13]
    5558              ;*******************************************************************************
TMS320C55x Assembler PC v4.4.1 Sat Sep 08 17:11:34 2018

Tools Copyright (c) 1996-2012 Texas Instruments Incorporated
tasks.asm                                                            PAGE  123

    5559              ;* FUNCTION NAME: ulTaskNotifyTake                                             *
    5560              ;*                                                                             *
    5561              ;*   Function Uses Regs : AC0,AC0,T0,T1,AR1,AR3,XAR3,SP,CARRY,M40,SATA,SATD,   *
    5562              ;*                        RDM,FRCT,SMUL                                        *
    5563              ;*   Stack Frame        : Compact (No Frame Pointer, w/ debug)                 *
    5564              ;*   Total Frame Size   : 6 words                                              *
    5565              ;*                        (2 return address/alignment)                         *
    5566              ;*                        (4 local values)                                     *
    5567              ;*   Min System Stack   : 1 word                                               *
    5568              ;*******************************************************************************
    5569 00115c       _ulTaskNotifyTake:
    5570                      .dwcfi  cfa_offset, 1
    5571                      .dwcfi  save_reg_to_mem, 91, -1
    5572 00115c 4EFB          AADD #-5, SP
    5573                      .dwcfi  cfa_offset, 6
    5574              $C$DW$428       .dwtag  DW_TAG_variable, DW_AT_name("xClearCountOnExit")
    5575                      .dwattr $C$DW$428, DW_AT_TI_symbol_name("_xClearCountOnExit")
    5576                      .dwattr $C$DW$428, DW_AT_type(*$C$DW$T$44)
    5577                      .dwattr $C$DW$428, DW_AT_location[DW_OP_bregx 0x24 0]
    5578              $C$DW$429       .dwtag  DW_TAG_variable, DW_AT_name("xTicksToWait")
    5579                      .dwattr $C$DW$429, DW_AT_TI_symbol_name("_xTicksToWait")
    5580                      .dwattr $C$DW$429, DW_AT_type(*$C$DW$T$38)
    5581                      .dwattr $C$DW$429, DW_AT_location[DW_OP_bregx 0x24 1]
    5582              $C$DW$430       .dwtag  DW_TAG_variable, DW_AT_name("ulReturn")
    5583                      .dwattr $C$DW$430, DW_AT_TI_symbol_name("_ulReturn")
    5584                      .dwattr $C$DW$430, DW_AT_type(*$C$DW$T$29)
    5585                      .dwattr $C$DW$430, DW_AT_location[DW_OP_bregx 0x24 2]
    5586 00115e C502          MOV T1, *SP(#1) ; |4515| 
    5587 001160 C400          MOV T0, *SP(#0) ; |4515| 
    5588                      .dwpsn  file "../FreeRTOS/Source/tasks.c",line 4518,column 3,is_stmt
    5589 001162 20     nop
    5590 001163 46B3   bset INTM
    5591 001165 F731          ADD #1, *(#_usCriticalNesting) ; |4518| 
         001167 0001 
         001169 0000 
         00116b 00!  
    5592 00116c 20            NOP
    5593 00116d 20            NOP
    5594 00116e 20            NOP
    5595                      .dwpsn  file "../FreeRTOS/Source/tasks.c",line 4521,column 4,is_stmt
    5596 00116f ED31          MOV dbl(*(#_pxCurrentTCB)), XAR3
         001171 BF00 
         001173 0002-
    5597 001175 ED6D          MOV dbl(*AR3(#42)), AC0 ; |4521| 
         001177 0800 
         001179 2A   
    5598 00117a 0410          BCC $C$L131,AC0 != #0 ; |4521| 
         00117c 1C   
    5599                                                      ; branchcc occurs ; |4521| 
    5600                      .dwpsn  file "../FreeRTOS/Source/tasks.c",line 4524,column 5,is_stmt
    5601 00117d ED31          MOV dbl(*(#_pxCurrentTCB)), XAR3
         00117f BF00 
         001181 0002-
    5602 001183 E66D          MOV #1, *AR3(#44) ; |4524| 
         001185 0100 
TMS320C55x Assembler PC v4.4.1 Sat Sep 08 17:11:34 2018

Tools Copyright (c) 1996-2012 Texas Instruments Incorporated
tasks.asm                                                            PAGE  124

         001187 2C   
    5603                      .dwpsn  file "../FreeRTOS/Source/tasks.c",line 4526,column 5,is_stmt
    5604 001188 A902          MOV *SP(#1), AR1 ; |4526| 
    5605 00118a 6689          BCC $C$L131,AR1 == #0 ; |4526| 
    5606                                                      ; branchcc occurs ; |4526| 
    5607                      .dwpsn  file "../FreeRTOS/Source/tasks.c",line 4528,column 6,is_stmt
    5608 00118c 3C15          MOV #1, T1
    5609              $C$DW$431       .dwtag  DW_TAG_TI_branch
    5610                      .dwattr $C$DW$431, DW_AT_low_pc(0x00)
    5611                      .dwattr $C$DW$431, DW_AT_name("_prvAddCurrentTaskToDelayedList")
    5612                      .dwattr $C$DW$431, DW_AT_TI_call
    5613              
    5614 00118e 0805          CALL #_prvAddCurrentTaskToDelayedList ; |4528| 
         001190 45   
    5615 001191 2394  ||      MOV AR1, T0
    5616              
    5617                                                      ; call occurs [#_prvAddCurrentTaskToDelayedList] ; |4528| 
    5618                      .dwpsn  file "../FreeRTOS/Source/tasks.c",line 4535,column 6,is_stmt
    5619              $C$DW$432       .dwtag  DW_TAG_TI_branch
    5620                      .dwattr $C$DW$432, DW_AT_low_pc(0x00)
    5621                      .dwattr $C$DW$432, DW_AT_name("_vPortYield")
    5622                      .dwattr $C$DW$432, DW_AT_TI_call
    5623 001193 6C00          CALL #_vPortYield ; |4535| 
         001195 0000!
    5624                                                      ; call occurs [#_vPortYield] ; |4535| 
    5625                      .dwpsn  file "../FreeRTOS/Source/tasks.c",line 4536,column 5,is_stmt
    5626 001197 4A00          B $C$L131 ; |4536| 
    5627                                                      ; branch occurs ; |4536| 
    5628 001199       $C$L131:    
    5629                      .dwpsn  file "../FreeRTOS/Source/tasks.c",line 4547,column 3,is_stmt
    5630 001199 A931          MOV *(#_usCriticalNesting), AR1 ; |4547| 
         00119b 0000 
         00119d 00!  
    5631 00119e 0409          BCC $C$L132,AR1 == #0 ; |4547| 
         0011a0 14   
    5632                                                      ; branchcc occurs ; |4547| 
    5633 0011a1 F731          SUB #1, *(#_usCriticalNesting) ; |4547| 
         0011a3 FFFF 
         0011a5 0000 
         0011a7 00!  
    5634 0011a8 20            NOP
    5635 0011a9 20            NOP
    5636 0011aa 20            NOP
    5637 0011ab A931          MOV *(#_usCriticalNesting), AR1 ; |4547| 
         0011ad 0000 
         0011af 00!  
    5638 0011b0 6199          BCC $C$L132,AR1 != #0 ; |4547| 
    5639                                                      ; branchcc occurs ; |4547| 
    5640 0011b2 20     nop
    5641 0011b3 46B2   bclr INTM
    5642 0011b5       $C$L132:    
    5643                      .dwpsn  file "../FreeRTOS/Source/tasks.c",line 4549,column 3,is_stmt
    5644 0011b5 20     nop
    5645 0011b6 46B3   bset INTM
    5646 0011b8 F731          ADD #1, *(#_usCriticalNesting) ; |4549| 
TMS320C55x Assembler PC v4.4.1 Sat Sep 08 17:11:34 2018

Tools Copyright (c) 1996-2012 Texas Instruments Incorporated
tasks.asm                                                            PAGE  125

         0011ba 0001 
         0011bc 0000 
         0011be 00!  
    5647 0011bf 20            NOP
    5648 0011c0 20            NOP
    5649 0011c1 20            NOP
    5650                      .dwpsn  file "../FreeRTOS/Source/tasks.c",line 4552,column 4,is_stmt
    5651 0011c2 ED31          MOV dbl(*(#_pxCurrentTCB)), XAR3
         0011c4 BF00 
         0011c6 0002-
    5652 0011c8 ED6D          MOV dbl(*AR3(#42)), AC0 ; |4552| 
         0011ca 0800 
         0011cc 2A   
    5653 0011cd EB04          MOV AC0, dbl(*SP(#2)) ; |4552| 
         0011cf 08   
    5654                      .dwpsn  file "../FreeRTOS/Source/tasks.c",line 4554,column 4,is_stmt
    5655 0011d0 ED04          MOV dbl(*SP(#2)), AC0 ; |4554| 
         0011d2 08   
    5656 0011d3 0400          BCC $C$L134,AC0 == #0 ; |4554| 
         0011d5 23   
    5657                                                      ; branchcc occurs ; |4554| 
    5658                      .dwpsn  file "../FreeRTOS/Source/tasks.c",line 4556,column 5,is_stmt
    5659 0011d6 A900          MOV *SP(#0), AR1 ; |4556| 
    5660 0011d8 6789          BCC $C$L133,AR1 == #0 ; |4556| 
    5661                                                      ; branchcc occurs ; |4556| 
    5662                      .dwpsn  file "../FreeRTOS/Source/tasks.c",line 4558,column 6,is_stmt
    5663 0011da ED31          MOV dbl(*(#_pxCurrentTCB)), XAR3
         0011dc BF00 
         0011de 0002-
    5664 0011e0 3C00          MOV #0, AC0 ; |4558| 
    5665 0011e2 EB6D          MOV AC0, dbl(*AR3(#42)) ; |4558| 
         0011e4 0800 
         0011e6 2A   
    5666                      .dwpsn  file "../FreeRTOS/Source/tasks.c",line 4559,column 5,is_stmt
    5667 0011e7 4A10          B $C$L134 ; |4559| 
    5668                                                      ; branch occurs ; |4559| 
    5669 0011e9       $C$L133:    
    5670                      .dwpsn  file "../FreeRTOS/Source/tasks.c",line 4562,column 6,is_stmt
    5671 0011e9 ED31          MOV dbl(*(#_pxCurrentTCB)), XAR3
         0011eb BF00 
         0011ed 0002-
    5672 0011ef ED04          MOV dbl(*SP(#2)), AC0 ; |4562| 
         0011f1 08   
    5673 0011f2 4210          SUB #1, AC0 ; |4562| 
    5674 0011f4 EB6D          MOV AC0, dbl(*AR3(#42)) ; |4562| 
         0011f6 0800 
         0011f8 2A   
    5675                      .dwpsn  file "../FreeRTOS/Source/tasks.c",line 4564,column 4,is_stmt
    5676 0011f9       $C$L134:    
    5677                      .dwpsn  file "../FreeRTOS/Source/tasks.c",line 4570,column 4,is_stmt
    5678 0011f9 ED31          MOV dbl(*(#_pxCurrentTCB)), XAR3
         0011fb BF00 
         0011fd 0002-
    5679 0011ff E66D          MOV #0, *AR3(#44) ; |4570| 
         001201 0000 
TMS320C55x Assembler PC v4.4.1 Sat Sep 08 17:11:34 2018

Tools Copyright (c) 1996-2012 Texas Instruments Incorporated
tasks.asm                                                            PAGE  126

         001203 2C   
    5680 001204 20            NOP
    5681 001205 20            NOP
    5682 001206 20            NOP
    5683                      .dwpsn  file "../FreeRTOS/Source/tasks.c",line 4572,column 3,is_stmt
    5684 001207 A931          MOV *(#_usCriticalNesting), AR1 ; |4572| 
         001209 0000 
         00120b 00!  
    5685 00120c 0409          BCC $C$L135,AR1 == #0 ; |4572| 
         00120e 14   
    5686                                                      ; branchcc occurs ; |4572| 
    5687 00120f F731          SUB #1, *(#_usCriticalNesting) ; |4572| 
         001211 FFFF 
         001213 0000 
         001215 00!  
    5688 001216 20            NOP
    5689 001217 20            NOP
    5690 001218 20            NOP
    5691 001219 A931          MOV *(#_usCriticalNesting), AR1 ; |4572| 
         00121b 0000 
         00121d 00!  
    5692 00121e 6199          BCC $C$L135,AR1 != #0 ; |4572| 
    5693                                                      ; branchcc occurs ; |4572| 
    5694 001220 20     nop
    5695 001221 46B2   bclr INTM
    5696 001223       $C$L135:    
    5697                      .dwpsn  file "../FreeRTOS/Source/tasks.c",line 4574,column 3,is_stmt
    5698 001223 ED04          MOV dbl(*SP(#2)), AC0 ; |4574| 
         001225 08   
    5699                      .dwpsn  file "../FreeRTOS/Source/tasks.c",line 4575,column 2,is_stmt
    5700 001226 4E05          AADD #5, SP
    5701                      .dwcfi  cfa_offset, 1
    5702              $C$DW$433       .dwtag  DW_TAG_TI_branch
    5703                      .dwattr $C$DW$433, DW_AT_low_pc(0x00)
    5704                      .dwattr $C$DW$433, DW_AT_TI_return
    5705 001228 4804          RET
    5706                                                      ; return occurs
    5707                      .dwattr $C$DW$425, DW_AT_TI_end_file("../FreeRTOS/Source/tasks.c")
    5708                      .dwattr $C$DW$425, DW_AT_TI_end_line(0x11df)
    5709                      .dwattr $C$DW$425, DW_AT_TI_end_column(0x02)
    5710                      .dwendentry
    5711                      .dwendtag $C$DW$425
    5712              
    5713 00122a               .sect   ".text"
    5714                      .align 4
    5715                      .global _xTaskNotifyWait
    5716              
    5717              $C$DW$434       .dwtag  DW_TAG_subprogram, DW_AT_name("xTaskNotifyWait")
    5718                      .dwattr $C$DW$434, DW_AT_low_pc(_xTaskNotifyWait)
    5719                      .dwattr $C$DW$434, DW_AT_high_pc(0x00)
    5720                      .dwattr $C$DW$434, DW_AT_TI_symbol_name("_xTaskNotifyWait")
    5721                      .dwattr $C$DW$434, DW_AT_external
    5722                      .dwattr $C$DW$434, DW_AT_type(*$C$DW$T$44)
    5723                      .dwattr $C$DW$434, DW_AT_TI_begin_file("../FreeRTOS/Source/tasks.c")
    5724                      .dwattr $C$DW$434, DW_AT_TI_begin_line(0x11e6)
TMS320C55x Assembler PC v4.4.1 Sat Sep 08 17:11:34 2018

Tools Copyright (c) 1996-2012 Texas Instruments Incorporated
tasks.asm                                                            PAGE  127

    5725                      .dwattr $C$DW$434, DW_AT_TI_begin_column(0x0d)
    5726                      .dwattr $C$DW$434, DW_AT_TI_max_frame_size(0x0a)
    5727                      .dwpsn  file "../FreeRTOS/Source/tasks.c",line 4583,column 2,is_stmt,address _xTaskNotifyWait
    5728              
    5729                      .dwfde $C$DW$CIE, _xTaskNotifyWait
    5730              $C$DW$435       .dwtag  DW_TAG_formal_parameter, DW_AT_name("ulBitsToClearOnEntry")
    5731                      .dwattr $C$DW$435, DW_AT_TI_symbol_name("_ulBitsToClearOnEntry")
    5732                      .dwattr $C$DW$435, DW_AT_type(*$C$DW$T$29)
    5733                      .dwattr $C$DW$435, DW_AT_location[DW_OP_reg0]
    5734              $C$DW$436       .dwtag  DW_TAG_formal_parameter, DW_AT_name("ulBitsToClearOnExit")
    5735                      .dwattr $C$DW$436, DW_AT_TI_symbol_name("_ulBitsToClearOnExit")
    5736                      .dwattr $C$DW$436, DW_AT_type(*$C$DW$T$29)
    5737                      .dwattr $C$DW$436, DW_AT_location[DW_OP_reg3]
    5738              $C$DW$437       .dwtag  DW_TAG_formal_parameter, DW_AT_name("pulNotificationValue")
    5739                      .dwattr $C$DW$437, DW_AT_TI_symbol_name("_pulNotificationValue")
    5740                      .dwattr $C$DW$437, DW_AT_type(*$C$DW$T$130)
    5741                      .dwattr $C$DW$437, DW_AT_location[DW_OP_reg17]
    5742              $C$DW$438       .dwtag  DW_TAG_formal_parameter, DW_AT_name("xTicksToWait")
    5743                      .dwattr $C$DW$438, DW_AT_TI_symbol_name("_xTicksToWait")
    5744                      .dwattr $C$DW$438, DW_AT_type(*$C$DW$T$38)
    5745                      .dwattr $C$DW$438, DW_AT_location[DW_OP_reg12]
    5746              ;*******************************************************************************
    5747              ;* FUNCTION NAME: xTaskNotifyWait                                              *
    5748              ;*                                                                             *
    5749              ;*   Function Uses Regs : AC0,AC0,AC1,AC1,T0,T1,AR0,XAR0,AR1,AR2,XAR2,AR3,XAR3,*
    5750              ;*                        SP,CARRY,TC1,M40,SATA,SATD,RDM,FRCT,SMUL             *
    5751              ;*   Stack Frame        : Compact (No Frame Pointer, w/ debug)                 *
    5752              ;*   Total Frame Size   : 10 words                                             *
    5753              ;*                        (2 return address/alignment)                         *
    5754              ;*                        (8 local values)                                     *
    5755              ;*   Min System Stack   : 1 word                                               *
    5756              ;*******************************************************************************
    5757 00122c       _xTaskNotifyWait:
    5758                      .dwcfi  cfa_offset, 1
    5759                      .dwcfi  save_reg_to_mem, 91, -1
    5760 00122c 4EF7          AADD #-9, SP
    5761                      .dwcfi  cfa_offset, 10
    5762              $C$DW$439       .dwtag  DW_TAG_variable, DW_AT_name("ulBitsToClearOnEntry")
    5763                      .dwattr $C$DW$439, DW_AT_TI_symbol_name("_ulBitsToClearOnEntry")
    5764                      .dwattr $C$DW$439, DW_AT_type(*$C$DW$T$29)
    5765                      .dwattr $C$DW$439, DW_AT_location[DW_OP_bregx 0x24 0]
    5766              $C$DW$440       .dwtag  DW_TAG_variable, DW_AT_name("ulBitsToClearOnExit")
    5767                      .dwattr $C$DW$440, DW_AT_TI_symbol_name("_ulBitsToClearOnExit")
    5768                      .dwattr $C$DW$440, DW_AT_type(*$C$DW$T$29)
    5769                      .dwattr $C$DW$440, DW_AT_location[DW_OP_bregx 0x24 2]
    5770              $C$DW$441       .dwtag  DW_TAG_variable, DW_AT_name("pulNotificationValue")
    5771                      .dwattr $C$DW$441, DW_AT_TI_symbol_name("_pulNotificationValue")
    5772                      .dwattr $C$DW$441, DW_AT_type(*$C$DW$T$130)
    5773                      .dwattr $C$DW$441, DW_AT_location[DW_OP_bregx 0x24 4]
    5774              $C$DW$442       .dwtag  DW_TAG_variable, DW_AT_name("xTicksToWait")
    5775                      .dwattr $C$DW$442, DW_AT_TI_symbol_name("_xTicksToWait")
    5776                      .dwattr $C$DW$442, DW_AT_type(*$C$DW$T$38)
    5777                      .dwattr $C$DW$442, DW_AT_location[DW_OP_bregx 0x24 6]
    5778              $C$DW$443       .dwtag  DW_TAG_variable, DW_AT_name("xReturn")
    5779                      .dwattr $C$DW$443, DW_AT_TI_symbol_name("_xReturn")
TMS320C55x Assembler PC v4.4.1 Sat Sep 08 17:11:34 2018

Tools Copyright (c) 1996-2012 Texas Instruments Incorporated
tasks.asm                                                            PAGE  128

    5780                      .dwattr $C$DW$443, DW_AT_type(*$C$DW$T$44)
    5781                      .dwattr $C$DW$443, DW_AT_location[DW_OP_bregx 0x24 7]
    5782 00122e C40C          MOV T0, *SP(#6) ; |4583| 
    5783 001230 EB08          MOV XAR0, dbl(*SP(#4))
         001232 85   
    5784 001233 EB04          MOV AC1, dbl(*SP(#2)) ; |4583| 
         001235 18   
    5785 001236 EB00          MOV AC0, dbl(*SP(#0)) ; |4583| 
         001238 08   
    5786                      .dwpsn  file "../FreeRTOS/Source/tasks.c",line 4586,column 3,is_stmt
    5787 001239 20     nop
    5788 00123a 46B3   bset INTM
    5789 00123c F731          ADD #1, *(#_usCriticalNesting) ; |4586| 
         00123e 0001 
         001240 0000 
         001242 00!  
    5790 001243 20            NOP
    5791 001244 20            NOP
    5792 001245 20            NOP
    5793                      .dwpsn  file "../FreeRTOS/Source/tasks.c",line 4589,column 4,is_stmt
    5794 001246 ED31          MOV dbl(*(#_pxCurrentTCB)), XAR3
         001248 BF00 
         00124a 0002-
    5795 00124c F06D          CMP *AR3(#44) == #2, TC1 ; |4589| 
         00124e 0002 
         001250 002C 
    5796 001252 0464          BCC $C$L136,TC1 ; |4589| 
         001254 35   
    5797                                                      ; branchcc occurs ; |4589| 
    5798                      .dwpsn  file "../FreeRTOS/Source/tasks.c",line 4594,column 5,is_stmt
    5799 001255 ED31          MOV dbl(*(#_pxCurrentTCB)), XAR3
         001257 BF00 
         001259 0002-
    5800              
    5801                      AADD #42, AR3 ; |4594| 
    5802 00125b 8E00  ||      MOV dbl(*SP(#0)), AC0 ; |4594| 
         00125d BD1C 
         00125f 082A 
    5803              
    5804 001261 ED61          MOV dbl(*AR3), AC1 ; |4594| 
         001263 18   
    5805 001264 3700  ||      NOT AC0, AC0 ; |4594| 
    5806              
    5807 001266 2810          AND AC1, AC0 ; |4594| 
    5808 001268 EB61          MOV AC0, dbl(*AR3) ; |4594| 
         00126a 08   
    5809 00126b 20            NOP
    5810 00126c 20            NOP
    5811 00126d 20            NOP
    5812                      .dwpsn  file "../FreeRTOS/Source/tasks.c",line 4597,column 5,is_stmt
    5813 00126e ED31          MOV dbl(*(#_pxCurrentTCB)), XAR3
         001270 BF00 
         001272 0002-
    5814 001274 E66D          MOV #1, *AR3(#44) ; |4597| 
         001276 0100 
TMS320C55x Assembler PC v4.4.1 Sat Sep 08 17:11:34 2018

Tools Copyright (c) 1996-2012 Texas Instruments Incorporated
tasks.asm                                                            PAGE  129

         001278 2C   
    5815                      .dwpsn  file "../FreeRTOS/Source/tasks.c",line 4599,column 5,is_stmt
    5816 001279 A90C          MOV *SP(#6), AR1 ; |4599| 
    5817 00127b 6689          BCC $C$L136,AR1 == #0 ; |4599| 
    5818                                                      ; branchcc occurs ; |4599| 
    5819                      .dwpsn  file "../FreeRTOS/Source/tasks.c",line 4601,column 6,is_stmt
    5820 00127d 3C15          MOV #1, T1
    5821              $C$DW$444       .dwtag  DW_TAG_TI_branch
    5822                      .dwattr $C$DW$444, DW_AT_low_pc(0x00)
    5823                      .dwattr $C$DW$444, DW_AT_name("_prvAddCurrentTaskToDelayedList")
    5824                      .dwattr $C$DW$444, DW_AT_TI_call
    5825              
    5826 00127f 0804          CALL #_prvAddCurrentTaskToDelayedList ; |4601| 
         001281 54   
    5827 001282 2394  ||      MOV AR1, T0
    5828              
    5829                                                      ; call occurs [#_prvAddCurrentTaskToDelayedList] ; |4601| 
    5830                      .dwpsn  file "../FreeRTOS/Source/tasks.c",line 4608,column 6,is_stmt
    5831              $C$DW$445       .dwtag  DW_TAG_TI_branch
    5832                      .dwattr $C$DW$445, DW_AT_low_pc(0x00)
    5833                      .dwattr $C$DW$445, DW_AT_name("_vPortYield")
    5834                      .dwattr $C$DW$445, DW_AT_TI_call
    5835 001284 6C00          CALL #_vPortYield ; |4608| 
         001286 0000!
    5836                                                      ; call occurs [#_vPortYield] ; |4608| 
    5837                      .dwpsn  file "../FreeRTOS/Source/tasks.c",line 4609,column 5,is_stmt
    5838 001288 4A00          B $C$L136 ; |4609| 
    5839                                                      ; branch occurs ; |4609| 
    5840 00128a       $C$L136:    
    5841                      .dwpsn  file "../FreeRTOS/Source/tasks.c",line 4620,column 3,is_stmt
    5842 00128a A931          MOV *(#_usCriticalNesting), AR1 ; |4620| 
         00128c 0000 
         00128e 00!  
    5843 00128f 0409          BCC $C$L137,AR1 == #0 ; |4620| 
         001291 14   
    5844                                                      ; branchcc occurs ; |4620| 
    5845 001292 F731          SUB #1, *(#_usCriticalNesting) ; |4620| 
         001294 FFFF 
         001296 0000 
         001298 00!  
    5846 001299 20            NOP
    5847 00129a 20            NOP
    5848 00129b 20            NOP
    5849 00129c A931          MOV *(#_usCriticalNesting), AR1 ; |4620| 
         00129e 0000 
         0012a0 00!  
    5850 0012a1 6199          BCC $C$L137,AR1 != #0 ; |4620| 
    5851                                                      ; branchcc occurs ; |4620| 
    5852 0012a3 20     nop
    5853 0012a4 46B2   bclr INTM
    5854 0012a6       $C$L137:    
    5855                      .dwpsn  file "../FreeRTOS/Source/tasks.c",line 4622,column 3,is_stmt
    5856 0012a6 20     nop
    5857 0012a7 46B3   bset INTM
    5858 0012a9 F731          ADD #1, *(#_usCriticalNesting) ; |4622| 
TMS320C55x Assembler PC v4.4.1 Sat Sep 08 17:11:34 2018

Tools Copyright (c) 1996-2012 Texas Instruments Incorporated
tasks.asm                                                            PAGE  130

         0012ab 0001 
         0012ad 0000 
         0012af 00!  
    5859                      .dwpsn  file "../FreeRTOS/Source/tasks.c",line 4626,column 4,is_stmt
    5860 0012b0 ED08          MOV dbl(*SP(#4)), XAR3
         0012b2 BF   
    5861 0012b3 90B0          MOV XAR3, AC0
    5862 0012b5 6780          BCC $C$L138,AC0 == #0 ; |4626| 
    5863                                                      ; branchcc occurs ; |4626| 
    5864                      .dwpsn  file "../FreeRTOS/Source/tasks.c",line 4630,column 5,is_stmt
    5865 0012b7 ED31          MOV dbl(*(#_pxCurrentTCB)), XAR3
         0012b9 BF00 
         0012bb 0002-
    5866 0012bd ED08          MOV dbl(*SP(#4)), XAR2
         0012bf AF   
    5867 0012c0 142A          AADD #42, AR3 ; |4630| 
         0012c2 B4   
    5868 0012c3 8061          MOV dbl(*AR3), dbl(*AR2) ; |4630| 
         0012c5 00   
    5869 0012c6       $C$L138:    
    5870                      .dwpsn  file "../FreeRTOS/Source/tasks.c",line 4637,column 4,is_stmt
    5871 0012c6 ED31          MOV dbl(*(#_pxCurrentTCB)), XAR3
         0012c8 BF00 
         0012ca 0002-
    5872 0012cc F06D          CMP *AR3(#44) == #2, TC1 ; |4637| 
         0012ce 0002 
         0012d0 002C 
    5873 0012d2 62E4          BCC $C$L139,TC1 ; |4637| 
    5874                                                      ; branchcc occurs ; |4637| 
    5875                      .dwpsn  file "../FreeRTOS/Source/tasks.c",line 4640,column 5,is_stmt
    5876 0012d4 E60E          MOV #0, *SP(#7) ; |4640| 
         0012d6 00   
    5877                      .dwpsn  file "../FreeRTOS/Source/tasks.c",line 4641,column 4,is_stmt
    5878 0012d7 4A19          B $C$L140 ; |4641| 
    5879                                                      ; branch occurs ; |4641| 
    5880 0012d9       $C$L139:    
    5881                      .dwpsn  file "../FreeRTOS/Source/tasks.c",line 4646,column 5,is_stmt
    5882 0012d9 ED31          MOV dbl(*(#_pxCurrentTCB)), XAR3
         0012db BF00 
         0012dd 0002-
    5883              
    5884                      AADD #42, AR3 ; |4646| 
    5885 0012df 8E04  ||      MOV dbl(*SP(#2)), AC0 ; |4646| 
         0012e1 BD1C 
         0012e3 082A 
    5886              
    5887 0012e5 ED61          MOV dbl(*AR3), AC1 ; |4646| 
         0012e7 18   
    5888 0012e8 3700  ||      NOT AC0, AC0 ; |4646| 
    5889              
    5890 0012ea 2810          AND AC1, AC0 ; |4646| 
    5891 0012ec EB61          MOV AC0, dbl(*AR3) ; |4646| 
         0012ee 08   
    5892                      .dwpsn  file "../FreeRTOS/Source/tasks.c",line 4647,column 5,is_stmt
    5893 0012ef E60E          MOV #1, *SP(#7) ; |4647| 
TMS320C55x Assembler PC v4.4.1 Sat Sep 08 17:11:34 2018

Tools Copyright (c) 1996-2012 Texas Instruments Incorporated
tasks.asm                                                            PAGE  131

         0012f1 01   
    5894 0012f2       $C$L140:    
    5895                      .dwpsn  file "../FreeRTOS/Source/tasks.c",line 4650,column 4,is_stmt
    5896 0012f2 ED31          MOV dbl(*(#_pxCurrentTCB)), XAR3
         0012f4 BF00 
         0012f6 0002-
    5897 0012f8 E66D          MOV #0, *AR3(#44) ; |4650| 
         0012fa 0000 
         0012fc 2C   
    5898 0012fd 20            NOP
    5899 0012fe 20            NOP
    5900 0012ff 20            NOP
    5901                      .dwpsn  file "../FreeRTOS/Source/tasks.c",line 4652,column 3,is_stmt
    5902 001300 A931          MOV *(#_usCriticalNesting), AR1 ; |4652| 
         001302 0000 
         001304 00!  
    5903 001305 0409          BCC $C$L141,AR1 == #0 ; |4652| 
         001307 14   
    5904                                                      ; branchcc occurs ; |4652| 
    5905 001308 F731          SUB #1, *(#_usCriticalNesting) ; |4652| 
         00130a FFFF 
         00130c 0000 
         00130e 00!  
    5906 00130f 20            NOP
    5907 001310 20            NOP
    5908 001311 20            NOP
    5909 001312 A931          MOV *(#_usCriticalNesting), AR1 ; |4652| 
         001314 0000 
         001316 00!  
    5910 001317 6199          BCC $C$L141,AR1 != #0 ; |4652| 
    5911                                                      ; branchcc occurs ; |4652| 
    5912 001319 20     nop
    5913 00131a 46B2   bclr INTM
    5914 00131c       $C$L141:    
    5915                      .dwpsn  file "../FreeRTOS/Source/tasks.c",line 4654,column 3,is_stmt
    5916 00131c A40E          MOV *SP(#7), T0 ; |4654| 
    5917                      .dwpsn  file "../FreeRTOS/Source/tasks.c",line 4655,column 2,is_stmt
    5918 00131e 4E09          AADD #9, SP
    5919                      .dwcfi  cfa_offset, 1
    5920              $C$DW$446       .dwtag  DW_TAG_TI_branch
    5921                      .dwattr $C$DW$446, DW_AT_low_pc(0x00)
    5922                      .dwattr $C$DW$446, DW_AT_TI_return
    5923 001320 4804          RET
    5924                                                      ; return occurs
    5925                      .dwattr $C$DW$434, DW_AT_TI_end_file("../FreeRTOS/Source/tasks.c")
    5926                      .dwattr $C$DW$434, DW_AT_TI_end_line(0x122f)
    5927                      .dwattr $C$DW$434, DW_AT_TI_end_column(0x02)
    5928                      .dwendentry
    5929                      .dwendtag $C$DW$434
    5930              
    5931 001322               .sect   ".text"
    5932                      .align 4
    5933                      .global _xTaskGenericNotify
    5934              
    5935              $C$DW$447       .dwtag  DW_TAG_subprogram, DW_AT_name("xTaskGenericNotify")
TMS320C55x Assembler PC v4.4.1 Sat Sep 08 17:11:34 2018

Tools Copyright (c) 1996-2012 Texas Instruments Incorporated
tasks.asm                                                            PAGE  132

    5936                      .dwattr $C$DW$447, DW_AT_low_pc(_xTaskGenericNotify)
    5937                      .dwattr $C$DW$447, DW_AT_high_pc(0x00)
    5938                      .dwattr $C$DW$447, DW_AT_TI_symbol_name("_xTaskGenericNotify")
    5939                      .dwattr $C$DW$447, DW_AT_external
    5940                      .dwattr $C$DW$447, DW_AT_type(*$C$DW$T$44)
    5941                      .dwattr $C$DW$447, DW_AT_TI_begin_file("../FreeRTOS/Source/tasks.c")
    5942                      .dwattr $C$DW$447, DW_AT_TI_begin_line(0x1236)
    5943                      .dwattr $C$DW$447, DW_AT_TI_begin_column(0x0d)
    5944                      .dwattr $C$DW$447, DW_AT_TI_max_frame_size(0x0e)
    5945                      .dwpsn  file "../FreeRTOS/Source/tasks.c",line 4663,column 2,is_stmt,address _xTaskGenericNotify
    5946              
    5947                      .dwfde $C$DW$CIE, _xTaskGenericNotify
    5948              $C$DW$448       .dwtag  DW_TAG_formal_parameter, DW_AT_name("xTaskToNotify")
    5949                      .dwattr $C$DW$448, DW_AT_TI_symbol_name("_xTaskToNotify")
    5950                      .dwattr $C$DW$448, DW_AT_type(*$C$DW$T$70)
    5951                      .dwattr $C$DW$448, DW_AT_location[DW_OP_reg17]
    5952              $C$DW$449       .dwtag  DW_TAG_formal_parameter, DW_AT_name("ulValue")
    5953                      .dwattr $C$DW$449, DW_AT_TI_symbol_name("_ulValue")
    5954                      .dwattr $C$DW$449, DW_AT_type(*$C$DW$T$29)
    5955                      .dwattr $C$DW$449, DW_AT_location[DW_OP_reg0]
    5956              $C$DW$450       .dwtag  DW_TAG_formal_parameter, DW_AT_name("eAction")
    5957                      .dwattr $C$DW$450, DW_AT_TI_symbol_name("_eAction")
    5958                      .dwattr $C$DW$450, DW_AT_type(*$C$DW$T$47)
    5959                      .dwattr $C$DW$450, DW_AT_location[DW_OP_reg12]
    5960              $C$DW$451       .dwtag  DW_TAG_formal_parameter, DW_AT_name("pulPreviousNotificationValue")
    5961                      .dwattr $C$DW$451, DW_AT_TI_symbol_name("_pulPreviousNotificationValue")
    5962                      .dwattr $C$DW$451, DW_AT_type(*$C$DW$T$130)
    5963                      .dwattr $C$DW$451, DW_AT_location[DW_OP_reg19]
    5964              ;*******************************************************************************
    5965              ;* FUNCTION NAME: xTaskGenericNotify                                           *
    5966              ;*                                                                             *
    5967              ;*   Function Uses Regs : AC0,AC0,AC1,AC1,T0,AR0,XAR0,AR1,XAR1,AR2,XAR2,AR3,   *
    5968              ;*                        XAR3,SP,CARRY,TC1,M40,SATA,SATD,RDM,FRCT,SMUL        *
    5969              ;*   Stack Frame        : Compact (No Frame Pointer, w/ debug)                 *
    5970              ;*   Total Frame Size   : 14 words                                             *
    5971              ;*                        (2 return address/alignment)                         *
    5972              ;*                        (12 local values)                                    *
    5973              ;*   Min System Stack   : 1 word                                               *
    5974              ;*******************************************************************************
    5975 001324       _xTaskGenericNotify:
    5976                      .dwcfi  cfa_offset, 1
    5977                      .dwcfi  save_reg_to_mem, 91, -1
    5978 001324 4EF3          AADD #-13, SP
    5979                      .dwcfi  cfa_offset, 14
    5980              $C$DW$452       .dwtag  DW_TAG_variable, DW_AT_name("xTaskToNotify")
    5981                      .dwattr $C$DW$452, DW_AT_TI_symbol_name("_xTaskToNotify")
    5982                      .dwattr $C$DW$452, DW_AT_type(*$C$DW$T$70)
    5983                      .dwattr $C$DW$452, DW_AT_location[DW_OP_bregx 0x24 0]
    5984              $C$DW$453       .dwtag  DW_TAG_variable, DW_AT_name("ulValue")
    5985                      .dwattr $C$DW$453, DW_AT_TI_symbol_name("_ulValue")
    5986                      .dwattr $C$DW$453, DW_AT_type(*$C$DW$T$29)
    5987                      .dwattr $C$DW$453, DW_AT_location[DW_OP_bregx 0x24 2]
    5988              $C$DW$454       .dwtag  DW_TAG_variable, DW_AT_name("eAction")
    5989                      .dwattr $C$DW$454, DW_AT_TI_symbol_name("_eAction")
    5990                      .dwattr $C$DW$454, DW_AT_type(*$C$DW$T$47)
TMS320C55x Assembler PC v4.4.1 Sat Sep 08 17:11:34 2018

Tools Copyright (c) 1996-2012 Texas Instruments Incorporated
tasks.asm                                                            PAGE  133

    5991                      .dwattr $C$DW$454, DW_AT_location[DW_OP_bregx 0x24 4]
    5992              $C$DW$455       .dwtag  DW_TAG_variable, DW_AT_name("pulPreviousNotificationValue")
    5993                      .dwattr $C$DW$455, DW_AT_TI_symbol_name("_pulPreviousNotificationValue")
    5994                      .dwattr $C$DW$455, DW_AT_type(*$C$DW$T$130)
    5995                      .dwattr $C$DW$455, DW_AT_location[DW_OP_bregx 0x24 6]
    5996              $C$DW$456       .dwtag  DW_TAG_variable, DW_AT_name("pxTCB")
    5997                      .dwattr $C$DW$456, DW_AT_TI_symbol_name("_pxTCB")
    5998                      .dwattr $C$DW$456, DW_AT_type(*$C$DW$T$82)
    5999                      .dwattr $C$DW$456, DW_AT_location[DW_OP_bregx 0x24 8]
    6000              $C$DW$457       .dwtag  DW_TAG_variable, DW_AT_name("xReturn")
    6001                      .dwattr $C$DW$457, DW_AT_TI_symbol_name("_xReturn")
    6002                      .dwattr $C$DW$457, DW_AT_type(*$C$DW$T$44)
    6003                      .dwattr $C$DW$457, DW_AT_location[DW_OP_bregx 0x24 10]
    6004              $C$DW$458       .dwtag  DW_TAG_variable, DW_AT_name("ucOriginalNotifyState")
    6005                      .dwattr $C$DW$458, DW_AT_TI_symbol_name("_ucOriginalNotifyState")
    6006                      .dwattr $C$DW$458, DW_AT_type(*$C$DW$T$31)
    6007                      .dwattr $C$DW$458, DW_AT_location[DW_OP_bregx 0x24 11]
    6008 001326 EB0C          MOV XAR1, dbl(*SP(#6))
         001328 95   
    6009 001329 C408          MOV T0, *SP(#4) ; |4663| 
    6010 00132b EB04          MOV AC0, dbl(*SP(#2)) ; |4663| 
         00132d 08   
    6011 00132e EB00          MOV XAR0, dbl(*SP(#0))
         001330 85   
    6012                      .dwpsn  file "../FreeRTOS/Source/tasks.c",line 4665,column 13,is_stmt
    6013 001331 E614          MOV #1, *SP(#10) ; |4665| 
         001333 01   
    6014                      .dwpsn  file "../FreeRTOS/Source/tasks.c",line 4669,column 3,is_stmt
    6015 001334 ED00          MOV dbl(*SP(#0)), XAR3
         001336 BF   
    6016 001337 EB10          MOV XAR3, dbl(*SP(#8))
         001339 B5   
    6017                      .dwpsn  file "../FreeRTOS/Source/tasks.c",line 4671,column 3,is_stmt
    6018 00133a 20     nop
    6019 00133b 46B3   bset INTM
    6020 00133d F731          ADD #1, *(#_usCriticalNesting) ; |4671| 
         00133f 0001 
         001341 0000 
         001343 00!  
    6021                      .dwpsn  file "../FreeRTOS/Source/tasks.c",line 4673,column 4,is_stmt
    6022 001344 ED0C          MOV dbl(*SP(#6)), XAR3
         001346 BF   
    6023 001347 90B0          MOV XAR3, AC0
    6024 001349 6600          BCC $C$L142,AC0 == #0 ; |4673| 
    6025                                                      ; branchcc occurs ; |4673| 
    6026                      .dwpsn  file "../FreeRTOS/Source/tasks.c",line 4675,column 5,is_stmt
    6027 00134b ED10          MOV dbl(*SP(#8)), XAR3
         00134d BF   
    6028 00134e ED0C          MOV dbl(*SP(#6)), XAR2
         001350 AF   
    6029 001351 142A          AADD #42, AR3 ; |4675| 
         001353 B4   
    6030 001354 8061          MOV dbl(*AR3), dbl(*AR2) ; |4675| 
         001356 00   
    6031 001357       $C$L142:    
TMS320C55x Assembler PC v4.4.1 Sat Sep 08 17:11:34 2018

Tools Copyright (c) 1996-2012 Texas Instruments Incorporated
tasks.asm                                                            PAGE  134

    6032                      .dwpsn  file "../FreeRTOS/Source/tasks.c",line 4678,column 4,is_stmt
    6033 001357 ED10          MOV dbl(*SP(#8)), XAR3
         001359 BF   
    6034 00135a A96D          MOV *AR3(#44), AR1 ; |4678| 
         00135c 002C 
    6035 00135e C916          MOV AR1, *SP(#11) ; |4678| 
    6036                      .dwpsn  file "../FreeRTOS/Source/tasks.c",line 4680,column 4,is_stmt
    6037 001360 ED10          MOV dbl(*SP(#8)), XAR3
         001362 BF   
    6038 001363 E66D          MOV #2, *AR3(#44) ; |4680| 
         001365 0200 
         001367 2C   
    6039                      .dwpsn  file "../FreeRTOS/Source/tasks.c",line 4682,column 4,is_stmt
    6040 001368 0600          B $C$L148 ; |4682| 
         00136a 4D   
    6041                                                      ; branch occurs ; |4682| 
    6042 00136b       $C$L143:    
    6043                      .dwpsn  file "../FreeRTOS/Source/tasks.c",line 4685,column 6,is_stmt
    6044 00136b ED10          MOV dbl(*SP(#8)), XAR3
         00136d BF   
    6045 00136e ED04          MOV dbl(*SP(#2)), AC0 ; |4685| 
         001370 08   
    6046 001371 ED6D          MOV dbl(*AR3(#42)), AC1 ; |4685| 
         001373 1800 
         001375 2A   
    6047 001376 2A10          OR AC1, AC0 ; |4685| 
    6048 001378 EB6D          MOV AC0, dbl(*AR3(#42)) ; |4685| 
         00137a 0800 
         00137c 2A   
    6049                      .dwpsn  file "../FreeRTOS/Source/tasks.c",line 4686,column 11,is_stmt
    6050 00137d 0600          B $C$L150 ; |4686| 
         00137f 65   
    6051                                                      ; branch occurs ; |4686| 
    6052 001380       $C$L144:    
    6053                      .dwpsn  file "../FreeRTOS/Source/tasks.c",line 4689,column 6,is_stmt
    6054 001380 ED10          MOV dbl(*SP(#8)), XAR3
         001382 BF   
    6055 001383 ED6D          MOV dbl(*AR3(#42)), AC0 ; |4689| 
         001385 0800 
         001387 2A   
    6056 001388 4010          ADD #1, AC0 ; |4689| 
    6057 00138a EB6D          MOV AC0, dbl(*AR3(#42)) ; |4689| 
         00138c 0800 
         00138e 2A   
    6058                      .dwpsn  file "../FreeRTOS/Source/tasks.c",line 4690,column 11,is_stmt
    6059 00138f 0600          B $C$L150 ; |4690| 
         001391 53   
    6060                                                      ; branch occurs ; |4690| 
    6061 001392       $C$L145:    
    6062                      .dwpsn  file "../FreeRTOS/Source/tasks.c",line 4693,column 6,is_stmt
    6063 001392 ED10          MOV dbl(*SP(#8)), XAR3
         001394 BF   
    6064 001395 ED04          MOV dbl(*SP(#2)), AC0 ; |4693| 
         001397 08   
    6065 001398 EB6D          MOV AC0, dbl(*AR3(#42)) ; |4693| 
TMS320C55x Assembler PC v4.4.1 Sat Sep 08 17:11:34 2018

Tools Copyright (c) 1996-2012 Texas Instruments Incorporated
tasks.asm                                                            PAGE  135

         00139a 0800 
         00139c 2A   
    6066                      .dwpsn  file "../FreeRTOS/Source/tasks.c",line 4694,column 11,is_stmt
    6067 00139d 0600          B $C$L150 ; |4694| 
         00139f 45   
    6068                                                      ; branch occurs ; |4694| 
    6069 0013a0       $C$L146:    
    6070                      .dwpsn  file "../FreeRTOS/Source/tasks.c",line 4697,column 6,is_stmt
    6071 0013a0 F016          CMP *SP(#11) == #2, TC1 ; |4697| 
         0013a2 0002 
    6072 0013a4 66E4          BCC $C$L147,TC1 ; |4697| 
    6073                                                      ; branchcc occurs ; |4697| 
    6074                      .dwpsn  file "../FreeRTOS/Source/tasks.c",line 4699,column 7,is_stmt
    6075 0013a6 ED10          MOV dbl(*SP(#8)), XAR3
         0013a8 BF   
    6076 0013a9 ED04          MOV dbl(*SP(#2)), AC0 ; |4699| 
         0013ab 08   
    6077 0013ac EB6D          MOV AC0, dbl(*AR3(#42)) ; |4699| 
         0013ae 0800 
         0013b0 2A   
    6078                      .dwpsn  file "../FreeRTOS/Source/tasks.c",line 4700,column 6,is_stmt
    6079 0013b1 4A32          B $C$L150 ; |4700| 
    6080                                                      ; branch occurs ; |4700| 
    6081 0013b3       $C$L147:    
    6082                      .dwpsn  file "../FreeRTOS/Source/tasks.c",line 4704,column 7,is_stmt
    6083 0013b3 E614          MOV #0, *SP(#10) ; |4704| 
         0013b5 00   
    6084                      .dwpsn  file "../FreeRTOS/Source/tasks.c",line 4706,column 11,is_stmt
    6085 0013b6 4A2D          B $C$L150 ; |4706| 
    6086                                                      ; branch occurs ; |4706| 
    6087 0013b8       $C$L148:    
    6088                      .dwpsn  file "../FreeRTOS/Source/tasks.c",line 4682,column 4,is_stmt
    6089              
    6090 0013b8 A908          MOV *SP(#4), AR1 ; |4682| 
    6091 0013ba 3D2A  ||      MOV #2, AR2
    6092              
    6093 0013bc 12A4          CMP AR1 > AR2, TC1 ; |4682| 
         0013be 90   
    6094 0013bf 0464          BCC $C$L149,TC1 ; |4682| 
         0013c1 13   
    6095                                                      ; branchcc occurs ; |4682| 
    6096 0013c2 1290          CMP AR1 == AR2, TC1 ; |4682| 
         0013c4 A0   
    6097 0013c5 0464          BCC $C$L144,TC1 ; |4682| 
         0013c7 B8   
    6098                                                      ; branchcc occurs ; |4682| 
    6099 0013c8 0409          BCC $C$L150,AR1 == #0 ; |4682| 
         0013ca 1A   
    6100                                                      ; branchcc occurs ; |4682| 
    6101 0013cb 3C1A          MOV #1, AR2
    6102 0013cd 1290          CMP AR1 == AR2, TC1 ; |4682| 
         0013cf A0   
    6103 0013d0 0464          BCC $C$L143,TC1 ; |4682| 
         0013d2 98   
    6104                                                      ; branchcc occurs ; |4682| 
TMS320C55x Assembler PC v4.4.1 Sat Sep 08 17:11:34 2018

Tools Copyright (c) 1996-2012 Texas Instruments Incorporated
tasks.asm                                                            PAGE  136

    6105 0013d3 4A10          B $C$L150 ; |4682| 
    6106                                                      ; branch occurs ; |4682| 
    6107 0013d5       $C$L149:    
    6108 0013d5 3C3A          MOV #3, AR2
    6109 0013d7 1290          CMP AR1 == AR2, TC1 ; |4682| 
         0013d9 A0   
    6110 0013da 0464          BCC $C$L145,TC1 ; |4682| 
         0013dc B5   
    6111                                                      ; branchcc occurs ; |4682| 
    6112 0013dd 3C4A          MOV #4, AR2
    6113 0013df 1290          CMP AR1 == AR2, TC1 ; |4682| 
         0013e1 A0   
    6114 0013e2 0464          BCC $C$L146,TC1 ; |4682| 
         0013e4 BB   
    6115                                                      ; branchcc occurs ; |4682| 
    6116 0013e5       $C$L150:    
    6117                      .dwpsn  file "../FreeRTOS/Source/tasks.c",line 4726,column 4,is_stmt
    6118 0013e5 F016          CMP *SP(#11) == #1, TC1 ; |4726| 
         0013e7 0001 
    6119 0013e9 0474          BCC $C$L152,!TC1 ; |4726| 
         0013eb 5B   
    6120                                                      ; branchcc occurs ; |4726| 
    6121                      .dwpsn  file "../FreeRTOS/Source/tasks.c",line 4728,column 5,is_stmt
    6122 0013ec ED10          MOV dbl(*SP(#8)), XAR0
         0013ee 8F   
    6123 0013ef 1404          AADD #4, AR0 ; |4728| 
         0013f1 84   
    6124              $C$DW$459       .dwtag  DW_TAG_TI_branch
    6125                      .dwattr $C$DW$459, DW_AT_low_pc(0x00)
    6126                      .dwattr $C$DW$459, DW_AT_name("_uxListRemove")
    6127                      .dwattr $C$DW$459, DW_AT_TI_call
    6128 0013f2 6C00          CALL #_uxListRemove ; |4728| 
         0013f4 0000!
    6129                                                      ; call occurs [#_uxListRemove] ; |4728| 
    6130                      .dwpsn  file "../FreeRTOS/Source/tasks.c",line 4729,column 5,is_stmt
    6131 0013f6 ED10          MOV dbl(*SP(#8)), XAR3
         0013f8 BF   
    6132 0013f9 A931          MOV *(#_uxTopReadyPriority), AR1 ; |4729| 
         0013fb 0000 
         0013fd 65-  
    6133 0013fe AA6D          MOV *AR3(#24), AR2 ; |4729| 
         001400 0018 
    6134 001402 1298          CMPU AR2 <= AR1, TC1 ; |4729| 
         001404 A4   
    6135 001405 64E4          BCC $C$L151,TC1 ; |4729| 
    6136                                                      ; branchcc occurs ; |4729| 
    6137 001407 A96D          MOV *AR3(#24), AR1 ; |4729| 
         001409 0018 
    6138 00140b C931          MOV AR1, *(#_uxTopReadyPriority) ; |4729| 
         00140d 0000 
         00140f 65-  
    6139 001410       $C$L151:    
    6140 001410 F86D          MPYMK *AR3(#24), #10, AC0 ; |4729| 
         001412 0A00 
         001414 0018 
TMS320C55x Assembler PC v4.4.1 Sat Sep 08 17:11:34 2018

Tools Copyright (c) 1996-2012 Texas Instruments Incorporated
tasks.asm                                                            PAGE  137

    6141 001416 2209          MOV AC0, AR1 ; |4729| 
    6142 001418 EC31          AMOV #_pxReadyTasksLists, XAR0 ; |4729| 
         00141a 8E00 
         00141c 0004-
    6143 00141e 1490          AADD AR1, AR0 ; |4729| 
         001420 80   
    6144 001421 ED10          MOV dbl(*SP(#8)), XAR1
         001423 9F   
    6145 001424 1404          AADD #4, AR1 ; |4729| 
         001426 94   
    6146              $C$DW$460       .dwtag  DW_TAG_TI_branch
    6147                      .dwattr $C$DW$460, DW_AT_low_pc(0x00)
    6148                      .dwattr $C$DW$460, DW_AT_name("_vListInsertEnd")
    6149                      .dwattr $C$DW$460, DW_AT_TI_call
    6150 001427 6C00          CALL #_vListInsertEnd ; |4729| 
         001429 0000!
    6151                                                      ; call occurs [#_vListInsertEnd] ; |4729| 
    6152                      .dwpsn  file "../FreeRTOS/Source/tasks.c",line 4750,column 5,is_stmt
    6153 00142b ED31          MOV dbl(*(#_pxCurrentTCB)), XAR3
         00142d BF00 
         00142f 0002-
    6154 001431 A96D          MOV *AR3(#24), AR1 ; |4750| 
         001433 0018 
    6155 001435 ED10          MOV dbl(*SP(#8)), XAR3
         001437 BF   
    6156 001438 AA6D          MOV *AR3(#24), AR2 ; |4750| 
         00143a 0018 
    6157 00143c 1298          CMPU AR2 <= AR1, TC1 ; |4750| 
         00143e A4   
    6158 00143f 6364          BCC $C$L152,TC1 ; |4750| 
    6159                                                      ; branchcc occurs ; |4750| 
    6160                      .dwpsn  file "../FreeRTOS/Source/tasks.c",line 4754,column 6,is_stmt
    6161              $C$DW$461       .dwtag  DW_TAG_TI_branch
    6162                      .dwattr $C$DW$461, DW_AT_low_pc(0x00)
    6163                      .dwattr $C$DW$461, DW_AT_name("_vPortYield")
    6164                      .dwattr $C$DW$461, DW_AT_TI_call
    6165 001441 6C00          CALL #_vPortYield ; |4754| 
         001443 0000!
    6166                                                      ; call occurs [#_vPortYield] ; |4754| 
    6167                      .dwpsn  file "../FreeRTOS/Source/tasks.c",line 4755,column 5,is_stmt
    6168 001445 4A00          B $C$L152 ; |4755| 
    6169                                                      ; branch occurs ; |4755| 
    6170 001447       $C$L152:    
    6171                      .dwpsn  file "../FreeRTOS/Source/tasks.c",line 4766,column 3,is_stmt
    6172 001447 A931          MOV *(#_usCriticalNesting), AR1 ; |4766| 
         001449 0000 
         00144b 00!  
    6173 00144c 0409          BCC $C$L153,AR1 == #0 ; |4766| 
         00144e 14   
    6174                                                      ; branchcc occurs ; |4766| 
    6175 00144f F731          SUB #1, *(#_usCriticalNesting) ; |4766| 
         001451 FFFF 
         001453 0000 
         001455 00!  
    6176 001456 20            NOP
TMS320C55x Assembler PC v4.4.1 Sat Sep 08 17:11:34 2018

Tools Copyright (c) 1996-2012 Texas Instruments Incorporated
tasks.asm                                                            PAGE  138

    6177 001457 20            NOP
    6178 001458 20            NOP
    6179 001459 A931          MOV *(#_usCriticalNesting), AR1 ; |4766| 
         00145b 0000 
         00145d 00!  
    6180 00145e 6199          BCC $C$L153,AR1 != #0 ; |4766| 
    6181                                                      ; branchcc occurs ; |4766| 
    6182 001460 20     nop
    6183 001461 46B2   bclr INTM
    6184 001463       $C$L153:    
    6185                      .dwpsn  file "../FreeRTOS/Source/tasks.c",line 4768,column 3,is_stmt
    6186 001463 A414          MOV *SP(#10), T0 ; |4768| 
    6187                      .dwpsn  file "../FreeRTOS/Source/tasks.c",line 4769,column 2,is_stmt
    6188 001465 4E0D          AADD #13, SP
    6189                      .dwcfi  cfa_offset, 1
    6190              $C$DW$462       .dwtag  DW_TAG_TI_branch
    6191                      .dwattr $C$DW$462, DW_AT_low_pc(0x00)
    6192                      .dwattr $C$DW$462, DW_AT_TI_return
    6193 001467 4804          RET
    6194                                                      ; return occurs
    6195                      .dwattr $C$DW$447, DW_AT_TI_end_file("../FreeRTOS/Source/tasks.c")
    6196                      .dwattr $C$DW$447, DW_AT_TI_end_line(0x12a1)
    6197                      .dwattr $C$DW$447, DW_AT_TI_end_column(0x02)
    6198                      .dwendentry
    6199                      .dwendtag $C$DW$447
    6200              
    6201 001469               .sect   ".text"
    6202                      .align 4
    6203                      .global _xTaskGenericNotifyFromISR
    6204              
    6205              $C$DW$463       .dwtag  DW_TAG_subprogram, DW_AT_name("xTaskGenericNotifyFromISR")
    6206                      .dwattr $C$DW$463, DW_AT_low_pc(_xTaskGenericNotifyFromISR)
    6207                      .dwattr $C$DW$463, DW_AT_high_pc(0x00)
    6208                      .dwattr $C$DW$463, DW_AT_TI_symbol_name("_xTaskGenericNotifyFromISR")
    6209                      .dwattr $C$DW$463, DW_AT_external
    6210                      .dwattr $C$DW$463, DW_AT_type(*$C$DW$T$44)
    6211                      .dwattr $C$DW$463, DW_AT_TI_begin_file("../FreeRTOS/Source/tasks.c")
    6212                      .dwattr $C$DW$463, DW_AT_TI_begin_line(0x12a8)
    6213                      .dwattr $C$DW$463, DW_AT_TI_begin_column(0x0d)
    6214                      .dwattr $C$DW$463, DW_AT_TI_max_frame_size(0x10)
    6215                      .dwpsn  file "../FreeRTOS/Source/tasks.c",line 4777,column 2,is_stmt,address _xTaskGenericNotifyFromI
    6216              
    6217                      .dwfde $C$DW$CIE, _xTaskGenericNotifyFromISR
    6218              $C$DW$464       .dwtag  DW_TAG_formal_parameter, DW_AT_name("xTaskToNotify")
    6219                      .dwattr $C$DW$464, DW_AT_TI_symbol_name("_xTaskToNotify")
    6220                      .dwattr $C$DW$464, DW_AT_type(*$C$DW$T$70)
    6221                      .dwattr $C$DW$464, DW_AT_location[DW_OP_reg17]
    6222              $C$DW$465       .dwtag  DW_TAG_formal_parameter, DW_AT_name("ulValue")
    6223                      .dwattr $C$DW$465, DW_AT_TI_symbol_name("_ulValue")
    6224                      .dwattr $C$DW$465, DW_AT_type(*$C$DW$T$29)
    6225                      .dwattr $C$DW$465, DW_AT_location[DW_OP_reg0]
    6226              $C$DW$466       .dwtag  DW_TAG_formal_parameter, DW_AT_name("eAction")
    6227                      .dwattr $C$DW$466, DW_AT_TI_symbol_name("_eAction")
    6228                      .dwattr $C$DW$466, DW_AT_type(*$C$DW$T$47)
    6229                      .dwattr $C$DW$466, DW_AT_location[DW_OP_reg12]
TMS320C55x Assembler PC v4.4.1 Sat Sep 08 17:11:34 2018

Tools Copyright (c) 1996-2012 Texas Instruments Incorporated
tasks.asm                                                            PAGE  139

    6230              $C$DW$467       .dwtag  DW_TAG_formal_parameter, DW_AT_name("pulPreviousNotificationValue")
    6231                      .dwattr $C$DW$467, DW_AT_TI_symbol_name("_pulPreviousNotificationValue")
    6232                      .dwattr $C$DW$467, DW_AT_type(*$C$DW$T$130)
    6233                      .dwattr $C$DW$467, DW_AT_location[DW_OP_reg19]
    6234              $C$DW$468       .dwtag  DW_TAG_formal_parameter, DW_AT_name("pxHigherPriorityTaskWoken")
    6235                      .dwattr $C$DW$468, DW_AT_TI_symbol_name("_pxHigherPriorityTaskWoken")
    6236                      .dwattr $C$DW$468, DW_AT_type(*$C$DW$T$106)
    6237                      .dwattr $C$DW$468, DW_AT_location[DW_OP_reg21]
    6238              ;*******************************************************************************
    6239              ;* FUNCTION NAME: xTaskGenericNotifyFromISR                                    *
    6240              ;*                                                                             *
    6241              ;*   Function Uses Regs : AC0,AC0,AC1,AC1,T0,AR0,XAR0,AR1,XAR1,AR2,XAR2,AR3,   *
    6242              ;*                        XAR3,SP,CARRY,TC1,M40,SATA,SATD,RDM,FRCT,SMUL        *
    6243              ;*   Stack Frame        : Compact (No Frame Pointer, w/ debug)                 *
    6244              ;*   Total Frame Size   : 16 words                                             *
    6245              ;*                        (1 return address/alignment)                         *
    6246              ;*                        (15 local values)                                    *
    6247              ;*   Min System Stack   : 1 word                                               *
    6248              ;*******************************************************************************
    6249 00146c       _xTaskGenericNotifyFromISR:
    6250                      .dwcfi  cfa_offset, 1
    6251                      .dwcfi  save_reg_to_mem, 91, -1
    6252 00146c 4EF1          AADD #-15, SP
    6253                      .dwcfi  cfa_offset, 16
    6254              $C$DW$469       .dwtag  DW_TAG_variable, DW_AT_name("xTaskToNotify")
    6255                      .dwattr $C$DW$469, DW_AT_TI_symbol_name("_xTaskToNotify")
    6256                      .dwattr $C$DW$469, DW_AT_type(*$C$DW$T$70)
    6257                      .dwattr $C$DW$469, DW_AT_location[DW_OP_bregx 0x24 0]
    6258              $C$DW$470       .dwtag  DW_TAG_variable, DW_AT_name("ulValue")
    6259                      .dwattr $C$DW$470, DW_AT_TI_symbol_name("_ulValue")
    6260                      .dwattr $C$DW$470, DW_AT_type(*$C$DW$T$29)
    6261                      .dwattr $C$DW$470, DW_AT_location[DW_OP_bregx 0x24 2]
    6262              $C$DW$471       .dwtag  DW_TAG_variable, DW_AT_name("eAction")
    6263                      .dwattr $C$DW$471, DW_AT_TI_symbol_name("_eAction")
    6264                      .dwattr $C$DW$471, DW_AT_type(*$C$DW$T$47)
    6265                      .dwattr $C$DW$471, DW_AT_location[DW_OP_bregx 0x24 4]
    6266              $C$DW$472       .dwtag  DW_TAG_variable, DW_AT_name("pulPreviousNotificationValue")
    6267                      .dwattr $C$DW$472, DW_AT_TI_symbol_name("_pulPreviousNotificationValue")
    6268                      .dwattr $C$DW$472, DW_AT_type(*$C$DW$T$130)
    6269                      .dwattr $C$DW$472, DW_AT_location[DW_OP_bregx 0x24 6]
    6270              $C$DW$473       .dwtag  DW_TAG_variable, DW_AT_name("pxHigherPriorityTaskWoken")
    6271                      .dwattr $C$DW$473, DW_AT_TI_symbol_name("_pxHigherPriorityTaskWoken")
    6272                      .dwattr $C$DW$473, DW_AT_type(*$C$DW$T$106)
    6273                      .dwattr $C$DW$473, DW_AT_location[DW_OP_bregx 0x24 8]
    6274              $C$DW$474       .dwtag  DW_TAG_variable, DW_AT_name("pxTCB")
    6275                      .dwattr $C$DW$474, DW_AT_TI_symbol_name("_pxTCB")
    6276                      .dwattr $C$DW$474, DW_AT_type(*$C$DW$T$82)
    6277                      .dwattr $C$DW$474, DW_AT_location[DW_OP_bregx 0x24 10]
    6278              $C$DW$475       .dwtag  DW_TAG_variable, DW_AT_name("ucOriginalNotifyState")
    6279                      .dwattr $C$DW$475, DW_AT_TI_symbol_name("_ucOriginalNotifyState")
    6280                      .dwattr $C$DW$475, DW_AT_type(*$C$DW$T$31)
    6281                      .dwattr $C$DW$475, DW_AT_location[DW_OP_bregx 0x24 12]
    6282              $C$DW$476       .dwtag  DW_TAG_variable, DW_AT_name("xReturn")
    6283                      .dwattr $C$DW$476, DW_AT_TI_symbol_name("_xReturn")
    6284                      .dwattr $C$DW$476, DW_AT_type(*$C$DW$T$44)
TMS320C55x Assembler PC v4.4.1 Sat Sep 08 17:11:34 2018

Tools Copyright (c) 1996-2012 Texas Instruments Incorporated
tasks.asm                                                            PAGE  140

    6285                      .dwattr $C$DW$476, DW_AT_location[DW_OP_bregx 0x24 13]
    6286              $C$DW$477       .dwtag  DW_TAG_variable, DW_AT_name("uxSavedInterruptStatus")
    6287                      .dwattr $C$DW$477, DW_AT_TI_symbol_name("_uxSavedInterruptStatus")
    6288                      .dwattr $C$DW$477, DW_AT_type(*$C$DW$T$25)
    6289                      .dwattr $C$DW$477, DW_AT_location[DW_OP_bregx 0x24 14]
    6290 00146e EB10          MOV XAR2, dbl(*SP(#8))
         001470 A5   
    6291 001471 EB0C          MOV XAR1, dbl(*SP(#6))
         001473 95   
    6292 001474 C408          MOV T0, *SP(#4) ; |4777| 
    6293 001476 EB04          MOV AC0, dbl(*SP(#2)) ; |4777| 
         001478 08   
    6294 001479 EB00          MOV XAR0, dbl(*SP(#0))
         00147b 85   
    6295                      .dwpsn  file "../FreeRTOS/Source/tasks.c",line 4780,column 13,is_stmt
    6296 00147c E61A          MOV #1, *SP(#13) ; |4780| 
         00147e 01   
    6297                      .dwpsn  file "../FreeRTOS/Source/tasks.c",line 4803,column 3,is_stmt
    6298 00147f ED00          MOV dbl(*SP(#0)), XAR3
         001481 BF   
    6299 001482 EB14          MOV XAR3, dbl(*SP(#10))
         001484 B5   
    6300                      .dwpsn  file "../FreeRTOS/Source/tasks.c",line 4805,column 3,is_stmt
    6301 001485 E61C          MOV #0, *SP(#14) ; |4805| 
         001487 00   
    6302                      .dwpsn  file "../FreeRTOS/Source/tasks.c",line 4807,column 4,is_stmt
    6303 001488 ED0C          MOV dbl(*SP(#6)), XAR3
         00148a BF   
    6304 00148b 90B0          MOV XAR3, AC0
    6305 00148d 6600          BCC $C$L154,AC0 == #0 ; |4807| 
    6306                                                      ; branchcc occurs ; |4807| 
    6307                      .dwpsn  file "../FreeRTOS/Source/tasks.c",line 4809,column 5,is_stmt
    6308 00148f ED14          MOV dbl(*SP(#10)), XAR3
         001491 BF   
    6309 001492 ED0C          MOV dbl(*SP(#6)), XAR2
         001494 AF   
    6310 001495 142A          AADD #42, AR3 ; |4809| 
         001497 B4   
    6311 001498 8061          MOV dbl(*AR3), dbl(*AR2) ; |4809| 
         00149a 00   
    6312 00149b       $C$L154:    
    6313                      .dwpsn  file "../FreeRTOS/Source/tasks.c",line 4812,column 4,is_stmt
    6314 00149b ED14          MOV dbl(*SP(#10)), XAR3
         00149d BF   
    6315 00149e A96D          MOV *AR3(#44), AR1 ; |4812| 
         0014a0 002C 
    6316 0014a2 C918          MOV AR1, *SP(#12) ; |4812| 
    6317                      .dwpsn  file "../FreeRTOS/Source/tasks.c",line 4813,column 4,is_stmt
    6318 0014a4 ED14          MOV dbl(*SP(#10)), XAR3
         0014a6 BF   
    6319 0014a7 E66D          MOV #2, *AR3(#44) ; |4813| 
         0014a9 0200 
         0014ab 2C   
    6320                      .dwpsn  file "../FreeRTOS/Source/tasks.c",line 4815,column 4,is_stmt
    6321 0014ac 0600          B $C$L160 ; |4815| 
TMS320C55x Assembler PC v4.4.1 Sat Sep 08 17:11:34 2018

Tools Copyright (c) 1996-2012 Texas Instruments Incorporated
tasks.asm                                                            PAGE  141

         0014ae 4D   
    6322                                                      ; branch occurs ; |4815| 
    6323 0014af       $C$L155:    
    6324                      .dwpsn  file "../FreeRTOS/Source/tasks.c",line 4818,column 6,is_stmt
    6325 0014af ED14          MOV dbl(*SP(#10)), XAR3
         0014b1 BF   
    6326 0014b2 ED04          MOV dbl(*SP(#2)), AC0 ; |4818| 
         0014b4 08   
    6327 0014b5 ED6D          MOV dbl(*AR3(#42)), AC1 ; |4818| 
         0014b7 1800 
         0014b9 2A   
    6328 0014ba 2A10          OR AC1, AC0 ; |4818| 
    6329 0014bc EB6D          MOV AC0, dbl(*AR3(#42)) ; |4818| 
         0014be 0800 
         0014c0 2A   
    6330                      .dwpsn  file "../FreeRTOS/Source/tasks.c",line 4819,column 11,is_stmt
    6331 0014c1 0600          B $C$L162 ; |4819| 
         0014c3 65   
    6332                                                      ; branch occurs ; |4819| 
    6333 0014c4       $C$L156:    
    6334                      .dwpsn  file "../FreeRTOS/Source/tasks.c",line 4822,column 6,is_stmt
    6335 0014c4 ED14          MOV dbl(*SP(#10)), XAR3
         0014c6 BF   
    6336 0014c7 ED6D          MOV dbl(*AR3(#42)), AC0 ; |4822| 
         0014c9 0800 
         0014cb 2A   
    6337 0014cc 4010          ADD #1, AC0 ; |4822| 
    6338 0014ce EB6D          MOV AC0, dbl(*AR3(#42)) ; |4822| 
         0014d0 0800 
         0014d2 2A   
    6339                      .dwpsn  file "../FreeRTOS/Source/tasks.c",line 4823,column 11,is_stmt
    6340 0014d3 0600          B $C$L162 ; |4823| 
         0014d5 53   
    6341                                                      ; branch occurs ; |4823| 
    6342 0014d6       $C$L157:    
    6343                      .dwpsn  file "../FreeRTOS/Source/tasks.c",line 4826,column 6,is_stmt
    6344 0014d6 ED14          MOV dbl(*SP(#10)), XAR3
         0014d8 BF   
    6345 0014d9 ED04          MOV dbl(*SP(#2)), AC0 ; |4826| 
         0014db 08   
    6346 0014dc EB6D          MOV AC0, dbl(*AR3(#42)) ; |4826| 
         0014de 0800 
         0014e0 2A   
    6347                      .dwpsn  file "../FreeRTOS/Source/tasks.c",line 4827,column 11,is_stmt
    6348 0014e1 0600          B $C$L162 ; |4827| 
         0014e3 45   
    6349                                                      ; branch occurs ; |4827| 
    6350 0014e4       $C$L158:    
    6351                      .dwpsn  file "../FreeRTOS/Source/tasks.c",line 4830,column 6,is_stmt
    6352 0014e4 F018          CMP *SP(#12) == #2, TC1 ; |4830| 
         0014e6 0002 
    6353 0014e8 66E4          BCC $C$L159,TC1 ; |4830| 
    6354                                                      ; branchcc occurs ; |4830| 
    6355                      .dwpsn  file "../FreeRTOS/Source/tasks.c",line 4832,column 7,is_stmt
    6356 0014ea ED14          MOV dbl(*SP(#10)), XAR3
TMS320C55x Assembler PC v4.4.1 Sat Sep 08 17:11:34 2018

Tools Copyright (c) 1996-2012 Texas Instruments Incorporated
tasks.asm                                                            PAGE  142

         0014ec BF   
    6357 0014ed ED04          MOV dbl(*SP(#2)), AC0 ; |4832| 
         0014ef 08   
    6358 0014f0 EB6D          MOV AC0, dbl(*AR3(#42)) ; |4832| 
         0014f2 0800 
         0014f4 2A   
    6359                      .dwpsn  file "../FreeRTOS/Source/tasks.c",line 4833,column 6,is_stmt
    6360 0014f5 4A32          B $C$L162 ; |4833| 
    6361                                                      ; branch occurs ; |4833| 
    6362 0014f7       $C$L159:    
    6363                      .dwpsn  file "../FreeRTOS/Source/tasks.c",line 4837,column 7,is_stmt
    6364 0014f7 E61A          MOV #0, *SP(#13) ; |4837| 
         0014f9 00   
    6365                      .dwpsn  file "../FreeRTOS/Source/tasks.c",line 4839,column 11,is_stmt
    6366 0014fa 4A2D          B $C$L162 ; |4839| 
    6367                                                      ; branch occurs ; |4839| 
    6368 0014fc       $C$L160:    
    6369                      .dwpsn  file "../FreeRTOS/Source/tasks.c",line 4815,column 4,is_stmt
    6370              
    6371 0014fc A908          MOV *SP(#4), AR1 ; |4815| 
    6372 0014fe 3D2A  ||      MOV #2, AR2
    6373              
    6374 001500 12A4          CMP AR1 > AR2, TC1 ; |4815| 
         001502 90   
    6375 001503 0464          BCC $C$L161,TC1 ; |4815| 
         001505 13   
    6376                                                      ; branchcc occurs ; |4815| 
    6377 001506 1290          CMP AR1 == AR2, TC1 ; |4815| 
         001508 A0   
    6378 001509 0464          BCC $C$L156,TC1 ; |4815| 
         00150b B8   
    6379                                                      ; branchcc occurs ; |4815| 
    6380 00150c 0409          BCC $C$L162,AR1 == #0 ; |4815| 
         00150e 1A   
    6381                                                      ; branchcc occurs ; |4815| 
    6382 00150f 3C1A          MOV #1, AR2
    6383 001511 1290          CMP AR1 == AR2, TC1 ; |4815| 
         001513 A0   
    6384 001514 0464          BCC $C$L155,TC1 ; |4815| 
         001516 98   
    6385                                                      ; branchcc occurs ; |4815| 
    6386 001517 4A10          B $C$L162 ; |4815| 
    6387                                                      ; branch occurs ; |4815| 
    6388 001519       $C$L161:    
    6389 001519 3C3A          MOV #3, AR2
    6390 00151b 1290          CMP AR1 == AR2, TC1 ; |4815| 
         00151d A0   
    6391 00151e 0464          BCC $C$L157,TC1 ; |4815| 
         001520 B5   
    6392                                                      ; branchcc occurs ; |4815| 
    6393 001521 3C4A          MOV #4, AR2
    6394 001523 1290          CMP AR1 == AR2, TC1 ; |4815| 
         001525 A0   
    6395 001526 0464          BCC $C$L158,TC1 ; |4815| 
         001528 BB   
TMS320C55x Assembler PC v4.4.1 Sat Sep 08 17:11:34 2018

Tools Copyright (c) 1996-2012 Texas Instruments Incorporated
tasks.asm                                                            PAGE  143

    6396                                                      ; branchcc occurs ; |4815| 
    6397 001529       $C$L162:    
    6398                      .dwpsn  file "../FreeRTOS/Source/tasks.c",line 4858,column 4,is_stmt
    6399 001529 F018          CMP *SP(#12) == #1, TC1 ; |4858| 
         00152b 0001 
    6400 00152d 6D74          BCC $C$L167,!TC1 ; |4858| 
         00152f 0080 
    6401                                                      ; branchcc occurs ; |4858| 
    6402                      .dwpsn  file "../FreeRTOS/Source/tasks.c",line 4863,column 5,is_stmt
    6403 001531 A931          MOV *(#_uxSchedulerSuspended), AR1 ; |4863| 
         001533 0000 
         001535 6E-  
    6404 001536 0419          BCC $C$L164,AR1 != #0 ; |4863| 
         001538 41   
    6405                                                      ; branchcc occurs ; |4863| 
    6406                      .dwpsn  file "../FreeRTOS/Source/tasks.c",line 4865,column 6,is_stmt
    6407 001539 ED14          MOV dbl(*SP(#10)), XAR0
         00153b 8F   
    6408 00153c 1404          AADD #4, AR0 ; |4865| 
         00153e 84   
    6409              $C$DW$478       .dwtag  DW_TAG_TI_branch
    6410                      .dwattr $C$DW$478, DW_AT_low_pc(0x00)
    6411                      .dwattr $C$DW$478, DW_AT_name("_uxListRemove")
    6412                      .dwattr $C$DW$478, DW_AT_TI_call
    6413 00153f 6C00          CALL #_uxListRemove ; |4865| 
         001541 0000!
    6414                                                      ; call occurs [#_uxListRemove] ; |4865| 
    6415                      .dwpsn  file "../FreeRTOS/Source/tasks.c",line 4866,column 6,is_stmt
    6416 001543 ED14          MOV dbl(*SP(#10)), XAR3
         001545 BF   
    6417 001546 A931          MOV *(#_uxTopReadyPriority), AR1 ; |4866| 
         001548 0000 
         00154a 65-  
    6418 00154b AA6D          MOV *AR3(#24), AR2 ; |4866| 
         00154d 0018 
    6419 00154f 1298          CMPU AR2 <= AR1, TC1 ; |4866| 
         001551 A4   
    6420 001552 64E4          BCC $C$L163,TC1 ; |4866| 
    6421                                                      ; branchcc occurs ; |4866| 
    6422 001554 A96D          MOV *AR3(#24), AR1 ; |4866| 
         001556 0018 
    6423 001558 C931          MOV AR1, *(#_uxTopReadyPriority) ; |4866| 
         00155a 0000 
         00155c 65-  
    6424 00155d       $C$L163:    
    6425 00155d F86D          MPYMK *AR3(#24), #10, AC0 ; |4866| 
         00155f 0A00 
         001561 0018 
    6426 001563 2209          MOV AC0, AR1 ; |4866| 
    6427 001565 EC31          AMOV #_pxReadyTasksLists, XAR0 ; |4866| 
         001567 8E00 
         001569 0004-
    6428 00156b 1490          AADD AR1, AR0 ; |4866| 
         00156d 80   
    6429 00156e ED14          MOV dbl(*SP(#10)), XAR1
TMS320C55x Assembler PC v4.4.1 Sat Sep 08 17:11:34 2018

Tools Copyright (c) 1996-2012 Texas Instruments Incorporated
tasks.asm                                                            PAGE  144

         001570 9F   
    6430 001571 1404          AADD #4, AR1 ; |4866| 
         001573 94   
    6431              $C$DW$479       .dwtag  DW_TAG_TI_branch
    6432                      .dwattr $C$DW$479, DW_AT_low_pc(0x00)
    6433                      .dwattr $C$DW$479, DW_AT_name("_vListInsertEnd")
    6434                      .dwattr $C$DW$479, DW_AT_TI_call
    6435 001574 6C00          CALL #_vListInsertEnd ; |4866| 
         001576 0000!
    6436                                                      ; call occurs [#_vListInsertEnd] ; |4866| 
    6437                      .dwpsn  file "../FreeRTOS/Source/tasks.c",line 4867,column 5,is_stmt
    6438 001578 4A10          B $C$L165 ; |4867| 
    6439                                                      ; branch occurs ; |4867| 
    6440 00157a       $C$L164:    
    6441                      .dwpsn  file "../FreeRTOS/Source/tasks.c",line 4872,column 6,is_stmt
    6442 00157a ED14          MOV dbl(*SP(#10)), XAR1
         00157c 9F   
    6443 00157d EC31          AMOV #_xPendingReadyList, XAR0 ; |4872| 
         00157f 8E00 
         001581 0044-
    6444 001583 140E          AADD #14, AR1 ; |4872| 
         001585 94   
    6445              $C$DW$480       .dwtag  DW_TAG_TI_branch
    6446                      .dwattr $C$DW$480, DW_AT_low_pc(0x00)
    6447                      .dwattr $C$DW$480, DW_AT_name("_vListInsertEnd")
    6448                      .dwattr $C$DW$480, DW_AT_TI_call
    6449 001586 6C00          CALL #_vListInsertEnd ; |4872| 
         001588 0000!
    6450                                                      ; call occurs [#_vListInsertEnd] ; |4872| 
    6451 00158a       $C$L165:    
    6452                      .dwpsn  file "../FreeRTOS/Source/tasks.c",line 4875,column 5,is_stmt
    6453 00158a ED31          MOV dbl(*(#_pxCurrentTCB)), XAR3
         00158c BF00 
         00158e 0002-
    6454 001590 A96D          MOV *AR3(#24), AR1 ; |4875| 
         001592 0018 
    6455 001594 ED14          MOV dbl(*SP(#10)), XAR3
         001596 BF   
    6456 001597 AA6D          MOV *AR3(#24), AR2 ; |4875| 
         001599 0018 
    6457 00159b 1298          CMPU AR2 <= AR1, TC1 ; |4875| 
         00159d A4   
    6458 00159e 0464          BCC $C$L167,TC1 ; |4875| 
         0015a0 10   
    6459                                                      ; branchcc occurs ; |4875| 
    6460                      .dwpsn  file "../FreeRTOS/Source/tasks.c",line 4879,column 6,is_stmt
    6461 0015a1 ED10          MOV dbl(*SP(#8)), XAR3
         0015a3 BF   
    6462 0015a4 90B0          MOV XAR3, AC0
    6463 0015a6 6180          BCC $C$L166,AC0 == #0 ; |4879| 
    6464                                                      ; branchcc occurs ; |4879| 
    6465                      .dwpsn  file "../FreeRTOS/Source/tasks.c",line 4881,column 7,is_stmt
    6466 0015a8 E661          MOV #1, *AR3 ; |4881| 
         0015aa 01   
    6467 0015ab       $C$L166:    
TMS320C55x Assembler PC v4.4.1 Sat Sep 08 17:11:34 2018

Tools Copyright (c) 1996-2012 Texas Instruments Incorporated
tasks.asm                                                            PAGE  145

    6468                      .dwpsn  file "../FreeRTOS/Source/tasks.c",line 4887,column 6,is_stmt
    6469 0015ab E631          MOV #1, *(#_xYieldPending) ; |4887| 
         0015ad 0100 
         0015af 0068-
    6470                      .dwpsn  file "../FreeRTOS/Source/tasks.c",line 4888,column 5,is_stmt
    6471 0015b1       $C$L167:    
    6472                      .dwpsn  file "../FreeRTOS/Source/tasks.c",line 4895,column 3,is_stmt
    6473                      .dwpsn  file "../FreeRTOS/Source/tasks.c",line 4897,column 3,is_stmt
    6474 0015b1 A41A          MOV *SP(#13), T0 ; |4897| 
    6475                      .dwpsn  file "../FreeRTOS/Source/tasks.c",line 4898,column 2,is_stmt
    6476 0015b3 4E0F          AADD #15, SP
    6477                      .dwcfi  cfa_offset, 1
    6478              $C$DW$481       .dwtag  DW_TAG_TI_branch
    6479                      .dwattr $C$DW$481, DW_AT_low_pc(0x00)
    6480                      .dwattr $C$DW$481, DW_AT_TI_return
    6481 0015b5 4804          RET
    6482                                                      ; return occurs
    6483                      .dwattr $C$DW$463, DW_AT_TI_end_file("../FreeRTOS/Source/tasks.c")
    6484                      .dwattr $C$DW$463, DW_AT_TI_end_line(0x1322)
    6485                      .dwattr $C$DW$463, DW_AT_TI_end_column(0x02)
    6486                      .dwendentry
    6487                      .dwendtag $C$DW$463
    6488              
    6489 0015b7               .sect   ".text"
    6490                      .align 4
    6491                      .global _vTaskNotifyGiveFromISR
    6492              
    6493              $C$DW$482       .dwtag  DW_TAG_subprogram, DW_AT_name("vTaskNotifyGiveFromISR")
    6494                      .dwattr $C$DW$482, DW_AT_low_pc(_vTaskNotifyGiveFromISR)
    6495                      .dwattr $C$DW$482, DW_AT_high_pc(0x00)
    6496                      .dwattr $C$DW$482, DW_AT_TI_symbol_name("_vTaskNotifyGiveFromISR")
    6497                      .dwattr $C$DW$482, DW_AT_external
    6498                      .dwattr $C$DW$482, DW_AT_TI_begin_file("../FreeRTOS/Source/tasks.c")
    6499                      .dwattr $C$DW$482, DW_AT_TI_begin_line(0x1329)
    6500                      .dwattr $C$DW$482, DW_AT_TI_begin_column(0x07)
    6501                      .dwattr $C$DW$482, DW_AT_TI_max_frame_size(0x0a)
    6502                      .dwpsn  file "../FreeRTOS/Source/tasks.c",line 4906,column 2,is_stmt,address _vTaskNotifyGiveFromISR
    6503              
    6504                      .dwfde $C$DW$CIE, _vTaskNotifyGiveFromISR
    6505              $C$DW$483       .dwtag  DW_TAG_formal_parameter, DW_AT_name("xTaskToNotify")
    6506                      .dwattr $C$DW$483, DW_AT_TI_symbol_name("_xTaskToNotify")
    6507                      .dwattr $C$DW$483, DW_AT_type(*$C$DW$T$70)
    6508                      .dwattr $C$DW$483, DW_AT_location[DW_OP_reg17]
    6509              $C$DW$484       .dwtag  DW_TAG_formal_parameter, DW_AT_name("pxHigherPriorityTaskWoken")
    6510                      .dwattr $C$DW$484, DW_AT_TI_symbol_name("_pxHigherPriorityTaskWoken")
    6511                      .dwattr $C$DW$484, DW_AT_type(*$C$DW$T$106)
    6512                      .dwattr $C$DW$484, DW_AT_location[DW_OP_reg19]
    6513              ;*******************************************************************************
    6514              ;* FUNCTION NAME: vTaskNotifyGiveFromISR                                       *
    6515              ;*                                                                             *
    6516              ;*   Function Uses Regs : AC0,AC0,AR0,XAR0,AR1,XAR1,AR2,AR3,XAR3,SP,CARRY,TC1, *
    6517              ;*                        M40,SATA,SATD,RDM,FRCT,SMUL                          *
    6518              ;*   Stack Frame        : Compact (No Frame Pointer, w/ debug)                 *
    6519              ;*   Total Frame Size   : 10 words                                             *
    6520              ;*                        (2 return address/alignment)                         *
TMS320C55x Assembler PC v4.4.1 Sat Sep 08 17:11:34 2018

Tools Copyright (c) 1996-2012 Texas Instruments Incorporated
tasks.asm                                                            PAGE  146

    6521              ;*                        (8 local values)                                     *
    6522              ;*   Min System Stack   : 1 word                                               *
    6523              ;*******************************************************************************
    6524 0015b8       _vTaskNotifyGiveFromISR:
    6525                      .dwcfi  cfa_offset, 1
    6526                      .dwcfi  save_reg_to_mem, 91, -1
    6527 0015b8 4EF7          AADD #-9, SP
    6528                      .dwcfi  cfa_offset, 10
    6529              $C$DW$485       .dwtag  DW_TAG_variable, DW_AT_name("xTaskToNotify")
    6530                      .dwattr $C$DW$485, DW_AT_TI_symbol_name("_xTaskToNotify")
    6531                      .dwattr $C$DW$485, DW_AT_type(*$C$DW$T$70)
    6532                      .dwattr $C$DW$485, DW_AT_location[DW_OP_bregx 0x24 0]
    6533              $C$DW$486       .dwtag  DW_TAG_variable, DW_AT_name("pxHigherPriorityTaskWoken")
    6534                      .dwattr $C$DW$486, DW_AT_TI_symbol_name("_pxHigherPriorityTaskWoken")
    6535                      .dwattr $C$DW$486, DW_AT_type(*$C$DW$T$106)
    6536                      .dwattr $C$DW$486, DW_AT_location[DW_OP_bregx 0x24 2]
    6537              $C$DW$487       .dwtag  DW_TAG_variable, DW_AT_name("pxTCB")
    6538                      .dwattr $C$DW$487, DW_AT_TI_symbol_name("_pxTCB")
    6539                      .dwattr $C$DW$487, DW_AT_type(*$C$DW$T$82)
    6540                      .dwattr $C$DW$487, DW_AT_location[DW_OP_bregx 0x24 4]
    6541              $C$DW$488       .dwtag  DW_TAG_variable, DW_AT_name("ucOriginalNotifyState")
    6542                      .dwattr $C$DW$488, DW_AT_TI_symbol_name("_ucOriginalNotifyState")
    6543                      .dwattr $C$DW$488, DW_AT_type(*$C$DW$T$31)
    6544                      .dwattr $C$DW$488, DW_AT_location[DW_OP_bregx 0x24 6]
    6545              $C$DW$489       .dwtag  DW_TAG_variable, DW_AT_name("uxSavedInterruptStatus")
    6546                      .dwattr $C$DW$489, DW_AT_TI_symbol_name("_uxSavedInterruptStatus")
    6547                      .dwattr $C$DW$489, DW_AT_type(*$C$DW$T$25)
    6548                      .dwattr $C$DW$489, DW_AT_location[DW_OP_bregx 0x24 7]
    6549 0015ba EB04          MOV XAR1, dbl(*SP(#2))
         0015bc 95   
    6550 0015bd EB00          MOV XAR0, dbl(*SP(#0))
         0015bf 85   
    6551                      .dwpsn  file "../FreeRTOS/Source/tasks.c",line 4931,column 3,is_stmt
    6552 0015c0 ED00          MOV dbl(*SP(#0)), XAR3
         0015c2 BF   
    6553 0015c3 EB08          MOV XAR3, dbl(*SP(#4))
         0015c5 B5   
    6554                      .dwpsn  file "../FreeRTOS/Source/tasks.c",line 4933,column 3,is_stmt
    6555 0015c6 E60E          MOV #0, *SP(#7) ; |4933| 
         0015c8 00   
    6556                      .dwpsn  file "../FreeRTOS/Source/tasks.c",line 4935,column 4,is_stmt
    6557 0015c9 ED08          MOV dbl(*SP(#4)), XAR3
         0015cb BF   
    6558 0015cc A96D          MOV *AR3(#44), AR1 ; |4935| 
         0015ce 002C 
    6559 0015d0 C90C          MOV AR1, *SP(#6) ; |4935| 
    6560                      .dwpsn  file "../FreeRTOS/Source/tasks.c",line 4936,column 4,is_stmt
    6561 0015d2 ED08          MOV dbl(*SP(#4)), XAR3
         0015d4 BF   
    6562 0015d5 E66D          MOV #2, *AR3(#44) ; |4936| 
         0015d7 0200 
         0015d9 2C   
    6563 0015da 20            NOP
    6564 0015db 20            NOP
    6565                      .dwpsn  file "../FreeRTOS/Source/tasks.c",line 4940,column 4,is_stmt
TMS320C55x Assembler PC v4.4.1 Sat Sep 08 17:11:34 2018

Tools Copyright (c) 1996-2012 Texas Instruments Incorporated
tasks.asm                                                            PAGE  147

    6566 0015dc ED08          MOV dbl(*SP(#4)), XAR3
         0015de BF   
    6567 0015df ED6D          MOV dbl(*AR3(#42)), AC0 ; |4940| 
         0015e1 0800 
         0015e3 2A   
    6568 0015e4 4010          ADD #1, AC0 ; |4940| 
    6569 0015e6 EB6D          MOV AC0, dbl(*AR3(#42)) ; |4940| 
         0015e8 0800 
         0015ea 2A   
    6570                      .dwpsn  file "../FreeRTOS/Source/tasks.c",line 4946,column 4,is_stmt
    6571 0015eb F00C          CMP *SP(#6) == #1, TC1 ; |4946| 
         0015ed 0001 
    6572 0015ef 6D74          BCC $C$L172,!TC1 ; |4946| 
         0015f1 0082 
    6573                                                      ; branchcc occurs ; |4946| 
    6574                      .dwpsn  file "../FreeRTOS/Source/tasks.c",line 4951,column 5,is_stmt
    6575 0015f3 A931          MOV *(#_uxSchedulerSuspended), AR1 ; |4951| 
         0015f5 0000 
         0015f7 6E-  
    6576 0015f8 0419          BCC $C$L169,AR1 != #0 ; |4951| 
         0015fa 41   
    6577                                                      ; branchcc occurs ; |4951| 
    6578                      .dwpsn  file "../FreeRTOS/Source/tasks.c",line 4953,column 6,is_stmt
    6579 0015fb ED08          MOV dbl(*SP(#4)), XAR0
         0015fd 8F   
    6580 0015fe 1404          AADD #4, AR0 ; |4953| 
         001600 84   
    6581              $C$DW$490       .dwtag  DW_TAG_TI_branch
    6582                      .dwattr $C$DW$490, DW_AT_low_pc(0x00)
    6583                      .dwattr $C$DW$490, DW_AT_name("_uxListRemove")
    6584                      .dwattr $C$DW$490, DW_AT_TI_call
    6585 001601 6C00          CALL #_uxListRemove ; |4953| 
         001603 0000!
    6586                                                      ; call occurs [#_uxListRemove] ; |4953| 
    6587                      .dwpsn  file "../FreeRTOS/Source/tasks.c",line 4954,column 6,is_stmt
    6588 001605 ED08          MOV dbl(*SP(#4)), XAR3
         001607 BF   
    6589 001608 A931          MOV *(#_uxTopReadyPriority), AR1 ; |4954| 
         00160a 0000 
         00160c 65-  
    6590 00160d AA6D          MOV *AR3(#24), AR2 ; |4954| 
         00160f 0018 
    6591 001611 1298          CMPU AR2 <= AR1, TC1 ; |4954| 
         001613 A4   
    6592 001614 64E4          BCC $C$L168,TC1 ; |4954| 
    6593                                                      ; branchcc occurs ; |4954| 
    6594 001616 A96D          MOV *AR3(#24), AR1 ; |4954| 
         001618 0018 
    6595 00161a C931          MOV AR1, *(#_uxTopReadyPriority) ; |4954| 
         00161c 0000 
         00161e 65-  
    6596 00161f       $C$L168:    
    6597 00161f F86D          MPYMK *AR3(#24), #10, AC0 ; |4954| 
         001621 0A00 
         001623 0018 
TMS320C55x Assembler PC v4.4.1 Sat Sep 08 17:11:34 2018

Tools Copyright (c) 1996-2012 Texas Instruments Incorporated
tasks.asm                                                            PAGE  148

    6598 001625 2209          MOV AC0, AR1 ; |4954| 
    6599 001627 EC31          AMOV #_pxReadyTasksLists, XAR0 ; |4954| 
         001629 8E00 
         00162b 0004-
    6600 00162d 1490          AADD AR1, AR0 ; |4954| 
         00162f 80   
    6601 001630 ED08          MOV dbl(*SP(#4)), XAR1
         001632 9F   
    6602 001633 1404          AADD #4, AR1 ; |4954| 
         001635 94   
    6603              $C$DW$491       .dwtag  DW_TAG_TI_branch
    6604                      .dwattr $C$DW$491, DW_AT_low_pc(0x00)
    6605                      .dwattr $C$DW$491, DW_AT_name("_vListInsertEnd")
    6606                      .dwattr $C$DW$491, DW_AT_TI_call
    6607 001636 6C00          CALL #_vListInsertEnd ; |4954| 
         001638 0000!
    6608                                                      ; call occurs [#_vListInsertEnd] ; |4954| 
    6609                      .dwpsn  file "../FreeRTOS/Source/tasks.c",line 4955,column 5,is_stmt
    6610 00163a 4A10          B $C$L170 ; |4955| 
    6611                                                      ; branch occurs ; |4955| 
    6612 00163c       $C$L169:    
    6613                      .dwpsn  file "../FreeRTOS/Source/tasks.c",line 4960,column 6,is_stmt
    6614 00163c ED08          MOV dbl(*SP(#4)), XAR1
         00163e 9F   
    6615 00163f EC31          AMOV #_xPendingReadyList, XAR0 ; |4960| 
         001641 8E00 
         001643 0044-
    6616 001645 140E          AADD #14, AR1 ; |4960| 
         001647 94   
    6617              $C$DW$492       .dwtag  DW_TAG_TI_branch
    6618                      .dwattr $C$DW$492, DW_AT_low_pc(0x00)
    6619                      .dwattr $C$DW$492, DW_AT_name("_vListInsertEnd")
    6620                      .dwattr $C$DW$492, DW_AT_TI_call
    6621 001648 6C00          CALL #_vListInsertEnd ; |4960| 
         00164a 0000!
    6622                                                      ; call occurs [#_vListInsertEnd] ; |4960| 
    6623 00164c       $C$L170:    
    6624                      .dwpsn  file "../FreeRTOS/Source/tasks.c",line 4963,column 5,is_stmt
    6625 00164c ED31          MOV dbl(*(#_pxCurrentTCB)), XAR3
         00164e BF00 
         001650 0002-
    6626 001652 A96D          MOV *AR3(#24), AR1 ; |4963| 
         001654 0018 
    6627 001656 ED08          MOV dbl(*SP(#4)), XAR3
         001658 BF   
    6628 001659 AA6D          MOV *AR3(#24), AR2 ; |4963| 
         00165b 0018 
    6629 00165d 1298          CMPU AR2 <= AR1, TC1 ; |4963| 
         00165f A4   
    6630 001660 0464          BCC $C$L172,TC1 ; |4963| 
         001662 12   
    6631                                                      ; branchcc occurs ; |4963| 
    6632                      .dwpsn  file "../FreeRTOS/Source/tasks.c",line 4967,column 6,is_stmt
    6633 001663 ED04          MOV dbl(*SP(#2)), XAR3
         001665 BF   
TMS320C55x Assembler PC v4.4.1 Sat Sep 08 17:11:34 2018

Tools Copyright (c) 1996-2012 Texas Instruments Incorporated
tasks.asm                                                            PAGE  149

    6634 001666 90B0          MOV XAR3, AC0
    6635 001668 6180          BCC $C$L171,AC0 == #0 ; |4967| 
    6636                                                      ; branchcc occurs ; |4967| 
    6637                      .dwpsn  file "../FreeRTOS/Source/tasks.c",line 4969,column 7,is_stmt
    6638 00166a E661          MOV #1, *AR3 ; |4969| 
         00166c 01   
    6639 00166d       $C$L171:    
    6640                      .dwpsn  file "../FreeRTOS/Source/tasks.c",line 4975,column 6,is_stmt
    6641 00166d E631          MOV #1, *(#_xYieldPending) ; |4975| 
         00166f 0100 
         001671 0068-
    6642                      .dwpsn  file "../FreeRTOS/Source/tasks.c",line 4976,column 5,is_stmt
    6643 001673 4A00          B $C$L172 ; |4976| 
    6644                                                      ; branch occurs ; |4976| 
    6645 001675       $C$L172:    
    6646 001675 4E09          AADD #9, SP
    6647                      .dwcfi  cfa_offset, 1
    6648              $C$DW$493       .dwtag  DW_TAG_TI_branch
    6649                      .dwattr $C$DW$493, DW_AT_low_pc(0x00)
    6650                      .dwattr $C$DW$493, DW_AT_TI_return
    6651 001677 4804          RET
    6652                                                      ; return occurs
    6653                      .dwattr $C$DW$482, DW_AT_TI_end_file("../FreeRTOS/Source/tasks.c")
    6654                      .dwattr $C$DW$482, DW_AT_TI_end_line(0x1378)
    6655                      .dwattr $C$DW$482, DW_AT_TI_end_column(0x02)
    6656                      .dwendentry
    6657                      .dwendtag $C$DW$482
    6658              
    6659 001679               .sect   ".text"
    6660                      .align 4
    6661                      .global _xTaskNotifyStateClear
    6662              
    6663              $C$DW$494       .dwtag  DW_TAG_subprogram, DW_AT_name("xTaskNotifyStateClear")
    6664                      .dwattr $C$DW$494, DW_AT_low_pc(_xTaskNotifyStateClear)
    6665                      .dwattr $C$DW$494, DW_AT_high_pc(0x00)
    6666                      .dwattr $C$DW$494, DW_AT_TI_symbol_name("_xTaskNotifyStateClear")
    6667                      .dwattr $C$DW$494, DW_AT_external
    6668                      .dwattr $C$DW$494, DW_AT_type(*$C$DW$T$44)
    6669                      .dwattr $C$DW$494, DW_AT_TI_begin_file("../FreeRTOS/Source/tasks.c")
    6670                      .dwattr $C$DW$494, DW_AT_TI_begin_line(0x1380)
    6671                      .dwattr $C$DW$494, DW_AT_TI_begin_column(0x0d)
    6672                      .dwattr $C$DW$494, DW_AT_TI_max_frame_size(0x06)
    6673                      .dwpsn  file "../FreeRTOS/Source/tasks.c",line 4993,column 2,is_stmt,address _xTaskNotifyStateClear
    6674              
    6675                      .dwfde $C$DW$CIE, _xTaskNotifyStateClear
    6676              $C$DW$495       .dwtag  DW_TAG_formal_parameter, DW_AT_name("xTask")
    6677                      .dwattr $C$DW$495, DW_AT_TI_symbol_name("_xTask")
    6678                      .dwattr $C$DW$495, DW_AT_type(*$C$DW$T$70)
    6679                      .dwattr $C$DW$495, DW_AT_location[DW_OP_reg17]
    6680              ;*******************************************************************************
    6681              ;* FUNCTION NAME: xTaskNotifyStateClear                                        *
    6682              ;*                                                                             *
    6683              ;*   Function Uses Regs : AC0,AC0,T0,AR0,XAR0,AR1,AR3,XAR3,SP,CARRY,TC1,M40,   *
    6684              ;*                        SATA,SATD,RDM,FRCT,SMUL                              *
    6685              ;*   Stack Frame        : Compact (No Frame Pointer, w/ debug)                 *
TMS320C55x Assembler PC v4.4.1 Sat Sep 08 17:11:34 2018

Tools Copyright (c) 1996-2012 Texas Instruments Incorporated
tasks.asm                                                            PAGE  150

    6686              ;*   Total Frame Size   : 6 words                                              *
    6687              ;*                        (1 return address/alignment)                         *
    6688              ;*                        (5 local values)                                     *
    6689              ;*   Min System Stack   : 1 word                                               *
    6690              ;*******************************************************************************
    6691 00167c       _xTaskNotifyStateClear:
    6692                      .dwcfi  cfa_offset, 1
    6693                      .dwcfi  save_reg_to_mem, 91, -1
    6694 00167c 4EFB          AADD #-5, SP
    6695                      .dwcfi  cfa_offset, 6
    6696              $C$DW$496       .dwtag  DW_TAG_variable, DW_AT_name("xTask")
    6697                      .dwattr $C$DW$496, DW_AT_TI_symbol_name("_xTask")
    6698                      .dwattr $C$DW$496, DW_AT_type(*$C$DW$T$70)
    6699                      .dwattr $C$DW$496, DW_AT_location[DW_OP_bregx 0x24 0]
    6700              $C$DW$497       .dwtag  DW_TAG_variable, DW_AT_name("pxTCB")
    6701                      .dwattr $C$DW$497, DW_AT_TI_symbol_name("_pxTCB")
    6702                      .dwattr $C$DW$497, DW_AT_type(*$C$DW$T$82)
    6703                      .dwattr $C$DW$497, DW_AT_location[DW_OP_bregx 0x24 2]
    6704              $C$DW$498       .dwtag  DW_TAG_variable, DW_AT_name("xReturn")
    6705                      .dwattr $C$DW$498, DW_AT_TI_symbol_name("_xReturn")
    6706                      .dwattr $C$DW$498, DW_AT_type(*$C$DW$T$44)
    6707                      .dwattr $C$DW$498, DW_AT_location[DW_OP_bregx 0x24 4]
    6708 00167e EB00          MOV XAR0, dbl(*SP(#0))
         001680 85   
    6709                      .dwpsn  file "../FreeRTOS/Source/tasks.c",line 4999,column 3,is_stmt
    6710 001681 ED00          MOV dbl(*SP(#0)), XAR3
         001683 BF   
    6711 001684 90B0          MOV XAR3, AC0
    6712 001686 6310          BCC $C$L173,AC0 != #0 ; |4999| 
    6713                                                      ; branchcc occurs ; |4999| 
    6714 001688 ED31          MOV dbl(*(#_pxCurrentTCB)), XAR3
         00168a BF00 
         00168c 0002-
    6715 00168e       $C$L173:    
    6716 00168e EB04          MOV XAR3, dbl(*SP(#2))
         001690 B5   
    6717                      .dwpsn  file "../FreeRTOS/Source/tasks.c",line 5001,column 3,is_stmt
    6718 001691 20     nop
    6719 001692 46B3   bset INTM
    6720 001694 F731          ADD #1, *(#_usCriticalNesting) ; |5001| 
         001696 0001 
         001698 0000 
         00169a 00!  
    6721 00169b 20            NOP
    6722 00169c 20            NOP
    6723 00169d 20            NOP
    6724                      .dwpsn  file "../FreeRTOS/Source/tasks.c",line 5003,column 4,is_stmt
    6725 00169e F06D          CMP *AR3(#44) == #2, TC1 ; |5003| 
         0016a0 0002 
         0016a2 002C 
    6726 0016a4 6574          BCC $C$L174,!TC1 ; |5003| 
    6727                                                      ; branchcc occurs ; |5003| 
    6728                      .dwpsn  file "../FreeRTOS/Source/tasks.c",line 5005,column 5,is_stmt
    6729 0016a6 E66D          MOV #0, *AR3(#44) ; |5005| 
         0016a8 0000 
TMS320C55x Assembler PC v4.4.1 Sat Sep 08 17:11:34 2018

Tools Copyright (c) 1996-2012 Texas Instruments Incorporated
tasks.asm                                                            PAGE  151

         0016aa 2C   
    6730                      .dwpsn  file "../FreeRTOS/Source/tasks.c",line 5006,column 5,is_stmt
    6731 0016ab E608          MOV #1, *SP(#4) ; |5006| 
         0016ad 01   
    6732                      .dwpsn  file "../FreeRTOS/Source/tasks.c",line 5007,column 4,is_stmt
    6733 0016ae 4A03          B $C$L175 ; |5007| 
    6734                                                      ; branch occurs ; |5007| 
    6735 0016b0       $C$L174:    
    6736                      .dwpsn  file "../FreeRTOS/Source/tasks.c",line 5010,column 5,is_stmt
    6737 0016b0 E608          MOV #0, *SP(#4) ; |5010| 
         0016b2 00   
    6738 0016b3       $C$L175:    
    6739                      .dwpsn  file "../FreeRTOS/Source/tasks.c",line 5013,column 3,is_stmt
    6740 0016b3 A931          MOV *(#_usCriticalNesting), AR1 ; |5013| 
         0016b5 0000 
         0016b7 00!  
    6741 0016b8 0409          BCC $C$L176,AR1 == #0 ; |5013| 
         0016ba 14   
    6742                                                      ; branchcc occurs ; |5013| 
    6743 0016bb F731          SUB #1, *(#_usCriticalNesting) ; |5013| 
         0016bd FFFF 
         0016bf 0000 
         0016c1 00!  
    6744 0016c2 20            NOP
    6745 0016c3 20            NOP
    6746 0016c4 20            NOP
    6747 0016c5 A931          MOV *(#_usCriticalNesting), AR1 ; |5013| 
         0016c7 0000 
         0016c9 00!  
    6748 0016ca 6199          BCC $C$L176,AR1 != #0 ; |5013| 
    6749                                                      ; branchcc occurs ; |5013| 
    6750 0016cc 20     nop
    6751 0016cd 46B2   bclr INTM
    6752 0016cf       $C$L176:    
    6753                      .dwpsn  file "../FreeRTOS/Source/tasks.c",line 5015,column 3,is_stmt
    6754 0016cf A408          MOV *SP(#4), T0 ; |5015| 
    6755                      .dwpsn  file "../FreeRTOS/Source/tasks.c",line 5016,column 2,is_stmt
    6756 0016d1 4E05          AADD #5, SP
    6757                      .dwcfi  cfa_offset, 1
    6758              $C$DW$499       .dwtag  DW_TAG_TI_branch
    6759                      .dwattr $C$DW$499, DW_AT_low_pc(0x00)
    6760                      .dwattr $C$DW$499, DW_AT_TI_return
    6761 0016d3 4804          RET
    6762                                                      ; return occurs
    6763                      .dwattr $C$DW$494, DW_AT_TI_end_file("../FreeRTOS/Source/tasks.c")
    6764                      .dwattr $C$DW$494, DW_AT_TI_end_line(0x1398)
    6765                      .dwattr $C$DW$494, DW_AT_TI_end_column(0x02)
    6766                      .dwendentry
    6767                      .dwendtag $C$DW$494
    6768              
    6769 0016d5               .sect   ".text"
    6770                      .align 4
    6771              
    6772              $C$DW$500       .dwtag  DW_TAG_subprogram, DW_AT_name("prvAddCurrentTaskToDelayedList")
    6773                      .dwattr $C$DW$500, DW_AT_low_pc(_prvAddCurrentTaskToDelayedList)
TMS320C55x Assembler PC v4.4.1 Sat Sep 08 17:11:34 2018

Tools Copyright (c) 1996-2012 Texas Instruments Incorporated
tasks.asm                                                            PAGE  152

    6774                      .dwattr $C$DW$500, DW_AT_high_pc(0x00)
    6775                      .dwattr $C$DW$500, DW_AT_TI_symbol_name("_prvAddCurrentTaskToDelayedList")
    6776                      .dwattr $C$DW$500, DW_AT_TI_begin_file("../FreeRTOS/Source/tasks.c")
    6777                      .dwattr $C$DW$500, DW_AT_TI_begin_line(0x139e)
    6778                      .dwattr $C$DW$500, DW_AT_TI_begin_column(0x0d)
    6779                      .dwattr $C$DW$500, DW_AT_TI_max_frame_size(0x06)
    6780                      .dwpsn  file "../FreeRTOS/Source/tasks.c",line 5023,column 1,is_stmt,address _prvAddCurrentTaskToDela
    6781              
    6782                      .dwfde $C$DW$CIE, _prvAddCurrentTaskToDelayedList
    6783              $C$DW$501       .dwtag  DW_TAG_formal_parameter, DW_AT_name("xTicksToWait")
    6784                      .dwattr $C$DW$501, DW_AT_TI_symbol_name("_xTicksToWait")
    6785                      .dwattr $C$DW$501, DW_AT_type(*$C$DW$T$38)
    6786                      .dwattr $C$DW$501, DW_AT_location[DW_OP_reg12]
    6787              $C$DW$502       .dwtag  DW_TAG_formal_parameter, DW_AT_name("xCanBlockIndefinitely")
    6788                      .dwattr $C$DW$502, DW_AT_TI_symbol_name("_xCanBlockIndefinitely")
    6789                      .dwattr $C$DW$502, DW_AT_type(*$C$DW$T$108)
    6790                      .dwattr $C$DW$502, DW_AT_location[DW_OP_reg13]
    6791              ;*******************************************************************************
    6792              ;* FUNCTION NAME: prvAddCurrentTaskToDelayedList                               *
    6793              ;*                                                                             *
    6794              ;*   Function Uses Regs : T0,T1,AR0,XAR0,AR1,XAR1,AR2,AR3,XAR3,SP,CARRY,TC1,   *
    6795              ;*                        M40,SATA,SATD,RDM,FRCT,SMUL                          *
    6796              ;*   Stack Frame        : Compact (No Frame Pointer, w/ debug)                 *
    6797              ;*   Total Frame Size   : 6 words                                              *
    6798              ;*                        (2 return address/alignment)                         *
    6799              ;*                        (4 local values)                                     *
    6800              ;*   Min System Stack   : 1 word                                               *
    6801              ;*******************************************************************************
    6802 0016d8       _prvAddCurrentTaskToDelayedList:
    6803                      .dwcfi  cfa_offset, 1
    6804                      .dwcfi  save_reg_to_mem, 91, -1
    6805 0016d8 4EFB          AADD #-5, SP
    6806                      .dwcfi  cfa_offset, 6
    6807              $C$DW$503       .dwtag  DW_TAG_variable, DW_AT_name("xTicksToWait")
    6808                      .dwattr $C$DW$503, DW_AT_TI_symbol_name("_xTicksToWait")
    6809                      .dwattr $C$DW$503, DW_AT_type(*$C$DW$T$38)
    6810                      .dwattr $C$DW$503, DW_AT_location[DW_OP_bregx 0x24 0]
    6811              $C$DW$504       .dwtag  DW_TAG_variable, DW_AT_name("xCanBlockIndefinitely")
    6812                      .dwattr $C$DW$504, DW_AT_TI_symbol_name("_xCanBlockIndefinitely")
    6813                      .dwattr $C$DW$504, DW_AT_type(*$C$DW$T$108)
    6814                      .dwattr $C$DW$504, DW_AT_location[DW_OP_bregx 0x24 1]
    6815              $C$DW$505       .dwtag  DW_TAG_variable, DW_AT_name("xTimeToWake")
    6816                      .dwattr $C$DW$505, DW_AT_TI_symbol_name("_xTimeToWake")
    6817                      .dwattr $C$DW$505, DW_AT_type(*$C$DW$T$38)
    6818                      .dwattr $C$DW$505, DW_AT_location[DW_OP_bregx 0x24 2]
    6819              $C$DW$506       .dwtag  DW_TAG_variable, DW_AT_name("xConstTickCount")
    6820                      .dwattr $C$DW$506, DW_AT_TI_symbol_name("_xConstTickCount")
    6821                      .dwattr $C$DW$506, DW_AT_type(*$C$DW$T$94)
    6822                      .dwattr $C$DW$506, DW_AT_location[DW_OP_bregx 0x24 3]
    6823 0016da C502          MOV T1, *SP(#1) ; |5023| 
    6824 0016dc C400          MOV T0, *SP(#0) ; |5023| 
    6825                      .dwpsn  file "../FreeRTOS/Source/tasks.c",line 5025,column 18,is_stmt
    6826 0016de A931          MOV *(#_xTickCount), AR1 ; |5025| 
         0016e0 0000 
         0016e2 64-  
TMS320C55x Assembler PC v4.4.1 Sat Sep 08 17:11:34 2018

Tools Copyright (c) 1996-2012 Texas Instruments Incorporated
tasks.asm                                                            PAGE  153

    6827 0016e3 C906          MOV AR1, *SP(#3) ; |5025| 
    6828                      .dwpsn  file "../FreeRTOS/Source/tasks.c",line 5038,column 2,is_stmt
    6829 0016e5 ED31          MOV dbl(*(#_pxCurrentTCB)), XAR0
         0016e7 8F00 
         0016e9 0002-
    6830 0016eb 1404          AADD #4, AR0 ; |5038| 
         0016ed 84   
    6831              $C$DW$507       .dwtag  DW_TAG_TI_branch
    6832                      .dwattr $C$DW$507, DW_AT_low_pc(0x00)
    6833                      .dwattr $C$DW$507, DW_AT_name("_uxListRemove")
    6834                      .dwattr $C$DW$507, DW_AT_TI_call
    6835 0016ee 6C00          CALL #_uxListRemove ; |5038| 
         0016f0 0000!
    6836                                                      ; call occurs [#_uxListRemove] ; |5038| 
    6837 0016f2 6004          BCC $C$L177,T0 == #0 ; |5038| 
    6838                                                      ; branchcc occurs ; |5038| 
    6839                      .dwpsn  file "../FreeRTOS/Source/tasks.c",line 5043,column 2,is_stmt
    6840 0016f4       $C$L177:    
    6841                      .dwpsn  file "../FreeRTOS/Source/tasks.c",line 5051,column 3,is_stmt
    6842 0016f4 76FF          MOV #65535, AR2 ; |5051| 
         0016f6 FFA8 
    6843 0016f8 A900          MOV *SP(#0), AR1 ; |5051| 
    6844 0016fa 129C          CMPU AR1 != AR2, TC1 ; |5051| 
         0016fc A4   
    6845 0016fd 0464          BCC $C$L178,TC1 ; |5051| 
         0016ff 1B   
    6846                                                      ; branchcc occurs ; |5051| 
    6847 001700 A902          MOV *SP(#1), AR1 ; |5051| 
    6848 001702 0409          BCC $C$L178,AR1 == #0 ; |5051| 
         001704 16   
    6849                                                      ; branchcc occurs ; |5051| 
    6850                      .dwpsn  file "../FreeRTOS/Source/tasks.c",line 5056,column 4,is_stmt
    6851 001705 ED31          MOV dbl(*(#_pxCurrentTCB)), XAR1
         001707 9F00 
         001709 0002-
    6852 00170b EC31          AMOV #_xSuspendedTaskList, XAR0 ; |5056| 
         00170d 8E00 
         00170f 005A-
    6853 001711 1404          AADD #4, AR1 ; |5056| 
         001713 94   
    6854              $C$DW$508       .dwtag  DW_TAG_TI_branch
    6855                      .dwattr $C$DW$508, DW_AT_low_pc(0x00)
    6856                      .dwattr $C$DW$508, DW_AT_name("_vListInsertEnd")
    6857                      .dwattr $C$DW$508, DW_AT_TI_call
    6858 001714 6C00          CALL #_vListInsertEnd ; |5056| 
         001716 0000!
    6859                                                      ; call occurs [#_vListInsertEnd] ; |5056| 
    6860                      .dwpsn  file "../FreeRTOS/Source/tasks.c",line 5057,column 3,is_stmt
    6861 001718 0600          B $C$L180 ; |5057| 
         00171a 56   
    6862                                                      ; branch occurs ; |5057| 
    6863 00171b       $C$L178:    
    6864                      .dwpsn  file "../FreeRTOS/Source/tasks.c",line 5063,column 4,is_stmt
    6865 00171b A900          MOV *SP(#0), AR1 ; |5063| 
    6866 00171d D606          ADD *SP(#3), AR1, AR1 ; |5063| 
TMS320C55x Assembler PC v4.4.1 Sat Sep 08 17:11:34 2018

Tools Copyright (c) 1996-2012 Texas Instruments Incorporated
tasks.asm                                                            PAGE  154

         00171f 99   
    6867 001720 C904          MOV AR1, *SP(#2) ; |5063| 
    6868                      .dwpsn  file "../FreeRTOS/Source/tasks.c",line 5066,column 4,is_stmt
    6869 001722 ED31          MOV dbl(*(#_pxCurrentTCB)), XAR3
         001724 BF00 
         001726 0002-
    6870 001728 C979          MOV AR1, *AR3(short(#4)) ; |5066| 
    6871                      .dwpsn  file "../FreeRTOS/Source/tasks.c",line 5068,column 4,is_stmt
    6872 00172a AA04          MOV *SP(#2), AR2 ; |5068| 
    6873 00172c A906          MOV *SP(#3), AR1 ; |5068| 
    6874 00172e 12A8          CMPU AR2 >= AR1, TC1 ; |5068| 
         001730 94   
    6875 001731 0464          BCC $C$L179,TC1 ; |5068| 
         001733 15   
    6876                                                      ; branchcc occurs ; |5068| 
    6877                      .dwpsn  file "../FreeRTOS/Source/tasks.c",line 5072,column 5,is_stmt
    6878 001734 ED31          MOV dbl(*(#_pxCurrentTCB)), XAR1
         001736 9F00 
         001738 0002-
    6879 00173a ED31          MOV dbl(*(#_pxOverflowDelayedTaskList)), XAR0
         00173c 8F00 
         00173e 0042-
    6880 001740 1404          AADD #4, AR1 ; |5072| 
         001742 94   
    6881              $C$DW$509       .dwtag  DW_TAG_TI_branch
    6882                      .dwattr $C$DW$509, DW_AT_low_pc(0x00)
    6883                      .dwattr $C$DW$509, DW_AT_name("_vListInsert")
    6884                      .dwattr $C$DW$509, DW_AT_TI_call
    6885 001743 6C00          CALL #_vListInsert ; |5072| 
         001745 0000!
    6886                                                      ; call occurs [#_vListInsert] ; |5072| 
    6887                      .dwpsn  file "../FreeRTOS/Source/tasks.c",line 5073,column 4,is_stmt
    6888 001747 4A28          B $C$L180 ; |5073| 
    6889                                                      ; branch occurs ; |5073| 
    6890 001749       $C$L179:    
    6891                      .dwpsn  file "../FreeRTOS/Source/tasks.c",line 5078,column 5,is_stmt
    6892 001749 ED31          MOV dbl(*(#_pxCurrentTCB)), XAR1
         00174b 9F00 
         00174d 0002-
    6893 00174f ED31          MOV dbl(*(#_pxDelayedTaskList)), XAR0
         001751 8F00 
         001753 0040-
    6894 001755 1404          AADD #4, AR1 ; |5078| 
         001757 94   
    6895              $C$DW$510       .dwtag  DW_TAG_TI_branch
    6896                      .dwattr $C$DW$510, DW_AT_low_pc(0x00)
    6897                      .dwattr $C$DW$510, DW_AT_name("_vListInsert")
    6898                      .dwattr $C$DW$510, DW_AT_TI_call
    6899 001758 6C00          CALL #_vListInsert ; |5078| 
         00175a 0000!
    6900                                                      ; call occurs [#_vListInsert] ; |5078| 
    6901                      .dwpsn  file "../FreeRTOS/Source/tasks.c",line 5083,column 5,is_stmt
    6902 00175c A931          MOV *(#_xNextTaskUnblockTime), AR1 ; |5083| 
         00175e 0000 
         001760 6B-  
TMS320C55x Assembler PC v4.4.1 Sat Sep 08 17:11:34 2018

Tools Copyright (c) 1996-2012 Texas Instruments Incorporated
tasks.asm                                                            PAGE  155

    6903 001761 AA04          MOV *SP(#2), AR2 ; |5083| 
    6904 001763 12A8          CMPU AR2 >= AR1, TC1 ; |5083| 
         001765 94   
    6905 001766 64E4          BCC $C$L180,TC1 ; |5083| 
    6906                                                      ; branchcc occurs ; |5083| 
    6907                      .dwpsn  file "../FreeRTOS/Source/tasks.c",line 5085,column 6,is_stmt
    6908 001768 22A9          MOV AR2, AR1
    6909 00176a C931          MOV AR1, *(#_xNextTaskUnblockTime) ; |5085| 
         00176c 0000 
         00176e 6B-  
    6910                      .dwpsn  file "../FreeRTOS/Source/tasks.c",line 5086,column 5,is_stmt
    6911 00176f 4A00          B $C$L180 ; |5086| 
    6912                                                      ; branch occurs ; |5086| 
    6913 001771       $C$L180:    
    6914 001771 4E05          AADD #5, SP
    6915                      .dwcfi  cfa_offset, 1
    6916              $C$DW$511       .dwtag  DW_TAG_TI_branch
    6917                      .dwattr $C$DW$511, DW_AT_low_pc(0x00)
    6918                      .dwattr $C$DW$511, DW_AT_TI_return
    6919 001773 4804          RET
    6920                                                      ; return occurs
    6921                      .dwattr $C$DW$500, DW_AT_TI_end_file("../FreeRTOS/Source/tasks.c")
    6922                      .dwattr $C$DW$500, DW_AT_TI_end_line(0x140b)
    6923                      .dwattr $C$DW$500, DW_AT_TI_end_column(0x01)
    6924                      .dwendentry
    6925                      .dwendtag $C$DW$500
    6926              
    6927              ;*******************************************************************************
    6928              ;* FAR STRINGS                                                                 *
    6929              ;*******************************************************************************
    6930 000000               .sect   ".const:.string"
    6931                      .align  2
    6932 000000 0049  $C$FSL1:        .string "IDLE",0
         000001 0044 
         000002 004C 
         000003 0045 
         000004 0000 
    6933              ;******************************************************************************
    6934              ;* UNDEFINED EXTERNAL REFERENCES                                              *
    6935              ;******************************************************************************
    6936                      .global _memset
    6937                      .global _vPortYield
    6938                      .global _pxPortInitialiseStack
    6939                      .global _pvPortMalloc
    6940                      .global _vPortFree
    6941                      .global _xPortStartScheduler
    6942                      .global _vPortEndScheduler
    6943                      .global _vListInitialise
    6944                      .global _vListInitialiseItem
    6945                      .global _vListInsert
    6946                      .global _vListInsertEnd
    6947                      .global _uxListRemove
    6948                      .global _vApplicationStackOverflowHook
    6949                      .global _vApplicationIdleHook
    6950                      .global _usCriticalNesting
TMS320C55x Assembler PC v4.4.1 Sat Sep 08 17:11:34 2018

Tools Copyright (c) 1996-2012 Texas Instruments Incorporated
tasks.asm                                                            PAGE  156

    6951              
    6952              ;*******************************************************************************
    6953              ;* TYPE INFORMATION                                                            *
    6954              ;*******************************************************************************
    6955              
    6956              $C$DW$T$46      .dwtag  DW_TAG_enumeration_type
    6957                      .dwattr $C$DW$T$46, DW_AT_byte_size(0x01)
    6958              $C$DW$512       .dwtag  DW_TAG_enumerator, DW_AT_name("eNoAction"), DW_AT_const_value(0x00)
    6959              $C$DW$513       .dwtag  DW_TAG_enumerator, DW_AT_name("eSetBits"), DW_AT_const_value(0x01)
    6960              $C$DW$514       .dwtag  DW_TAG_enumerator, DW_AT_name("eIncrement"), DW_AT_const_value(0x02)
    6961              $C$DW$515       .dwtag  DW_TAG_enumerator, DW_AT_name("eSetValueWithOverwrite"), DW_AT_const_value(0x03)
    6962              $C$DW$516       .dwtag  DW_TAG_enumerator, DW_AT_name("eSetValueWithoutOverwrite"), DW_AT_const_value(0x04)
    6963                      .dwendtag $C$DW$T$46
    6964              
    6965              $C$DW$T$47      .dwtag  DW_TAG_typedef, DW_AT_name("eNotifyAction")
    6966                      .dwattr $C$DW$T$47, DW_AT_type(*$C$DW$T$46)
    6967                      .dwattr $C$DW$T$47, DW_AT_language(DW_LANG_C)
    6968              $C$DW$T$3       .dwtag  DW_TAG_pointer_type
    6969                      .dwattr $C$DW$T$3, DW_AT_address_class(0x17)
    6970              $C$DW$517       .dwtag  DW_TAG_TI_far_type
    6971                      .dwattr $C$DW$517, DW_AT_type(*$C$DW$T$3)
    6972              $C$DW$T$53      .dwtag  DW_TAG_const_type
    6973                      .dwattr $C$DW$T$53, DW_AT_type(*$C$DW$517)
    6974              
    6975              $C$DW$T$56      .dwtag  DW_TAG_subroutine_type
    6976                      .dwattr $C$DW$T$56, DW_AT_language(DW_LANG_C)
    6977              $C$DW$518       .dwtag  DW_TAG_formal_parameter
    6978                      .dwattr $C$DW$518, DW_AT_type(*$C$DW$T$3)
    6979                      .dwendtag $C$DW$T$56
    6980              
    6981              $C$DW$T$57      .dwtag  DW_TAG_pointer_type
    6982                      .dwattr $C$DW$T$57, DW_AT_type(*$C$DW$T$56)
    6983                      .dwattr $C$DW$T$57, DW_AT_address_class(0x20)
    6984              $C$DW$T$58      .dwtag  DW_TAG_typedef, DW_AT_name("TaskFunction_t")
    6985                      .dwattr $C$DW$T$58, DW_AT_type(*$C$DW$T$57)
    6986                      .dwattr $C$DW$T$58, DW_AT_language(DW_LANG_C)
    6987              $C$DW$T$4       .dwtag  DW_TAG_base_type
    6988                      .dwattr $C$DW$T$4, DW_AT_encoding(DW_ATE_boolean)
    6989                      .dwattr $C$DW$T$4, DW_AT_name("bool")
    6990                      .dwattr $C$DW$T$4, DW_AT_byte_size(0x01)
    6991              $C$DW$T$5       .dwtag  DW_TAG_base_type
    6992                      .dwattr $C$DW$T$5, DW_AT_encoding(DW_ATE_signed_char)
    6993                      .dwattr $C$DW$T$5, DW_AT_name("signed char")
    6994                      .dwattr $C$DW$T$5, DW_AT_byte_size(0x01)
    6995              $C$DW$T$6       .dwtag  DW_TAG_base_type
    6996                      .dwattr $C$DW$T$6, DW_AT_encoding(DW_ATE_unsigned_char)
    6997                      .dwattr $C$DW$T$6, DW_AT_name("unsigned char")
    6998                      .dwattr $C$DW$T$6, DW_AT_byte_size(0x01)
    6999              $C$DW$T$31      .dwtag  DW_TAG_typedef, DW_AT_name("uint8_t")
    7000                      .dwattr $C$DW$T$31, DW_AT_type(*$C$DW$T$6)
    7001                      .dwattr $C$DW$T$31, DW_AT_language(DW_LANG_C)
    7002              $C$DW$T$111     .dwtag  DW_TAG_pointer_type
    7003                      .dwattr $C$DW$T$111, DW_AT_type(*$C$DW$T$31)
    7004                      .dwattr $C$DW$T$111, DW_AT_address_class(0x17)
    7005              $C$DW$519       .dwtag  DW_TAG_TI_far_type
TMS320C55x Assembler PC v4.4.1 Sat Sep 08 17:11:34 2018

Tools Copyright (c) 1996-2012 Texas Instruments Incorporated
tasks.asm                                                            PAGE  157

    7006                      .dwattr $C$DW$519, DW_AT_type(*$C$DW$T$31)
    7007              $C$DW$T$32      .dwtag  DW_TAG_volatile_type
    7008                      .dwattr $C$DW$T$32, DW_AT_type(*$C$DW$519)
    7009              $C$DW$520       .dwtag  DW_TAG_TI_far_type
    7010                      .dwattr $C$DW$520, DW_AT_type(*$C$DW$T$31)
    7011              $C$DW$T$112     .dwtag  DW_TAG_const_type
    7012                      .dwattr $C$DW$T$112, DW_AT_type(*$C$DW$520)
    7013              $C$DW$T$113     .dwtag  DW_TAG_pointer_type
    7014                      .dwattr $C$DW$T$113, DW_AT_type(*$C$DW$T$112)
    7015                      .dwattr $C$DW$T$113, DW_AT_address_class(0x17)
    7016              $C$DW$T$7       .dwtag  DW_TAG_base_type
    7017                      .dwattr $C$DW$T$7, DW_AT_encoding(DW_ATE_signed_char)
    7018                      .dwattr $C$DW$T$7, DW_AT_name("wchar_t")
    7019                      .dwattr $C$DW$T$7, DW_AT_byte_size(0x01)
    7020              $C$DW$T$8       .dwtag  DW_TAG_base_type
    7021                      .dwattr $C$DW$T$8, DW_AT_encoding(DW_ATE_signed)
    7022                      .dwattr $C$DW$T$8, DW_AT_name("short")
    7023                      .dwattr $C$DW$T$8, DW_AT_byte_size(0x01)
    7024              $C$DW$T$44      .dwtag  DW_TAG_typedef, DW_AT_name("BaseType_t")
    7025                      .dwattr $C$DW$T$44, DW_AT_type(*$C$DW$T$8)
    7026                      .dwattr $C$DW$T$44, DW_AT_language(DW_LANG_C)
    7027              $C$DW$521       .dwtag  DW_TAG_TI_far_type
    7028                      .dwattr $C$DW$521, DW_AT_type(*$C$DW$T$44)
    7029              $C$DW$T$108     .dwtag  DW_TAG_const_type
    7030                      .dwattr $C$DW$T$108, DW_AT_type(*$C$DW$521)
    7031              $C$DW$522       .dwtag  DW_TAG_TI_far_type
    7032                      .dwattr $C$DW$522, DW_AT_type(*$C$DW$T$44)
    7033              $C$DW$T$114     .dwtag  DW_TAG_volatile_type
    7034                      .dwattr $C$DW$T$114, DW_AT_type(*$C$DW$522)
    7035              $C$DW$T$106     .dwtag  DW_TAG_pointer_type
    7036                      .dwattr $C$DW$T$106, DW_AT_type(*$C$DW$T$44)
    7037                      .dwattr $C$DW$T$106, DW_AT_address_class(0x17)
    7038              $C$DW$T$9       .dwtag  DW_TAG_base_type
    7039                      .dwattr $C$DW$T$9, DW_AT_encoding(DW_ATE_unsigned)
    7040                      .dwattr $C$DW$T$9, DW_AT_name("unsigned short")
    7041                      .dwattr $C$DW$T$9, DW_AT_byte_size(0x01)
    7042              $C$DW$T$25      .dwtag  DW_TAG_typedef, DW_AT_name("UBaseType_t")
    7043                      .dwattr $C$DW$T$25, DW_AT_type(*$C$DW$T$9)
    7044                      .dwattr $C$DW$T$25, DW_AT_language(DW_LANG_C)
    7045              $C$DW$523       .dwtag  DW_TAG_TI_far_type
    7046                      .dwattr $C$DW$523, DW_AT_type(*$C$DW$T$25)
    7047              $C$DW$T$34      .dwtag  DW_TAG_volatile_type
    7048                      .dwattr $C$DW$T$34, DW_AT_type(*$C$DW$523)
    7049              $C$DW$T$10      .dwtag  DW_TAG_base_type
    7050                      .dwattr $C$DW$T$10, DW_AT_encoding(DW_ATE_signed)
    7051                      .dwattr $C$DW$T$10, DW_AT_name("int")
    7052                      .dwattr $C$DW$T$10, DW_AT_byte_size(0x01)
    7053              $C$DW$T$11      .dwtag  DW_TAG_base_type
    7054                      .dwattr $C$DW$T$11, DW_AT_encoding(DW_ATE_unsigned)
    7055                      .dwattr $C$DW$T$11, DW_AT_name("unsigned int")
    7056                      .dwattr $C$DW$T$11, DW_AT_byte_size(0x01)
    7057              $C$DW$T$21      .dwtag  DW_TAG_typedef, DW_AT_name("StackType_t")
    7058                      .dwattr $C$DW$T$21, DW_AT_type(*$C$DW$T$11)
    7059                      .dwattr $C$DW$T$21, DW_AT_language(DW_LANG_C)
    7060              $C$DW$524       .dwtag  DW_TAG_TI_far_type
TMS320C55x Assembler PC v4.4.1 Sat Sep 08 17:11:34 2018

Tools Copyright (c) 1996-2012 Texas Instruments Incorporated
tasks.asm                                                            PAGE  158

    7061                      .dwattr $C$DW$524, DW_AT_type(*$C$DW$T$21)
    7062              $C$DW$T$22      .dwtag  DW_TAG_volatile_type
    7063                      .dwattr $C$DW$T$22, DW_AT_type(*$C$DW$524)
    7064              $C$DW$T$23      .dwtag  DW_TAG_pointer_type
    7065                      .dwattr $C$DW$T$23, DW_AT_type(*$C$DW$T$22)
    7066                      .dwattr $C$DW$T$23, DW_AT_address_class(0x17)
    7067              $C$DW$T$26      .dwtag  DW_TAG_pointer_type
    7068                      .dwattr $C$DW$T$26, DW_AT_type(*$C$DW$T$21)
    7069                      .dwattr $C$DW$T$26, DW_AT_address_class(0x17)
    7070              $C$DW$T$38      .dwtag  DW_TAG_typedef, DW_AT_name("TickType_t")
    7071                      .dwattr $C$DW$T$38, DW_AT_type(*$C$DW$T$11)
    7072                      .dwattr $C$DW$T$38, DW_AT_language(DW_LANG_C)
    7073              $C$DW$525       .dwtag  DW_TAG_TI_far_type
    7074                      .dwattr $C$DW$525, DW_AT_type(*$C$DW$T$38)
    7075              $C$DW$T$94      .dwtag  DW_TAG_const_type
    7076                      .dwattr $C$DW$T$94, DW_AT_type(*$C$DW$525)
    7077              $C$DW$526       .dwtag  DW_TAG_TI_far_type
    7078                      .dwattr $C$DW$526, DW_AT_type(*$C$DW$T$38)
    7079              $C$DW$T$142     .dwtag  DW_TAG_volatile_type
    7080                      .dwattr $C$DW$T$142, DW_AT_type(*$C$DW$526)
    7081              $C$DW$T$92      .dwtag  DW_TAG_pointer_type
    7082                      .dwattr $C$DW$T$92, DW_AT_type(*$C$DW$T$38)
    7083                      .dwattr $C$DW$T$92, DW_AT_address_class(0x17)
    7084              $C$DW$527       .dwtag  DW_TAG_TI_far_type
    7085                      .dwattr $C$DW$527, DW_AT_type(*$C$DW$T$92)
    7086              $C$DW$T$93      .dwtag  DW_TAG_const_type
    7087                      .dwattr $C$DW$T$93, DW_AT_type(*$C$DW$527)
    7088              $C$DW$T$19      .dwtag  DW_TAG_pointer_type
    7089                      .dwattr $C$DW$T$19, DW_AT_type(*$C$DW$T$11)
    7090                      .dwattr $C$DW$T$19, DW_AT_address_class(0x17)
    7091              $C$DW$528       .dwtag  DW_TAG_TI_far_type
    7092                      .dwattr $C$DW$528, DW_AT_type(*$C$DW$T$11)
    7093              $C$DW$T$144     .dwtag  DW_TAG_volatile_type
    7094                      .dwattr $C$DW$T$144, DW_AT_type(*$C$DW$528)
    7095              $C$DW$T$48      .dwtag  DW_TAG_typedef, DW_AT_name("size_t")
    7096                      .dwattr $C$DW$T$48, DW_AT_type(*$C$DW$T$11)
    7097                      .dwattr $C$DW$T$48, DW_AT_language(DW_LANG_C)
    7098              $C$DW$T$117     .dwtag  DW_TAG_typedef, DW_AT_name("uint16_t")
    7099                      .dwattr $C$DW$T$117, DW_AT_type(*$C$DW$T$11)
    7100                      .dwattr $C$DW$T$117, DW_AT_language(DW_LANG_C)
    7101              $C$DW$529       .dwtag  DW_TAG_TI_far_type
    7102                      .dwattr $C$DW$529, DW_AT_type(*$C$DW$T$117)
    7103              $C$DW$T$118     .dwtag  DW_TAG_const_type
    7104                      .dwattr $C$DW$T$118, DW_AT_type(*$C$DW$529)
    7105              $C$DW$T$12      .dwtag  DW_TAG_base_type
    7106                      .dwattr $C$DW$T$12, DW_AT_encoding(DW_ATE_signed)
    7107                      .dwattr $C$DW$T$12, DW_AT_name("long")
    7108                      .dwattr $C$DW$T$12, DW_AT_byte_size(0x02)
    7109              $C$DW$T$13      .dwtag  DW_TAG_base_type
    7110                      .dwattr $C$DW$T$13, DW_AT_encoding(DW_ATE_unsigned)
    7111                      .dwattr $C$DW$T$13, DW_AT_name("unsigned long")
    7112                      .dwattr $C$DW$T$13, DW_AT_byte_size(0x02)
    7113              $C$DW$T$29      .dwtag  DW_TAG_typedef, DW_AT_name("uint32_t")
    7114                      .dwattr $C$DW$T$29, DW_AT_type(*$C$DW$T$13)
    7115                      .dwattr $C$DW$T$29, DW_AT_language(DW_LANG_C)
TMS320C55x Assembler PC v4.4.1 Sat Sep 08 17:11:34 2018

Tools Copyright (c) 1996-2012 Texas Instruments Incorporated
tasks.asm                                                            PAGE  159

    7116              $C$DW$T$130     .dwtag  DW_TAG_pointer_type
    7117                      .dwattr $C$DW$T$130, DW_AT_type(*$C$DW$T$29)
    7118                      .dwattr $C$DW$T$130, DW_AT_address_class(0x17)
    7119              $C$DW$530       .dwtag  DW_TAG_TI_far_type
    7120                      .dwattr $C$DW$530, DW_AT_type(*$C$DW$T$29)
    7121              $C$DW$T$30      .dwtag  DW_TAG_volatile_type
    7122                      .dwattr $C$DW$T$30, DW_AT_type(*$C$DW$530)
    7123              $C$DW$531       .dwtag  DW_TAG_TI_far_type
    7124                      .dwattr $C$DW$531, DW_AT_type(*$C$DW$T$29)
    7125              $C$DW$T$77      .dwtag  DW_TAG_const_type
    7126                      .dwattr $C$DW$T$77, DW_AT_type(*$C$DW$531)
    7127              $C$DW$T$148     .dwtag  DW_TAG_pointer_type
    7128                      .dwattr $C$DW$T$148, DW_AT_type(*$C$DW$T$77)
    7129                      .dwattr $C$DW$T$148, DW_AT_address_class(0x17)
    7130              $C$DW$532       .dwtag  DW_TAG_TI_far_type
    7131                      .dwattr $C$DW$532, DW_AT_type(*$C$DW$T$148)
    7132              $C$DW$T$149     .dwtag  DW_TAG_const_type
    7133                      .dwattr $C$DW$T$149, DW_AT_type(*$C$DW$532)
    7134              $C$DW$T$14      .dwtag  DW_TAG_base_type
    7135                      .dwattr $C$DW$T$14, DW_AT_encoding(DW_ATE_signed)
    7136                      .dwattr $C$DW$T$14, DW_AT_name("long long")
    7137                      .dwattr $C$DW$T$14, DW_AT_byte_size(0x04)
    7138                      .dwattr $C$DW$T$14, DW_AT_bit_size(0x28)
    7139                      .dwattr $C$DW$T$14, DW_AT_bit_offset(0x18)
    7140              $C$DW$T$15      .dwtag  DW_TAG_base_type
    7141                      .dwattr $C$DW$T$15, DW_AT_encoding(DW_ATE_unsigned)
    7142                      .dwattr $C$DW$T$15, DW_AT_name("unsigned long long")
    7143                      .dwattr $C$DW$T$15, DW_AT_byte_size(0x04)
    7144                      .dwattr $C$DW$T$15, DW_AT_bit_size(0x28)
    7145                      .dwattr $C$DW$T$15, DW_AT_bit_offset(0x18)
    7146              $C$DW$T$16      .dwtag  DW_TAG_base_type
    7147                      .dwattr $C$DW$T$16, DW_AT_encoding(DW_ATE_float)
    7148                      .dwattr $C$DW$T$16, DW_AT_name("float")
    7149                      .dwattr $C$DW$T$16, DW_AT_byte_size(0x02)
    7150              $C$DW$T$17      .dwtag  DW_TAG_base_type
    7151                      .dwattr $C$DW$T$17, DW_AT_encoding(DW_ATE_float)
    7152                      .dwattr $C$DW$T$17, DW_AT_name("double")
    7153                      .dwattr $C$DW$T$17, DW_AT_byte_size(0x02)
    7154              $C$DW$T$18      .dwtag  DW_TAG_base_type
    7155                      .dwattr $C$DW$T$18, DW_AT_encoding(DW_ATE_float)
    7156                      .dwattr $C$DW$T$18, DW_AT_name("long double")
    7157                      .dwattr $C$DW$T$18, DW_AT_byte_size(0x02)
    7158              $C$DW$T$27      .dwtag  DW_TAG_base_type
    7159                      .dwattr $C$DW$T$27, DW_AT_encoding(DW_ATE_signed_char)
    7160                      .dwattr $C$DW$T$27, DW_AT_name("signed char")
    7161                      .dwattr $C$DW$T$27, DW_AT_byte_size(0x01)
    7162              
    7163              $C$DW$T$28      .dwtag  DW_TAG_array_type
    7164                      .dwattr $C$DW$T$28, DW_AT_type(*$C$DW$T$27)
    7165                      .dwattr $C$DW$T$28, DW_AT_language(DW_LANG_C)
    7166                      .dwattr $C$DW$T$28, DW_AT_byte_size(0x08)
    7167              $C$DW$533       .dwtag  DW_TAG_subrange_type
    7168                      .dwattr $C$DW$533, DW_AT_upper_bound(0x07)
    7169                      .dwendtag $C$DW$T$28
    7170              
TMS320C55x Assembler PC v4.4.1 Sat Sep 08 17:11:34 2018

Tools Copyright (c) 1996-2012 Texas Instruments Incorporated
tasks.asm                                                            PAGE  160

    7171              $C$DW$T$71      .dwtag  DW_TAG_pointer_type
    7172                      .dwattr $C$DW$T$71, DW_AT_type(*$C$DW$T$27)
    7173                      .dwattr $C$DW$T$71, DW_AT_address_class(0x17)
    7174              $C$DW$534       .dwtag  DW_TAG_TI_far_type
    7175                      .dwattr $C$DW$534, DW_AT_type(*$C$DW$T$27)
    7176              $C$DW$T$74      .dwtag  DW_TAG_const_type
    7177                      .dwattr $C$DW$T$74, DW_AT_type(*$C$DW$534)
    7178              $C$DW$T$75      .dwtag  DW_TAG_pointer_type
    7179                      .dwattr $C$DW$T$75, DW_AT_type(*$C$DW$T$74)
    7180                      .dwattr $C$DW$T$75, DW_AT_address_class(0x17)
    7181              $C$DW$535       .dwtag  DW_TAG_TI_far_type
    7182                      .dwattr $C$DW$535, DW_AT_type(*$C$DW$T$75)
    7183              $C$DW$T$76      .dwtag  DW_TAG_const_type
    7184                      .dwattr $C$DW$T$76, DW_AT_type(*$C$DW$535)
    7185              
    7186              $C$DW$T$20      .dwtag  DW_TAG_structure_type
    7187                      .dwattr $C$DW$T$20, DW_AT_name("tagSTACKSTRUCT")
    7188                      .dwattr $C$DW$T$20, DW_AT_byte_size(0x04)
    7189              $C$DW$536       .dwtag  DW_TAG_member
    7190                      .dwattr $C$DW$536, DW_AT_type(*$C$DW$T$19)
    7191                      .dwattr $C$DW$536, DW_AT_name("pxTopOfStack")
    7192                      .dwattr $C$DW$536, DW_AT_TI_symbol_name("_pxTopOfStack")
    7193                      .dwattr $C$DW$536, DW_AT_data_member_location[DW_OP_plus_uconst 0x0]
    7194                      .dwattr $C$DW$536, DW_AT_accessibility(DW_ACCESS_public)
    7195              $C$DW$537       .dwtag  DW_TAG_member
    7196                      .dwattr $C$DW$537, DW_AT_type(*$C$DW$T$19)
    7197                      .dwattr $C$DW$537, DW_AT_name("pxTopOfSysStack")
    7198                      .dwattr $C$DW$537, DW_AT_TI_symbol_name("_pxTopOfSysStack")
    7199                      .dwattr $C$DW$537, DW_AT_data_member_location[DW_OP_plus_uconst 0x2]
    7200                      .dwattr $C$DW$537, DW_AT_accessibility(DW_ACCESS_public)
    7201                      .dwendtag $C$DW$T$20
    7202              
    7203              $C$DW$T$154     .dwtag  DW_TAG_pointer_type
    7204                      .dwattr $C$DW$T$154, DW_AT_type(*$C$DW$T$20)
    7205                      .dwattr $C$DW$T$154, DW_AT_address_class(0x17)
    7206              
    7207              $C$DW$T$33      .dwtag  DW_TAG_structure_type
    7208                      .dwattr $C$DW$T$33, DW_AT_name("tskTaskControlBlock")
    7209                      .dwattr $C$DW$T$33, DW_AT_byte_size(0x2e)
    7210              $C$DW$538       .dwtag  DW_TAG_member
    7211                      .dwattr $C$DW$538, DW_AT_type(*$C$DW$T$23)
    7212                      .dwattr $C$DW$538, DW_AT_name("pxTopOfStack")
    7213                      .dwattr $C$DW$538, DW_AT_TI_symbol_name("_pxTopOfStack")
    7214                      .dwattr $C$DW$538, DW_AT_data_member_location[DW_OP_plus_uconst 0x0]
    7215                      .dwattr $C$DW$538, DW_AT_accessibility(DW_ACCESS_public)
    7216              $C$DW$539       .dwtag  DW_TAG_member
    7217                      .dwattr $C$DW$539, DW_AT_type(*$C$DW$T$23)
    7218                      .dwattr $C$DW$539, DW_AT_name("pxTopOfSysStack")
    7219                      .dwattr $C$DW$539, DW_AT_TI_symbol_name("_pxTopOfSysStack")
    7220                      .dwattr $C$DW$539, DW_AT_data_member_location[DW_OP_plus_uconst 0x2]
    7221                      .dwattr $C$DW$539, DW_AT_accessibility(DW_ACCESS_public)
    7222              $C$DW$540       .dwtag  DW_TAG_member
    7223                      .dwattr $C$DW$540, DW_AT_type(*$C$DW$T$24)
    7224                      .dwattr $C$DW$540, DW_AT_name("xStateListItem")
    7225                      .dwattr $C$DW$540, DW_AT_TI_symbol_name("_xStateListItem")
TMS320C55x Assembler PC v4.4.1 Sat Sep 08 17:11:34 2018

Tools Copyright (c) 1996-2012 Texas Instruments Incorporated
tasks.asm                                                            PAGE  161

    7226                      .dwattr $C$DW$540, DW_AT_data_member_location[DW_OP_plus_uconst 0x4]
    7227                      .dwattr $C$DW$540, DW_AT_accessibility(DW_ACCESS_public)
    7228              $C$DW$541       .dwtag  DW_TAG_member
    7229                      .dwattr $C$DW$541, DW_AT_type(*$C$DW$T$24)
    7230                      .dwattr $C$DW$541, DW_AT_name("xEventListItem")
    7231                      .dwattr $C$DW$541, DW_AT_TI_symbol_name("_xEventListItem")
    7232                      .dwattr $C$DW$541, DW_AT_data_member_location[DW_OP_plus_uconst 0xe]
    7233                      .dwattr $C$DW$541, DW_AT_accessibility(DW_ACCESS_public)
    7234              $C$DW$542       .dwtag  DW_TAG_member
    7235                      .dwattr $C$DW$542, DW_AT_type(*$C$DW$T$25)
    7236                      .dwattr $C$DW$542, DW_AT_name("uxPriority")
    7237                      .dwattr $C$DW$542, DW_AT_TI_symbol_name("_uxPriority")
    7238                      .dwattr $C$DW$542, DW_AT_data_member_location[DW_OP_plus_uconst 0x18]
    7239                      .dwattr $C$DW$542, DW_AT_accessibility(DW_ACCESS_public)
    7240              $C$DW$543       .dwtag  DW_TAG_member
    7241                      .dwattr $C$DW$543, DW_AT_type(*$C$DW$T$26)
    7242                      .dwattr $C$DW$543, DW_AT_name("pxStack")
    7243                      .dwattr $C$DW$543, DW_AT_TI_symbol_name("_pxStack")
    7244                      .dwattr $C$DW$543, DW_AT_data_member_location[DW_OP_plus_uconst 0x1a]
    7245                      .dwattr $C$DW$543, DW_AT_accessibility(DW_ACCESS_public)
    7246              $C$DW$544       .dwtag  DW_TAG_member
    7247                      .dwattr $C$DW$544, DW_AT_type(*$C$DW$T$26)
    7248                      .dwattr $C$DW$544, DW_AT_name("pxSysStack")
    7249                      .dwattr $C$DW$544, DW_AT_TI_symbol_name("_pxSysStack")
    7250                      .dwattr $C$DW$544, DW_AT_data_member_location[DW_OP_plus_uconst 0x1c]
    7251                      .dwattr $C$DW$544, DW_AT_accessibility(DW_ACCESS_public)
    7252              $C$DW$545       .dwtag  DW_TAG_member
    7253                      .dwattr $C$DW$545, DW_AT_type(*$C$DW$T$28)
    7254                      .dwattr $C$DW$545, DW_AT_name("pcTaskName")
    7255                      .dwattr $C$DW$545, DW_AT_TI_symbol_name("_pcTaskName")
    7256                      .dwattr $C$DW$545, DW_AT_data_member_location[DW_OP_plus_uconst 0x1e]
    7257                      .dwattr $C$DW$545, DW_AT_accessibility(DW_ACCESS_public)
    7258              $C$DW$546       .dwtag  DW_TAG_member
    7259                      .dwattr $C$DW$546, DW_AT_type(*$C$DW$T$26)
    7260                      .dwattr $C$DW$546, DW_AT_name("pxEndOfStack")
    7261                      .dwattr $C$DW$546, DW_AT_TI_symbol_name("_pxEndOfStack")
    7262                      .dwattr $C$DW$546, DW_AT_data_member_location[DW_OP_plus_uconst 0x26]
    7263                      .dwattr $C$DW$546, DW_AT_accessibility(DW_ACCESS_public)
    7264              $C$DW$547       .dwtag  DW_TAG_member
    7265                      .dwattr $C$DW$547, DW_AT_type(*$C$DW$T$26)
    7266                      .dwattr $C$DW$547, DW_AT_name("pxEndOfSysStack")
    7267                      .dwattr $C$DW$547, DW_AT_TI_symbol_name("_pxEndOfSysStack")
    7268                      .dwattr $C$DW$547, DW_AT_data_member_location[DW_OP_plus_uconst 0x28]
    7269                      .dwattr $C$DW$547, DW_AT_accessibility(DW_ACCESS_public)
    7270              $C$DW$548       .dwtag  DW_TAG_member
    7271                      .dwattr $C$DW$548, DW_AT_type(*$C$DW$T$30)
    7272                      .dwattr $C$DW$548, DW_AT_name("ulNotifiedValue")
    7273                      .dwattr $C$DW$548, DW_AT_TI_symbol_name("_ulNotifiedValue")
    7274                      .dwattr $C$DW$548, DW_AT_data_member_location[DW_OP_plus_uconst 0x2a]
    7275                      .dwattr $C$DW$548, DW_AT_accessibility(DW_ACCESS_public)
    7276              $C$DW$549       .dwtag  DW_TAG_member
    7277                      .dwattr $C$DW$549, DW_AT_type(*$C$DW$T$32)
    7278                      .dwattr $C$DW$549, DW_AT_name("ucNotifyState")
    7279                      .dwattr $C$DW$549, DW_AT_TI_symbol_name("_ucNotifyState")
    7280                      .dwattr $C$DW$549, DW_AT_data_member_location[DW_OP_plus_uconst 0x2c]
TMS320C55x Assembler PC v4.4.1 Sat Sep 08 17:11:34 2018

Tools Copyright (c) 1996-2012 Texas Instruments Incorporated
tasks.asm                                                            PAGE  162

    7281                      .dwattr $C$DW$549, DW_AT_accessibility(DW_ACCESS_public)
    7282                      .dwendtag $C$DW$T$33
    7283              
    7284              $C$DW$T$69      .dwtag  DW_TAG_pointer_type
    7285                      .dwattr $C$DW$T$69, DW_AT_type(*$C$DW$T$33)
    7286                      .dwattr $C$DW$T$69, DW_AT_address_class(0x17)
    7287              $C$DW$T$70      .dwtag  DW_TAG_typedef, DW_AT_name("TaskHandle_t")
    7288                      .dwattr $C$DW$T$70, DW_AT_type(*$C$DW$T$69)
    7289                      .dwattr $C$DW$T$70, DW_AT_language(DW_LANG_C)
    7290              $C$DW$550       .dwtag  DW_TAG_TI_far_type
    7291                      .dwattr $C$DW$550, DW_AT_type(*$C$DW$T$70)
    7292              $C$DW$T$121     .dwtag  DW_TAG_const_type
    7293                      .dwattr $C$DW$T$121, DW_AT_type(*$C$DW$550)
    7294              $C$DW$T$78      .dwtag  DW_TAG_pointer_type
    7295                      .dwattr $C$DW$T$78, DW_AT_type(*$C$DW$T$70)
    7296                      .dwattr $C$DW$T$78, DW_AT_address_class(0x17)
    7297              $C$DW$551       .dwtag  DW_TAG_TI_far_type
    7298                      .dwattr $C$DW$551, DW_AT_type(*$C$DW$T$78)
    7299              $C$DW$T$79      .dwtag  DW_TAG_const_type
    7300                      .dwattr $C$DW$T$79, DW_AT_type(*$C$DW$551)
    7301              $C$DW$T$80      .dwtag  DW_TAG_typedef, DW_AT_name("tskTCB")
    7302                      .dwattr $C$DW$T$80, DW_AT_type(*$C$DW$T$33)
    7303                      .dwattr $C$DW$T$80, DW_AT_language(DW_LANG_C)
    7304              $C$DW$T$81      .dwtag  DW_TAG_typedef, DW_AT_name("TCB_t")
    7305                      .dwattr $C$DW$T$81, DW_AT_type(*$C$DW$T$80)
    7306                      .dwattr $C$DW$T$81, DW_AT_language(DW_LANG_C)
    7307              $C$DW$552       .dwtag  DW_TAG_TI_far_type
    7308                      .dwattr $C$DW$552, DW_AT_type(*$C$DW$T$81)
    7309              $C$DW$T$155     .dwtag  DW_TAG_const_type
    7310                      .dwattr $C$DW$T$155, DW_AT_type(*$C$DW$552)
    7311              $C$DW$T$156     .dwtag  DW_TAG_pointer_type
    7312                      .dwattr $C$DW$T$156, DW_AT_type(*$C$DW$T$155)
    7313                      .dwattr $C$DW$T$156, DW_AT_address_class(0x17)
    7314              $C$DW$553       .dwtag  DW_TAG_TI_far_type
    7315                      .dwattr $C$DW$553, DW_AT_type(*$C$DW$T$156)
    7316              $C$DW$T$157     .dwtag  DW_TAG_const_type
    7317                      .dwattr $C$DW$T$157, DW_AT_type(*$C$DW$553)
    7318              $C$DW$T$82      .dwtag  DW_TAG_pointer_type
    7319                      .dwattr $C$DW$T$82, DW_AT_type(*$C$DW$T$81)
    7320                      .dwattr $C$DW$T$82, DW_AT_address_class(0x17)
    7321              $C$DW$554       .dwtag  DW_TAG_TI_far_type
    7322                      .dwattr $C$DW$554, DW_AT_type(*$C$DW$T$82)
    7323              $C$DW$T$158     .dwtag  DW_TAG_volatile_type
    7324                      .dwattr $C$DW$T$158, DW_AT_type(*$C$DW$554)
    7325              $C$DW$555       .dwtag  DW_TAG_TI_far_type
    7326                      .dwattr $C$DW$555, DW_AT_type(*$C$DW$T$82)
    7327              $C$DW$T$159     .dwtag  DW_TAG_const_type
    7328                      .dwattr $C$DW$T$159, DW_AT_type(*$C$DW$555)
    7329              
    7330              $C$DW$T$37      .dwtag  DW_TAG_structure_type
    7331                      .dwattr $C$DW$T$37, DW_AT_name("xLIST")
    7332                      .dwattr $C$DW$T$37, DW_AT_byte_size(0x0a)
    7333              $C$DW$556       .dwtag  DW_TAG_member
    7334                      .dwattr $C$DW$556, DW_AT_type(*$C$DW$T$34)
    7335                      .dwattr $C$DW$556, DW_AT_name("uxNumberOfItems")
TMS320C55x Assembler PC v4.4.1 Sat Sep 08 17:11:34 2018

Tools Copyright (c) 1996-2012 Texas Instruments Incorporated
tasks.asm                                                            PAGE  163

    7336                      .dwattr $C$DW$556, DW_AT_TI_symbol_name("_uxNumberOfItems")
    7337                      .dwattr $C$DW$556, DW_AT_data_member_location[DW_OP_plus_uconst 0x0]
    7338                      .dwattr $C$DW$556, DW_AT_accessibility(DW_ACCESS_public)
    7339              $C$DW$557       .dwtag  DW_TAG_member
    7340                      .dwattr $C$DW$557, DW_AT_type(*$C$DW$T$35)
    7341                      .dwattr $C$DW$557, DW_AT_name("pxIndex")
    7342                      .dwattr $C$DW$557, DW_AT_TI_symbol_name("_pxIndex")
    7343                      .dwattr $C$DW$557, DW_AT_data_member_location[DW_OP_plus_uconst 0x2]
    7344                      .dwattr $C$DW$557, DW_AT_accessibility(DW_ACCESS_public)
    7345              $C$DW$558       .dwtag  DW_TAG_member
    7346                      .dwattr $C$DW$558, DW_AT_type(*$C$DW$T$36)
    7347                      .dwattr $C$DW$558, DW_AT_name("xListEnd")
    7348                      .dwattr $C$DW$558, DW_AT_TI_symbol_name("_xListEnd")
    7349                      .dwattr $C$DW$558, DW_AT_data_member_location[DW_OP_plus_uconst 0x4]
    7350                      .dwattr $C$DW$558, DW_AT_accessibility(DW_ACCESS_public)
    7351                      .dwendtag $C$DW$T$37
    7352              
    7353              $C$DW$T$59      .dwtag  DW_TAG_typedef, DW_AT_name("List_t")
    7354                      .dwattr $C$DW$T$59, DW_AT_type(*$C$DW$T$37)
    7355                      .dwattr $C$DW$T$59, DW_AT_language(DW_LANG_C)
    7356              $C$DW$559       .dwtag  DW_TAG_TI_far_type
    7357                      .dwattr $C$DW$559, DW_AT_type(*$C$DW$T$59)
    7358              $C$DW$T$125     .dwtag  DW_TAG_const_type
    7359                      .dwattr $C$DW$T$125, DW_AT_type(*$C$DW$559)
    7360              $C$DW$T$126     .dwtag  DW_TAG_pointer_type
    7361                      .dwattr $C$DW$T$126, DW_AT_type(*$C$DW$T$125)
    7362                      .dwattr $C$DW$T$126, DW_AT_address_class(0x17)
    7363              $C$DW$560       .dwtag  DW_TAG_TI_far_type
    7364                      .dwattr $C$DW$560, DW_AT_type(*$C$DW$T$126)
    7365              $C$DW$T$127     .dwtag  DW_TAG_const_type
    7366                      .dwattr $C$DW$T$127, DW_AT_type(*$C$DW$560)
    7367              $C$DW$T$60      .dwtag  DW_TAG_pointer_type
    7368                      .dwattr $C$DW$T$60, DW_AT_type(*$C$DW$T$59)
    7369                      .dwattr $C$DW$T$60, DW_AT_address_class(0x17)
    7370              $C$DW$561       .dwtag  DW_TAG_TI_far_type
    7371                      .dwattr $C$DW$561, DW_AT_type(*$C$DW$T$60)
    7372              $C$DW$T$61      .dwtag  DW_TAG_const_type
    7373                      .dwattr $C$DW$T$61, DW_AT_type(*$C$DW$561)
    7374              $C$DW$562       .dwtag  DW_TAG_TI_far_type
    7375                      .dwattr $C$DW$562, DW_AT_type(*$C$DW$T$60)
    7376              $C$DW$T$160     .dwtag  DW_TAG_volatile_type
    7377                      .dwattr $C$DW$T$160, DW_AT_type(*$C$DW$562)
    7378              
    7379              $C$DW$T$161     .dwtag  DW_TAG_array_type
    7380                      .dwattr $C$DW$T$161, DW_AT_type(*$C$DW$T$59)
    7381                      .dwattr $C$DW$T$161, DW_AT_language(DW_LANG_C)
    7382                      .dwattr $C$DW$T$161, DW_AT_byte_size(0x28)
    7383              $C$DW$563       .dwtag  DW_TAG_subrange_type
    7384                      .dwattr $C$DW$563, DW_AT_upper_bound(0x03)
    7385                      .dwendtag $C$DW$T$161
    7386              
    7387              $C$DW$T$40      .dwtag  DW_TAG_pointer_type
    7388                      .dwattr $C$DW$T$40, DW_AT_type(*$C$DW$T$37)
    7389                      .dwattr $C$DW$T$40, DW_AT_address_class(0x17)
    7390              
TMS320C55x Assembler PC v4.4.1 Sat Sep 08 17:11:34 2018

Tools Copyright (c) 1996-2012 Texas Instruments Incorporated
tasks.asm                                                            PAGE  164

    7391              $C$DW$T$41      .dwtag  DW_TAG_structure_type
    7392                      .dwattr $C$DW$T$41, DW_AT_name("xLIST_ITEM")
    7393                      .dwattr $C$DW$T$41, DW_AT_byte_size(0x0a)
    7394              $C$DW$564       .dwtag  DW_TAG_member
    7395                      .dwattr $C$DW$564, DW_AT_type(*$C$DW$T$38)
    7396                      .dwattr $C$DW$564, DW_AT_name("xItemValue")
    7397                      .dwattr $C$DW$564, DW_AT_TI_symbol_name("_xItemValue")
    7398                      .dwattr $C$DW$564, DW_AT_data_member_location[DW_OP_plus_uconst 0x0]
    7399                      .dwattr $C$DW$564, DW_AT_accessibility(DW_ACCESS_public)
    7400              $C$DW$565       .dwtag  DW_TAG_member
    7401                      .dwattr $C$DW$565, DW_AT_type(*$C$DW$T$39)
    7402                      .dwattr $C$DW$565, DW_AT_name("pxNext")
    7403                      .dwattr $C$DW$565, DW_AT_TI_symbol_name("_pxNext")
    7404                      .dwattr $C$DW$565, DW_AT_data_member_location[DW_OP_plus_uconst 0x2]
    7405                      .dwattr $C$DW$565, DW_AT_accessibility(DW_ACCESS_public)
    7406              $C$DW$566       .dwtag  DW_TAG_member
    7407                      .dwattr $C$DW$566, DW_AT_type(*$C$DW$T$39)
    7408                      .dwattr $C$DW$566, DW_AT_name("pxPrevious")
    7409                      .dwattr $C$DW$566, DW_AT_TI_symbol_name("_pxPrevious")
    7410                      .dwattr $C$DW$566, DW_AT_data_member_location[DW_OP_plus_uconst 0x4]
    7411                      .dwattr $C$DW$566, DW_AT_accessibility(DW_ACCESS_public)
    7412              $C$DW$567       .dwtag  DW_TAG_member
    7413                      .dwattr $C$DW$567, DW_AT_type(*$C$DW$T$3)
    7414                      .dwattr $C$DW$567, DW_AT_name("pvOwner")
    7415                      .dwattr $C$DW$567, DW_AT_TI_symbol_name("_pvOwner")
    7416                      .dwattr $C$DW$567, DW_AT_data_member_location[DW_OP_plus_uconst 0x6]
    7417                      .dwattr $C$DW$567, DW_AT_accessibility(DW_ACCESS_public)
    7418              $C$DW$568       .dwtag  DW_TAG_member
    7419                      .dwattr $C$DW$568, DW_AT_type(*$C$DW$T$40)
    7420                      .dwattr $C$DW$568, DW_AT_name("pvContainer")
    7421                      .dwattr $C$DW$568, DW_AT_TI_symbol_name("_pvContainer")
    7422                      .dwattr $C$DW$568, DW_AT_data_member_location[DW_OP_plus_uconst 0x8]
    7423                      .dwattr $C$DW$568, DW_AT_accessibility(DW_ACCESS_public)
    7424                      .dwendtag $C$DW$T$41
    7425              
    7426              $C$DW$T$24      .dwtag  DW_TAG_typedef, DW_AT_name("ListItem_t")
    7427                      .dwattr $C$DW$T$24, DW_AT_type(*$C$DW$T$41)
    7428                      .dwattr $C$DW$T$24, DW_AT_language(DW_LANG_C)
    7429              $C$DW$T$35      .dwtag  DW_TAG_pointer_type
    7430                      .dwattr $C$DW$T$35, DW_AT_type(*$C$DW$T$24)
    7431                      .dwattr $C$DW$T$35, DW_AT_address_class(0x17)
    7432              $C$DW$569       .dwtag  DW_TAG_TI_far_type
    7433                      .dwattr $C$DW$569, DW_AT_type(*$C$DW$T$35)
    7434              $C$DW$T$64      .dwtag  DW_TAG_const_type
    7435                      .dwattr $C$DW$T$64, DW_AT_type(*$C$DW$569)
    7436              $C$DW$T$39      .dwtag  DW_TAG_pointer_type
    7437                      .dwattr $C$DW$T$39, DW_AT_type(*$C$DW$T$41)
    7438                      .dwattr $C$DW$T$39, DW_AT_address_class(0x17)
    7439              
    7440              $C$DW$T$42      .dwtag  DW_TAG_structure_type
    7441                      .dwattr $C$DW$T$42, DW_AT_name("xMEMORY_REGION")
    7442                      .dwattr $C$DW$T$42, DW_AT_byte_size(0x06)
    7443              $C$DW$570       .dwtag  DW_TAG_member
    7444                      .dwattr $C$DW$570, DW_AT_type(*$C$DW$T$3)
    7445                      .dwattr $C$DW$570, DW_AT_name("pvBaseAddress")
TMS320C55x Assembler PC v4.4.1 Sat Sep 08 17:11:34 2018

Tools Copyright (c) 1996-2012 Texas Instruments Incorporated
tasks.asm                                                            PAGE  165

    7446                      .dwattr $C$DW$570, DW_AT_TI_symbol_name("_pvBaseAddress")
    7447                      .dwattr $C$DW$570, DW_AT_data_member_location[DW_OP_plus_uconst 0x0]
    7448                      .dwattr $C$DW$570, DW_AT_accessibility(DW_ACCESS_public)
    7449              $C$DW$571       .dwtag  DW_TAG_member
    7450                      .dwattr $C$DW$571, DW_AT_type(*$C$DW$T$29)
    7451                      .dwattr $C$DW$571, DW_AT_name("ulLengthInBytes")
    7452                      .dwattr $C$DW$571, DW_AT_TI_symbol_name("_ulLengthInBytes")
    7453                      .dwattr $C$DW$571, DW_AT_data_member_location[DW_OP_plus_uconst 0x2]
    7454                      .dwattr $C$DW$571, DW_AT_accessibility(DW_ACCESS_public)
    7455              $C$DW$572       .dwtag  DW_TAG_member
    7456                      .dwattr $C$DW$572, DW_AT_type(*$C$DW$T$29)
    7457                      .dwattr $C$DW$572, DW_AT_name("ulParameters")
    7458                      .dwattr $C$DW$572, DW_AT_TI_symbol_name("_ulParameters")
    7459                      .dwattr $C$DW$572, DW_AT_data_member_location[DW_OP_plus_uconst 0x4]
    7460                      .dwattr $C$DW$572, DW_AT_accessibility(DW_ACCESS_public)
    7461                      .dwendtag $C$DW$T$42
    7462              
    7463              $C$DW$T$83      .dwtag  DW_TAG_typedef, DW_AT_name("MemoryRegion_t")
    7464                      .dwattr $C$DW$T$83, DW_AT_type(*$C$DW$T$42)
    7465                      .dwattr $C$DW$T$83, DW_AT_language(DW_LANG_C)
    7466              $C$DW$573       .dwtag  DW_TAG_TI_far_type
    7467                      .dwattr $C$DW$573, DW_AT_type(*$C$DW$T$83)
    7468              $C$DW$T$84      .dwtag  DW_TAG_const_type
    7469                      .dwattr $C$DW$T$84, DW_AT_type(*$C$DW$573)
    7470              $C$DW$T$85      .dwtag  DW_TAG_pointer_type
    7471                      .dwattr $C$DW$T$85, DW_AT_type(*$C$DW$T$84)
    7472                      .dwattr $C$DW$T$85, DW_AT_address_class(0x17)
    7473              $C$DW$574       .dwtag  DW_TAG_TI_far_type
    7474                      .dwattr $C$DW$574, DW_AT_type(*$C$DW$T$85)
    7475              $C$DW$T$86      .dwtag  DW_TAG_const_type
    7476                      .dwattr $C$DW$T$86, DW_AT_type(*$C$DW$574)
    7477              
    7478              $C$DW$T$43      .dwtag  DW_TAG_structure_type
    7479                      .dwattr $C$DW$T$43, DW_AT_name("xMINI_LIST_ITEM")
    7480                      .dwattr $C$DW$T$43, DW_AT_byte_size(0x06)
    7481              $C$DW$575       .dwtag  DW_TAG_member
    7482                      .dwattr $C$DW$575, DW_AT_type(*$C$DW$T$38)
    7483                      .dwattr $C$DW$575, DW_AT_name("xItemValue")
    7484                      .dwattr $C$DW$575, DW_AT_TI_symbol_name("_xItemValue")
    7485                      .dwattr $C$DW$575, DW_AT_data_member_location[DW_OP_plus_uconst 0x0]
    7486                      .dwattr $C$DW$575, DW_AT_accessibility(DW_ACCESS_public)
    7487              $C$DW$576       .dwtag  DW_TAG_member
    7488                      .dwattr $C$DW$576, DW_AT_type(*$C$DW$T$39)
    7489                      .dwattr $C$DW$576, DW_AT_name("pxNext")
    7490                      .dwattr $C$DW$576, DW_AT_TI_symbol_name("_pxNext")
    7491                      .dwattr $C$DW$576, DW_AT_data_member_location[DW_OP_plus_uconst 0x2]
    7492                      .dwattr $C$DW$576, DW_AT_accessibility(DW_ACCESS_public)
    7493              $C$DW$577       .dwtag  DW_TAG_member
    7494                      .dwattr $C$DW$577, DW_AT_type(*$C$DW$T$39)
    7495                      .dwattr $C$DW$577, DW_AT_name("pxPrevious")
    7496                      .dwattr $C$DW$577, DW_AT_TI_symbol_name("_pxPrevious")
    7497                      .dwattr $C$DW$577, DW_AT_data_member_location[DW_OP_plus_uconst 0x4]
    7498                      .dwattr $C$DW$577, DW_AT_accessibility(DW_ACCESS_public)
    7499                      .dwendtag $C$DW$T$43
    7500              
TMS320C55x Assembler PC v4.4.1 Sat Sep 08 17:11:34 2018

Tools Copyright (c) 1996-2012 Texas Instruments Incorporated
tasks.asm                                                            PAGE  166

    7501              $C$DW$T$36      .dwtag  DW_TAG_typedef, DW_AT_name("MiniListItem_t")
    7502                      .dwattr $C$DW$T$36, DW_AT_type(*$C$DW$T$43)
    7503                      .dwattr $C$DW$T$36, DW_AT_language(DW_LANG_C)
    7504              
    7505              $C$DW$T$45      .dwtag  DW_TAG_structure_type
    7506                      .dwattr $C$DW$T$45, DW_AT_name("xTIME_OUT")
    7507                      .dwattr $C$DW$T$45, DW_AT_byte_size(0x02)
    7508              $C$DW$578       .dwtag  DW_TAG_member
    7509                      .dwattr $C$DW$578, DW_AT_type(*$C$DW$T$44)
    7510                      .dwattr $C$DW$578, DW_AT_name("xOverflowCount")
    7511                      .dwattr $C$DW$578, DW_AT_TI_symbol_name("_xOverflowCount")
    7512                      .dwattr $C$DW$578, DW_AT_data_member_location[DW_OP_plus_uconst 0x0]
    7513                      .dwattr $C$DW$578, DW_AT_accessibility(DW_ACCESS_public)
    7514              $C$DW$579       .dwtag  DW_TAG_member
    7515                      .dwattr $C$DW$579, DW_AT_type(*$C$DW$T$38)
    7516                      .dwattr $C$DW$579, DW_AT_name("xTimeOnEntering")
    7517                      .dwattr $C$DW$579, DW_AT_TI_symbol_name("_xTimeOnEntering")
    7518                      .dwattr $C$DW$579, DW_AT_data_member_location[DW_OP_plus_uconst 0x1]
    7519                      .dwattr $C$DW$579, DW_AT_accessibility(DW_ACCESS_public)
    7520                      .dwendtag $C$DW$T$45
    7521              
    7522              $C$DW$T$101     .dwtag  DW_TAG_typedef, DW_AT_name("TimeOut_t")
    7523                      .dwattr $C$DW$T$101, DW_AT_type(*$C$DW$T$45)
    7524                      .dwattr $C$DW$T$101, DW_AT_language(DW_LANG_C)
    7525              $C$DW$T$102     .dwtag  DW_TAG_pointer_type
    7526                      .dwattr $C$DW$T$102, DW_AT_type(*$C$DW$T$101)
    7527                      .dwattr $C$DW$T$102, DW_AT_address_class(0x17)
    7528              $C$DW$580       .dwtag  DW_TAG_TI_far_type
    7529                      .dwattr $C$DW$580, DW_AT_type(*$C$DW$T$102)
    7530              $C$DW$T$103     .dwtag  DW_TAG_const_type
    7531                      .dwattr $C$DW$T$103, DW_AT_type(*$C$DW$580)
    7532                      .dwattr $C$DW$CU, DW_AT_language(DW_LANG_C)
    7533              
    7534              ;***************************************************************
    7535              ;* DWARF CIE ENTRIES                                           *
    7536              ;***************************************************************
    7537              
    7538              $C$DW$CIE       .dwcie 91
    7539                      .dwcfi  cfa_register, 36
    7540                      .dwcfi  cfa_offset, 0
    7541                      .dwcfi  undefined, 0
    7542                      .dwcfi  undefined, 1
    7543                      .dwcfi  undefined, 2
    7544                      .dwcfi  undefined, 3
    7545                      .dwcfi  undefined, 4
    7546                      .dwcfi  undefined, 5
    7547                      .dwcfi  undefined, 6
    7548                      .dwcfi  undefined, 7
    7549                      .dwcfi  undefined, 8
    7550                      .dwcfi  undefined, 9
    7551                      .dwcfi  undefined, 10
    7552                      .dwcfi  undefined, 11
    7553                      .dwcfi  undefined, 12
    7554                      .dwcfi  undefined, 13
    7555                      .dwcfi  same_value, 14
TMS320C55x Assembler PC v4.4.1 Sat Sep 08 17:11:34 2018

Tools Copyright (c) 1996-2012 Texas Instruments Incorporated
tasks.asm                                                            PAGE  167

    7556                      .dwcfi  same_value, 15
    7557                      .dwcfi  undefined, 16
    7558                      .dwcfi  undefined, 17
    7559                      .dwcfi  undefined, 18
    7560                      .dwcfi  undefined, 19
    7561                      .dwcfi  undefined, 20
    7562                      .dwcfi  undefined, 21
    7563                      .dwcfi  undefined, 22
    7564                      .dwcfi  undefined, 23
    7565                      .dwcfi  undefined, 24
    7566                      .dwcfi  undefined, 25
    7567                      .dwcfi  same_value, 26
    7568                      .dwcfi  same_value, 27
    7569                      .dwcfi  same_value, 28
    7570                      .dwcfi  same_value, 29
    7571                      .dwcfi  same_value, 30
    7572                      .dwcfi  same_value, 31
    7573                      .dwcfi  undefined, 32
    7574                      .dwcfi  undefined, 33
    7575                      .dwcfi  undefined, 34
    7576                      .dwcfi  undefined, 35
    7577                      .dwcfi  undefined, 36
    7578                      .dwcfi  undefined, 37
    7579                      .dwcfi  undefined, 38
    7580                      .dwcfi  undefined, 39
    7581                      .dwcfi  undefined, 40
    7582                      .dwcfi  undefined, 41
    7583                      .dwcfi  undefined, 42
    7584                      .dwcfi  undefined, 43
    7585                      .dwcfi  undefined, 44
    7586                      .dwcfi  undefined, 45
    7587                      .dwcfi  undefined, 46
    7588                      .dwcfi  undefined, 47
    7589                      .dwcfi  undefined, 48
    7590                      .dwcfi  undefined, 49
    7591                      .dwcfi  undefined, 50
    7592                      .dwcfi  undefined, 51
    7593                      .dwcfi  undefined, 52
    7594                      .dwcfi  undefined, 53
    7595                      .dwcfi  undefined, 54
    7596                      .dwcfi  undefined, 55
    7597                      .dwcfi  undefined, 56
    7598                      .dwcfi  undefined, 57
    7599                      .dwcfi  undefined, 58
    7600                      .dwcfi  undefined, 59
    7601                      .dwcfi  undefined, 60
    7602                      .dwcfi  undefined, 61
    7603                      .dwcfi  undefined, 62
    7604                      .dwcfi  undefined, 63
    7605                      .dwcfi  undefined, 64
    7606                      .dwcfi  undefined, 65
    7607                      .dwcfi  undefined, 66
    7608                      .dwcfi  undefined, 67
    7609                      .dwcfi  undefined, 68
    7610                      .dwcfi  undefined, 69
TMS320C55x Assembler PC v4.4.1 Sat Sep 08 17:11:34 2018

Tools Copyright (c) 1996-2012 Texas Instruments Incorporated
tasks.asm                                                            PAGE  168

    7611                      .dwcfi  undefined, 70
    7612                      .dwcfi  undefined, 71
    7613                      .dwcfi  undefined, 72
    7614                      .dwcfi  undefined, 73
    7615                      .dwcfi  undefined, 74
    7616                      .dwcfi  undefined, 75
    7617                      .dwcfi  undefined, 76
    7618                      .dwcfi  undefined, 77
    7619                      .dwcfi  undefined, 78
    7620                      .dwcfi  undefined, 79
    7621                      .dwcfi  undefined, 80
    7622                      .dwcfi  undefined, 81
    7623                      .dwcfi  undefined, 82
    7624                      .dwcfi  undefined, 83
    7625                      .dwcfi  undefined, 84
    7626                      .dwcfi  undefined, 85
    7627                      .dwcfi  undefined, 86
    7628                      .dwcfi  undefined, 87
    7629                      .dwcfi  undefined, 88
    7630                      .dwcfi  undefined, 89
    7631                      .dwcfi  undefined, 90
    7632                      .dwcfi  undefined, 91
    7633                      .dwendentry
    7634              
    7635              ;***************************************************************
    7636              ;* DWARF REGISTER MAP                                          *
    7637              ;***************************************************************
    7638              
    7639              $C$DW$581       .dwtag  DW_TAG_TI_assign_register, DW_AT_name("AC0")
    7640                      .dwattr $C$DW$581, DW_AT_location[DW_OP_reg0]
    7641              $C$DW$582       .dwtag  DW_TAG_TI_assign_register, DW_AT_name("AC0")
    7642                      .dwattr $C$DW$582, DW_AT_location[DW_OP_reg1]
    7643              $C$DW$583       .dwtag  DW_TAG_TI_assign_register, DW_AT_name("AC0_G")
    7644                      .dwattr $C$DW$583, DW_AT_location[DW_OP_reg2]
    7645              $C$DW$584       .dwtag  DW_TAG_TI_assign_register, DW_AT_name("AC1")
    7646                      .dwattr $C$DW$584, DW_AT_location[DW_OP_reg3]
    7647              $C$DW$585       .dwtag  DW_TAG_TI_assign_register, DW_AT_name("AC1")
    7648                      .dwattr $C$DW$585, DW_AT_location[DW_OP_reg4]
    7649              $C$DW$586       .dwtag  DW_TAG_TI_assign_register, DW_AT_name("AC1_G")
    7650                      .dwattr $C$DW$586, DW_AT_location[DW_OP_reg5]
    7651              $C$DW$587       .dwtag  DW_TAG_TI_assign_register, DW_AT_name("AC2")
    7652                      .dwattr $C$DW$587, DW_AT_location[DW_OP_reg6]
    7653              $C$DW$588       .dwtag  DW_TAG_TI_assign_register, DW_AT_name("AC2")
    7654                      .dwattr $C$DW$588, DW_AT_location[DW_OP_reg7]
    7655              $C$DW$589       .dwtag  DW_TAG_TI_assign_register, DW_AT_name("AC2_G")
    7656                      .dwattr $C$DW$589, DW_AT_location[DW_OP_reg8]
    7657              $C$DW$590       .dwtag  DW_TAG_TI_assign_register, DW_AT_name("AC3")
    7658                      .dwattr $C$DW$590, DW_AT_location[DW_OP_reg9]
    7659              $C$DW$591       .dwtag  DW_TAG_TI_assign_register, DW_AT_name("AC3")
    7660                      .dwattr $C$DW$591, DW_AT_location[DW_OP_reg10]
    7661              $C$DW$592       .dwtag  DW_TAG_TI_assign_register, DW_AT_name("AC3_G")
    7662                      .dwattr $C$DW$592, DW_AT_location[DW_OP_reg11]
    7663              $C$DW$593       .dwtag  DW_TAG_TI_assign_register, DW_AT_name("T0")
    7664                      .dwattr $C$DW$593, DW_AT_location[DW_OP_reg12]
    7665              $C$DW$594       .dwtag  DW_TAG_TI_assign_register, DW_AT_name("T1")
TMS320C55x Assembler PC v4.4.1 Sat Sep 08 17:11:34 2018

Tools Copyright (c) 1996-2012 Texas Instruments Incorporated
tasks.asm                                                            PAGE  169

    7666                      .dwattr $C$DW$594, DW_AT_location[DW_OP_reg13]
    7667              $C$DW$595       .dwtag  DW_TAG_TI_assign_register, DW_AT_name("T2")
    7668                      .dwattr $C$DW$595, DW_AT_location[DW_OP_reg14]
    7669              $C$DW$596       .dwtag  DW_TAG_TI_assign_register, DW_AT_name("T3")
    7670                      .dwattr $C$DW$596, DW_AT_location[DW_OP_reg15]
    7671              $C$DW$597       .dwtag  DW_TAG_TI_assign_register, DW_AT_name("AR0")
    7672                      .dwattr $C$DW$597, DW_AT_location[DW_OP_reg16]
    7673              $C$DW$598       .dwtag  DW_TAG_TI_assign_register, DW_AT_name("XAR0")
    7674                      .dwattr $C$DW$598, DW_AT_location[DW_OP_reg17]
    7675              $C$DW$599       .dwtag  DW_TAG_TI_assign_register, DW_AT_name("AR1")
    7676                      .dwattr $C$DW$599, DW_AT_location[DW_OP_reg18]
    7677              $C$DW$600       .dwtag  DW_TAG_TI_assign_register, DW_AT_name("XAR1")
    7678                      .dwattr $C$DW$600, DW_AT_location[DW_OP_reg19]
    7679              $C$DW$601       .dwtag  DW_TAG_TI_assign_register, DW_AT_name("AR2")
    7680                      .dwattr $C$DW$601, DW_AT_location[DW_OP_reg20]
    7681              $C$DW$602       .dwtag  DW_TAG_TI_assign_register, DW_AT_name("XAR2")
    7682                      .dwattr $C$DW$602, DW_AT_location[DW_OP_reg21]
    7683              $C$DW$603       .dwtag  DW_TAG_TI_assign_register, DW_AT_name("AR3")
    7684                      .dwattr $C$DW$603, DW_AT_location[DW_OP_reg22]
    7685              $C$DW$604       .dwtag  DW_TAG_TI_assign_register, DW_AT_name("XAR3")
    7686                      .dwattr $C$DW$604, DW_AT_location[DW_OP_reg23]
    7687              $C$DW$605       .dwtag  DW_TAG_TI_assign_register, DW_AT_name("AR4")
    7688                      .dwattr $C$DW$605, DW_AT_location[DW_OP_reg24]
    7689              $C$DW$606       .dwtag  DW_TAG_TI_assign_register, DW_AT_name("XAR4")
    7690                      .dwattr $C$DW$606, DW_AT_location[DW_OP_reg25]
    7691              $C$DW$607       .dwtag  DW_TAG_TI_assign_register, DW_AT_name("AR5")
    7692                      .dwattr $C$DW$607, DW_AT_location[DW_OP_reg26]
    7693              $C$DW$608       .dwtag  DW_TAG_TI_assign_register, DW_AT_name("XAR5")
    7694                      .dwattr $C$DW$608, DW_AT_location[DW_OP_reg27]
    7695              $C$DW$609       .dwtag  DW_TAG_TI_assign_register, DW_AT_name("AR6")
    7696                      .dwattr $C$DW$609, DW_AT_location[DW_OP_reg28]
    7697              $C$DW$610       .dwtag  DW_TAG_TI_assign_register, DW_AT_name("XAR6")
    7698                      .dwattr $C$DW$610, DW_AT_location[DW_OP_reg29]
    7699              $C$DW$611       .dwtag  DW_TAG_TI_assign_register, DW_AT_name("AR7")
    7700                      .dwattr $C$DW$611, DW_AT_location[DW_OP_reg30]
    7701              $C$DW$612       .dwtag  DW_TAG_TI_assign_register, DW_AT_name("XAR7")
    7702                      .dwattr $C$DW$612, DW_AT_location[DW_OP_reg31]
    7703              $C$DW$613       .dwtag  DW_TAG_TI_assign_register, DW_AT_name("FP")
    7704                      .dwattr $C$DW$613, DW_AT_location[DW_OP_regx 0x20]
    7705              $C$DW$614       .dwtag  DW_TAG_TI_assign_register, DW_AT_name("XFP")
    7706                      .dwattr $C$DW$614, DW_AT_location[DW_OP_regx 0x21]
    7707              $C$DW$615       .dwtag  DW_TAG_TI_assign_register, DW_AT_name("PC")
    7708                      .dwattr $C$DW$615, DW_AT_location[DW_OP_regx 0x22]
    7709              $C$DW$616       .dwtag  DW_TAG_TI_assign_register, DW_AT_name("SP")
    7710                      .dwattr $C$DW$616, DW_AT_location[DW_OP_regx 0x23]
    7711              $C$DW$617       .dwtag  DW_TAG_TI_assign_register, DW_AT_name("XSP")
    7712                      .dwattr $C$DW$617, DW_AT_location[DW_OP_regx 0x24]
    7713              $C$DW$618       .dwtag  DW_TAG_TI_assign_register, DW_AT_name("BKC")
    7714                      .dwattr $C$DW$618, DW_AT_location[DW_OP_regx 0x25]
    7715              $C$DW$619       .dwtag  DW_TAG_TI_assign_register, DW_AT_name("BK03")
    7716                      .dwattr $C$DW$619, DW_AT_location[DW_OP_regx 0x26]
    7717              $C$DW$620       .dwtag  DW_TAG_TI_assign_register, DW_AT_name("BK47")
    7718                      .dwattr $C$DW$620, DW_AT_location[DW_OP_regx 0x27]
    7719              $C$DW$621       .dwtag  DW_TAG_TI_assign_register, DW_AT_name("ST0")
    7720                      .dwattr $C$DW$621, DW_AT_location[DW_OP_regx 0x28]
TMS320C55x Assembler PC v4.4.1 Sat Sep 08 17:11:34 2018

Tools Copyright (c) 1996-2012 Texas Instruments Incorporated
tasks.asm                                                            PAGE  170

    7721              $C$DW$622       .dwtag  DW_TAG_TI_assign_register, DW_AT_name("ST1")
    7722                      .dwattr $C$DW$622, DW_AT_location[DW_OP_regx 0x29]
    7723              $C$DW$623       .dwtag  DW_TAG_TI_assign_register, DW_AT_name("ST2")
    7724                      .dwattr $C$DW$623, DW_AT_location[DW_OP_regx 0x2a]
    7725              $C$DW$624       .dwtag  DW_TAG_TI_assign_register, DW_AT_name("ST3")
    7726                      .dwattr $C$DW$624, DW_AT_location[DW_OP_regx 0x2b]
    7727              $C$DW$625       .dwtag  DW_TAG_TI_assign_register, DW_AT_name("MDP")
    7728                      .dwattr $C$DW$625, DW_AT_location[DW_OP_regx 0x2c]
    7729              $C$DW$626       .dwtag  DW_TAG_TI_assign_register, DW_AT_name("MDP05")
    7730                      .dwattr $C$DW$626, DW_AT_location[DW_OP_regx 0x2d]
    7731              $C$DW$627       .dwtag  DW_TAG_TI_assign_register, DW_AT_name("MDP67")
    7732                      .dwattr $C$DW$627, DW_AT_location[DW_OP_regx 0x2e]
    7733              $C$DW$628       .dwtag  DW_TAG_TI_assign_register, DW_AT_name("BRC0")
    7734                      .dwattr $C$DW$628, DW_AT_location[DW_OP_regx 0x2f]
    7735              $C$DW$629       .dwtag  DW_TAG_TI_assign_register, DW_AT_name("RSA0")
    7736                      .dwattr $C$DW$629, DW_AT_location[DW_OP_regx 0x30]
    7737              $C$DW$630       .dwtag  DW_TAG_TI_assign_register, DW_AT_name("RSA0_H")
    7738                      .dwattr $C$DW$630, DW_AT_location[DW_OP_regx 0x31]
    7739              $C$DW$631       .dwtag  DW_TAG_TI_assign_register, DW_AT_name("REA0")
    7740                      .dwattr $C$DW$631, DW_AT_location[DW_OP_regx 0x32]
    7741              $C$DW$632       .dwtag  DW_TAG_TI_assign_register, DW_AT_name("REA0_H")
    7742                      .dwattr $C$DW$632, DW_AT_location[DW_OP_regx 0x33]
    7743              $C$DW$633       .dwtag  DW_TAG_TI_assign_register, DW_AT_name("BRS1")
    7744                      .dwattr $C$DW$633, DW_AT_location[DW_OP_regx 0x34]
    7745              $C$DW$634       .dwtag  DW_TAG_TI_assign_register, DW_AT_name("BRC1")
    7746                      .dwattr $C$DW$634, DW_AT_location[DW_OP_regx 0x35]
    7747              $C$DW$635       .dwtag  DW_TAG_TI_assign_register, DW_AT_name("RSA1")
    7748                      .dwattr $C$DW$635, DW_AT_location[DW_OP_regx 0x36]
    7749              $C$DW$636       .dwtag  DW_TAG_TI_assign_register, DW_AT_name("RSA1_H")
    7750                      .dwattr $C$DW$636, DW_AT_location[DW_OP_regx 0x37]
    7751              $C$DW$637       .dwtag  DW_TAG_TI_assign_register, DW_AT_name("REA1")
    7752                      .dwattr $C$DW$637, DW_AT_location[DW_OP_regx 0x38]
    7753              $C$DW$638       .dwtag  DW_TAG_TI_assign_register, DW_AT_name("REA1_H")
    7754                      .dwattr $C$DW$638, DW_AT_location[DW_OP_regx 0x39]
    7755              $C$DW$639       .dwtag  DW_TAG_TI_assign_register, DW_AT_name("CSR")
    7756                      .dwattr $C$DW$639, DW_AT_location[DW_OP_regx 0x3a]
    7757              $C$DW$640       .dwtag  DW_TAG_TI_assign_register, DW_AT_name("RPTC")
    7758                      .dwattr $C$DW$640, DW_AT_location[DW_OP_regx 0x3b]
    7759              $C$DW$641       .dwtag  DW_TAG_TI_assign_register, DW_AT_name("CDP")
    7760                      .dwattr $C$DW$641, DW_AT_location[DW_OP_regx 0x3c]
    7761              $C$DW$642       .dwtag  DW_TAG_TI_assign_register, DW_AT_name("XCDP")
    7762                      .dwattr $C$DW$642, DW_AT_location[DW_OP_regx 0x3d]
    7763              $C$DW$643       .dwtag  DW_TAG_TI_assign_register, DW_AT_name("TRN0")
    7764                      .dwattr $C$DW$643, DW_AT_location[DW_OP_regx 0x3e]
    7765              $C$DW$644       .dwtag  DW_TAG_TI_assign_register, DW_AT_name("TRN1")
    7766                      .dwattr $C$DW$644, DW_AT_location[DW_OP_regx 0x3f]
    7767              $C$DW$645       .dwtag  DW_TAG_TI_assign_register, DW_AT_name("BSA01")
    7768                      .dwattr $C$DW$645, DW_AT_location[DW_OP_regx 0x40]
    7769              $C$DW$646       .dwtag  DW_TAG_TI_assign_register, DW_AT_name("BSA23")
    7770                      .dwattr $C$DW$646, DW_AT_location[DW_OP_regx 0x41]
    7771              $C$DW$647       .dwtag  DW_TAG_TI_assign_register, DW_AT_name("BSA45")
    7772                      .dwattr $C$DW$647, DW_AT_location[DW_OP_regx 0x42]
    7773              $C$DW$648       .dwtag  DW_TAG_TI_assign_register, DW_AT_name("BSA67")
    7774                      .dwattr $C$DW$648, DW_AT_location[DW_OP_regx 0x43]
    7775              $C$DW$649       .dwtag  DW_TAG_TI_assign_register, DW_AT_name("BSAC")
TMS320C55x Assembler PC v4.4.1 Sat Sep 08 17:11:34 2018

Tools Copyright (c) 1996-2012 Texas Instruments Incorporated
tasks.asm                                                            PAGE  171

    7776                      .dwattr $C$DW$649, DW_AT_location[DW_OP_regx 0x44]
    7777              $C$DW$650       .dwtag  DW_TAG_TI_assign_register, DW_AT_name("CARRY")
    7778                      .dwattr $C$DW$650, DW_AT_location[DW_OP_regx 0x45]
    7779              $C$DW$651       .dwtag  DW_TAG_TI_assign_register, DW_AT_name("TC1")
    7780                      .dwattr $C$DW$651, DW_AT_location[DW_OP_regx 0x46]
    7781              $C$DW$652       .dwtag  DW_TAG_TI_assign_register, DW_AT_name("TC2")
    7782                      .dwattr $C$DW$652, DW_AT_location[DW_OP_regx 0x47]
    7783              $C$DW$653       .dwtag  DW_TAG_TI_assign_register, DW_AT_name("M40")
    7784                      .dwattr $C$DW$653, DW_AT_location[DW_OP_regx 0x48]
    7785              $C$DW$654       .dwtag  DW_TAG_TI_assign_register, DW_AT_name("SXMD")
    7786                      .dwattr $C$DW$654, DW_AT_location[DW_OP_regx 0x49]
    7787              $C$DW$655       .dwtag  DW_TAG_TI_assign_register, DW_AT_name("ARMS")
    7788                      .dwattr $C$DW$655, DW_AT_location[DW_OP_regx 0x4a]
    7789              $C$DW$656       .dwtag  DW_TAG_TI_assign_register, DW_AT_name("C54CM")
    7790                      .dwattr $C$DW$656, DW_AT_location[DW_OP_regx 0x4b]
    7791              $C$DW$657       .dwtag  DW_TAG_TI_assign_register, DW_AT_name("SATA")
    7792                      .dwattr $C$DW$657, DW_AT_location[DW_OP_regx 0x4c]
    7793              $C$DW$658       .dwtag  DW_TAG_TI_assign_register, DW_AT_name("SATD")
    7794                      .dwattr $C$DW$658, DW_AT_location[DW_OP_regx 0x4d]
    7795              $C$DW$659       .dwtag  DW_TAG_TI_assign_register, DW_AT_name("RDM")
    7796                      .dwattr $C$DW$659, DW_AT_location[DW_OP_regx 0x4e]
    7797              $C$DW$660       .dwtag  DW_TAG_TI_assign_register, DW_AT_name("FRCT")
    7798                      .dwattr $C$DW$660, DW_AT_location[DW_OP_regx 0x4f]
    7799              $C$DW$661       .dwtag  DW_TAG_TI_assign_register, DW_AT_name("SMUL")
    7800                      .dwattr $C$DW$661, DW_AT_location[DW_OP_regx 0x50]
    7801              $C$DW$662       .dwtag  DW_TAG_TI_assign_register, DW_AT_name("INTM")
    7802                      .dwattr $C$DW$662, DW_AT_location[DW_OP_regx 0x51]
    7803              $C$DW$663       .dwtag  DW_TAG_TI_assign_register, DW_AT_name("AR0LC")
    7804                      .dwattr $C$DW$663, DW_AT_location[DW_OP_regx 0x52]
    7805              $C$DW$664       .dwtag  DW_TAG_TI_assign_register, DW_AT_name("AR1LC")
    7806                      .dwattr $C$DW$664, DW_AT_location[DW_OP_regx 0x53]
    7807              $C$DW$665       .dwtag  DW_TAG_TI_assign_register, DW_AT_name("AR2LC")
    7808                      .dwattr $C$DW$665, DW_AT_location[DW_OP_regx 0x54]
    7809              $C$DW$666       .dwtag  DW_TAG_TI_assign_register, DW_AT_name("AR3LC")
    7810                      .dwattr $C$DW$666, DW_AT_location[DW_OP_regx 0x55]
    7811              $C$DW$667       .dwtag  DW_TAG_TI_assign_register, DW_AT_name("AR4LC")
    7812                      .dwattr $C$DW$667, DW_AT_location[DW_OP_regx 0x56]
    7813              $C$DW$668       .dwtag  DW_TAG_TI_assign_register, DW_AT_name("AR5LC")
    7814                      .dwattr $C$DW$668, DW_AT_location[DW_OP_regx 0x57]
    7815              $C$DW$669       .dwtag  DW_TAG_TI_assign_register, DW_AT_name("AR6LC")
    7816                      .dwattr $C$DW$669, DW_AT_location[DW_OP_regx 0x58]
    7817              $C$DW$670       .dwtag  DW_TAG_TI_assign_register, DW_AT_name("AR7LC")
    7818                      .dwattr $C$DW$670, DW_AT_location[DW_OP_regx 0x59]
    7819              $C$DW$671       .dwtag  DW_TAG_TI_assign_register, DW_AT_name("CDPLC")
    7820                      .dwattr $C$DW$671, DW_AT_location[DW_OP_regx 0x5a]
    7821              $C$DW$672       .dwtag  DW_TAG_TI_assign_register, DW_AT_name("CIE_RETA")
    7822                      .dwattr $C$DW$672, DW_AT_location[DW_OP_regx 0x5b]
    7823                      .dwendtag $C$DW$CU
    7824              
    7824              
    7824              

No Assembly Errors, No Assembly Warnings
