TMS320C55x Assembler PC v4.4.1 Sat Sep 08 17:55:44 2018

Tools Copyright (c) 1996-2012 Texas Instruments Incorporated
heap_1.asm                                                           PAGE    1

     755              ; Temporary Registers Used: None
       1              ;*******************************************************************************
       2              ;* TMS320C55x C/C++ Codegen                                          PC v4.4.1 *
       3              ;* Date/Time created: Sat Sep 08 17:55:44 2018                                 *
       4              ;*******************************************************************************
       5                      .compiler_opts --hll_source=on --mem_model:code=flat --mem_model:data=large --object_format=coff --si
       6                      .mmregs
       7                      .cpl_on
       8                      .arms_on
       9                      .c54cm_off
      10                      .asg AR6, FP
      11                      .asg XAR6, XFP
      12                      .asg DPH, MDP
      13                      .model call=c55_std
      14                      .model mem=large
      15                      .noremark 5002  ; code respects overwrite rules
      16              ;*******************************************************************************
      17              ;* GLOBAL FILE PARAMETERS                                                      *
      18              ;*                                                                             *
      19              ;*   Architecture       : TMS320C55x                                           *
      20              ;*   Optimizing for     : Speed                                                *
      21              ;*   Memory             : Large Model (23-Bit Data Pointers)                   *
      22              ;*   Calls              : Normal Library ASM calls                             *
      23              ;*   Debug Info         : Standard TI Debug Information                        *
      24              ;*******************************************************************************
      25              
      26              $C$DW$CU        .dwtag  DW_TAG_compile_unit
      27                      .dwattr $C$DW$CU, DW_AT_name("../FreeRTOS/Source/portable/MemMang/heap_1.c")
      28                      .dwattr $C$DW$CU, DW_AT_producer("TMS320C55x C/C++ Codegen PC v4.4.1 Copyright (c) 1996-2012 Texas In
      29                      .dwattr $C$DW$CU, DW_AT_TI_version(0x01)
      30                      .dwattr $C$DW$CU, DW_AT_comp_dir("F:\eZdsp_C55x_FreeRTOS_Port\eZDSP\eZDSP_5535_Files\ccsws2\test\Debu
      31              ;******************************************************************************
      32              ;* CINIT RECORDS                                                              *
      33              ;******************************************************************************
      34 000000               .sect   ".cinit"
      35                      .align  1
      36 000000 0001          .field          1,16
      37 000001 001B-         .field          _xNextFreeByte+0,24
         000002 5800 
      38 000002 5800          .field          0,8
      39 000003 0000          .field  0,16                    ; _xNextFreeByte @ 0
      40              
      41 000004               .sect   ".cinit"
      42                      .align  1
      43 000004 0002          .field          2,16
      44 000005 001B-         .field          _pucAlignedHeap$1+0,24
         000006 5A00 
      45 000006 5A00          .field          0,8
      46 000007 0000          .field  0,32                    ; _pucAlignedHeap$1 @ 0
         000008 0000 
      47              
      48              
      49              $C$DW$1 .dwtag  DW_TAG_subprogram, DW_AT_name("vTaskSuspendAll")
      50                      .dwattr $C$DW$1, DW_AT_TI_symbol_name("_vTaskSuspendAll")
      51                      .dwattr $C$DW$1, DW_AT_declaration
TMS320C55x Assembler PC v4.4.1 Sat Sep 08 17:55:44 2018

Tools Copyright (c) 1996-2012 Texas Instruments Incorporated
heap_1.asm                                                           PAGE    2

      52                      .dwattr $C$DW$1, DW_AT_external
      53              
      54              $C$DW$2 .dwtag  DW_TAG_subprogram, DW_AT_name("xTaskResumeAll")
      55                      .dwattr $C$DW$2, DW_AT_TI_symbol_name("_xTaskResumeAll")
      56                      .dwattr $C$DW$2, DW_AT_type(*$C$DW$T$27)
      57                      .dwattr $C$DW$2, DW_AT_declaration
      58                      .dwattr $C$DW$2, DW_AT_external
      59              
      60              $C$DW$3 .dwtag  DW_TAG_subprogram, DW_AT_name("vApplicationMallocFailedHook")
      61                      .dwattr $C$DW$3, DW_AT_TI_symbol_name("_vApplicationMallocFailedHook")
      62                      .dwattr $C$DW$3, DW_AT_declaration
      63                      .dwattr $C$DW$3, DW_AT_external
      64 000000               .bss    _ucHeap,7000,0,0
      65              $C$DW$4 .dwtag  DW_TAG_variable, DW_AT_name("ucHeap")
      66                      .dwattr $C$DW$4, DW_AT_TI_symbol_name("_ucHeap")
      67                      .dwattr $C$DW$4, DW_AT_type(*$C$DW$T$25)
      68                      .dwattr $C$DW$4, DW_AT_location[DW_OP_addr _ucHeap]
      69 001b58               .bss    _xNextFreeByte,1,0,0
      70              $C$DW$5 .dwtag  DW_TAG_variable, DW_AT_name("xNextFreeByte")
      71                      .dwattr $C$DW$5, DW_AT_TI_symbol_name("_xNextFreeByte")
      72                      .dwattr $C$DW$5, DW_AT_type(*$C$DW$T$19)
      73                      .dwattr $C$DW$5, DW_AT_location[DW_OP_addr _xNextFreeByte]
      74 001b5a               .bss    _pucAlignedHeap$1,2,0,2
      75              ;       F:\TI_CCS_7P4\ccsv7\tools\compiler\c5500_4.4.1\bin\acp55.exe -@f:\\AppData\\Local\\Temp\\1725612 
      76 000000               .sect   ".text"
      77                      .align 4
      78                      .global _pvPortMalloc
      79              
      80              $C$DW$6 .dwtag  DW_TAG_subprogram, DW_AT_name("pvPortMalloc")
      81                      .dwattr $C$DW$6, DW_AT_low_pc(_pvPortMalloc)
      82                      .dwattr $C$DW$6, DW_AT_high_pc(0x00)
      83                      .dwattr $C$DW$6, DW_AT_TI_symbol_name("_pvPortMalloc")
      84                      .dwattr $C$DW$6, DW_AT_external
      85                      .dwattr $C$DW$6, DW_AT_type(*$C$DW$T$3)
      86                      .dwattr $C$DW$6, DW_AT_TI_begin_file("../FreeRTOS/Source/portable/MemMang/heap_1.c")
      87                      .dwattr $C$DW$6, DW_AT_TI_begin_line(0x45)
      88                      .dwattr $C$DW$6, DW_AT_TI_begin_column(0x07)
      89                      .dwattr $C$DW$6, DW_AT_TI_max_frame_size(0x06)
      90                      .dwpsn  file "../FreeRTOS/Source/portable/MemMang/heap_1.c",line 70,column 1,is_stmt,address _pvPortM
      91              
      92                      .dwfde $C$DW$CIE, _pvPortMalloc
      93              $C$DW$7 .dwtag  DW_TAG_variable, DW_AT_name("pucAlignedHeap")
      94                      .dwattr $C$DW$7, DW_AT_TI_symbol_name("_pucAlignedHeap$1")
      95                      .dwattr $C$DW$7, DW_AT_type(*$C$DW$T$26)
      96                      .dwattr $C$DW$7, DW_AT_location[DW_OP_addr _pucAlignedHeap$1]
      97              $C$DW$8 .dwtag  DW_TAG_formal_parameter, DW_AT_name("xWantedSize")
      98                      .dwattr $C$DW$8, DW_AT_TI_symbol_name("_xWantedSize")
      99                      .dwattr $C$DW$8, DW_AT_type(*$C$DW$T$19)
     100                      .dwattr $C$DW$8, DW_AT_location[DW_OP_reg12]
     101              ;*******************************************************************************
     102              ;* FUNCTION NAME: pvPortMalloc                                                 *
     103              ;*                                                                             *
     104              ;*   Function Uses Regs : AC0,AC0,AC1,AC1,T0,AR0,XAR0,AR1,AR2,AR3,XAR3,SP,     *
     105              ;*                        CARRY,TC1,M40,SATA,SATD,RDM,FRCT,SMUL                *
     106              ;*   Stack Frame        : Compact (No Frame Pointer, w/ debug)                 *
TMS320C55x Assembler PC v4.4.1 Sat Sep 08 17:55:44 2018

Tools Copyright (c) 1996-2012 Texas Instruments Incorporated
heap_1.asm                                                           PAGE    3

     107              ;*   Total Frame Size   : 6 words                                              *
     108              ;*                        (2 return address/alignment)                         *
     109              ;*                        (4 local values)                                     *
     110              ;*   Min System Stack   : 1 word                                               *
     111              ;*******************************************************************************
     112 000000       _pvPortMalloc:
     113                      .dwcfi  cfa_offset, 1
     114                      .dwcfi  save_reg_to_mem, 91, -1
     115 000000 4EFB          AADD #-5, SP
     116                      .dwcfi  cfa_offset, 6
     117              $C$DW$9 .dwtag  DW_TAG_variable, DW_AT_name("xWantedSize")
     118                      .dwattr $C$DW$9, DW_AT_TI_symbol_name("_xWantedSize")
     119                      .dwattr $C$DW$9, DW_AT_type(*$C$DW$T$19)
     120                      .dwattr $C$DW$9, DW_AT_location[DW_OP_bregx 0x24 0]
     121              $C$DW$10        .dwtag  DW_TAG_variable, DW_AT_name("pvReturn")
     122                      .dwattr $C$DW$10, DW_AT_TI_symbol_name("_pvReturn")
     123                      .dwattr $C$DW$10, DW_AT_type(*$C$DW$T$3)
     124                      .dwattr $C$DW$10, DW_AT_location[DW_OP_bregx 0x24 2]
     125 000002 C400          MOV T0, *SP(#0) ; |70| 
     126                      .dwpsn  file "../FreeRTOS/Source/portable/MemMang/heap_1.c",line 71,column 7,is_stmt
     127 000004 3C00          MOV #0, AC0 ; |71| 
     128 000006 EB04          MOV AC0, dbl(*SP(#2))
         000008 08   
     129                      .dwpsn  file "../FreeRTOS/Source/portable/MemMang/heap_1.c",line 77,column 3,is_stmt
     130 000009 F200          BAND *SP(#0), #3, TC1 ; |77| 
         00000b 0003 
     131 00000d 6674          BCC $C$L1,!TC1 ; |77| 
     132                                                      ; branchcc occurs ; |77| 
     133                      .dwpsn  file "../FreeRTOS/Source/portable/MemMang/heap_1.c",line 80,column 4,is_stmt
     134 00000f A900          MOV *SP(#0), AR1 ; |80| 
     135 000011 1803          AND #0x0003, AR1, AR1 ; |80| 
         000013 99   
     136 000014 D800          SUB AR1, *SP(#0), AR1 ; |80| 
         000016 99   
     137 000017 4049          ADD #4, AR1 ; |80| 
     138 000019 C900          MOV AR1, *SP(#0) ; |80| 
     139 00001b       $C$L1:    
     140                      .dwpsn  file "../FreeRTOS/Source/portable/MemMang/heap_1.c",line 85,column 2,is_stmt
     141              $C$DW$11        .dwtag  DW_TAG_TI_branch
     142                      .dwattr $C$DW$11, DW_AT_low_pc(0x00)
     143                      .dwattr $C$DW$11, DW_AT_name("_vTaskSuspendAll")
     144                      .dwattr $C$DW$11, DW_AT_TI_call
     145 00001b 6C00          CALL #_vTaskSuspendAll ; |85| 
         00001d 0000!
     146                                                      ; call occurs [#_vTaskSuspendAll] ; |85| 
     147                      .dwpsn  file "../FreeRTOS/Source/portable/MemMang/heap_1.c",line 87,column 3,is_stmt
     148 00001f ED31          MOV dbl(*(#_pucAlignedHeap$1)), XAR3
         000021 BF00 
         000023 1B5A-
     149 000025 90B0          MOV XAR3, AC0
     150 000027 0410          BCC $C$L2,AC0 != #0 ; |87| 
         000029 18   
     151                                                      ; branchcc occurs ; |87| 
     152                      .dwpsn  file "../FreeRTOS/Source/portable/MemMang/heap_1.c",line 90,column 4,is_stmt
     153 00002a 7AFF          MOV #-1 << #16, AC0 ; |90| 
TMS320C55x Assembler PC v4.4.1 Sat Sep 08 17:55:44 2018

Tools Copyright (c) 1996-2012 Texas Instruments Incorporated
heap_1.asm                                                           PAGE    4

         00002c FF0A 
     154 00002e 7A00          MOV #((_ucHeap+4) >> 16) << #16, AC1 ; |90| 
         000030 001A%
     155 000032 7EFF          OR #0xfffc, AC0, AC0 ; |90| 
         000034 FC00 
     156 000036 7E00          OR #((_ucHeap+4) & 0xffff), AC1, AC1 ; |90| 
         000038 0011%
     157 00003a 2810          AND AC1, AC0 ; |90| 
     158 00003c EB31          MOV AC0, dbl(*(#_pucAlignedHeap$1))
         00003e 0800 
         000040 1B5A-
     159 000042       $C$L2:    
     160                      .dwpsn  file "../FreeRTOS/Source/portable/MemMang/heap_1.c",line 94,column 3,is_stmt
     161 000042 A900          MOV *SP(#0), AR1 ; |94| 
     162 000044 761B          MOV #6996, AR2 ; |94| 
         000046 54A8 
     163 000048 D631          ADD *(#_xNextFreeByte), AR1, AR1 ; |94| 
         00004a 9900 
         00004c 1B58-
     164 00004e 1298          CMPU AR1 >= AR2, TC1 ; |94| 
         000050 A4   
     165 000051 0464          BCC $C$L3,TC1 ; |94| 
         000053 31   
     166                                                      ; branchcc occurs ; |94| 
     167 000054 AA00          MOV *SP(#0), AR2 ; |94| 
     168 000056 A931          MOV *(#_xNextFreeByte), AR1 ; |94| 
         000058 001B 
         00005a 58-  
     169 00005b D631          ADD *(#_xNextFreeByte), AR2, AR2 ; |94| 
         00005d AA00 
         00005f 1B58-
     170 000061 1298          CMPU AR2 <= AR1, TC1 ; |94| 
         000063 A4   
     171 000064 0464          BCC $C$L3,TC1 ; |94| 
         000066 1E   
     172                                                      ; branchcc occurs ; |94| 
     173                      .dwpsn  file "../FreeRTOS/Source/portable/MemMang/heap_1.c",line 99,column 4,is_stmt
     174 000067 ED31          MOV dbl(*(#_pucAlignedHeap$1)), XAR3
         000069 BF00 
         00006b 1B5A-
     175 00006d A931          MOV *(#_xNextFreeByte), AR1 ; |99| 
         00006f 001B 
         000071 58-  
     176              
     177 000072 8E04          MOV XAR3, dbl(*SP(#2))
         000074 BB10 
         000076 B590 
     178              ||      AADD AR1, AR3 ; |99| 
     179              
     180                      .dwpsn  file "../FreeRTOS/Source/portable/MemMang/heap_1.c",line 100,column 4,is_stmt
     181 000078 A900          MOV *SP(#0), AR1 ; |100| 
     182 00007a D631          ADD *(#_xNextFreeByte), AR1, AR1 ; |100| 
         00007c 9900 
         00007e 1B58-
     183 000080 C931          MOV AR1, *(#_xNextFreeByte) ; |100| 
TMS320C55x Assembler PC v4.4.1 Sat Sep 08 17:55:44 2018

Tools Copyright (c) 1996-2012 Texas Instruments Incorporated
heap_1.asm                                                           PAGE    5

         000082 001B 
         000084 58-  
     184 000085       $C$L3:    
     185                      .dwpsn  file "../FreeRTOS/Source/portable/MemMang/heap_1.c",line 105,column 2,is_stmt
     186              $C$DW$12        .dwtag  DW_TAG_TI_branch
     187                      .dwattr $C$DW$12, DW_AT_low_pc(0x00)
     188                      .dwattr $C$DW$12, DW_AT_name("_xTaskResumeAll")
     189                      .dwattr $C$DW$12, DW_AT_TI_call
     190 000085 6C00          CALL #_xTaskResumeAll ; |105| 
         000087 0000!
     191                                                      ; call occurs [#_xTaskResumeAll] ; |105| 
     192                      .dwpsn  file "../FreeRTOS/Source/portable/MemMang/heap_1.c",line 109,column 3,is_stmt
     193 000089 ED04          MOV dbl(*SP(#2)), XAR3
         00008b BF   
     194 00008c 90B0          MOV XAR3, AC0
     195 00008e 6210          BCC $C$L4,AC0 != #0 ; |109| 
     196                                                      ; branchcc occurs ; |109| 
     197                      .dwpsn  file "../FreeRTOS/Source/portable/MemMang/heap_1.c",line 112,column 4,is_stmt
     198              $C$DW$13        .dwtag  DW_TAG_TI_branch
     199                      .dwattr $C$DW$13, DW_AT_low_pc(0x00)
     200                      .dwattr $C$DW$13, DW_AT_name("_vApplicationMallocFailedHook")
     201                      .dwattr $C$DW$13, DW_AT_TI_call
     202 000090 6C00          CALL #_vApplicationMallocFailedHook ; |112| 
         000092 0000!
     203                                                      ; call occurs [#_vApplicationMallocFailedHook] ; |112| 
     204 000094       $C$L4:    
     205                      .dwpsn  file "../FreeRTOS/Source/portable/MemMang/heap_1.c",line 117,column 2,is_stmt
     206 000094 ED04          MOV dbl(*SP(#2)), XAR0
         000096 8F   
     207                      .dwpsn  file "../FreeRTOS/Source/portable/MemMang/heap_1.c",line 118,column 1,is_stmt
     208 000097 4E05          AADD #5, SP
     209                      .dwcfi  cfa_offset, 1
     210              $C$DW$14        .dwtag  DW_TAG_TI_branch
     211                      .dwattr $C$DW$14, DW_AT_low_pc(0x00)
     212                      .dwattr $C$DW$14, DW_AT_TI_return
     213 000099 4804          RET
     214                                                      ; return occurs
     215                      .dwattr $C$DW$6, DW_AT_TI_end_file("../FreeRTOS/Source/portable/MemMang/heap_1.c")
     216                      .dwattr $C$DW$6, DW_AT_TI_end_line(0x76)
     217                      .dwattr $C$DW$6, DW_AT_TI_end_column(0x01)
     218                      .dwendentry
     219                      .dwendtag $C$DW$6
     220              
     221 00009b               .sect   ".text"
     222                      .align 4
     223                      .global _vPortFree
     224              
     225              $C$DW$15        .dwtag  DW_TAG_subprogram, DW_AT_name("vPortFree")
     226                      .dwattr $C$DW$15, DW_AT_low_pc(_vPortFree)
     227                      .dwattr $C$DW$15, DW_AT_high_pc(0x00)
     228                      .dwattr $C$DW$15, DW_AT_TI_symbol_name("_vPortFree")
     229                      .dwattr $C$DW$15, DW_AT_external
     230                      .dwattr $C$DW$15, DW_AT_TI_begin_file("../FreeRTOS/Source/portable/MemMang/heap_1.c")
     231                      .dwattr $C$DW$15, DW_AT_TI_begin_line(0x79)
     232                      .dwattr $C$DW$15, DW_AT_TI_begin_column(0x06)
TMS320C55x Assembler PC v4.4.1 Sat Sep 08 17:55:44 2018

Tools Copyright (c) 1996-2012 Texas Instruments Incorporated
heap_1.asm                                                           PAGE    6

     233                      .dwattr $C$DW$15, DW_AT_TI_max_frame_size(0x04)
     234                      .dwpsn  file "../FreeRTOS/Source/portable/MemMang/heap_1.c",line 122,column 1,is_stmt,address _vPortF
     235              
     236                      .dwfde $C$DW$CIE, _vPortFree
     237              $C$DW$16        .dwtag  DW_TAG_formal_parameter, DW_AT_name("pv")
     238                      .dwattr $C$DW$16, DW_AT_TI_symbol_name("_pv")
     239                      .dwattr $C$DW$16, DW_AT_type(*$C$DW$T$3)
     240                      .dwattr $C$DW$16, DW_AT_location[DW_OP_reg17]
     241              ;*******************************************************************************
     242              ;* FUNCTION NAME: vPortFree                                                    *
     243              ;*                                                                             *
     244              ;*   Function Uses Regs : AR0,XAR0,SP,M40,SATA,SATD,RDM,FRCT,SMUL              *
     245              ;*   Stack Frame        : Compact (No Frame Pointer, w/ debug)                 *
     246              ;*   Total Frame Size   : 4 words                                              *
     247              ;*                        (2 return address/alignment)                         *
     248              ;*                        (2 local values)                                     *
     249              ;*   Min System Stack   : 1 word                                               *
     250              ;*******************************************************************************
     251 00009c       _vPortFree:
     252                      .dwcfi  cfa_offset, 1
     253                      .dwcfi  save_reg_to_mem, 91, -1
     254 00009c 4EFD          AADD #-3, SP
     255                      .dwcfi  cfa_offset, 4
     256              $C$DW$17        .dwtag  DW_TAG_variable, DW_AT_name("pv")
     257                      .dwattr $C$DW$17, DW_AT_TI_symbol_name("_pv")
     258                      .dwattr $C$DW$17, DW_AT_type(*$C$DW$T$3)
     259                      .dwattr $C$DW$17, DW_AT_location[DW_OP_bregx 0x24 0]
     260 00009e EB00          MOV XAR0, dbl(*SP(#0))
         0000a0 85   
     261                      .dwpsn  file "../FreeRTOS/Source/portable/MemMang/heap_1.c",line 126,column 2,is_stmt
     262                      .dwpsn  file "../FreeRTOS/Source/portable/MemMang/heap_1.c",line 130,column 1,is_stmt
     263 0000a1 4E03          AADD #3, SP
     264                      .dwcfi  cfa_offset, 1
     265              $C$DW$18        .dwtag  DW_TAG_TI_branch
     266                      .dwattr $C$DW$18, DW_AT_low_pc(0x00)
     267                      .dwattr $C$DW$18, DW_AT_TI_return
     268 0000a3 4804          RET
     269                                                      ; return occurs
     270                      .dwattr $C$DW$15, DW_AT_TI_end_file("../FreeRTOS/Source/portable/MemMang/heap_1.c")
     271                      .dwattr $C$DW$15, DW_AT_TI_end_line(0x82)
     272                      .dwattr $C$DW$15, DW_AT_TI_end_column(0x01)
     273                      .dwendentry
     274                      .dwendtag $C$DW$15
     275              
     276 0000a5               .sect   ".text"
     277                      .align 4
     278                      .global _vPortInitialiseBlocks
     279              
     280              $C$DW$19        .dwtag  DW_TAG_subprogram, DW_AT_name("vPortInitialiseBlocks")
     281                      .dwattr $C$DW$19, DW_AT_low_pc(_vPortInitialiseBlocks)
     282                      .dwattr $C$DW$19, DW_AT_high_pc(0x00)
     283                      .dwattr $C$DW$19, DW_AT_TI_symbol_name("_vPortInitialiseBlocks")
     284                      .dwattr $C$DW$19, DW_AT_external
     285                      .dwattr $C$DW$19, DW_AT_TI_begin_file("../FreeRTOS/Source/portable/MemMang/heap_1.c")
     286                      .dwattr $C$DW$19, DW_AT_TI_begin_line(0x85)
TMS320C55x Assembler PC v4.4.1 Sat Sep 08 17:55:44 2018

Tools Copyright (c) 1996-2012 Texas Instruments Incorporated
heap_1.asm                                                           PAGE    7

     287                      .dwattr $C$DW$19, DW_AT_TI_begin_column(0x06)
     288                      .dwattr $C$DW$19, DW_AT_TI_max_frame_size(0x01)
     289                      .dwpsn  file "../FreeRTOS/Source/portable/MemMang/heap_1.c",line 134,column 1,is_stmt,address _vPortI
     290              
     291                      .dwfde $C$DW$CIE, _vPortInitialiseBlocks
     292              ;*******************************************************************************
     293              ;* FUNCTION NAME: vPortInitialiseBlocks                                        *
     294              ;*                                                                             *
     295              ;*   Function Uses Regs : SP,M40,SATA,SATD,RDM,FRCT,SMUL                       *
     296              ;*   Stack Frame        : Compact (No Frame Pointer, w/ debug)                 *
     297              ;*   Total Frame Size   : 1 word                                               *
     298              ;*                        (1 return address/alignment)                         *
     299              ;*   Min System Stack   : 1 word                                               *
     300              ;*******************************************************************************
     301 0000a8       _vPortInitialiseBlocks:
     302                      .dwcfi  cfa_offset, 1
     303                      .dwcfi  save_reg_to_mem, 91, -1
     304                      .dwpsn  file "../FreeRTOS/Source/portable/MemMang/heap_1.c",line 136,column 2,is_stmt
     305 0000a8 E631          MOV #0, *(#_xNextFreeByte) ; |136| 
         0000aa 0000 
         0000ac 1B58-
     306                      .dwpsn  file "../FreeRTOS/Source/portable/MemMang/heap_1.c",line 137,column 1,is_stmt
     307              $C$DW$20        .dwtag  DW_TAG_TI_branch
     308                      .dwattr $C$DW$20, DW_AT_low_pc(0x00)
     309                      .dwattr $C$DW$20, DW_AT_TI_return
     310 0000ae 4804          RET
     311                                                      ; return occurs
     312                      .dwattr $C$DW$19, DW_AT_TI_end_file("../FreeRTOS/Source/portable/MemMang/heap_1.c")
     313                      .dwattr $C$DW$19, DW_AT_TI_end_line(0x89)
     314                      .dwattr $C$DW$19, DW_AT_TI_end_column(0x01)
     315                      .dwendentry
     316                      .dwendtag $C$DW$19
     317              
     318 0000b0               .sect   ".text"
     319                      .align 4
     320                      .global _xPortGetFreeHeapSize
     321              
     322              $C$DW$21        .dwtag  DW_TAG_subprogram, DW_AT_name("xPortGetFreeHeapSize")
     323                      .dwattr $C$DW$21, DW_AT_low_pc(_xPortGetFreeHeapSize)
     324                      .dwattr $C$DW$21, DW_AT_high_pc(0x00)
     325                      .dwattr $C$DW$21, DW_AT_TI_symbol_name("_xPortGetFreeHeapSize")
     326                      .dwattr $C$DW$21, DW_AT_external
     327                      .dwattr $C$DW$21, DW_AT_type(*$C$DW$T$19)
     328                      .dwattr $C$DW$21, DW_AT_TI_begin_file("../FreeRTOS/Source/portable/MemMang/heap_1.c")
     329                      .dwattr $C$DW$21, DW_AT_TI_begin_line(0x8c)
     330                      .dwattr $C$DW$21, DW_AT_TI_begin_column(0x08)
     331                      .dwattr $C$DW$21, DW_AT_TI_max_frame_size(0x01)
     332                      .dwpsn  file "../FreeRTOS/Source/portable/MemMang/heap_1.c",line 141,column 1,is_stmt,address _xPortG
     333              
     334                      .dwfde $C$DW$CIE, _xPortGetFreeHeapSize
     335              ;*******************************************************************************
     336              ;* FUNCTION NAME: xPortGetFreeHeapSize                                         *
     337              ;*                                                                             *
     338              ;*   Function Uses Regs : AC0,T0,SP,CARRY,M40,SATA,SATD,RDM,FRCT,SMUL          *
     339              ;*   Stack Frame        : Compact (No Frame Pointer, w/ debug)                 *
TMS320C55x Assembler PC v4.4.1 Sat Sep 08 17:55:44 2018

Tools Copyright (c) 1996-2012 Texas Instruments Incorporated
heap_1.asm                                                           PAGE    8

     340              ;*   Total Frame Size   : 1 word                                               *
     341              ;*                        (1 return address/alignment)                         *
     342              ;*   Min System Stack   : 1 word                                               *
     343              ;*******************************************************************************
     344 0000b0       _xPortGetFreeHeapSize:
     345                      .dwcfi  cfa_offset, 1
     346                      .dwcfi  save_reg_to_mem, 91, -1
     347                      .dwpsn  file "../FreeRTOS/Source/portable/MemMang/heap_1.c",line 142,column 2,is_stmt
     348 0000b0 761B          MOV #6996, AC0 ; |142| 
         0000b2 5408 
     349 0000b4 DF31          SUB uns(*(#_xNextFreeByte)), AC0, AC0 ; |142| 
         0000b6 0F00 
         0000b8 1B58-
     350                      .dwpsn  file "../FreeRTOS/Source/portable/MemMang/heap_1.c",line 143,column 1,is_stmt
     351 0000ba 2204          MOV AC0, T0 ; |142| 
     352              $C$DW$22        .dwtag  DW_TAG_TI_branch
     353                      .dwattr $C$DW$22, DW_AT_low_pc(0x00)
     354                      .dwattr $C$DW$22, DW_AT_TI_return
     355 0000bc 4804          RET       ; |142| 
     356                                                      ; return occurs ; |142| 
     357                      .dwattr $C$DW$21, DW_AT_TI_end_file("../FreeRTOS/Source/portable/MemMang/heap_1.c")
     358                      .dwattr $C$DW$21, DW_AT_TI_end_line(0x8f)
     359                      .dwattr $C$DW$21, DW_AT_TI_end_column(0x01)
     360                      .dwendentry
     361                      .dwendtag $C$DW$21
     362              
     363              ;******************************************************************************
     364              ;* UNDEFINED EXTERNAL REFERENCES                                              *
     365              ;******************************************************************************
     366                      .global _vTaskSuspendAll
     367                      .global _xTaskResumeAll
     368                      .global _vApplicationMallocFailedHook
     369              
     370              ;*******************************************************************************
     371              ;* TYPE INFORMATION                                                            *
     372              ;*******************************************************************************
     373              $C$DW$T$3       .dwtag  DW_TAG_pointer_type
     374                      .dwattr $C$DW$T$3, DW_AT_address_class(0x17)
     375              $C$DW$T$4       .dwtag  DW_TAG_base_type
     376                      .dwattr $C$DW$T$4, DW_AT_encoding(DW_ATE_boolean)
     377                      .dwattr $C$DW$T$4, DW_AT_name("bool")
     378                      .dwattr $C$DW$T$4, DW_AT_byte_size(0x01)
     379              $C$DW$T$5       .dwtag  DW_TAG_base_type
     380                      .dwattr $C$DW$T$5, DW_AT_encoding(DW_ATE_signed_char)
     381                      .dwattr $C$DW$T$5, DW_AT_name("signed char")
     382                      .dwattr $C$DW$T$5, DW_AT_byte_size(0x01)
     383              $C$DW$T$6       .dwtag  DW_TAG_base_type
     384                      .dwattr $C$DW$T$6, DW_AT_encoding(DW_ATE_unsigned_char)
     385                      .dwattr $C$DW$T$6, DW_AT_name("unsigned char")
     386                      .dwattr $C$DW$T$6, DW_AT_byte_size(0x01)
     387              $C$DW$T$24      .dwtag  DW_TAG_typedef, DW_AT_name("uint8_t")
     388                      .dwattr $C$DW$T$24, DW_AT_type(*$C$DW$T$6)
     389                      .dwattr $C$DW$T$24, DW_AT_language(DW_LANG_C)
     390              
     391              $C$DW$T$25      .dwtag  DW_TAG_array_type
TMS320C55x Assembler PC v4.4.1 Sat Sep 08 17:55:44 2018

Tools Copyright (c) 1996-2012 Texas Instruments Incorporated
heap_1.asm                                                           PAGE    9

     392                      .dwattr $C$DW$T$25, DW_AT_type(*$C$DW$T$24)
     393                      .dwattr $C$DW$T$25, DW_AT_language(DW_LANG_C)
     394                      .dwattr $C$DW$T$25, DW_AT_byte_size(0x1b58)
     395              $C$DW$23        .dwtag  DW_TAG_subrange_type
     396                      .dwattr $C$DW$23, DW_AT_upper_bound(0x1b57)
     397                      .dwendtag $C$DW$T$25
     398              
     399              $C$DW$T$26      .dwtag  DW_TAG_pointer_type
     400                      .dwattr $C$DW$T$26, DW_AT_type(*$C$DW$T$24)
     401                      .dwattr $C$DW$T$26, DW_AT_address_class(0x17)
     402              $C$DW$T$7       .dwtag  DW_TAG_base_type
     403                      .dwattr $C$DW$T$7, DW_AT_encoding(DW_ATE_signed_char)
     404                      .dwattr $C$DW$T$7, DW_AT_name("wchar_t")
     405                      .dwattr $C$DW$T$7, DW_AT_byte_size(0x01)
     406              $C$DW$T$8       .dwtag  DW_TAG_base_type
     407                      .dwattr $C$DW$T$8, DW_AT_encoding(DW_ATE_signed)
     408                      .dwattr $C$DW$T$8, DW_AT_name("short")
     409                      .dwattr $C$DW$T$8, DW_AT_byte_size(0x01)
     410              $C$DW$T$27      .dwtag  DW_TAG_typedef, DW_AT_name("BaseType_t")
     411                      .dwattr $C$DW$T$27, DW_AT_type(*$C$DW$T$8)
     412                      .dwattr $C$DW$T$27, DW_AT_language(DW_LANG_C)
     413              $C$DW$T$9       .dwtag  DW_TAG_base_type
     414                      .dwattr $C$DW$T$9, DW_AT_encoding(DW_ATE_unsigned)
     415                      .dwattr $C$DW$T$9, DW_AT_name("unsigned short")
     416                      .dwattr $C$DW$T$9, DW_AT_byte_size(0x01)
     417              $C$DW$T$10      .dwtag  DW_TAG_base_type
     418                      .dwattr $C$DW$T$10, DW_AT_encoding(DW_ATE_signed)
     419                      .dwattr $C$DW$T$10, DW_AT_name("int")
     420                      .dwattr $C$DW$T$10, DW_AT_byte_size(0x01)
     421              $C$DW$T$11      .dwtag  DW_TAG_base_type
     422                      .dwattr $C$DW$T$11, DW_AT_encoding(DW_ATE_unsigned)
     423                      .dwattr $C$DW$T$11, DW_AT_name("unsigned int")
     424                      .dwattr $C$DW$T$11, DW_AT_byte_size(0x01)
     425              $C$DW$T$19      .dwtag  DW_TAG_typedef, DW_AT_name("size_t")
     426                      .dwattr $C$DW$T$19, DW_AT_type(*$C$DW$T$11)
     427                      .dwattr $C$DW$T$19, DW_AT_language(DW_LANG_C)
     428              $C$DW$T$12      .dwtag  DW_TAG_base_type
     429                      .dwattr $C$DW$T$12, DW_AT_encoding(DW_ATE_signed)
     430                      .dwattr $C$DW$T$12, DW_AT_name("long")
     431                      .dwattr $C$DW$T$12, DW_AT_byte_size(0x02)
     432              $C$DW$T$13      .dwtag  DW_TAG_base_type
     433                      .dwattr $C$DW$T$13, DW_AT_encoding(DW_ATE_unsigned)
     434                      .dwattr $C$DW$T$13, DW_AT_name("unsigned long")
     435                      .dwattr $C$DW$T$13, DW_AT_byte_size(0x02)
     436              $C$DW$T$31      .dwtag  DW_TAG_typedef, DW_AT_name("uint32_t")
     437                      .dwattr $C$DW$T$31, DW_AT_type(*$C$DW$T$13)
     438                      .dwattr $C$DW$T$31, DW_AT_language(DW_LANG_C)
     439              $C$DW$T$14      .dwtag  DW_TAG_base_type
     440                      .dwattr $C$DW$T$14, DW_AT_encoding(DW_ATE_signed)
     441                      .dwattr $C$DW$T$14, DW_AT_name("long long")
     442                      .dwattr $C$DW$T$14, DW_AT_byte_size(0x04)
     443                      .dwattr $C$DW$T$14, DW_AT_bit_size(0x28)
     444                      .dwattr $C$DW$T$14, DW_AT_bit_offset(0x18)
     445              $C$DW$T$15      .dwtag  DW_TAG_base_type
     446                      .dwattr $C$DW$T$15, DW_AT_encoding(DW_ATE_unsigned)
TMS320C55x Assembler PC v4.4.1 Sat Sep 08 17:55:44 2018

Tools Copyright (c) 1996-2012 Texas Instruments Incorporated
heap_1.asm                                                           PAGE   10

     447                      .dwattr $C$DW$T$15, DW_AT_name("unsigned long long")
     448                      .dwattr $C$DW$T$15, DW_AT_byte_size(0x04)
     449                      .dwattr $C$DW$T$15, DW_AT_bit_size(0x28)
     450                      .dwattr $C$DW$T$15, DW_AT_bit_offset(0x18)
     451              $C$DW$T$16      .dwtag  DW_TAG_base_type
     452                      .dwattr $C$DW$T$16, DW_AT_encoding(DW_ATE_float)
     453                      .dwattr $C$DW$T$16, DW_AT_name("float")
     454                      .dwattr $C$DW$T$16, DW_AT_byte_size(0x02)
     455              $C$DW$T$17      .dwtag  DW_TAG_base_type
     456                      .dwattr $C$DW$T$17, DW_AT_encoding(DW_ATE_float)
     457                      .dwattr $C$DW$T$17, DW_AT_name("double")
     458                      .dwattr $C$DW$T$17, DW_AT_byte_size(0x02)
     459              $C$DW$T$18      .dwtag  DW_TAG_base_type
     460                      .dwattr $C$DW$T$18, DW_AT_encoding(DW_ATE_float)
     461                      .dwattr $C$DW$T$18, DW_AT_name("long double")
     462                      .dwattr $C$DW$T$18, DW_AT_byte_size(0x02)
     463                      .dwattr $C$DW$CU, DW_AT_language(DW_LANG_C)
     464              
     465              ;***************************************************************
     466              ;* DWARF CIE ENTRIES                                           *
     467              ;***************************************************************
     468              
     469              $C$DW$CIE       .dwcie 91
     470                      .dwcfi  cfa_register, 36
     471                      .dwcfi  cfa_offset, 0
     472                      .dwcfi  undefined, 0
     473                      .dwcfi  undefined, 1
     474                      .dwcfi  undefined, 2
     475                      .dwcfi  undefined, 3
     476                      .dwcfi  undefined, 4
     477                      .dwcfi  undefined, 5
     478                      .dwcfi  undefined, 6
     479                      .dwcfi  undefined, 7
     480                      .dwcfi  undefined, 8
     481                      .dwcfi  undefined, 9
     482                      .dwcfi  undefined, 10
     483                      .dwcfi  undefined, 11
     484                      .dwcfi  undefined, 12
     485                      .dwcfi  undefined, 13
     486                      .dwcfi  same_value, 14
     487                      .dwcfi  same_value, 15
     488                      .dwcfi  undefined, 16
     489                      .dwcfi  undefined, 17
     490                      .dwcfi  undefined, 18
     491                      .dwcfi  undefined, 19
     492                      .dwcfi  undefined, 20
     493                      .dwcfi  undefined, 21
     494                      .dwcfi  undefined, 22
     495                      .dwcfi  undefined, 23
     496                      .dwcfi  undefined, 24
     497                      .dwcfi  undefined, 25
     498                      .dwcfi  same_value, 26
     499                      .dwcfi  same_value, 27
     500                      .dwcfi  same_value, 28
     501                      .dwcfi  same_value, 29
TMS320C55x Assembler PC v4.4.1 Sat Sep 08 17:55:44 2018

Tools Copyright (c) 1996-2012 Texas Instruments Incorporated
heap_1.asm                                                           PAGE   11

     502                      .dwcfi  same_value, 30
     503                      .dwcfi  same_value, 31
     504                      .dwcfi  undefined, 32
     505                      .dwcfi  undefined, 33
     506                      .dwcfi  undefined, 34
     507                      .dwcfi  undefined, 35
     508                      .dwcfi  undefined, 36
     509                      .dwcfi  undefined, 37
     510                      .dwcfi  undefined, 38
     511                      .dwcfi  undefined, 39
     512                      .dwcfi  undefined, 40
     513                      .dwcfi  undefined, 41
     514                      .dwcfi  undefined, 42
     515                      .dwcfi  undefined, 43
     516                      .dwcfi  undefined, 44
     517                      .dwcfi  undefined, 45
     518                      .dwcfi  undefined, 46
     519                      .dwcfi  undefined, 47
     520                      .dwcfi  undefined, 48
     521                      .dwcfi  undefined, 49
     522                      .dwcfi  undefined, 50
     523                      .dwcfi  undefined, 51
     524                      .dwcfi  undefined, 52
     525                      .dwcfi  undefined, 53
     526                      .dwcfi  undefined, 54
     527                      .dwcfi  undefined, 55
     528                      .dwcfi  undefined, 56
     529                      .dwcfi  undefined, 57
     530                      .dwcfi  undefined, 58
     531                      .dwcfi  undefined, 59
     532                      .dwcfi  undefined, 60
     533                      .dwcfi  undefined, 61
     534                      .dwcfi  undefined, 62
     535                      .dwcfi  undefined, 63
     536                      .dwcfi  undefined, 64
     537                      .dwcfi  undefined, 65
     538                      .dwcfi  undefined, 66
     539                      .dwcfi  undefined, 67
     540                      .dwcfi  undefined, 68
     541                      .dwcfi  undefined, 69
     542                      .dwcfi  undefined, 70
     543                      .dwcfi  undefined, 71
     544                      .dwcfi  undefined, 72
     545                      .dwcfi  undefined, 73
     546                      .dwcfi  undefined, 74
     547                      .dwcfi  undefined, 75
     548                      .dwcfi  undefined, 76
     549                      .dwcfi  undefined, 77
     550                      .dwcfi  undefined, 78
     551                      .dwcfi  undefined, 79
     552                      .dwcfi  undefined, 80
     553                      .dwcfi  undefined, 81
     554                      .dwcfi  undefined, 82
     555                      .dwcfi  undefined, 83
     556                      .dwcfi  undefined, 84
TMS320C55x Assembler PC v4.4.1 Sat Sep 08 17:55:44 2018

Tools Copyright (c) 1996-2012 Texas Instruments Incorporated
heap_1.asm                                                           PAGE   12

     557                      .dwcfi  undefined, 85
     558                      .dwcfi  undefined, 86
     559                      .dwcfi  undefined, 87
     560                      .dwcfi  undefined, 88
     561                      .dwcfi  undefined, 89
     562                      .dwcfi  undefined, 90
     563                      .dwcfi  undefined, 91
     564                      .dwendentry
     565              
     566              ;***************************************************************
     567              ;* DWARF REGISTER MAP                                          *
     568              ;***************************************************************
     569              
     570              $C$DW$24        .dwtag  DW_TAG_TI_assign_register, DW_AT_name("AC0")
     571                      .dwattr $C$DW$24, DW_AT_location[DW_OP_reg0]
     572              $C$DW$25        .dwtag  DW_TAG_TI_assign_register, DW_AT_name("AC0")
     573                      .dwattr $C$DW$25, DW_AT_location[DW_OP_reg1]
     574              $C$DW$26        .dwtag  DW_TAG_TI_assign_register, DW_AT_name("AC0_G")
     575                      .dwattr $C$DW$26, DW_AT_location[DW_OP_reg2]
     576              $C$DW$27        .dwtag  DW_TAG_TI_assign_register, DW_AT_name("AC1")
     577                      .dwattr $C$DW$27, DW_AT_location[DW_OP_reg3]
     578              $C$DW$28        .dwtag  DW_TAG_TI_assign_register, DW_AT_name("AC1")
     579                      .dwattr $C$DW$28, DW_AT_location[DW_OP_reg4]
     580              $C$DW$29        .dwtag  DW_TAG_TI_assign_register, DW_AT_name("AC1_G")
     581                      .dwattr $C$DW$29, DW_AT_location[DW_OP_reg5]
     582              $C$DW$30        .dwtag  DW_TAG_TI_assign_register, DW_AT_name("AC2")
     583                      .dwattr $C$DW$30, DW_AT_location[DW_OP_reg6]
     584              $C$DW$31        .dwtag  DW_TAG_TI_assign_register, DW_AT_name("AC2")
     585                      .dwattr $C$DW$31, DW_AT_location[DW_OP_reg7]
     586              $C$DW$32        .dwtag  DW_TAG_TI_assign_register, DW_AT_name("AC2_G")
     587                      .dwattr $C$DW$32, DW_AT_location[DW_OP_reg8]
     588              $C$DW$33        .dwtag  DW_TAG_TI_assign_register, DW_AT_name("AC3")
     589                      .dwattr $C$DW$33, DW_AT_location[DW_OP_reg9]
     590              $C$DW$34        .dwtag  DW_TAG_TI_assign_register, DW_AT_name("AC3")
     591                      .dwattr $C$DW$34, DW_AT_location[DW_OP_reg10]
     592              $C$DW$35        .dwtag  DW_TAG_TI_assign_register, DW_AT_name("AC3_G")
     593                      .dwattr $C$DW$35, DW_AT_location[DW_OP_reg11]
     594              $C$DW$36        .dwtag  DW_TAG_TI_assign_register, DW_AT_name("T0")
     595                      .dwattr $C$DW$36, DW_AT_location[DW_OP_reg12]
     596              $C$DW$37        .dwtag  DW_TAG_TI_assign_register, DW_AT_name("T1")
     597                      .dwattr $C$DW$37, DW_AT_location[DW_OP_reg13]
     598              $C$DW$38        .dwtag  DW_TAG_TI_assign_register, DW_AT_name("T2")
     599                      .dwattr $C$DW$38, DW_AT_location[DW_OP_reg14]
     600              $C$DW$39        .dwtag  DW_TAG_TI_assign_register, DW_AT_name("T3")
     601                      .dwattr $C$DW$39, DW_AT_location[DW_OP_reg15]
     602              $C$DW$40        .dwtag  DW_TAG_TI_assign_register, DW_AT_name("AR0")
     603                      .dwattr $C$DW$40, DW_AT_location[DW_OP_reg16]
     604              $C$DW$41        .dwtag  DW_TAG_TI_assign_register, DW_AT_name("XAR0")
     605                      .dwattr $C$DW$41, DW_AT_location[DW_OP_reg17]
     606              $C$DW$42        .dwtag  DW_TAG_TI_assign_register, DW_AT_name("AR1")
     607                      .dwattr $C$DW$42, DW_AT_location[DW_OP_reg18]
     608              $C$DW$43        .dwtag  DW_TAG_TI_assign_register, DW_AT_name("XAR1")
     609                      .dwattr $C$DW$43, DW_AT_location[DW_OP_reg19]
     610              $C$DW$44        .dwtag  DW_TAG_TI_assign_register, DW_AT_name("AR2")
     611                      .dwattr $C$DW$44, DW_AT_location[DW_OP_reg20]
TMS320C55x Assembler PC v4.4.1 Sat Sep 08 17:55:44 2018

Tools Copyright (c) 1996-2012 Texas Instruments Incorporated
heap_1.asm                                                           PAGE   13

     612              $C$DW$45        .dwtag  DW_TAG_TI_assign_register, DW_AT_name("XAR2")
     613                      .dwattr $C$DW$45, DW_AT_location[DW_OP_reg21]
     614              $C$DW$46        .dwtag  DW_TAG_TI_assign_register, DW_AT_name("AR3")
     615                      .dwattr $C$DW$46, DW_AT_location[DW_OP_reg22]
     616              $C$DW$47        .dwtag  DW_TAG_TI_assign_register, DW_AT_name("XAR3")
     617                      .dwattr $C$DW$47, DW_AT_location[DW_OP_reg23]
     618              $C$DW$48        .dwtag  DW_TAG_TI_assign_register, DW_AT_name("AR4")
     619                      .dwattr $C$DW$48, DW_AT_location[DW_OP_reg24]
     620              $C$DW$49        .dwtag  DW_TAG_TI_assign_register, DW_AT_name("XAR4")
     621                      .dwattr $C$DW$49, DW_AT_location[DW_OP_reg25]
     622              $C$DW$50        .dwtag  DW_TAG_TI_assign_register, DW_AT_name("AR5")
     623                      .dwattr $C$DW$50, DW_AT_location[DW_OP_reg26]
     624              $C$DW$51        .dwtag  DW_TAG_TI_assign_register, DW_AT_name("XAR5")
     625                      .dwattr $C$DW$51, DW_AT_location[DW_OP_reg27]
     626              $C$DW$52        .dwtag  DW_TAG_TI_assign_register, DW_AT_name("AR6")
     627                      .dwattr $C$DW$52, DW_AT_location[DW_OP_reg28]
     628              $C$DW$53        .dwtag  DW_TAG_TI_assign_register, DW_AT_name("XAR6")
     629                      .dwattr $C$DW$53, DW_AT_location[DW_OP_reg29]
     630              $C$DW$54        .dwtag  DW_TAG_TI_assign_register, DW_AT_name("AR7")
     631                      .dwattr $C$DW$54, DW_AT_location[DW_OP_reg30]
     632              $C$DW$55        .dwtag  DW_TAG_TI_assign_register, DW_AT_name("XAR7")
     633                      .dwattr $C$DW$55, DW_AT_location[DW_OP_reg31]
     634              $C$DW$56        .dwtag  DW_TAG_TI_assign_register, DW_AT_name("FP")
     635                      .dwattr $C$DW$56, DW_AT_location[DW_OP_regx 0x20]
     636              $C$DW$57        .dwtag  DW_TAG_TI_assign_register, DW_AT_name("XFP")
     637                      .dwattr $C$DW$57, DW_AT_location[DW_OP_regx 0x21]
     638              $C$DW$58        .dwtag  DW_TAG_TI_assign_register, DW_AT_name("PC")
     639                      .dwattr $C$DW$58, DW_AT_location[DW_OP_regx 0x22]
     640              $C$DW$59        .dwtag  DW_TAG_TI_assign_register, DW_AT_name("SP")
     641                      .dwattr $C$DW$59, DW_AT_location[DW_OP_regx 0x23]
     642              $C$DW$60        .dwtag  DW_TAG_TI_assign_register, DW_AT_name("XSP")
     643                      .dwattr $C$DW$60, DW_AT_location[DW_OP_regx 0x24]
     644              $C$DW$61        .dwtag  DW_TAG_TI_assign_register, DW_AT_name("BKC")
     645                      .dwattr $C$DW$61, DW_AT_location[DW_OP_regx 0x25]
     646              $C$DW$62        .dwtag  DW_TAG_TI_assign_register, DW_AT_name("BK03")
     647                      .dwattr $C$DW$62, DW_AT_location[DW_OP_regx 0x26]
     648              $C$DW$63        .dwtag  DW_TAG_TI_assign_register, DW_AT_name("BK47")
     649                      .dwattr $C$DW$63, DW_AT_location[DW_OP_regx 0x27]
     650              $C$DW$64        .dwtag  DW_TAG_TI_assign_register, DW_AT_name("ST0")
     651                      .dwattr $C$DW$64, DW_AT_location[DW_OP_regx 0x28]
     652              $C$DW$65        .dwtag  DW_TAG_TI_assign_register, DW_AT_name("ST1")
     653                      .dwattr $C$DW$65, DW_AT_location[DW_OP_regx 0x29]
     654              $C$DW$66        .dwtag  DW_TAG_TI_assign_register, DW_AT_name("ST2")
     655                      .dwattr $C$DW$66, DW_AT_location[DW_OP_regx 0x2a]
     656              $C$DW$67        .dwtag  DW_TAG_TI_assign_register, DW_AT_name("ST3")
     657                      .dwattr $C$DW$67, DW_AT_location[DW_OP_regx 0x2b]
     658              $C$DW$68        .dwtag  DW_TAG_TI_assign_register, DW_AT_name("MDP")
     659                      .dwattr $C$DW$68, DW_AT_location[DW_OP_regx 0x2c]
     660              $C$DW$69        .dwtag  DW_TAG_TI_assign_register, DW_AT_name("MDP05")
     661                      .dwattr $C$DW$69, DW_AT_location[DW_OP_regx 0x2d]
     662              $C$DW$70        .dwtag  DW_TAG_TI_assign_register, DW_AT_name("MDP67")
     663                      .dwattr $C$DW$70, DW_AT_location[DW_OP_regx 0x2e]
     664              $C$DW$71        .dwtag  DW_TAG_TI_assign_register, DW_AT_name("BRC0")
     665                      .dwattr $C$DW$71, DW_AT_location[DW_OP_regx 0x2f]
     666              $C$DW$72        .dwtag  DW_TAG_TI_assign_register, DW_AT_name("RSA0")
TMS320C55x Assembler PC v4.4.1 Sat Sep 08 17:55:44 2018

Tools Copyright (c) 1996-2012 Texas Instruments Incorporated
heap_1.asm                                                           PAGE   14

     667                      .dwattr $C$DW$72, DW_AT_location[DW_OP_regx 0x30]
     668              $C$DW$73        .dwtag  DW_TAG_TI_assign_register, DW_AT_name("RSA0_H")
     669                      .dwattr $C$DW$73, DW_AT_location[DW_OP_regx 0x31]
     670              $C$DW$74        .dwtag  DW_TAG_TI_assign_register, DW_AT_name("REA0")
     671                      .dwattr $C$DW$74, DW_AT_location[DW_OP_regx 0x32]
     672              $C$DW$75        .dwtag  DW_TAG_TI_assign_register, DW_AT_name("REA0_H")
     673                      .dwattr $C$DW$75, DW_AT_location[DW_OP_regx 0x33]
     674              $C$DW$76        .dwtag  DW_TAG_TI_assign_register, DW_AT_name("BRS1")
     675                      .dwattr $C$DW$76, DW_AT_location[DW_OP_regx 0x34]
     676              $C$DW$77        .dwtag  DW_TAG_TI_assign_register, DW_AT_name("BRC1")
     677                      .dwattr $C$DW$77, DW_AT_location[DW_OP_regx 0x35]
     678              $C$DW$78        .dwtag  DW_TAG_TI_assign_register, DW_AT_name("RSA1")
     679                      .dwattr $C$DW$78, DW_AT_location[DW_OP_regx 0x36]
     680              $C$DW$79        .dwtag  DW_TAG_TI_assign_register, DW_AT_name("RSA1_H")
     681                      .dwattr $C$DW$79, DW_AT_location[DW_OP_regx 0x37]
     682              $C$DW$80        .dwtag  DW_TAG_TI_assign_register, DW_AT_name("REA1")
     683                      .dwattr $C$DW$80, DW_AT_location[DW_OP_regx 0x38]
     684              $C$DW$81        .dwtag  DW_TAG_TI_assign_register, DW_AT_name("REA1_H")
     685                      .dwattr $C$DW$81, DW_AT_location[DW_OP_regx 0x39]
     686              $C$DW$82        .dwtag  DW_TAG_TI_assign_register, DW_AT_name("CSR")
     687                      .dwattr $C$DW$82, DW_AT_location[DW_OP_regx 0x3a]
     688              $C$DW$83        .dwtag  DW_TAG_TI_assign_register, DW_AT_name("RPTC")
     689                      .dwattr $C$DW$83, DW_AT_location[DW_OP_regx 0x3b]
     690              $C$DW$84        .dwtag  DW_TAG_TI_assign_register, DW_AT_name("CDP")
     691                      .dwattr $C$DW$84, DW_AT_location[DW_OP_regx 0x3c]
     692              $C$DW$85        .dwtag  DW_TAG_TI_assign_register, DW_AT_name("XCDP")
     693                      .dwattr $C$DW$85, DW_AT_location[DW_OP_regx 0x3d]
     694              $C$DW$86        .dwtag  DW_TAG_TI_assign_register, DW_AT_name("TRN0")
     695                      .dwattr $C$DW$86, DW_AT_location[DW_OP_regx 0x3e]
     696              $C$DW$87        .dwtag  DW_TAG_TI_assign_register, DW_AT_name("TRN1")
     697                      .dwattr $C$DW$87, DW_AT_location[DW_OP_regx 0x3f]
     698              $C$DW$88        .dwtag  DW_TAG_TI_assign_register, DW_AT_name("BSA01")
     699                      .dwattr $C$DW$88, DW_AT_location[DW_OP_regx 0x40]
     700              $C$DW$89        .dwtag  DW_TAG_TI_assign_register, DW_AT_name("BSA23")
     701                      .dwattr $C$DW$89, DW_AT_location[DW_OP_regx 0x41]
     702              $C$DW$90        .dwtag  DW_TAG_TI_assign_register, DW_AT_name("BSA45")
     703                      .dwattr $C$DW$90, DW_AT_location[DW_OP_regx 0x42]
     704              $C$DW$91        .dwtag  DW_TAG_TI_assign_register, DW_AT_name("BSA67")
     705                      .dwattr $C$DW$91, DW_AT_location[DW_OP_regx 0x43]
     706              $C$DW$92        .dwtag  DW_TAG_TI_assign_register, DW_AT_name("BSAC")
     707                      .dwattr $C$DW$92, DW_AT_location[DW_OP_regx 0x44]
     708              $C$DW$93        .dwtag  DW_TAG_TI_assign_register, DW_AT_name("CARRY")
     709                      .dwattr $C$DW$93, DW_AT_location[DW_OP_regx 0x45]
     710              $C$DW$94        .dwtag  DW_TAG_TI_assign_register, DW_AT_name("TC1")
     711                      .dwattr $C$DW$94, DW_AT_location[DW_OP_regx 0x46]
     712              $C$DW$95        .dwtag  DW_TAG_TI_assign_register, DW_AT_name("TC2")
     713                      .dwattr $C$DW$95, DW_AT_location[DW_OP_regx 0x47]
     714              $C$DW$96        .dwtag  DW_TAG_TI_assign_register, DW_AT_name("M40")
     715                      .dwattr $C$DW$96, DW_AT_location[DW_OP_regx 0x48]
     716              $C$DW$97        .dwtag  DW_TAG_TI_assign_register, DW_AT_name("SXMD")
     717                      .dwattr $C$DW$97, DW_AT_location[DW_OP_regx 0x49]
     718              $C$DW$98        .dwtag  DW_TAG_TI_assign_register, DW_AT_name("ARMS")
     719                      .dwattr $C$DW$98, DW_AT_location[DW_OP_regx 0x4a]
     720              $C$DW$99        .dwtag  DW_TAG_TI_assign_register, DW_AT_name("C54CM")
     721                      .dwattr $C$DW$99, DW_AT_location[DW_OP_regx 0x4b]
TMS320C55x Assembler PC v4.4.1 Sat Sep 08 17:55:44 2018

Tools Copyright (c) 1996-2012 Texas Instruments Incorporated
heap_1.asm                                                           PAGE   15

     722              $C$DW$100       .dwtag  DW_TAG_TI_assign_register, DW_AT_name("SATA")
     723                      .dwattr $C$DW$100, DW_AT_location[DW_OP_regx 0x4c]
     724              $C$DW$101       .dwtag  DW_TAG_TI_assign_register, DW_AT_name("SATD")
     725                      .dwattr $C$DW$101, DW_AT_location[DW_OP_regx 0x4d]
     726              $C$DW$102       .dwtag  DW_TAG_TI_assign_register, DW_AT_name("RDM")
     727                      .dwattr $C$DW$102, DW_AT_location[DW_OP_regx 0x4e]
     728              $C$DW$103       .dwtag  DW_TAG_TI_assign_register, DW_AT_name("FRCT")
     729                      .dwattr $C$DW$103, DW_AT_location[DW_OP_regx 0x4f]
     730              $C$DW$104       .dwtag  DW_TAG_TI_assign_register, DW_AT_name("SMUL")
     731                      .dwattr $C$DW$104, DW_AT_location[DW_OP_regx 0x50]
     732              $C$DW$105       .dwtag  DW_TAG_TI_assign_register, DW_AT_name("INTM")
     733                      .dwattr $C$DW$105, DW_AT_location[DW_OP_regx 0x51]
     734              $C$DW$106       .dwtag  DW_TAG_TI_assign_register, DW_AT_name("AR0LC")
     735                      .dwattr $C$DW$106, DW_AT_location[DW_OP_regx 0x52]
     736              $C$DW$107       .dwtag  DW_TAG_TI_assign_register, DW_AT_name("AR1LC")
     737                      .dwattr $C$DW$107, DW_AT_location[DW_OP_regx 0x53]
     738              $C$DW$108       .dwtag  DW_TAG_TI_assign_register, DW_AT_name("AR2LC")
     739                      .dwattr $C$DW$108, DW_AT_location[DW_OP_regx 0x54]
     740              $C$DW$109       .dwtag  DW_TAG_TI_assign_register, DW_AT_name("AR3LC")
     741                      .dwattr $C$DW$109, DW_AT_location[DW_OP_regx 0x55]
     742              $C$DW$110       .dwtag  DW_TAG_TI_assign_register, DW_AT_name("AR4LC")
     743                      .dwattr $C$DW$110, DW_AT_location[DW_OP_regx 0x56]
     744              $C$DW$111       .dwtag  DW_TAG_TI_assign_register, DW_AT_name("AR5LC")
     745                      .dwattr $C$DW$111, DW_AT_location[DW_OP_regx 0x57]
     746              $C$DW$112       .dwtag  DW_TAG_TI_assign_register, DW_AT_name("AR6LC")
     747                      .dwattr $C$DW$112, DW_AT_location[DW_OP_regx 0x58]
     748              $C$DW$113       .dwtag  DW_TAG_TI_assign_register, DW_AT_name("AR7LC")
     749                      .dwattr $C$DW$113, DW_AT_location[DW_OP_regx 0x59]
     750              $C$DW$114       .dwtag  DW_TAG_TI_assign_register, DW_AT_name("CDPLC")
     751                      .dwattr $C$DW$114, DW_AT_location[DW_OP_regx 0x5a]
     752              $C$DW$115       .dwtag  DW_TAG_TI_assign_register, DW_AT_name("CIE_RETA")
     753                      .dwattr $C$DW$115, DW_AT_location[DW_OP_regx 0x5b]
     754                      .dwendtag $C$DW$CU
     755              
     755              
     755              

No Assembly Errors, No Assembly Warnings
