TMS320C55x Assembler PC v4.4.1 Sat Sep 15 04:08:18 2018

Tools Copyright (c) 1996-2012 Texas Instruments Incorporated
event_groups.asm                                                     PAGE    1

    2710              ; Temporary Registers Used: None
       1              ;*******************************************************************************
       2              ;* TMS320C55x C/C++ Codegen                                          PC v4.4.1 *
       3              ;* Date/Time created: Sat Sep 15 04:08:17 2018                                 *
       4              ;*******************************************************************************
       5                      .compiler_opts --hll_source=on --mem_model:code=flat --mem_model:data=large --object_format=coff --si
       6                      .mmregs
       7                      .cpl_on
       8                      .arms_on
       9                      .c54cm_off
      10                      .asg AR6, FP
      11                      .asg XAR6, XFP
      12                      .asg DPH, MDP
      13                      .model call=c55_std
      14                      .model mem=large
      15                      .noremark 5002  ; code respects overwrite rules
      16              ;*******************************************************************************
      17              ;* GLOBAL FILE PARAMETERS                                                      *
      18              ;*                                                                             *
      19              ;*   Architecture       : TMS320C55x                                           *
      20              ;*   Optimizing for     : Speed                                                *
      21              ;*   Memory             : Large Model (23-Bit Data Pointers)                   *
      22              ;*   Calls              : Normal Library ASM calls                             *
      23              ;*   Debug Info         : Standard TI Debug Information                        *
      24              ;*******************************************************************************
      25              
      26              $C$DW$CU        .dwtag  DW_TAG_compile_unit
      27                      .dwattr $C$DW$CU, DW_AT_name("../FreeRTOS/Source/event_groups.c")
      28                      .dwattr $C$DW$CU, DW_AT_producer("TMS320C55x C/C++ Codegen PC v4.4.1 Copyright (c) 1996-2012 Texas In
      29                      .dwattr $C$DW$CU, DW_AT_TI_version(0x01)
      30                      .dwattr $C$DW$CU, DW_AT_comp_dir("F:\eZdsp_DBG\eZDSP_5535_Files\ccsws2\test\Debug")
      31              
      32              $C$DW$1 .dwtag  DW_TAG_subprogram, DW_AT_name("vPortYield")
      33                      .dwattr $C$DW$1, DW_AT_TI_symbol_name("_vPortYield")
      34                      .dwattr $C$DW$1, DW_AT_declaration
      35                      .dwattr $C$DW$1, DW_AT_external
      36              
      37              $C$DW$2 .dwtag  DW_TAG_subprogram, DW_AT_name("pvPortMalloc")
      38                      .dwattr $C$DW$2, DW_AT_TI_symbol_name("_pvPortMalloc")
      39                      .dwattr $C$DW$2, DW_AT_type(*$C$DW$T$3)
      40                      .dwattr $C$DW$2, DW_AT_declaration
      41                      .dwattr $C$DW$2, DW_AT_external
      42              $C$DW$3 .dwtag  DW_TAG_formal_parameter
      43                      .dwattr $C$DW$3, DW_AT_type(*$C$DW$T$41)
      44                      .dwendtag $C$DW$2
      45              
      46              
      47              $C$DW$4 .dwtag  DW_TAG_subprogram, DW_AT_name("vPortFree")
      48                      .dwattr $C$DW$4, DW_AT_TI_symbol_name("_vPortFree")
      49                      .dwattr $C$DW$4, DW_AT_declaration
      50                      .dwattr $C$DW$4, DW_AT_external
      51              $C$DW$5 .dwtag  DW_TAG_formal_parameter
      52                      .dwattr $C$DW$5, DW_AT_type(*$C$DW$T$3)
      53                      .dwendtag $C$DW$4
      54              
TMS320C55x Assembler PC v4.4.1 Sat Sep 15 04:08:18 2018

Tools Copyright (c) 1996-2012 Texas Instruments Incorporated
event_groups.asm                                                     PAGE    2

      55              
      56              $C$DW$6 .dwtag  DW_TAG_subprogram, DW_AT_name("vListInitialise")
      57                      .dwattr $C$DW$6, DW_AT_TI_symbol_name("_vListInitialise")
      58                      .dwattr $C$DW$6, DW_AT_declaration
      59                      .dwattr $C$DW$6, DW_AT_external
      60              $C$DW$7 .dwtag  DW_TAG_formal_parameter
      61                      .dwattr $C$DW$7, DW_AT_type(*$C$DW$T$49)
      62                      .dwendtag $C$DW$6
      63              
      64              
      65              $C$DW$8 .dwtag  DW_TAG_subprogram, DW_AT_name("vTaskSuspendAll")
      66                      .dwattr $C$DW$8, DW_AT_TI_symbol_name("_vTaskSuspendAll")
      67                      .dwattr $C$DW$8, DW_AT_declaration
      68                      .dwattr $C$DW$8, DW_AT_external
      69              
      70              $C$DW$9 .dwtag  DW_TAG_subprogram, DW_AT_name("xTaskResumeAll")
      71                      .dwattr $C$DW$9, DW_AT_TI_symbol_name("_xTaskResumeAll")
      72                      .dwattr $C$DW$9, DW_AT_type(*$C$DW$T$61)
      73                      .dwattr $C$DW$9, DW_AT_declaration
      74                      .dwattr $C$DW$9, DW_AT_external
      75              
      76              $C$DW$10        .dwtag  DW_TAG_subprogram, DW_AT_name("vTaskPlaceOnUnorderedEventList")
      77                      .dwattr $C$DW$10, DW_AT_TI_symbol_name("_vTaskPlaceOnUnorderedEventList")
      78                      .dwattr $C$DW$10, DW_AT_declaration
      79                      .dwattr $C$DW$10, DW_AT_external
      80              $C$DW$11        .dwtag  DW_TAG_formal_parameter
      81                      .dwattr $C$DW$11, DW_AT_type(*$C$DW$T$48)
      82              $C$DW$12        .dwtag  DW_TAG_formal_parameter
      83                      .dwattr $C$DW$12, DW_AT_type(*$C$DW$T$52)
      84              $C$DW$13        .dwtag  DW_TAG_formal_parameter
      85                      .dwattr $C$DW$13, DW_AT_type(*$C$DW$T$52)
      86                      .dwendtag $C$DW$10
      87              
      88              
      89              $C$DW$14        .dwtag  DW_TAG_subprogram, DW_AT_name("vTaskRemoveFromUnorderedEventList")
      90                      .dwattr $C$DW$14, DW_AT_TI_symbol_name("_vTaskRemoveFromUnorderedEventList")
      91                      .dwattr $C$DW$14, DW_AT_declaration
      92                      .dwattr $C$DW$14, DW_AT_external
      93              $C$DW$15        .dwtag  DW_TAG_formal_parameter
      94                      .dwattr $C$DW$15, DW_AT_type(*$C$DW$T$26)
      95              $C$DW$16        .dwtag  DW_TAG_formal_parameter
      96                      .dwattr $C$DW$16, DW_AT_type(*$C$DW$T$52)
      97                      .dwendtag $C$DW$14
      98              
      99              
     100              $C$DW$17        .dwtag  DW_TAG_subprogram, DW_AT_name("uxTaskResetEventItemValue")
     101                      .dwattr $C$DW$17, DW_AT_TI_symbol_name("_uxTaskResetEventItemValue")
     102                      .dwattr $C$DW$17, DW_AT_type(*$C$DW$T$19)
     103                      .dwattr $C$DW$17, DW_AT_declaration
     104                      .dwattr $C$DW$17, DW_AT_external
     105              
     106              $C$DW$18        .dwtag  DW_TAG_subprogram, DW_AT_name("xTaskGetSchedulerState")
     107                      .dwattr $C$DW$18, DW_AT_TI_symbol_name("_xTaskGetSchedulerState")
     108                      .dwattr $C$DW$18, DW_AT_type(*$C$DW$T$61)
     109                      .dwattr $C$DW$18, DW_AT_declaration
TMS320C55x Assembler PC v4.4.1 Sat Sep 15 04:08:18 2018

Tools Copyright (c) 1996-2012 Texas Instruments Incorporated
event_groups.asm                                                     PAGE    3

     110                      .dwattr $C$DW$18, DW_AT_external
     111              $C$DW$19        .dwtag  DW_TAG_variable, DW_AT_name("usCriticalNesting")
     112                      .dwattr $C$DW$19, DW_AT_TI_symbol_name("_usCriticalNesting")
     113                      .dwattr $C$DW$19, DW_AT_type(*$C$DW$T$69)
     114                      .dwattr $C$DW$19, DW_AT_declaration
     115                      .dwattr $C$DW$19, DW_AT_external
     116              ;       F:\ti\ccs8p1\ccsv8\tools\compiler\alt-install-ti-cgt-c55x_4.4.1\bin\acp55.exe -@f:\\AppData\\Local\\T
     117 000000               .sect   ".text"
     118                      .align 4
     119                      .global _xEventGroupCreate
     120              
     121              $C$DW$20        .dwtag  DW_TAG_subprogram, DW_AT_name("xEventGroupCreate")
     122                      .dwattr $C$DW$20, DW_AT_low_pc(_xEventGroupCreate)
     123                      .dwattr $C$DW$20, DW_AT_high_pc(0x00)
     124                      .dwattr $C$DW$20, DW_AT_TI_symbol_name("_xEventGroupCreate")
     125                      .dwattr $C$DW$20, DW_AT_external
     126                      .dwattr $C$DW$20, DW_AT_type(*$C$DW$T$39)
     127                      .dwattr $C$DW$20, DW_AT_TI_begin_file("../FreeRTOS/Source/event_groups.c")
     128                      .dwattr $C$DW$20, DW_AT_TI_begin_line(0x91)
     129                      .dwattr $C$DW$20, DW_AT_TI_begin_column(0x15)
     130                      .dwattr $C$DW$20, DW_AT_TI_max_frame_size(0x04)
     131                      .dwpsn  file "../FreeRTOS/Source/event_groups.c",line 146,column 2,is_stmt,address _xEventGroupCreate
     132              
     133                      .dwfde $C$DW$CIE, _xEventGroupCreate
     134              ;*******************************************************************************
     135              ;* FUNCTION NAME: xEventGroupCreate                                            *
     136              ;*                                                                             *
     137              ;*   Function Uses Regs : AC0,AC0,T0,AR0,XAR0,AR3,XAR3,SP,M40,SATA,SATD,RDM,   *
     138              ;*                        FRCT,SMUL                                            *
     139              ;*   Stack Frame        : Compact (No Frame Pointer, w/ debug)                 *
     140              ;*   Total Frame Size   : 4 words                                              *
     141              ;*                        (2 return address/alignment)                         *
     142              ;*                        (2 local values)                                     *
     143              ;*   Min System Stack   : 1 word                                               *
     144              ;*******************************************************************************
     145 000000       _xEventGroupCreate:
     146                      .dwcfi  cfa_offset, 1
     147                      .dwcfi  save_reg_to_mem, 91, -1
     148 000000 4EFD          AADD #-3, SP
     149                      .dwcfi  cfa_offset, 4
     150              $C$DW$21        .dwtag  DW_TAG_variable, DW_AT_name("pxEventBits")
     151                      .dwattr $C$DW$21, DW_AT_TI_symbol_name("_pxEventBits")
     152                      .dwattr $C$DW$21, DW_AT_type(*$C$DW$T$37)
     153                      .dwattr $C$DW$21, DW_AT_location[DW_OP_bregx 0x24 0]
     154                      .dwpsn  file "../FreeRTOS/Source/event_groups.c",line 162,column 3,is_stmt
     155              $C$DW$22        .dwtag  DW_TAG_TI_branch
     156                      .dwattr $C$DW$22, DW_AT_low_pc(0x00)
     157                      .dwattr $C$DW$22, DW_AT_name("_pvPortMalloc")
     158                      .dwattr $C$DW$22, DW_AT_TI_call
     159              
     160 000002 6C00          CALL #_pvPortMalloc ; |162| 
         000004 0000!
     161 000006 3DC4  ||      MOV #12, T0
     162              
     163                                                      ; call occurs [#_pvPortMalloc] ; |162| 
TMS320C55x Assembler PC v4.4.1 Sat Sep 15 04:08:18 2018

Tools Copyright (c) 1996-2012 Texas Instruments Incorporated
event_groups.asm                                                     PAGE    4

     164 000008 EB00          MOV XAR0, dbl(*SP(#0))
         00000a 85   
     165                      .dwpsn  file "../FreeRTOS/Source/event_groups.c",line 164,column 3,is_stmt
     166 00000b ED00          MOV dbl(*SP(#0)), XAR3
         00000d BF   
     167 00000e 90B0          MOV XAR3, AC0
     168 000010 6780          BCC $C$L1,AC0 == #0 ; |164| 
     169                                                      ; branchcc occurs ; |164| 
     170                      .dwpsn  file "../FreeRTOS/Source/event_groups.c",line 166,column 4,is_stmt
     171 000012 3C00          MOV #0, AC0 ; |166| 
     172 000014 EB61          MOV AC0, dbl(*AR3) ; |166| 
         000016 08   
     173                      .dwpsn  file "../FreeRTOS/Source/event_groups.c",line 167,column 4,is_stmt
     174 000017 ED00          MOV dbl(*SP(#0)), XAR0
         000019 8F   
     175 00001a 1402          AADD #2, AR0 ; |167| 
         00001c 84   
     176              $C$DW$23        .dwtag  DW_TAG_TI_branch
     177                      .dwattr $C$DW$23, DW_AT_low_pc(0x00)
     178                      .dwattr $C$DW$23, DW_AT_name("_vListInitialise")
     179                      .dwattr $C$DW$23, DW_AT_TI_call
     180 00001d 6C00          CALL #_vListInitialise ; |167| 
         00001f 0000!
     181                                                      ; call occurs [#_vListInitialise] ; |167| 
     182                      .dwpsn  file "../FreeRTOS/Source/event_groups.c",line 179,column 3,is_stmt
     183 000021       $C$L1:    
     184                      .dwpsn  file "../FreeRTOS/Source/event_groups.c",line 185,column 3,is_stmt
     185 000021 ED00          MOV dbl(*SP(#0)), XAR0
         000023 8F   
     186                      .dwpsn  file "../FreeRTOS/Source/event_groups.c",line 186,column 2,is_stmt
     187 000024 4E03          AADD #3, SP
     188                      .dwcfi  cfa_offset, 1
     189              $C$DW$24        .dwtag  DW_TAG_TI_branch
     190                      .dwattr $C$DW$24, DW_AT_low_pc(0x00)
     191                      .dwattr $C$DW$24, DW_AT_TI_return
     192 000026 4804          RET
     193                                                      ; return occurs
     194                      .dwattr $C$DW$20, DW_AT_TI_end_file("../FreeRTOS/Source/event_groups.c")
     195                      .dwattr $C$DW$20, DW_AT_TI_end_line(0xba)
     196                      .dwattr $C$DW$20, DW_AT_TI_end_column(0x02)
     197                      .dwendentry
     198                      .dwendtag $C$DW$20
     199              
     200 000028               .sect   ".text"
     201                      .align 4
     202                      .global _xEventGroupSync
     203              
     204              $C$DW$25        .dwtag  DW_TAG_subprogram, DW_AT_name("xEventGroupSync")
     205                      .dwattr $C$DW$25, DW_AT_low_pc(_xEventGroupSync)
     206                      .dwattr $C$DW$25, DW_AT_high_pc(0x00)
     207                      .dwattr $C$DW$25, DW_AT_TI_symbol_name("_xEventGroupSync")
     208                      .dwattr $C$DW$25, DW_AT_external
     209                      .dwattr $C$DW$25, DW_AT_type(*$C$DW$T$20)
     210                      .dwattr $C$DW$25, DW_AT_TI_begin_file("../FreeRTOS/Source/event_groups.c")
     211                      .dwattr $C$DW$25, DW_AT_TI_begin_line(0xbf)
TMS320C55x Assembler PC v4.4.1 Sat Sep 15 04:08:18 2018

Tools Copyright (c) 1996-2012 Texas Instruments Incorporated
event_groups.asm                                                     PAGE    5

     212                      .dwattr $C$DW$25, DW_AT_TI_begin_column(0x0d)
     213                      .dwattr $C$DW$25, DW_AT_TI_max_frame_size(0x14)
     214                      .dwpsn  file "../FreeRTOS/Source/event_groups.c",line 192,column 1,is_stmt,address _xEventGroupSync
     215              
     216                      .dwfde $C$DW$CIE, _xEventGroupSync
     217              $C$DW$26        .dwtag  DW_TAG_formal_parameter, DW_AT_name("xEventGroup")
     218                      .dwattr $C$DW$26, DW_AT_TI_symbol_name("_xEventGroup")
     219                      .dwattr $C$DW$26, DW_AT_type(*$C$DW$T$39)
     220                      .dwattr $C$DW$26, DW_AT_location[DW_OP_reg17]
     221              $C$DW$27        .dwtag  DW_TAG_formal_parameter, DW_AT_name("uxBitsToSet")
     222                      .dwattr $C$DW$27, DW_AT_TI_symbol_name("_uxBitsToSet")
     223                      .dwattr $C$DW$27, DW_AT_type(*$C$DW$T$65)
     224                      .dwattr $C$DW$27, DW_AT_location[DW_OP_reg0]
     225              $C$DW$28        .dwtag  DW_TAG_formal_parameter, DW_AT_name("uxBitsToWaitFor")
     226                      .dwattr $C$DW$28, DW_AT_TI_symbol_name("_uxBitsToWaitFor")
     227                      .dwattr $C$DW$28, DW_AT_type(*$C$DW$T$65)
     228                      .dwattr $C$DW$28, DW_AT_location[DW_OP_reg3]
     229              $C$DW$29        .dwtag  DW_TAG_formal_parameter, DW_AT_name("xTicksToWait")
     230                      .dwattr $C$DW$29, DW_AT_TI_symbol_name("_xTicksToWait")
     231                      .dwattr $C$DW$29, DW_AT_type(*$C$DW$T$19)
     232                      .dwattr $C$DW$29, DW_AT_location[DW_OP_reg6]
     233              ;*******************************************************************************
     234              ;* FUNCTION NAME: xEventGroupSync                                              *
     235              ;*                                                                             *
     236              ;*   Function Uses Regs : AC0,AC0,AC1,AC1,AC2,AC2,T0,T2,T3,AR0,XAR0,AR1,AR3,   *
     237              ;*                        XAR3,SP,CARRY,TC1,M40,SATA,SATD,RDM,FRCT,SMUL        *
     238              ;*   Save On Entry Regs : T2,T3                                                *
     239              ;*   Stack Frame        : Compact (No Frame Pointer, w/ debug)                 *
     240              ;*   Total Frame Size   : 20 words                                             *
     241              ;*                        (2 return address/alignment)                         *
     242              ;*                        (16 local values)                                    *
     243              ;*                        (2 register save area)                               *
     244              ;*   Min System Stack   : 1 word                                               *
     245              ;*******************************************************************************
     246 000028       _xEventGroupSync:
     247                      .dwcfi  cfa_offset, 1
     248                      .dwcfi  save_reg_to_mem, 91, -1
     249 000028 5066          PSH T2
     250                      .dwcfi  cfa_offset, 2
     251                      .dwcfi  save_reg_to_mem, 14, -2
     252 00002a 5076          PSH T3
     253                      .dwcfi  cfa_offset, 3
     254                      .dwcfi  save_reg_to_mem, 15, -3
     255 00002c 4EEF          AADD #-17, SP
     256                      .dwcfi  cfa_offset, 20
     257              $C$DW$30        .dwtag  DW_TAG_variable, DW_AT_name("xEventGroup")
     258                      .dwattr $C$DW$30, DW_AT_TI_symbol_name("_xEventGroup")
     259                      .dwattr $C$DW$30, DW_AT_type(*$C$DW$T$39)
     260                      .dwattr $C$DW$30, DW_AT_location[DW_OP_bregx 0x24 0]
     261              $C$DW$31        .dwtag  DW_TAG_variable, DW_AT_name("uxBitsToSet")
     262                      .dwattr $C$DW$31, DW_AT_TI_symbol_name("_uxBitsToSet")
     263                      .dwattr $C$DW$31, DW_AT_type(*$C$DW$T$65)
     264                      .dwattr $C$DW$31, DW_AT_location[DW_OP_bregx 0x24 2]
     265              $C$DW$32        .dwtag  DW_TAG_variable, DW_AT_name("uxBitsToWaitFor")
     266                      .dwattr $C$DW$32, DW_AT_TI_symbol_name("_uxBitsToWaitFor")
TMS320C55x Assembler PC v4.4.1 Sat Sep 15 04:08:18 2018

Tools Copyright (c) 1996-2012 Texas Instruments Incorporated
event_groups.asm                                                     PAGE    6

     267                      .dwattr $C$DW$32, DW_AT_type(*$C$DW$T$65)
     268                      .dwattr $C$DW$32, DW_AT_location[DW_OP_bregx 0x24 4]
     269              $C$DW$33        .dwtag  DW_TAG_variable, DW_AT_name("xTicksToWait")
     270                      .dwattr $C$DW$33, DW_AT_TI_symbol_name("_xTicksToWait")
     271                      .dwattr $C$DW$33, DW_AT_type(*$C$DW$T$19)
     272                      .dwattr $C$DW$33, DW_AT_location[DW_OP_bregx 0x24 6]
     273              $C$DW$34        .dwtag  DW_TAG_variable, DW_AT_name("uxOriginalBitValue")
     274                      .dwattr $C$DW$34, DW_AT_TI_symbol_name("_uxOriginalBitValue")
     275                      .dwattr $C$DW$34, DW_AT_type(*$C$DW$T$20)
     276                      .dwattr $C$DW$34, DW_AT_location[DW_OP_bregx 0x24 8]
     277              $C$DW$35        .dwtag  DW_TAG_variable, DW_AT_name("uxReturn")
     278                      .dwattr $C$DW$35, DW_AT_TI_symbol_name("_uxReturn")
     279                      .dwattr $C$DW$35, DW_AT_type(*$C$DW$T$20)
     280                      .dwattr $C$DW$35, DW_AT_location[DW_OP_bregx 0x24 10]
     281              $C$DW$36        .dwtag  DW_TAG_variable, DW_AT_name("pxEventBits")
     282                      .dwattr $C$DW$36, DW_AT_TI_symbol_name("_pxEventBits")
     283                      .dwattr $C$DW$36, DW_AT_type(*$C$DW$T$37)
     284                      .dwattr $C$DW$36, DW_AT_location[DW_OP_bregx 0x24 12]
     285              $C$DW$37        .dwtag  DW_TAG_variable, DW_AT_name("xAlreadyYielded")
     286                      .dwattr $C$DW$37, DW_AT_TI_symbol_name("_xAlreadyYielded")
     287                      .dwattr $C$DW$37, DW_AT_type(*$C$DW$T$61)
     288                      .dwattr $C$DW$37, DW_AT_location[DW_OP_bregx 0x24 14]
     289              $C$DW$38        .dwtag  DW_TAG_variable, DW_AT_name("xTimeoutOccurred")
     290                      .dwattr $C$DW$38, DW_AT_TI_symbol_name("_xTimeoutOccurred")
     291                      .dwattr $C$DW$38, DW_AT_type(*$C$DW$T$61)
     292                      .dwattr $C$DW$38, DW_AT_location[DW_OP_bregx 0x24 15]
     293 00002e EB0C          MOV AC2, dbl(*SP(#6)) ; |192| 
         000030 28   
     294 000031 EB08          MOV AC1, dbl(*SP(#4)) ; |192| 
         000033 18   
     295 000034 EB04          MOV AC0, dbl(*SP(#2)) ; |192| 
         000036 08   
     296 000037 EB00          MOV XAR0, dbl(*SP(#0))
         000039 85   
     297                      .dwpsn  file "../FreeRTOS/Source/event_groups.c",line 194,column 15,is_stmt
     298 00003a ED00          MOV dbl(*SP(#0)), XAR3
         00003c BF   
     299 00003d EB18          MOV XAR3, dbl(*SP(#12))
         00003f B5   
     300                      .dwpsn  file "../FreeRTOS/Source/event_groups.c",line 196,column 12,is_stmt
     301 000040 E61E          MOV #0, *SP(#15) ; |196| 
         000042 00   
     302                      .dwpsn  file "../FreeRTOS/Source/event_groups.c",line 198,column 2,is_stmt
     303 000043 7AFF          MOV #-256 << #16, AC0 ; |198| 
         000045 000A 
     304 000047 ED08          MOV dbl(*SP(#4)), AC1 ; |198| 
         000049 18   
     305 00004a 2810          AND AC1, AC0 ; |198| 
     306              
     307 00004c 6110          BCC $C$L2,AC0 != #0 ; |198| 
     308 00004e 3D09  ||      MOV #0, AR1
     309              
     310                                                      ; branchcc occurs ; |198| 
     311 000050 3C19          MOV #1, AR1
     312 000052       $C$L2:    
TMS320C55x Assembler PC v4.4.1 Sat Sep 15 04:08:18 2018

Tools Copyright (c) 1996-2012 Texas Instruments Incorporated
event_groups.asm                                                     PAGE    7

     313 000052 6299          BCC $C$L4,AR1 != #0 ; |198| 
     314                                                      ; branchcc occurs ; |198| 
     315 000054 20     nop
     316 000055 46B3   bset INTM
     317 000057       $C$L3:    
     318 000057       $C$DW$L$_xEventGroupSync$5$B:
     319 000057 4A7E          B $C$L3   ; |198| 
     320                                                      ; branch occurs ; |198| 
     321 000059       $C$DW$L$_xEventGroupSync$5$E:
     322 000059       $C$L4:    
     323                      .dwpsn  file "../FreeRTOS/Source/event_groups.c",line 199,column 2,is_stmt
     324 000059 ED08          MOV dbl(*SP(#4)), AC0 ; |199| 
         00005b 08   
     325 00005c 3C09          MOV #0, AR1
     326 00005e 6100          BCC $C$L5,AC0 == #0 ; |199| 
     327                                                      ; branchcc occurs ; |199| 
     328 000060 3C19          MOV #1, AR1
     329 000062       $C$L5:    
     330 000062 6299          BCC $C$L7,AR1 != #0 ; |199| 
     331                                                      ; branchcc occurs ; |199| 
     332 000064 20     nop
     333 000065 46B3   bset INTM
     334 000067       $C$L6:    
     335 000067       $C$DW$L$_xEventGroupSync$10$B:
     336 000067 4A7E          B $C$L6   ; |199| 
     337                                                      ; branch occurs ; |199| 
     338 000069       $C$DW$L$_xEventGroupSync$10$E:
     339 000069       $C$L7:    
     340                      .dwpsn  file "../FreeRTOS/Source/event_groups.c",line 202,column 3,is_stmt
     341              $C$DW$39        .dwtag  DW_TAG_TI_branch
     342                      .dwattr $C$DW$39, DW_AT_low_pc(0x00)
     343                      .dwattr $C$DW$39, DW_AT_name("_xTaskGetSchedulerState")
     344                      .dwattr $C$DW$39, DW_AT_TI_call
     345 000069 6C00          CALL #_xTaskGetSchedulerState ; |202| 
         00006b 0000!
     346                                                      ; call occurs [#_xTaskGetSchedulerState] ; |202| 
     347 00006d 3C07          MOV #0, T3
     348              
     349 00006f 6394          BCC $C$L8,T0 != #0 ; |202| 
     350 000071 3D06  ||      MOV #0, T2
     351              
     352                                                      ; branchcc occurs ; |202| 
     353 000073 ED0C          MOV dbl(*SP(#6)), AC0 ; |202| 
         000075 08   
     354 000076 6100          BCC $C$L8,AC0 == #0 ; |202| 
     355                                                      ; branchcc occurs ; |202| 
     356 000078 3C17          MOV #1, T3
     357 00007a       $C$L8:    
     358 00007a 6117          BCC $C$L9,T3 != #0 ; |202| 
     359                                                      ; branchcc occurs ; |202| 
     360 00007c 3C16          MOV #1, T2
     361 00007e       $C$L9:    
     362 00007e 6296          BCC $C$L11,T2 != #0 ; |202| 
     363                                                      ; branchcc occurs ; |202| 
     364 000080 20     nop
TMS320C55x Assembler PC v4.4.1 Sat Sep 15 04:08:18 2018

Tools Copyright (c) 1996-2012 Texas Instruments Incorporated
event_groups.asm                                                     PAGE    8

     365 000081 46B3   bset INTM
     366 000083       $C$L10:    
     367 000083       $C$DW$L$_xEventGroupSync$18$B:
     368 000083 4A7E          B $C$L10  ; |202| 
     369                                                      ; branch occurs ; |202| 
     370 000085       $C$DW$L$_xEventGroupSync$18$E:
     371 000085       $C$L11:    
     372                      .dwpsn  file "../FreeRTOS/Source/event_groups.c",line 206,column 2,is_stmt
     373              $C$DW$40        .dwtag  DW_TAG_TI_branch
     374                      .dwattr $C$DW$40, DW_AT_low_pc(0x00)
     375                      .dwattr $C$DW$40, DW_AT_name("_vTaskSuspendAll")
     376                      .dwattr $C$DW$40, DW_AT_TI_call
     377 000085 6C00          CALL #_vTaskSuspendAll ; |206| 
         000087 0000!
     378                                                      ; call occurs [#_vTaskSuspendAll] ; |206| 
     379                      .dwpsn  file "../FreeRTOS/Source/event_groups.c",line 208,column 3,is_stmt
     380 000089 ED18          MOV dbl(*SP(#12)), XAR3
         00008b BF   
     381 00008c ED61          MOV dbl(*AR3), AC0 ; |208| 
         00008e 08   
     382 00008f EB10          MOV AC0, dbl(*SP(#8)) ; |208| 
         000091 08   
     383                      .dwpsn  file "../FreeRTOS/Source/event_groups.c",line 210,column 3,is_stmt
     384 000092 ED00          MOV dbl(*SP(#0)), XAR0
         000094 8F   
     385 000095 ED04          MOV dbl(*SP(#2)), AC0 ; |210| 
         000097 08   
     386              $C$DW$41        .dwtag  DW_TAG_TI_branch
     387                      .dwattr $C$DW$41, DW_AT_low_pc(0x00)
     388                      .dwattr $C$DW$41, DW_AT_name("_xEventGroupSetBits")
     389                      .dwattr $C$DW$41, DW_AT_TI_call
     390 000098 0803          CALL #_xEventGroupSetBits ; |210| 
         00009a 25   
     391                                                      ; call occurs [#_xEventGroupSetBits] ; |210| 
     392                      .dwpsn  file "../FreeRTOS/Source/event_groups.c",line 212,column 3,is_stmt
     393 00009b ED04          MOV dbl(*SP(#2)), AC0 ; |212| 
         00009d 08   
     394 00009e ED10          MOV dbl(*SP(#8)), AC1 ; |212| 
         0000a0 18   
     395              
     396 0000a1 ED08          MOV dbl(*SP(#4)), AC1 ; |212| 
         0000a3 18   
     397 0000a4 2B10  ||      OR AC1, AC0 ; |212| 
     398              
     399 0000a6 ED08          MOV dbl(*SP(#4)), AC0 ; |212| 
         0000a8 08   
     400 0000a9 2901  ||      AND AC0, AC1 ; |212| 
     401              
     402 0000ab 121C          CMPU AC1 != AC0, TC1 ; |212| 
         0000ad 04   
     403 0000ae 0464          BCC $C$L12,TC1 ; |212| 
         0000b0 22   
     404                                                      ; branchcc occurs ; |212| 
     405                      .dwpsn  file "../FreeRTOS/Source/event_groups.c",line 215,column 4,is_stmt
     406 0000b1 ED10          MOV dbl(*SP(#8)), AC1 ; |215| 
TMS320C55x Assembler PC v4.4.1 Sat Sep 15 04:08:18 2018

Tools Copyright (c) 1996-2012 Texas Instruments Incorporated
event_groups.asm                                                     PAGE    9

         0000b3 18   
     407 0000b4 ED04          MOV dbl(*SP(#2)), AC0 ; |215| 
         0000b6 08   
     408 0000b7 2A10          OR AC1, AC0 ; |215| 
     409 0000b9 EB14          MOV AC0, dbl(*SP(#10)) ; |215| 
         0000bb 08   
     410                      .dwpsn  file "../FreeRTOS/Source/event_groups.c",line 219,column 4,is_stmt
     411 0000bc ED18          MOV dbl(*SP(#12)), XAR3
         0000be BF   
     412 0000bf ED08          MOV dbl(*SP(#4)), AC0 ; |219| 
         0000c1 08   
     413              
     414 0000c2 ED61          MOV dbl(*AR3), AC1 ; |219| 
         0000c4 18   
     415 0000c5 3700  ||      NOT AC0, AC0 ; |219| 
     416              
     417 0000c7 2810          AND AC1, AC0 ; |219| 
     418 0000c9 EB61          MOV AC0, dbl(*AR3) ; |219| 
         0000cb 08   
     419                      .dwpsn  file "../FreeRTOS/Source/event_groups.c",line 221,column 4,is_stmt
     420 0000cc 3C00          MOV #0, AC0 ; |221| 
     421 0000ce EB0C          MOV AC0, dbl(*SP(#6)) ; |221| 
         0000d0 08   
     422                      .dwpsn  file "../FreeRTOS/Source/event_groups.c",line 222,column 3,is_stmt
     423 0000d1 4A2F          B $C$L14  ; |222| 
     424                                                      ; branch occurs ; |222| 
     425 0000d3       $C$L12:    
     426                      .dwpsn  file "../FreeRTOS/Source/event_groups.c",line 225,column 4,is_stmt
     427 0000d3 ED0C          MOV dbl(*SP(#6)), AC0 ; |225| 
         0000d5 08   
     428 0000d6 0400          BCC $C$L13,AC0 == #0 ; |225| 
         0000d8 1D   
     429                                                      ; branchcc occurs ; |225| 
     430                      .dwpsn  file "../FreeRTOS/Source/event_groups.c",line 232,column 5,is_stmt
     431 0000d9 ED18          MOV dbl(*SP(#12)), XAR0
         0000db 8F   
     432 0000dc ED08          MOV dbl(*SP(#4)), AC1 ; |232| 
         0000de 18   
     433 0000df 7A05          MOV #1280 << #16, AC0 ; |232| 
         0000e1 000A 
     434 0000e3 2A10          OR AC1, AC0 ; |232| 
     435              
     436 0000e5 8E0C          MOV dbl(*SP(#6)), AC1 ; |232| 
         0000e7 8D1C 
         0000e9 1802 
     437              ||      AADD #2, AR0 ; |232| 
     438              
     439              $C$DW$42        .dwtag  DW_TAG_TI_branch
     440                      .dwattr $C$DW$42, DW_AT_low_pc(0x00)
     441                      .dwattr $C$DW$42, DW_AT_name("_vTaskPlaceOnUnorderedEventList")
     442                      .dwattr $C$DW$42, DW_AT_TI_call
     443 0000eb 6C00          CALL #_vTaskPlaceOnUnorderedEventList ; |232| 
         0000ed 0000!
     444                                                      ; call occurs [#_vTaskPlaceOnUnorderedEventList] ; |232| 
     445                      .dwpsn  file "../FreeRTOS/Source/event_groups.c",line 238,column 5,is_stmt
TMS320C55x Assembler PC v4.4.1 Sat Sep 15 04:08:18 2018

Tools Copyright (c) 1996-2012 Texas Instruments Incorporated
event_groups.asm                                                     PAGE   10

     446 0000ef 3C00          MOV #0, AC0 ; |238| 
     447 0000f1 EB14          MOV AC0, dbl(*SP(#10)) ; |238| 
         0000f3 08   
     448                      .dwpsn  file "../FreeRTOS/Source/event_groups.c",line 239,column 4,is_stmt
     449 0000f4 4A0C          B $C$L14  ; |239| 
     450                                                      ; branch occurs ; |239| 
     451 0000f6       $C$L13:    
     452                      .dwpsn  file "../FreeRTOS/Source/event_groups.c",line 244,column 5,is_stmt
     453 0000f6 ED18          MOV dbl(*SP(#12)), XAR3
         0000f8 BF   
     454 0000f9 ED61          MOV dbl(*AR3), AC0 ; |244| 
         0000fb 08   
     455 0000fc EB14          MOV AC0, dbl(*SP(#10)) ; |244| 
         0000fe 08   
     456                      .dwpsn  file "../FreeRTOS/Source/event_groups.c",line 245,column 5,is_stmt
     457 0000ff E61E          MOV #1, *SP(#15) ; |245| 
         000101 01   
     458 000102       $C$L14:    
     459                      .dwpsn  file "../FreeRTOS/Source/event_groups.c",line 249,column 2,is_stmt
     460              $C$DW$43        .dwtag  DW_TAG_TI_branch
     461                      .dwattr $C$DW$43, DW_AT_low_pc(0x00)
     462                      .dwattr $C$DW$43, DW_AT_name("_xTaskResumeAll")
     463                      .dwattr $C$DW$43, DW_AT_TI_call
     464 000102 6C00          CALL #_xTaskResumeAll ; |249| 
         000104 0000!
     465                                                      ; call occurs [#_xTaskResumeAll] ; |249| 
     466 000106 C41C          MOV T0, *SP(#14) ; |249| 
     467                      .dwpsn  file "../FreeRTOS/Source/event_groups.c",line 251,column 2,is_stmt
     468 000108 ED0C          MOV dbl(*SP(#6)), AC0 ; |251| 
         00010a 08   
     469 00010b 0400          BCC $C$L19,AC0 == #0 ; |251| 
         00010d 7E   
     470                                                      ; branchcc occurs ; |251| 
     471                      .dwpsn  file "../FreeRTOS/Source/event_groups.c",line 253,column 3,is_stmt
     472 00010e 2249          MOV T0, AR1
     473 000110 6219          BCC $C$L15,AR1 != #0 ; |253| 
     474                                                      ; branchcc occurs ; |253| 
     475                      .dwpsn  file "../FreeRTOS/Source/event_groups.c",line 255,column 4,is_stmt
     476              $C$DW$44        .dwtag  DW_TAG_TI_branch
     477                      .dwattr $C$DW$44, DW_AT_low_pc(0x00)
     478                      .dwattr $C$DW$44, DW_AT_name("_vPortYield")
     479                      .dwattr $C$DW$44, DW_AT_TI_call
     480 000112 6C00          CALL #_vPortYield ; |255| 
         000114 0000!
     481                                                      ; call occurs [#_vPortYield] ; |255| 
     482                      .dwpsn  file "../FreeRTOS/Source/event_groups.c",line 256,column 3,is_stmt
     483 000116       $C$L15:    
     484                      .dwpsn  file "../FreeRTOS/Source/event_groups.c",line 266,column 3,is_stmt
     485              $C$DW$45        .dwtag  DW_TAG_TI_branch
     486                      .dwattr $C$DW$45, DW_AT_low_pc(0x00)
     487                      .dwattr $C$DW$45, DW_AT_name("_uxTaskResetEventItemValue")
     488                      .dwattr $C$DW$45, DW_AT_TI_call
     489 000116 6C00          CALL #_uxTaskResetEventItemValue ; |266| 
         000118 0000!
     490                                                      ; call occurs [#_uxTaskResetEventItemValue] ; |266| 
TMS320C55x Assembler PC v4.4.1 Sat Sep 15 04:08:18 2018

Tools Copyright (c) 1996-2012 Texas Instruments Incorporated
event_groups.asm                                                     PAGE   11

     491 00011a EB14          MOV AC0, dbl(*SP(#10)) ; |266| 
         00011c 08   
     492                      .dwpsn  file "../FreeRTOS/Source/event_groups.c",line 268,column 3,is_stmt
     493 00011d 7A02          MOV #512 << #16, AC0 ; |268| 
         00011f 000A 
     494 000121 ED14          MOV dbl(*SP(#10)), AC1 ; |268| 
         000123 18   
     495 000124 2810          AND AC1, AC0 ; |268| 
     496 000126 0410          BCC $C$L18,AC0 != #0 ; |268| 
         000128 53   
     497                                                      ; branchcc occurs ; |268| 
     498                      .dwpsn  file "../FreeRTOS/Source/event_groups.c",line 271,column 4,is_stmt
     499 000129 20     nop
     500 00012a 46B3   bset INTM
     501 00012c F731          ADD #1, *(#_usCriticalNesting) ; |271| 
         00012e 0001 
         000130 0000 
         000132 00!  
     502                      .dwpsn  file "../FreeRTOS/Source/event_groups.c",line 273,column 5,is_stmt
     503 000133 ED18          MOV dbl(*SP(#12)), XAR3
         000135 BF   
     504 000136 ED61          MOV dbl(*AR3), AC0 ; |273| 
         000138 08   
     505 000139 EB14          MOV AC0, dbl(*SP(#10)) ; |273| 
         00013b 08   
     506                      .dwpsn  file "../FreeRTOS/Source/event_groups.c",line 279,column 5,is_stmt
     507 00013c ED14          MOV dbl(*SP(#10)), AC1 ; |279| 
         00013e 18   
     508 00013f ED08          MOV dbl(*SP(#4)), AC0 ; |279| 
         000141 08   
     509              
     510 000142 ED08          MOV dbl(*SP(#4)), AC1 ; |279| 
         000144 18   
     511 000145 2910  ||      AND AC1, AC0 ; |279| 
     512              
     513 000147 120C          CMPU AC0 != AC1, TC1 ; |279| 
         000149 14   
     514 00014a 0464          BCC $C$L16,TC1 ; |279| 
         00014c 10   
     515                                                      ; branchcc occurs ; |279| 
     516                      .dwpsn  file "../FreeRTOS/Source/event_groups.c",line 281,column 6,is_stmt
     517 00014d ED18          MOV dbl(*SP(#12)), XAR3
         00014f BF   
     518 000150 ED08          MOV dbl(*SP(#4)), AC0 ; |281| 
         000152 08   
     519              
     520 000153 ED61          MOV dbl(*AR3), AC1 ; |281| 
         000155 18   
     521 000156 3700  ||      NOT AC0, AC0 ; |281| 
     522              
     523 000158 2810          AND AC1, AC0 ; |281| 
     524 00015a EB61          MOV AC0, dbl(*AR3) ; |281| 
         00015c 08   
     525                      .dwpsn  file "../FreeRTOS/Source/event_groups.c",line 282,column 5,is_stmt
     526 00015d       $C$L16:    
TMS320C55x Assembler PC v4.4.1 Sat Sep 15 04:08:18 2018

Tools Copyright (c) 1996-2012 Texas Instruments Incorporated
event_groups.asm                                                     PAGE   12

     527                      .dwpsn  file "../FreeRTOS/Source/event_groups.c",line 288,column 4,is_stmt
     528 00015d A931          MOV *(#_usCriticalNesting), AR1 ; |288| 
         00015f 0000 
         000161 00!  
     529 000162 0409          BCC $C$L17,AR1 == #0 ; |288| 
         000164 14   
     530                                                      ; branchcc occurs ; |288| 
     531 000165 F731          SUB #1, *(#_usCriticalNesting) ; |288| 
         000167 FFFF 
         000169 0000 
         00016b 00!  
     532 00016c 20            NOP
     533 00016d 20            NOP
     534 00016e 20            NOP
     535 00016f A931          MOV *(#_usCriticalNesting), AR1 ; |288| 
         000171 0000 
         000173 00!  
     536 000174 6199          BCC $C$L17,AR1 != #0 ; |288| 
     537                                                      ; branchcc occurs ; |288| 
     538 000176 20     nop
     539 000177 46B2   bclr INTM
     540 000179       $C$L17:    
     541                      .dwpsn  file "../FreeRTOS/Source/event_groups.c",line 290,column 4,is_stmt
     542 000179 E61E          MOV #1, *SP(#15) ; |290| 
         00017b 01   
     543                      .dwpsn  file "../FreeRTOS/Source/event_groups.c",line 291,column 3,is_stmt
     544 00017c       $C$L18:    
     545                      .dwpsn  file "../FreeRTOS/Source/event_groups.c",line 299,column 3,is_stmt
     546 00017c 7A00          MOV #255 << #16, AC0 ; |299| 
         00017e FF0A 
     547 000180 ED14          MOV dbl(*SP(#10)), AC1 ; |299| 
         000182 18   
     548 000183 7EFF          OR #0xffff, AC0, AC0 ; |299| 
         000185 FF00 
     549 000187 2810          AND AC1, AC0 ; |299| 
     550 000189 EB14          MOV AC0, dbl(*SP(#10)) ; |299| 
         00018b 08   
     551 00018c       $C$L19:    
     552                      .dwpsn  file "../FreeRTOS/Source/event_groups.c",line 302,column 2,is_stmt
     553                      .dwpsn  file "../FreeRTOS/Source/event_groups.c",line 305,column 2,is_stmt
     554                      .dwpsn  file "../FreeRTOS/Source/event_groups.c",line 307,column 2,is_stmt
     555 00018c ED14          MOV dbl(*SP(#10)), AC0 ; |307| 
         00018e 08   
     556                      .dwpsn  file "../FreeRTOS/Source/event_groups.c",line 308,column 1,is_stmt
     557 00018f 4E11          AADD #17, SP
     558                      .dwcfi  cfa_offset, 3
     559 000191 5072          POP T3
     560                      .dwcfi  restore_reg, 15
     561                      .dwcfi  cfa_offset, 2
     562 000193 5062          POP T2
     563                      .dwcfi  restore_reg, 14
     564                      .dwcfi  cfa_offset, 1
     565              $C$DW$46        .dwtag  DW_TAG_TI_branch
     566                      .dwattr $C$DW$46, DW_AT_low_pc(0x00)
     567                      .dwattr $C$DW$46, DW_AT_TI_return
TMS320C55x Assembler PC v4.4.1 Sat Sep 15 04:08:18 2018

Tools Copyright (c) 1996-2012 Texas Instruments Incorporated
event_groups.asm                                                     PAGE   13

     568 000195 4804          RET
     569                                                      ; return occurs
     570              
     571              $C$DW$47        .dwtag  DW_TAG_TI_loop
     572                      .dwattr $C$DW$47, DW_AT_name("F:\eZdsp_DBG\eZDSP_5535_Files\ccsws2\test\Debug\event_groups.asm:$C$L10
     573                      .dwattr $C$DW$47, DW_AT_TI_begin_file("../FreeRTOS/Source/event_groups.c")
     574                      .dwattr $C$DW$47, DW_AT_TI_begin_line(0xca)
     575                      .dwattr $C$DW$47, DW_AT_TI_end_line(0xca)
     576              $C$DW$48        .dwtag  DW_TAG_TI_loop_range
     577                      .dwattr $C$DW$48, DW_AT_low_pc($C$DW$L$_xEventGroupSync$18$B)
     578                      .dwattr $C$DW$48, DW_AT_high_pc($C$DW$L$_xEventGroupSync$18$E)
     579                      .dwendtag $C$DW$47
     580              
     581              
     582              $C$DW$49        .dwtag  DW_TAG_TI_loop
     583                      .dwattr $C$DW$49, DW_AT_name("F:\eZdsp_DBG\eZDSP_5535_Files\ccsws2\test\Debug\event_groups.asm:$C$L6:
     584                      .dwattr $C$DW$49, DW_AT_TI_begin_file("../FreeRTOS/Source/event_groups.c")
     585                      .dwattr $C$DW$49, DW_AT_TI_begin_line(0xc7)
     586                      .dwattr $C$DW$49, DW_AT_TI_end_line(0xc7)
     587              $C$DW$50        .dwtag  DW_TAG_TI_loop_range
     588                      .dwattr $C$DW$50, DW_AT_low_pc($C$DW$L$_xEventGroupSync$10$B)
     589                      .dwattr $C$DW$50, DW_AT_high_pc($C$DW$L$_xEventGroupSync$10$E)
     590                      .dwendtag $C$DW$49
     591              
     592              
     593              $C$DW$51        .dwtag  DW_TAG_TI_loop
     594                      .dwattr $C$DW$51, DW_AT_name("F:\eZdsp_DBG\eZDSP_5535_Files\ccsws2\test\Debug\event_groups.asm:$C$L3:
     595                      .dwattr $C$DW$51, DW_AT_TI_begin_file("../FreeRTOS/Source/event_groups.c")
     596                      .dwattr $C$DW$51, DW_AT_TI_begin_line(0xc6)
     597                      .dwattr $C$DW$51, DW_AT_TI_end_line(0xc6)
     598              $C$DW$52        .dwtag  DW_TAG_TI_loop_range
     599                      .dwattr $C$DW$52, DW_AT_low_pc($C$DW$L$_xEventGroupSync$5$B)
     600                      .dwattr $C$DW$52, DW_AT_high_pc($C$DW$L$_xEventGroupSync$5$E)
     601                      .dwendtag $C$DW$51
     602              
     603                      .dwattr $C$DW$25, DW_AT_TI_end_file("../FreeRTOS/Source/event_groups.c")
     604                      .dwattr $C$DW$25, DW_AT_TI_end_line(0x134)
     605                      .dwattr $C$DW$25, DW_AT_TI_end_column(0x01)
     606                      .dwendentry
     607                      .dwendtag $C$DW$25
     608              
     609 000197               .sect   ".text"
     610                      .align 4
     611                      .global _xEventGroupWaitBits
     612              
     613              $C$DW$53        .dwtag  DW_TAG_subprogram, DW_AT_name("xEventGroupWaitBits")
     614                      .dwattr $C$DW$53, DW_AT_low_pc(_xEventGroupWaitBits)
     615                      .dwattr $C$DW$53, DW_AT_high_pc(0x00)
     616                      .dwattr $C$DW$53, DW_AT_TI_symbol_name("_xEventGroupWaitBits")
     617                      .dwattr $C$DW$53, DW_AT_external
     618                      .dwattr $C$DW$53, DW_AT_type(*$C$DW$T$20)
     619                      .dwattr $C$DW$53, DW_AT_TI_begin_file("../FreeRTOS/Source/event_groups.c")
     620                      .dwattr $C$DW$53, DW_AT_TI_begin_line(0x137)
     621                      .dwattr $C$DW$53, DW_AT_TI_begin_column(0x0d)
     622                      .dwattr $C$DW$53, DW_AT_TI_max_frame_size(0x18)
TMS320C55x Assembler PC v4.4.1 Sat Sep 15 04:08:18 2018

Tools Copyright (c) 1996-2012 Texas Instruments Incorporated
event_groups.asm                                                     PAGE   14

     623                      .dwpsn  file "../FreeRTOS/Source/event_groups.c",line 312,column 1,is_stmt,address _xEventGroupWaitBi
     624              
     625                      .dwfde $C$DW$CIE, _xEventGroupWaitBits
     626              $C$DW$54        .dwtag  DW_TAG_formal_parameter, DW_AT_name("xEventGroup")
     627                      .dwattr $C$DW$54, DW_AT_TI_symbol_name("_xEventGroup")
     628                      .dwattr $C$DW$54, DW_AT_type(*$C$DW$T$39)
     629                      .dwattr $C$DW$54, DW_AT_location[DW_OP_reg17]
     630              $C$DW$55        .dwtag  DW_TAG_formal_parameter, DW_AT_name("uxBitsToWaitFor")
     631                      .dwattr $C$DW$55, DW_AT_TI_symbol_name("_uxBitsToWaitFor")
     632                      .dwattr $C$DW$55, DW_AT_type(*$C$DW$T$65)
     633                      .dwattr $C$DW$55, DW_AT_location[DW_OP_reg0]
     634              $C$DW$56        .dwtag  DW_TAG_formal_parameter, DW_AT_name("xClearOnExit")
     635                      .dwattr $C$DW$56, DW_AT_TI_symbol_name("_xClearOnExit")
     636                      .dwattr $C$DW$56, DW_AT_type(*$C$DW$T$62)
     637                      .dwattr $C$DW$56, DW_AT_location[DW_OP_reg12]
     638              $C$DW$57        .dwtag  DW_TAG_formal_parameter, DW_AT_name("xWaitForAllBits")
     639                      .dwattr $C$DW$57, DW_AT_TI_symbol_name("_xWaitForAllBits")
     640                      .dwattr $C$DW$57, DW_AT_type(*$C$DW$T$62)
     641                      .dwattr $C$DW$57, DW_AT_location[DW_OP_reg13]
     642              $C$DW$58        .dwtag  DW_TAG_formal_parameter, DW_AT_name("xTicksToWait")
     643                      .dwattr $C$DW$58, DW_AT_TI_symbol_name("_xTicksToWait")
     644                      .dwattr $C$DW$58, DW_AT_type(*$C$DW$T$19)
     645                      .dwattr $C$DW$58, DW_AT_location[DW_OP_reg3]
     646              ;*******************************************************************************
     647              ;* FUNCTION NAME: xEventGroupWaitBits                                          *
     648              ;*                                                                             *
     649              ;*   Function Uses Regs : AC0,AC0,AC1,AC1,T0,T1,T2,T3,AR0,XAR0,AR1,AR3,XAR3,SP,*
     650              ;*                        CARRY,M40,SATA,SATD,RDM,FRCT,SMUL                    *
     651              ;*   Save On Entry Regs : T2,T3                                                *
     652              ;*   Stack Frame        : Compact (No Frame Pointer, w/ debug)                 *
     653              ;*   Total Frame Size   : 24 words                                             *
     654              ;*                        (2 return address/alignment)                         *
     655              ;*                        (20 local values)                                    *
     656              ;*                        (2 register save area)                               *
     657              ;*   Min System Stack   : 1 word                                               *
     658              ;*******************************************************************************
     659 000198       _xEventGroupWaitBits:
     660                      .dwcfi  cfa_offset, 1
     661                      .dwcfi  save_reg_to_mem, 91, -1
     662 000198 5066          PSH T2
     663                      .dwcfi  cfa_offset, 2
     664                      .dwcfi  save_reg_to_mem, 14, -2
     665 00019a 5076          PSH T3
     666                      .dwcfi  cfa_offset, 3
     667                      .dwcfi  save_reg_to_mem, 15, -3
     668 00019c 4EEB          AADD #-21, SP
     669                      .dwcfi  cfa_offset, 24
     670              $C$DW$59        .dwtag  DW_TAG_variable, DW_AT_name("xEventGroup")
     671                      .dwattr $C$DW$59, DW_AT_TI_symbol_name("_xEventGroup")
     672                      .dwattr $C$DW$59, DW_AT_type(*$C$DW$T$39)
     673                      .dwattr $C$DW$59, DW_AT_location[DW_OP_bregx 0x24 0]
     674              $C$DW$60        .dwtag  DW_TAG_variable, DW_AT_name("uxBitsToWaitFor")
     675                      .dwattr $C$DW$60, DW_AT_TI_symbol_name("_uxBitsToWaitFor")
     676                      .dwattr $C$DW$60, DW_AT_type(*$C$DW$T$65)
     677                      .dwattr $C$DW$60, DW_AT_location[DW_OP_bregx 0x24 2]
TMS320C55x Assembler PC v4.4.1 Sat Sep 15 04:08:18 2018

Tools Copyright (c) 1996-2012 Texas Instruments Incorporated
event_groups.asm                                                     PAGE   15

     678              $C$DW$61        .dwtag  DW_TAG_variable, DW_AT_name("xClearOnExit")
     679                      .dwattr $C$DW$61, DW_AT_TI_symbol_name("_xClearOnExit")
     680                      .dwattr $C$DW$61, DW_AT_type(*$C$DW$T$62)
     681                      .dwattr $C$DW$61, DW_AT_location[DW_OP_bregx 0x24 4]
     682              $C$DW$62        .dwtag  DW_TAG_variable, DW_AT_name("xWaitForAllBits")
     683                      .dwattr $C$DW$62, DW_AT_TI_symbol_name("_xWaitForAllBits")
     684                      .dwattr $C$DW$62, DW_AT_type(*$C$DW$T$62)
     685                      .dwattr $C$DW$62, DW_AT_location[DW_OP_bregx 0x24 5]
     686              $C$DW$63        .dwtag  DW_TAG_variable, DW_AT_name("xTicksToWait")
     687                      .dwattr $C$DW$63, DW_AT_TI_symbol_name("_xTicksToWait")
     688                      .dwattr $C$DW$63, DW_AT_type(*$C$DW$T$19)
     689                      .dwattr $C$DW$63, DW_AT_location[DW_OP_bregx 0x24 6]
     690              $C$DW$64        .dwtag  DW_TAG_variable, DW_AT_name("pxEventBits")
     691                      .dwattr $C$DW$64, DW_AT_TI_symbol_name("_pxEventBits")
     692                      .dwattr $C$DW$64, DW_AT_type(*$C$DW$T$37)
     693                      .dwattr $C$DW$64, DW_AT_location[DW_OP_bregx 0x24 8]
     694              $C$DW$65        .dwtag  DW_TAG_variable, DW_AT_name("uxReturn")
     695                      .dwattr $C$DW$65, DW_AT_TI_symbol_name("_uxReturn")
     696                      .dwattr $C$DW$65, DW_AT_type(*$C$DW$T$20)
     697                      .dwattr $C$DW$65, DW_AT_location[DW_OP_bregx 0x24 10]
     698              $C$DW$66        .dwtag  DW_TAG_variable, DW_AT_name("uxControlBits")
     699                      .dwattr $C$DW$66, DW_AT_TI_symbol_name("_uxControlBits")
     700                      .dwattr $C$DW$66, DW_AT_type(*$C$DW$T$20)
     701                      .dwattr $C$DW$66, DW_AT_location[DW_OP_bregx 0x24 12]
     702              $C$DW$67        .dwtag  DW_TAG_variable, DW_AT_name("xWaitConditionMet")
     703                      .dwattr $C$DW$67, DW_AT_TI_symbol_name("_xWaitConditionMet")
     704                      .dwattr $C$DW$67, DW_AT_type(*$C$DW$T$61)
     705                      .dwattr $C$DW$67, DW_AT_location[DW_OP_bregx 0x24 14]
     706              $C$DW$68        .dwtag  DW_TAG_variable, DW_AT_name("xAlreadyYielded")
     707                      .dwattr $C$DW$68, DW_AT_TI_symbol_name("_xAlreadyYielded")
     708                      .dwattr $C$DW$68, DW_AT_type(*$C$DW$T$61)
     709                      .dwattr $C$DW$68, DW_AT_location[DW_OP_bregx 0x24 15]
     710              $C$DW$69        .dwtag  DW_TAG_variable, DW_AT_name("xTimeoutOccurred")
     711                      .dwattr $C$DW$69, DW_AT_TI_symbol_name("_xTimeoutOccurred")
     712                      .dwattr $C$DW$69, DW_AT_type(*$C$DW$T$61)
     713                      .dwattr $C$DW$69, DW_AT_location[DW_OP_bregx 0x24 16]
     714 00019e EB0C          MOV AC1, dbl(*SP(#6)) ; |312| 
         0001a0 18   
     715 0001a1 C50A          MOV T1, *SP(#5) ; |312| 
     716 0001a3 C408          MOV T0, *SP(#4) ; |312| 
     717 0001a5 EB04          MOV AC0, dbl(*SP(#2)) ; |312| 
         0001a7 08   
     718 0001a8 EB00          MOV XAR0, dbl(*SP(#0))
         0001aa 85   
     719                      .dwpsn  file "../FreeRTOS/Source/event_groups.c",line 313,column 15,is_stmt
     720 0001ab ED00          MOV dbl(*SP(#0)), XAR3
         0001ad BF   
     721 0001ae EB10          MOV XAR3, dbl(*SP(#8))
         0001b0 B5   
     722                      .dwpsn  file "../FreeRTOS/Source/event_groups.c",line 314,column 23,is_stmt
     723 0001b1 3C00          MOV #0, AC0 ; |314| 
     724 0001b3 EB18          MOV AC0, dbl(*SP(#12)) ; |314| 
         0001b5 08   
     725                      .dwpsn  file "../FreeRTOS/Source/event_groups.c",line 316,column 12,is_stmt
     726 0001b6 E620          MOV #0, *SP(#16) ; |316| 
TMS320C55x Assembler PC v4.4.1 Sat Sep 15 04:08:18 2018

Tools Copyright (c) 1996-2012 Texas Instruments Incorporated
event_groups.asm                                                     PAGE   16

         0001b8 00   
     727                      .dwpsn  file "../FreeRTOS/Source/event_groups.c",line 320,column 2,is_stmt
     728 0001b9 ED00          MOV dbl(*SP(#0)), XAR3
         0001bb BF   
     729 0001bc 90B0          MOV XAR3, AC0
     730 0001be 6290          BCC $C$L21,AC0 != #0 ; |320| 
     731                                                      ; branchcc occurs ; |320| 
     732 0001c0 20     nop
     733 0001c1 46B3   bset INTM
     734 0001c3       $C$L20:    
     735 0001c3       $C$DW$L$_xEventGroupWaitBits$3$B:
     736 0001c3 4A7E          B $C$L20  ; |320| 
     737                                                      ; branch occurs ; |320| 
     738 0001c5       $C$DW$L$_xEventGroupWaitBits$3$E:
     739 0001c5       $C$L21:    
     740                      .dwpsn  file "../FreeRTOS/Source/event_groups.c",line 321,column 2,is_stmt
     741 0001c5 ED04          MOV dbl(*SP(#2)), AC1 ; |321| 
         0001c7 18   
     742 0001c8 7AFF          MOV #-256 << #16, AC0 ; |321| 
         0001ca 000A 
     743 0001cc 2810          AND AC1, AC0 ; |321| 
     744 0001ce 3C09          MOV #0, AR1
     745 0001d0 6110          BCC $C$L22,AC0 != #0 ; |321| 
     746                                                      ; branchcc occurs ; |321| 
     747 0001d2 3C19          MOV #1, AR1
     748 0001d4       $C$L22:    
     749 0001d4 6299          BCC $C$L24,AR1 != #0 ; |321| 
     750                                                      ; branchcc occurs ; |321| 
     751 0001d6 20     nop
     752 0001d7 46B3   bset INTM
     753 0001d9       $C$L23:    
     754 0001d9       $C$DW$L$_xEventGroupWaitBits$8$B:
     755 0001d9 4A7E          B $C$L23  ; |321| 
     756                                                      ; branch occurs ; |321| 
     757 0001db       $C$DW$L$_xEventGroupWaitBits$8$E:
     758 0001db       $C$L24:    
     759                      .dwpsn  file "../FreeRTOS/Source/event_groups.c",line 322,column 2,is_stmt
     760 0001db ED04          MOV dbl(*SP(#2)), AC0 ; |322| 
         0001dd 08   
     761 0001de 3C09          MOV #0, AR1
     762 0001e0 6100          BCC $C$L25,AC0 == #0 ; |322| 
     763                                                      ; branchcc occurs ; |322| 
     764 0001e2 3C19          MOV #1, AR1
     765 0001e4       $C$L25:    
     766 0001e4 6299          BCC $C$L27,AR1 != #0 ; |322| 
     767                                                      ; branchcc occurs ; |322| 
     768 0001e6 20     nop
     769 0001e7 46B3   bset INTM
     770 0001e9       $C$L26:    
     771 0001e9       $C$DW$L$_xEventGroupWaitBits$13$B:
     772 0001e9 4A7E          B $C$L26  ; |322| 
     773                                                      ; branch occurs ; |322| 
     774 0001eb       $C$DW$L$_xEventGroupWaitBits$13$E:
     775 0001eb       $C$L27:    
     776                      .dwpsn  file "../FreeRTOS/Source/event_groups.c",line 325,column 3,is_stmt
TMS320C55x Assembler PC v4.4.1 Sat Sep 15 04:08:18 2018

Tools Copyright (c) 1996-2012 Texas Instruments Incorporated
event_groups.asm                                                     PAGE   17

     777              $C$DW$70        .dwtag  DW_TAG_TI_branch
     778                      .dwattr $C$DW$70, DW_AT_low_pc(0x00)
     779                      .dwattr $C$DW$70, DW_AT_name("_xTaskGetSchedulerState")
     780                      .dwattr $C$DW$70, DW_AT_TI_call
     781 0001eb 6C00          CALL #_xTaskGetSchedulerState ; |325| 
         0001ed 0000!
     782                                                      ; call occurs [#_xTaskGetSchedulerState] ; |325| 
     783 0001ef 3C07          MOV #0, T3
     784              
     785 0001f1 6394          BCC $C$L28,T0 != #0 ; |325| 
     786 0001f3 3D06  ||      MOV #0, T2
     787              
     788                                                      ; branchcc occurs ; |325| 
     789 0001f5 ED0C          MOV dbl(*SP(#6)), AC0 ; |325| 
         0001f7 08   
     790 0001f8 6100          BCC $C$L28,AC0 == #0 ; |325| 
     791                                                      ; branchcc occurs ; |325| 
     792 0001fa 3C17          MOV #1, T3
     793 0001fc       $C$L28:    
     794 0001fc 6117          BCC $C$L29,T3 != #0 ; |325| 
     795                                                      ; branchcc occurs ; |325| 
     796 0001fe 3C16          MOV #1, T2
     797 000200       $C$L29:    
     798 000200 6296          BCC $C$L31,T2 != #0 ; |325| 
     799                                                      ; branchcc occurs ; |325| 
     800 000202 20     nop
     801 000203 46B3   bset INTM
     802 000205       $C$L30:    
     803 000205       $C$DW$L$_xEventGroupWaitBits$21$B:
     804 000205 4A7E          B $C$L30  ; |325| 
     805                                                      ; branch occurs ; |325| 
     806 000207       $C$DW$L$_xEventGroupWaitBits$21$E:
     807 000207       $C$L31:    
     808                      .dwpsn  file "../FreeRTOS/Source/event_groups.c",line 329,column 2,is_stmt
     809              $C$DW$71        .dwtag  DW_TAG_TI_branch
     810                      .dwattr $C$DW$71, DW_AT_low_pc(0x00)
     811                      .dwattr $C$DW$71, DW_AT_name("_vTaskSuspendAll")
     812                      .dwattr $C$DW$71, DW_AT_TI_call
     813 000207 6C00          CALL #_vTaskSuspendAll ; |329| 
         000209 0000!
     814                                                      ; call occurs [#_vTaskSuspendAll] ; |329| 
     815              
     816              $C$DW$72        .dwtag  DW_TAG_lexical_block, DW_AT_low_pc(0x00), DW_AT_high_pc(0x00)
     817              $C$DW$73        .dwtag  DW_TAG_variable, DW_AT_name("uxCurrentEventBits")
     818                      .dwattr $C$DW$73, DW_AT_TI_symbol_name("_uxCurrentEventBits")
     819                      .dwattr $C$DW$73, DW_AT_type(*$C$DW$T$65)
     820                      .dwattr $C$DW$73, DW_AT_location[DW_OP_bregx 0x24 18]
     821                      .dwpsn  file "../FreeRTOS/Source/event_groups.c",line 331,column 21,is_stmt
     822 00020b ED10          MOV dbl(*SP(#8)), XAR3
         00020d BF   
     823 00020e ED61          MOV dbl(*AR3), AC0 ; |331| 
         000210 08   
     824 000211 EB24          MOV AC0, dbl(*SP(#18)) ; |331| 
         000213 08   
     825                      .dwpsn  file "../FreeRTOS/Source/event_groups.c",line 334,column 3,is_stmt
TMS320C55x Assembler PC v4.4.1 Sat Sep 15 04:08:18 2018

Tools Copyright (c) 1996-2012 Texas Instruments Incorporated
event_groups.asm                                                     PAGE   18

     826 000214 A40A          MOV *SP(#5), T0 ; |334| 
     827 000216 ED04          MOV dbl(*SP(#2)), AC1 ; |334| 
         000218 18   
     828 000219 ED24          MOV dbl(*SP(#18)), AC0 ; |334| 
         00021b 08   
     829              $C$DW$74        .dwtag  DW_TAG_TI_branch
     830                      .dwattr $C$DW$74, DW_AT_low_pc(0x00)
     831                      .dwattr $C$DW$74, DW_AT_name("_prvTestWaitCondition")
     832                      .dwattr $C$DW$74, DW_AT_TI_call
     833 00021c 0803          CALL #_prvTestWaitCondition ; |334| 
         00021e 61   
     834                                                      ; call occurs [#_prvTestWaitCondition] ; |334| 
     835 00021f C41C          MOV T0, *SP(#14) ; |334| 
     836                      .dwpsn  file "../FreeRTOS/Source/event_groups.c",line 336,column 3,is_stmt
     837 000221 2249          MOV T0, AR1
     838 000223 0409          BCC $C$L32,AR1 == #0 ; |336| 
         000225 23   
     839                                                      ; branchcc occurs ; |336| 
     840                      .dwpsn  file "../FreeRTOS/Source/event_groups.c",line 340,column 4,is_stmt
     841 000226 ED24          MOV dbl(*SP(#18)), AC0 ; |340| 
         000228 08   
     842 000229 EB14          MOV AC0, dbl(*SP(#10)) ; |340| 
         00022b 08   
     843                      .dwpsn  file "../FreeRTOS/Source/event_groups.c",line 341,column 4,is_stmt
     844 00022c 3C00          MOV #0, AC0 ; |341| 
     845 00022e EB0C          MOV AC0, dbl(*SP(#6)) ; |341| 
         000230 08   
     846                      .dwpsn  file "../FreeRTOS/Source/event_groups.c",line 344,column 4,is_stmt
     847 000231 A908          MOV *SP(#4), AR1 ; |344| 
     848 000233 0409          BCC $C$L36,AR1 == #0 ; |344| 
         000235 57   
     849                                                      ; branchcc occurs ; |344| 
     850                      .dwpsn  file "../FreeRTOS/Source/event_groups.c",line 346,column 5,is_stmt
     851 000236 ED10          MOV dbl(*SP(#8)), XAR3
         000238 BF   
     852 000239 ED04          MOV dbl(*SP(#2)), AC0 ; |346| 
         00023b 08   
     853              
     854 00023c ED61          MOV dbl(*AR3), AC1 ; |346| 
         00023e 18   
     855 00023f 3700  ||      NOT AC0, AC0 ; |346| 
     856              
     857 000241 2810          AND AC1, AC0 ; |346| 
     858 000243 EB61          MOV AC0, dbl(*AR3) ; |346| 
         000245 08   
     859                      .dwpsn  file "../FreeRTOS/Source/event_groups.c",line 347,column 4,is_stmt
     860 000246 0600          B $C$L36  ; |347| 
         000248 44   
     861                                                      ; branch occurs ; |347| 
     862 000249       $C$L32:    
     863                      .dwpsn  file "../FreeRTOS/Source/event_groups.c",line 353,column 8,is_stmt
     864 000249 ED0C          MOV dbl(*SP(#6)), AC0 ; |353| 
         00024b 08   
     865 00024c 6590          BCC $C$L33,AC0 != #0 ; |353| 
     866                                                      ; branchcc occurs ; |353| 
TMS320C55x Assembler PC v4.4.1 Sat Sep 15 04:08:18 2018

Tools Copyright (c) 1996-2012 Texas Instruments Incorporated
event_groups.asm                                                     PAGE   19

     867                      .dwpsn  file "../FreeRTOS/Source/event_groups.c",line 357,column 4,is_stmt
     868 00024e ED24          MOV dbl(*SP(#18)), AC0 ; |357| 
         000250 08   
     869 000251 EB14          MOV AC0, dbl(*SP(#10)) ; |357| 
         000253 08   
     870                      .dwpsn  file "../FreeRTOS/Source/event_groups.c",line 358,column 4,is_stmt
     871 000254 E620          MOV #1, *SP(#16) ; |358| 
         000256 01   
     872                      .dwpsn  file "../FreeRTOS/Source/event_groups.c",line 359,column 3,is_stmt
     873 000257 4A34          B $C$L36  ; |359| 
     874                                                      ; branch occurs ; |359| 
     875 000259       $C$L33:    
     876                      .dwpsn  file "../FreeRTOS/Source/event_groups.c",line 366,column 4,is_stmt
     877 000259 A908          MOV *SP(#4), AR1 ; |366| 
     878 00025b 6489          BCC $C$L34,AR1 == #0 ; |366| 
     879                                                      ; branchcc occurs ; |366| 
     880                      .dwpsn  file "../FreeRTOS/Source/event_groups.c",line 368,column 5,is_stmt
     881 00025d ED18          MOV dbl(*SP(#12)), AC0 ; |368| 
         00025f 08   
     882 000260 EC30          BSET @#24, AC0 ; |368| 
         000262 00   
     883 000263 EB18          MOV AC0, dbl(*SP(#12)) ; |368| 
         000265 08   
     884                      .dwpsn  file "../FreeRTOS/Source/event_groups.c",line 369,column 4,is_stmt
     885 000266       $C$L34:    
     886                      .dwpsn  file "../FreeRTOS/Source/event_groups.c",line 375,column 4,is_stmt
     887 000266 A90A          MOV *SP(#5), AR1 ; |375| 
     888 000268 6489          BCC $C$L35,AR1 == #0 ; |375| 
     889                                                      ; branchcc occurs ; |375| 
     890                      .dwpsn  file "../FreeRTOS/Source/event_groups.c",line 377,column 5,is_stmt
     891 00026a ED18          MOV dbl(*SP(#12)), AC0 ; |377| 
         00026c 08   
     892 00026d EC34          BSET @#26, AC0 ; |377| 
         00026f 00   
     893 000270 EB18          MOV AC0, dbl(*SP(#12)) ; |377| 
         000272 08   
     894                      .dwpsn  file "../FreeRTOS/Source/event_groups.c",line 378,column 4,is_stmt
     895 000273       $C$L35:    
     896                      .dwpsn  file "../FreeRTOS/Source/event_groups.c",line 387,column 4,is_stmt
     897 000273 ED10          MOV dbl(*SP(#8)), XAR0
         000275 8F   
     898 000276 ED04          MOV dbl(*SP(#2)), AC1 ; |387| 
         000278 18   
     899 000279 ED18          MOV dbl(*SP(#12)), AC0 ; |387| 
         00027b 08   
     900 00027c 2A10          OR AC1, AC0 ; |387| 
     901              
     902 00027e 8E0C          MOV dbl(*SP(#6)), AC1 ; |387| 
         000280 8D1C 
         000282 1802 
     903              ||      AADD #2, AR0 ; |387| 
     904              
     905              $C$DW$75        .dwtag  DW_TAG_TI_branch
     906                      .dwattr $C$DW$75, DW_AT_low_pc(0x00)
     907                      .dwattr $C$DW$75, DW_AT_name("_vTaskPlaceOnUnorderedEventList")
TMS320C55x Assembler PC v4.4.1 Sat Sep 15 04:08:18 2018

Tools Copyright (c) 1996-2012 Texas Instruments Incorporated
event_groups.asm                                                     PAGE   20

     908                      .dwattr $C$DW$75, DW_AT_TI_call
     909 000284 6C00          CALL #_vTaskPlaceOnUnorderedEventList ; |387| 
         000286 0000!
     910                                                      ; call occurs [#_vTaskPlaceOnUnorderedEventList] ; |387| 
     911                      .dwpsn  file "../FreeRTOS/Source/event_groups.c",line 392,column 4,is_stmt
     912 000288 3C00          MOV #0, AC0 ; |392| 
     913 00028a EB14          MOV AC0, dbl(*SP(#10)) ; |392| 
         00028c 08   
     914              $C$L36:    
     915                      .dwendtag $C$DW$72
     916              
     917                      .dwpsn  file "../FreeRTOS/Source/event_groups.c",line 397,column 2,is_stmt
     918              $C$DW$76        .dwtag  DW_TAG_TI_branch
     919                      .dwattr $C$DW$76, DW_AT_low_pc(0x00)
     920                      .dwattr $C$DW$76, DW_AT_name("_xTaskResumeAll")
     921                      .dwattr $C$DW$76, DW_AT_TI_call
     922 00028d 6C00          CALL #_xTaskResumeAll ; |397| 
         00028f 0000!
     923                                                      ; call occurs [#_xTaskResumeAll] ; |397| 
     924 000291 C41E          MOV T0, *SP(#15) ; |397| 
     925                      .dwpsn  file "../FreeRTOS/Source/event_groups.c",line 399,column 2,is_stmt
     926 000293 ED0C          MOV dbl(*SP(#6)), AC0 ; |399| 
         000295 08   
     927 000296 6D00          BCC $C$L40,AC0 == #0 ; |399| 
         000298 0082 
     928                                                      ; branchcc occurs ; |399| 
     929                      .dwpsn  file "../FreeRTOS/Source/event_groups.c",line 401,column 3,is_stmt
     930 00029a 2249          MOV T0, AR1
     931 00029c 6219          BCC $C$L37,AR1 != #0 ; |401| 
     932                                                      ; branchcc occurs ; |401| 
     933                      .dwpsn  file "../FreeRTOS/Source/event_groups.c",line 403,column 4,is_stmt
     934              $C$DW$77        .dwtag  DW_TAG_TI_branch
     935                      .dwattr $C$DW$77, DW_AT_low_pc(0x00)
     936                      .dwattr $C$DW$77, DW_AT_name("_vPortYield")
     937                      .dwattr $C$DW$77, DW_AT_TI_call
     938 00029e 6C00          CALL #_vPortYield ; |403| 
         0002a0 0000!
     939                                                      ; call occurs [#_vPortYield] ; |403| 
     940                      .dwpsn  file "../FreeRTOS/Source/event_groups.c",line 404,column 3,is_stmt
     941 0002a2       $C$L37:    
     942                      .dwpsn  file "../FreeRTOS/Source/event_groups.c",line 414,column 3,is_stmt
     943              $C$DW$78        .dwtag  DW_TAG_TI_branch
     944                      .dwattr $C$DW$78, DW_AT_low_pc(0x00)
     945                      .dwattr $C$DW$78, DW_AT_name("_uxTaskResetEventItemValue")
     946                      .dwattr $C$DW$78, DW_AT_TI_call
     947 0002a2 6C00          CALL #_uxTaskResetEventItemValue ; |414| 
         0002a4 0000!
     948                                                      ; call occurs [#_uxTaskResetEventItemValue] ; |414| 
     949 0002a6 EB14          MOV AC0, dbl(*SP(#10)) ; |414| 
         0002a8 08   
     950                      .dwpsn  file "../FreeRTOS/Source/event_groups.c",line 416,column 3,is_stmt
     951 0002a9 7A02          MOV #512 << #16, AC0 ; |416| 
         0002ab 000A 
     952 0002ad ED14          MOV dbl(*SP(#10)), AC1 ; |416| 
         0002af 18   
TMS320C55x Assembler PC v4.4.1 Sat Sep 15 04:08:18 2018

Tools Copyright (c) 1996-2012 Texas Instruments Incorporated
event_groups.asm                                                     PAGE   21

     953 0002b0 2810          AND AC1, AC0 ; |416| 
     954 0002b2 0410          BCC $C$L39,AC0 != #0 ; |416| 
         0002b4 57   
     955                                                      ; branchcc occurs ; |416| 
     956                      .dwpsn  file "../FreeRTOS/Source/event_groups.c",line 418,column 4,is_stmt
     957 0002b5 20     nop
     958 0002b6 46B3   bset INTM
     959 0002b8 F731          ADD #1, *(#_usCriticalNesting) ; |418| 
         0002ba 0001 
         0002bc 0000 
         0002be 00!  
     960                      .dwpsn  file "../FreeRTOS/Source/event_groups.c",line 421,column 5,is_stmt
     961 0002bf ED10          MOV dbl(*SP(#8)), XAR3
         0002c1 BF   
     962 0002c2 ED61          MOV dbl(*AR3), AC0 ; |421| 
         0002c4 08   
     963 0002c5 EB14          MOV AC0, dbl(*SP(#10)) ; |421| 
         0002c7 08   
     964                      .dwpsn  file "../FreeRTOS/Source/event_groups.c",line 425,column 5,is_stmt
     965 0002c8 ED04          MOV dbl(*SP(#2)), AC1 ; |425| 
         0002ca 18   
     966 0002cb A40A          MOV *SP(#5), T0 ; |425| 
     967 0002cd ED14          MOV dbl(*SP(#10)), AC0 ; |425| 
         0002cf 08   
     968              $C$DW$79        .dwtag  DW_TAG_TI_branch
     969                      .dwattr $C$DW$79, DW_AT_low_pc(0x00)
     970                      .dwattr $C$DW$79, DW_AT_name("_prvTestWaitCondition")
     971                      .dwattr $C$DW$79, DW_AT_TI_call
     972 0002d0 0802          CALL #_prvTestWaitCondition ; |425| 
         0002d2 AD   
     973                                                      ; call occurs [#_prvTestWaitCondition] ; |425| 
     974 0002d3 0404          BCC $C$L38,T0 == #0 ; |425| 
         0002d5 17   
     975                                                      ; branchcc occurs ; |425| 
     976                      .dwpsn  file "../FreeRTOS/Source/event_groups.c",line 427,column 6,is_stmt
     977 0002d6 A908          MOV *SP(#4), AR1 ; |427| 
     978 0002d8 0409          BCC $C$L38,AR1 == #0 ; |427| 
         0002da 12   
     979                                                      ; branchcc occurs ; |427| 
     980                      .dwpsn  file "../FreeRTOS/Source/event_groups.c",line 429,column 7,is_stmt
     981 0002db ED10          MOV dbl(*SP(#8)), XAR3
         0002dd BF   
     982 0002de ED04          MOV dbl(*SP(#2)), AC0 ; |429| 
         0002e0 08   
     983              
     984 0002e1 ED61          MOV dbl(*AR3), AC1 ; |429| 
         0002e3 18   
     985 0002e4 3700  ||      NOT AC0, AC0 ; |429| 
     986              
     987 0002e6 2810          AND AC1, AC0 ; |429| 
     988 0002e8 EB61          MOV AC0, dbl(*AR3) ; |429| 
         0002ea 08   
     989                      .dwpsn  file "../FreeRTOS/Source/event_groups.c",line 430,column 6,is_stmt
     990 0002eb 4A00          B $C$L38  ; |430| 
     991                                                      ; branch occurs ; |430| 
TMS320C55x Assembler PC v4.4.1 Sat Sep 15 04:08:18 2018

Tools Copyright (c) 1996-2012 Texas Instruments Incorporated
event_groups.asm                                                     PAGE   22

     992 0002ed       $C$L38:    
     993                      .dwpsn  file "../FreeRTOS/Source/event_groups.c",line 440,column 5,is_stmt
     994 0002ed E620          MOV #1, *SP(#16) ; |440| 
         0002ef 01   
     995                      .dwpsn  file "../FreeRTOS/Source/event_groups.c",line 442,column 4,is_stmt
     996 0002f0 A931          MOV *(#_usCriticalNesting), AR1 ; |442| 
         0002f2 0000 
         0002f4 00!  
     997 0002f5 0409          BCC $C$L39,AR1 == #0 ; |442| 
         0002f7 14   
     998                                                      ; branchcc occurs ; |442| 
     999 0002f8 F731          SUB #1, *(#_usCriticalNesting) ; |442| 
         0002fa FFFF 
         0002fc 0000 
         0002fe 00!  
    1000 0002ff 20            NOP
    1001 000300 20            NOP
    1002 000301 20            NOP
    1003 000302 A931          MOV *(#_usCriticalNesting), AR1 ; |442| 
         000304 0000 
         000306 00!  
    1004 000307 6199          BCC $C$L39,AR1 != #0 ; |442| 
    1005                                                      ; branchcc occurs ; |442| 
    1006 000309 20     nop
    1007 00030a 46B2   bclr INTM
    1008                      .dwpsn  file "../FreeRTOS/Source/event_groups.c",line 443,column 3,is_stmt
    1009 00030c       $C$L39:    
    1010                      .dwpsn  file "../FreeRTOS/Source/event_groups.c",line 450,column 3,is_stmt
    1011 00030c 7A00          MOV #255 << #16, AC0 ; |450| 
         00030e FF0A 
    1012 000310 ED14          MOV dbl(*SP(#10)), AC1 ; |450| 
         000312 18   
    1013 000313 7EFF          OR #0xffff, AC0, AC0 ; |450| 
         000315 FF00 
    1014 000317 2810          AND AC1, AC0 ; |450| 
    1015 000319 EB14          MOV AC0, dbl(*SP(#10)) ; |450| 
         00031b 08   
    1016 00031c       $C$L40:    
    1017                      .dwpsn  file "../FreeRTOS/Source/event_groups.c",line 452,column 2,is_stmt
    1018                      .dwpsn  file "../FreeRTOS/Source/event_groups.c",line 455,column 2,is_stmt
    1019                      .dwpsn  file "../FreeRTOS/Source/event_groups.c",line 457,column 2,is_stmt
    1020 00031c ED14          MOV dbl(*SP(#10)), AC0 ; |457| 
         00031e 08   
    1021                      .dwpsn  file "../FreeRTOS/Source/event_groups.c",line 458,column 1,is_stmt
    1022 00031f 4E15          AADD #21, SP
    1023                      .dwcfi  cfa_offset, 3
    1024 000321 5072          POP T3
    1025                      .dwcfi  restore_reg, 15
    1026                      .dwcfi  cfa_offset, 2
    1027 000323 5062          POP T2
    1028                      .dwcfi  restore_reg, 14
    1029                      .dwcfi  cfa_offset, 1
    1030              $C$DW$80        .dwtag  DW_TAG_TI_branch
    1031                      .dwattr $C$DW$80, DW_AT_low_pc(0x00)
    1032                      .dwattr $C$DW$80, DW_AT_TI_return
TMS320C55x Assembler PC v4.4.1 Sat Sep 15 04:08:18 2018

Tools Copyright (c) 1996-2012 Texas Instruments Incorporated
event_groups.asm                                                     PAGE   23

    1033 000325 4804          RET
    1034                                                      ; return occurs
    1035              
    1036              $C$DW$81        .dwtag  DW_TAG_TI_loop
    1037                      .dwattr $C$DW$81, DW_AT_name("F:\eZdsp_DBG\eZDSP_5535_Files\ccsws2\test\Debug\event_groups.asm:$C$L30
    1038                      .dwattr $C$DW$81, DW_AT_TI_begin_file("../FreeRTOS/Source/event_groups.c")
    1039                      .dwattr $C$DW$81, DW_AT_TI_begin_line(0x145)
    1040                      .dwattr $C$DW$81, DW_AT_TI_end_line(0x145)
    1041              $C$DW$82        .dwtag  DW_TAG_TI_loop_range
    1042                      .dwattr $C$DW$82, DW_AT_low_pc($C$DW$L$_xEventGroupWaitBits$21$B)
    1043                      .dwattr $C$DW$82, DW_AT_high_pc($C$DW$L$_xEventGroupWaitBits$21$E)
    1044                      .dwendtag $C$DW$81
    1045              
    1046              
    1047              $C$DW$83        .dwtag  DW_TAG_TI_loop
    1048                      .dwattr $C$DW$83, DW_AT_name("F:\eZdsp_DBG\eZDSP_5535_Files\ccsws2\test\Debug\event_groups.asm:$C$L26
    1049                      .dwattr $C$DW$83, DW_AT_TI_begin_file("../FreeRTOS/Source/event_groups.c")
    1050                      .dwattr $C$DW$83, DW_AT_TI_begin_line(0x142)
    1051                      .dwattr $C$DW$83, DW_AT_TI_end_line(0x142)
    1052              $C$DW$84        .dwtag  DW_TAG_TI_loop_range
    1053                      .dwattr $C$DW$84, DW_AT_low_pc($C$DW$L$_xEventGroupWaitBits$13$B)
    1054                      .dwattr $C$DW$84, DW_AT_high_pc($C$DW$L$_xEventGroupWaitBits$13$E)
    1055                      .dwendtag $C$DW$83
    1056              
    1057              
    1058              $C$DW$85        .dwtag  DW_TAG_TI_loop
    1059                      .dwattr $C$DW$85, DW_AT_name("F:\eZdsp_DBG\eZDSP_5535_Files\ccsws2\test\Debug\event_groups.asm:$C$L23
    1060                      .dwattr $C$DW$85, DW_AT_TI_begin_file("../FreeRTOS/Source/event_groups.c")
    1061                      .dwattr $C$DW$85, DW_AT_TI_begin_line(0x141)
    1062                      .dwattr $C$DW$85, DW_AT_TI_end_line(0x141)
    1063              $C$DW$86        .dwtag  DW_TAG_TI_loop_range
    1064                      .dwattr $C$DW$86, DW_AT_low_pc($C$DW$L$_xEventGroupWaitBits$8$B)
    1065                      .dwattr $C$DW$86, DW_AT_high_pc($C$DW$L$_xEventGroupWaitBits$8$E)
    1066                      .dwendtag $C$DW$85
    1067              
    1068              
    1069              $C$DW$87        .dwtag  DW_TAG_TI_loop
    1070                      .dwattr $C$DW$87, DW_AT_name("F:\eZdsp_DBG\eZDSP_5535_Files\ccsws2\test\Debug\event_groups.asm:$C$L20
    1071                      .dwattr $C$DW$87, DW_AT_TI_begin_file("../FreeRTOS/Source/event_groups.c")
    1072                      .dwattr $C$DW$87, DW_AT_TI_begin_line(0x140)
    1073                      .dwattr $C$DW$87, DW_AT_TI_end_line(0x140)
    1074              $C$DW$88        .dwtag  DW_TAG_TI_loop_range
    1075                      .dwattr $C$DW$88, DW_AT_low_pc($C$DW$L$_xEventGroupWaitBits$3$B)
    1076                      .dwattr $C$DW$88, DW_AT_high_pc($C$DW$L$_xEventGroupWaitBits$3$E)
    1077                      .dwendtag $C$DW$87
    1078              
    1079                      .dwattr $C$DW$53, DW_AT_TI_end_file("../FreeRTOS/Source/event_groups.c")
    1080                      .dwattr $C$DW$53, DW_AT_TI_end_line(0x1ca)
    1081                      .dwattr $C$DW$53, DW_AT_TI_end_column(0x01)
    1082                      .dwendentry
    1083                      .dwendtag $C$DW$53
    1084              
    1085 000327               .sect   ".text"
    1086                      .align 4
    1087                      .global _xEventGroupClearBits
TMS320C55x Assembler PC v4.4.1 Sat Sep 15 04:08:18 2018

Tools Copyright (c) 1996-2012 Texas Instruments Incorporated
event_groups.asm                                                     PAGE   24

    1088              
    1089              $C$DW$89        .dwtag  DW_TAG_subprogram, DW_AT_name("xEventGroupClearBits")
    1090                      .dwattr $C$DW$89, DW_AT_low_pc(_xEventGroupClearBits)
    1091                      .dwattr $C$DW$89, DW_AT_high_pc(0x00)
    1092                      .dwattr $C$DW$89, DW_AT_TI_symbol_name("_xEventGroupClearBits")
    1093                      .dwattr $C$DW$89, DW_AT_external
    1094                      .dwattr $C$DW$89, DW_AT_type(*$C$DW$T$20)
    1095                      .dwattr $C$DW$89, DW_AT_TI_begin_file("../FreeRTOS/Source/event_groups.c")
    1096                      .dwattr $C$DW$89, DW_AT_TI_begin_line(0x1cd)
    1097                      .dwattr $C$DW$89, DW_AT_TI_begin_column(0x0d)
    1098                      .dwattr $C$DW$89, DW_AT_TI_max_frame_size(0x0a)
    1099                      .dwpsn  file "../FreeRTOS/Source/event_groups.c",line 462,column 1,is_stmt,address _xEventGroupClearB
    1100              
    1101                      .dwfde $C$DW$CIE, _xEventGroupClearBits
    1102              $C$DW$90        .dwtag  DW_TAG_formal_parameter, DW_AT_name("xEventGroup")
    1103                      .dwattr $C$DW$90, DW_AT_TI_symbol_name("_xEventGroup")
    1104                      .dwattr $C$DW$90, DW_AT_type(*$C$DW$T$39)
    1105                      .dwattr $C$DW$90, DW_AT_location[DW_OP_reg17]
    1106              $C$DW$91        .dwtag  DW_TAG_formal_parameter, DW_AT_name("uxBitsToClear")
    1107                      .dwattr $C$DW$91, DW_AT_TI_symbol_name("_uxBitsToClear")
    1108                      .dwattr $C$DW$91, DW_AT_type(*$C$DW$T$65)
    1109                      .dwattr $C$DW$91, DW_AT_location[DW_OP_reg0]
    1110              ;*******************************************************************************
    1111              ;* FUNCTION NAME: xEventGroupClearBits                                         *
    1112              ;*                                                                             *
    1113              ;*   Function Uses Regs : AC0,AC0,AC1,AC1,AR0,XAR0,AR1,AR3,XAR3,SP,CARRY,M40,  *
    1114              ;*                        SATA,SATD,RDM,FRCT,SMUL                              *
    1115              ;*   Stack Frame        : Compact (No Frame Pointer, w/ debug)                 *
    1116              ;*   Total Frame Size   : 10 words                                             *
    1117              ;*                        (2 return address/alignment)                         *
    1118              ;*                        (8 local values)                                     *
    1119              ;*   Min System Stack   : 1 word                                               *
    1120              ;*******************************************************************************
    1121 000328       _xEventGroupClearBits:
    1122                      .dwcfi  cfa_offset, 1
    1123                      .dwcfi  save_reg_to_mem, 91, -1
    1124 000328 4EF7          AADD #-9, SP
    1125                      .dwcfi  cfa_offset, 10
    1126              $C$DW$92        .dwtag  DW_TAG_variable, DW_AT_name("xEventGroup")
    1127                      .dwattr $C$DW$92, DW_AT_TI_symbol_name("_xEventGroup")
    1128                      .dwattr $C$DW$92, DW_AT_type(*$C$DW$T$39)
    1129                      .dwattr $C$DW$92, DW_AT_location[DW_OP_bregx 0x24 0]
    1130              $C$DW$93        .dwtag  DW_TAG_variable, DW_AT_name("uxBitsToClear")
    1131                      .dwattr $C$DW$93, DW_AT_TI_symbol_name("_uxBitsToClear")
    1132                      .dwattr $C$DW$93, DW_AT_type(*$C$DW$T$65)
    1133                      .dwattr $C$DW$93, DW_AT_location[DW_OP_bregx 0x24 2]
    1134              $C$DW$94        .dwtag  DW_TAG_variable, DW_AT_name("pxEventBits")
    1135                      .dwattr $C$DW$94, DW_AT_TI_symbol_name("_pxEventBits")
    1136                      .dwattr $C$DW$94, DW_AT_type(*$C$DW$T$37)
    1137                      .dwattr $C$DW$94, DW_AT_location[DW_OP_bregx 0x24 4]
    1138              $C$DW$95        .dwtag  DW_TAG_variable, DW_AT_name("uxReturn")
    1139                      .dwattr $C$DW$95, DW_AT_TI_symbol_name("_uxReturn")
    1140                      .dwattr $C$DW$95, DW_AT_type(*$C$DW$T$20)
    1141                      .dwattr $C$DW$95, DW_AT_location[DW_OP_bregx 0x24 6]
    1142 00032a EB04          MOV AC0, dbl(*SP(#2)) ; |462| 
TMS320C55x Assembler PC v4.4.1 Sat Sep 15 04:08:18 2018

Tools Copyright (c) 1996-2012 Texas Instruments Incorporated
event_groups.asm                                                     PAGE   25

         00032c 08   
    1143 00032d EB00          MOV XAR0, dbl(*SP(#0))
         00032f 85   
    1144                      .dwpsn  file "../FreeRTOS/Source/event_groups.c",line 463,column 15,is_stmt
    1145 000330 ED00          MOV dbl(*SP(#0)), XAR3
         000332 BF   
    1146 000333 EB08          MOV XAR3, dbl(*SP(#4))
         000335 B5   
    1147                      .dwpsn  file "../FreeRTOS/Source/event_groups.c",line 468,column 2,is_stmt
    1148 000336 ED00          MOV dbl(*SP(#0)), XAR3
         000338 BF   
    1149 000339 90B0          MOV XAR3, AC0
    1150 00033b 6290          BCC $C$L42,AC0 != #0 ; |468| 
    1151                                                      ; branchcc occurs ; |468| 
    1152 00033d 20     nop
    1153 00033e 46B3   bset INTM
    1154 000340       $C$L41:    
    1155 000340       $C$DW$L$_xEventGroupClearBits$3$B:
    1156 000340 4A7E          B $C$L41  ; |468| 
    1157                                                      ; branch occurs ; |468| 
    1158 000342       $C$DW$L$_xEventGroupClearBits$3$E:
    1159 000342       $C$L42:    
    1160                      .dwpsn  file "../FreeRTOS/Source/event_groups.c",line 469,column 2,is_stmt
    1161 000342 ED04          MOV dbl(*SP(#2)), AC1 ; |469| 
         000344 18   
    1162 000345 7AFF          MOV #-256 << #16, AC0 ; |469| 
         000347 000A 
    1163 000349 2810          AND AC1, AC0 ; |469| 
    1164 00034b 3C09          MOV #0, AR1
    1165 00034d 6110          BCC $C$L43,AC0 != #0 ; |469| 
    1166                                                      ; branchcc occurs ; |469| 
    1167 00034f 3C19          MOV #1, AR1
    1168 000351       $C$L43:    
    1169 000351 6299          BCC $C$L45,AR1 != #0 ; |469| 
    1170                                                      ; branchcc occurs ; |469| 
    1171 000353 20     nop
    1172 000354 46B3   bset INTM
    1173 000356       $C$L44:    
    1174 000356       $C$DW$L$_xEventGroupClearBits$8$B:
    1175 000356 4A7E          B $C$L44  ; |469| 
    1176                                                      ; branch occurs ; |469| 
    1177 000358       $C$DW$L$_xEventGroupClearBits$8$E:
    1178 000358       $C$L45:    
    1179                      .dwpsn  file "../FreeRTOS/Source/event_groups.c",line 471,column 2,is_stmt
    1180 000358 20     nop
    1181 000359 46B3   bset INTM
    1182 00035b F731          ADD #1, *(#_usCriticalNesting) ; |471| 
         00035d 0001 
         00035f 0000 
         000361 00!  
    1183                      .dwpsn  file "../FreeRTOS/Source/event_groups.c",line 477,column 3,is_stmt
    1184 000362 ED08          MOV dbl(*SP(#4)), XAR3
         000364 BF   
    1185 000365 ED61          MOV dbl(*AR3), AC0 ; |477| 
         000367 08   
TMS320C55x Assembler PC v4.4.1 Sat Sep 15 04:08:18 2018

Tools Copyright (c) 1996-2012 Texas Instruments Incorporated
event_groups.asm                                                     PAGE   26

    1186 000368 EB0C          MOV AC0, dbl(*SP(#6)) ; |477| 
         00036a 08   
    1187                      .dwpsn  file "../FreeRTOS/Source/event_groups.c",line 480,column 3,is_stmt
    1188 00036b ED08          MOV dbl(*SP(#4)), XAR3
         00036d BF   
    1189 00036e ED04          MOV dbl(*SP(#2)), AC0 ; |480| 
         000370 08   
    1190              
    1191 000371 ED61          MOV dbl(*AR3), AC1 ; |480| 
         000373 18   
    1192 000374 3700  ||      NOT AC0, AC0 ; |480| 
    1193              
    1194 000376 2810          AND AC1, AC0 ; |480| 
    1195 000378 EB61          MOV AC0, dbl(*AR3) ; |480| 
         00037a 08   
    1196                      .dwpsn  file "../FreeRTOS/Source/event_groups.c",line 482,column 2,is_stmt
    1197 00037b A931          MOV *(#_usCriticalNesting), AR1 ; |482| 
         00037d 0000 
         00037f 00!  
    1198 000380 0409          BCC $C$L46,AR1 == #0 ; |482| 
         000382 14   
    1199                                                      ; branchcc occurs ; |482| 
    1200 000383 F731          SUB #1, *(#_usCriticalNesting) ; |482| 
         000385 FFFF 
         000387 0000 
         000389 00!  
    1201 00038a 20            NOP
    1202 00038b 20            NOP
    1203 00038c 20            NOP
    1204 00038d A931          MOV *(#_usCriticalNesting), AR1 ; |482| 
         00038f 0000 
         000391 00!  
    1205 000392 6199          BCC $C$L46,AR1 != #0 ; |482| 
    1206                                                      ; branchcc occurs ; |482| 
    1207 000394 20     nop
    1208 000395 46B2   bclr INTM
    1209 000397       $C$L46:    
    1210                      .dwpsn  file "../FreeRTOS/Source/event_groups.c",line 484,column 2,is_stmt
    1211 000397 ED0C          MOV dbl(*SP(#6)), AC0 ; |484| 
         000399 08   
    1212                      .dwpsn  file "../FreeRTOS/Source/event_groups.c",line 485,column 1,is_stmt
    1213 00039a 4E09          AADD #9, SP
    1214                      .dwcfi  cfa_offset, 1
    1215              $C$DW$96        .dwtag  DW_TAG_TI_branch
    1216                      .dwattr $C$DW$96, DW_AT_low_pc(0x00)
    1217                      .dwattr $C$DW$96, DW_AT_TI_return
    1218 00039c 4804          RET
    1219                                                      ; return occurs
    1220              
    1221              $C$DW$97        .dwtag  DW_TAG_TI_loop
    1222                      .dwattr $C$DW$97, DW_AT_name("F:\eZdsp_DBG\eZDSP_5535_Files\ccsws2\test\Debug\event_groups.asm:$C$L44
    1223                      .dwattr $C$DW$97, DW_AT_TI_begin_file("../FreeRTOS/Source/event_groups.c")
    1224                      .dwattr $C$DW$97, DW_AT_TI_begin_line(0x1d5)
    1225                      .dwattr $C$DW$97, DW_AT_TI_end_line(0x1d5)
    1226              $C$DW$98        .dwtag  DW_TAG_TI_loop_range
TMS320C55x Assembler PC v4.4.1 Sat Sep 15 04:08:18 2018

Tools Copyright (c) 1996-2012 Texas Instruments Incorporated
event_groups.asm                                                     PAGE   27

    1227                      .dwattr $C$DW$98, DW_AT_low_pc($C$DW$L$_xEventGroupClearBits$8$B)
    1228                      .dwattr $C$DW$98, DW_AT_high_pc($C$DW$L$_xEventGroupClearBits$8$E)
    1229                      .dwendtag $C$DW$97
    1230              
    1231              
    1232              $C$DW$99        .dwtag  DW_TAG_TI_loop
    1233                      .dwattr $C$DW$99, DW_AT_name("F:\eZdsp_DBG\eZDSP_5535_Files\ccsws2\test\Debug\event_groups.asm:$C$L41
    1234                      .dwattr $C$DW$99, DW_AT_TI_begin_file("../FreeRTOS/Source/event_groups.c")
    1235                      .dwattr $C$DW$99, DW_AT_TI_begin_line(0x1d4)
    1236                      .dwattr $C$DW$99, DW_AT_TI_end_line(0x1d4)
    1237              $C$DW$100       .dwtag  DW_TAG_TI_loop_range
    1238                      .dwattr $C$DW$100, DW_AT_low_pc($C$DW$L$_xEventGroupClearBits$3$B)
    1239                      .dwattr $C$DW$100, DW_AT_high_pc($C$DW$L$_xEventGroupClearBits$3$E)
    1240                      .dwendtag $C$DW$99
    1241              
    1242                      .dwattr $C$DW$89, DW_AT_TI_end_file("../FreeRTOS/Source/event_groups.c")
    1243                      .dwattr $C$DW$89, DW_AT_TI_end_line(0x1e5)
    1244                      .dwattr $C$DW$89, DW_AT_TI_end_column(0x01)
    1245                      .dwendentry
    1246                      .dwendtag $C$DW$89
    1247              
    1248 00039e               .sect   ".text"
    1249                      .align 4
    1250                      .global _xEventGroupGetBitsFromISR
    1251              
    1252              $C$DW$101       .dwtag  DW_TAG_subprogram, DW_AT_name("xEventGroupGetBitsFromISR")
    1253                      .dwattr $C$DW$101, DW_AT_low_pc(_xEventGroupGetBitsFromISR)
    1254                      .dwattr $C$DW$101, DW_AT_high_pc(0x00)
    1255                      .dwattr $C$DW$101, DW_AT_TI_symbol_name("_xEventGroupGetBitsFromISR")
    1256                      .dwattr $C$DW$101, DW_AT_external
    1257                      .dwattr $C$DW$101, DW_AT_type(*$C$DW$T$20)
    1258                      .dwattr $C$DW$101, DW_AT_TI_begin_file("../FreeRTOS/Source/event_groups.c")
    1259                      .dwattr $C$DW$101, DW_AT_TI_begin_line(0x1f7)
    1260                      .dwattr $C$DW$101, DW_AT_TI_begin_column(0x0d)
    1261                      .dwattr $C$DW$101, DW_AT_TI_max_frame_size(0x0a)
    1262                      .dwpsn  file "../FreeRTOS/Source/event_groups.c",line 504,column 1,is_stmt,address _xEventGroupGetBit
    1263              
    1264                      .dwfde $C$DW$CIE, _xEventGroupGetBitsFromISR
    1265              $C$DW$102       .dwtag  DW_TAG_formal_parameter, DW_AT_name("xEventGroup")
    1266                      .dwattr $C$DW$102, DW_AT_TI_symbol_name("_xEventGroup")
    1267                      .dwattr $C$DW$102, DW_AT_type(*$C$DW$T$39)
    1268                      .dwattr $C$DW$102, DW_AT_location[DW_OP_reg17]
    1269              ;*******************************************************************************
    1270              ;* FUNCTION NAME: xEventGroupGetBitsFromISR                                    *
    1271              ;*                                                                             *
    1272              ;*   Function Uses Regs : AC0,AC0,AR0,XAR0,AR3,XAR3,SP,M40,SATA,SATD,RDM,FRCT, *
    1273              ;*                        SMUL                                                 *
    1274              ;*   Stack Frame        : Compact (No Frame Pointer, w/ debug)                 *
    1275              ;*   Total Frame Size   : 10 words                                             *
    1276              ;*                        (2 return address/alignment)                         *
    1277              ;*                        (8 local values)                                     *
    1278              ;*   Min System Stack   : 1 word                                               *
    1279              ;*******************************************************************************
    1280 0003a0       _xEventGroupGetBitsFromISR:
    1281                      .dwcfi  cfa_offset, 1
TMS320C55x Assembler PC v4.4.1 Sat Sep 15 04:08:18 2018

Tools Copyright (c) 1996-2012 Texas Instruments Incorporated
event_groups.asm                                                     PAGE   28

    1282                      .dwcfi  save_reg_to_mem, 91, -1
    1283 0003a0 4EF7          AADD #-9, SP
    1284                      .dwcfi  cfa_offset, 10
    1285              $C$DW$103       .dwtag  DW_TAG_variable, DW_AT_name("xEventGroup")
    1286                      .dwattr $C$DW$103, DW_AT_TI_symbol_name("_xEventGroup")
    1287                      .dwattr $C$DW$103, DW_AT_type(*$C$DW$T$39)
    1288                      .dwattr $C$DW$103, DW_AT_location[DW_OP_bregx 0x24 0]
    1289              $C$DW$104       .dwtag  DW_TAG_variable, DW_AT_name("uxSavedInterruptStatus")
    1290                      .dwattr $C$DW$104, DW_AT_TI_symbol_name("_uxSavedInterruptStatus")
    1291                      .dwattr $C$DW$104, DW_AT_type(*$C$DW$T$23)
    1292                      .dwattr $C$DW$104, DW_AT_location[DW_OP_bregx 0x24 2]
    1293              $C$DW$105       .dwtag  DW_TAG_variable, DW_AT_name("pxEventBits")
    1294                      .dwattr $C$DW$105, DW_AT_TI_symbol_name("_pxEventBits")
    1295                      .dwattr $C$DW$105, DW_AT_type(*$C$DW$T$36)
    1296                      .dwattr $C$DW$105, DW_AT_location[DW_OP_bregx 0x24 4]
    1297              $C$DW$106       .dwtag  DW_TAG_variable, DW_AT_name("uxReturn")
    1298                      .dwattr $C$DW$106, DW_AT_TI_symbol_name("_uxReturn")
    1299                      .dwattr $C$DW$106, DW_AT_type(*$C$DW$T$20)
    1300                      .dwattr $C$DW$106, DW_AT_location[DW_OP_bregx 0x24 6]
    1301 0003a2 EB00          MOV XAR0, dbl(*SP(#0))
         0003a4 85   
    1302                      .dwpsn  file "../FreeRTOS/Source/event_groups.c",line 506,column 28,is_stmt
    1303 0003a5 ED00          MOV dbl(*SP(#0)), XAR3
         0003a7 BF   
    1304 0003a8 EB08          MOV XAR3, dbl(*SP(#4))
         0003aa B5   
    1305                      .dwpsn  file "../FreeRTOS/Source/event_groups.c",line 509,column 2,is_stmt
    1306 0003ab E604          MOV #0, *SP(#2) ; |509| 
         0003ad 00   
    1307                      .dwpsn  file "../FreeRTOS/Source/event_groups.c",line 511,column 3,is_stmt
    1308 0003ae ED08          MOV dbl(*SP(#4)), XAR3
         0003b0 BF   
    1309 0003b1 ED61          MOV dbl(*AR3), AC0 ; |511| 
         0003b3 08   
    1310 0003b4 EB0C          MOV AC0, dbl(*SP(#6)) ; |511| 
         0003b6 08   
    1311                      .dwpsn  file "../FreeRTOS/Source/event_groups.c",line 513,column 2,is_stmt
    1312                      .dwpsn  file "../FreeRTOS/Source/event_groups.c",line 515,column 2,is_stmt
    1313 0003b7 ED0C          MOV dbl(*SP(#6)), AC0 ; |515| 
         0003b9 08   
    1314                      .dwpsn  file "../FreeRTOS/Source/event_groups.c",line 516,column 1,is_stmt
    1315 0003ba 4E09          AADD #9, SP
    1316                      .dwcfi  cfa_offset, 1
    1317              $C$DW$107       .dwtag  DW_TAG_TI_branch
    1318                      .dwattr $C$DW$107, DW_AT_low_pc(0x00)
    1319                      .dwattr $C$DW$107, DW_AT_TI_return
    1320 0003bc 4804          RET
    1321                                                      ; return occurs
    1322                      .dwattr $C$DW$101, DW_AT_TI_end_file("../FreeRTOS/Source/event_groups.c")
    1323                      .dwattr $C$DW$101, DW_AT_TI_end_line(0x204)
    1324                      .dwattr $C$DW$101, DW_AT_TI_end_column(0x01)
    1325                      .dwendentry
    1326                      .dwendtag $C$DW$101
    1327              
    1328 0003be               .sect   ".text"
TMS320C55x Assembler PC v4.4.1 Sat Sep 15 04:08:18 2018

Tools Copyright (c) 1996-2012 Texas Instruments Incorporated
event_groups.asm                                                     PAGE   29

    1329                      .align 4
    1330                      .global _xEventGroupSetBits
    1331              
    1332              $C$DW$108       .dwtag  DW_TAG_subprogram, DW_AT_name("xEventGroupSetBits")
    1333                      .dwattr $C$DW$108, DW_AT_low_pc(_xEventGroupSetBits)
    1334                      .dwattr $C$DW$108, DW_AT_high_pc(0x00)
    1335                      .dwattr $C$DW$108, DW_AT_TI_symbol_name("_xEventGroupSetBits")
    1336                      .dwattr $C$DW$108, DW_AT_external
    1337                      .dwattr $C$DW$108, DW_AT_type(*$C$DW$T$20)
    1338                      .dwattr $C$DW$108, DW_AT_TI_begin_file("../FreeRTOS/Source/event_groups.c")
    1339                      .dwattr $C$DW$108, DW_AT_TI_begin_line(0x207)
    1340                      .dwattr $C$DW$108, DW_AT_TI_begin_column(0x0d)
    1341                      .dwattr $C$DW$108, DW_AT_TI_max_frame_size(0x16)
    1342                      .dwpsn  file "../FreeRTOS/Source/event_groups.c",line 520,column 1,is_stmt,address _xEventGroupSetBit
    1343              
    1344                      .dwfde $C$DW$CIE, _xEventGroupSetBits
    1345              $C$DW$109       .dwtag  DW_TAG_formal_parameter, DW_AT_name("xEventGroup")
    1346                      .dwattr $C$DW$109, DW_AT_TI_symbol_name("_xEventGroup")
    1347                      .dwattr $C$DW$109, DW_AT_type(*$C$DW$T$39)
    1348                      .dwattr $C$DW$109, DW_AT_location[DW_OP_reg17]
    1349              $C$DW$110       .dwtag  DW_TAG_formal_parameter, DW_AT_name("uxBitsToSet")
    1350                      .dwattr $C$DW$110, DW_AT_TI_symbol_name("_uxBitsToSet")
    1351                      .dwattr $C$DW$110, DW_AT_type(*$C$DW$T$65)
    1352                      .dwattr $C$DW$110, DW_AT_location[DW_OP_reg0]
    1353              ;*******************************************************************************
    1354              ;* FUNCTION NAME: xEventGroupSetBits                                           *
    1355              ;*                                                                             *
    1356              ;*   Function Uses Regs : AC0,AC0,AC1,AC1,AR0,XAR0,AR1,AR3,XAR3,SP,TC1,M40,    *
    1357              ;*                        SATA,SATD,RDM,FRCT,SMUL                              *
    1358              ;*   Stack Frame        : Compact (No Frame Pointer, w/ debug)                 *
    1359              ;*   Total Frame Size   : 22 words                                             *
    1360              ;*                        (1 return address/alignment)                         *
    1361              ;*                        (21 local values)                                    *
    1362              ;*   Min System Stack   : 1 word                                               *
    1363              ;*******************************************************************************
    1364 0003c0       _xEventGroupSetBits:
    1365                      .dwcfi  cfa_offset, 1
    1366                      .dwcfi  save_reg_to_mem, 91, -1
    1367 0003c0 4EEB          AADD #-21, SP
    1368                      .dwcfi  cfa_offset, 22
    1369              $C$DW$111       .dwtag  DW_TAG_variable, DW_AT_name("xEventGroup")
    1370                      .dwattr $C$DW$111, DW_AT_TI_symbol_name("_xEventGroup")
    1371                      .dwattr $C$DW$111, DW_AT_type(*$C$DW$T$39)
    1372                      .dwattr $C$DW$111, DW_AT_location[DW_OP_bregx 0x24 0]
    1373              $C$DW$112       .dwtag  DW_TAG_variable, DW_AT_name("uxBitsToSet")
    1374                      .dwattr $C$DW$112, DW_AT_TI_symbol_name("_uxBitsToSet")
    1375                      .dwattr $C$DW$112, DW_AT_type(*$C$DW$T$65)
    1376                      .dwattr $C$DW$112, DW_AT_location[DW_OP_bregx 0x24 2]
    1377              $C$DW$113       .dwtag  DW_TAG_variable, DW_AT_name("pxListItem")
    1378                      .dwattr $C$DW$113, DW_AT_TI_symbol_name("_pxListItem")
    1379                      .dwattr $C$DW$113, DW_AT_type(*$C$DW$T$26)
    1380                      .dwattr $C$DW$113, DW_AT_location[DW_OP_bregx 0x24 4]
    1381              $C$DW$114       .dwtag  DW_TAG_variable, DW_AT_name("pxNext")
    1382                      .dwattr $C$DW$114, DW_AT_TI_symbol_name("_pxNext")
    1383                      .dwattr $C$DW$114, DW_AT_type(*$C$DW$T$26)
TMS320C55x Assembler PC v4.4.1 Sat Sep 15 04:08:18 2018

Tools Copyright (c) 1996-2012 Texas Instruments Incorporated
event_groups.asm                                                     PAGE   30

    1384                      .dwattr $C$DW$114, DW_AT_location[DW_OP_bregx 0x24 6]
    1385              $C$DW$115       .dwtag  DW_TAG_variable, DW_AT_name("pxListEnd")
    1386                      .dwattr $C$DW$115, DW_AT_TI_symbol_name("_pxListEnd")
    1387                      .dwattr $C$DW$115, DW_AT_type(*$C$DW$T$80)
    1388                      .dwattr $C$DW$115, DW_AT_location[DW_OP_bregx 0x24 8]
    1389              $C$DW$116       .dwtag  DW_TAG_variable, DW_AT_name("pxList")
    1390                      .dwattr $C$DW$116, DW_AT_TI_symbol_name("_pxList")
    1391                      .dwattr $C$DW$116, DW_AT_type(*$C$DW$T$78)
    1392                      .dwattr $C$DW$116, DW_AT_location[DW_OP_bregx 0x24 10]
    1393              $C$DW$117       .dwtag  DW_TAG_variable, DW_AT_name("uxBitsToClear")
    1394                      .dwattr $C$DW$117, DW_AT_TI_symbol_name("_uxBitsToClear")
    1395                      .dwattr $C$DW$117, DW_AT_type(*$C$DW$T$20)
    1396                      .dwattr $C$DW$117, DW_AT_location[DW_OP_bregx 0x24 12]
    1397              $C$DW$118       .dwtag  DW_TAG_variable, DW_AT_name("uxBitsWaitedFor")
    1398                      .dwattr $C$DW$118, DW_AT_TI_symbol_name("_uxBitsWaitedFor")
    1399                      .dwattr $C$DW$118, DW_AT_type(*$C$DW$T$20)
    1400                      .dwattr $C$DW$118, DW_AT_location[DW_OP_bregx 0x24 14]
    1401              $C$DW$119       .dwtag  DW_TAG_variable, DW_AT_name("uxControlBits")
    1402                      .dwattr $C$DW$119, DW_AT_TI_symbol_name("_uxControlBits")
    1403                      .dwattr $C$DW$119, DW_AT_type(*$C$DW$T$20)
    1404                      .dwattr $C$DW$119, DW_AT_location[DW_OP_bregx 0x24 16]
    1405              $C$DW$120       .dwtag  DW_TAG_variable, DW_AT_name("pxEventBits")
    1406                      .dwattr $C$DW$120, DW_AT_TI_symbol_name("_pxEventBits")
    1407                      .dwattr $C$DW$120, DW_AT_type(*$C$DW$T$37)
    1408                      .dwattr $C$DW$120, DW_AT_location[DW_OP_bregx 0x24 18]
    1409              $C$DW$121       .dwtag  DW_TAG_variable, DW_AT_name("xMatchFound")
    1410                      .dwattr $C$DW$121, DW_AT_TI_symbol_name("_xMatchFound")
    1411                      .dwattr $C$DW$121, DW_AT_type(*$C$DW$T$61)
    1412                      .dwattr $C$DW$121, DW_AT_location[DW_OP_bregx 0x24 20]
    1413 0003c2 EB04          MOV AC0, dbl(*SP(#2)) ; |520| 
         0003c4 08   
    1414 0003c5 EB00          MOV XAR0, dbl(*SP(#0))
         0003c7 85   
    1415                      .dwpsn  file "../FreeRTOS/Source/event_groups.c",line 524,column 13,is_stmt
    1416 0003c8 3C00          MOV #0, AC0 ; |524| 
    1417 0003ca EB18          MOV AC0, dbl(*SP(#12)) ; |524| 
         0003cc 08   
    1418                      .dwpsn  file "../FreeRTOS/Source/event_groups.c",line 525,column 15,is_stmt
    1419 0003cd ED00          MOV dbl(*SP(#0)), XAR3
         0003cf BF   
    1420 0003d0 EB24          MOV XAR3, dbl(*SP(#18))
         0003d2 B5   
    1421                      .dwpsn  file "../FreeRTOS/Source/event_groups.c",line 526,column 12,is_stmt
    1422 0003d3 E628          MOV #0, *SP(#20) ; |526| 
         0003d5 00   
    1423                      .dwpsn  file "../FreeRTOS/Source/event_groups.c",line 530,column 2,is_stmt
    1424 0003d6 ED00          MOV dbl(*SP(#0)), XAR3
         0003d8 BF   
    1425 0003d9 90B0          MOV XAR3, AC0
    1426 0003db 6290          BCC $C$L48,AC0 != #0 ; |530| 
    1427                                                      ; branchcc occurs ; |530| 
    1428 0003dd 20     nop
    1429 0003de 46B3   bset INTM
    1430 0003e0       $C$L47:    
    1431 0003e0       $C$DW$L$_xEventGroupSetBits$3$B:
TMS320C55x Assembler PC v4.4.1 Sat Sep 15 04:08:18 2018

Tools Copyright (c) 1996-2012 Texas Instruments Incorporated
event_groups.asm                                                     PAGE   31

    1432 0003e0 4A7E          B $C$L47  ; |530| 
    1433                                                      ; branch occurs ; |530| 
    1434 0003e2       $C$DW$L$_xEventGroupSetBits$3$E:
    1435 0003e2       $C$L48:    
    1436                      .dwpsn  file "../FreeRTOS/Source/event_groups.c",line 531,column 2,is_stmt
    1437 0003e2 ED04          MOV dbl(*SP(#2)), AC1 ; |531| 
         0003e4 18   
    1438 0003e5 7AFF          MOV #-256 << #16, AC0 ; |531| 
         0003e7 000A 
    1439 0003e9 2810          AND AC1, AC0 ; |531| 
    1440 0003eb 3C09          MOV #0, AR1
    1441 0003ed 6110          BCC $C$L49,AC0 != #0 ; |531| 
    1442                                                      ; branchcc occurs ; |531| 
    1443 0003ef 3C19          MOV #1, AR1
    1444 0003f1       $C$L49:    
    1445 0003f1 6299          BCC $C$L51,AR1 != #0 ; |531| 
    1446                                                      ; branchcc occurs ; |531| 
    1447 0003f3 20     nop
    1448 0003f4 46B3   bset INTM
    1449 0003f6       $C$L50:    
    1450 0003f6       $C$DW$L$_xEventGroupSetBits$8$B:
    1451 0003f6 4A7E          B $C$L50  ; |531| 
    1452                                                      ; branch occurs ; |531| 
    1453 0003f8       $C$DW$L$_xEventGroupSetBits$8$E:
    1454 0003f8       $C$L51:    
    1455                      .dwpsn  file "../FreeRTOS/Source/event_groups.c",line 533,column 2,is_stmt
    1456 0003f8 ED24          MOV dbl(*SP(#18)), XAR3
         0003fa BF   
    1457              
    1458 0003fb 8E14          MOV XAR3, dbl(*SP(#10))
         0003fd BB14 
         0003ff B502 
    1459              ||      AADD #2, AR3 ; |533| 
    1460              
    1461                      .dwpsn  file "../FreeRTOS/Source/event_groups.c",line 534,column 2,is_stmt
    1462              
    1463 000401 8E10          MOV XAR3, dbl(*SP(#8))
         000403 BB14 
         000405 B504 
    1464              ||      AADD #4, AR3 ; |534| 
    1465              
    1466                      .dwpsn  file "../FreeRTOS/Source/event_groups.c",line 535,column 2,is_stmt
    1467              $C$DW$122       .dwtag  DW_TAG_TI_branch
    1468                      .dwattr $C$DW$122, DW_AT_low_pc(0x00)
    1469                      .dwattr $C$DW$122, DW_AT_name("_vTaskSuspendAll")
    1470                      .dwattr $C$DW$122, DW_AT_TI_call
    1471 000407 6C00          CALL #_vTaskSuspendAll ; |535| 
         000409 0000!
    1472                                                      ; call occurs [#_vTaskSuspendAll] ; |535| 
    1473                      .dwpsn  file "../FreeRTOS/Source/event_groups.c",line 539,column 3,is_stmt
    1474 00040b ED14          MOV dbl(*SP(#10)), XAR3
         00040d BF   
    1475 00040e ED7D          MOV dbl(*AR3(short(#6))), XAR3
         000410 BF   
    1476 000411 EB08          MOV XAR3, dbl(*SP(#4))
TMS320C55x Assembler PC v4.4.1 Sat Sep 15 04:08:18 2018

Tools Copyright (c) 1996-2012 Texas Instruments Incorporated
event_groups.asm                                                     PAGE   32

         000413 B5   
    1477                      .dwpsn  file "../FreeRTOS/Source/event_groups.c",line 542,column 3,is_stmt
    1478 000414 ED24          MOV dbl(*SP(#18)), XAR3
         000416 BF   
    1479 000417 ED04          MOV dbl(*SP(#2)), AC0 ; |542| 
         000419 08   
    1480 00041a ED61          MOV dbl(*AR3), AC1 ; |542| 
         00041c 18   
    1481 00041d 2A10          OR AC1, AC0 ; |542| 
    1482 00041f EB61          MOV AC0, dbl(*AR3) ; |542| 
         000421 08   
    1483                      .dwpsn  file "../FreeRTOS/Source/event_groups.c",line 545,column 10,is_stmt
    1484 000422 ED10          MOV dbl(*SP(#8)), XAR3
         000424 BF   
    1485 000425 90B0          MOV XAR3, AC0
    1486 000427 ED08          MOV dbl(*SP(#4)), XAR3
         000429 BF   
    1487 00042a 90B1          MOV XAR3, AC1
    1488 00042c 1210          CMPU AC1 == AC0, TC1 ; |545| 
         00042e 04   
    1489 00042f 6D64          BCC $C$L57,TC1 ; |545| 
         000431 00A5 
    1490                                                      ; branchcc occurs ; |545| 
    1491 000433       $C$L52:    
    1492 000433       $C$DW$L$_xEventGroupSetBits$10$B:
    1493                      .dwpsn  file "../FreeRTOS/Source/event_groups.c",line 547,column 4,is_stmt
    1494 000433 ED75          MOV dbl(*AR3(short(#2))), XAR3
         000435 BF   
    1495 000436 EB0C          MOV XAR3, dbl(*SP(#6))
         000438 B5   
    1496                      .dwpsn  file "../FreeRTOS/Source/event_groups.c",line 548,column 4,is_stmt
    1497 000439 ED08          MOV dbl(*SP(#4)), XAR3
         00043b BF   
    1498 00043c ED61          MOV dbl(*AR3), AC0 ; |548| 
         00043e 08   
    1499 00043f EB1C          MOV AC0, dbl(*SP(#14)) ; |548| 
         000441 08   
    1500                      .dwpsn  file "../FreeRTOS/Source/event_groups.c",line 549,column 4,is_stmt
    1501 000442 E628          MOV #0, *SP(#20) ; |549| 
         000444 00   
    1502                      .dwpsn  file "../FreeRTOS/Source/event_groups.c",line 552,column 4,is_stmt
    1503 000445 ED1C          MOV dbl(*SP(#14)), AC1 ; |552| 
         000447 18   
    1504 000448 7AFF          MOV #-256 << #16, AC0 ; |552| 
         00044a 000A 
    1505 00044c 2810          AND AC1, AC0 ; |552| 
    1506 00044e EB20          MOV AC0, dbl(*SP(#16)) ; |552| 
         000450 08   
    1507                      .dwpsn  file "../FreeRTOS/Source/event_groups.c",line 553,column 4,is_stmt
    1508 000451 7A00          MOV #255 << #16, AC0 ; |553| 
         000453 FF0A 
    1509 000455 7EFF          OR #0xffff, AC0, AC0 ; |553| 
         000457 FF00 
    1510 000459 ED1C          MOV dbl(*SP(#14)), AC1 ; |553| 
         00045b 18   
TMS320C55x Assembler PC v4.4.1 Sat Sep 15 04:08:18 2018

Tools Copyright (c) 1996-2012 Texas Instruments Incorporated
event_groups.asm                                                     PAGE   33

    1511 00045c 2810          AND AC1, AC0 ; |553| 
    1512 00045e EB1C          MOV AC0, dbl(*SP(#14)) ; |553| 
         000460 08   
    1513                      .dwpsn  file "../FreeRTOS/Source/event_groups.c",line 555,column 4,is_stmt
    1514 000461 7A04          MOV #1024 << #16, AC0 ; |555| 
         000463 000A 
    1515 000465 ED20          MOV dbl(*SP(#16)), AC1 ; |555| 
         000467 18   
    1516 000468 2810          AND AC1, AC0 ; |555| 
    1517 00046a 0410          BCC $C$L53,AC0 != #0 ; |555| 
         00046c 13   
    1518                                                      ; branchcc occurs ; |555| 
    1519 00046d       $C$DW$L$_xEventGroupSetBits$10$E:
    1520 00046d       $C$DW$L$_xEventGroupSetBits$11$B:
    1521                      .dwpsn  file "../FreeRTOS/Source/event_groups.c",line 558,column 5,is_stmt
    1522 00046d ED24          MOV dbl(*SP(#18)), XAR3
         00046f BF   
    1523 000470 ED1C          MOV dbl(*SP(#14)), AC1 ; |558| 
         000472 18   
    1524 000473 ED61          MOV dbl(*AR3), AC0 ; |558| 
         000475 08   
    1525 000476 2810          AND AC1, AC0 ; |558| 
    1526 000478 0400          BCC $C$L54,AC0 == #0 ; |558| 
         00047a 1B   
    1527                                                      ; branchcc occurs ; |558| 
    1528 00047b       $C$DW$L$_xEventGroupSetBits$11$E:
    1529 00047b       $C$DW$L$_xEventGroupSetBits$12$B:
    1530                      .dwpsn  file "../FreeRTOS/Source/event_groups.c",line 560,column 6,is_stmt
    1531 00047b E628          MOV #1, *SP(#20) ; |560| 
         00047d 01   
    1532                      .dwpsn  file "../FreeRTOS/Source/event_groups.c",line 561,column 5,is_stmt
    1533 00047e 4A16          B $C$L54  ; |561| 
    1534                                                      ; branch occurs ; |561| 
    1535 000480       $C$DW$L$_xEventGroupSetBits$12$E:
    1536 000480       $C$L53:    
    1537 000480       $C$DW$L$_xEventGroupSetBits$14$B:
    1538                      .dwpsn  file "../FreeRTOS/Source/event_groups.c",line 567,column 9,is_stmt
    1539 000480 ED24          MOV dbl(*SP(#18)), XAR3
         000482 BF   
    1540 000483 ED1C          MOV dbl(*SP(#14)), AC1 ; |567| 
         000485 18   
    1541 000486 ED61          MOV dbl(*AR3), AC0 ; |567| 
         000488 08   
    1542              
    1543 000489 ED1C          MOV dbl(*SP(#14)), AC1 ; |567| 
         00048b 18   
    1544 00048c 2910  ||      AND AC1, AC0 ; |567| 
    1545              
    1546 00048e 120C          CMPU AC0 != AC1, TC1 ; |567| 
         000490 14   
    1547 000491 61E4          BCC $C$L54,TC1 ; |567| 
    1548                                                      ; branchcc occurs ; |567| 
    1549 000493       $C$DW$L$_xEventGroupSetBits$14$E:
    1550 000493       $C$DW$L$_xEventGroupSetBits$15$B:
    1551                      .dwpsn  file "../FreeRTOS/Source/event_groups.c",line 570,column 5,is_stmt
TMS320C55x Assembler PC v4.4.1 Sat Sep 15 04:08:18 2018

Tools Copyright (c) 1996-2012 Texas Instruments Incorporated
event_groups.asm                                                     PAGE   34

    1552 000493 E628          MOV #1, *SP(#20) ; |570| 
         000495 01   
    1553                      .dwpsn  file "../FreeRTOS/Source/event_groups.c",line 571,column 4,is_stmt
    1554 000496       $C$DW$L$_xEventGroupSetBits$15$E:
    1555 000496       $C$L54:    
    1556 000496       $C$DW$L$_xEventGroupSetBits$16$B:
    1557                      .dwpsn  file "../FreeRTOS/Source/event_groups.c",line 577,column 4,is_stmt
    1558 000496 A928          MOV *SP(#20), AR1 ; |577| 
    1559 000498 0409          BCC $C$L56,AR1 == #0 ; |577| 
         00049a 26   
    1560                                                      ; branchcc occurs ; |577| 
    1561 00049b       $C$DW$L$_xEventGroupSetBits$16$E:
    1562 00049b       $C$DW$L$_xEventGroupSetBits$17$B:
    1563                      .dwpsn  file "../FreeRTOS/Source/event_groups.c",line 580,column 5,is_stmt
    1564 00049b ED20          MOV dbl(*SP(#16)), AC1 ; |580| 
         00049d 18   
    1565 00049e 7A01          MOV #256 << #16, AC0 ; |580| 
         0004a0 000A 
    1566 0004a2 2810          AND AC1, AC0 ; |580| 
    1567 0004a4 6580          BCC $C$L55,AC0 == #0 ; |580| 
    1568                                                      ; branchcc occurs ; |580| 
    1569 0004a6       $C$DW$L$_xEventGroupSetBits$17$E:
    1570 0004a6       $C$DW$L$_xEventGroupSetBits$18$B:
    1571                      .dwpsn  file "../FreeRTOS/Source/event_groups.c",line 582,column 6,is_stmt
    1572 0004a6 ED18          MOV dbl(*SP(#12)), AC1 ; |582| 
         0004a8 18   
    1573 0004a9 ED1C          MOV dbl(*SP(#14)), AC0 ; |582| 
         0004ab 08   
    1574 0004ac 2A10          OR AC1, AC0 ; |582| 
    1575 0004ae EB18          MOV AC0, dbl(*SP(#12)) ; |582| 
         0004b0 08   
    1576                      .dwpsn  file "../FreeRTOS/Source/event_groups.c",line 583,column 5,is_stmt
    1577 0004b1       $C$DW$L$_xEventGroupSetBits$18$E:
    1578 0004b1       $C$L55:    
    1579 0004b1       $C$DW$L$_xEventGroupSetBits$19$B:
    1580                      .dwpsn  file "../FreeRTOS/Source/event_groups.c",line 594,column 5,is_stmt
    1581 0004b1 ED24          MOV dbl(*SP(#18)), XAR3
         0004b3 BF   
    1582 0004b4 ED08          MOV dbl(*SP(#4)), XAR0
         0004b6 8F   
    1583 0004b7 ED61          MOV dbl(*AR3), AC0 ; |594| 
         0004b9 08   
    1584 0004ba EC32          BSET @#25, AC0 ; |594| 
         0004bc 00   
    1585              $C$DW$123       .dwtag  DW_TAG_TI_branch
    1586                      .dwattr $C$DW$123, DW_AT_low_pc(0x00)
    1587                      .dwattr $C$DW$123, DW_AT_name("_vTaskRemoveFromUnorderedEventList")
    1588                      .dwattr $C$DW$123, DW_AT_TI_call
    1589 0004bd 6C00          CALL #_vTaskRemoveFromUnorderedEventList ; |594| 
         0004bf 0000!
    1590                                                      ; call occurs [#_vTaskRemoveFromUnorderedEventList] ; |594| 
    1591 0004c1       $C$DW$L$_xEventGroupSetBits$19$E:
    1592 0004c1       $C$L56:    
    1593 0004c1       $C$DW$L$_xEventGroupSetBits$20$B:
    1594                      .dwpsn  file "../FreeRTOS/Source/event_groups.c",line 600,column 4,is_stmt
TMS320C55x Assembler PC v4.4.1 Sat Sep 15 04:08:18 2018

Tools Copyright (c) 1996-2012 Texas Instruments Incorporated
event_groups.asm                                                     PAGE   35

    1595 0004c1 ED0C          MOV dbl(*SP(#6)), XAR3
         0004c3 BF   
    1596 0004c4 EB08          MOV XAR3, dbl(*SP(#4))
         0004c6 B5   
    1597                      .dwpsn  file "../FreeRTOS/Source/event_groups.c",line 545,column 10,is_stmt
    1598 0004c7 ED10          MOV dbl(*SP(#8)), XAR3
         0004c9 BF   
    1599 0004ca 90B0          MOV XAR3, AC0
    1600 0004cc ED08          MOV dbl(*SP(#4)), XAR3
         0004ce BF   
    1601 0004cf 90B1          MOV XAR3, AC1
    1602 0004d1 121C          CMPU AC1 != AC0, TC1 ; |545| 
         0004d3 04   
    1603 0004d4 6D64          BCC $C$L52,TC1 ; |545| 
         0004d6 FF5B 
    1604                                                      ; branchcc occurs ; |545| 
    1605 0004d8       $C$DW$L$_xEventGroupSetBits$20$E:
    1606 0004d8       $C$L57:    
    1607                      .dwpsn  file "../FreeRTOS/Source/event_groups.c",line 605,column 3,is_stmt
    1608 0004d8 ED24          MOV dbl(*SP(#18)), XAR3
         0004da BF   
    1609 0004db ED18          MOV dbl(*SP(#12)), AC0 ; |605| 
         0004dd 08   
    1610              
    1611 0004de ED61          MOV dbl(*AR3), AC1 ; |605| 
         0004e0 18   
    1612 0004e1 3700  ||      NOT AC0, AC0 ; |605| 
    1613              
    1614 0004e3 2810          AND AC1, AC0 ; |605| 
    1615 0004e5 EB61          MOV AC0, dbl(*AR3) ; |605| 
         0004e7 08   
    1616                      .dwpsn  file "../FreeRTOS/Source/event_groups.c",line 607,column 2,is_stmt
    1617              $C$DW$124       .dwtag  DW_TAG_TI_branch
    1618                      .dwattr $C$DW$124, DW_AT_low_pc(0x00)
    1619                      .dwattr $C$DW$124, DW_AT_name("_xTaskResumeAll")
    1620                      .dwattr $C$DW$124, DW_AT_TI_call
    1621 0004e8 6C00          CALL #_xTaskResumeAll ; |607| 
         0004ea 0000!
    1622                                                      ; call occurs [#_xTaskResumeAll] ; |607| 
    1623                      .dwpsn  file "../FreeRTOS/Source/event_groups.c",line 609,column 2,is_stmt
    1624 0004ec ED24          MOV dbl(*SP(#18)), XAR3
         0004ee BF   
    1625 0004ef ED61          MOV dbl(*AR3), AC0 ; |609| 
         0004f1 08   
    1626                      .dwpsn  file "../FreeRTOS/Source/event_groups.c",line 610,column 1,is_stmt
    1627 0004f2 4E15          AADD #21, SP
    1628                      .dwcfi  cfa_offset, 1
    1629              $C$DW$125       .dwtag  DW_TAG_TI_branch
    1630                      .dwattr $C$DW$125, DW_AT_low_pc(0x00)
    1631                      .dwattr $C$DW$125, DW_AT_TI_return
    1632 0004f4 4804          RET
    1633                                                      ; return occurs
    1634              
    1635              $C$DW$126       .dwtag  DW_TAG_TI_loop
    1636                      .dwattr $C$DW$126, DW_AT_name("F:\eZdsp_DBG\eZDSP_5535_Files\ccsws2\test\Debug\event_groups.asm:$C$L5
TMS320C55x Assembler PC v4.4.1 Sat Sep 15 04:08:18 2018

Tools Copyright (c) 1996-2012 Texas Instruments Incorporated
event_groups.asm                                                     PAGE   36

    1637                      .dwattr $C$DW$126, DW_AT_TI_begin_file("../FreeRTOS/Source/event_groups.c")
    1638                      .dwattr $C$DW$126, DW_AT_TI_begin_line(0x221)
    1639                      .dwattr $C$DW$126, DW_AT_TI_end_line(0x259)
    1640              $C$DW$127       .dwtag  DW_TAG_TI_loop_range
    1641                      .dwattr $C$DW$127, DW_AT_low_pc($C$DW$L$_xEventGroupSetBits$10$B)
    1642                      .dwattr $C$DW$127, DW_AT_high_pc($C$DW$L$_xEventGroupSetBits$10$E)
    1643              $C$DW$128       .dwtag  DW_TAG_TI_loop_range
    1644                      .dwattr $C$DW$128, DW_AT_low_pc($C$DW$L$_xEventGroupSetBits$17$B)
    1645                      .dwattr $C$DW$128, DW_AT_high_pc($C$DW$L$_xEventGroupSetBits$17$E)
    1646              $C$DW$129       .dwtag  DW_TAG_TI_loop_range
    1647                      .dwattr $C$DW$129, DW_AT_low_pc($C$DW$L$_xEventGroupSetBits$18$B)
    1648                      .dwattr $C$DW$129, DW_AT_high_pc($C$DW$L$_xEventGroupSetBits$18$E)
    1649              $C$DW$130       .dwtag  DW_TAG_TI_loop_range
    1650                      .dwattr $C$DW$130, DW_AT_low_pc($C$DW$L$_xEventGroupSetBits$11$B)
    1651                      .dwattr $C$DW$130, DW_AT_high_pc($C$DW$L$_xEventGroupSetBits$11$E)
    1652              $C$DW$131       .dwtag  DW_TAG_TI_loop_range
    1653                      .dwattr $C$DW$131, DW_AT_low_pc($C$DW$L$_xEventGroupSetBits$12$B)
    1654                      .dwattr $C$DW$131, DW_AT_high_pc($C$DW$L$_xEventGroupSetBits$12$E)
    1655              $C$DW$132       .dwtag  DW_TAG_TI_loop_range
    1656                      .dwattr $C$DW$132, DW_AT_low_pc($C$DW$L$_xEventGroupSetBits$14$B)
    1657                      .dwattr $C$DW$132, DW_AT_high_pc($C$DW$L$_xEventGroupSetBits$14$E)
    1658              $C$DW$133       .dwtag  DW_TAG_TI_loop_range
    1659                      .dwattr $C$DW$133, DW_AT_low_pc($C$DW$L$_xEventGroupSetBits$15$B)
    1660                      .dwattr $C$DW$133, DW_AT_high_pc($C$DW$L$_xEventGroupSetBits$15$E)
    1661              $C$DW$134       .dwtag  DW_TAG_TI_loop_range
    1662                      .dwattr $C$DW$134, DW_AT_low_pc($C$DW$L$_xEventGroupSetBits$16$B)
    1663                      .dwattr $C$DW$134, DW_AT_high_pc($C$DW$L$_xEventGroupSetBits$16$E)
    1664              $C$DW$135       .dwtag  DW_TAG_TI_loop_range
    1665                      .dwattr $C$DW$135, DW_AT_low_pc($C$DW$L$_xEventGroupSetBits$19$B)
    1666                      .dwattr $C$DW$135, DW_AT_high_pc($C$DW$L$_xEventGroupSetBits$19$E)
    1667              $C$DW$136       .dwtag  DW_TAG_TI_loop_range
    1668                      .dwattr $C$DW$136, DW_AT_low_pc($C$DW$L$_xEventGroupSetBits$20$B)
    1669                      .dwattr $C$DW$136, DW_AT_high_pc($C$DW$L$_xEventGroupSetBits$20$E)
    1670                      .dwendtag $C$DW$126
    1671              
    1672              
    1673              $C$DW$137       .dwtag  DW_TAG_TI_loop
    1674                      .dwattr $C$DW$137, DW_AT_name("F:\eZdsp_DBG\eZDSP_5535_Files\ccsws2\test\Debug\event_groups.asm:$C$L5
    1675                      .dwattr $C$DW$137, DW_AT_TI_begin_file("../FreeRTOS/Source/event_groups.c")
    1676                      .dwattr $C$DW$137, DW_AT_TI_begin_line(0x213)
    1677                      .dwattr $C$DW$137, DW_AT_TI_end_line(0x213)
    1678              $C$DW$138       .dwtag  DW_TAG_TI_loop_range
    1679                      .dwattr $C$DW$138, DW_AT_low_pc($C$DW$L$_xEventGroupSetBits$8$B)
    1680                      .dwattr $C$DW$138, DW_AT_high_pc($C$DW$L$_xEventGroupSetBits$8$E)
    1681                      .dwendtag $C$DW$137
    1682              
    1683              
    1684              $C$DW$139       .dwtag  DW_TAG_TI_loop
    1685                      .dwattr $C$DW$139, DW_AT_name("F:\eZdsp_DBG\eZDSP_5535_Files\ccsws2\test\Debug\event_groups.asm:$C$L4
    1686                      .dwattr $C$DW$139, DW_AT_TI_begin_file("../FreeRTOS/Source/event_groups.c")
    1687                      .dwattr $C$DW$139, DW_AT_TI_begin_line(0x212)
    1688                      .dwattr $C$DW$139, DW_AT_TI_end_line(0x212)
    1689              $C$DW$140       .dwtag  DW_TAG_TI_loop_range
    1690                      .dwattr $C$DW$140, DW_AT_low_pc($C$DW$L$_xEventGroupSetBits$3$B)
    1691                      .dwattr $C$DW$140, DW_AT_high_pc($C$DW$L$_xEventGroupSetBits$3$E)
TMS320C55x Assembler PC v4.4.1 Sat Sep 15 04:08:18 2018

Tools Copyright (c) 1996-2012 Texas Instruments Incorporated
event_groups.asm                                                     PAGE   37

    1692                      .dwendtag $C$DW$139
    1693              
    1694                      .dwattr $C$DW$108, DW_AT_TI_end_file("../FreeRTOS/Source/event_groups.c")
    1695                      .dwattr $C$DW$108, DW_AT_TI_end_line(0x262)
    1696                      .dwattr $C$DW$108, DW_AT_TI_end_column(0x01)
    1697                      .dwendentry
    1698                      .dwendtag $C$DW$108
    1699              
    1700 0004f6               .sect   ".text"
    1701                      .align 4
    1702                      .global _vEventGroupDelete
    1703              
    1704              $C$DW$141       .dwtag  DW_TAG_subprogram, DW_AT_name("vEventGroupDelete")
    1705                      .dwattr $C$DW$141, DW_AT_low_pc(_vEventGroupDelete)
    1706                      .dwattr $C$DW$141, DW_AT_high_pc(0x00)
    1707                      .dwattr $C$DW$141, DW_AT_TI_symbol_name("_vEventGroupDelete")
    1708                      .dwattr $C$DW$141, DW_AT_external
    1709                      .dwattr $C$DW$141, DW_AT_TI_begin_file("../FreeRTOS/Source/event_groups.c")
    1710                      .dwattr $C$DW$141, DW_AT_TI_begin_line(0x265)
    1711                      .dwattr $C$DW$141, DW_AT_TI_begin_column(0x06)
    1712                      .dwattr $C$DW$141, DW_AT_TI_max_frame_size(0x08)
    1713                      .dwpsn  file "../FreeRTOS/Source/event_groups.c",line 614,column 1,is_stmt,address _vEventGroupDelete
    1714              
    1715                      .dwfde $C$DW$CIE, _vEventGroupDelete
    1716              $C$DW$142       .dwtag  DW_TAG_formal_parameter, DW_AT_name("xEventGroup")
    1717                      .dwattr $C$DW$142, DW_AT_TI_symbol_name("_xEventGroup")
    1718                      .dwattr $C$DW$142, DW_AT_type(*$C$DW$T$39)
    1719                      .dwattr $C$DW$142, DW_AT_location[DW_OP_reg17]
    1720              ;*******************************************************************************
    1721              ;* FUNCTION NAME: vEventGroupDelete                                            *
    1722              ;*                                                                             *
    1723              ;*   Function Uses Regs : AC0,AC0,AC1,AC1,AR0,XAR0,AR1,AR3,XAR3,SP,TC1,M40,    *
    1724              ;*                        SATA,SATD,RDM,FRCT,SMUL                              *
    1725              ;*   Stack Frame        : Compact (No Frame Pointer, w/ debug)                 *
    1726              ;*   Total Frame Size   : 8 words                                              *
    1727              ;*                        (2 return address/alignment)                         *
    1728              ;*                        (6 local values)                                     *
    1729              ;*   Min System Stack   : 1 word                                               *
    1730              ;*******************************************************************************
    1731 0004f8       _vEventGroupDelete:
    1732                      .dwcfi  cfa_offset, 1
    1733                      .dwcfi  save_reg_to_mem, 91, -1
    1734 0004f8 4EF9          AADD #-7, SP
    1735                      .dwcfi  cfa_offset, 8
    1736              $C$DW$143       .dwtag  DW_TAG_variable, DW_AT_name("xEventGroup")
    1737                      .dwattr $C$DW$143, DW_AT_TI_symbol_name("_xEventGroup")
    1738                      .dwattr $C$DW$143, DW_AT_type(*$C$DW$T$39)
    1739                      .dwattr $C$DW$143, DW_AT_location[DW_OP_bregx 0x24 0]
    1740              $C$DW$144       .dwtag  DW_TAG_variable, DW_AT_name("pxEventBits")
    1741                      .dwattr $C$DW$144, DW_AT_TI_symbol_name("_pxEventBits")
    1742                      .dwattr $C$DW$144, DW_AT_type(*$C$DW$T$37)
    1743                      .dwattr $C$DW$144, DW_AT_location[DW_OP_bregx 0x24 2]
    1744              $C$DW$145       .dwtag  DW_TAG_variable, DW_AT_name("pxTasksWaitingForBits")
    1745                      .dwattr $C$DW$145, DW_AT_TI_symbol_name("_pxTasksWaitingForBits")
    1746                      .dwattr $C$DW$145, DW_AT_type(*$C$DW$T$78)
TMS320C55x Assembler PC v4.4.1 Sat Sep 15 04:08:18 2018

Tools Copyright (c) 1996-2012 Texas Instruments Incorporated
event_groups.asm                                                     PAGE   38

    1747                      .dwattr $C$DW$145, DW_AT_location[DW_OP_bregx 0x24 4]
    1748 0004fa EB00          MOV XAR0, dbl(*SP(#0))
         0004fc 85   
    1749                      .dwpsn  file "../FreeRTOS/Source/event_groups.c",line 615,column 15,is_stmt
    1750 0004fd ED00          MOV dbl(*SP(#0)), XAR3
         0004ff BF   
    1751 000500 EB04          MOV XAR3, dbl(*SP(#2))
         000502 B5   
    1752                      .dwpsn  file "../FreeRTOS/Source/event_groups.c",line 616,column 15,is_stmt
    1753              
    1754 000503 8E08          MOV XAR3, dbl(*SP(#4))
         000505 BB14 
         000507 B502 
    1755              ||      AADD #2, AR3 ; |616| 
    1756              
    1757                      .dwpsn  file "../FreeRTOS/Source/event_groups.c",line 618,column 2,is_stmt
    1758              $C$DW$146       .dwtag  DW_TAG_TI_branch
    1759                      .dwattr $C$DW$146, DW_AT_low_pc(0x00)
    1760                      .dwattr $C$DW$146, DW_AT_name("_vTaskSuspendAll")
    1761                      .dwattr $C$DW$146, DW_AT_TI_call
    1762 000509 6C00          CALL #_vTaskSuspendAll ; |618| 
         00050b 0000!
    1763                                                      ; call occurs [#_vTaskSuspendAll] ; |618| 
    1764                      .dwpsn  file "../FreeRTOS/Source/event_groups.c",line 622,column 10,is_stmt
    1765 00050d ED08          MOV dbl(*SP(#4)), XAR3
         00050f BF   
    1766 000510 A961          MOV *AR3, AR1 ; |622| 
    1767 000512 0409          BCC $C$L62,AR1 == #0 ; |622| 
         000514 33   
    1768                                                      ; branchcc occurs ; |622| 
    1769 000515       $C$L58:    
    1770 000515       $C$DW$L$_vEventGroupDelete$2$B:
    1771                      .dwpsn  file "../FreeRTOS/Source/event_groups.c",line 626,column 4,is_stmt
    1772 000515 1404          AADD #4, AR3 ; |626| 
         000517 B4   
    1773 000518 90B0          MOV XAR3, AC0
    1774 00051a ED08          MOV dbl(*SP(#4)), XAR3
         00051c BF   
    1775 00051d ED7D          MOV dbl(*AR3(short(#6))), XAR3
         00051f BF   
    1776 000520 90B1          MOV XAR3, AC1
    1777 000522 1210          CMPU AC1 == AC0, TC1 ; |626| 
         000524 04   
    1778 000525 3C09          MOV #0, AR1
    1779 000527 6164          BCC $C$L59,TC1 ; |626| 
    1780                                                      ; branchcc occurs ; |626| 
    1781 000529       $C$DW$L$_vEventGroupDelete$2$E:
    1782 000529       $C$DW$L$_vEventGroupDelete$3$B:
    1783 000529 3C19          MOV #1, AR1
    1784 00052b       $C$DW$L$_vEventGroupDelete$3$E:
    1785 00052b       $C$L59:    
    1786 00052b       $C$DW$L$_vEventGroupDelete$4$B:
    1787 00052b 6299          BCC $C$L61,AR1 != #0 ; |626| 
    1788                                                      ; branchcc occurs ; |626| 
    1789 00052d       $C$DW$L$_vEventGroupDelete$4$E:
TMS320C55x Assembler PC v4.4.1 Sat Sep 15 04:08:18 2018

Tools Copyright (c) 1996-2012 Texas Instruments Incorporated
event_groups.asm                                                     PAGE   39

    1790 00052d 20     nop
    1791 00052e 46B3   bset INTM
    1792 000530       $C$L60:    
    1793 000530       $C$DW$L$_vEventGroupDelete$6$B:
    1794 000530 4A7E          B $C$L60  ; |626| 
    1795                                                      ; branch occurs ; |626| 
    1796 000532       $C$DW$L$_vEventGroupDelete$6$E:
    1797 000532       $C$L61:    
    1798 000532       $C$DW$L$_vEventGroupDelete$7$B:
    1799                      .dwpsn  file "../FreeRTOS/Source/event_groups.c",line 627,column 4,is_stmt
    1800 000532 ED08          MOV dbl(*SP(#4)), XAR3
         000534 BF   
    1801 000535 7A02          MOV #512 << #16, AC0 ; |627| 
         000537 000A 
    1802 000539 ED7D          MOV dbl(*AR3(short(#6))), XAR0
         00053b 8F   
    1803              $C$DW$147       .dwtag  DW_TAG_TI_branch
    1804                      .dwattr $C$DW$147, DW_AT_low_pc(0x00)
    1805                      .dwattr $C$DW$147, DW_AT_name("_vTaskRemoveFromUnorderedEventList")
    1806                      .dwattr $C$DW$147, DW_AT_TI_call
    1807 00053c 6C00          CALL #_vTaskRemoveFromUnorderedEventList ; |627| 
         00053e 0000!
    1808                                                      ; call occurs [#_vTaskRemoveFromUnorderedEventList] ; |627| 
    1809                      .dwpsn  file "../FreeRTOS/Source/event_groups.c",line 622,column 10,is_stmt
    1810 000540 ED08          MOV dbl(*SP(#4)), XAR3
         000542 BF   
    1811 000543 A961          MOV *AR3, AR1 ; |622| 
    1812 000545 0419          BCC $C$L58,AR1 != #0 ; |622| 
         000547 CD   
    1813                                                      ; branchcc occurs ; |622| 
    1814 000548       $C$DW$L$_vEventGroupDelete$7$E:
    1815 000548       $C$L62:    
    1816                      .dwpsn  file "../FreeRTOS/Source/event_groups.c",line 634,column 4,is_stmt
    1817 000548 ED04          MOV dbl(*SP(#2)), XAR0
         00054a 8F   
    1818              $C$DW$148       .dwtag  DW_TAG_TI_branch
    1819                      .dwattr $C$DW$148, DW_AT_low_pc(0x00)
    1820                      .dwattr $C$DW$148, DW_AT_name("_vPortFree")
    1821                      .dwattr $C$DW$148, DW_AT_TI_call
    1822 00054b 6C00          CALL #_vPortFree ; |634| 
         00054d 0000!
    1823                                                      ; call occurs [#_vPortFree] ; |634| 
    1824                      .dwpsn  file "../FreeRTOS/Source/event_groups.c",line 651,column 2,is_stmt
    1825              $C$DW$149       .dwtag  DW_TAG_TI_branch
    1826                      .dwattr $C$DW$149, DW_AT_low_pc(0x00)
    1827                      .dwattr $C$DW$149, DW_AT_name("_xTaskResumeAll")
    1828                      .dwattr $C$DW$149, DW_AT_TI_call
    1829 00054f 6C00          CALL #_xTaskResumeAll ; |651| 
         000551 0000!
    1830                                                      ; call occurs [#_xTaskResumeAll] ; |651| 
    1831                      .dwpsn  file "../FreeRTOS/Source/event_groups.c",line 652,column 1,is_stmt
    1832 000553 4E07          AADD #7, SP
    1833                      .dwcfi  cfa_offset, 1
    1834              $C$DW$150       .dwtag  DW_TAG_TI_branch
    1835                      .dwattr $C$DW$150, DW_AT_low_pc(0x00)
TMS320C55x Assembler PC v4.4.1 Sat Sep 15 04:08:18 2018

Tools Copyright (c) 1996-2012 Texas Instruments Incorporated
event_groups.asm                                                     PAGE   40

    1836                      .dwattr $C$DW$150, DW_AT_TI_return
    1837 000555 4804          RET
    1838                                                      ; return occurs
    1839              
    1840              $C$DW$151       .dwtag  DW_TAG_TI_loop
    1841                      .dwattr $C$DW$151, DW_AT_name("F:\eZdsp_DBG\eZDSP_5535_Files\ccsws2\test\Debug\event_groups.asm:$C$L6
    1842                      .dwattr $C$DW$151, DW_AT_TI_begin_file("../FreeRTOS/Source/event_groups.c")
    1843                      .dwattr $C$DW$151, DW_AT_TI_begin_line(0x272)
    1844                      .dwattr $C$DW$151, DW_AT_TI_end_line(0x272)
    1845              $C$DW$152       .dwtag  DW_TAG_TI_loop_range
    1846                      .dwattr $C$DW$152, DW_AT_low_pc($C$DW$L$_vEventGroupDelete$6$B)
    1847                      .dwattr $C$DW$152, DW_AT_high_pc($C$DW$L$_vEventGroupDelete$6$E)
    1848                      .dwendtag $C$DW$151
    1849              
    1850              
    1851              $C$DW$153       .dwtag  DW_TAG_TI_loop
    1852                      .dwattr $C$DW$153, DW_AT_name("F:\eZdsp_DBG\eZDSP_5535_Files\ccsws2\test\Debug\event_groups.asm:$C$L5
    1853                      .dwattr $C$DW$153, DW_AT_TI_begin_file("../FreeRTOS/Source/event_groups.c")
    1854                      .dwattr $C$DW$153, DW_AT_TI_begin_line(0x26e)
    1855                      .dwattr $C$DW$153, DW_AT_TI_end_line(0x274)
    1856              $C$DW$154       .dwtag  DW_TAG_TI_loop_range
    1857                      .dwattr $C$DW$154, DW_AT_low_pc($C$DW$L$_vEventGroupDelete$2$B)
    1858                      .dwattr $C$DW$154, DW_AT_high_pc($C$DW$L$_vEventGroupDelete$2$E)
    1859              $C$DW$155       .dwtag  DW_TAG_TI_loop_range
    1860                      .dwattr $C$DW$155, DW_AT_low_pc($C$DW$L$_vEventGroupDelete$3$B)
    1861                      .dwattr $C$DW$155, DW_AT_high_pc($C$DW$L$_vEventGroupDelete$3$E)
    1862              $C$DW$156       .dwtag  DW_TAG_TI_loop_range
    1863                      .dwattr $C$DW$156, DW_AT_low_pc($C$DW$L$_vEventGroupDelete$4$B)
    1864                      .dwattr $C$DW$156, DW_AT_high_pc($C$DW$L$_vEventGroupDelete$4$E)
    1865              $C$DW$157       .dwtag  DW_TAG_TI_loop_range
    1866                      .dwattr $C$DW$157, DW_AT_low_pc($C$DW$L$_vEventGroupDelete$7$B)
    1867                      .dwattr $C$DW$157, DW_AT_high_pc($C$DW$L$_vEventGroupDelete$7$E)
    1868                      .dwendtag $C$DW$153
    1869              
    1870                      .dwattr $C$DW$141, DW_AT_TI_end_file("../FreeRTOS/Source/event_groups.c")
    1871                      .dwattr $C$DW$141, DW_AT_TI_end_line(0x28c)
    1872                      .dwattr $C$DW$141, DW_AT_TI_end_column(0x01)
    1873                      .dwendentry
    1874                      .dwendtag $C$DW$141
    1875              
    1876 000557               .sect   ".text"
    1877                      .align 4
    1878                      .global _vEventGroupSetBitsCallback
    1879              
    1880              $C$DW$158       .dwtag  DW_TAG_subprogram, DW_AT_name("vEventGroupSetBitsCallback")
    1881                      .dwattr $C$DW$158, DW_AT_low_pc(_vEventGroupSetBitsCallback)
    1882                      .dwattr $C$DW$158, DW_AT_high_pc(0x00)
    1883                      .dwattr $C$DW$158, DW_AT_TI_symbol_name("_vEventGroupSetBitsCallback")
    1884                      .dwattr $C$DW$158, DW_AT_external
    1885                      .dwattr $C$DW$158, DW_AT_TI_begin_file("../FreeRTOS/Source/event_groups.c")
    1886                      .dwattr $C$DW$158, DW_AT_TI_begin_line(0x291)
    1887                      .dwattr $C$DW$158, DW_AT_TI_begin_column(0x06)
    1888                      .dwattr $C$DW$158, DW_AT_TI_max_frame_size(0x06)
    1889                      .dwpsn  file "../FreeRTOS/Source/event_groups.c",line 658,column 1,is_stmt,address _vEventGroupSetBit
    1890              
TMS320C55x Assembler PC v4.4.1 Sat Sep 15 04:08:18 2018

Tools Copyright (c) 1996-2012 Texas Instruments Incorporated
event_groups.asm                                                     PAGE   41

    1891                      .dwfde $C$DW$CIE, _vEventGroupSetBitsCallback
    1892              $C$DW$159       .dwtag  DW_TAG_formal_parameter, DW_AT_name("pvEventGroup")
    1893                      .dwattr $C$DW$159, DW_AT_TI_symbol_name("_pvEventGroup")
    1894                      .dwattr $C$DW$159, DW_AT_type(*$C$DW$T$3)
    1895                      .dwattr $C$DW$159, DW_AT_location[DW_OP_reg17]
    1896              $C$DW$160       .dwtag  DW_TAG_formal_parameter, DW_AT_name("ulBitsToSet")
    1897                      .dwattr $C$DW$160, DW_AT_TI_symbol_name("_ulBitsToSet")
    1898                      .dwattr $C$DW$160, DW_AT_type(*$C$DW$T$59)
    1899                      .dwattr $C$DW$160, DW_AT_location[DW_OP_reg0]
    1900              ;*******************************************************************************
    1901              ;* FUNCTION NAME: vEventGroupSetBitsCallback                                   *
    1902              ;*                                                                             *
    1903              ;*   Function Uses Regs : AC0,AC0,AR0,XAR0,SP,M40,SATA,SATD,RDM,FRCT,SMUL      *
    1904              ;*   Stack Frame        : Compact (No Frame Pointer, w/ debug)                 *
    1905              ;*   Total Frame Size   : 6 words                                              *
    1906              ;*                        (2 return address/alignment)                         *
    1907              ;*                        (4 local values)                                     *
    1908              ;*   Min System Stack   : 1 word                                               *
    1909              ;*******************************************************************************
    1910 000558       _vEventGroupSetBitsCallback:
    1911                      .dwcfi  cfa_offset, 1
    1912                      .dwcfi  save_reg_to_mem, 91, -1
    1913 000558 4EFB          AADD #-5, SP
    1914                      .dwcfi  cfa_offset, 6
    1915              $C$DW$161       .dwtag  DW_TAG_variable, DW_AT_name("pvEventGroup")
    1916                      .dwattr $C$DW$161, DW_AT_TI_symbol_name("_pvEventGroup")
    1917                      .dwattr $C$DW$161, DW_AT_type(*$C$DW$T$3)
    1918                      .dwattr $C$DW$161, DW_AT_location[DW_OP_bregx 0x24 0]
    1919              $C$DW$162       .dwtag  DW_TAG_variable, DW_AT_name("ulBitsToSet")
    1920                      .dwattr $C$DW$162, DW_AT_TI_symbol_name("_ulBitsToSet")
    1921                      .dwattr $C$DW$162, DW_AT_type(*$C$DW$T$59)
    1922                      .dwattr $C$DW$162, DW_AT_location[DW_OP_bregx 0x24 2]
    1923 00055a EB04          MOV AC0, dbl(*SP(#2)) ; |658| 
         00055c 08   
    1924 00055d EB00          MOV XAR0, dbl(*SP(#0))
         00055f 85   
    1925                      .dwpsn  file "../FreeRTOS/Source/event_groups.c",line 659,column 2,is_stmt
    1926 000560 ED04          MOV dbl(*SP(#2)), AC0 ; |659| 
         000562 08   
    1927              $C$DW$163       .dwtag  DW_TAG_TI_branch
    1928                      .dwattr $C$DW$163, DW_AT_low_pc(0x00)
    1929                      .dwattr $C$DW$163, DW_AT_name("_xEventGroupSetBits")
    1930                      .dwattr $C$DW$163, DW_AT_TI_call
    1931 000563 08FE          CALL #_xEventGroupSetBits ; |659| 
         000565 5A   
    1932                                                      ; call occurs [#_xEventGroupSetBits] ; |659| 
    1933                      .dwpsn  file "../FreeRTOS/Source/event_groups.c",line 660,column 1,is_stmt
    1934 000566 4E05          AADD #5, SP
    1935                      .dwcfi  cfa_offset, 1
    1936              $C$DW$164       .dwtag  DW_TAG_TI_branch
    1937                      .dwattr $C$DW$164, DW_AT_low_pc(0x00)
    1938                      .dwattr $C$DW$164, DW_AT_TI_return
    1939 000568 4804          RET
    1940                                                      ; return occurs
    1941                      .dwattr $C$DW$158, DW_AT_TI_end_file("../FreeRTOS/Source/event_groups.c")
TMS320C55x Assembler PC v4.4.1 Sat Sep 15 04:08:18 2018

Tools Copyright (c) 1996-2012 Texas Instruments Incorporated
event_groups.asm                                                     PAGE   42

    1942                      .dwattr $C$DW$158, DW_AT_TI_end_line(0x294)
    1943                      .dwattr $C$DW$158, DW_AT_TI_end_column(0x01)
    1944                      .dwendentry
    1945                      .dwendtag $C$DW$158
    1946              
    1947 00056a               .sect   ".text"
    1948                      .align 4
    1949                      .global _vEventGroupClearBitsCallback
    1950              
    1951              $C$DW$165       .dwtag  DW_TAG_subprogram, DW_AT_name("vEventGroupClearBitsCallback")
    1952                      .dwattr $C$DW$165, DW_AT_low_pc(_vEventGroupClearBitsCallback)
    1953                      .dwattr $C$DW$165, DW_AT_high_pc(0x00)
    1954                      .dwattr $C$DW$165, DW_AT_TI_symbol_name("_vEventGroupClearBitsCallback")
    1955                      .dwattr $C$DW$165, DW_AT_external
    1956                      .dwattr $C$DW$165, DW_AT_TI_begin_file("../FreeRTOS/Source/event_groups.c")
    1957                      .dwattr $C$DW$165, DW_AT_TI_begin_line(0x299)
    1958                      .dwattr $C$DW$165, DW_AT_TI_begin_column(0x06)
    1959                      .dwattr $C$DW$165, DW_AT_TI_max_frame_size(0x06)
    1960                      .dwpsn  file "../FreeRTOS/Source/event_groups.c",line 666,column 1,is_stmt,address _vEventGroupClearB
    1961              
    1962                      .dwfde $C$DW$CIE, _vEventGroupClearBitsCallback
    1963              $C$DW$166       .dwtag  DW_TAG_formal_parameter, DW_AT_name("pvEventGroup")
    1964                      .dwattr $C$DW$166, DW_AT_TI_symbol_name("_pvEventGroup")
    1965                      .dwattr $C$DW$166, DW_AT_type(*$C$DW$T$3)
    1966                      .dwattr $C$DW$166, DW_AT_location[DW_OP_reg17]
    1967              $C$DW$167       .dwtag  DW_TAG_formal_parameter, DW_AT_name("ulBitsToClear")
    1968                      .dwattr $C$DW$167, DW_AT_TI_symbol_name("_ulBitsToClear")
    1969                      .dwattr $C$DW$167, DW_AT_type(*$C$DW$T$59)
    1970                      .dwattr $C$DW$167, DW_AT_location[DW_OP_reg0]
    1971              ;*******************************************************************************
    1972              ;* FUNCTION NAME: vEventGroupClearBitsCallback                                 *
    1973              ;*                                                                             *
    1974              ;*   Function Uses Regs : AC0,AC0,AR0,XAR0,SP,M40,SATA,SATD,RDM,FRCT,SMUL      *
    1975              ;*   Stack Frame        : Compact (No Frame Pointer, w/ debug)                 *
    1976              ;*   Total Frame Size   : 6 words                                              *
    1977              ;*                        (2 return address/alignment)                         *
    1978              ;*                        (4 local values)                                     *
    1979              ;*   Min System Stack   : 1 word                                               *
    1980              ;*******************************************************************************
    1981 00056c       _vEventGroupClearBitsCallback:
    1982                      .dwcfi  cfa_offset, 1
    1983                      .dwcfi  save_reg_to_mem, 91, -1
    1984 00056c 4EFB          AADD #-5, SP
    1985                      .dwcfi  cfa_offset, 6
    1986              $C$DW$168       .dwtag  DW_TAG_variable, DW_AT_name("pvEventGroup")
    1987                      .dwattr $C$DW$168, DW_AT_TI_symbol_name("_pvEventGroup")
    1988                      .dwattr $C$DW$168, DW_AT_type(*$C$DW$T$3)
    1989                      .dwattr $C$DW$168, DW_AT_location[DW_OP_bregx 0x24 0]
    1990              $C$DW$169       .dwtag  DW_TAG_variable, DW_AT_name("ulBitsToClear")
    1991                      .dwattr $C$DW$169, DW_AT_TI_symbol_name("_ulBitsToClear")
    1992                      .dwattr $C$DW$169, DW_AT_type(*$C$DW$T$59)
    1993                      .dwattr $C$DW$169, DW_AT_location[DW_OP_bregx 0x24 2]
    1994 00056e EB04          MOV AC0, dbl(*SP(#2)) ; |666| 
         000570 08   
    1995 000571 EB00          MOV XAR0, dbl(*SP(#0))
TMS320C55x Assembler PC v4.4.1 Sat Sep 15 04:08:18 2018

Tools Copyright (c) 1996-2012 Texas Instruments Incorporated
event_groups.asm                                                     PAGE   43

         000573 85   
    1996                      .dwpsn  file "../FreeRTOS/Source/event_groups.c",line 667,column 2,is_stmt
    1997 000574 ED04          MOV dbl(*SP(#2)), AC0 ; |667| 
         000576 08   
    1998              $C$DW$170       .dwtag  DW_TAG_TI_branch
    1999                      .dwattr $C$DW$170, DW_AT_low_pc(0x00)
    2000                      .dwattr $C$DW$170, DW_AT_name("_xEventGroupClearBits")
    2001                      .dwattr $C$DW$170, DW_AT_TI_call
    2002 000577 08FD          CALL #_xEventGroupClearBits ; |667| 
         000579 AE   
    2003                                                      ; call occurs [#_xEventGroupClearBits] ; |667| 
    2004                      .dwpsn  file "../FreeRTOS/Source/event_groups.c",line 668,column 1,is_stmt
    2005 00057a 4E05          AADD #5, SP
    2006                      .dwcfi  cfa_offset, 1
    2007              $C$DW$171       .dwtag  DW_TAG_TI_branch
    2008                      .dwattr $C$DW$171, DW_AT_low_pc(0x00)
    2009                      .dwattr $C$DW$171, DW_AT_TI_return
    2010 00057c 4804          RET
    2011                                                      ; return occurs
    2012                      .dwattr $C$DW$165, DW_AT_TI_end_file("../FreeRTOS/Source/event_groups.c")
    2013                      .dwattr $C$DW$165, DW_AT_TI_end_line(0x29c)
    2014                      .dwattr $C$DW$165, DW_AT_TI_end_column(0x01)
    2015                      .dwendentry
    2016                      .dwendtag $C$DW$165
    2017              
    2018 00057e               .sect   ".text"
    2019                      .align 4
    2020              
    2021              $C$DW$172       .dwtag  DW_TAG_subprogram, DW_AT_name("prvTestWaitCondition")
    2022                      .dwattr $C$DW$172, DW_AT_low_pc(_prvTestWaitCondition)
    2023                      .dwattr $C$DW$172, DW_AT_high_pc(0x00)
    2024                      .dwattr $C$DW$172, DW_AT_TI_symbol_name("_prvTestWaitCondition")
    2025                      .dwattr $C$DW$172, DW_AT_type(*$C$DW$T$61)
    2026                      .dwattr $C$DW$172, DW_AT_TI_begin_file("../FreeRTOS/Source/event_groups.c")
    2027                      .dwattr $C$DW$172, DW_AT_TI_begin_line(0x29f)
    2028                      .dwattr $C$DW$172, DW_AT_TI_begin_column(0x13)
    2029                      .dwattr $C$DW$172, DW_AT_TI_max_frame_size(0x08)
    2030                      .dwpsn  file "../FreeRTOS/Source/event_groups.c",line 672,column 1,is_stmt,address _prvTestWaitCondit
    2031              
    2032                      .dwfde $C$DW$CIE, _prvTestWaitCondition
    2033              $C$DW$173       .dwtag  DW_TAG_formal_parameter, DW_AT_name("uxCurrentEventBits")
    2034                      .dwattr $C$DW$173, DW_AT_TI_symbol_name("_uxCurrentEventBits")
    2035                      .dwattr $C$DW$173, DW_AT_type(*$C$DW$T$65)
    2036                      .dwattr $C$DW$173, DW_AT_location[DW_OP_reg0]
    2037              $C$DW$174       .dwtag  DW_TAG_formal_parameter, DW_AT_name("uxBitsToWaitFor")
    2038                      .dwattr $C$DW$174, DW_AT_TI_symbol_name("_uxBitsToWaitFor")
    2039                      .dwattr $C$DW$174, DW_AT_type(*$C$DW$T$65)
    2040                      .dwattr $C$DW$174, DW_AT_location[DW_OP_reg3]
    2041              $C$DW$175       .dwtag  DW_TAG_formal_parameter, DW_AT_name("xWaitForAllBits")
    2042                      .dwattr $C$DW$175, DW_AT_TI_symbol_name("_xWaitForAllBits")
    2043                      .dwattr $C$DW$175, DW_AT_type(*$C$DW$T$62)
    2044                      .dwattr $C$DW$175, DW_AT_location[DW_OP_reg12]
    2045              ;*******************************************************************************
    2046              ;* FUNCTION NAME: prvTestWaitCondition                                         *
    2047              ;*                                                                             *
TMS320C55x Assembler PC v4.4.1 Sat Sep 15 04:08:18 2018

Tools Copyright (c) 1996-2012 Texas Instruments Incorporated
event_groups.asm                                                     PAGE   44

    2048              ;*   Function Uses Regs : AC0,AC0,AC1,AC1,T0,AR1,SP,TC1,M40,SATA,SATD,RDM,FRCT,*
    2049              ;*                        SMUL                                                 *
    2050              ;*   Stack Frame        : Compact (No Frame Pointer, w/ debug)                 *
    2051              ;*   Total Frame Size   : 8 words                                              *
    2052              ;*                        (2 return address/alignment)                         *
    2053              ;*                        (6 local values)                                     *
    2054              ;*   Min System Stack   : 1 word                                               *
    2055              ;*******************************************************************************
    2056 000580       _prvTestWaitCondition:
    2057                      .dwcfi  cfa_offset, 1
    2058                      .dwcfi  save_reg_to_mem, 91, -1
    2059 000580 4EF9          AADD #-7, SP
    2060                      .dwcfi  cfa_offset, 8
    2061              $C$DW$176       .dwtag  DW_TAG_variable, DW_AT_name("uxCurrentEventBits")
    2062                      .dwattr $C$DW$176, DW_AT_TI_symbol_name("_uxCurrentEventBits")
    2063                      .dwattr $C$DW$176, DW_AT_type(*$C$DW$T$65)
    2064                      .dwattr $C$DW$176, DW_AT_location[DW_OP_bregx 0x24 0]
    2065              $C$DW$177       .dwtag  DW_TAG_variable, DW_AT_name("uxBitsToWaitFor")
    2066                      .dwattr $C$DW$177, DW_AT_TI_symbol_name("_uxBitsToWaitFor")
    2067                      .dwattr $C$DW$177, DW_AT_type(*$C$DW$T$65)
    2068                      .dwattr $C$DW$177, DW_AT_location[DW_OP_bregx 0x24 2]
    2069              $C$DW$178       .dwtag  DW_TAG_variable, DW_AT_name("xWaitForAllBits")
    2070                      .dwattr $C$DW$178, DW_AT_TI_symbol_name("_xWaitForAllBits")
    2071                      .dwattr $C$DW$178, DW_AT_type(*$C$DW$T$62)
    2072                      .dwattr $C$DW$178, DW_AT_location[DW_OP_bregx 0x24 4]
    2073              $C$DW$179       .dwtag  DW_TAG_variable, DW_AT_name("xWaitConditionMet")
    2074                      .dwattr $C$DW$179, DW_AT_TI_symbol_name("_xWaitConditionMet")
    2075                      .dwattr $C$DW$179, DW_AT_type(*$C$DW$T$61)
    2076                      .dwattr $C$DW$179, DW_AT_location[DW_OP_bregx 0x24 5]
    2077 000582 C408          MOV T0, *SP(#4) ; |672| 
    2078 000584 EB04          MOV AC1, dbl(*SP(#2)) ; |672| 
         000586 18   
    2079 000587 EB00          MOV AC0, dbl(*SP(#0)) ; |672| 
         000589 08   
    2080                      .dwpsn  file "../FreeRTOS/Source/event_groups.c",line 673,column 12,is_stmt
    2081 00058a E60A          MOV #0, *SP(#5) ; |673| 
         00058c 00   
    2082                      .dwpsn  file "../FreeRTOS/Source/event_groups.c",line 675,column 2,is_stmt
    2083 00058d A908          MOV *SP(#4), AR1 ; |675| 
    2084 00058f 0419          BCC $C$L63,AR1 != #0 ; |675| 
         000591 10   
    2085                                                      ; branchcc occurs ; |675| 
    2086                      .dwpsn  file "../FreeRTOS/Source/event_groups.c",line 679,column 3,is_stmt
    2087 000592 ED00          MOV dbl(*SP(#0)), AC1 ; |679| 
         000594 18   
    2088 000595 ED04          MOV dbl(*SP(#2)), AC0 ; |679| 
         000597 08   
    2089 000598 2810          AND AC1, AC0 ; |679| 
    2090 00059a 0400          BCC $C$L64,AC0 == #0 ; |679| 
         00059c 18   
    2091                                                      ; branchcc occurs ; |679| 
    2092                      .dwpsn  file "../FreeRTOS/Source/event_groups.c",line 681,column 4,is_stmt
    2093 00059d E60A          MOV #1, *SP(#5) ; |681| 
         00059f 01   
    2094                      .dwpsn  file "../FreeRTOS/Source/event_groups.c",line 682,column 3,is_stmt
TMS320C55x Assembler PC v4.4.1 Sat Sep 15 04:08:18 2018

Tools Copyright (c) 1996-2012 Texas Instruments Incorporated
event_groups.asm                                                     PAGE   45

    2095 0005a0 4A13          B $C$L64  ; |682| 
    2096                                                      ; branch occurs ; |682| 
    2097 0005a2       $C$L63:    
    2098                      .dwpsn  file "../FreeRTOS/Source/event_groups.c",line 692,column 3,is_stmt
    2099 0005a2 ED04          MOV dbl(*SP(#2)), AC0 ; |692| 
         0005a4 08   
    2100 0005a5 ED00          MOV dbl(*SP(#0)), AC1 ; |692| 
         0005a7 18   
    2101              
    2102 0005a8 ED04          MOV dbl(*SP(#2)), AC1 ; |692| 
         0005aa 18   
    2103 0005ab 2910  ||      AND AC1, AC0 ; |692| 
    2104              
    2105 0005ad 120C          CMPU AC0 != AC1, TC1 ; |692| 
         0005af 14   
    2106 0005b0 61E4          BCC $C$L64,TC1 ; |692| 
    2107                                                      ; branchcc occurs ; |692| 
    2108                      .dwpsn  file "../FreeRTOS/Source/event_groups.c",line 694,column 4,is_stmt
    2109 0005b2 E60A          MOV #1, *SP(#5) ; |694| 
         0005b4 01   
    2110                      .dwpsn  file "../FreeRTOS/Source/event_groups.c",line 695,column 3,is_stmt
    2111 0005b5       $C$L64:    
    2112                      .dwpsn  file "../FreeRTOS/Source/event_groups.c",line 702,column 2,is_stmt
    2113 0005b5 A40A          MOV *SP(#5), T0 ; |702| 
    2114                      .dwpsn  file "../FreeRTOS/Source/event_groups.c",line 703,column 1,is_stmt
    2115 0005b7 4E07          AADD #7, SP
    2116                      .dwcfi  cfa_offset, 1
    2117              $C$DW$180       .dwtag  DW_TAG_TI_branch
    2118                      .dwattr $C$DW$180, DW_AT_low_pc(0x00)
    2119                      .dwattr $C$DW$180, DW_AT_TI_return
    2120 0005b9 4804          RET
    2121                                                      ; return occurs
    2122                      .dwattr $C$DW$172, DW_AT_TI_end_file("../FreeRTOS/Source/event_groups.c")
    2123                      .dwattr $C$DW$172, DW_AT_TI_end_line(0x2bf)
    2124                      .dwattr $C$DW$172, DW_AT_TI_end_column(0x01)
    2125                      .dwendentry
    2126                      .dwendtag $C$DW$172
    2127              
    2128              ;******************************************************************************
    2129              ;* UNDEFINED EXTERNAL REFERENCES                                              *
    2130              ;******************************************************************************
    2131                      .global _vPortYield
    2132                      .global _pvPortMalloc
    2133                      .global _vPortFree
    2134                      .global _vListInitialise
    2135                      .global _vTaskSuspendAll
    2136                      .global _xTaskResumeAll
    2137                      .global _vTaskPlaceOnUnorderedEventList
    2138                      .global _vTaskRemoveFromUnorderedEventList
    2139                      .global _uxTaskResetEventItemValue
    2140                      .global _xTaskGetSchedulerState
    2141                      .global _usCriticalNesting
    2142              
    2143              ;*******************************************************************************
    2144              ;* TYPE INFORMATION                                                            *
TMS320C55x Assembler PC v4.4.1 Sat Sep 15 04:08:18 2018

Tools Copyright (c) 1996-2012 Texas Instruments Incorporated
event_groups.asm                                                     PAGE   46

    2145              ;*******************************************************************************
    2146              
    2147              $C$DW$T$22      .dwtag  DW_TAG_structure_type
    2148                      .dwattr $C$DW$T$22, DW_AT_name("EventGroupDef_t")
    2149                      .dwattr $C$DW$T$22, DW_AT_byte_size(0x0c)
    2150              $C$DW$181       .dwtag  DW_TAG_member
    2151                      .dwattr $C$DW$181, DW_AT_type(*$C$DW$T$20)
    2152                      .dwattr $C$DW$181, DW_AT_name("uxEventBits")
    2153                      .dwattr $C$DW$181, DW_AT_TI_symbol_name("_uxEventBits")
    2154                      .dwattr $C$DW$181, DW_AT_data_member_location[DW_OP_plus_uconst 0x0]
    2155                      .dwattr $C$DW$181, DW_AT_accessibility(DW_ACCESS_public)
    2156              $C$DW$182       .dwtag  DW_TAG_member
    2157                      .dwattr $C$DW$182, DW_AT_type(*$C$DW$T$21)
    2158                      .dwattr $C$DW$182, DW_AT_name("xTasksWaitingForBits")
    2159                      .dwattr $C$DW$182, DW_AT_TI_symbol_name("_xTasksWaitingForBits")
    2160                      .dwattr $C$DW$182, DW_AT_data_member_location[DW_OP_plus_uconst 0x2]
    2161                      .dwattr $C$DW$182, DW_AT_accessibility(DW_ACCESS_public)
    2162                      .dwendtag $C$DW$T$22
    2163              
    2164              $C$DW$T$33      .dwtag  DW_TAG_typedef, DW_AT_name("EventGroup_t")
    2165                      .dwattr $C$DW$T$33, DW_AT_type(*$C$DW$T$22)
    2166                      .dwattr $C$DW$T$33, DW_AT_language(DW_LANG_C)
    2167              $C$DW$183       .dwtag  DW_TAG_TI_far_type
    2168                      .dwattr $C$DW$183, DW_AT_type(*$C$DW$T$33)
    2169              $C$DW$T$34      .dwtag  DW_TAG_const_type
    2170                      .dwattr $C$DW$T$34, DW_AT_type(*$C$DW$183)
    2171              $C$DW$T$35      .dwtag  DW_TAG_pointer_type
    2172                      .dwattr $C$DW$T$35, DW_AT_type(*$C$DW$T$34)
    2173                      .dwattr $C$DW$T$35, DW_AT_address_class(0x17)
    2174              $C$DW$184       .dwtag  DW_TAG_TI_far_type
    2175                      .dwattr $C$DW$184, DW_AT_type(*$C$DW$T$35)
    2176              $C$DW$T$36      .dwtag  DW_TAG_const_type
    2177                      .dwattr $C$DW$T$36, DW_AT_type(*$C$DW$184)
    2178              $C$DW$T$37      .dwtag  DW_TAG_pointer_type
    2179                      .dwattr $C$DW$T$37, DW_AT_type(*$C$DW$T$33)
    2180                      .dwattr $C$DW$T$37, DW_AT_address_class(0x17)
    2181              $C$DW$T$38      .dwtag  DW_TAG_pointer_type
    2182                      .dwattr $C$DW$T$38, DW_AT_type(*$C$DW$T$22)
    2183                      .dwattr $C$DW$T$38, DW_AT_address_class(0x17)
    2184              $C$DW$T$39      .dwtag  DW_TAG_typedef, DW_AT_name("EventGroupHandle_t")
    2185                      .dwattr $C$DW$T$39, DW_AT_type(*$C$DW$T$38)
    2186                      .dwattr $C$DW$T$39, DW_AT_language(DW_LANG_C)
    2187              $C$DW$T$3       .dwtag  DW_TAG_pointer_type
    2188                      .dwattr $C$DW$T$3, DW_AT_address_class(0x17)
    2189              $C$DW$T$4       .dwtag  DW_TAG_base_type
    2190                      .dwattr $C$DW$T$4, DW_AT_encoding(DW_ATE_boolean)
    2191                      .dwattr $C$DW$T$4, DW_AT_name("bool")
    2192                      .dwattr $C$DW$T$4, DW_AT_byte_size(0x01)
    2193              $C$DW$T$5       .dwtag  DW_TAG_base_type
    2194                      .dwattr $C$DW$T$5, DW_AT_encoding(DW_ATE_signed_char)
    2195                      .dwattr $C$DW$T$5, DW_AT_name("signed char")
    2196                      .dwattr $C$DW$T$5, DW_AT_byte_size(0x01)
    2197              $C$DW$T$6       .dwtag  DW_TAG_base_type
    2198                      .dwattr $C$DW$T$6, DW_AT_encoding(DW_ATE_unsigned_char)
    2199                      .dwattr $C$DW$T$6, DW_AT_name("unsigned char")
TMS320C55x Assembler PC v4.4.1 Sat Sep 15 04:08:18 2018

Tools Copyright (c) 1996-2012 Texas Instruments Incorporated
event_groups.asm                                                     PAGE   47

    2200                      .dwattr $C$DW$T$6, DW_AT_byte_size(0x01)
    2201              $C$DW$T$7       .dwtag  DW_TAG_base_type
    2202                      .dwattr $C$DW$T$7, DW_AT_encoding(DW_ATE_signed_char)
    2203                      .dwattr $C$DW$T$7, DW_AT_name("wchar_t")
    2204                      .dwattr $C$DW$T$7, DW_AT_byte_size(0x01)
    2205              $C$DW$T$8       .dwtag  DW_TAG_base_type
    2206                      .dwattr $C$DW$T$8, DW_AT_encoding(DW_ATE_signed)
    2207                      .dwattr $C$DW$T$8, DW_AT_name("short")
    2208                      .dwattr $C$DW$T$8, DW_AT_byte_size(0x01)
    2209              $C$DW$T$61      .dwtag  DW_TAG_typedef, DW_AT_name("BaseType_t")
    2210                      .dwattr $C$DW$T$61, DW_AT_type(*$C$DW$T$8)
    2211                      .dwattr $C$DW$T$61, DW_AT_language(DW_LANG_C)
    2212              $C$DW$185       .dwtag  DW_TAG_TI_far_type
    2213                      .dwattr $C$DW$185, DW_AT_type(*$C$DW$T$61)
    2214              $C$DW$T$62      .dwtag  DW_TAG_const_type
    2215                      .dwattr $C$DW$T$62, DW_AT_type(*$C$DW$185)
    2216              $C$DW$T$9       .dwtag  DW_TAG_base_type
    2217                      .dwattr $C$DW$T$9, DW_AT_encoding(DW_ATE_unsigned)
    2218                      .dwattr $C$DW$T$9, DW_AT_name("unsigned short")
    2219                      .dwattr $C$DW$T$9, DW_AT_byte_size(0x01)
    2220              $C$DW$T$23      .dwtag  DW_TAG_typedef, DW_AT_name("UBaseType_t")
    2221                      .dwattr $C$DW$T$23, DW_AT_type(*$C$DW$T$9)
    2222                      .dwattr $C$DW$T$23, DW_AT_language(DW_LANG_C)
    2223              $C$DW$186       .dwtag  DW_TAG_TI_far_type
    2224                      .dwattr $C$DW$186, DW_AT_type(*$C$DW$T$23)
    2225              $C$DW$T$24      .dwtag  DW_TAG_volatile_type
    2226                      .dwattr $C$DW$T$24, DW_AT_type(*$C$DW$186)
    2227              $C$DW$T$10      .dwtag  DW_TAG_base_type
    2228                      .dwattr $C$DW$T$10, DW_AT_encoding(DW_ATE_signed)
    2229                      .dwattr $C$DW$T$10, DW_AT_name("int")
    2230                      .dwattr $C$DW$T$10, DW_AT_byte_size(0x01)
    2231              $C$DW$T$11      .dwtag  DW_TAG_base_type
    2232                      .dwattr $C$DW$T$11, DW_AT_encoding(DW_ATE_unsigned)
    2233                      .dwattr $C$DW$T$11, DW_AT_name("unsigned int")
    2234                      .dwattr $C$DW$T$11, DW_AT_byte_size(0x01)
    2235              $C$DW$187       .dwtag  DW_TAG_TI_far_type
    2236                      .dwattr $C$DW$187, DW_AT_type(*$C$DW$T$11)
    2237              $C$DW$T$69      .dwtag  DW_TAG_volatile_type
    2238                      .dwattr $C$DW$T$69, DW_AT_type(*$C$DW$187)
    2239              $C$DW$T$41      .dwtag  DW_TAG_typedef, DW_AT_name("size_t")
    2240                      .dwattr $C$DW$T$41, DW_AT_type(*$C$DW$T$11)
    2241                      .dwattr $C$DW$T$41, DW_AT_language(DW_LANG_C)
    2242              $C$DW$T$12      .dwtag  DW_TAG_base_type
    2243                      .dwattr $C$DW$T$12, DW_AT_encoding(DW_ATE_signed)
    2244                      .dwattr $C$DW$T$12, DW_AT_name("long")
    2245                      .dwattr $C$DW$T$12, DW_AT_byte_size(0x02)
    2246              $C$DW$T$13      .dwtag  DW_TAG_base_type
    2247                      .dwattr $C$DW$T$13, DW_AT_encoding(DW_ATE_unsigned)
    2248                      .dwattr $C$DW$T$13, DW_AT_name("unsigned long")
    2249                      .dwattr $C$DW$T$13, DW_AT_byte_size(0x02)
    2250              $C$DW$T$19      .dwtag  DW_TAG_typedef, DW_AT_name("TickType_t")
    2251                      .dwattr $C$DW$T$19, DW_AT_type(*$C$DW$T$13)
    2252                      .dwattr $C$DW$T$19, DW_AT_language(DW_LANG_C)
    2253              $C$DW$T$20      .dwtag  DW_TAG_typedef, DW_AT_name("EventBits_t")
    2254                      .dwattr $C$DW$T$20, DW_AT_type(*$C$DW$T$19)
TMS320C55x Assembler PC v4.4.1 Sat Sep 15 04:08:18 2018

Tools Copyright (c) 1996-2012 Texas Instruments Incorporated
event_groups.asm                                                     PAGE   48

    2255                      .dwattr $C$DW$T$20, DW_AT_language(DW_LANG_C)
    2256              $C$DW$188       .dwtag  DW_TAG_TI_far_type
    2257                      .dwattr $C$DW$188, DW_AT_type(*$C$DW$T$20)
    2258              $C$DW$T$65      .dwtag  DW_TAG_const_type
    2259                      .dwattr $C$DW$T$65, DW_AT_type(*$C$DW$188)
    2260              $C$DW$189       .dwtag  DW_TAG_TI_far_type
    2261                      .dwattr $C$DW$189, DW_AT_type(*$C$DW$T$19)
    2262              $C$DW$T$52      .dwtag  DW_TAG_const_type
    2263                      .dwattr $C$DW$T$52, DW_AT_type(*$C$DW$189)
    2264              $C$DW$T$58      .dwtag  DW_TAG_typedef, DW_AT_name("uint32_t")
    2265                      .dwattr $C$DW$T$58, DW_AT_type(*$C$DW$T$13)
    2266                      .dwattr $C$DW$T$58, DW_AT_language(DW_LANG_C)
    2267              $C$DW$190       .dwtag  DW_TAG_TI_far_type
    2268                      .dwattr $C$DW$190, DW_AT_type(*$C$DW$T$58)
    2269              $C$DW$T$59      .dwtag  DW_TAG_const_type
    2270                      .dwattr $C$DW$T$59, DW_AT_type(*$C$DW$190)
    2271              $C$DW$T$14      .dwtag  DW_TAG_base_type
    2272                      .dwattr $C$DW$T$14, DW_AT_encoding(DW_ATE_signed)
    2273                      .dwattr $C$DW$T$14, DW_AT_name("long long")
    2274                      .dwattr $C$DW$T$14, DW_AT_byte_size(0x04)
    2275                      .dwattr $C$DW$T$14, DW_AT_bit_size(0x28)
    2276                      .dwattr $C$DW$T$14, DW_AT_bit_offset(0x18)
    2277              $C$DW$T$15      .dwtag  DW_TAG_base_type
    2278                      .dwattr $C$DW$T$15, DW_AT_encoding(DW_ATE_unsigned)
    2279                      .dwattr $C$DW$T$15, DW_AT_name("unsigned long long")
    2280                      .dwattr $C$DW$T$15, DW_AT_byte_size(0x04)
    2281                      .dwattr $C$DW$T$15, DW_AT_bit_size(0x28)
    2282                      .dwattr $C$DW$T$15, DW_AT_bit_offset(0x18)
    2283              $C$DW$T$16      .dwtag  DW_TAG_base_type
    2284                      .dwattr $C$DW$T$16, DW_AT_encoding(DW_ATE_float)
    2285                      .dwattr $C$DW$T$16, DW_AT_name("float")
    2286                      .dwattr $C$DW$T$16, DW_AT_byte_size(0x02)
    2287              $C$DW$T$17      .dwtag  DW_TAG_base_type
    2288                      .dwattr $C$DW$T$17, DW_AT_encoding(DW_ATE_float)
    2289                      .dwattr $C$DW$T$17, DW_AT_name("double")
    2290                      .dwattr $C$DW$T$17, DW_AT_byte_size(0x02)
    2291              $C$DW$T$18      .dwtag  DW_TAG_base_type
    2292                      .dwattr $C$DW$T$18, DW_AT_encoding(DW_ATE_float)
    2293                      .dwattr $C$DW$T$18, DW_AT_name("long double")
    2294                      .dwattr $C$DW$T$18, DW_AT_byte_size(0x02)
    2295              
    2296              $C$DW$T$28      .dwtag  DW_TAG_structure_type
    2297                      .dwattr $C$DW$T$28, DW_AT_name("xLIST")
    2298                      .dwattr $C$DW$T$28, DW_AT_byte_size(0x0a)
    2299              $C$DW$191       .dwtag  DW_TAG_member
    2300                      .dwattr $C$DW$191, DW_AT_type(*$C$DW$T$24)
    2301                      .dwattr $C$DW$191, DW_AT_name("uxNumberOfItems")
    2302                      .dwattr $C$DW$191, DW_AT_TI_symbol_name("_uxNumberOfItems")
    2303                      .dwattr $C$DW$191, DW_AT_data_member_location[DW_OP_plus_uconst 0x0]
    2304                      .dwattr $C$DW$191, DW_AT_accessibility(DW_ACCESS_public)
    2305              $C$DW$192       .dwtag  DW_TAG_member
    2306                      .dwattr $C$DW$192, DW_AT_type(*$C$DW$T$26)
    2307                      .dwattr $C$DW$192, DW_AT_name("pxIndex")
    2308                      .dwattr $C$DW$192, DW_AT_TI_symbol_name("_pxIndex")
    2309                      .dwattr $C$DW$192, DW_AT_data_member_location[DW_OP_plus_uconst 0x2]
TMS320C55x Assembler PC v4.4.1 Sat Sep 15 04:08:18 2018

Tools Copyright (c) 1996-2012 Texas Instruments Incorporated
event_groups.asm                                                     PAGE   49

    2310                      .dwattr $C$DW$192, DW_AT_accessibility(DW_ACCESS_public)
    2311              $C$DW$193       .dwtag  DW_TAG_member
    2312                      .dwattr $C$DW$193, DW_AT_type(*$C$DW$T$27)
    2313                      .dwattr $C$DW$193, DW_AT_name("xListEnd")
    2314                      .dwattr $C$DW$193, DW_AT_TI_symbol_name("_xListEnd")
    2315                      .dwattr $C$DW$193, DW_AT_data_member_location[DW_OP_plus_uconst 0x4]
    2316                      .dwattr $C$DW$193, DW_AT_accessibility(DW_ACCESS_public)
    2317                      .dwendtag $C$DW$T$28
    2318              
    2319              $C$DW$T$21      .dwtag  DW_TAG_typedef, DW_AT_name("List_t")
    2320                      .dwattr $C$DW$T$21, DW_AT_type(*$C$DW$T$28)
    2321                      .dwattr $C$DW$T$21, DW_AT_language(DW_LANG_C)
    2322              $C$DW$194       .dwtag  DW_TAG_TI_far_type
    2323                      .dwattr $C$DW$194, DW_AT_type(*$C$DW$T$21)
    2324              $C$DW$T$77      .dwtag  DW_TAG_const_type
    2325                      .dwattr $C$DW$T$77, DW_AT_type(*$C$DW$194)
    2326              $C$DW$T$78      .dwtag  DW_TAG_pointer_type
    2327                      .dwattr $C$DW$T$78, DW_AT_type(*$C$DW$T$77)
    2328                      .dwattr $C$DW$T$78, DW_AT_address_class(0x17)
    2329              $C$DW$T$48      .dwtag  DW_TAG_pointer_type
    2330                      .dwattr $C$DW$T$48, DW_AT_type(*$C$DW$T$21)
    2331                      .dwattr $C$DW$T$48, DW_AT_address_class(0x17)
    2332              $C$DW$195       .dwtag  DW_TAG_TI_far_type
    2333                      .dwattr $C$DW$195, DW_AT_type(*$C$DW$T$48)
    2334              $C$DW$T$49      .dwtag  DW_TAG_const_type
    2335                      .dwattr $C$DW$T$49, DW_AT_type(*$C$DW$195)
    2336              $C$DW$T$30      .dwtag  DW_TAG_pointer_type
    2337                      .dwattr $C$DW$T$30, DW_AT_type(*$C$DW$T$28)
    2338                      .dwattr $C$DW$T$30, DW_AT_address_class(0x17)
    2339              
    2340              $C$DW$T$31      .dwtag  DW_TAG_structure_type
    2341                      .dwattr $C$DW$T$31, DW_AT_name("xLIST_ITEM")
    2342                      .dwattr $C$DW$T$31, DW_AT_byte_size(0x0a)
    2343              $C$DW$196       .dwtag  DW_TAG_member
    2344                      .dwattr $C$DW$196, DW_AT_type(*$C$DW$T$19)
    2345                      .dwattr $C$DW$196, DW_AT_name("xItemValue")
    2346                      .dwattr $C$DW$196, DW_AT_TI_symbol_name("_xItemValue")
    2347                      .dwattr $C$DW$196, DW_AT_data_member_location[DW_OP_plus_uconst 0x0]
    2348                      .dwattr $C$DW$196, DW_AT_accessibility(DW_ACCESS_public)
    2349              $C$DW$197       .dwtag  DW_TAG_member
    2350                      .dwattr $C$DW$197, DW_AT_type(*$C$DW$T$29)
    2351                      .dwattr $C$DW$197, DW_AT_name("pxNext")
    2352                      .dwattr $C$DW$197, DW_AT_TI_symbol_name("_pxNext")
    2353                      .dwattr $C$DW$197, DW_AT_data_member_location[DW_OP_plus_uconst 0x2]
    2354                      .dwattr $C$DW$197, DW_AT_accessibility(DW_ACCESS_public)
    2355              $C$DW$198       .dwtag  DW_TAG_member
    2356                      .dwattr $C$DW$198, DW_AT_type(*$C$DW$T$29)
    2357                      .dwattr $C$DW$198, DW_AT_name("pxPrevious")
    2358                      .dwattr $C$DW$198, DW_AT_TI_symbol_name("_pxPrevious")
    2359                      .dwattr $C$DW$198, DW_AT_data_member_location[DW_OP_plus_uconst 0x4]
    2360                      .dwattr $C$DW$198, DW_AT_accessibility(DW_ACCESS_public)
    2361              $C$DW$199       .dwtag  DW_TAG_member
    2362                      .dwattr $C$DW$199, DW_AT_type(*$C$DW$T$3)
    2363                      .dwattr $C$DW$199, DW_AT_name("pvOwner")
    2364                      .dwattr $C$DW$199, DW_AT_TI_symbol_name("_pvOwner")
TMS320C55x Assembler PC v4.4.1 Sat Sep 15 04:08:18 2018

Tools Copyright (c) 1996-2012 Texas Instruments Incorporated
event_groups.asm                                                     PAGE   50

    2365                      .dwattr $C$DW$199, DW_AT_data_member_location[DW_OP_plus_uconst 0x6]
    2366                      .dwattr $C$DW$199, DW_AT_accessibility(DW_ACCESS_public)
    2367              $C$DW$200       .dwtag  DW_TAG_member
    2368                      .dwattr $C$DW$200, DW_AT_type(*$C$DW$T$30)
    2369                      .dwattr $C$DW$200, DW_AT_name("pvContainer")
    2370                      .dwattr $C$DW$200, DW_AT_TI_symbol_name("_pvContainer")
    2371                      .dwattr $C$DW$200, DW_AT_data_member_location[DW_OP_plus_uconst 0x8]
    2372                      .dwattr $C$DW$200, DW_AT_accessibility(DW_ACCESS_public)
    2373                      .dwendtag $C$DW$T$31
    2374              
    2375              $C$DW$T$25      .dwtag  DW_TAG_typedef, DW_AT_name("ListItem_t")
    2376                      .dwattr $C$DW$T$25, DW_AT_type(*$C$DW$T$31)
    2377                      .dwattr $C$DW$T$25, DW_AT_language(DW_LANG_C)
    2378              $C$DW$201       .dwtag  DW_TAG_TI_far_type
    2379                      .dwattr $C$DW$201, DW_AT_type(*$C$DW$T$25)
    2380              $C$DW$T$79      .dwtag  DW_TAG_const_type
    2381                      .dwattr $C$DW$T$79, DW_AT_type(*$C$DW$201)
    2382              $C$DW$T$80      .dwtag  DW_TAG_pointer_type
    2383                      .dwattr $C$DW$T$80, DW_AT_type(*$C$DW$T$79)
    2384                      .dwattr $C$DW$T$80, DW_AT_address_class(0x17)
    2385              $C$DW$T$26      .dwtag  DW_TAG_pointer_type
    2386                      .dwattr $C$DW$T$26, DW_AT_type(*$C$DW$T$25)
    2387                      .dwattr $C$DW$T$26, DW_AT_address_class(0x17)
    2388              $C$DW$T$29      .dwtag  DW_TAG_pointer_type
    2389                      .dwattr $C$DW$T$29, DW_AT_type(*$C$DW$T$31)
    2390                      .dwattr $C$DW$T$29, DW_AT_address_class(0x17)
    2391              
    2392              $C$DW$T$32      .dwtag  DW_TAG_structure_type
    2393                      .dwattr $C$DW$T$32, DW_AT_name("xMINI_LIST_ITEM")
    2394                      .dwattr $C$DW$T$32, DW_AT_byte_size(0x06)
    2395              $C$DW$202       .dwtag  DW_TAG_member
    2396                      .dwattr $C$DW$202, DW_AT_type(*$C$DW$T$19)
    2397                      .dwattr $C$DW$202, DW_AT_name("xItemValue")
    2398                      .dwattr $C$DW$202, DW_AT_TI_symbol_name("_xItemValue")
    2399                      .dwattr $C$DW$202, DW_AT_data_member_location[DW_OP_plus_uconst 0x0]
    2400                      .dwattr $C$DW$202, DW_AT_accessibility(DW_ACCESS_public)
    2401              $C$DW$203       .dwtag  DW_TAG_member
    2402                      .dwattr $C$DW$203, DW_AT_type(*$C$DW$T$29)
    2403                      .dwattr $C$DW$203, DW_AT_name("pxNext")
    2404                      .dwattr $C$DW$203, DW_AT_TI_symbol_name("_pxNext")
    2405                      .dwattr $C$DW$203, DW_AT_data_member_location[DW_OP_plus_uconst 0x2]
    2406                      .dwattr $C$DW$203, DW_AT_accessibility(DW_ACCESS_public)
    2407              $C$DW$204       .dwtag  DW_TAG_member
    2408                      .dwattr $C$DW$204, DW_AT_type(*$C$DW$T$29)
    2409                      .dwattr $C$DW$204, DW_AT_name("pxPrevious")
    2410                      .dwattr $C$DW$204, DW_AT_TI_symbol_name("_pxPrevious")
    2411                      .dwattr $C$DW$204, DW_AT_data_member_location[DW_OP_plus_uconst 0x4]
    2412                      .dwattr $C$DW$204, DW_AT_accessibility(DW_ACCESS_public)
    2413                      .dwendtag $C$DW$T$32
    2414              
    2415              $C$DW$T$27      .dwtag  DW_TAG_typedef, DW_AT_name("MiniListItem_t")
    2416                      .dwattr $C$DW$T$27, DW_AT_type(*$C$DW$T$32)
    2417                      .dwattr $C$DW$T$27, DW_AT_language(DW_LANG_C)
    2418                      .dwattr $C$DW$CU, DW_AT_language(DW_LANG_C)
    2419              
TMS320C55x Assembler PC v4.4.1 Sat Sep 15 04:08:18 2018

Tools Copyright (c) 1996-2012 Texas Instruments Incorporated
event_groups.asm                                                     PAGE   51

    2420              ;***************************************************************
    2421              ;* DWARF CIE ENTRIES                                           *
    2422              ;***************************************************************
    2423              
    2424              $C$DW$CIE       .dwcie 91
    2425                      .dwcfi  cfa_register, 36
    2426                      .dwcfi  cfa_offset, 0
    2427                      .dwcfi  undefined, 0
    2428                      .dwcfi  undefined, 1
    2429                      .dwcfi  undefined, 2
    2430                      .dwcfi  undefined, 3
    2431                      .dwcfi  undefined, 4
    2432                      .dwcfi  undefined, 5
    2433                      .dwcfi  undefined, 6
    2434                      .dwcfi  undefined, 7
    2435                      .dwcfi  undefined, 8
    2436                      .dwcfi  undefined, 9
    2437                      .dwcfi  undefined, 10
    2438                      .dwcfi  undefined, 11
    2439                      .dwcfi  undefined, 12
    2440                      .dwcfi  undefined, 13
    2441                      .dwcfi  same_value, 14
    2442                      .dwcfi  same_value, 15
    2443                      .dwcfi  undefined, 16
    2444                      .dwcfi  undefined, 17
    2445                      .dwcfi  undefined, 18
    2446                      .dwcfi  undefined, 19
    2447                      .dwcfi  undefined, 20
    2448                      .dwcfi  undefined, 21
    2449                      .dwcfi  undefined, 22
    2450                      .dwcfi  undefined, 23
    2451                      .dwcfi  undefined, 24
    2452                      .dwcfi  undefined, 25
    2453                      .dwcfi  same_value, 26
    2454                      .dwcfi  same_value, 27
    2455                      .dwcfi  same_value, 28
    2456                      .dwcfi  same_value, 29
    2457                      .dwcfi  same_value, 30
    2458                      .dwcfi  same_value, 31
    2459                      .dwcfi  undefined, 32
    2460                      .dwcfi  undefined, 33
    2461                      .dwcfi  undefined, 34
    2462                      .dwcfi  undefined, 35
    2463                      .dwcfi  undefined, 36
    2464                      .dwcfi  undefined, 37
    2465                      .dwcfi  undefined, 38
    2466                      .dwcfi  undefined, 39
    2467                      .dwcfi  undefined, 40
    2468                      .dwcfi  undefined, 41
    2469                      .dwcfi  undefined, 42
    2470                      .dwcfi  undefined, 43
    2471                      .dwcfi  undefined, 44
    2472                      .dwcfi  undefined, 45
    2473                      .dwcfi  undefined, 46
    2474                      .dwcfi  undefined, 47
TMS320C55x Assembler PC v4.4.1 Sat Sep 15 04:08:18 2018

Tools Copyright (c) 1996-2012 Texas Instruments Incorporated
event_groups.asm                                                     PAGE   52

    2475                      .dwcfi  undefined, 48
    2476                      .dwcfi  undefined, 49
    2477                      .dwcfi  undefined, 50
    2478                      .dwcfi  undefined, 51
    2479                      .dwcfi  undefined, 52
    2480                      .dwcfi  undefined, 53
    2481                      .dwcfi  undefined, 54
    2482                      .dwcfi  undefined, 55
    2483                      .dwcfi  undefined, 56
    2484                      .dwcfi  undefined, 57
    2485                      .dwcfi  undefined, 58
    2486                      .dwcfi  undefined, 59
    2487                      .dwcfi  undefined, 60
    2488                      .dwcfi  undefined, 61
    2489                      .dwcfi  undefined, 62
    2490                      .dwcfi  undefined, 63
    2491                      .dwcfi  undefined, 64
    2492                      .dwcfi  undefined, 65
    2493                      .dwcfi  undefined, 66
    2494                      .dwcfi  undefined, 67
    2495                      .dwcfi  undefined, 68
    2496                      .dwcfi  undefined, 69
    2497                      .dwcfi  undefined, 70
    2498                      .dwcfi  undefined, 71
    2499                      .dwcfi  undefined, 72
    2500                      .dwcfi  undefined, 73
    2501                      .dwcfi  undefined, 74
    2502                      .dwcfi  undefined, 75
    2503                      .dwcfi  undefined, 76
    2504                      .dwcfi  undefined, 77
    2505                      .dwcfi  undefined, 78
    2506                      .dwcfi  undefined, 79
    2507                      .dwcfi  undefined, 80
    2508                      .dwcfi  undefined, 81
    2509                      .dwcfi  undefined, 82
    2510                      .dwcfi  undefined, 83
    2511                      .dwcfi  undefined, 84
    2512                      .dwcfi  undefined, 85
    2513                      .dwcfi  undefined, 86
    2514                      .dwcfi  undefined, 87
    2515                      .dwcfi  undefined, 88
    2516                      .dwcfi  undefined, 89
    2517                      .dwcfi  undefined, 90
    2518                      .dwcfi  undefined, 91
    2519                      .dwendentry
    2520              
    2521              ;***************************************************************
    2522              ;* DWARF REGISTER MAP                                          *
    2523              ;***************************************************************
    2524              
    2525              $C$DW$205       .dwtag  DW_TAG_TI_assign_register, DW_AT_name("AC0")
    2526                      .dwattr $C$DW$205, DW_AT_location[DW_OP_reg0]
    2527              $C$DW$206       .dwtag  DW_TAG_TI_assign_register, DW_AT_name("AC0")
    2528                      .dwattr $C$DW$206, DW_AT_location[DW_OP_reg1]
    2529              $C$DW$207       .dwtag  DW_TAG_TI_assign_register, DW_AT_name("AC0_G")
TMS320C55x Assembler PC v4.4.1 Sat Sep 15 04:08:18 2018

Tools Copyright (c) 1996-2012 Texas Instruments Incorporated
event_groups.asm                                                     PAGE   53

    2530                      .dwattr $C$DW$207, DW_AT_location[DW_OP_reg2]
    2531              $C$DW$208       .dwtag  DW_TAG_TI_assign_register, DW_AT_name("AC1")
    2532                      .dwattr $C$DW$208, DW_AT_location[DW_OP_reg3]
    2533              $C$DW$209       .dwtag  DW_TAG_TI_assign_register, DW_AT_name("AC1")
    2534                      .dwattr $C$DW$209, DW_AT_location[DW_OP_reg4]
    2535              $C$DW$210       .dwtag  DW_TAG_TI_assign_register, DW_AT_name("AC1_G")
    2536                      .dwattr $C$DW$210, DW_AT_location[DW_OP_reg5]
    2537              $C$DW$211       .dwtag  DW_TAG_TI_assign_register, DW_AT_name("AC2")
    2538                      .dwattr $C$DW$211, DW_AT_location[DW_OP_reg6]
    2539              $C$DW$212       .dwtag  DW_TAG_TI_assign_register, DW_AT_name("AC2")
    2540                      .dwattr $C$DW$212, DW_AT_location[DW_OP_reg7]
    2541              $C$DW$213       .dwtag  DW_TAG_TI_assign_register, DW_AT_name("AC2_G")
    2542                      .dwattr $C$DW$213, DW_AT_location[DW_OP_reg8]
    2543              $C$DW$214       .dwtag  DW_TAG_TI_assign_register, DW_AT_name("AC3")
    2544                      .dwattr $C$DW$214, DW_AT_location[DW_OP_reg9]
    2545              $C$DW$215       .dwtag  DW_TAG_TI_assign_register, DW_AT_name("AC3")
    2546                      .dwattr $C$DW$215, DW_AT_location[DW_OP_reg10]
    2547              $C$DW$216       .dwtag  DW_TAG_TI_assign_register, DW_AT_name("AC3_G")
    2548                      .dwattr $C$DW$216, DW_AT_location[DW_OP_reg11]
    2549              $C$DW$217       .dwtag  DW_TAG_TI_assign_register, DW_AT_name("T0")
    2550                      .dwattr $C$DW$217, DW_AT_location[DW_OP_reg12]
    2551              $C$DW$218       .dwtag  DW_TAG_TI_assign_register, DW_AT_name("T1")
    2552                      .dwattr $C$DW$218, DW_AT_location[DW_OP_reg13]
    2553              $C$DW$219       .dwtag  DW_TAG_TI_assign_register, DW_AT_name("T2")
    2554                      .dwattr $C$DW$219, DW_AT_location[DW_OP_reg14]
    2555              $C$DW$220       .dwtag  DW_TAG_TI_assign_register, DW_AT_name("T3")
    2556                      .dwattr $C$DW$220, DW_AT_location[DW_OP_reg15]
    2557              $C$DW$221       .dwtag  DW_TAG_TI_assign_register, DW_AT_name("AR0")
    2558                      .dwattr $C$DW$221, DW_AT_location[DW_OP_reg16]
    2559              $C$DW$222       .dwtag  DW_TAG_TI_assign_register, DW_AT_name("XAR0")
    2560                      .dwattr $C$DW$222, DW_AT_location[DW_OP_reg17]
    2561              $C$DW$223       .dwtag  DW_TAG_TI_assign_register, DW_AT_name("AR1")
    2562                      .dwattr $C$DW$223, DW_AT_location[DW_OP_reg18]
    2563              $C$DW$224       .dwtag  DW_TAG_TI_assign_register, DW_AT_name("XAR1")
    2564                      .dwattr $C$DW$224, DW_AT_location[DW_OP_reg19]
    2565              $C$DW$225       .dwtag  DW_TAG_TI_assign_register, DW_AT_name("AR2")
    2566                      .dwattr $C$DW$225, DW_AT_location[DW_OP_reg20]
    2567              $C$DW$226       .dwtag  DW_TAG_TI_assign_register, DW_AT_name("XAR2")
    2568                      .dwattr $C$DW$226, DW_AT_location[DW_OP_reg21]
    2569              $C$DW$227       .dwtag  DW_TAG_TI_assign_register, DW_AT_name("AR3")
    2570                      .dwattr $C$DW$227, DW_AT_location[DW_OP_reg22]
    2571              $C$DW$228       .dwtag  DW_TAG_TI_assign_register, DW_AT_name("XAR3")
    2572                      .dwattr $C$DW$228, DW_AT_location[DW_OP_reg23]
    2573              $C$DW$229       .dwtag  DW_TAG_TI_assign_register, DW_AT_name("AR4")
    2574                      .dwattr $C$DW$229, DW_AT_location[DW_OP_reg24]
    2575              $C$DW$230       .dwtag  DW_TAG_TI_assign_register, DW_AT_name("XAR4")
    2576                      .dwattr $C$DW$230, DW_AT_location[DW_OP_reg25]
    2577              $C$DW$231       .dwtag  DW_TAG_TI_assign_register, DW_AT_name("AR5")
    2578                      .dwattr $C$DW$231, DW_AT_location[DW_OP_reg26]
    2579              $C$DW$232       .dwtag  DW_TAG_TI_assign_register, DW_AT_name("XAR5")
    2580                      .dwattr $C$DW$232, DW_AT_location[DW_OP_reg27]
    2581              $C$DW$233       .dwtag  DW_TAG_TI_assign_register, DW_AT_name("AR6")
    2582                      .dwattr $C$DW$233, DW_AT_location[DW_OP_reg28]
    2583              $C$DW$234       .dwtag  DW_TAG_TI_assign_register, DW_AT_name("XAR6")
    2584                      .dwattr $C$DW$234, DW_AT_location[DW_OP_reg29]
TMS320C55x Assembler PC v4.4.1 Sat Sep 15 04:08:18 2018

Tools Copyright (c) 1996-2012 Texas Instruments Incorporated
event_groups.asm                                                     PAGE   54

    2585              $C$DW$235       .dwtag  DW_TAG_TI_assign_register, DW_AT_name("AR7")
    2586                      .dwattr $C$DW$235, DW_AT_location[DW_OP_reg30]
    2587              $C$DW$236       .dwtag  DW_TAG_TI_assign_register, DW_AT_name("XAR7")
    2588                      .dwattr $C$DW$236, DW_AT_location[DW_OP_reg31]
    2589              $C$DW$237       .dwtag  DW_TAG_TI_assign_register, DW_AT_name("FP")
    2590                      .dwattr $C$DW$237, DW_AT_location[DW_OP_regx 0x20]
    2591              $C$DW$238       .dwtag  DW_TAG_TI_assign_register, DW_AT_name("XFP")
    2592                      .dwattr $C$DW$238, DW_AT_location[DW_OP_regx 0x21]
    2593              $C$DW$239       .dwtag  DW_TAG_TI_assign_register, DW_AT_name("PC")
    2594                      .dwattr $C$DW$239, DW_AT_location[DW_OP_regx 0x22]
    2595              $C$DW$240       .dwtag  DW_TAG_TI_assign_register, DW_AT_name("SP")
    2596                      .dwattr $C$DW$240, DW_AT_location[DW_OP_regx 0x23]
    2597              $C$DW$241       .dwtag  DW_TAG_TI_assign_register, DW_AT_name("XSP")
    2598                      .dwattr $C$DW$241, DW_AT_location[DW_OP_regx 0x24]
    2599              $C$DW$242       .dwtag  DW_TAG_TI_assign_register, DW_AT_name("BKC")
    2600                      .dwattr $C$DW$242, DW_AT_location[DW_OP_regx 0x25]
    2601              $C$DW$243       .dwtag  DW_TAG_TI_assign_register, DW_AT_name("BK03")
    2602                      .dwattr $C$DW$243, DW_AT_location[DW_OP_regx 0x26]
    2603              $C$DW$244       .dwtag  DW_TAG_TI_assign_register, DW_AT_name("BK47")
    2604                      .dwattr $C$DW$244, DW_AT_location[DW_OP_regx 0x27]
    2605              $C$DW$245       .dwtag  DW_TAG_TI_assign_register, DW_AT_name("ST0")
    2606                      .dwattr $C$DW$245, DW_AT_location[DW_OP_regx 0x28]
    2607              $C$DW$246       .dwtag  DW_TAG_TI_assign_register, DW_AT_name("ST1")
    2608                      .dwattr $C$DW$246, DW_AT_location[DW_OP_regx 0x29]
    2609              $C$DW$247       .dwtag  DW_TAG_TI_assign_register, DW_AT_name("ST2")
    2610                      .dwattr $C$DW$247, DW_AT_location[DW_OP_regx 0x2a]
    2611              $C$DW$248       .dwtag  DW_TAG_TI_assign_register, DW_AT_name("ST3")
    2612                      .dwattr $C$DW$248, DW_AT_location[DW_OP_regx 0x2b]
    2613              $C$DW$249       .dwtag  DW_TAG_TI_assign_register, DW_AT_name("MDP")
    2614                      .dwattr $C$DW$249, DW_AT_location[DW_OP_regx 0x2c]
    2615              $C$DW$250       .dwtag  DW_TAG_TI_assign_register, DW_AT_name("MDP05")
    2616                      .dwattr $C$DW$250, DW_AT_location[DW_OP_regx 0x2d]
    2617              $C$DW$251       .dwtag  DW_TAG_TI_assign_register, DW_AT_name("MDP67")
    2618                      .dwattr $C$DW$251, DW_AT_location[DW_OP_regx 0x2e]
    2619              $C$DW$252       .dwtag  DW_TAG_TI_assign_register, DW_AT_name("BRC0")
    2620                      .dwattr $C$DW$252, DW_AT_location[DW_OP_regx 0x2f]
    2621              $C$DW$253       .dwtag  DW_TAG_TI_assign_register, DW_AT_name("RSA0")
    2622                      .dwattr $C$DW$253, DW_AT_location[DW_OP_regx 0x30]
    2623              $C$DW$254       .dwtag  DW_TAG_TI_assign_register, DW_AT_name("RSA0_H")
    2624                      .dwattr $C$DW$254, DW_AT_location[DW_OP_regx 0x31]
    2625              $C$DW$255       .dwtag  DW_TAG_TI_assign_register, DW_AT_name("REA0")
    2626                      .dwattr $C$DW$255, DW_AT_location[DW_OP_regx 0x32]
    2627              $C$DW$256       .dwtag  DW_TAG_TI_assign_register, DW_AT_name("REA0_H")
    2628                      .dwattr $C$DW$256, DW_AT_location[DW_OP_regx 0x33]
    2629              $C$DW$257       .dwtag  DW_TAG_TI_assign_register, DW_AT_name("BRS1")
    2630                      .dwattr $C$DW$257, DW_AT_location[DW_OP_regx 0x34]
    2631              $C$DW$258       .dwtag  DW_TAG_TI_assign_register, DW_AT_name("BRC1")
    2632                      .dwattr $C$DW$258, DW_AT_location[DW_OP_regx 0x35]
    2633              $C$DW$259       .dwtag  DW_TAG_TI_assign_register, DW_AT_name("RSA1")
    2634                      .dwattr $C$DW$259, DW_AT_location[DW_OP_regx 0x36]
    2635              $C$DW$260       .dwtag  DW_TAG_TI_assign_register, DW_AT_name("RSA1_H")
    2636                      .dwattr $C$DW$260, DW_AT_location[DW_OP_regx 0x37]
    2637              $C$DW$261       .dwtag  DW_TAG_TI_assign_register, DW_AT_name("REA1")
    2638                      .dwattr $C$DW$261, DW_AT_location[DW_OP_regx 0x38]
    2639              $C$DW$262       .dwtag  DW_TAG_TI_assign_register, DW_AT_name("REA1_H")
TMS320C55x Assembler PC v4.4.1 Sat Sep 15 04:08:18 2018

Tools Copyright (c) 1996-2012 Texas Instruments Incorporated
event_groups.asm                                                     PAGE   55

    2640                      .dwattr $C$DW$262, DW_AT_location[DW_OP_regx 0x39]
    2641              $C$DW$263       .dwtag  DW_TAG_TI_assign_register, DW_AT_name("CSR")
    2642                      .dwattr $C$DW$263, DW_AT_location[DW_OP_regx 0x3a]
    2643              $C$DW$264       .dwtag  DW_TAG_TI_assign_register, DW_AT_name("RPTC")
    2644                      .dwattr $C$DW$264, DW_AT_location[DW_OP_regx 0x3b]
    2645              $C$DW$265       .dwtag  DW_TAG_TI_assign_register, DW_AT_name("CDP")
    2646                      .dwattr $C$DW$265, DW_AT_location[DW_OP_regx 0x3c]
    2647              $C$DW$266       .dwtag  DW_TAG_TI_assign_register, DW_AT_name("XCDP")
    2648                      .dwattr $C$DW$266, DW_AT_location[DW_OP_regx 0x3d]
    2649              $C$DW$267       .dwtag  DW_TAG_TI_assign_register, DW_AT_name("TRN0")
    2650                      .dwattr $C$DW$267, DW_AT_location[DW_OP_regx 0x3e]
    2651              $C$DW$268       .dwtag  DW_TAG_TI_assign_register, DW_AT_name("TRN1")
    2652                      .dwattr $C$DW$268, DW_AT_location[DW_OP_regx 0x3f]
    2653              $C$DW$269       .dwtag  DW_TAG_TI_assign_register, DW_AT_name("BSA01")
    2654                      .dwattr $C$DW$269, DW_AT_location[DW_OP_regx 0x40]
    2655              $C$DW$270       .dwtag  DW_TAG_TI_assign_register, DW_AT_name("BSA23")
    2656                      .dwattr $C$DW$270, DW_AT_location[DW_OP_regx 0x41]
    2657              $C$DW$271       .dwtag  DW_TAG_TI_assign_register, DW_AT_name("BSA45")
    2658                      .dwattr $C$DW$271, DW_AT_location[DW_OP_regx 0x42]
    2659              $C$DW$272       .dwtag  DW_TAG_TI_assign_register, DW_AT_name("BSA67")
    2660                      .dwattr $C$DW$272, DW_AT_location[DW_OP_regx 0x43]
    2661              $C$DW$273       .dwtag  DW_TAG_TI_assign_register, DW_AT_name("BSAC")
    2662                      .dwattr $C$DW$273, DW_AT_location[DW_OP_regx 0x44]
    2663              $C$DW$274       .dwtag  DW_TAG_TI_assign_register, DW_AT_name("CARRY")
    2664                      .dwattr $C$DW$274, DW_AT_location[DW_OP_regx 0x45]
    2665              $C$DW$275       .dwtag  DW_TAG_TI_assign_register, DW_AT_name("TC1")
    2666                      .dwattr $C$DW$275, DW_AT_location[DW_OP_regx 0x46]
    2667              $C$DW$276       .dwtag  DW_TAG_TI_assign_register, DW_AT_name("TC2")
    2668                      .dwattr $C$DW$276, DW_AT_location[DW_OP_regx 0x47]
    2669              $C$DW$277       .dwtag  DW_TAG_TI_assign_register, DW_AT_name("M40")
    2670                      .dwattr $C$DW$277, DW_AT_location[DW_OP_regx 0x48]
    2671              $C$DW$278       .dwtag  DW_TAG_TI_assign_register, DW_AT_name("SXMD")
    2672                      .dwattr $C$DW$278, DW_AT_location[DW_OP_regx 0x49]
    2673              $C$DW$279       .dwtag  DW_TAG_TI_assign_register, DW_AT_name("ARMS")
    2674                      .dwattr $C$DW$279, DW_AT_location[DW_OP_regx 0x4a]
    2675              $C$DW$280       .dwtag  DW_TAG_TI_assign_register, DW_AT_name("C54CM")
    2676                      .dwattr $C$DW$280, DW_AT_location[DW_OP_regx 0x4b]
    2677              $C$DW$281       .dwtag  DW_TAG_TI_assign_register, DW_AT_name("SATA")
    2678                      .dwattr $C$DW$281, DW_AT_location[DW_OP_regx 0x4c]
    2679              $C$DW$282       .dwtag  DW_TAG_TI_assign_register, DW_AT_name("SATD")
    2680                      .dwattr $C$DW$282, DW_AT_location[DW_OP_regx 0x4d]
    2681              $C$DW$283       .dwtag  DW_TAG_TI_assign_register, DW_AT_name("RDM")
    2682                      .dwattr $C$DW$283, DW_AT_location[DW_OP_regx 0x4e]
    2683              $C$DW$284       .dwtag  DW_TAG_TI_assign_register, DW_AT_name("FRCT")
    2684                      .dwattr $C$DW$284, DW_AT_location[DW_OP_regx 0x4f]
    2685              $C$DW$285       .dwtag  DW_TAG_TI_assign_register, DW_AT_name("SMUL")
    2686                      .dwattr $C$DW$285, DW_AT_location[DW_OP_regx 0x50]
    2687              $C$DW$286       .dwtag  DW_TAG_TI_assign_register, DW_AT_name("INTM")
    2688                      .dwattr $C$DW$286, DW_AT_location[DW_OP_regx 0x51]
    2689              $C$DW$287       .dwtag  DW_TAG_TI_assign_register, DW_AT_name("AR0LC")
    2690                      .dwattr $C$DW$287, DW_AT_location[DW_OP_regx 0x52]
    2691              $C$DW$288       .dwtag  DW_TAG_TI_assign_register, DW_AT_name("AR1LC")
    2692                      .dwattr $C$DW$288, DW_AT_location[DW_OP_regx 0x53]
    2693              $C$DW$289       .dwtag  DW_TAG_TI_assign_register, DW_AT_name("AR2LC")
    2694                      .dwattr $C$DW$289, DW_AT_location[DW_OP_regx 0x54]
TMS320C55x Assembler PC v4.4.1 Sat Sep 15 04:08:18 2018

Tools Copyright (c) 1996-2012 Texas Instruments Incorporated
event_groups.asm                                                     PAGE   56

    2695              $C$DW$290       .dwtag  DW_TAG_TI_assign_register, DW_AT_name("AR3LC")
    2696                      .dwattr $C$DW$290, DW_AT_location[DW_OP_regx 0x55]
    2697              $C$DW$291       .dwtag  DW_TAG_TI_assign_register, DW_AT_name("AR4LC")
    2698                      .dwattr $C$DW$291, DW_AT_location[DW_OP_regx 0x56]
    2699              $C$DW$292       .dwtag  DW_TAG_TI_assign_register, DW_AT_name("AR5LC")
    2700                      .dwattr $C$DW$292, DW_AT_location[DW_OP_regx 0x57]
    2701              $C$DW$293       .dwtag  DW_TAG_TI_assign_register, DW_AT_name("AR6LC")
    2702                      .dwattr $C$DW$293, DW_AT_location[DW_OP_regx 0x58]
    2703              $C$DW$294       .dwtag  DW_TAG_TI_assign_register, DW_AT_name("AR7LC")
    2704                      .dwattr $C$DW$294, DW_AT_location[DW_OP_regx 0x59]
    2705              $C$DW$295       .dwtag  DW_TAG_TI_assign_register, DW_AT_name("CDPLC")
    2706                      .dwattr $C$DW$295, DW_AT_location[DW_OP_regx 0x5a]
    2707              $C$DW$296       .dwtag  DW_TAG_TI_assign_register, DW_AT_name("CIE_RETA")
    2708                      .dwattr $C$DW$296, DW_AT_location[DW_OP_regx 0x5b]
    2709                      .dwendtag $C$DW$CU
    2710              
    2710              
    2710              

No Assembly Errors, No Assembly Warnings
