TMS320C55x Assembler PC v4.4.1 Sun Sep 09 04:48:34 2018

Tools Copyright (c) 1996-2012 Texas Instruments Incorporated
event_groups.asm                                                     PAGE    1

    2220              ; Temporary Registers Used: None
       1              ;*******************************************************************************
       2              ;* TMS320C55x C/C++ Codegen                                          PC v4.4.1 *
       3              ;* Date/Time created: Sun Sep 09 04:48:33 2018                                 *
       4              ;*******************************************************************************
       5                      .compiler_opts --hll_source=on --mem_model:code=flat --mem_model:data=large --object_format=coff --si
       6                      .mmregs
       7                      .cpl_on
       8                      .arms_on
       9                      .c54cm_off
      10                      .asg AR6, FP
      11                      .asg XAR6, XFP
      12                      .asg DPH, MDP
      13                      .model call=c55_std
      14                      .model mem=large
      15                      .noremark 5002  ; code respects overwrite rules
      16              ;*******************************************************************************
      17              ;* GLOBAL FILE PARAMETERS                                                      *
      18              ;*                                                                             *
      19              ;*   Architecture       : TMS320C55x                                           *
      20              ;*   Optimizing for     : Speed                                                *
      21              ;*   Memory             : Large Model (23-Bit Data Pointers)                   *
      22              ;*   Calls              : Normal Library ASM calls                             *
      23              ;*   Debug Info         : Standard TI Debug Information                        *
      24              ;*******************************************************************************
      25              
      26              $C$DW$CU        .dwtag  DW_TAG_compile_unit
      27                      .dwattr $C$DW$CU, DW_AT_name("../FreeRTOS/Source/event_groups.c")
      28                      .dwattr $C$DW$CU, DW_AT_producer("TMS320C55x C/C++ Codegen PC v4.4.1 Copyright (c) 1996-2012 Texas In
      29                      .dwattr $C$DW$CU, DW_AT_TI_version(0x01)
      30                      .dwattr $C$DW$CU, DW_AT_comp_dir("F:\eZdsp_DBG\eZDSP_5535_Files\ccsws2\test\Debug")
      31              
      32              $C$DW$1 .dwtag  DW_TAG_subprogram, DW_AT_name("vPortYield")
      33                      .dwattr $C$DW$1, DW_AT_TI_symbol_name("_vPortYield")
      34                      .dwattr $C$DW$1, DW_AT_declaration
      35                      .dwattr $C$DW$1, DW_AT_external
      36              
      37              $C$DW$2 .dwtag  DW_TAG_subprogram, DW_AT_name("pvPortMalloc")
      38                      .dwattr $C$DW$2, DW_AT_TI_symbol_name("_pvPortMalloc")
      39                      .dwattr $C$DW$2, DW_AT_type(*$C$DW$T$3)
      40                      .dwattr $C$DW$2, DW_AT_declaration
      41                      .dwattr $C$DW$2, DW_AT_external
      42              $C$DW$3 .dwtag  DW_TAG_formal_parameter
      43                      .dwattr $C$DW$3, DW_AT_type(*$C$DW$T$41)
      44                      .dwendtag $C$DW$2
      45              
      46              
      47              $C$DW$4 .dwtag  DW_TAG_subprogram, DW_AT_name("vPortFree")
      48                      .dwattr $C$DW$4, DW_AT_TI_symbol_name("_vPortFree")
      49                      .dwattr $C$DW$4, DW_AT_declaration
      50                      .dwattr $C$DW$4, DW_AT_external
      51              $C$DW$5 .dwtag  DW_TAG_formal_parameter
      52                      .dwattr $C$DW$5, DW_AT_type(*$C$DW$T$3)
      53                      .dwendtag $C$DW$4
      54              
TMS320C55x Assembler PC v4.4.1 Sun Sep 09 04:48:34 2018

Tools Copyright (c) 1996-2012 Texas Instruments Incorporated
event_groups.asm                                                     PAGE    2

      55              
      56              $C$DW$6 .dwtag  DW_TAG_subprogram, DW_AT_name("vListInitialise")
      57                      .dwattr $C$DW$6, DW_AT_TI_symbol_name("_vListInitialise")
      58                      .dwattr $C$DW$6, DW_AT_declaration
      59                      .dwattr $C$DW$6, DW_AT_external
      60              $C$DW$7 .dwtag  DW_TAG_formal_parameter
      61                      .dwattr $C$DW$7, DW_AT_type(*$C$DW$T$49)
      62                      .dwendtag $C$DW$6
      63              
      64              
      65              $C$DW$8 .dwtag  DW_TAG_subprogram, DW_AT_name("vTaskSuspendAll")
      66                      .dwattr $C$DW$8, DW_AT_TI_symbol_name("_vTaskSuspendAll")
      67                      .dwattr $C$DW$8, DW_AT_declaration
      68                      .dwattr $C$DW$8, DW_AT_external
      69              
      70              $C$DW$9 .dwtag  DW_TAG_subprogram, DW_AT_name("xTaskResumeAll")
      71                      .dwattr $C$DW$9, DW_AT_TI_symbol_name("_xTaskResumeAll")
      72                      .dwattr $C$DW$9, DW_AT_type(*$C$DW$T$61)
      73                      .dwattr $C$DW$9, DW_AT_declaration
      74                      .dwattr $C$DW$9, DW_AT_external
      75              
      76              $C$DW$10        .dwtag  DW_TAG_subprogram, DW_AT_name("vTaskPlaceOnUnorderedEventList")
      77                      .dwattr $C$DW$10, DW_AT_TI_symbol_name("_vTaskPlaceOnUnorderedEventList")
      78                      .dwattr $C$DW$10, DW_AT_declaration
      79                      .dwattr $C$DW$10, DW_AT_external
      80              $C$DW$11        .dwtag  DW_TAG_formal_parameter
      81                      .dwattr $C$DW$11, DW_AT_type(*$C$DW$T$48)
      82              $C$DW$12        .dwtag  DW_TAG_formal_parameter
      83                      .dwattr $C$DW$12, DW_AT_type(*$C$DW$T$52)
      84              $C$DW$13        .dwtag  DW_TAG_formal_parameter
      85                      .dwattr $C$DW$13, DW_AT_type(*$C$DW$T$52)
      86                      .dwendtag $C$DW$10
      87              
      88              
      89              $C$DW$14        .dwtag  DW_TAG_subprogram, DW_AT_name("vTaskRemoveFromUnorderedEventList")
      90                      .dwattr $C$DW$14, DW_AT_TI_symbol_name("_vTaskRemoveFromUnorderedEventList")
      91                      .dwattr $C$DW$14, DW_AT_declaration
      92                      .dwattr $C$DW$14, DW_AT_external
      93              $C$DW$15        .dwtag  DW_TAG_formal_parameter
      94                      .dwattr $C$DW$15, DW_AT_type(*$C$DW$T$26)
      95              $C$DW$16        .dwtag  DW_TAG_formal_parameter
      96                      .dwattr $C$DW$16, DW_AT_type(*$C$DW$T$52)
      97                      .dwendtag $C$DW$14
      98              
      99              
     100              $C$DW$17        .dwtag  DW_TAG_subprogram, DW_AT_name("uxTaskResetEventItemValue")
     101                      .dwattr $C$DW$17, DW_AT_TI_symbol_name("_uxTaskResetEventItemValue")
     102                      .dwattr $C$DW$17, DW_AT_type(*$C$DW$T$19)
     103                      .dwattr $C$DW$17, DW_AT_declaration
     104                      .dwattr $C$DW$17, DW_AT_external
     105              $C$DW$18        .dwtag  DW_TAG_variable, DW_AT_name("usCriticalNesting")
     106                      .dwattr $C$DW$18, DW_AT_TI_symbol_name("_usCriticalNesting")
     107                      .dwattr $C$DW$18, DW_AT_type(*$C$DW$T$76)
     108                      .dwattr $C$DW$18, DW_AT_declaration
     109                      .dwattr $C$DW$18, DW_AT_external
TMS320C55x Assembler PC v4.4.1 Sun Sep 09 04:48:34 2018

Tools Copyright (c) 1996-2012 Texas Instruments Incorporated
event_groups.asm                                                     PAGE    3

     110              ;       F:\ti\ccs8p1\ccsv8\tools\compiler\alt-install-ti-cgt-c55x_4.4.1\bin\acp55.exe -@f:\\AppData\\Local\\T
     111 000000               .sect   ".text"
     112                      .align 4
     113                      .global _xEventGroupCreate
     114              
     115              $C$DW$19        .dwtag  DW_TAG_subprogram, DW_AT_name("xEventGroupCreate")
     116                      .dwattr $C$DW$19, DW_AT_low_pc(_xEventGroupCreate)
     117                      .dwattr $C$DW$19, DW_AT_high_pc(0x00)
     118                      .dwattr $C$DW$19, DW_AT_TI_symbol_name("_xEventGroupCreate")
     119                      .dwattr $C$DW$19, DW_AT_external
     120                      .dwattr $C$DW$19, DW_AT_type(*$C$DW$T$39)
     121                      .dwattr $C$DW$19, DW_AT_TI_begin_file("../FreeRTOS/Source/event_groups.c")
     122                      .dwattr $C$DW$19, DW_AT_TI_begin_line(0x91)
     123                      .dwattr $C$DW$19, DW_AT_TI_begin_column(0x15)
     124                      .dwattr $C$DW$19, DW_AT_TI_max_frame_size(0x04)
     125                      .dwpsn  file "../FreeRTOS/Source/event_groups.c",line 146,column 2,is_stmt,address _xEventGroupCreate
     126              
     127                      .dwfde $C$DW$CIE, _xEventGroupCreate
     128              ;*******************************************************************************
     129              ;* FUNCTION NAME: xEventGroupCreate                                            *
     130              ;*                                                                             *
     131              ;*   Function Uses Regs : AC0,AC0,T0,AR0,XAR0,AR3,XAR3,SP,M40,SATA,SATD,RDM,   *
     132              ;*                        FRCT,SMUL                                            *
     133              ;*   Stack Frame        : Compact (No Frame Pointer, w/ debug)                 *
     134              ;*   Total Frame Size   : 4 words                                              *
     135              ;*                        (2 return address/alignment)                         *
     136              ;*                        (2 local values)                                     *
     137              ;*   Min System Stack   : 1 word                                               *
     138              ;*******************************************************************************
     139 000000       _xEventGroupCreate:
     140                      .dwcfi  cfa_offset, 1
     141                      .dwcfi  save_reg_to_mem, 91, -1
     142 000000 4EFD          AADD #-3, SP
     143                      .dwcfi  cfa_offset, 4
     144              $C$DW$20        .dwtag  DW_TAG_variable, DW_AT_name("pxEventBits")
     145                      .dwattr $C$DW$20, DW_AT_TI_symbol_name("_pxEventBits")
     146                      .dwattr $C$DW$20, DW_AT_type(*$C$DW$T$37)
     147                      .dwattr $C$DW$20, DW_AT_location[DW_OP_bregx 0x24 0]
     148                      .dwpsn  file "../FreeRTOS/Source/event_groups.c",line 162,column 3,is_stmt
     149              $C$DW$21        .dwtag  DW_TAG_TI_branch
     150                      .dwattr $C$DW$21, DW_AT_low_pc(0x00)
     151                      .dwattr $C$DW$21, DW_AT_name("_pvPortMalloc")
     152                      .dwattr $C$DW$21, DW_AT_TI_call
     153              
     154 000002 6C00          CALL #_pvPortMalloc ; |162| 
         000004 0000!
     155 000006 3DC4  ||      MOV #12, T0
     156              
     157                                                      ; call occurs [#_pvPortMalloc] ; |162| 
     158 000008 EB00          MOV XAR0, dbl(*SP(#0))
         00000a 85   
     159                      .dwpsn  file "../FreeRTOS/Source/event_groups.c",line 164,column 3,is_stmt
     160 00000b ED00          MOV dbl(*SP(#0)), XAR3
         00000d BF   
     161 00000e 90B0          MOV XAR3, AC0
TMS320C55x Assembler PC v4.4.1 Sun Sep 09 04:48:34 2018

Tools Copyright (c) 1996-2012 Texas Instruments Incorporated
event_groups.asm                                                     PAGE    4

     162 000010 6680          BCC $C$L1,AC0 == #0 ; |164| 
     163                                                      ; branchcc occurs ; |164| 
     164                      .dwpsn  file "../FreeRTOS/Source/event_groups.c",line 166,column 4,is_stmt
     165 000012 E661          MOV #0, *AR3 ; |166| 
         000014 00   
     166                      .dwpsn  file "../FreeRTOS/Source/event_groups.c",line 167,column 4,is_stmt
     167 000015 ED00          MOV dbl(*SP(#0)), XAR0
         000017 8F   
     168 000018 1402          AADD #2, AR0 ; |167| 
         00001a 84   
     169              $C$DW$22        .dwtag  DW_TAG_TI_branch
     170                      .dwattr $C$DW$22, DW_AT_low_pc(0x00)
     171                      .dwattr $C$DW$22, DW_AT_name("_vListInitialise")
     172                      .dwattr $C$DW$22, DW_AT_TI_call
     173 00001b 6C00          CALL #_vListInitialise ; |167| 
         00001d 0000!
     174                                                      ; call occurs [#_vListInitialise] ; |167| 
     175                      .dwpsn  file "../FreeRTOS/Source/event_groups.c",line 179,column 3,is_stmt
     176 00001f       $C$L1:    
     177                      .dwpsn  file "../FreeRTOS/Source/event_groups.c",line 185,column 3,is_stmt
     178 00001f ED00          MOV dbl(*SP(#0)), XAR0
         000021 8F   
     179                      .dwpsn  file "../FreeRTOS/Source/event_groups.c",line 186,column 2,is_stmt
     180 000022 4E03          AADD #3, SP
     181                      .dwcfi  cfa_offset, 1
     182              $C$DW$23        .dwtag  DW_TAG_TI_branch
     183                      .dwattr $C$DW$23, DW_AT_low_pc(0x00)
     184                      .dwattr $C$DW$23, DW_AT_TI_return
     185 000024 4804          RET
     186                                                      ; return occurs
     187                      .dwattr $C$DW$19, DW_AT_TI_end_file("../FreeRTOS/Source/event_groups.c")
     188                      .dwattr $C$DW$19, DW_AT_TI_end_line(0xba)
     189                      .dwattr $C$DW$19, DW_AT_TI_end_column(0x02)
     190                      .dwendentry
     191                      .dwendtag $C$DW$19
     192              
     193 000026               .sect   ".text"
     194                      .align 4
     195                      .global _xEventGroupSync
     196              
     197              $C$DW$24        .dwtag  DW_TAG_subprogram, DW_AT_name("xEventGroupSync")
     198                      .dwattr $C$DW$24, DW_AT_low_pc(_xEventGroupSync)
     199                      .dwattr $C$DW$24, DW_AT_high_pc(0x00)
     200                      .dwattr $C$DW$24, DW_AT_TI_symbol_name("_xEventGroupSync")
     201                      .dwattr $C$DW$24, DW_AT_external
     202                      .dwattr $C$DW$24, DW_AT_type(*$C$DW$T$20)
     203                      .dwattr $C$DW$24, DW_AT_TI_begin_file("../FreeRTOS/Source/event_groups.c")
     204                      .dwattr $C$DW$24, DW_AT_TI_begin_line(0xbf)
     205                      .dwattr $C$DW$24, DW_AT_TI_begin_column(0x0d)
     206                      .dwattr $C$DW$24, DW_AT_TI_max_frame_size(0x0e)
     207                      .dwpsn  file "../FreeRTOS/Source/event_groups.c",line 192,column 1,is_stmt,address _xEventGroupSync
     208              
     209                      .dwfde $C$DW$CIE, _xEventGroupSync
     210              $C$DW$25        .dwtag  DW_TAG_formal_parameter, DW_AT_name("xEventGroup")
     211                      .dwattr $C$DW$25, DW_AT_TI_symbol_name("_xEventGroup")
TMS320C55x Assembler PC v4.4.1 Sun Sep 09 04:48:34 2018

Tools Copyright (c) 1996-2012 Texas Instruments Incorporated
event_groups.asm                                                     PAGE    5

     212                      .dwattr $C$DW$25, DW_AT_type(*$C$DW$T$39)
     213                      .dwattr $C$DW$25, DW_AT_location[DW_OP_reg17]
     214              $C$DW$26        .dwtag  DW_TAG_formal_parameter, DW_AT_name("uxBitsToSet")
     215                      .dwattr $C$DW$26, DW_AT_TI_symbol_name("_uxBitsToSet")
     216                      .dwattr $C$DW$26, DW_AT_type(*$C$DW$T$65)
     217                      .dwattr $C$DW$26, DW_AT_location[DW_OP_reg12]
     218              $C$DW$27        .dwtag  DW_TAG_formal_parameter, DW_AT_name("uxBitsToWaitFor")
     219                      .dwattr $C$DW$27, DW_AT_TI_symbol_name("_uxBitsToWaitFor")
     220                      .dwattr $C$DW$27, DW_AT_type(*$C$DW$T$65)
     221                      .dwattr $C$DW$27, DW_AT_location[DW_OP_reg13]
     222              $C$DW$28        .dwtag  DW_TAG_formal_parameter, DW_AT_name("xTicksToWait")
     223                      .dwattr $C$DW$28, DW_AT_TI_symbol_name("_xTicksToWait")
     224                      .dwattr $C$DW$28, DW_AT_type(*$C$DW$T$19)
     225                      .dwattr $C$DW$28, DW_AT_location[DW_OP_reg18]
     226              ;*******************************************************************************
     227              ;* FUNCTION NAME: xEventGroupSync                                              *
     228              ;*                                                                             *
     229              ;*   Function Uses Regs : AC0,AC0,T0,T1,AR0,XAR0,AR1,AR2,AR3,XAR3,SP,CARRY,TC1,*
     230              ;*                        M40,SATA,SATD,RDM,FRCT,SMUL                          *
     231              ;*   Stack Frame        : Compact (No Frame Pointer, w/ debug)                 *
     232              ;*   Total Frame Size   : 14 words                                             *
     233              ;*                        (2 return address/alignment)                         *
     234              ;*                        (12 local values)                                    *
     235              ;*   Min System Stack   : 1 word                                               *
     236              ;*******************************************************************************
     237 000028       _xEventGroupSync:
     238                      .dwcfi  cfa_offset, 1
     239                      .dwcfi  save_reg_to_mem, 91, -1
     240 000028 4EF3          AADD #-13, SP
     241                      .dwcfi  cfa_offset, 14
     242              $C$DW$29        .dwtag  DW_TAG_variable, DW_AT_name("xEventGroup")
     243                      .dwattr $C$DW$29, DW_AT_TI_symbol_name("_xEventGroup")
     244                      .dwattr $C$DW$29, DW_AT_type(*$C$DW$T$39)
     245                      .dwattr $C$DW$29, DW_AT_location[DW_OP_bregx 0x24 0]
     246              $C$DW$30        .dwtag  DW_TAG_variable, DW_AT_name("uxBitsToSet")
     247                      .dwattr $C$DW$30, DW_AT_TI_symbol_name("_uxBitsToSet")
     248                      .dwattr $C$DW$30, DW_AT_type(*$C$DW$T$65)
     249                      .dwattr $C$DW$30, DW_AT_location[DW_OP_bregx 0x24 2]
     250              $C$DW$31        .dwtag  DW_TAG_variable, DW_AT_name("uxBitsToWaitFor")
     251                      .dwattr $C$DW$31, DW_AT_TI_symbol_name("_uxBitsToWaitFor")
     252                      .dwattr $C$DW$31, DW_AT_type(*$C$DW$T$65)
     253                      .dwattr $C$DW$31, DW_AT_location[DW_OP_bregx 0x24 3]
     254              $C$DW$32        .dwtag  DW_TAG_variable, DW_AT_name("xTicksToWait")
     255                      .dwattr $C$DW$32, DW_AT_TI_symbol_name("_xTicksToWait")
     256                      .dwattr $C$DW$32, DW_AT_type(*$C$DW$T$19)
     257                      .dwattr $C$DW$32, DW_AT_location[DW_OP_bregx 0x24 4]
     258              $C$DW$33        .dwtag  DW_TAG_variable, DW_AT_name("uxOriginalBitValue")
     259                      .dwattr $C$DW$33, DW_AT_TI_symbol_name("_uxOriginalBitValue")
     260                      .dwattr $C$DW$33, DW_AT_type(*$C$DW$T$20)
     261                      .dwattr $C$DW$33, DW_AT_location[DW_OP_bregx 0x24 5]
     262              $C$DW$34        .dwtag  DW_TAG_variable, DW_AT_name("uxReturn")
     263                      .dwattr $C$DW$34, DW_AT_TI_symbol_name("_uxReturn")
     264                      .dwattr $C$DW$34, DW_AT_type(*$C$DW$T$20)
     265                      .dwattr $C$DW$34, DW_AT_location[DW_OP_bregx 0x24 6]
     266              $C$DW$35        .dwtag  DW_TAG_variable, DW_AT_name("pxEventBits")
TMS320C55x Assembler PC v4.4.1 Sun Sep 09 04:48:34 2018

Tools Copyright (c) 1996-2012 Texas Instruments Incorporated
event_groups.asm                                                     PAGE    6

     267                      .dwattr $C$DW$35, DW_AT_TI_symbol_name("_pxEventBits")
     268                      .dwattr $C$DW$35, DW_AT_type(*$C$DW$T$37)
     269                      .dwattr $C$DW$35, DW_AT_location[DW_OP_bregx 0x24 8]
     270              $C$DW$36        .dwtag  DW_TAG_variable, DW_AT_name("xAlreadyYielded")
     271                      .dwattr $C$DW$36, DW_AT_TI_symbol_name("_xAlreadyYielded")
     272                      .dwattr $C$DW$36, DW_AT_type(*$C$DW$T$61)
     273                      .dwattr $C$DW$36, DW_AT_location[DW_OP_bregx 0x24 10]
     274              $C$DW$37        .dwtag  DW_TAG_variable, DW_AT_name("xTimeoutOccurred")
     275                      .dwattr $C$DW$37, DW_AT_TI_symbol_name("_xTimeoutOccurred")
     276                      .dwattr $C$DW$37, DW_AT_type(*$C$DW$T$61)
     277                      .dwattr $C$DW$37, DW_AT_location[DW_OP_bregx 0x24 11]
     278 00002a C908          MOV AR1, *SP(#4) ; |192| 
     279 00002c C506          MOV T1, *SP(#3) ; |192| 
     280 00002e C404          MOV T0, *SP(#2) ; |192| 
     281 000030 EB00          MOV XAR0, dbl(*SP(#0))
         000032 85   
     282                      .dwpsn  file "../FreeRTOS/Source/event_groups.c",line 194,column 15,is_stmt
     283 000033 ED00          MOV dbl(*SP(#0)), XAR3
         000035 BF   
     284 000036 EB10          MOV XAR3, dbl(*SP(#8))
         000038 B5   
     285                      .dwpsn  file "../FreeRTOS/Source/event_groups.c",line 196,column 12,is_stmt
     286 000039 E616          MOV #0, *SP(#11) ; |196| 
         00003b 00   
     287                      .dwpsn  file "../FreeRTOS/Source/event_groups.c",line 206,column 2,is_stmt
     288              $C$DW$38        .dwtag  DW_TAG_TI_branch
     289                      .dwattr $C$DW$38, DW_AT_low_pc(0x00)
     290                      .dwattr $C$DW$38, DW_AT_name("_vTaskSuspendAll")
     291                      .dwattr $C$DW$38, DW_AT_TI_call
     292 00003c 6C00          CALL #_vTaskSuspendAll ; |206| 
         00003e 0000!
     293                                                      ; call occurs [#_vTaskSuspendAll] ; |206| 
     294                      .dwpsn  file "../FreeRTOS/Source/event_groups.c",line 208,column 3,is_stmt
     295 000040 ED10          MOV dbl(*SP(#8)), XAR3
         000042 BF   
     296 000043 A961          MOV *AR3, AR1 ; |208| 
     297 000045 C90A          MOV AR1, *SP(#5) ; |208| 
     298                      .dwpsn  file "../FreeRTOS/Source/event_groups.c",line 210,column 3,is_stmt
     299 000047 A404          MOV *SP(#2), T0 ; |210| 
     300 000049 ED00          MOV dbl(*SP(#0)), XAR0
         00004b 8F   
     301              $C$DW$39        .dwtag  DW_TAG_TI_branch
     302                      .dwattr $C$DW$39, DW_AT_low_pc(0x00)
     303                      .dwattr $C$DW$39, DW_AT_name("_xEventGroupSetBits")
     304                      .dwattr $C$DW$39, DW_AT_TI_call
     305 00004c 0802          CALL #_xEventGroupSetBits ; |210| 
         00004e 1D   
     306                                                      ; call occurs [#_xEventGroupSetBits] ; |210| 
     307                      .dwpsn  file "../FreeRTOS/Source/event_groups.c",line 212,column 3,is_stmt
     308 00004f AA04          MOV *SP(#2), AR2 ; |212| 
     309 000051 A906          MOV *SP(#3), AR1 ; |212| 
     310 000053 DA0A          OR *SP(#5), AR2, AR2 ; |212| 
         000055 AA   
     311 000056 D906          AND *SP(#3), AR2, AR2 ; |212| 
         000058 AA   
TMS320C55x Assembler PC v4.4.1 Sun Sep 09 04:48:34 2018

Tools Copyright (c) 1996-2012 Texas Instruments Incorporated
event_groups.asm                                                     PAGE    7

     312 000059 12AC          CMPU AR2 != AR1, TC1 ; |212| 
         00005b 94   
     313 00005c 0464          BCC $C$L2,TC1 ; |212| 
         00005e 18   
     314                                                      ; branchcc occurs ; |212| 
     315                      .dwpsn  file "../FreeRTOS/Source/event_groups.c",line 215,column 4,is_stmt
     316 00005f A904          MOV *SP(#2), AR1 ; |215| 
     317 000061 DA0A          OR *SP(#5), AR1, AR1 ; |215| 
         000063 99   
     318 000064 C90C          MOV AR1, *SP(#6) ; |215| 
     319                      .dwpsn  file "../FreeRTOS/Source/event_groups.c",line 219,column 4,is_stmt
     320 000066 ED10          MOV dbl(*SP(#8)), XAR3
         000068 BF   
     321 000069 A906          MOV *SP(#3), AR1 ; |219| 
     322 00006b 3699          NOT AR1, AR1 ; |219| 
     323 00006d D961          AND *AR3, AR1, AC0 ; |219| 
         00006f 09   
     324 000070 C061          MOV AC0, *AR3 ; |219| 
     325                      .dwpsn  file "../FreeRTOS/Source/event_groups.c",line 221,column 4,is_stmt
     326 000072 E608          MOV #0, *SP(#4) ; |221| 
         000074 00   
     327                      .dwpsn  file "../FreeRTOS/Source/event_groups.c",line 222,column 3,is_stmt
     328 000075 4A26          B $C$L4   ; |222| 
     329                                                      ; branch occurs ; |222| 
     330 000077       $C$L2:    
     331                      .dwpsn  file "../FreeRTOS/Source/event_groups.c",line 225,column 4,is_stmt
     332 000077 A908          MOV *SP(#4), AR1 ; |225| 
     333 000079 0409          BCC $C$L3,AR1 == #0 ; |225| 
         00007b 17   
     334                                                      ; branchcc occurs ; |225| 
     335                      .dwpsn  file "../FreeRTOS/Source/event_groups.c",line 232,column 5,is_stmt
     336 00007c ED10          MOV dbl(*SP(#8)), XAR0
         00007e 8F   
     337 00007f A906          MOV *SP(#3), AR1 ; |232| 
     338 000081 7E05          OR #0x0500, AR1, T0 ; |232| 
         000083 0049 
     339              
     340                      AADD #2, AR0 ; |232| 
     341 000085 8A08  ||      MOV *SP(#4), T1 ; |232| 
         000087 851C 
         000089 02   
     342              
     343              $C$DW$40        .dwtag  DW_TAG_TI_branch
     344                      .dwattr $C$DW$40, DW_AT_low_pc(0x00)
     345                      .dwattr $C$DW$40, DW_AT_name("_vTaskPlaceOnUnorderedEventList")
     346                      .dwattr $C$DW$40, DW_AT_TI_call
     347 00008a 6C00          CALL #_vTaskPlaceOnUnorderedEventList ; |232| 
         00008c 0000!
     348                                                      ; call occurs [#_vTaskPlaceOnUnorderedEventList] ; |232| 
     349                      .dwpsn  file "../FreeRTOS/Source/event_groups.c",line 238,column 5,is_stmt
     350 00008e E60C          MOV #0, *SP(#6) ; |238| 
         000090 00   
     351                      .dwpsn  file "../FreeRTOS/Source/event_groups.c",line 239,column 4,is_stmt
     352 000091 4A0A          B $C$L4   ; |239| 
     353                                                      ; branch occurs ; |239| 
TMS320C55x Assembler PC v4.4.1 Sun Sep 09 04:48:34 2018

Tools Copyright (c) 1996-2012 Texas Instruments Incorporated
event_groups.asm                                                     PAGE    8

     354 000093       $C$L3:    
     355                      .dwpsn  file "../FreeRTOS/Source/event_groups.c",line 244,column 5,is_stmt
     356 000093 ED10          MOV dbl(*SP(#8)), XAR3
         000095 BF   
     357 000096 A961          MOV *AR3, AR1 ; |244| 
     358 000098 C90C          MOV AR1, *SP(#6) ; |244| 
     359                      .dwpsn  file "../FreeRTOS/Source/event_groups.c",line 245,column 5,is_stmt
     360 00009a E616          MOV #1, *SP(#11) ; |245| 
         00009c 01   
     361 00009d       $C$L4:    
     362                      .dwpsn  file "../FreeRTOS/Source/event_groups.c",line 249,column 2,is_stmt
     363              $C$DW$41        .dwtag  DW_TAG_TI_branch
     364                      .dwattr $C$DW$41, DW_AT_low_pc(0x00)
     365                      .dwattr $C$DW$41, DW_AT_name("_xTaskResumeAll")
     366                      .dwattr $C$DW$41, DW_AT_TI_call
     367 00009d 6C00          CALL #_xTaskResumeAll ; |249| 
         00009f 0000!
     368                                                      ; call occurs [#_xTaskResumeAll] ; |249| 
     369 0000a1 C414          MOV T0, *SP(#10) ; |249| 
     370                      .dwpsn  file "../FreeRTOS/Source/event_groups.c",line 251,column 2,is_stmt
     371 0000a3 A908          MOV *SP(#4), AR1 ; |251| 
     372 0000a5 0409          BCC $C$L9,AR1 == #0 ; |251| 
         0000a7 5E   
     373                                                      ; branchcc occurs ; |251| 
     374                      .dwpsn  file "../FreeRTOS/Source/event_groups.c",line 253,column 3,is_stmt
     375 0000a8 2249          MOV T0, AR1
     376 0000aa 6219          BCC $C$L5,AR1 != #0 ; |253| 
     377                                                      ; branchcc occurs ; |253| 
     378                      .dwpsn  file "../FreeRTOS/Source/event_groups.c",line 255,column 4,is_stmt
     379              $C$DW$42        .dwtag  DW_TAG_TI_branch
     380                      .dwattr $C$DW$42, DW_AT_low_pc(0x00)
     381                      .dwattr $C$DW$42, DW_AT_name("_vPortYield")
     382                      .dwattr $C$DW$42, DW_AT_TI_call
     383 0000ac 6C00          CALL #_vPortYield ; |255| 
         0000ae 0000!
     384                                                      ; call occurs [#_vPortYield] ; |255| 
     385                      .dwpsn  file "../FreeRTOS/Source/event_groups.c",line 256,column 3,is_stmt
     386 0000b0       $C$L5:    
     387                      .dwpsn  file "../FreeRTOS/Source/event_groups.c",line 266,column 3,is_stmt
     388              $C$DW$43        .dwtag  DW_TAG_TI_branch
     389                      .dwattr $C$DW$43, DW_AT_low_pc(0x00)
     390                      .dwattr $C$DW$43, DW_AT_name("_uxTaskResetEventItemValue")
     391                      .dwattr $C$DW$43, DW_AT_TI_call
     392 0000b0 6C00          CALL #_uxTaskResetEventItemValue ; |266| 
         0000b2 0000!
     393                                                      ; call occurs [#_uxTaskResetEventItemValue] ; |266| 
     394 0000b4 C40C          MOV T0, *SP(#6) ; |266| 
     395                      .dwpsn  file "../FreeRTOS/Source/event_groups.c",line 268,column 3,is_stmt
     396 0000b6 DC0C          BTST #9, *SP(#6), TC1 ; |268| 
         0000b8 90   
     397 0000b9 0464          BCC $C$L8,TC1 ; |268| 
         0000bb 46   
     398                                                      ; branchcc occurs ; |268| 
     399                      .dwpsn  file "../FreeRTOS/Source/event_groups.c",line 271,column 4,is_stmt
     400 0000bc 20     nop
TMS320C55x Assembler PC v4.4.1 Sun Sep 09 04:48:34 2018

Tools Copyright (c) 1996-2012 Texas Instruments Incorporated
event_groups.asm                                                     PAGE    9

     401 0000bd 46B3   bset INTM
     402 0000bf F731          ADD #1, *(#_usCriticalNesting) ; |271| 
         0000c1 0001 
         0000c3 0000 
         0000c5 00!  
     403                      .dwpsn  file "../FreeRTOS/Source/event_groups.c",line 273,column 5,is_stmt
     404 0000c6 ED10          MOV dbl(*SP(#8)), XAR3
         0000c8 BF   
     405 0000c9 A961          MOV *AR3, AR1 ; |273| 
     406 0000cb C90C          MOV AR1, *SP(#6) ; |273| 
     407                      .dwpsn  file "../FreeRTOS/Source/event_groups.c",line 279,column 5,is_stmt
     408 0000cd A906          MOV *SP(#3), AR1 ; |279| 
     409 0000cf 229A          MOV AR1, AR2 ; |279| 
     410 0000d1 D90C          AND *SP(#6), AR2, AR2 ; |279| 
         0000d3 AA   
     411 0000d4 12AC          CMPU AR2 != AR1, TC1 ; |279| 
         0000d6 94   
     412 0000d7 6564          BCC $C$L6,TC1 ; |279| 
     413                                                      ; branchcc occurs ; |279| 
     414                      .dwpsn  file "../FreeRTOS/Source/event_groups.c",line 281,column 6,is_stmt
     415 0000d9 ED10          MOV dbl(*SP(#8)), XAR3
         0000db BF   
     416 0000dc 3699          NOT AR1, AR1 ; |281| 
     417 0000de D961          AND *AR3, AR1, AC0 ; |281| 
         0000e0 09   
     418 0000e1 C061          MOV AC0, *AR3 ; |281| 
     419                      .dwpsn  file "../FreeRTOS/Source/event_groups.c",line 282,column 5,is_stmt
     420 0000e3       $C$L6:    
     421                      .dwpsn  file "../FreeRTOS/Source/event_groups.c",line 288,column 4,is_stmt
     422 0000e3 A931          MOV *(#_usCriticalNesting), AR1 ; |288| 
         0000e5 0000 
         0000e7 00!  
     423 0000e8 0409          BCC $C$L7,AR1 == #0 ; |288| 
         0000ea 14   
     424                                                      ; branchcc occurs ; |288| 
     425 0000eb F731          SUB #1, *(#_usCriticalNesting) ; |288| 
         0000ed FFFF 
         0000ef 0000 
         0000f1 00!  
     426 0000f2 20            NOP
     427 0000f3 20            NOP
     428 0000f4 20            NOP
     429 0000f5 A931          MOV *(#_usCriticalNesting), AR1 ; |288| 
         0000f7 0000 
         0000f9 00!  
     430 0000fa 6199          BCC $C$L7,AR1 != #0 ; |288| 
     431                                                      ; branchcc occurs ; |288| 
     432 0000fc 20     nop
     433 0000fd 46B2   bclr INTM
     434 0000ff       $C$L7:    
     435                      .dwpsn  file "../FreeRTOS/Source/event_groups.c",line 290,column 4,is_stmt
     436 0000ff E616          MOV #1, *SP(#11) ; |290| 
         000101 01   
     437                      .dwpsn  file "../FreeRTOS/Source/event_groups.c",line 291,column 3,is_stmt
     438 000102       $C$L8:    
TMS320C55x Assembler PC v4.4.1 Sun Sep 09 04:48:34 2018

Tools Copyright (c) 1996-2012 Texas Instruments Incorporated
event_groups.asm                                                     PAGE   10

     439                      .dwpsn  file "../FreeRTOS/Source/event_groups.c",line 299,column 3,is_stmt
     440 000102 F40C          AND #0x00ff, *SP(#6) ; |299| 
         000104 00FF 
     441 000106       $C$L9:    
     442                      .dwpsn  file "../FreeRTOS/Source/event_groups.c",line 302,column 2,is_stmt
     443                      .dwpsn  file "../FreeRTOS/Source/event_groups.c",line 305,column 2,is_stmt
     444                      .dwpsn  file "../FreeRTOS/Source/event_groups.c",line 307,column 2,is_stmt
     445 000106 A40C          MOV *SP(#6), T0 ; |307| 
     446                      .dwpsn  file "../FreeRTOS/Source/event_groups.c",line 308,column 1,is_stmt
     447 000108 4E0D          AADD #13, SP
     448                      .dwcfi  cfa_offset, 1
     449              $C$DW$44        .dwtag  DW_TAG_TI_branch
     450                      .dwattr $C$DW$44, DW_AT_low_pc(0x00)
     451                      .dwattr $C$DW$44, DW_AT_TI_return
     452 00010a 4804          RET
     453                                                      ; return occurs
     454                      .dwattr $C$DW$24, DW_AT_TI_end_file("../FreeRTOS/Source/event_groups.c")
     455                      .dwattr $C$DW$24, DW_AT_TI_end_line(0x134)
     456                      .dwattr $C$DW$24, DW_AT_TI_end_column(0x01)
     457                      .dwendentry
     458                      .dwendtag $C$DW$24
     459              
     460 00010c               .sect   ".text"
     461                      .align 4
     462                      .global _xEventGroupWaitBits
     463              
     464              $C$DW$45        .dwtag  DW_TAG_subprogram, DW_AT_name("xEventGroupWaitBits")
     465                      .dwattr $C$DW$45, DW_AT_low_pc(_xEventGroupWaitBits)
     466                      .dwattr $C$DW$45, DW_AT_high_pc(0x00)
     467                      .dwattr $C$DW$45, DW_AT_TI_symbol_name("_xEventGroupWaitBits")
     468                      .dwattr $C$DW$45, DW_AT_external
     469                      .dwattr $C$DW$45, DW_AT_type(*$C$DW$T$20)
     470                      .dwattr $C$DW$45, DW_AT_TI_begin_file("../FreeRTOS/Source/event_groups.c")
     471                      .dwattr $C$DW$45, DW_AT_TI_begin_line(0x137)
     472                      .dwattr $C$DW$45, DW_AT_TI_begin_column(0x0d)
     473                      .dwattr $C$DW$45, DW_AT_TI_max_frame_size(0x10)
     474                      .dwpsn  file "../FreeRTOS/Source/event_groups.c",line 312,column 1,is_stmt,address _xEventGroupWaitBi
     475              
     476                      .dwfde $C$DW$CIE, _xEventGroupWaitBits
     477              $C$DW$46        .dwtag  DW_TAG_formal_parameter, DW_AT_name("xEventGroup")
     478                      .dwattr $C$DW$46, DW_AT_TI_symbol_name("_xEventGroup")
     479                      .dwattr $C$DW$46, DW_AT_type(*$C$DW$T$39)
     480                      .dwattr $C$DW$46, DW_AT_location[DW_OP_reg17]
     481              $C$DW$47        .dwtag  DW_TAG_formal_parameter, DW_AT_name("uxBitsToWaitFor")
     482                      .dwattr $C$DW$47, DW_AT_TI_symbol_name("_uxBitsToWaitFor")
     483                      .dwattr $C$DW$47, DW_AT_type(*$C$DW$T$65)
     484                      .dwattr $C$DW$47, DW_AT_location[DW_OP_reg12]
     485              $C$DW$48        .dwtag  DW_TAG_formal_parameter, DW_AT_name("xClearOnExit")
     486                      .dwattr $C$DW$48, DW_AT_TI_symbol_name("_xClearOnExit")
     487                      .dwattr $C$DW$48, DW_AT_type(*$C$DW$T$62)
     488                      .dwattr $C$DW$48, DW_AT_location[DW_OP_reg13]
     489              $C$DW$49        .dwtag  DW_TAG_formal_parameter, DW_AT_name("xWaitForAllBits")
     490                      .dwattr $C$DW$49, DW_AT_TI_symbol_name("_xWaitForAllBits")
     491                      .dwattr $C$DW$49, DW_AT_type(*$C$DW$T$62)
     492                      .dwattr $C$DW$49, DW_AT_location[DW_OP_reg18]
TMS320C55x Assembler PC v4.4.1 Sun Sep 09 04:48:34 2018

Tools Copyright (c) 1996-2012 Texas Instruments Incorporated
event_groups.asm                                                     PAGE   11

     493              $C$DW$50        .dwtag  DW_TAG_formal_parameter, DW_AT_name("xTicksToWait")
     494                      .dwattr $C$DW$50, DW_AT_TI_symbol_name("_xTicksToWait")
     495                      .dwattr $C$DW$50, DW_AT_type(*$C$DW$T$19)
     496                      .dwattr $C$DW$50, DW_AT_location[DW_OP_reg20]
     497              ;*******************************************************************************
     498              ;* FUNCTION NAME: xEventGroupWaitBits                                          *
     499              ;*                                                                             *
     500              ;*   Function Uses Regs : AC0,AC0,T0,T1,AR0,XAR0,AR1,AR2,AR3,XAR3,SP,CARRY,TC1,*
     501              ;*                        M40,SATA,SATD,RDM,FRCT,SMUL                          *
     502              ;*   Stack Frame        : Compact (No Frame Pointer, w/ debug)                 *
     503              ;*   Total Frame Size   : 16 words                                             *
     504              ;*                        (2 return address/alignment)                         *
     505              ;*                        (14 local values)                                    *
     506              ;*   Min System Stack   : 1 word                                               *
     507              ;*******************************************************************************
     508 00010c       _xEventGroupWaitBits:
     509                      .dwcfi  cfa_offset, 1
     510                      .dwcfi  save_reg_to_mem, 91, -1
     511 00010c 4EF1          AADD #-15, SP
     512                      .dwcfi  cfa_offset, 16
     513              $C$DW$51        .dwtag  DW_TAG_variable, DW_AT_name("xEventGroup")
     514                      .dwattr $C$DW$51, DW_AT_TI_symbol_name("_xEventGroup")
     515                      .dwattr $C$DW$51, DW_AT_type(*$C$DW$T$39)
     516                      .dwattr $C$DW$51, DW_AT_location[DW_OP_bregx 0x24 0]
     517              $C$DW$52        .dwtag  DW_TAG_variable, DW_AT_name("uxBitsToWaitFor")
     518                      .dwattr $C$DW$52, DW_AT_TI_symbol_name("_uxBitsToWaitFor")
     519                      .dwattr $C$DW$52, DW_AT_type(*$C$DW$T$65)
     520                      .dwattr $C$DW$52, DW_AT_location[DW_OP_bregx 0x24 2]
     521              $C$DW$53        .dwtag  DW_TAG_variable, DW_AT_name("xClearOnExit")
     522                      .dwattr $C$DW$53, DW_AT_TI_symbol_name("_xClearOnExit")
     523                      .dwattr $C$DW$53, DW_AT_type(*$C$DW$T$62)
     524                      .dwattr $C$DW$53, DW_AT_location[DW_OP_bregx 0x24 3]
     525              $C$DW$54        .dwtag  DW_TAG_variable, DW_AT_name("xWaitForAllBits")
     526                      .dwattr $C$DW$54, DW_AT_TI_symbol_name("_xWaitForAllBits")
     527                      .dwattr $C$DW$54, DW_AT_type(*$C$DW$T$62)
     528                      .dwattr $C$DW$54, DW_AT_location[DW_OP_bregx 0x24 4]
     529              $C$DW$55        .dwtag  DW_TAG_variable, DW_AT_name("xTicksToWait")
     530                      .dwattr $C$DW$55, DW_AT_TI_symbol_name("_xTicksToWait")
     531                      .dwattr $C$DW$55, DW_AT_type(*$C$DW$T$19)
     532                      .dwattr $C$DW$55, DW_AT_location[DW_OP_bregx 0x24 5]
     533              $C$DW$56        .dwtag  DW_TAG_variable, DW_AT_name("pxEventBits")
     534                      .dwattr $C$DW$56, DW_AT_TI_symbol_name("_pxEventBits")
     535                      .dwattr $C$DW$56, DW_AT_type(*$C$DW$T$37)
     536                      .dwattr $C$DW$56, DW_AT_location[DW_OP_bregx 0x24 6]
     537              $C$DW$57        .dwtag  DW_TAG_variable, DW_AT_name("uxReturn")
     538                      .dwattr $C$DW$57, DW_AT_TI_symbol_name("_uxReturn")
     539                      .dwattr $C$DW$57, DW_AT_type(*$C$DW$T$20)
     540                      .dwattr $C$DW$57, DW_AT_location[DW_OP_bregx 0x24 8]
     541              $C$DW$58        .dwtag  DW_TAG_variable, DW_AT_name("uxControlBits")
     542                      .dwattr $C$DW$58, DW_AT_TI_symbol_name("_uxControlBits")
     543                      .dwattr $C$DW$58, DW_AT_type(*$C$DW$T$20)
     544                      .dwattr $C$DW$58, DW_AT_location[DW_OP_bregx 0x24 9]
     545              $C$DW$59        .dwtag  DW_TAG_variable, DW_AT_name("xWaitConditionMet")
     546                      .dwattr $C$DW$59, DW_AT_TI_symbol_name("_xWaitConditionMet")
     547                      .dwattr $C$DW$59, DW_AT_type(*$C$DW$T$61)
TMS320C55x Assembler PC v4.4.1 Sun Sep 09 04:48:34 2018

Tools Copyright (c) 1996-2012 Texas Instruments Incorporated
event_groups.asm                                                     PAGE   12

     548                      .dwattr $C$DW$59, DW_AT_location[DW_OP_bregx 0x24 10]
     549              $C$DW$60        .dwtag  DW_TAG_variable, DW_AT_name("xAlreadyYielded")
     550                      .dwattr $C$DW$60, DW_AT_TI_symbol_name("_xAlreadyYielded")
     551                      .dwattr $C$DW$60, DW_AT_type(*$C$DW$T$61)
     552                      .dwattr $C$DW$60, DW_AT_location[DW_OP_bregx 0x24 11]
     553              $C$DW$61        .dwtag  DW_TAG_variable, DW_AT_name("xTimeoutOccurred")
     554                      .dwattr $C$DW$61, DW_AT_TI_symbol_name("_xTimeoutOccurred")
     555                      .dwattr $C$DW$61, DW_AT_type(*$C$DW$T$61)
     556                      .dwattr $C$DW$61, DW_AT_location[DW_OP_bregx 0x24 12]
     557 00010e CA0A          MOV AR2, *SP(#5) ; |312| 
     558 000110 C908          MOV AR1, *SP(#4) ; |312| 
     559 000112 C506          MOV T1, *SP(#3) ; |312| 
     560 000114 C404          MOV T0, *SP(#2) ; |312| 
     561 000116 EB00          MOV XAR0, dbl(*SP(#0))
         000118 85   
     562                      .dwpsn  file "../FreeRTOS/Source/event_groups.c",line 313,column 15,is_stmt
     563 000119 ED00          MOV dbl(*SP(#0)), XAR3
         00011b BF   
     564 00011c EB0C          MOV XAR3, dbl(*SP(#6))
         00011e B5   
     565                      .dwpsn  file "../FreeRTOS/Source/event_groups.c",line 314,column 23,is_stmt
     566 00011f E612          MOV #0, *SP(#9) ; |314| 
         000121 00   
     567                      .dwpsn  file "../FreeRTOS/Source/event_groups.c",line 316,column 12,is_stmt
     568 000122 E618          MOV #0, *SP(#12) ; |316| 
         000124 00   
     569                      .dwpsn  file "../FreeRTOS/Source/event_groups.c",line 329,column 2,is_stmt
     570              $C$DW$62        .dwtag  DW_TAG_TI_branch
     571                      .dwattr $C$DW$62, DW_AT_low_pc(0x00)
     572                      .dwattr $C$DW$62, DW_AT_name("_vTaskSuspendAll")
     573                      .dwattr $C$DW$62, DW_AT_TI_call
     574 000125 6C00          CALL #_vTaskSuspendAll ; |329| 
         000127 0000!
     575                                                      ; call occurs [#_vTaskSuspendAll] ; |329| 
     576              
     577              $C$DW$63        .dwtag  DW_TAG_lexical_block, DW_AT_low_pc(0x00), DW_AT_high_pc(0x00)
     578              $C$DW$64        .dwtag  DW_TAG_variable, DW_AT_name("uxCurrentEventBits")
     579                      .dwattr $C$DW$64, DW_AT_TI_symbol_name("_uxCurrentEventBits")
     580                      .dwattr $C$DW$64, DW_AT_type(*$C$DW$T$65)
     581                      .dwattr $C$DW$64, DW_AT_location[DW_OP_bregx 0x24 13]
     582                      .dwpsn  file "../FreeRTOS/Source/event_groups.c",line 331,column 21,is_stmt
     583 000129 ED0C          MOV dbl(*SP(#6)), XAR3
         00012b BF   
     584 00012c A961          MOV *AR3, AR1 ; |331| 
     585 00012e C91A          MOV AR1, *SP(#13) ; |331| 
     586                      .dwpsn  file "../FreeRTOS/Source/event_groups.c",line 334,column 3,is_stmt
     587 000130 A504          MOV *SP(#2), T1 ; |334| 
     588 000132 A808          MOV *SP(#4), AR0 ; |334| 
     589              $C$DW$65        .dwtag  DW_TAG_TI_branch
     590                      .dwattr $C$DW$65, DW_AT_low_pc(0x00)
     591                      .dwattr $C$DW$65, DW_AT_name("_prvTestWaitCondition")
     592                      .dwattr $C$DW$65, DW_AT_TI_call
     593              
     594 000134 0802          CALL #_prvTestWaitCondition ; |334| 
         000136 7B   
TMS320C55x Assembler PC v4.4.1 Sun Sep 09 04:48:34 2018

Tools Copyright (c) 1996-2012 Texas Instruments Incorporated
event_groups.asm                                                     PAGE   13

     595 000137 2394  ||      MOV AR1, T0
     596              
     597                                                      ; call occurs [#_prvTestWaitCondition] ; |334| 
     598 000139 C414          MOV T0, *SP(#10) ; |334| 
     599                      .dwpsn  file "../FreeRTOS/Source/event_groups.c",line 336,column 3,is_stmt
     600 00013b 2249          MOV T0, AR1
     601 00013d 0409          BCC $C$L10,AR1 == #0 ; |336| 
         00013f 1A   
     602                                                      ; branchcc occurs ; |336| 
     603                      .dwpsn  file "../FreeRTOS/Source/event_groups.c",line 340,column 4,is_stmt
     604 000140 A91A          MOV *SP(#13), AR1 ; |340| 
     605 000142 C910          MOV AR1, *SP(#8) ; |340| 
     606                      .dwpsn  file "../FreeRTOS/Source/event_groups.c",line 341,column 4,is_stmt
     607 000144 E60A          MOV #0, *SP(#5) ; |341| 
         000146 00   
     608                      .dwpsn  file "../FreeRTOS/Source/event_groups.c",line 344,column 4,is_stmt
     609 000147 A906          MOV *SP(#3), AR1 ; |344| 
     610 000149 0409          BCC $C$L14,AR1 == #0 ; |344| 
         00014b 3F   
     611                                                      ; branchcc occurs ; |344| 
     612                      .dwpsn  file "../FreeRTOS/Source/event_groups.c",line 346,column 5,is_stmt
     613 00014c ED0C          MOV dbl(*SP(#6)), XAR3
         00014e BF   
     614 00014f A904          MOV *SP(#2), AR1 ; |346| 
     615 000151 3699          NOT AR1, AR1 ; |346| 
     616 000153 D961          AND *AR3, AR1, AC0 ; |346| 
         000155 09   
     617 000156 C061          MOV AC0, *AR3 ; |346| 
     618                      .dwpsn  file "../FreeRTOS/Source/event_groups.c",line 347,column 4,is_stmt
     619 000158 4A31          B $C$L14  ; |347| 
     620                                                      ; branch occurs ; |347| 
     621 00015a       $C$L10:    
     622                      .dwpsn  file "../FreeRTOS/Source/event_groups.c",line 353,column 8,is_stmt
     623 00015a A90A          MOV *SP(#5), AR1 ; |353| 
     624 00015c 6499          BCC $C$L11,AR1 != #0 ; |353| 
     625                                                      ; branchcc occurs ; |353| 
     626                      .dwpsn  file "../FreeRTOS/Source/event_groups.c",line 357,column 4,is_stmt
     627 00015e A91A          MOV *SP(#13), AR1 ; |357| 
     628 000160 C910          MOV AR1, *SP(#8) ; |357| 
     629                      .dwpsn  file "../FreeRTOS/Source/event_groups.c",line 358,column 4,is_stmt
     630 000162 E618          MOV #1, *SP(#12) ; |358| 
         000164 01   
     631                      .dwpsn  file "../FreeRTOS/Source/event_groups.c",line 359,column 3,is_stmt
     632 000165 4A24          B $C$L14  ; |359| 
     633                                                      ; branch occurs ; |359| 
     634 000167       $C$L11:    
     635                      .dwpsn  file "../FreeRTOS/Source/event_groups.c",line 366,column 4,is_stmt
     636 000167 A906          MOV *SP(#3), AR1 ; |366| 
     637 000169 6209          BCC $C$L12,AR1 == #0 ; |366| 
     638                                                      ; branchcc occurs ; |366| 
     639                      .dwpsn  file "../FreeRTOS/Source/event_groups.c",line 368,column 5,is_stmt
     640 00016b F512          OR #0x0100, *SP(#9) ; |368| 
         00016d 0100 
     641                      .dwpsn  file "../FreeRTOS/Source/event_groups.c",line 369,column 4,is_stmt
     642 00016f       $C$L12:    
TMS320C55x Assembler PC v4.4.1 Sun Sep 09 04:48:34 2018

Tools Copyright (c) 1996-2012 Texas Instruments Incorporated
event_groups.asm                                                     PAGE   14

     643                      .dwpsn  file "../FreeRTOS/Source/event_groups.c",line 375,column 4,is_stmt
     644 00016f A908          MOV *SP(#4), AR1 ; |375| 
     645 000171 6209          BCC $C$L13,AR1 == #0 ; |375| 
     646                                                      ; branchcc occurs ; |375| 
     647                      .dwpsn  file "../FreeRTOS/Source/event_groups.c",line 377,column 5,is_stmt
     648 000173 F512          OR #0x0400, *SP(#9) ; |377| 
         000175 0400 
     649                      .dwpsn  file "../FreeRTOS/Source/event_groups.c",line 378,column 4,is_stmt
     650 000177       $C$L13:    
     651                      .dwpsn  file "../FreeRTOS/Source/event_groups.c",line 387,column 4,is_stmt
     652 000177 ED0C          MOV dbl(*SP(#6)), XAR0
         000179 8F   
     653 00017a A912          MOV *SP(#9), AR1 ; |387| 
     654 00017c A50A          MOV *SP(#5), T1 ; |387| 
     655              
     656                      AADD #2, AR0 ; |387| 
     657 00017e 8D04  ||      OR *SP(#2), AR1, T0 ; |387| 
         000180 8A1C 
         000182 4902 
     658              
     659              $C$DW$66        .dwtag  DW_TAG_TI_branch
     660                      .dwattr $C$DW$66, DW_AT_low_pc(0x00)
     661                      .dwattr $C$DW$66, DW_AT_name("_vTaskPlaceOnUnorderedEventList")
     662                      .dwattr $C$DW$66, DW_AT_TI_call
     663 000184 6C00          CALL #_vTaskPlaceOnUnorderedEventList ; |387| 
         000186 0000!
     664                                                      ; call occurs [#_vTaskPlaceOnUnorderedEventList] ; |387| 
     665                      .dwpsn  file "../FreeRTOS/Source/event_groups.c",line 392,column 4,is_stmt
     666 000188 E610          MOV #0, *SP(#8) ; |392| 
         00018a 00   
     667              $C$L14:    
     668                      .dwendtag $C$DW$63
     669              
     670                      .dwpsn  file "../FreeRTOS/Source/event_groups.c",line 397,column 2,is_stmt
     671              $C$DW$67        .dwtag  DW_TAG_TI_branch
     672                      .dwattr $C$DW$67, DW_AT_low_pc(0x00)
     673                      .dwattr $C$DW$67, DW_AT_name("_xTaskResumeAll")
     674                      .dwattr $C$DW$67, DW_AT_TI_call
     675 00018b 6C00          CALL #_xTaskResumeAll ; |397| 
         00018d 0000!
     676                                                      ; call occurs [#_xTaskResumeAll] ; |397| 
     677 00018f C416          MOV T0, *SP(#11) ; |397| 
     678                      .dwpsn  file "../FreeRTOS/Source/event_groups.c",line 399,column 2,is_stmt
     679 000191 A90A          MOV *SP(#5), AR1 ; |399| 
     680 000193 0409          BCC $C$L18,AR1 == #0 ; |399| 
         000195 66   
     681                                                      ; branchcc occurs ; |399| 
     682                      .dwpsn  file "../FreeRTOS/Source/event_groups.c",line 401,column 3,is_stmt
     683 000196 2249          MOV T0, AR1
     684 000198 6219          BCC $C$L15,AR1 != #0 ; |401| 
     685                                                      ; branchcc occurs ; |401| 
     686                      .dwpsn  file "../FreeRTOS/Source/event_groups.c",line 403,column 4,is_stmt
     687              $C$DW$68        .dwtag  DW_TAG_TI_branch
     688                      .dwattr $C$DW$68, DW_AT_low_pc(0x00)
     689                      .dwattr $C$DW$68, DW_AT_name("_vPortYield")
TMS320C55x Assembler PC v4.4.1 Sun Sep 09 04:48:34 2018

Tools Copyright (c) 1996-2012 Texas Instruments Incorporated
event_groups.asm                                                     PAGE   15

     690                      .dwattr $C$DW$68, DW_AT_TI_call
     691 00019a 6C00          CALL #_vPortYield ; |403| 
         00019c 0000!
     692                                                      ; call occurs [#_vPortYield] ; |403| 
     693                      .dwpsn  file "../FreeRTOS/Source/event_groups.c",line 404,column 3,is_stmt
     694 00019e       $C$L15:    
     695                      .dwpsn  file "../FreeRTOS/Source/event_groups.c",line 414,column 3,is_stmt
     696              $C$DW$69        .dwtag  DW_TAG_TI_branch
     697                      .dwattr $C$DW$69, DW_AT_low_pc(0x00)
     698                      .dwattr $C$DW$69, DW_AT_name("_uxTaskResetEventItemValue")
     699                      .dwattr $C$DW$69, DW_AT_TI_call
     700 00019e 6C00          CALL #_uxTaskResetEventItemValue ; |414| 
         0001a0 0000!
     701                                                      ; call occurs [#_uxTaskResetEventItemValue] ; |414| 
     702 0001a2 C410          MOV T0, *SP(#8) ; |414| 
     703                      .dwpsn  file "../FreeRTOS/Source/event_groups.c",line 416,column 3,is_stmt
     704 0001a4 DC10          BTST #9, *SP(#8), TC1 ; |416| 
         0001a6 90   
     705 0001a7 0464          BCC $C$L17,TC1 ; |416| 
         0001a9 4E   
     706                                                      ; branchcc occurs ; |416| 
     707                      .dwpsn  file "../FreeRTOS/Source/event_groups.c",line 418,column 4,is_stmt
     708 0001aa 20     nop
     709 0001ab 46B3   bset INTM
     710 0001ad F731          ADD #1, *(#_usCriticalNesting) ; |418| 
         0001af 0001 
         0001b1 0000 
         0001b3 00!  
     711                      .dwpsn  file "../FreeRTOS/Source/event_groups.c",line 421,column 5,is_stmt
     712 0001b4 ED0C          MOV dbl(*SP(#6)), XAR3
         0001b6 BF   
     713 0001b7 A961          MOV *AR3, AR1 ; |421| 
     714 0001b9 C910          MOV AR1, *SP(#8) ; |421| 
     715                      .dwpsn  file "../FreeRTOS/Source/event_groups.c",line 425,column 5,is_stmt
     716 0001bb A504          MOV *SP(#2), T1 ; |425| 
     717 0001bd A808          MOV *SP(#4), AR0 ; |425| 
     718              $C$DW$70        .dwtag  DW_TAG_TI_branch
     719                      .dwattr $C$DW$70, DW_AT_low_pc(0x00)
     720                      .dwattr $C$DW$70, DW_AT_name("_prvTestWaitCondition")
     721                      .dwattr $C$DW$70, DW_AT_TI_call
     722              
     723 0001bf 0801          CALL #_prvTestWaitCondition ; |425| 
         0001c1 F0   
     724 0001c2 2394  ||      MOV AR1, T0
     725              
     726                                                      ; call occurs [#_prvTestWaitCondition] ; |425| 
     727 0001c4 0404          BCC $C$L16,T0 == #0 ; |425| 
         0001c6 12   
     728                                                      ; branchcc occurs ; |425| 
     729                      .dwpsn  file "../FreeRTOS/Source/event_groups.c",line 427,column 6,is_stmt
     730 0001c7 A906          MOV *SP(#3), AR1 ; |427| 
     731 0001c9 6709          BCC $C$L16,AR1 == #0 ; |427| 
     732                                                      ; branchcc occurs ; |427| 
     733                      .dwpsn  file "../FreeRTOS/Source/event_groups.c",line 429,column 7,is_stmt
     734 0001cb ED0C          MOV dbl(*SP(#6)), XAR3
TMS320C55x Assembler PC v4.4.1 Sun Sep 09 04:48:34 2018

Tools Copyright (c) 1996-2012 Texas Instruments Incorporated
event_groups.asm                                                     PAGE   16

         0001cd BF   
     735 0001ce A904          MOV *SP(#2), AR1 ; |429| 
     736 0001d0 3699          NOT AR1, AR1 ; |429| 
     737 0001d2 D961          AND *AR3, AR1, AC0 ; |429| 
         0001d4 09   
     738 0001d5 C061          MOV AC0, *AR3 ; |429| 
     739                      .dwpsn  file "../FreeRTOS/Source/event_groups.c",line 430,column 6,is_stmt
     740 0001d7 4A00          B $C$L16  ; |430| 
     741                                                      ; branch occurs ; |430| 
     742 0001d9       $C$L16:    
     743                      .dwpsn  file "../FreeRTOS/Source/event_groups.c",line 440,column 5,is_stmt
     744 0001d9 E618          MOV #1, *SP(#12) ; |440| 
         0001db 01   
     745                      .dwpsn  file "../FreeRTOS/Source/event_groups.c",line 442,column 4,is_stmt
     746 0001dc A931          MOV *(#_usCriticalNesting), AR1 ; |442| 
         0001de 0000 
         0001e0 00!  
     747 0001e1 0409          BCC $C$L17,AR1 == #0 ; |442| 
         0001e3 14   
     748                                                      ; branchcc occurs ; |442| 
     749 0001e4 F731          SUB #1, *(#_usCriticalNesting) ; |442| 
         0001e6 FFFF 
         0001e8 0000 
         0001ea 00!  
     750 0001eb 20            NOP
     751 0001ec 20            NOP
     752 0001ed 20            NOP
     753 0001ee A931          MOV *(#_usCriticalNesting), AR1 ; |442| 
         0001f0 0000 
         0001f2 00!  
     754 0001f3 6199          BCC $C$L17,AR1 != #0 ; |442| 
     755                                                      ; branchcc occurs ; |442| 
     756 0001f5 20     nop
     757 0001f6 46B2   bclr INTM
     758                      .dwpsn  file "../FreeRTOS/Source/event_groups.c",line 443,column 3,is_stmt
     759 0001f8       $C$L17:    
     760                      .dwpsn  file "../FreeRTOS/Source/event_groups.c",line 450,column 3,is_stmt
     761 0001f8 F410          AND #0x00ff, *SP(#8) ; |450| 
         0001fa 00FF 
     762 0001fc       $C$L18:    
     763                      .dwpsn  file "../FreeRTOS/Source/event_groups.c",line 452,column 2,is_stmt
     764                      .dwpsn  file "../FreeRTOS/Source/event_groups.c",line 455,column 2,is_stmt
     765                      .dwpsn  file "../FreeRTOS/Source/event_groups.c",line 457,column 2,is_stmt
     766 0001fc A410          MOV *SP(#8), T0 ; |457| 
     767                      .dwpsn  file "../FreeRTOS/Source/event_groups.c",line 458,column 1,is_stmt
     768 0001fe 4E0F          AADD #15, SP
     769                      .dwcfi  cfa_offset, 1
     770              $C$DW$71        .dwtag  DW_TAG_TI_branch
     771                      .dwattr $C$DW$71, DW_AT_low_pc(0x00)
     772                      .dwattr $C$DW$71, DW_AT_TI_return
     773 000200 4804          RET
     774                                                      ; return occurs
     775                      .dwattr $C$DW$45, DW_AT_TI_end_file("../FreeRTOS/Source/event_groups.c")
     776                      .dwattr $C$DW$45, DW_AT_TI_end_line(0x1ca)
     777                      .dwattr $C$DW$45, DW_AT_TI_end_column(0x01)
TMS320C55x Assembler PC v4.4.1 Sun Sep 09 04:48:34 2018

Tools Copyright (c) 1996-2012 Texas Instruments Incorporated
event_groups.asm                                                     PAGE   17

     778                      .dwendentry
     779                      .dwendtag $C$DW$45
     780              
     781 000202               .sect   ".text"
     782                      .align 4
     783                      .global _xEventGroupClearBits
     784              
     785              $C$DW$72        .dwtag  DW_TAG_subprogram, DW_AT_name("xEventGroupClearBits")
     786                      .dwattr $C$DW$72, DW_AT_low_pc(_xEventGroupClearBits)
     787                      .dwattr $C$DW$72, DW_AT_high_pc(0x00)
     788                      .dwattr $C$DW$72, DW_AT_TI_symbol_name("_xEventGroupClearBits")
     789                      .dwattr $C$DW$72, DW_AT_external
     790                      .dwattr $C$DW$72, DW_AT_type(*$C$DW$T$20)
     791                      .dwattr $C$DW$72, DW_AT_TI_begin_file("../FreeRTOS/Source/event_groups.c")
     792                      .dwattr $C$DW$72, DW_AT_TI_begin_line(0x1cd)
     793                      .dwattr $C$DW$72, DW_AT_TI_begin_column(0x0d)
     794                      .dwattr $C$DW$72, DW_AT_TI_max_frame_size(0x08)
     795                      .dwpsn  file "../FreeRTOS/Source/event_groups.c",line 462,column 1,is_stmt,address _xEventGroupClearB
     796              
     797                      .dwfde $C$DW$CIE, _xEventGroupClearBits
     798              $C$DW$73        .dwtag  DW_TAG_formal_parameter, DW_AT_name("xEventGroup")
     799                      .dwattr $C$DW$73, DW_AT_TI_symbol_name("_xEventGroup")
     800                      .dwattr $C$DW$73, DW_AT_type(*$C$DW$T$39)
     801                      .dwattr $C$DW$73, DW_AT_location[DW_OP_reg17]
     802              $C$DW$74        .dwtag  DW_TAG_formal_parameter, DW_AT_name("uxBitsToClear")
     803                      .dwattr $C$DW$74, DW_AT_TI_symbol_name("_uxBitsToClear")
     804                      .dwattr $C$DW$74, DW_AT_type(*$C$DW$T$65)
     805                      .dwattr $C$DW$74, DW_AT_location[DW_OP_reg12]
     806              ;*******************************************************************************
     807              ;* FUNCTION NAME: xEventGroupClearBits                                         *
     808              ;*                                                                             *
     809              ;*   Function Uses Regs : AC0,AC0,T0,AR0,XAR0,AR1,AR3,XAR3,SP,CARRY,M40,SATA,  *
     810              ;*                        SATD,RDM,FRCT,SMUL                                   *
     811              ;*   Stack Frame        : Compact (No Frame Pointer, w/ debug)                 *
     812              ;*   Total Frame Size   : 8 words                                              *
     813              ;*                        (1 return address/alignment)                         *
     814              ;*                        (7 local values)                                     *
     815              ;*   Min System Stack   : 1 word                                               *
     816              ;*******************************************************************************
     817 000204       _xEventGroupClearBits:
     818                      .dwcfi  cfa_offset, 1
     819                      .dwcfi  save_reg_to_mem, 91, -1
     820 000204 4EF9          AADD #-7, SP
     821                      .dwcfi  cfa_offset, 8
     822              $C$DW$75        .dwtag  DW_TAG_variable, DW_AT_name("xEventGroup")
     823                      .dwattr $C$DW$75, DW_AT_TI_symbol_name("_xEventGroup")
     824                      .dwattr $C$DW$75, DW_AT_type(*$C$DW$T$39)
     825                      .dwattr $C$DW$75, DW_AT_location[DW_OP_bregx 0x24 0]
     826              $C$DW$76        .dwtag  DW_TAG_variable, DW_AT_name("uxBitsToClear")
     827                      .dwattr $C$DW$76, DW_AT_TI_symbol_name("_uxBitsToClear")
     828                      .dwattr $C$DW$76, DW_AT_type(*$C$DW$T$65)
     829                      .dwattr $C$DW$76, DW_AT_location[DW_OP_bregx 0x24 2]
     830              $C$DW$77        .dwtag  DW_TAG_variable, DW_AT_name("pxEventBits")
     831                      .dwattr $C$DW$77, DW_AT_TI_symbol_name("_pxEventBits")
     832                      .dwattr $C$DW$77, DW_AT_type(*$C$DW$T$37)
TMS320C55x Assembler PC v4.4.1 Sun Sep 09 04:48:34 2018

Tools Copyright (c) 1996-2012 Texas Instruments Incorporated
event_groups.asm                                                     PAGE   18

     833                      .dwattr $C$DW$77, DW_AT_location[DW_OP_bregx 0x24 4]
     834              $C$DW$78        .dwtag  DW_TAG_variable, DW_AT_name("uxReturn")
     835                      .dwattr $C$DW$78, DW_AT_TI_symbol_name("_uxReturn")
     836                      .dwattr $C$DW$78, DW_AT_type(*$C$DW$T$20)
     837                      .dwattr $C$DW$78, DW_AT_location[DW_OP_bregx 0x24 6]
     838 000206 C404          MOV T0, *SP(#2) ; |462| 
     839 000208 EB00          MOV XAR0, dbl(*SP(#0))
         00020a 85   
     840                      .dwpsn  file "../FreeRTOS/Source/event_groups.c",line 463,column 15,is_stmt
     841 00020b ED00          MOV dbl(*SP(#0)), XAR3
         00020d BF   
     842 00020e EB08          MOV XAR3, dbl(*SP(#4))
         000210 B5   
     843                      .dwpsn  file "../FreeRTOS/Source/event_groups.c",line 471,column 2,is_stmt
     844 000211 20     nop
     845 000212 46B3   bset INTM
     846 000214 F731          ADD #1, *(#_usCriticalNesting) ; |471| 
         000216 0001 
         000218 0000 
         00021a 00!  
     847                      .dwpsn  file "../FreeRTOS/Source/event_groups.c",line 477,column 3,is_stmt
     848 00021b A961          MOV *AR3, AR1 ; |477| 
     849 00021d C90C          MOV AR1, *SP(#6) ; |477| 
     850                      .dwpsn  file "../FreeRTOS/Source/event_groups.c",line 480,column 3,is_stmt
     851 00021f ED08          MOV dbl(*SP(#4)), XAR3
         000221 BF   
     852 000222 A904          MOV *SP(#2), AR1 ; |480| 
     853 000224 3699          NOT AR1, AR1 ; |480| 
     854 000226 D961          AND *AR3, AR1, AC0 ; |480| 
         000228 09   
     855 000229 C061          MOV AC0, *AR3 ; |480| 
     856                      .dwpsn  file "../FreeRTOS/Source/event_groups.c",line 482,column 2,is_stmt
     857 00022b A931          MOV *(#_usCriticalNesting), AR1 ; |482| 
         00022d 0000 
         00022f 00!  
     858 000230 0409          BCC $C$L19,AR1 == #0 ; |482| 
         000232 14   
     859                                                      ; branchcc occurs ; |482| 
     860 000233 F731          SUB #1, *(#_usCriticalNesting) ; |482| 
         000235 FFFF 
         000237 0000 
         000239 00!  
     861 00023a 20            NOP
     862 00023b 20            NOP
     863 00023c 20            NOP
     864 00023d A931          MOV *(#_usCriticalNesting), AR1 ; |482| 
         00023f 0000 
         000241 00!  
     865 000242 6199          BCC $C$L19,AR1 != #0 ; |482| 
     866                                                      ; branchcc occurs ; |482| 
     867 000244 20     nop
     868 000245 46B2   bclr INTM
     869 000247       $C$L19:    
     870                      .dwpsn  file "../FreeRTOS/Source/event_groups.c",line 484,column 2,is_stmt
     871 000247 A40C          MOV *SP(#6), T0 ; |484| 
TMS320C55x Assembler PC v4.4.1 Sun Sep 09 04:48:34 2018

Tools Copyright (c) 1996-2012 Texas Instruments Incorporated
event_groups.asm                                                     PAGE   19

     872                      .dwpsn  file "../FreeRTOS/Source/event_groups.c",line 485,column 1,is_stmt
     873 000249 4E07          AADD #7, SP
     874                      .dwcfi  cfa_offset, 1
     875              $C$DW$79        .dwtag  DW_TAG_TI_branch
     876                      .dwattr $C$DW$79, DW_AT_low_pc(0x00)
     877                      .dwattr $C$DW$79, DW_AT_TI_return
     878 00024b 4804          RET
     879                                                      ; return occurs
     880                      .dwattr $C$DW$72, DW_AT_TI_end_file("../FreeRTOS/Source/event_groups.c")
     881                      .dwattr $C$DW$72, DW_AT_TI_end_line(0x1e5)
     882                      .dwattr $C$DW$72, DW_AT_TI_end_column(0x01)
     883                      .dwendentry
     884                      .dwendtag $C$DW$72
     885              
     886 00024d               .sect   ".text"
     887                      .align 4
     888                      .global _xEventGroupGetBitsFromISR
     889              
     890              $C$DW$80        .dwtag  DW_TAG_subprogram, DW_AT_name("xEventGroupGetBitsFromISR")
     891                      .dwattr $C$DW$80, DW_AT_low_pc(_xEventGroupGetBitsFromISR)
     892                      .dwattr $C$DW$80, DW_AT_high_pc(0x00)
     893                      .dwattr $C$DW$80, DW_AT_TI_symbol_name("_xEventGroupGetBitsFromISR")
     894                      .dwattr $C$DW$80, DW_AT_external
     895                      .dwattr $C$DW$80, DW_AT_type(*$C$DW$T$20)
     896                      .dwattr $C$DW$80, DW_AT_TI_begin_file("../FreeRTOS/Source/event_groups.c")
     897                      .dwattr $C$DW$80, DW_AT_TI_begin_line(0x1f7)
     898                      .dwattr $C$DW$80, DW_AT_TI_begin_column(0x0d)
     899                      .dwattr $C$DW$80, DW_AT_TI_max_frame_size(0x08)
     900                      .dwpsn  file "../FreeRTOS/Source/event_groups.c",line 504,column 1,is_stmt,address _xEventGroupGetBit
     901              
     902                      .dwfde $C$DW$CIE, _xEventGroupGetBitsFromISR
     903              $C$DW$81        .dwtag  DW_TAG_formal_parameter, DW_AT_name("xEventGroup")
     904                      .dwattr $C$DW$81, DW_AT_TI_symbol_name("_xEventGroup")
     905                      .dwattr $C$DW$81, DW_AT_type(*$C$DW$T$39)
     906                      .dwattr $C$DW$81, DW_AT_location[DW_OP_reg17]
     907              ;*******************************************************************************
     908              ;* FUNCTION NAME: xEventGroupGetBitsFromISR                                    *
     909              ;*                                                                             *
     910              ;*   Function Uses Regs : T0,AR0,XAR0,AR1,AR3,XAR3,SP,M40,SATA,SATD,RDM,FRCT,  *
     911              ;*                        SMUL                                                 *
     912              ;*   Stack Frame        : Compact (No Frame Pointer, w/ debug)                 *
     913              ;*   Total Frame Size   : 8 words                                              *
     914              ;*                        (1 return address/alignment)                         *
     915              ;*                        (7 local values)                                     *
     916              ;*   Min System Stack   : 1 word                                               *
     917              ;*******************************************************************************
     918 000250       _xEventGroupGetBitsFromISR:
     919                      .dwcfi  cfa_offset, 1
     920                      .dwcfi  save_reg_to_mem, 91, -1
     921 000250 4EF9          AADD #-7, SP
     922                      .dwcfi  cfa_offset, 8
     923              $C$DW$82        .dwtag  DW_TAG_variable, DW_AT_name("xEventGroup")
     924                      .dwattr $C$DW$82, DW_AT_TI_symbol_name("_xEventGroup")
     925                      .dwattr $C$DW$82, DW_AT_type(*$C$DW$T$39)
     926                      .dwattr $C$DW$82, DW_AT_location[DW_OP_bregx 0x24 0]
TMS320C55x Assembler PC v4.4.1 Sun Sep 09 04:48:34 2018

Tools Copyright (c) 1996-2012 Texas Instruments Incorporated
event_groups.asm                                                     PAGE   20

     927              $C$DW$83        .dwtag  DW_TAG_variable, DW_AT_name("uxSavedInterruptStatus")
     928                      .dwattr $C$DW$83, DW_AT_TI_symbol_name("_uxSavedInterruptStatus")
     929                      .dwattr $C$DW$83, DW_AT_type(*$C$DW$T$23)
     930                      .dwattr $C$DW$83, DW_AT_location[DW_OP_bregx 0x24 2]
     931              $C$DW$84        .dwtag  DW_TAG_variable, DW_AT_name("pxEventBits")
     932                      .dwattr $C$DW$84, DW_AT_TI_symbol_name("_pxEventBits")
     933                      .dwattr $C$DW$84, DW_AT_type(*$C$DW$T$36)
     934                      .dwattr $C$DW$84, DW_AT_location[DW_OP_bregx 0x24 4]
     935              $C$DW$85        .dwtag  DW_TAG_variable, DW_AT_name("uxReturn")
     936                      .dwattr $C$DW$85, DW_AT_TI_symbol_name("_uxReturn")
     937                      .dwattr $C$DW$85, DW_AT_type(*$C$DW$T$20)
     938                      .dwattr $C$DW$85, DW_AT_location[DW_OP_bregx 0x24 6]
     939 000252 EB00          MOV XAR0, dbl(*SP(#0))
         000254 85   
     940                      .dwpsn  file "../FreeRTOS/Source/event_groups.c",line 506,column 28,is_stmt
     941 000255 ED00          MOV dbl(*SP(#0)), XAR3
         000257 BF   
     942 000258 EB08          MOV XAR3, dbl(*SP(#4))
         00025a B5   
     943                      .dwpsn  file "../FreeRTOS/Source/event_groups.c",line 509,column 2,is_stmt
     944 00025b E604          MOV #0, *SP(#2) ; |509| 
         00025d 00   
     945                      .dwpsn  file "../FreeRTOS/Source/event_groups.c",line 511,column 3,is_stmt
     946 00025e ED08          MOV dbl(*SP(#4)), XAR3
         000260 BF   
     947 000261 A961          MOV *AR3, AR1 ; |511| 
     948 000263 C90C          MOV AR1, *SP(#6) ; |511| 
     949                      .dwpsn  file "../FreeRTOS/Source/event_groups.c",line 513,column 2,is_stmt
     950                      .dwpsn  file "../FreeRTOS/Source/event_groups.c",line 515,column 2,is_stmt
     951 000265 2294          MOV AR1, T0
     952                      .dwpsn  file "../FreeRTOS/Source/event_groups.c",line 516,column 1,is_stmt
     953 000267 4E07          AADD #7, SP
     954                      .dwcfi  cfa_offset, 1
     955              $C$DW$86        .dwtag  DW_TAG_TI_branch
     956                      .dwattr $C$DW$86, DW_AT_low_pc(0x00)
     957                      .dwattr $C$DW$86, DW_AT_TI_return
     958 000269 4804          RET
     959                                                      ; return occurs
     960                      .dwattr $C$DW$80, DW_AT_TI_end_file("../FreeRTOS/Source/event_groups.c")
     961                      .dwattr $C$DW$80, DW_AT_TI_end_line(0x204)
     962                      .dwattr $C$DW$80, DW_AT_TI_end_column(0x01)
     963                      .dwendentry
     964                      .dwendtag $C$DW$80
     965              
     966 00026b               .sect   ".text"
     967                      .align 4
     968                      .global _xEventGroupSetBits
     969              
     970              $C$DW$87        .dwtag  DW_TAG_subprogram, DW_AT_name("xEventGroupSetBits")
     971                      .dwattr $C$DW$87, DW_AT_low_pc(_xEventGroupSetBits)
     972                      .dwattr $C$DW$87, DW_AT_high_pc(0x00)
     973                      .dwattr $C$DW$87, DW_AT_TI_symbol_name("_xEventGroupSetBits")
     974                      .dwattr $C$DW$87, DW_AT_external
     975                      .dwattr $C$DW$87, DW_AT_type(*$C$DW$T$20)
     976                      .dwattr $C$DW$87, DW_AT_TI_begin_file("../FreeRTOS/Source/event_groups.c")
TMS320C55x Assembler PC v4.4.1 Sun Sep 09 04:48:34 2018

Tools Copyright (c) 1996-2012 Texas Instruments Incorporated
event_groups.asm                                                     PAGE   21

     977                      .dwattr $C$DW$87, DW_AT_TI_begin_line(0x207)
     978                      .dwattr $C$DW$87, DW_AT_TI_begin_column(0x0d)
     979                      .dwattr $C$DW$87, DW_AT_TI_max_frame_size(0x14)
     980                      .dwpsn  file "../FreeRTOS/Source/event_groups.c",line 520,column 1,is_stmt,address _xEventGroupSetBit
     981              
     982                      .dwfde $C$DW$CIE, _xEventGroupSetBits
     983              $C$DW$88        .dwtag  DW_TAG_formal_parameter, DW_AT_name("xEventGroup")
     984                      .dwattr $C$DW$88, DW_AT_TI_symbol_name("_xEventGroup")
     985                      .dwattr $C$DW$88, DW_AT_type(*$C$DW$T$39)
     986                      .dwattr $C$DW$88, DW_AT_location[DW_OP_reg17]
     987              $C$DW$89        .dwtag  DW_TAG_formal_parameter, DW_AT_name("uxBitsToSet")
     988                      .dwattr $C$DW$89, DW_AT_TI_symbol_name("_uxBitsToSet")
     989                      .dwattr $C$DW$89, DW_AT_type(*$C$DW$T$65)
     990                      .dwattr $C$DW$89, DW_AT_location[DW_OP_reg12]
     991              ;*******************************************************************************
     992              ;* FUNCTION NAME: xEventGroupSetBits                                           *
     993              ;*                                                                             *
     994              ;*   Function Uses Regs : AC0,AC0,AC1,AC1,T0,AR0,XAR0,AR1,AR2,AR3,XAR3,SP,TC1, *
     995              ;*                        M40,SATA,SATD,RDM,FRCT,SMUL                          *
     996              ;*   Stack Frame        : Compact (No Frame Pointer, w/ debug)                 *
     997              ;*   Total Frame Size   : 20 words                                             *
     998              ;*                        (1 return address/alignment)                         *
     999              ;*                        (19 local values)                                    *
    1000              ;*   Min System Stack   : 1 word                                               *
    1001              ;*******************************************************************************
    1002 00026c       _xEventGroupSetBits:
    1003                      .dwcfi  cfa_offset, 1
    1004                      .dwcfi  save_reg_to_mem, 91, -1
    1005 00026c 4EED          AADD #-19, SP
    1006                      .dwcfi  cfa_offset, 20
    1007              $C$DW$90        .dwtag  DW_TAG_variable, DW_AT_name("xEventGroup")
    1008                      .dwattr $C$DW$90, DW_AT_TI_symbol_name("_xEventGroup")
    1009                      .dwattr $C$DW$90, DW_AT_type(*$C$DW$T$39)
    1010                      .dwattr $C$DW$90, DW_AT_location[DW_OP_bregx 0x24 0]
    1011              $C$DW$91        .dwtag  DW_TAG_variable, DW_AT_name("uxBitsToSet")
    1012                      .dwattr $C$DW$91, DW_AT_TI_symbol_name("_uxBitsToSet")
    1013                      .dwattr $C$DW$91, DW_AT_type(*$C$DW$T$65)
    1014                      .dwattr $C$DW$91, DW_AT_location[DW_OP_bregx 0x24 2]
    1015              $C$DW$92        .dwtag  DW_TAG_variable, DW_AT_name("pxListItem")
    1016                      .dwattr $C$DW$92, DW_AT_TI_symbol_name("_pxListItem")
    1017                      .dwattr $C$DW$92, DW_AT_type(*$C$DW$T$26)
    1018                      .dwattr $C$DW$92, DW_AT_location[DW_OP_bregx 0x24 4]
    1019              $C$DW$93        .dwtag  DW_TAG_variable, DW_AT_name("pxNext")
    1020                      .dwattr $C$DW$93, DW_AT_TI_symbol_name("_pxNext")
    1021                      .dwattr $C$DW$93, DW_AT_type(*$C$DW$T$26)
    1022                      .dwattr $C$DW$93, DW_AT_location[DW_OP_bregx 0x24 6]
    1023              $C$DW$94        .dwtag  DW_TAG_variable, DW_AT_name("pxListEnd")
    1024                      .dwattr $C$DW$94, DW_AT_TI_symbol_name("_pxListEnd")
    1025                      .dwattr $C$DW$94, DW_AT_type(*$C$DW$T$80)
    1026                      .dwattr $C$DW$94, DW_AT_location[DW_OP_bregx 0x24 8]
    1027              $C$DW$95        .dwtag  DW_TAG_variable, DW_AT_name("pxList")
    1028                      .dwattr $C$DW$95, DW_AT_TI_symbol_name("_pxList")
    1029                      .dwattr $C$DW$95, DW_AT_type(*$C$DW$T$78)
    1030                      .dwattr $C$DW$95, DW_AT_location[DW_OP_bregx 0x24 10]
    1031              $C$DW$96        .dwtag  DW_TAG_variable, DW_AT_name("uxBitsToClear")
TMS320C55x Assembler PC v4.4.1 Sun Sep 09 04:48:34 2018

Tools Copyright (c) 1996-2012 Texas Instruments Incorporated
event_groups.asm                                                     PAGE   22

    1032                      .dwattr $C$DW$96, DW_AT_TI_symbol_name("_uxBitsToClear")
    1033                      .dwattr $C$DW$96, DW_AT_type(*$C$DW$T$20)
    1034                      .dwattr $C$DW$96, DW_AT_location[DW_OP_bregx 0x24 12]
    1035              $C$DW$97        .dwtag  DW_TAG_variable, DW_AT_name("uxBitsWaitedFor")
    1036                      .dwattr $C$DW$97, DW_AT_TI_symbol_name("_uxBitsWaitedFor")
    1037                      .dwattr $C$DW$97, DW_AT_type(*$C$DW$T$20)
    1038                      .dwattr $C$DW$97, DW_AT_location[DW_OP_bregx 0x24 13]
    1039              $C$DW$98        .dwtag  DW_TAG_variable, DW_AT_name("uxControlBits")
    1040                      .dwattr $C$DW$98, DW_AT_TI_symbol_name("_uxControlBits")
    1041                      .dwattr $C$DW$98, DW_AT_type(*$C$DW$T$20)
    1042                      .dwattr $C$DW$98, DW_AT_location[DW_OP_bregx 0x24 14]
    1043              $C$DW$99        .dwtag  DW_TAG_variable, DW_AT_name("pxEventBits")
    1044                      .dwattr $C$DW$99, DW_AT_TI_symbol_name("_pxEventBits")
    1045                      .dwattr $C$DW$99, DW_AT_type(*$C$DW$T$37)
    1046                      .dwattr $C$DW$99, DW_AT_location[DW_OP_bregx 0x24 16]
    1047              $C$DW$100       .dwtag  DW_TAG_variable, DW_AT_name("xMatchFound")
    1048                      .dwattr $C$DW$100, DW_AT_TI_symbol_name("_xMatchFound")
    1049                      .dwattr $C$DW$100, DW_AT_type(*$C$DW$T$61)
    1050                      .dwattr $C$DW$100, DW_AT_location[DW_OP_bregx 0x24 18]
    1051 00026e C404          MOV T0, *SP(#2) ; |520| 
    1052 000270 EB00          MOV XAR0, dbl(*SP(#0))
         000272 85   
    1053                      .dwpsn  file "../FreeRTOS/Source/event_groups.c",line 524,column 13,is_stmt
    1054 000273 E618          MOV #0, *SP(#12) ; |524| 
         000275 00   
    1055                      .dwpsn  file "../FreeRTOS/Source/event_groups.c",line 525,column 15,is_stmt
    1056 000276 ED00          MOV dbl(*SP(#0)), XAR3
         000278 BF   
    1057 000279 EB20          MOV XAR3, dbl(*SP(#16))
         00027b B5   
    1058                      .dwpsn  file "../FreeRTOS/Source/event_groups.c",line 526,column 12,is_stmt
    1059 00027c E624          MOV #0, *SP(#18) ; |526| 
         00027e 00   
    1060                      .dwpsn  file "../FreeRTOS/Source/event_groups.c",line 533,column 2,is_stmt
    1061 00027f ED20          MOV dbl(*SP(#16)), XAR3
         000281 BF   
    1062              
    1063 000282 8E14          MOV XAR3, dbl(*SP(#10))
         000284 BB14 
         000286 B502 
    1064              ||      AADD #2, AR3 ; |533| 
    1065              
    1066                      .dwpsn  file "../FreeRTOS/Source/event_groups.c",line 534,column 2,is_stmt
    1067              
    1068 000288 8E10          MOV XAR3, dbl(*SP(#8))
         00028a BB14 
         00028c B504 
    1069              ||      AADD #4, AR3 ; |534| 
    1070              
    1071                      .dwpsn  file "../FreeRTOS/Source/event_groups.c",line 535,column 2,is_stmt
    1072              $C$DW$101       .dwtag  DW_TAG_TI_branch
    1073                      .dwattr $C$DW$101, DW_AT_low_pc(0x00)
    1074                      .dwattr $C$DW$101, DW_AT_name("_vTaskSuspendAll")
    1075                      .dwattr $C$DW$101, DW_AT_TI_call
    1076 00028e 6C00          CALL #_vTaskSuspendAll ; |535| 
TMS320C55x Assembler PC v4.4.1 Sun Sep 09 04:48:34 2018

Tools Copyright (c) 1996-2012 Texas Instruments Incorporated
event_groups.asm                                                     PAGE   23

         000290 0000!
    1077                                                      ; call occurs [#_vTaskSuspendAll] ; |535| 
    1078                      .dwpsn  file "../FreeRTOS/Source/event_groups.c",line 539,column 3,is_stmt
    1079 000292 ED14          MOV dbl(*SP(#10)), XAR3
         000294 BF   
    1080 000295 ED7D          MOV dbl(*AR3(short(#6))), XAR3
         000297 BF   
    1081 000298 EB08          MOV XAR3, dbl(*SP(#4))
         00029a B5   
    1082                      .dwpsn  file "../FreeRTOS/Source/event_groups.c",line 542,column 3,is_stmt
    1083 00029b ED20          MOV dbl(*SP(#16)), XAR3
         00029d BF   
    1084 00029e A904          MOV *SP(#2), AR1 ; |542| 
    1085 0002a0 DA61          OR *AR3, AR1, AR1 ; |542| 
         0002a2 99   
    1086 0002a3 C961          MOV AR1, *AR3 ; |542| 
    1087                      .dwpsn  file "../FreeRTOS/Source/event_groups.c",line 545,column 10,is_stmt
    1088 0002a5 ED10          MOV dbl(*SP(#8)), XAR3
         0002a7 BF   
    1089 0002a8 90B0          MOV XAR3, AC0
    1090 0002aa ED08          MOV dbl(*SP(#4)), XAR3
         0002ac BF   
    1091 0002ad 90B1          MOV XAR3, AC1
    1092 0002af 1210          CMPU AC1 == AC0, TC1 ; |545| 
         0002b1 04   
    1093 0002b2 0464          BCC $C$L25,TC1 ; |545| 
         0002b4 7B   
    1094                                                      ; branchcc occurs ; |545| 
    1095 0002b5       $C$L20:    
    1096 0002b5       $C$DW$L$_xEventGroupSetBits$2$B:
    1097                      .dwpsn  file "../FreeRTOS/Source/event_groups.c",line 547,column 4,is_stmt
    1098 0002b5 ED75          MOV dbl(*AR3(short(#2))), XAR3
         0002b7 BF   
    1099 0002b8 EB0C          MOV XAR3, dbl(*SP(#6))
         0002ba B5   
    1100                      .dwpsn  file "../FreeRTOS/Source/event_groups.c",line 548,column 4,is_stmt
    1101 0002bb ED08          MOV dbl(*SP(#4)), XAR3
         0002bd BF   
    1102 0002be A961          MOV *AR3, AR1 ; |548| 
    1103 0002c0 C91A          MOV AR1, *SP(#13) ; |548| 
    1104                      .dwpsn  file "../FreeRTOS/Source/event_groups.c",line 549,column 4,is_stmt
    1105 0002c2 E624          MOV #0, *SP(#18) ; |549| 
         0002c4 00   
    1106                      .dwpsn  file "../FreeRTOS/Source/event_groups.c",line 552,column 4,is_stmt
    1107 0002c5 A91A          MOV *SP(#13), AR1 ; |552| 
    1108 0002c7 7DFF          AND #0xff00, AR1, AC0 ; |552| 
         0002c9 0009 
    1109 0002cb C01C          MOV AC0, *SP(#14) ; |552| 
    1110                      .dwpsn  file "../FreeRTOS/Source/event_groups.c",line 553,column 4,is_stmt
    1111 0002cd F41A          AND #0x00ff, *SP(#13) ; |553| 
         0002cf 00FF 
    1112                      .dwpsn  file "../FreeRTOS/Source/event_groups.c",line 555,column 4,is_stmt
    1113 0002d1 DC1C          BTST #10, *SP(#14), TC1 ; |555| 
         0002d3 A0   
    1114 0002d4 0464          BCC $C$L21,TC1 ; |555| 
TMS320C55x Assembler PC v4.4.1 Sun Sep 09 04:48:34 2018

Tools Copyright (c) 1996-2012 Texas Instruments Incorporated
event_groups.asm                                                     PAGE   24

         0002d6 10   
    1115                                                      ; branchcc occurs ; |555| 
    1116 0002d7       $C$DW$L$_xEventGroupSetBits$2$E:
    1117 0002d7       $C$DW$L$_xEventGroupSetBits$3$B:
    1118                      .dwpsn  file "../FreeRTOS/Source/event_groups.c",line 558,column 5,is_stmt
    1119 0002d7 ED20          MOV dbl(*SP(#16)), XAR3
         0002d9 BF   
    1120 0002da A961          MOV *AR3, AR1 ; |558| 
    1121 0002dc D91A          AND *SP(#13), AR1, AR1 ; |558| 
         0002de 99   
    1122 0002df 0409          BCC $C$L22,AR1 == #0 ; |558| 
         0002e1 17   
    1123                                                      ; branchcc occurs ; |558| 
    1124 0002e2       $C$DW$L$_xEventGroupSetBits$3$E:
    1125 0002e2       $C$DW$L$_xEventGroupSetBits$4$B:
    1126                      .dwpsn  file "../FreeRTOS/Source/event_groups.c",line 560,column 6,is_stmt
    1127 0002e2 E624          MOV #1, *SP(#18) ; |560| 
         0002e4 01   
    1128                      .dwpsn  file "../FreeRTOS/Source/event_groups.c",line 561,column 5,is_stmt
    1129 0002e5 4A12          B $C$L22  ; |561| 
    1130                                                      ; branch occurs ; |561| 
    1131 0002e7       $C$DW$L$_xEventGroupSetBits$4$E:
    1132 0002e7       $C$L21:    
    1133 0002e7       $C$DW$L$_xEventGroupSetBits$6$B:
    1134                      .dwpsn  file "../FreeRTOS/Source/event_groups.c",line 567,column 9,is_stmt
    1135 0002e7 ED20          MOV dbl(*SP(#16)), XAR3
         0002e9 BF   
    1136 0002ea A961          MOV *AR3, AR1 ; |567| 
    1137 0002ec D91A          AND *SP(#13), AR1, AR2 ; |567| 
         0002ee A9   
    1138 0002ef A91A          MOV *SP(#13), AR1 ; |567| 
    1139 0002f1 12AC          CMPU AR2 != AR1, TC1 ; |567| 
         0002f3 94   
    1140 0002f4 61E4          BCC $C$L22,TC1 ; |567| 
    1141                                                      ; branchcc occurs ; |567| 
    1142 0002f6       $C$DW$L$_xEventGroupSetBits$6$E:
    1143 0002f6       $C$DW$L$_xEventGroupSetBits$7$B:
    1144                      .dwpsn  file "../FreeRTOS/Source/event_groups.c",line 570,column 5,is_stmt
    1145 0002f6 E624          MOV #1, *SP(#18) ; |570| 
         0002f8 01   
    1146                      .dwpsn  file "../FreeRTOS/Source/event_groups.c",line 571,column 4,is_stmt
    1147 0002f9       $C$DW$L$_xEventGroupSetBits$7$E:
    1148 0002f9       $C$L22:    
    1149 0002f9       $C$DW$L$_xEventGroupSetBits$8$B:
    1150                      .dwpsn  file "../FreeRTOS/Source/event_groups.c",line 577,column 4,is_stmt
    1151 0002f9 A924          MOV *SP(#18), AR1 ; |577| 
    1152 0002fb 0409          BCC $C$L24,AR1 == #0 ; |577| 
         0002fd 1C   
    1153                                                      ; branchcc occurs ; |577| 
    1154 0002fe       $C$DW$L$_xEventGroupSetBits$8$E:
    1155 0002fe       $C$DW$L$_xEventGroupSetBits$9$B:
    1156                      .dwpsn  file "../FreeRTOS/Source/event_groups.c",line 580,column 5,is_stmt
    1157 0002fe DC1C          BTST #8, *SP(#14), TC1 ; |580| 
         000300 80   
    1158 000301 63F4          BCC $C$L23,!TC1 ; |580| 
TMS320C55x Assembler PC v4.4.1 Sun Sep 09 04:48:34 2018

Tools Copyright (c) 1996-2012 Texas Instruments Incorporated
event_groups.asm                                                     PAGE   25

    1159                                                      ; branchcc occurs ; |580| 
    1160 000303       $C$DW$L$_xEventGroupSetBits$9$E:
    1161 000303       $C$DW$L$_xEventGroupSetBits$10$B:
    1162                      .dwpsn  file "../FreeRTOS/Source/event_groups.c",line 582,column 6,is_stmt
    1163 000303 A91A          MOV *SP(#13), AR1 ; |582| 
    1164 000305 DA18          OR *SP(#12), AR1, AR1 ; |582| 
         000307 99   
    1165 000308 C918          MOV AR1, *SP(#12) ; |582| 
    1166                      .dwpsn  file "../FreeRTOS/Source/event_groups.c",line 583,column 5,is_stmt
    1167 00030a       $C$DW$L$_xEventGroupSetBits$10$E:
    1168 00030a       $C$L23:    
    1169 00030a       $C$DW$L$_xEventGroupSetBits$11$B:
    1170                      .dwpsn  file "../FreeRTOS/Source/event_groups.c",line 594,column 5,is_stmt
    1171 00030a ED20          MOV dbl(*SP(#16)), XAR3
         00030c BF   
    1172 00030d ED08          MOV dbl(*SP(#4)), XAR0
         00030f 8F   
    1173 000310 A961          MOV *AR3, AR1 ; |594| 
    1174 000312 7E02          OR #0x0200, AR1, T0 ; |594| 
         000314 0049 
    1175              $C$DW$102       .dwtag  DW_TAG_TI_branch
    1176                      .dwattr $C$DW$102, DW_AT_low_pc(0x00)
    1177                      .dwattr $C$DW$102, DW_AT_name("_vTaskRemoveFromUnorderedEventList")
    1178                      .dwattr $C$DW$102, DW_AT_TI_call
    1179 000316 6C00          CALL #_vTaskRemoveFromUnorderedEventList ; |594| 
         000318 0000!
    1180                                                      ; call occurs [#_vTaskRemoveFromUnorderedEventList] ; |594| 
    1181 00031a       $C$DW$L$_xEventGroupSetBits$11$E:
    1182 00031a       $C$L24:    
    1183 00031a       $C$DW$L$_xEventGroupSetBits$12$B:
    1184                      .dwpsn  file "../FreeRTOS/Source/event_groups.c",line 600,column 4,is_stmt
    1185 00031a ED0C          MOV dbl(*SP(#6)), XAR3
         00031c BF   
    1186 00031d EB08          MOV XAR3, dbl(*SP(#4))
         00031f B5   
    1187                      .dwpsn  file "../FreeRTOS/Source/event_groups.c",line 545,column 10,is_stmt
    1188 000320 ED10          MOV dbl(*SP(#8)), XAR3
         000322 BF   
    1189 000323 90B0          MOV XAR3, AC0
    1190 000325 ED08          MOV dbl(*SP(#4)), XAR3
         000327 BF   
    1191 000328 90B1          MOV XAR3, AC1
    1192 00032a 121C          CMPU AC1 != AC0, TC1 ; |545| 
         00032c 04   
    1193 00032d 0464          BCC $C$L20,TC1 ; |545| 
         00032f 85   
    1194                                                      ; branchcc occurs ; |545| 
    1195 000330       $C$DW$L$_xEventGroupSetBits$12$E:
    1196 000330       $C$L25:    
    1197                      .dwpsn  file "../FreeRTOS/Source/event_groups.c",line 605,column 3,is_stmt
    1198 000330 ED20          MOV dbl(*SP(#16)), XAR3
         000332 BF   
    1199 000333 A918          MOV *SP(#12), AR1 ; |605| 
    1200 000335 3699          NOT AR1, AR1 ; |605| 
    1201 000337 D961          AND *AR3, AR1, AC0 ; |605| 
TMS320C55x Assembler PC v4.4.1 Sun Sep 09 04:48:34 2018

Tools Copyright (c) 1996-2012 Texas Instruments Incorporated
event_groups.asm                                                     PAGE   26

         000339 09   
    1202 00033a C061          MOV AC0, *AR3 ; |605| 
    1203                      .dwpsn  file "../FreeRTOS/Source/event_groups.c",line 607,column 2,is_stmt
    1204              $C$DW$103       .dwtag  DW_TAG_TI_branch
    1205                      .dwattr $C$DW$103, DW_AT_low_pc(0x00)
    1206                      .dwattr $C$DW$103, DW_AT_name("_xTaskResumeAll")
    1207                      .dwattr $C$DW$103, DW_AT_TI_call
    1208 00033c 6C00          CALL #_xTaskResumeAll ; |607| 
         00033e 0000!
    1209                                                      ; call occurs [#_xTaskResumeAll] ; |607| 
    1210                      .dwpsn  file "../FreeRTOS/Source/event_groups.c",line 609,column 2,is_stmt
    1211 000340 ED20          MOV dbl(*SP(#16)), XAR3
         000342 BF   
    1212 000343 A461          MOV *AR3, T0 ; |609| 
    1213                      .dwpsn  file "../FreeRTOS/Source/event_groups.c",line 610,column 1,is_stmt
    1214 000345 4E13          AADD #19, SP
    1215                      .dwcfi  cfa_offset, 1
    1216              $C$DW$104       .dwtag  DW_TAG_TI_branch
    1217                      .dwattr $C$DW$104, DW_AT_low_pc(0x00)
    1218                      .dwattr $C$DW$104, DW_AT_TI_return
    1219 000347 4804          RET
    1220                                                      ; return occurs
    1221              
    1222              $C$DW$105       .dwtag  DW_TAG_TI_loop
    1223                      .dwattr $C$DW$105, DW_AT_name("F:\eZdsp_DBG\eZDSP_5535_Files\ccsws2\test\Debug\event_groups.asm:$C$L2
    1224                      .dwattr $C$DW$105, DW_AT_TI_begin_file("../FreeRTOS/Source/event_groups.c")
    1225                      .dwattr $C$DW$105, DW_AT_TI_begin_line(0x221)
    1226                      .dwattr $C$DW$105, DW_AT_TI_end_line(0x259)
    1227              $C$DW$106       .dwtag  DW_TAG_TI_loop_range
    1228                      .dwattr $C$DW$106, DW_AT_low_pc($C$DW$L$_xEventGroupSetBits$2$B)
    1229                      .dwattr $C$DW$106, DW_AT_high_pc($C$DW$L$_xEventGroupSetBits$2$E)
    1230              $C$DW$107       .dwtag  DW_TAG_TI_loop_range
    1231                      .dwattr $C$DW$107, DW_AT_low_pc($C$DW$L$_xEventGroupSetBits$9$B)
    1232                      .dwattr $C$DW$107, DW_AT_high_pc($C$DW$L$_xEventGroupSetBits$9$E)
    1233              $C$DW$108       .dwtag  DW_TAG_TI_loop_range
    1234                      .dwattr $C$DW$108, DW_AT_low_pc($C$DW$L$_xEventGroupSetBits$10$B)
    1235                      .dwattr $C$DW$108, DW_AT_high_pc($C$DW$L$_xEventGroupSetBits$10$E)
    1236              $C$DW$109       .dwtag  DW_TAG_TI_loop_range
    1237                      .dwattr $C$DW$109, DW_AT_low_pc($C$DW$L$_xEventGroupSetBits$3$B)
    1238                      .dwattr $C$DW$109, DW_AT_high_pc($C$DW$L$_xEventGroupSetBits$3$E)
    1239              $C$DW$110       .dwtag  DW_TAG_TI_loop_range
    1240                      .dwattr $C$DW$110, DW_AT_low_pc($C$DW$L$_xEventGroupSetBits$4$B)
    1241                      .dwattr $C$DW$110, DW_AT_high_pc($C$DW$L$_xEventGroupSetBits$4$E)
    1242              $C$DW$111       .dwtag  DW_TAG_TI_loop_range
    1243                      .dwattr $C$DW$111, DW_AT_low_pc($C$DW$L$_xEventGroupSetBits$6$B)
    1244                      .dwattr $C$DW$111, DW_AT_high_pc($C$DW$L$_xEventGroupSetBits$6$E)
    1245              $C$DW$112       .dwtag  DW_TAG_TI_loop_range
    1246                      .dwattr $C$DW$112, DW_AT_low_pc($C$DW$L$_xEventGroupSetBits$7$B)
    1247                      .dwattr $C$DW$112, DW_AT_high_pc($C$DW$L$_xEventGroupSetBits$7$E)
    1248              $C$DW$113       .dwtag  DW_TAG_TI_loop_range
    1249                      .dwattr $C$DW$113, DW_AT_low_pc($C$DW$L$_xEventGroupSetBits$8$B)
    1250                      .dwattr $C$DW$113, DW_AT_high_pc($C$DW$L$_xEventGroupSetBits$8$E)
    1251              $C$DW$114       .dwtag  DW_TAG_TI_loop_range
    1252                      .dwattr $C$DW$114, DW_AT_low_pc($C$DW$L$_xEventGroupSetBits$11$B)
    1253                      .dwattr $C$DW$114, DW_AT_high_pc($C$DW$L$_xEventGroupSetBits$11$E)
TMS320C55x Assembler PC v4.4.1 Sun Sep 09 04:48:34 2018

Tools Copyright (c) 1996-2012 Texas Instruments Incorporated
event_groups.asm                                                     PAGE   27

    1254              $C$DW$115       .dwtag  DW_TAG_TI_loop_range
    1255                      .dwattr $C$DW$115, DW_AT_low_pc($C$DW$L$_xEventGroupSetBits$12$B)
    1256                      .dwattr $C$DW$115, DW_AT_high_pc($C$DW$L$_xEventGroupSetBits$12$E)
    1257                      .dwendtag $C$DW$105
    1258              
    1259                      .dwattr $C$DW$87, DW_AT_TI_end_file("../FreeRTOS/Source/event_groups.c")
    1260                      .dwattr $C$DW$87, DW_AT_TI_end_line(0x262)
    1261                      .dwattr $C$DW$87, DW_AT_TI_end_column(0x01)
    1262                      .dwendentry
    1263                      .dwendtag $C$DW$87
    1264              
    1265 000349               .sect   ".text"
    1266                      .align 4
    1267                      .global _vEventGroupDelete
    1268              
    1269              $C$DW$116       .dwtag  DW_TAG_subprogram, DW_AT_name("vEventGroupDelete")
    1270                      .dwattr $C$DW$116, DW_AT_low_pc(_vEventGroupDelete)
    1271                      .dwattr $C$DW$116, DW_AT_high_pc(0x00)
    1272                      .dwattr $C$DW$116, DW_AT_TI_symbol_name("_vEventGroupDelete")
    1273                      .dwattr $C$DW$116, DW_AT_external
    1274                      .dwattr $C$DW$116, DW_AT_TI_begin_file("../FreeRTOS/Source/event_groups.c")
    1275                      .dwattr $C$DW$116, DW_AT_TI_begin_line(0x265)
    1276                      .dwattr $C$DW$116, DW_AT_TI_begin_column(0x06)
    1277                      .dwattr $C$DW$116, DW_AT_TI_max_frame_size(0x08)
    1278                      .dwpsn  file "../FreeRTOS/Source/event_groups.c",line 614,column 1,is_stmt,address _vEventGroupDelete
    1279              
    1280                      .dwfde $C$DW$CIE, _vEventGroupDelete
    1281              $C$DW$117       .dwtag  DW_TAG_formal_parameter, DW_AT_name("xEventGroup")
    1282                      .dwattr $C$DW$117, DW_AT_TI_symbol_name("_xEventGroup")
    1283                      .dwattr $C$DW$117, DW_AT_type(*$C$DW$T$39)
    1284                      .dwattr $C$DW$117, DW_AT_location[DW_OP_reg17]
    1285              ;*******************************************************************************
    1286              ;* FUNCTION NAME: vEventGroupDelete                                            *
    1287              ;*                                                                             *
    1288              ;*   Function Uses Regs : T0,AR0,XAR0,AR1,AR3,XAR3,SP,M40,SATA,SATD,RDM,FRCT,  *
    1289              ;*                        SMUL                                                 *
    1290              ;*   Stack Frame        : Compact (No Frame Pointer, w/ debug)                 *
    1291              ;*   Total Frame Size   : 8 words                                              *
    1292              ;*                        (2 return address/alignment)                         *
    1293              ;*                        (6 local values)                                     *
    1294              ;*   Min System Stack   : 1 word                                               *
    1295              ;*******************************************************************************
    1296 00034c       _vEventGroupDelete:
    1297                      .dwcfi  cfa_offset, 1
    1298                      .dwcfi  save_reg_to_mem, 91, -1
    1299 00034c 4EF9          AADD #-7, SP
    1300                      .dwcfi  cfa_offset, 8
    1301              $C$DW$118       .dwtag  DW_TAG_variable, DW_AT_name("xEventGroup")
    1302                      .dwattr $C$DW$118, DW_AT_TI_symbol_name("_xEventGroup")
    1303                      .dwattr $C$DW$118, DW_AT_type(*$C$DW$T$39)
    1304                      .dwattr $C$DW$118, DW_AT_location[DW_OP_bregx 0x24 0]
    1305              $C$DW$119       .dwtag  DW_TAG_variable, DW_AT_name("pxEventBits")
    1306                      .dwattr $C$DW$119, DW_AT_TI_symbol_name("_pxEventBits")
    1307                      .dwattr $C$DW$119, DW_AT_type(*$C$DW$T$37)
    1308                      .dwattr $C$DW$119, DW_AT_location[DW_OP_bregx 0x24 2]
TMS320C55x Assembler PC v4.4.1 Sun Sep 09 04:48:34 2018

Tools Copyright (c) 1996-2012 Texas Instruments Incorporated
event_groups.asm                                                     PAGE   28

    1309              $C$DW$120       .dwtag  DW_TAG_variable, DW_AT_name("pxTasksWaitingForBits")
    1310                      .dwattr $C$DW$120, DW_AT_TI_symbol_name("_pxTasksWaitingForBits")
    1311                      .dwattr $C$DW$120, DW_AT_type(*$C$DW$T$78)
    1312                      .dwattr $C$DW$120, DW_AT_location[DW_OP_bregx 0x24 4]
    1313 00034e EB00          MOV XAR0, dbl(*SP(#0))
         000350 85   
    1314                      .dwpsn  file "../FreeRTOS/Source/event_groups.c",line 615,column 15,is_stmt
    1315 000351 ED00          MOV dbl(*SP(#0)), XAR3
         000353 BF   
    1316 000354 EB04          MOV XAR3, dbl(*SP(#2))
         000356 B5   
    1317                      .dwpsn  file "../FreeRTOS/Source/event_groups.c",line 616,column 15,is_stmt
    1318              
    1319 000357 8E08          MOV XAR3, dbl(*SP(#4))
         000359 BB14 
         00035b B502 
    1320              ||      AADD #2, AR3 ; |616| 
    1321              
    1322                      .dwpsn  file "../FreeRTOS/Source/event_groups.c",line 618,column 2,is_stmt
    1323              $C$DW$121       .dwtag  DW_TAG_TI_branch
    1324                      .dwattr $C$DW$121, DW_AT_low_pc(0x00)
    1325                      .dwattr $C$DW$121, DW_AT_name("_vTaskSuspendAll")
    1326                      .dwattr $C$DW$121, DW_AT_TI_call
    1327 00035d 6C00          CALL #_vTaskSuspendAll ; |618| 
         00035f 0000!
    1328                                                      ; call occurs [#_vTaskSuspendAll] ; |618| 
    1329                      .dwpsn  file "../FreeRTOS/Source/event_groups.c",line 622,column 10,is_stmt
    1330 000361 ED08          MOV dbl(*SP(#4)), XAR3
         000363 BF   
    1331 000364 A961          MOV *AR3, AR1 ; |622| 
    1332 000366 0409          BCC $C$L27,AR1 == #0 ; |622| 
         000368 13   
    1333                                                      ; branchcc occurs ; |622| 
    1334 000369       $C$L26:    
    1335 000369       $C$DW$L$_vEventGroupDelete$2$B:
    1336                      .dwpsn  file "../FreeRTOS/Source/event_groups.c",line 627,column 4,is_stmt
    1337 000369 ED7D          MOV dbl(*AR3(short(#6))), XAR0
         00036b 8F   
    1338 00036c 7602          MOV #512, T0 ; |627| 
         00036e 0048 
    1339              $C$DW$122       .dwtag  DW_TAG_TI_branch
    1340                      .dwattr $C$DW$122, DW_AT_low_pc(0x00)
    1341                      .dwattr $C$DW$122, DW_AT_name("_vTaskRemoveFromUnorderedEventList")
    1342                      .dwattr $C$DW$122, DW_AT_TI_call
    1343 000370 6C00          CALL #_vTaskRemoveFromUnorderedEventList ; |627| 
         000372 0000!
    1344                                                      ; call occurs [#_vTaskRemoveFromUnorderedEventList] ; |627| 
    1345                      .dwpsn  file "../FreeRTOS/Source/event_groups.c",line 622,column 10,is_stmt
    1346 000374 ED08          MOV dbl(*SP(#4)), XAR3
         000376 BF   
    1347 000377 A961          MOV *AR3, AR1 ; |622| 
    1348 000379 0419          BCC $C$L26,AR1 != #0 ; |622| 
         00037b ED   
    1349                                                      ; branchcc occurs ; |622| 
    1350 00037c       $C$DW$L$_vEventGroupDelete$2$E:
TMS320C55x Assembler PC v4.4.1 Sun Sep 09 04:48:34 2018

Tools Copyright (c) 1996-2012 Texas Instruments Incorporated
event_groups.asm                                                     PAGE   29

    1351 00037c       $C$L27:    
    1352                      .dwpsn  file "../FreeRTOS/Source/event_groups.c",line 634,column 4,is_stmt
    1353 00037c ED04          MOV dbl(*SP(#2)), XAR0
         00037e 8F   
    1354              $C$DW$123       .dwtag  DW_TAG_TI_branch
    1355                      .dwattr $C$DW$123, DW_AT_low_pc(0x00)
    1356                      .dwattr $C$DW$123, DW_AT_name("_vPortFree")
    1357                      .dwattr $C$DW$123, DW_AT_TI_call
    1358 00037f 6C00          CALL #_vPortFree ; |634| 
         000381 0000!
    1359                                                      ; call occurs [#_vPortFree] ; |634| 
    1360                      .dwpsn  file "../FreeRTOS/Source/event_groups.c",line 651,column 2,is_stmt
    1361              $C$DW$124       .dwtag  DW_TAG_TI_branch
    1362                      .dwattr $C$DW$124, DW_AT_low_pc(0x00)
    1363                      .dwattr $C$DW$124, DW_AT_name("_xTaskResumeAll")
    1364                      .dwattr $C$DW$124, DW_AT_TI_call
    1365 000383 6C00          CALL #_xTaskResumeAll ; |651| 
         000385 0000!
    1366                                                      ; call occurs [#_xTaskResumeAll] ; |651| 
    1367                      .dwpsn  file "../FreeRTOS/Source/event_groups.c",line 652,column 1,is_stmt
    1368 000387 4E07          AADD #7, SP
    1369                      .dwcfi  cfa_offset, 1
    1370              $C$DW$125       .dwtag  DW_TAG_TI_branch
    1371                      .dwattr $C$DW$125, DW_AT_low_pc(0x00)
    1372                      .dwattr $C$DW$125, DW_AT_TI_return
    1373 000389 4804          RET
    1374                                                      ; return occurs
    1375              
    1376              $C$DW$126       .dwtag  DW_TAG_TI_loop
    1377                      .dwattr $C$DW$126, DW_AT_name("F:\eZdsp_DBG\eZDSP_5535_Files\ccsws2\test\Debug\event_groups.asm:$C$L2
    1378                      .dwattr $C$DW$126, DW_AT_TI_begin_file("../FreeRTOS/Source/event_groups.c")
    1379                      .dwattr $C$DW$126, DW_AT_TI_begin_line(0x26e)
    1380                      .dwattr $C$DW$126, DW_AT_TI_end_line(0x274)
    1381              $C$DW$127       .dwtag  DW_TAG_TI_loop_range
    1382                      .dwattr $C$DW$127, DW_AT_low_pc($C$DW$L$_vEventGroupDelete$2$B)
    1383                      .dwattr $C$DW$127, DW_AT_high_pc($C$DW$L$_vEventGroupDelete$2$E)
    1384                      .dwendtag $C$DW$126
    1385              
    1386                      .dwattr $C$DW$116, DW_AT_TI_end_file("../FreeRTOS/Source/event_groups.c")
    1387                      .dwattr $C$DW$116, DW_AT_TI_end_line(0x28c)
    1388                      .dwattr $C$DW$116, DW_AT_TI_end_column(0x01)
    1389                      .dwendentry
    1390                      .dwendtag $C$DW$116
    1391              
    1392 00038b               .sect   ".text"
    1393                      .align 4
    1394                      .global _vEventGroupSetBitsCallback
    1395              
    1396              $C$DW$128       .dwtag  DW_TAG_subprogram, DW_AT_name("vEventGroupSetBitsCallback")
    1397                      .dwattr $C$DW$128, DW_AT_low_pc(_vEventGroupSetBitsCallback)
    1398                      .dwattr $C$DW$128, DW_AT_high_pc(0x00)
    1399                      .dwattr $C$DW$128, DW_AT_TI_symbol_name("_vEventGroupSetBitsCallback")
    1400                      .dwattr $C$DW$128, DW_AT_external
    1401                      .dwattr $C$DW$128, DW_AT_TI_begin_file("../FreeRTOS/Source/event_groups.c")
    1402                      .dwattr $C$DW$128, DW_AT_TI_begin_line(0x291)
TMS320C55x Assembler PC v4.4.1 Sun Sep 09 04:48:34 2018

Tools Copyright (c) 1996-2012 Texas Instruments Incorporated
event_groups.asm                                                     PAGE   30

    1403                      .dwattr $C$DW$128, DW_AT_TI_begin_column(0x06)
    1404                      .dwattr $C$DW$128, DW_AT_TI_max_frame_size(0x06)
    1405                      .dwpsn  file "../FreeRTOS/Source/event_groups.c",line 658,column 1,is_stmt,address _vEventGroupSetBit
    1406              
    1407                      .dwfde $C$DW$CIE, _vEventGroupSetBitsCallback
    1408              $C$DW$129       .dwtag  DW_TAG_formal_parameter, DW_AT_name("pvEventGroup")
    1409                      .dwattr $C$DW$129, DW_AT_TI_symbol_name("_pvEventGroup")
    1410                      .dwattr $C$DW$129, DW_AT_type(*$C$DW$T$3)
    1411                      .dwattr $C$DW$129, DW_AT_location[DW_OP_reg17]
    1412              $C$DW$130       .dwtag  DW_TAG_formal_parameter, DW_AT_name("ulBitsToSet")
    1413                      .dwattr $C$DW$130, DW_AT_TI_symbol_name("_ulBitsToSet")
    1414                      .dwattr $C$DW$130, DW_AT_type(*$C$DW$T$59)
    1415                      .dwattr $C$DW$130, DW_AT_location[DW_OP_reg0]
    1416              ;*******************************************************************************
    1417              ;* FUNCTION NAME: vEventGroupSetBitsCallback                                   *
    1418              ;*                                                                             *
    1419              ;*   Function Uses Regs : AC0,AC0,T0,AR0,XAR0,SP,M40,SATA,SATD,RDM,FRCT,SMUL   *
    1420              ;*   Stack Frame        : Compact (No Frame Pointer, w/ debug)                 *
    1421              ;*   Total Frame Size   : 6 words                                              *
    1422              ;*                        (2 return address/alignment)                         *
    1423              ;*                        (4 local values)                                     *
    1424              ;*   Min System Stack   : 1 word                                               *
    1425              ;*******************************************************************************
    1426 00038c       _vEventGroupSetBitsCallback:
    1427                      .dwcfi  cfa_offset, 1
    1428                      .dwcfi  save_reg_to_mem, 91, -1
    1429 00038c 4EFB          AADD #-5, SP
    1430                      .dwcfi  cfa_offset, 6
    1431              $C$DW$131       .dwtag  DW_TAG_variable, DW_AT_name("pvEventGroup")
    1432                      .dwattr $C$DW$131, DW_AT_TI_symbol_name("_pvEventGroup")
    1433                      .dwattr $C$DW$131, DW_AT_type(*$C$DW$T$3)
    1434                      .dwattr $C$DW$131, DW_AT_location[DW_OP_bregx 0x24 0]
    1435              $C$DW$132       .dwtag  DW_TAG_variable, DW_AT_name("ulBitsToSet")
    1436                      .dwattr $C$DW$132, DW_AT_TI_symbol_name("_ulBitsToSet")
    1437                      .dwattr $C$DW$132, DW_AT_type(*$C$DW$T$59)
    1438                      .dwattr $C$DW$132, DW_AT_location[DW_OP_bregx 0x24 2]
    1439 00038e EB04          MOV AC0, dbl(*SP(#2)) ; |658| 
         000390 08   
    1440 000391 EB00          MOV XAR0, dbl(*SP(#0))
         000393 85   
    1441                      .dwpsn  file "../FreeRTOS/Source/event_groups.c",line 659,column 2,is_stmt
    1442 000394 A406          MOV *SP(#3), T0 ; |659| 
    1443              $C$DW$133       .dwtag  DW_TAG_TI_branch
    1444                      .dwattr $C$DW$133, DW_AT_low_pc(0x00)
    1445                      .dwattr $C$DW$133, DW_AT_name("_xEventGroupSetBits")
    1446                      .dwattr $C$DW$133, DW_AT_TI_call
    1447 000396 08FE          CALL #_xEventGroupSetBits ; |659| 
         000398 D3   
    1448                                                      ; call occurs [#_xEventGroupSetBits] ; |659| 
    1449                      .dwpsn  file "../FreeRTOS/Source/event_groups.c",line 660,column 1,is_stmt
    1450 000399 4E05          AADD #5, SP
    1451                      .dwcfi  cfa_offset, 1
    1452              $C$DW$134       .dwtag  DW_TAG_TI_branch
    1453                      .dwattr $C$DW$134, DW_AT_low_pc(0x00)
    1454                      .dwattr $C$DW$134, DW_AT_TI_return
TMS320C55x Assembler PC v4.4.1 Sun Sep 09 04:48:34 2018

Tools Copyright (c) 1996-2012 Texas Instruments Incorporated
event_groups.asm                                                     PAGE   31

    1455 00039b 4804          RET
    1456                                                      ; return occurs
    1457                      .dwattr $C$DW$128, DW_AT_TI_end_file("../FreeRTOS/Source/event_groups.c")
    1458                      .dwattr $C$DW$128, DW_AT_TI_end_line(0x294)
    1459                      .dwattr $C$DW$128, DW_AT_TI_end_column(0x01)
    1460                      .dwendentry
    1461                      .dwendtag $C$DW$128
    1462              
    1463 00039d               .sect   ".text"
    1464                      .align 4
    1465                      .global _vEventGroupClearBitsCallback
    1466              
    1467              $C$DW$135       .dwtag  DW_TAG_subprogram, DW_AT_name("vEventGroupClearBitsCallback")
    1468                      .dwattr $C$DW$135, DW_AT_low_pc(_vEventGroupClearBitsCallback)
    1469                      .dwattr $C$DW$135, DW_AT_high_pc(0x00)
    1470                      .dwattr $C$DW$135, DW_AT_TI_symbol_name("_vEventGroupClearBitsCallback")
    1471                      .dwattr $C$DW$135, DW_AT_external
    1472                      .dwattr $C$DW$135, DW_AT_TI_begin_file("../FreeRTOS/Source/event_groups.c")
    1473                      .dwattr $C$DW$135, DW_AT_TI_begin_line(0x299)
    1474                      .dwattr $C$DW$135, DW_AT_TI_begin_column(0x06)
    1475                      .dwattr $C$DW$135, DW_AT_TI_max_frame_size(0x06)
    1476                      .dwpsn  file "../FreeRTOS/Source/event_groups.c",line 666,column 1,is_stmt,address _vEventGroupClearB
    1477              
    1478                      .dwfde $C$DW$CIE, _vEventGroupClearBitsCallback
    1479              $C$DW$136       .dwtag  DW_TAG_formal_parameter, DW_AT_name("pvEventGroup")
    1480                      .dwattr $C$DW$136, DW_AT_TI_symbol_name("_pvEventGroup")
    1481                      .dwattr $C$DW$136, DW_AT_type(*$C$DW$T$3)
    1482                      .dwattr $C$DW$136, DW_AT_location[DW_OP_reg17]
    1483              $C$DW$137       .dwtag  DW_TAG_formal_parameter, DW_AT_name("ulBitsToClear")
    1484                      .dwattr $C$DW$137, DW_AT_TI_symbol_name("_ulBitsToClear")
    1485                      .dwattr $C$DW$137, DW_AT_type(*$C$DW$T$59)
    1486                      .dwattr $C$DW$137, DW_AT_location[DW_OP_reg0]
    1487              ;*******************************************************************************
    1488              ;* FUNCTION NAME: vEventGroupClearBitsCallback                                 *
    1489              ;*                                                                             *
    1490              ;*   Function Uses Regs : AC0,AC0,T0,AR0,XAR0,SP,M40,SATA,SATD,RDM,FRCT,SMUL   *
    1491              ;*   Stack Frame        : Compact (No Frame Pointer, w/ debug)                 *
    1492              ;*   Total Frame Size   : 6 words                                              *
    1493              ;*                        (2 return address/alignment)                         *
    1494              ;*                        (4 local values)                                     *
    1495              ;*   Min System Stack   : 1 word                                               *
    1496              ;*******************************************************************************
    1497 0003a0       _vEventGroupClearBitsCallback:
    1498                      .dwcfi  cfa_offset, 1
    1499                      .dwcfi  save_reg_to_mem, 91, -1
    1500 0003a0 4EFB          AADD #-5, SP
    1501                      .dwcfi  cfa_offset, 6
    1502              $C$DW$138       .dwtag  DW_TAG_variable, DW_AT_name("pvEventGroup")
    1503                      .dwattr $C$DW$138, DW_AT_TI_symbol_name("_pvEventGroup")
    1504                      .dwattr $C$DW$138, DW_AT_type(*$C$DW$T$3)
    1505                      .dwattr $C$DW$138, DW_AT_location[DW_OP_bregx 0x24 0]
    1506              $C$DW$139       .dwtag  DW_TAG_variable, DW_AT_name("ulBitsToClear")
    1507                      .dwattr $C$DW$139, DW_AT_TI_symbol_name("_ulBitsToClear")
    1508                      .dwattr $C$DW$139, DW_AT_type(*$C$DW$T$59)
    1509                      .dwattr $C$DW$139, DW_AT_location[DW_OP_bregx 0x24 2]
TMS320C55x Assembler PC v4.4.1 Sun Sep 09 04:48:34 2018

Tools Copyright (c) 1996-2012 Texas Instruments Incorporated
event_groups.asm                                                     PAGE   32

    1510 0003a2 EB04          MOV AC0, dbl(*SP(#2)) ; |666| 
         0003a4 08   
    1511 0003a5 EB00          MOV XAR0, dbl(*SP(#0))
         0003a7 85   
    1512                      .dwpsn  file "../FreeRTOS/Source/event_groups.c",line 667,column 2,is_stmt
    1513 0003a8 A406          MOV *SP(#3), T0 ; |667| 
    1514              $C$DW$140       .dwtag  DW_TAG_TI_branch
    1515                      .dwattr $C$DW$140, DW_AT_low_pc(0x00)
    1516                      .dwattr $C$DW$140, DW_AT_name("_xEventGroupClearBits")
    1517                      .dwattr $C$DW$140, DW_AT_TI_call
    1518 0003aa 08FE          CALL #_xEventGroupClearBits ; |667| 
         0003ac 57   
    1519                                                      ; call occurs [#_xEventGroupClearBits] ; |667| 
    1520                      .dwpsn  file "../FreeRTOS/Source/event_groups.c",line 668,column 1,is_stmt
    1521 0003ad 4E05          AADD #5, SP
    1522                      .dwcfi  cfa_offset, 1
    1523              $C$DW$141       .dwtag  DW_TAG_TI_branch
    1524                      .dwattr $C$DW$141, DW_AT_low_pc(0x00)
    1525                      .dwattr $C$DW$141, DW_AT_TI_return
    1526 0003af 4804          RET
    1527                                                      ; return occurs
    1528                      .dwattr $C$DW$135, DW_AT_TI_end_file("../FreeRTOS/Source/event_groups.c")
    1529                      .dwattr $C$DW$135, DW_AT_TI_end_line(0x29c)
    1530                      .dwattr $C$DW$135, DW_AT_TI_end_column(0x01)
    1531                      .dwendentry
    1532                      .dwendtag $C$DW$135
    1533              
    1534 0003b1               .sect   ".text"
    1535                      .align 4
    1536              
    1537              $C$DW$142       .dwtag  DW_TAG_subprogram, DW_AT_name("prvTestWaitCondition")
    1538                      .dwattr $C$DW$142, DW_AT_low_pc(_prvTestWaitCondition)
    1539                      .dwattr $C$DW$142, DW_AT_high_pc(0x00)
    1540                      .dwattr $C$DW$142, DW_AT_TI_symbol_name("_prvTestWaitCondition")
    1541                      .dwattr $C$DW$142, DW_AT_type(*$C$DW$T$61)
    1542                      .dwattr $C$DW$142, DW_AT_TI_begin_file("../FreeRTOS/Source/event_groups.c")
    1543                      .dwattr $C$DW$142, DW_AT_TI_begin_line(0x29f)
    1544                      .dwattr $C$DW$142, DW_AT_TI_begin_column(0x13)
    1545                      .dwattr $C$DW$142, DW_AT_TI_max_frame_size(0x06)
    1546                      .dwpsn  file "../FreeRTOS/Source/event_groups.c",line 672,column 1,is_stmt,address _prvTestWaitCondit
    1547              
    1548                      .dwfde $C$DW$CIE, _prvTestWaitCondition
    1549              $C$DW$143       .dwtag  DW_TAG_formal_parameter, DW_AT_name("uxCurrentEventBits")
    1550                      .dwattr $C$DW$143, DW_AT_TI_symbol_name("_uxCurrentEventBits")
    1551                      .dwattr $C$DW$143, DW_AT_type(*$C$DW$T$65)
    1552                      .dwattr $C$DW$143, DW_AT_location[DW_OP_reg12]
    1553              $C$DW$144       .dwtag  DW_TAG_formal_parameter, DW_AT_name("uxBitsToWaitFor")
    1554                      .dwattr $C$DW$144, DW_AT_TI_symbol_name("_uxBitsToWaitFor")
    1555                      .dwattr $C$DW$144, DW_AT_type(*$C$DW$T$65)
    1556                      .dwattr $C$DW$144, DW_AT_location[DW_OP_reg13]
    1557              $C$DW$145       .dwtag  DW_TAG_formal_parameter, DW_AT_name("xWaitForAllBits")
    1558                      .dwattr $C$DW$145, DW_AT_TI_symbol_name("_xWaitForAllBits")
    1559                      .dwattr $C$DW$145, DW_AT_type(*$C$DW$T$62)
    1560                      .dwattr $C$DW$145, DW_AT_location[DW_OP_reg16]
    1561              ;*******************************************************************************
TMS320C55x Assembler PC v4.4.1 Sun Sep 09 04:48:34 2018

Tools Copyright (c) 1996-2012 Texas Instruments Incorporated
event_groups.asm                                                     PAGE   33

    1562              ;* FUNCTION NAME: prvTestWaitCondition                                         *
    1563              ;*                                                                             *
    1564              ;*   Function Uses Regs : T0,T1,AR0,AR1,AR2,SP,TC1,M40,SATA,SATD,RDM,FRCT,SMUL *
    1565              ;*   Stack Frame        : Compact (No Frame Pointer, w/ debug)                 *
    1566              ;*   Total Frame Size   : 6 words                                              *
    1567              ;*                        (2 return address/alignment)                         *
    1568              ;*                        (4 local values)                                     *
    1569              ;*   Min System Stack   : 1 word                                               *
    1570              ;*******************************************************************************
    1571 0003b4       _prvTestWaitCondition:
    1572                      .dwcfi  cfa_offset, 1
    1573                      .dwcfi  save_reg_to_mem, 91, -1
    1574 0003b4 4EFB          AADD #-5, SP
    1575                      .dwcfi  cfa_offset, 6
    1576              $C$DW$146       .dwtag  DW_TAG_variable, DW_AT_name("uxCurrentEventBits")
    1577                      .dwattr $C$DW$146, DW_AT_TI_symbol_name("_uxCurrentEventBits")
    1578                      .dwattr $C$DW$146, DW_AT_type(*$C$DW$T$65)
    1579                      .dwattr $C$DW$146, DW_AT_location[DW_OP_bregx 0x24 0]
    1580              $C$DW$147       .dwtag  DW_TAG_variable, DW_AT_name("uxBitsToWaitFor")
    1581                      .dwattr $C$DW$147, DW_AT_TI_symbol_name("_uxBitsToWaitFor")
    1582                      .dwattr $C$DW$147, DW_AT_type(*$C$DW$T$65)
    1583                      .dwattr $C$DW$147, DW_AT_location[DW_OP_bregx 0x24 1]
    1584              $C$DW$148       .dwtag  DW_TAG_variable, DW_AT_name("xWaitForAllBits")
    1585                      .dwattr $C$DW$148, DW_AT_TI_symbol_name("_xWaitForAllBits")
    1586                      .dwattr $C$DW$148, DW_AT_type(*$C$DW$T$62)
    1587                      .dwattr $C$DW$148, DW_AT_location[DW_OP_bregx 0x24 2]
    1588              $C$DW$149       .dwtag  DW_TAG_variable, DW_AT_name("xWaitConditionMet")
    1589                      .dwattr $C$DW$149, DW_AT_TI_symbol_name("_xWaitConditionMet")
    1590                      .dwattr $C$DW$149, DW_AT_type(*$C$DW$T$61)
    1591                      .dwattr $C$DW$149, DW_AT_location[DW_OP_bregx 0x24 3]
    1592 0003b6 C804          MOV AR0, *SP(#2) ; |672| 
    1593 0003b8 C502          MOV T1, *SP(#1) ; |672| 
    1594 0003ba C400          MOV T0, *SP(#0) ; |672| 
    1595                      .dwpsn  file "../FreeRTOS/Source/event_groups.c",line 673,column 12,is_stmt
    1596 0003bc E606          MOV #0, *SP(#3) ; |673| 
         0003be 00   
    1597                      .dwpsn  file "../FreeRTOS/Source/event_groups.c",line 675,column 2,is_stmt
    1598 0003bf A904          MOV *SP(#2), AR1 ; |675| 
    1599 0003c1 6699          BCC $C$L28,AR1 != #0 ; |675| 
    1600                                                      ; branchcc occurs ; |675| 
    1601                      .dwpsn  file "../FreeRTOS/Source/event_groups.c",line 679,column 3,is_stmt
    1602 0003c3 A902          MOV *SP(#1), AR1 ; |679| 
    1603 0003c5 D900          AND *SP(#0), AR1, AR1 ; |679| 
         0003c7 99   
    1604 0003c8 0409          BCC $C$L29,AR1 == #0 ; |679| 
         0003ca 14   
    1605                                                      ; branchcc occurs ; |679| 
    1606                      .dwpsn  file "../FreeRTOS/Source/event_groups.c",line 681,column 4,is_stmt
    1607 0003cb E606          MOV #1, *SP(#3) ; |681| 
         0003cd 01   
    1608                      .dwpsn  file "../FreeRTOS/Source/event_groups.c",line 682,column 3,is_stmt
    1609 0003ce 4A0F          B $C$L29  ; |682| 
    1610                                                      ; branch occurs ; |682| 
    1611 0003d0       $C$L28:    
    1612                      .dwpsn  file "../FreeRTOS/Source/event_groups.c",line 692,column 3,is_stmt
TMS320C55x Assembler PC v4.4.1 Sun Sep 09 04:48:34 2018

Tools Copyright (c) 1996-2012 Texas Instruments Incorporated
event_groups.asm                                                     PAGE   34

    1613 0003d0 A902          MOV *SP(#1), AR1 ; |692| 
    1614 0003d2 229A          MOV AR1, AR2 ; |692| 
    1615 0003d4 D900          AND *SP(#0), AR2, AR2 ; |692| 
         0003d6 AA   
    1616 0003d7 12AC          CMPU AR2 != AR1, TC1 ; |692| 
         0003d9 94   
    1617 0003da 61E4          BCC $C$L29,TC1 ; |692| 
    1618                                                      ; branchcc occurs ; |692| 
    1619                      .dwpsn  file "../FreeRTOS/Source/event_groups.c",line 694,column 4,is_stmt
    1620 0003dc E606          MOV #1, *SP(#3) ; |694| 
         0003de 01   
    1621                      .dwpsn  file "../FreeRTOS/Source/event_groups.c",line 695,column 3,is_stmt
    1622 0003df       $C$L29:    
    1623                      .dwpsn  file "../FreeRTOS/Source/event_groups.c",line 702,column 2,is_stmt
    1624 0003df A406          MOV *SP(#3), T0 ; |702| 
    1625                      .dwpsn  file "../FreeRTOS/Source/event_groups.c",line 703,column 1,is_stmt
    1626 0003e1 4E05          AADD #5, SP
    1627                      .dwcfi  cfa_offset, 1
    1628              $C$DW$150       .dwtag  DW_TAG_TI_branch
    1629                      .dwattr $C$DW$150, DW_AT_low_pc(0x00)
    1630                      .dwattr $C$DW$150, DW_AT_TI_return
    1631 0003e3 4804          RET
    1632                                                      ; return occurs
    1633                      .dwattr $C$DW$142, DW_AT_TI_end_file("../FreeRTOS/Source/event_groups.c")
    1634                      .dwattr $C$DW$142, DW_AT_TI_end_line(0x2bf)
    1635                      .dwattr $C$DW$142, DW_AT_TI_end_column(0x01)
    1636                      .dwendentry
    1637                      .dwendtag $C$DW$142
    1638              
    1639              ;******************************************************************************
    1640              ;* UNDEFINED EXTERNAL REFERENCES                                              *
    1641              ;******************************************************************************
    1642                      .global _vPortYield
    1643                      .global _pvPortMalloc
    1644                      .global _vPortFree
    1645                      .global _vListInitialise
    1646                      .global _vTaskSuspendAll
    1647                      .global _xTaskResumeAll
    1648                      .global _vTaskPlaceOnUnorderedEventList
    1649                      .global _vTaskRemoveFromUnorderedEventList
    1650                      .global _uxTaskResetEventItemValue
    1651                      .global _usCriticalNesting
    1652              
    1653              ;*******************************************************************************
    1654              ;* TYPE INFORMATION                                                            *
    1655              ;*******************************************************************************
    1656              
    1657              $C$DW$T$22      .dwtag  DW_TAG_structure_type
    1658                      .dwattr $C$DW$T$22, DW_AT_name("EventGroupDef_t")
    1659                      .dwattr $C$DW$T$22, DW_AT_byte_size(0x0c)
    1660              $C$DW$151       .dwtag  DW_TAG_member
    1661                      .dwattr $C$DW$151, DW_AT_type(*$C$DW$T$20)
    1662                      .dwattr $C$DW$151, DW_AT_name("uxEventBits")
    1663                      .dwattr $C$DW$151, DW_AT_TI_symbol_name("_uxEventBits")
    1664                      .dwattr $C$DW$151, DW_AT_data_member_location[DW_OP_plus_uconst 0x0]
TMS320C55x Assembler PC v4.4.1 Sun Sep 09 04:48:34 2018

Tools Copyright (c) 1996-2012 Texas Instruments Incorporated
event_groups.asm                                                     PAGE   35

    1665                      .dwattr $C$DW$151, DW_AT_accessibility(DW_ACCESS_public)
    1666              $C$DW$152       .dwtag  DW_TAG_member
    1667                      .dwattr $C$DW$152, DW_AT_type(*$C$DW$T$21)
    1668                      .dwattr $C$DW$152, DW_AT_name("xTasksWaitingForBits")
    1669                      .dwattr $C$DW$152, DW_AT_TI_symbol_name("_xTasksWaitingForBits")
    1670                      .dwattr $C$DW$152, DW_AT_data_member_location[DW_OP_plus_uconst 0x2]
    1671                      .dwattr $C$DW$152, DW_AT_accessibility(DW_ACCESS_public)
    1672                      .dwendtag $C$DW$T$22
    1673              
    1674              $C$DW$T$33      .dwtag  DW_TAG_typedef, DW_AT_name("EventGroup_t")
    1675                      .dwattr $C$DW$T$33, DW_AT_type(*$C$DW$T$22)
    1676                      .dwattr $C$DW$T$33, DW_AT_language(DW_LANG_C)
    1677              $C$DW$153       .dwtag  DW_TAG_TI_far_type
    1678                      .dwattr $C$DW$153, DW_AT_type(*$C$DW$T$33)
    1679              $C$DW$T$34      .dwtag  DW_TAG_const_type
    1680                      .dwattr $C$DW$T$34, DW_AT_type(*$C$DW$153)
    1681              $C$DW$T$35      .dwtag  DW_TAG_pointer_type
    1682                      .dwattr $C$DW$T$35, DW_AT_type(*$C$DW$T$34)
    1683                      .dwattr $C$DW$T$35, DW_AT_address_class(0x17)
    1684              $C$DW$154       .dwtag  DW_TAG_TI_far_type
    1685                      .dwattr $C$DW$154, DW_AT_type(*$C$DW$T$35)
    1686              $C$DW$T$36      .dwtag  DW_TAG_const_type
    1687                      .dwattr $C$DW$T$36, DW_AT_type(*$C$DW$154)
    1688              $C$DW$T$37      .dwtag  DW_TAG_pointer_type
    1689                      .dwattr $C$DW$T$37, DW_AT_type(*$C$DW$T$33)
    1690                      .dwattr $C$DW$T$37, DW_AT_address_class(0x17)
    1691              $C$DW$T$38      .dwtag  DW_TAG_pointer_type
    1692                      .dwattr $C$DW$T$38, DW_AT_type(*$C$DW$T$22)
    1693                      .dwattr $C$DW$T$38, DW_AT_address_class(0x17)
    1694              $C$DW$T$39      .dwtag  DW_TAG_typedef, DW_AT_name("EventGroupHandle_t")
    1695                      .dwattr $C$DW$T$39, DW_AT_type(*$C$DW$T$38)
    1696                      .dwattr $C$DW$T$39, DW_AT_language(DW_LANG_C)
    1697              $C$DW$T$3       .dwtag  DW_TAG_pointer_type
    1698                      .dwattr $C$DW$T$3, DW_AT_address_class(0x17)
    1699              $C$DW$T$4       .dwtag  DW_TAG_base_type
    1700                      .dwattr $C$DW$T$4, DW_AT_encoding(DW_ATE_boolean)
    1701                      .dwattr $C$DW$T$4, DW_AT_name("bool")
    1702                      .dwattr $C$DW$T$4, DW_AT_byte_size(0x01)
    1703              $C$DW$T$5       .dwtag  DW_TAG_base_type
    1704                      .dwattr $C$DW$T$5, DW_AT_encoding(DW_ATE_signed_char)
    1705                      .dwattr $C$DW$T$5, DW_AT_name("signed char")
    1706                      .dwattr $C$DW$T$5, DW_AT_byte_size(0x01)
    1707              $C$DW$T$6       .dwtag  DW_TAG_base_type
    1708                      .dwattr $C$DW$T$6, DW_AT_encoding(DW_ATE_unsigned_char)
    1709                      .dwattr $C$DW$T$6, DW_AT_name("unsigned char")
    1710                      .dwattr $C$DW$T$6, DW_AT_byte_size(0x01)
    1711              $C$DW$T$7       .dwtag  DW_TAG_base_type
    1712                      .dwattr $C$DW$T$7, DW_AT_encoding(DW_ATE_signed_char)
    1713                      .dwattr $C$DW$T$7, DW_AT_name("wchar_t")
    1714                      .dwattr $C$DW$T$7, DW_AT_byte_size(0x01)
    1715              $C$DW$T$8       .dwtag  DW_TAG_base_type
    1716                      .dwattr $C$DW$T$8, DW_AT_encoding(DW_ATE_signed)
    1717                      .dwattr $C$DW$T$8, DW_AT_name("short")
    1718                      .dwattr $C$DW$T$8, DW_AT_byte_size(0x01)
    1719              $C$DW$T$61      .dwtag  DW_TAG_typedef, DW_AT_name("BaseType_t")
TMS320C55x Assembler PC v4.4.1 Sun Sep 09 04:48:34 2018

Tools Copyright (c) 1996-2012 Texas Instruments Incorporated
event_groups.asm                                                     PAGE   36

    1720                      .dwattr $C$DW$T$61, DW_AT_type(*$C$DW$T$8)
    1721                      .dwattr $C$DW$T$61, DW_AT_language(DW_LANG_C)
    1722              $C$DW$155       .dwtag  DW_TAG_TI_far_type
    1723                      .dwattr $C$DW$155, DW_AT_type(*$C$DW$T$61)
    1724              $C$DW$T$62      .dwtag  DW_TAG_const_type
    1725                      .dwattr $C$DW$T$62, DW_AT_type(*$C$DW$155)
    1726              $C$DW$T$9       .dwtag  DW_TAG_base_type
    1727                      .dwattr $C$DW$T$9, DW_AT_encoding(DW_ATE_unsigned)
    1728                      .dwattr $C$DW$T$9, DW_AT_name("unsigned short")
    1729                      .dwattr $C$DW$T$9, DW_AT_byte_size(0x01)
    1730              $C$DW$T$23      .dwtag  DW_TAG_typedef, DW_AT_name("UBaseType_t")
    1731                      .dwattr $C$DW$T$23, DW_AT_type(*$C$DW$T$9)
    1732                      .dwattr $C$DW$T$23, DW_AT_language(DW_LANG_C)
    1733              $C$DW$156       .dwtag  DW_TAG_TI_far_type
    1734                      .dwattr $C$DW$156, DW_AT_type(*$C$DW$T$23)
    1735              $C$DW$T$24      .dwtag  DW_TAG_volatile_type
    1736                      .dwattr $C$DW$T$24, DW_AT_type(*$C$DW$156)
    1737              $C$DW$T$10      .dwtag  DW_TAG_base_type
    1738                      .dwattr $C$DW$T$10, DW_AT_encoding(DW_ATE_signed)
    1739                      .dwattr $C$DW$T$10, DW_AT_name("int")
    1740                      .dwattr $C$DW$T$10, DW_AT_byte_size(0x01)
    1741              $C$DW$T$11      .dwtag  DW_TAG_base_type
    1742                      .dwattr $C$DW$T$11, DW_AT_encoding(DW_ATE_unsigned)
    1743                      .dwattr $C$DW$T$11, DW_AT_name("unsigned int")
    1744                      .dwattr $C$DW$T$11, DW_AT_byte_size(0x01)
    1745              $C$DW$T$19      .dwtag  DW_TAG_typedef, DW_AT_name("TickType_t")
    1746                      .dwattr $C$DW$T$19, DW_AT_type(*$C$DW$T$11)
    1747                      .dwattr $C$DW$T$19, DW_AT_language(DW_LANG_C)
    1748              $C$DW$T$20      .dwtag  DW_TAG_typedef, DW_AT_name("EventBits_t")
    1749                      .dwattr $C$DW$T$20, DW_AT_type(*$C$DW$T$19)
    1750                      .dwattr $C$DW$T$20, DW_AT_language(DW_LANG_C)
    1751              $C$DW$157       .dwtag  DW_TAG_TI_far_type
    1752                      .dwattr $C$DW$157, DW_AT_type(*$C$DW$T$20)
    1753              $C$DW$T$65      .dwtag  DW_TAG_const_type
    1754                      .dwattr $C$DW$T$65, DW_AT_type(*$C$DW$157)
    1755              $C$DW$158       .dwtag  DW_TAG_TI_far_type
    1756                      .dwattr $C$DW$158, DW_AT_type(*$C$DW$T$19)
    1757              $C$DW$T$52      .dwtag  DW_TAG_const_type
    1758                      .dwattr $C$DW$T$52, DW_AT_type(*$C$DW$158)
    1759              $C$DW$159       .dwtag  DW_TAG_TI_far_type
    1760                      .dwattr $C$DW$159, DW_AT_type(*$C$DW$T$11)
    1761              $C$DW$T$76      .dwtag  DW_TAG_volatile_type
    1762                      .dwattr $C$DW$T$76, DW_AT_type(*$C$DW$159)
    1763              $C$DW$T$41      .dwtag  DW_TAG_typedef, DW_AT_name("size_t")
    1764                      .dwattr $C$DW$T$41, DW_AT_type(*$C$DW$T$11)
    1765                      .dwattr $C$DW$T$41, DW_AT_language(DW_LANG_C)
    1766              $C$DW$T$12      .dwtag  DW_TAG_base_type
    1767                      .dwattr $C$DW$T$12, DW_AT_encoding(DW_ATE_signed)
    1768                      .dwattr $C$DW$T$12, DW_AT_name("long")
    1769                      .dwattr $C$DW$T$12, DW_AT_byte_size(0x02)
    1770              $C$DW$T$13      .dwtag  DW_TAG_base_type
    1771                      .dwattr $C$DW$T$13, DW_AT_encoding(DW_ATE_unsigned)
    1772                      .dwattr $C$DW$T$13, DW_AT_name("unsigned long")
    1773                      .dwattr $C$DW$T$13, DW_AT_byte_size(0x02)
    1774              $C$DW$T$58      .dwtag  DW_TAG_typedef, DW_AT_name("uint32_t")
TMS320C55x Assembler PC v4.4.1 Sun Sep 09 04:48:34 2018

Tools Copyright (c) 1996-2012 Texas Instruments Incorporated
event_groups.asm                                                     PAGE   37

    1775                      .dwattr $C$DW$T$58, DW_AT_type(*$C$DW$T$13)
    1776                      .dwattr $C$DW$T$58, DW_AT_language(DW_LANG_C)
    1777              $C$DW$160       .dwtag  DW_TAG_TI_far_type
    1778                      .dwattr $C$DW$160, DW_AT_type(*$C$DW$T$58)
    1779              $C$DW$T$59      .dwtag  DW_TAG_const_type
    1780                      .dwattr $C$DW$T$59, DW_AT_type(*$C$DW$160)
    1781              $C$DW$T$14      .dwtag  DW_TAG_base_type
    1782                      .dwattr $C$DW$T$14, DW_AT_encoding(DW_ATE_signed)
    1783                      .dwattr $C$DW$T$14, DW_AT_name("long long")
    1784                      .dwattr $C$DW$T$14, DW_AT_byte_size(0x04)
    1785                      .dwattr $C$DW$T$14, DW_AT_bit_size(0x28)
    1786                      .dwattr $C$DW$T$14, DW_AT_bit_offset(0x18)
    1787              $C$DW$T$15      .dwtag  DW_TAG_base_type
    1788                      .dwattr $C$DW$T$15, DW_AT_encoding(DW_ATE_unsigned)
    1789                      .dwattr $C$DW$T$15, DW_AT_name("unsigned long long")
    1790                      .dwattr $C$DW$T$15, DW_AT_byte_size(0x04)
    1791                      .dwattr $C$DW$T$15, DW_AT_bit_size(0x28)
    1792                      .dwattr $C$DW$T$15, DW_AT_bit_offset(0x18)
    1793              $C$DW$T$16      .dwtag  DW_TAG_base_type
    1794                      .dwattr $C$DW$T$16, DW_AT_encoding(DW_ATE_float)
    1795                      .dwattr $C$DW$T$16, DW_AT_name("float")
    1796                      .dwattr $C$DW$T$16, DW_AT_byte_size(0x02)
    1797              $C$DW$T$17      .dwtag  DW_TAG_base_type
    1798                      .dwattr $C$DW$T$17, DW_AT_encoding(DW_ATE_float)
    1799                      .dwattr $C$DW$T$17, DW_AT_name("double")
    1800                      .dwattr $C$DW$T$17, DW_AT_byte_size(0x02)
    1801              $C$DW$T$18      .dwtag  DW_TAG_base_type
    1802                      .dwattr $C$DW$T$18, DW_AT_encoding(DW_ATE_float)
    1803                      .dwattr $C$DW$T$18, DW_AT_name("long double")
    1804                      .dwattr $C$DW$T$18, DW_AT_byte_size(0x02)
    1805              
    1806              $C$DW$T$28      .dwtag  DW_TAG_structure_type
    1807                      .dwattr $C$DW$T$28, DW_AT_name("xLIST")
    1808                      .dwattr $C$DW$T$28, DW_AT_byte_size(0x0a)
    1809              $C$DW$161       .dwtag  DW_TAG_member
    1810                      .dwattr $C$DW$161, DW_AT_type(*$C$DW$T$24)
    1811                      .dwattr $C$DW$161, DW_AT_name("uxNumberOfItems")
    1812                      .dwattr $C$DW$161, DW_AT_TI_symbol_name("_uxNumberOfItems")
    1813                      .dwattr $C$DW$161, DW_AT_data_member_location[DW_OP_plus_uconst 0x0]
    1814                      .dwattr $C$DW$161, DW_AT_accessibility(DW_ACCESS_public)
    1815              $C$DW$162       .dwtag  DW_TAG_member
    1816                      .dwattr $C$DW$162, DW_AT_type(*$C$DW$T$26)
    1817                      .dwattr $C$DW$162, DW_AT_name("pxIndex")
    1818                      .dwattr $C$DW$162, DW_AT_TI_symbol_name("_pxIndex")
    1819                      .dwattr $C$DW$162, DW_AT_data_member_location[DW_OP_plus_uconst 0x2]
    1820                      .dwattr $C$DW$162, DW_AT_accessibility(DW_ACCESS_public)
    1821              $C$DW$163       .dwtag  DW_TAG_member
    1822                      .dwattr $C$DW$163, DW_AT_type(*$C$DW$T$27)
    1823                      .dwattr $C$DW$163, DW_AT_name("xListEnd")
    1824                      .dwattr $C$DW$163, DW_AT_TI_symbol_name("_xListEnd")
    1825                      .dwattr $C$DW$163, DW_AT_data_member_location[DW_OP_plus_uconst 0x4]
    1826                      .dwattr $C$DW$163, DW_AT_accessibility(DW_ACCESS_public)
    1827                      .dwendtag $C$DW$T$28
    1828              
    1829              $C$DW$T$21      .dwtag  DW_TAG_typedef, DW_AT_name("List_t")
TMS320C55x Assembler PC v4.4.1 Sun Sep 09 04:48:34 2018

Tools Copyright (c) 1996-2012 Texas Instruments Incorporated
event_groups.asm                                                     PAGE   38

    1830                      .dwattr $C$DW$T$21, DW_AT_type(*$C$DW$T$28)
    1831                      .dwattr $C$DW$T$21, DW_AT_language(DW_LANG_C)
    1832              $C$DW$164       .dwtag  DW_TAG_TI_far_type
    1833                      .dwattr $C$DW$164, DW_AT_type(*$C$DW$T$21)
    1834              $C$DW$T$77      .dwtag  DW_TAG_const_type
    1835                      .dwattr $C$DW$T$77, DW_AT_type(*$C$DW$164)
    1836              $C$DW$T$78      .dwtag  DW_TAG_pointer_type
    1837                      .dwattr $C$DW$T$78, DW_AT_type(*$C$DW$T$77)
    1838                      .dwattr $C$DW$T$78, DW_AT_address_class(0x17)
    1839              $C$DW$T$48      .dwtag  DW_TAG_pointer_type
    1840                      .dwattr $C$DW$T$48, DW_AT_type(*$C$DW$T$21)
    1841                      .dwattr $C$DW$T$48, DW_AT_address_class(0x17)
    1842              $C$DW$165       .dwtag  DW_TAG_TI_far_type
    1843                      .dwattr $C$DW$165, DW_AT_type(*$C$DW$T$48)
    1844              $C$DW$T$49      .dwtag  DW_TAG_const_type
    1845                      .dwattr $C$DW$T$49, DW_AT_type(*$C$DW$165)
    1846              $C$DW$T$30      .dwtag  DW_TAG_pointer_type
    1847                      .dwattr $C$DW$T$30, DW_AT_type(*$C$DW$T$28)
    1848                      .dwattr $C$DW$T$30, DW_AT_address_class(0x17)
    1849              
    1850              $C$DW$T$31      .dwtag  DW_TAG_structure_type
    1851                      .dwattr $C$DW$T$31, DW_AT_name("xLIST_ITEM")
    1852                      .dwattr $C$DW$T$31, DW_AT_byte_size(0x0a)
    1853              $C$DW$166       .dwtag  DW_TAG_member
    1854                      .dwattr $C$DW$166, DW_AT_type(*$C$DW$T$19)
    1855                      .dwattr $C$DW$166, DW_AT_name("xItemValue")
    1856                      .dwattr $C$DW$166, DW_AT_TI_symbol_name("_xItemValue")
    1857                      .dwattr $C$DW$166, DW_AT_data_member_location[DW_OP_plus_uconst 0x0]
    1858                      .dwattr $C$DW$166, DW_AT_accessibility(DW_ACCESS_public)
    1859              $C$DW$167       .dwtag  DW_TAG_member
    1860                      .dwattr $C$DW$167, DW_AT_type(*$C$DW$T$29)
    1861                      .dwattr $C$DW$167, DW_AT_name("pxNext")
    1862                      .dwattr $C$DW$167, DW_AT_TI_symbol_name("_pxNext")
    1863                      .dwattr $C$DW$167, DW_AT_data_member_location[DW_OP_plus_uconst 0x2]
    1864                      .dwattr $C$DW$167, DW_AT_accessibility(DW_ACCESS_public)
    1865              $C$DW$168       .dwtag  DW_TAG_member
    1866                      .dwattr $C$DW$168, DW_AT_type(*$C$DW$T$29)
    1867                      .dwattr $C$DW$168, DW_AT_name("pxPrevious")
    1868                      .dwattr $C$DW$168, DW_AT_TI_symbol_name("_pxPrevious")
    1869                      .dwattr $C$DW$168, DW_AT_data_member_location[DW_OP_plus_uconst 0x4]
    1870                      .dwattr $C$DW$168, DW_AT_accessibility(DW_ACCESS_public)
    1871              $C$DW$169       .dwtag  DW_TAG_member
    1872                      .dwattr $C$DW$169, DW_AT_type(*$C$DW$T$3)
    1873                      .dwattr $C$DW$169, DW_AT_name("pvOwner")
    1874                      .dwattr $C$DW$169, DW_AT_TI_symbol_name("_pvOwner")
    1875                      .dwattr $C$DW$169, DW_AT_data_member_location[DW_OP_plus_uconst 0x6]
    1876                      .dwattr $C$DW$169, DW_AT_accessibility(DW_ACCESS_public)
    1877              $C$DW$170       .dwtag  DW_TAG_member
    1878                      .dwattr $C$DW$170, DW_AT_type(*$C$DW$T$30)
    1879                      .dwattr $C$DW$170, DW_AT_name("pvContainer")
    1880                      .dwattr $C$DW$170, DW_AT_TI_symbol_name("_pvContainer")
    1881                      .dwattr $C$DW$170, DW_AT_data_member_location[DW_OP_plus_uconst 0x8]
    1882                      .dwattr $C$DW$170, DW_AT_accessibility(DW_ACCESS_public)
    1883                      .dwendtag $C$DW$T$31
    1884              
TMS320C55x Assembler PC v4.4.1 Sun Sep 09 04:48:34 2018

Tools Copyright (c) 1996-2012 Texas Instruments Incorporated
event_groups.asm                                                     PAGE   39

    1885              $C$DW$T$25      .dwtag  DW_TAG_typedef, DW_AT_name("ListItem_t")
    1886                      .dwattr $C$DW$T$25, DW_AT_type(*$C$DW$T$31)
    1887                      .dwattr $C$DW$T$25, DW_AT_language(DW_LANG_C)
    1888              $C$DW$171       .dwtag  DW_TAG_TI_far_type
    1889                      .dwattr $C$DW$171, DW_AT_type(*$C$DW$T$25)
    1890              $C$DW$T$79      .dwtag  DW_TAG_const_type
    1891                      .dwattr $C$DW$T$79, DW_AT_type(*$C$DW$171)
    1892              $C$DW$T$80      .dwtag  DW_TAG_pointer_type
    1893                      .dwattr $C$DW$T$80, DW_AT_type(*$C$DW$T$79)
    1894                      .dwattr $C$DW$T$80, DW_AT_address_class(0x17)
    1895              $C$DW$T$26      .dwtag  DW_TAG_pointer_type
    1896                      .dwattr $C$DW$T$26, DW_AT_type(*$C$DW$T$25)
    1897                      .dwattr $C$DW$T$26, DW_AT_address_class(0x17)
    1898              $C$DW$T$29      .dwtag  DW_TAG_pointer_type
    1899                      .dwattr $C$DW$T$29, DW_AT_type(*$C$DW$T$31)
    1900                      .dwattr $C$DW$T$29, DW_AT_address_class(0x17)
    1901              
    1902              $C$DW$T$32      .dwtag  DW_TAG_structure_type
    1903                      .dwattr $C$DW$T$32, DW_AT_name("xMINI_LIST_ITEM")
    1904                      .dwattr $C$DW$T$32, DW_AT_byte_size(0x06)
    1905              $C$DW$172       .dwtag  DW_TAG_member
    1906                      .dwattr $C$DW$172, DW_AT_type(*$C$DW$T$19)
    1907                      .dwattr $C$DW$172, DW_AT_name("xItemValue")
    1908                      .dwattr $C$DW$172, DW_AT_TI_symbol_name("_xItemValue")
    1909                      .dwattr $C$DW$172, DW_AT_data_member_location[DW_OP_plus_uconst 0x0]
    1910                      .dwattr $C$DW$172, DW_AT_accessibility(DW_ACCESS_public)
    1911              $C$DW$173       .dwtag  DW_TAG_member
    1912                      .dwattr $C$DW$173, DW_AT_type(*$C$DW$T$29)
    1913                      .dwattr $C$DW$173, DW_AT_name("pxNext")
    1914                      .dwattr $C$DW$173, DW_AT_TI_symbol_name("_pxNext")
    1915                      .dwattr $C$DW$173, DW_AT_data_member_location[DW_OP_plus_uconst 0x2]
    1916                      .dwattr $C$DW$173, DW_AT_accessibility(DW_ACCESS_public)
    1917              $C$DW$174       .dwtag  DW_TAG_member
    1918                      .dwattr $C$DW$174, DW_AT_type(*$C$DW$T$29)
    1919                      .dwattr $C$DW$174, DW_AT_name("pxPrevious")
    1920                      .dwattr $C$DW$174, DW_AT_TI_symbol_name("_pxPrevious")
    1921                      .dwattr $C$DW$174, DW_AT_data_member_location[DW_OP_plus_uconst 0x4]
    1922                      .dwattr $C$DW$174, DW_AT_accessibility(DW_ACCESS_public)
    1923                      .dwendtag $C$DW$T$32
    1924              
    1925              $C$DW$T$27      .dwtag  DW_TAG_typedef, DW_AT_name("MiniListItem_t")
    1926                      .dwattr $C$DW$T$27, DW_AT_type(*$C$DW$T$32)
    1927                      .dwattr $C$DW$T$27, DW_AT_language(DW_LANG_C)
    1928                      .dwattr $C$DW$CU, DW_AT_language(DW_LANG_C)
    1929              
    1930              ;***************************************************************
    1931              ;* DWARF CIE ENTRIES                                           *
    1932              ;***************************************************************
    1933              
    1934              $C$DW$CIE       .dwcie 91
    1935                      .dwcfi  cfa_register, 36
    1936                      .dwcfi  cfa_offset, 0
    1937                      .dwcfi  undefined, 0
    1938                      .dwcfi  undefined, 1
    1939                      .dwcfi  undefined, 2
TMS320C55x Assembler PC v4.4.1 Sun Sep 09 04:48:34 2018

Tools Copyright (c) 1996-2012 Texas Instruments Incorporated
event_groups.asm                                                     PAGE   40

    1940                      .dwcfi  undefined, 3
    1941                      .dwcfi  undefined, 4
    1942                      .dwcfi  undefined, 5
    1943                      .dwcfi  undefined, 6
    1944                      .dwcfi  undefined, 7
    1945                      .dwcfi  undefined, 8
    1946                      .dwcfi  undefined, 9
    1947                      .dwcfi  undefined, 10
    1948                      .dwcfi  undefined, 11
    1949                      .dwcfi  undefined, 12
    1950                      .dwcfi  undefined, 13
    1951                      .dwcfi  same_value, 14
    1952                      .dwcfi  same_value, 15
    1953                      .dwcfi  undefined, 16
    1954                      .dwcfi  undefined, 17
    1955                      .dwcfi  undefined, 18
    1956                      .dwcfi  undefined, 19
    1957                      .dwcfi  undefined, 20
    1958                      .dwcfi  undefined, 21
    1959                      .dwcfi  undefined, 22
    1960                      .dwcfi  undefined, 23
    1961                      .dwcfi  undefined, 24
    1962                      .dwcfi  undefined, 25
    1963                      .dwcfi  same_value, 26
    1964                      .dwcfi  same_value, 27
    1965                      .dwcfi  same_value, 28
    1966                      .dwcfi  same_value, 29
    1967                      .dwcfi  same_value, 30
    1968                      .dwcfi  same_value, 31
    1969                      .dwcfi  undefined, 32
    1970                      .dwcfi  undefined, 33
    1971                      .dwcfi  undefined, 34
    1972                      .dwcfi  undefined, 35
    1973                      .dwcfi  undefined, 36
    1974                      .dwcfi  undefined, 37
    1975                      .dwcfi  undefined, 38
    1976                      .dwcfi  undefined, 39
    1977                      .dwcfi  undefined, 40
    1978                      .dwcfi  undefined, 41
    1979                      .dwcfi  undefined, 42
    1980                      .dwcfi  undefined, 43
    1981                      .dwcfi  undefined, 44
    1982                      .dwcfi  undefined, 45
    1983                      .dwcfi  undefined, 46
    1984                      .dwcfi  undefined, 47
    1985                      .dwcfi  undefined, 48
    1986                      .dwcfi  undefined, 49
    1987                      .dwcfi  undefined, 50
    1988                      .dwcfi  undefined, 51
    1989                      .dwcfi  undefined, 52
    1990                      .dwcfi  undefined, 53
    1991                      .dwcfi  undefined, 54
    1992                      .dwcfi  undefined, 55
    1993                      .dwcfi  undefined, 56
    1994                      .dwcfi  undefined, 57
TMS320C55x Assembler PC v4.4.1 Sun Sep 09 04:48:34 2018

Tools Copyright (c) 1996-2012 Texas Instruments Incorporated
event_groups.asm                                                     PAGE   41

    1995                      .dwcfi  undefined, 58
    1996                      .dwcfi  undefined, 59
    1997                      .dwcfi  undefined, 60
    1998                      .dwcfi  undefined, 61
    1999                      .dwcfi  undefined, 62
    2000                      .dwcfi  undefined, 63
    2001                      .dwcfi  undefined, 64
    2002                      .dwcfi  undefined, 65
    2003                      .dwcfi  undefined, 66
    2004                      .dwcfi  undefined, 67
    2005                      .dwcfi  undefined, 68
    2006                      .dwcfi  undefined, 69
    2007                      .dwcfi  undefined, 70
    2008                      .dwcfi  undefined, 71
    2009                      .dwcfi  undefined, 72
    2010                      .dwcfi  undefined, 73
    2011                      .dwcfi  undefined, 74
    2012                      .dwcfi  undefined, 75
    2013                      .dwcfi  undefined, 76
    2014                      .dwcfi  undefined, 77
    2015                      .dwcfi  undefined, 78
    2016                      .dwcfi  undefined, 79
    2017                      .dwcfi  undefined, 80
    2018                      .dwcfi  undefined, 81
    2019                      .dwcfi  undefined, 82
    2020                      .dwcfi  undefined, 83
    2021                      .dwcfi  undefined, 84
    2022                      .dwcfi  undefined, 85
    2023                      .dwcfi  undefined, 86
    2024                      .dwcfi  undefined, 87
    2025                      .dwcfi  undefined, 88
    2026                      .dwcfi  undefined, 89
    2027                      .dwcfi  undefined, 90
    2028                      .dwcfi  undefined, 91
    2029                      .dwendentry
    2030              
    2031              ;***************************************************************
    2032              ;* DWARF REGISTER MAP                                          *
    2033              ;***************************************************************
    2034              
    2035              $C$DW$175       .dwtag  DW_TAG_TI_assign_register, DW_AT_name("AC0")
    2036                      .dwattr $C$DW$175, DW_AT_location[DW_OP_reg0]
    2037              $C$DW$176       .dwtag  DW_TAG_TI_assign_register, DW_AT_name("AC0")
    2038                      .dwattr $C$DW$176, DW_AT_location[DW_OP_reg1]
    2039              $C$DW$177       .dwtag  DW_TAG_TI_assign_register, DW_AT_name("AC0_G")
    2040                      .dwattr $C$DW$177, DW_AT_location[DW_OP_reg2]
    2041              $C$DW$178       .dwtag  DW_TAG_TI_assign_register, DW_AT_name("AC1")
    2042                      .dwattr $C$DW$178, DW_AT_location[DW_OP_reg3]
    2043              $C$DW$179       .dwtag  DW_TAG_TI_assign_register, DW_AT_name("AC1")
    2044                      .dwattr $C$DW$179, DW_AT_location[DW_OP_reg4]
    2045              $C$DW$180       .dwtag  DW_TAG_TI_assign_register, DW_AT_name("AC1_G")
    2046                      .dwattr $C$DW$180, DW_AT_location[DW_OP_reg5]
    2047              $C$DW$181       .dwtag  DW_TAG_TI_assign_register, DW_AT_name("AC2")
    2048                      .dwattr $C$DW$181, DW_AT_location[DW_OP_reg6]
    2049              $C$DW$182       .dwtag  DW_TAG_TI_assign_register, DW_AT_name("AC2")
TMS320C55x Assembler PC v4.4.1 Sun Sep 09 04:48:34 2018

Tools Copyright (c) 1996-2012 Texas Instruments Incorporated
event_groups.asm                                                     PAGE   42

    2050                      .dwattr $C$DW$182, DW_AT_location[DW_OP_reg7]
    2051              $C$DW$183       .dwtag  DW_TAG_TI_assign_register, DW_AT_name("AC2_G")
    2052                      .dwattr $C$DW$183, DW_AT_location[DW_OP_reg8]
    2053              $C$DW$184       .dwtag  DW_TAG_TI_assign_register, DW_AT_name("AC3")
    2054                      .dwattr $C$DW$184, DW_AT_location[DW_OP_reg9]
    2055              $C$DW$185       .dwtag  DW_TAG_TI_assign_register, DW_AT_name("AC3")
    2056                      .dwattr $C$DW$185, DW_AT_location[DW_OP_reg10]
    2057              $C$DW$186       .dwtag  DW_TAG_TI_assign_register, DW_AT_name("AC3_G")
    2058                      .dwattr $C$DW$186, DW_AT_location[DW_OP_reg11]
    2059              $C$DW$187       .dwtag  DW_TAG_TI_assign_register, DW_AT_name("T0")
    2060                      .dwattr $C$DW$187, DW_AT_location[DW_OP_reg12]
    2061              $C$DW$188       .dwtag  DW_TAG_TI_assign_register, DW_AT_name("T1")
    2062                      .dwattr $C$DW$188, DW_AT_location[DW_OP_reg13]
    2063              $C$DW$189       .dwtag  DW_TAG_TI_assign_register, DW_AT_name("T2")
    2064                      .dwattr $C$DW$189, DW_AT_location[DW_OP_reg14]
    2065              $C$DW$190       .dwtag  DW_TAG_TI_assign_register, DW_AT_name("T3")
    2066                      .dwattr $C$DW$190, DW_AT_location[DW_OP_reg15]
    2067              $C$DW$191       .dwtag  DW_TAG_TI_assign_register, DW_AT_name("AR0")
    2068                      .dwattr $C$DW$191, DW_AT_location[DW_OP_reg16]
    2069              $C$DW$192       .dwtag  DW_TAG_TI_assign_register, DW_AT_name("XAR0")
    2070                      .dwattr $C$DW$192, DW_AT_location[DW_OP_reg17]
    2071              $C$DW$193       .dwtag  DW_TAG_TI_assign_register, DW_AT_name("AR1")
    2072                      .dwattr $C$DW$193, DW_AT_location[DW_OP_reg18]
    2073              $C$DW$194       .dwtag  DW_TAG_TI_assign_register, DW_AT_name("XAR1")
    2074                      .dwattr $C$DW$194, DW_AT_location[DW_OP_reg19]
    2075              $C$DW$195       .dwtag  DW_TAG_TI_assign_register, DW_AT_name("AR2")
    2076                      .dwattr $C$DW$195, DW_AT_location[DW_OP_reg20]
    2077              $C$DW$196       .dwtag  DW_TAG_TI_assign_register, DW_AT_name("XAR2")
    2078                      .dwattr $C$DW$196, DW_AT_location[DW_OP_reg21]
    2079              $C$DW$197       .dwtag  DW_TAG_TI_assign_register, DW_AT_name("AR3")
    2080                      .dwattr $C$DW$197, DW_AT_location[DW_OP_reg22]
    2081              $C$DW$198       .dwtag  DW_TAG_TI_assign_register, DW_AT_name("XAR3")
    2082                      .dwattr $C$DW$198, DW_AT_location[DW_OP_reg23]
    2083              $C$DW$199       .dwtag  DW_TAG_TI_assign_register, DW_AT_name("AR4")
    2084                      .dwattr $C$DW$199, DW_AT_location[DW_OP_reg24]
    2085              $C$DW$200       .dwtag  DW_TAG_TI_assign_register, DW_AT_name("XAR4")
    2086                      .dwattr $C$DW$200, DW_AT_location[DW_OP_reg25]
    2087              $C$DW$201       .dwtag  DW_TAG_TI_assign_register, DW_AT_name("AR5")
    2088                      .dwattr $C$DW$201, DW_AT_location[DW_OP_reg26]
    2089              $C$DW$202       .dwtag  DW_TAG_TI_assign_register, DW_AT_name("XAR5")
    2090                      .dwattr $C$DW$202, DW_AT_location[DW_OP_reg27]
    2091              $C$DW$203       .dwtag  DW_TAG_TI_assign_register, DW_AT_name("AR6")
    2092                      .dwattr $C$DW$203, DW_AT_location[DW_OP_reg28]
    2093              $C$DW$204       .dwtag  DW_TAG_TI_assign_register, DW_AT_name("XAR6")
    2094                      .dwattr $C$DW$204, DW_AT_location[DW_OP_reg29]
    2095              $C$DW$205       .dwtag  DW_TAG_TI_assign_register, DW_AT_name("AR7")
    2096                      .dwattr $C$DW$205, DW_AT_location[DW_OP_reg30]
    2097              $C$DW$206       .dwtag  DW_TAG_TI_assign_register, DW_AT_name("XAR7")
    2098                      .dwattr $C$DW$206, DW_AT_location[DW_OP_reg31]
    2099              $C$DW$207       .dwtag  DW_TAG_TI_assign_register, DW_AT_name("FP")
    2100                      .dwattr $C$DW$207, DW_AT_location[DW_OP_regx 0x20]
    2101              $C$DW$208       .dwtag  DW_TAG_TI_assign_register, DW_AT_name("XFP")
    2102                      .dwattr $C$DW$208, DW_AT_location[DW_OP_regx 0x21]
    2103              $C$DW$209       .dwtag  DW_TAG_TI_assign_register, DW_AT_name("PC")
    2104                      .dwattr $C$DW$209, DW_AT_location[DW_OP_regx 0x22]
TMS320C55x Assembler PC v4.4.1 Sun Sep 09 04:48:34 2018

Tools Copyright (c) 1996-2012 Texas Instruments Incorporated
event_groups.asm                                                     PAGE   43

    2105              $C$DW$210       .dwtag  DW_TAG_TI_assign_register, DW_AT_name("SP")
    2106                      .dwattr $C$DW$210, DW_AT_location[DW_OP_regx 0x23]
    2107              $C$DW$211       .dwtag  DW_TAG_TI_assign_register, DW_AT_name("XSP")
    2108                      .dwattr $C$DW$211, DW_AT_location[DW_OP_regx 0x24]
    2109              $C$DW$212       .dwtag  DW_TAG_TI_assign_register, DW_AT_name("BKC")
    2110                      .dwattr $C$DW$212, DW_AT_location[DW_OP_regx 0x25]
    2111              $C$DW$213       .dwtag  DW_TAG_TI_assign_register, DW_AT_name("BK03")
    2112                      .dwattr $C$DW$213, DW_AT_location[DW_OP_regx 0x26]
    2113              $C$DW$214       .dwtag  DW_TAG_TI_assign_register, DW_AT_name("BK47")
    2114                      .dwattr $C$DW$214, DW_AT_location[DW_OP_regx 0x27]
    2115              $C$DW$215       .dwtag  DW_TAG_TI_assign_register, DW_AT_name("ST0")
    2116                      .dwattr $C$DW$215, DW_AT_location[DW_OP_regx 0x28]
    2117              $C$DW$216       .dwtag  DW_TAG_TI_assign_register, DW_AT_name("ST1")
    2118                      .dwattr $C$DW$216, DW_AT_location[DW_OP_regx 0x29]
    2119              $C$DW$217       .dwtag  DW_TAG_TI_assign_register, DW_AT_name("ST2")
    2120                      .dwattr $C$DW$217, DW_AT_location[DW_OP_regx 0x2a]
    2121              $C$DW$218       .dwtag  DW_TAG_TI_assign_register, DW_AT_name("ST3")
    2122                      .dwattr $C$DW$218, DW_AT_location[DW_OP_regx 0x2b]
    2123              $C$DW$219       .dwtag  DW_TAG_TI_assign_register, DW_AT_name("MDP")
    2124                      .dwattr $C$DW$219, DW_AT_location[DW_OP_regx 0x2c]
    2125              $C$DW$220       .dwtag  DW_TAG_TI_assign_register, DW_AT_name("MDP05")
    2126                      .dwattr $C$DW$220, DW_AT_location[DW_OP_regx 0x2d]
    2127              $C$DW$221       .dwtag  DW_TAG_TI_assign_register, DW_AT_name("MDP67")
    2128                      .dwattr $C$DW$221, DW_AT_location[DW_OP_regx 0x2e]
    2129              $C$DW$222       .dwtag  DW_TAG_TI_assign_register, DW_AT_name("BRC0")
    2130                      .dwattr $C$DW$222, DW_AT_location[DW_OP_regx 0x2f]
    2131              $C$DW$223       .dwtag  DW_TAG_TI_assign_register, DW_AT_name("RSA0")
    2132                      .dwattr $C$DW$223, DW_AT_location[DW_OP_regx 0x30]
    2133              $C$DW$224       .dwtag  DW_TAG_TI_assign_register, DW_AT_name("RSA0_H")
    2134                      .dwattr $C$DW$224, DW_AT_location[DW_OP_regx 0x31]
    2135              $C$DW$225       .dwtag  DW_TAG_TI_assign_register, DW_AT_name("REA0")
    2136                      .dwattr $C$DW$225, DW_AT_location[DW_OP_regx 0x32]
    2137              $C$DW$226       .dwtag  DW_TAG_TI_assign_register, DW_AT_name("REA0_H")
    2138                      .dwattr $C$DW$226, DW_AT_location[DW_OP_regx 0x33]
    2139              $C$DW$227       .dwtag  DW_TAG_TI_assign_register, DW_AT_name("BRS1")
    2140                      .dwattr $C$DW$227, DW_AT_location[DW_OP_regx 0x34]
    2141              $C$DW$228       .dwtag  DW_TAG_TI_assign_register, DW_AT_name("BRC1")
    2142                      .dwattr $C$DW$228, DW_AT_location[DW_OP_regx 0x35]
    2143              $C$DW$229       .dwtag  DW_TAG_TI_assign_register, DW_AT_name("RSA1")
    2144                      .dwattr $C$DW$229, DW_AT_location[DW_OP_regx 0x36]
    2145              $C$DW$230       .dwtag  DW_TAG_TI_assign_register, DW_AT_name("RSA1_H")
    2146                      .dwattr $C$DW$230, DW_AT_location[DW_OP_regx 0x37]
    2147              $C$DW$231       .dwtag  DW_TAG_TI_assign_register, DW_AT_name("REA1")
    2148                      .dwattr $C$DW$231, DW_AT_location[DW_OP_regx 0x38]
    2149              $C$DW$232       .dwtag  DW_TAG_TI_assign_register, DW_AT_name("REA1_H")
    2150                      .dwattr $C$DW$232, DW_AT_location[DW_OP_regx 0x39]
    2151              $C$DW$233       .dwtag  DW_TAG_TI_assign_register, DW_AT_name("CSR")
    2152                      .dwattr $C$DW$233, DW_AT_location[DW_OP_regx 0x3a]
    2153              $C$DW$234       .dwtag  DW_TAG_TI_assign_register, DW_AT_name("RPTC")
    2154                      .dwattr $C$DW$234, DW_AT_location[DW_OP_regx 0x3b]
    2155              $C$DW$235       .dwtag  DW_TAG_TI_assign_register, DW_AT_name("CDP")
    2156                      .dwattr $C$DW$235, DW_AT_location[DW_OP_regx 0x3c]
    2157              $C$DW$236       .dwtag  DW_TAG_TI_assign_register, DW_AT_name("XCDP")
    2158                      .dwattr $C$DW$236, DW_AT_location[DW_OP_regx 0x3d]
    2159              $C$DW$237       .dwtag  DW_TAG_TI_assign_register, DW_AT_name("TRN0")
TMS320C55x Assembler PC v4.4.1 Sun Sep 09 04:48:34 2018

Tools Copyright (c) 1996-2012 Texas Instruments Incorporated
event_groups.asm                                                     PAGE   44

    2160                      .dwattr $C$DW$237, DW_AT_location[DW_OP_regx 0x3e]
    2161              $C$DW$238       .dwtag  DW_TAG_TI_assign_register, DW_AT_name("TRN1")
    2162                      .dwattr $C$DW$238, DW_AT_location[DW_OP_regx 0x3f]
    2163              $C$DW$239       .dwtag  DW_TAG_TI_assign_register, DW_AT_name("BSA01")
    2164                      .dwattr $C$DW$239, DW_AT_location[DW_OP_regx 0x40]
    2165              $C$DW$240       .dwtag  DW_TAG_TI_assign_register, DW_AT_name("BSA23")
    2166                      .dwattr $C$DW$240, DW_AT_location[DW_OP_regx 0x41]
    2167              $C$DW$241       .dwtag  DW_TAG_TI_assign_register, DW_AT_name("BSA45")
    2168                      .dwattr $C$DW$241, DW_AT_location[DW_OP_regx 0x42]
    2169              $C$DW$242       .dwtag  DW_TAG_TI_assign_register, DW_AT_name("BSA67")
    2170                      .dwattr $C$DW$242, DW_AT_location[DW_OP_regx 0x43]
    2171              $C$DW$243       .dwtag  DW_TAG_TI_assign_register, DW_AT_name("BSAC")
    2172                      .dwattr $C$DW$243, DW_AT_location[DW_OP_regx 0x44]
    2173              $C$DW$244       .dwtag  DW_TAG_TI_assign_register, DW_AT_name("CARRY")
    2174                      .dwattr $C$DW$244, DW_AT_location[DW_OP_regx 0x45]
    2175              $C$DW$245       .dwtag  DW_TAG_TI_assign_register, DW_AT_name("TC1")
    2176                      .dwattr $C$DW$245, DW_AT_location[DW_OP_regx 0x46]
    2177              $C$DW$246       .dwtag  DW_TAG_TI_assign_register, DW_AT_name("TC2")
    2178                      .dwattr $C$DW$246, DW_AT_location[DW_OP_regx 0x47]
    2179              $C$DW$247       .dwtag  DW_TAG_TI_assign_register, DW_AT_name("M40")
    2180                      .dwattr $C$DW$247, DW_AT_location[DW_OP_regx 0x48]
    2181              $C$DW$248       .dwtag  DW_TAG_TI_assign_register, DW_AT_name("SXMD")
    2182                      .dwattr $C$DW$248, DW_AT_location[DW_OP_regx 0x49]
    2183              $C$DW$249       .dwtag  DW_TAG_TI_assign_register, DW_AT_name("ARMS")
    2184                      .dwattr $C$DW$249, DW_AT_location[DW_OP_regx 0x4a]
    2185              $C$DW$250       .dwtag  DW_TAG_TI_assign_register, DW_AT_name("C54CM")
    2186                      .dwattr $C$DW$250, DW_AT_location[DW_OP_regx 0x4b]
    2187              $C$DW$251       .dwtag  DW_TAG_TI_assign_register, DW_AT_name("SATA")
    2188                      .dwattr $C$DW$251, DW_AT_location[DW_OP_regx 0x4c]
    2189              $C$DW$252       .dwtag  DW_TAG_TI_assign_register, DW_AT_name("SATD")
    2190                      .dwattr $C$DW$252, DW_AT_location[DW_OP_regx 0x4d]
    2191              $C$DW$253       .dwtag  DW_TAG_TI_assign_register, DW_AT_name("RDM")
    2192                      .dwattr $C$DW$253, DW_AT_location[DW_OP_regx 0x4e]
    2193              $C$DW$254       .dwtag  DW_TAG_TI_assign_register, DW_AT_name("FRCT")
    2194                      .dwattr $C$DW$254, DW_AT_location[DW_OP_regx 0x4f]
    2195              $C$DW$255       .dwtag  DW_TAG_TI_assign_register, DW_AT_name("SMUL")
    2196                      .dwattr $C$DW$255, DW_AT_location[DW_OP_regx 0x50]
    2197              $C$DW$256       .dwtag  DW_TAG_TI_assign_register, DW_AT_name("INTM")
    2198                      .dwattr $C$DW$256, DW_AT_location[DW_OP_regx 0x51]
    2199              $C$DW$257       .dwtag  DW_TAG_TI_assign_register, DW_AT_name("AR0LC")
    2200                      .dwattr $C$DW$257, DW_AT_location[DW_OP_regx 0x52]
    2201              $C$DW$258       .dwtag  DW_TAG_TI_assign_register, DW_AT_name("AR1LC")
    2202                      .dwattr $C$DW$258, DW_AT_location[DW_OP_regx 0x53]
    2203              $C$DW$259       .dwtag  DW_TAG_TI_assign_register, DW_AT_name("AR2LC")
    2204                      .dwattr $C$DW$259, DW_AT_location[DW_OP_regx 0x54]
    2205              $C$DW$260       .dwtag  DW_TAG_TI_assign_register, DW_AT_name("AR3LC")
    2206                      .dwattr $C$DW$260, DW_AT_location[DW_OP_regx 0x55]
    2207              $C$DW$261       .dwtag  DW_TAG_TI_assign_register, DW_AT_name("AR4LC")
    2208                      .dwattr $C$DW$261, DW_AT_location[DW_OP_regx 0x56]
    2209              $C$DW$262       .dwtag  DW_TAG_TI_assign_register, DW_AT_name("AR5LC")
    2210                      .dwattr $C$DW$262, DW_AT_location[DW_OP_regx 0x57]
    2211              $C$DW$263       .dwtag  DW_TAG_TI_assign_register, DW_AT_name("AR6LC")
    2212                      .dwattr $C$DW$263, DW_AT_location[DW_OP_regx 0x58]
    2213              $C$DW$264       .dwtag  DW_TAG_TI_assign_register, DW_AT_name("AR7LC")
    2214                      .dwattr $C$DW$264, DW_AT_location[DW_OP_regx 0x59]
TMS320C55x Assembler PC v4.4.1 Sun Sep 09 04:48:34 2018

Tools Copyright (c) 1996-2012 Texas Instruments Incorporated
event_groups.asm                                                     PAGE   45

    2215              $C$DW$265       .dwtag  DW_TAG_TI_assign_register, DW_AT_name("CDPLC")
    2216                      .dwattr $C$DW$265, DW_AT_location[DW_OP_regx 0x5a]
    2217              $C$DW$266       .dwtag  DW_TAG_TI_assign_register, DW_AT_name("CIE_RETA")
    2218                      .dwattr $C$DW$266, DW_AT_location[DW_OP_regx 0x5b]
    2219                      .dwendtag $C$DW$CU
    2220              
    2220              
    2220              

No Assembly Errors, No Assembly Warnings
