TMS320C55x Assembler PC v4.4.1 Sun Sep 09 04:48:36 2018

Tools Copyright (c) 1996-2012 Texas Instruments Incorporated
queue.asm                                                            PAGE    1

    6021              ; Temporary Registers Used: None
       1              ;*******************************************************************************
       2              ;* TMS320C55x C/C++ Codegen                                          PC v4.4.1 *
       3              ;* Date/Time created: Sun Sep 09 04:48:34 2018                                 *
       4              ;*******************************************************************************
       5                      .compiler_opts --hll_source=on --mem_model:code=flat --mem_model:data=large --object_format=coff --si
       6                      .mmregs
       7                      .cpl_on
       8                      .arms_on
       9                      .c54cm_off
      10                      .asg AR6, FP
      11                      .asg XAR6, XFP
      12                      .asg DPH, MDP
      13                      .model call=c55_std
      14                      .model mem=large
      15                      .noremark 5002  ; code respects overwrite rules
      16              ;*******************************************************************************
      17              ;* GLOBAL FILE PARAMETERS                                                      *
      18              ;*                                                                             *
      19              ;*   Architecture       : TMS320C55x                                           *
      20              ;*   Optimizing for     : Speed                                                *
      21              ;*   Memory             : Large Model (23-Bit Data Pointers)                   *
      22              ;*   Calls              : Normal Library ASM calls                             *
      23              ;*   Debug Info         : Standard TI Debug Information                        *
      24              ;*******************************************************************************
      25              
      26              $C$DW$CU        .dwtag  DW_TAG_compile_unit
      27                      .dwattr $C$DW$CU, DW_AT_name("../FreeRTOS/Source/queue.c")
      28                      .dwattr $C$DW$CU, DW_AT_producer("TMS320C55x C/C++ Codegen PC v4.4.1 Copyright (c) 1996-2012 Texas In
      29                      .dwattr $C$DW$CU, DW_AT_TI_version(0x01)
      30                      .dwattr $C$DW$CU, DW_AT_comp_dir("F:\eZdsp_DBG\eZDSP_5535_Files\ccsws2\test\Debug")
      31              
      32              $C$DW$1 .dwtag  DW_TAG_subprogram, DW_AT_name("memcpy")
      33                      .dwattr $C$DW$1, DW_AT_TI_symbol_name("_memcpy")
      34                      .dwattr $C$DW$1, DW_AT_type(*$C$DW$T$3)
      35                      .dwattr $C$DW$1, DW_AT_declaration
      36                      .dwattr $C$DW$1, DW_AT_external
      37              $C$DW$2 .dwtag  DW_TAG_formal_parameter
      38                      .dwattr $C$DW$2, DW_AT_type(*$C$DW$T$3)
      39              $C$DW$3 .dwtag  DW_TAG_formal_parameter
      40                      .dwattr $C$DW$3, DW_AT_type(*$C$DW$T$59)
      41              $C$DW$4 .dwtag  DW_TAG_formal_parameter
      42                      .dwattr $C$DW$4, DW_AT_type(*$C$DW$T$60)
      43                      .dwendtag $C$DW$1
      44              
      45              
      46              $C$DW$5 .dwtag  DW_TAG_subprogram, DW_AT_name("vPortYield")
      47                      .dwattr $C$DW$5, DW_AT_TI_symbol_name("_vPortYield")
      48                      .dwattr $C$DW$5, DW_AT_declaration
      49                      .dwattr $C$DW$5, DW_AT_external
      50              
      51              $C$DW$6 .dwtag  DW_TAG_subprogram, DW_AT_name("pvPortMalloc")
      52                      .dwattr $C$DW$6, DW_AT_TI_symbol_name("_pvPortMalloc")
      53                      .dwattr $C$DW$6, DW_AT_type(*$C$DW$T$3)
      54                      .dwattr $C$DW$6, DW_AT_declaration
TMS320C55x Assembler PC v4.4.1 Sun Sep 09 04:48:36 2018

Tools Copyright (c) 1996-2012 Texas Instruments Incorporated
queue.asm                                                            PAGE    2

      55                      .dwattr $C$DW$6, DW_AT_external
      56              $C$DW$7 .dwtag  DW_TAG_formal_parameter
      57                      .dwattr $C$DW$7, DW_AT_type(*$C$DW$T$60)
      58                      .dwendtag $C$DW$6
      59              
      60              
      61              $C$DW$8 .dwtag  DW_TAG_subprogram, DW_AT_name("vPortFree")
      62                      .dwattr $C$DW$8, DW_AT_TI_symbol_name("_vPortFree")
      63                      .dwattr $C$DW$8, DW_AT_declaration
      64                      .dwattr $C$DW$8, DW_AT_external
      65              $C$DW$9 .dwtag  DW_TAG_formal_parameter
      66                      .dwattr $C$DW$9, DW_AT_type(*$C$DW$T$3)
      67                      .dwendtag $C$DW$8
      68              
      69              
      70              $C$DW$10        .dwtag  DW_TAG_subprogram, DW_AT_name("vListInitialise")
      71                      .dwattr $C$DW$10, DW_AT_TI_symbol_name("_vListInitialise")
      72                      .dwattr $C$DW$10, DW_AT_declaration
      73                      .dwattr $C$DW$10, DW_AT_external
      74              $C$DW$11        .dwtag  DW_TAG_formal_parameter
      75                      .dwattr $C$DW$11, DW_AT_type(*$C$DW$T$71)
      76                      .dwendtag $C$DW$10
      77              
      78              
      79              $C$DW$12        .dwtag  DW_TAG_subprogram, DW_AT_name("vTaskSuspendAll")
      80                      .dwattr $C$DW$12, DW_AT_TI_symbol_name("_vTaskSuspendAll")
      81                      .dwattr $C$DW$12, DW_AT_declaration
      82                      .dwattr $C$DW$12, DW_AT_external
      83              
      84              $C$DW$13        .dwtag  DW_TAG_subprogram, DW_AT_name("xTaskResumeAll")
      85                      .dwattr $C$DW$13, DW_AT_TI_symbol_name("_xTaskResumeAll")
      86                      .dwattr $C$DW$13, DW_AT_type(*$C$DW$T$43)
      87                      .dwattr $C$DW$13, DW_AT_declaration
      88                      .dwattr $C$DW$13, DW_AT_external
      89              
      90              $C$DW$14        .dwtag  DW_TAG_subprogram, DW_AT_name("vTaskPlaceOnEventList")
      91                      .dwattr $C$DW$14, DW_AT_TI_symbol_name("_vTaskPlaceOnEventList")
      92                      .dwattr $C$DW$14, DW_AT_declaration
      93                      .dwattr $C$DW$14, DW_AT_external
      94              $C$DW$15        .dwtag  DW_TAG_formal_parameter
      95                      .dwattr $C$DW$15, DW_AT_type(*$C$DW$T$71)
      96              $C$DW$16        .dwtag  DW_TAG_formal_parameter
      97                      .dwattr $C$DW$16, DW_AT_type(*$C$DW$T$74)
      98                      .dwendtag $C$DW$14
      99              
     100              
     101              $C$DW$17        .dwtag  DW_TAG_subprogram, DW_AT_name("xTaskRemoveFromEventList")
     102                      .dwattr $C$DW$17, DW_AT_TI_symbol_name("_xTaskRemoveFromEventList")
     103                      .dwattr $C$DW$17, DW_AT_type(*$C$DW$T$43)
     104                      .dwattr $C$DW$17, DW_AT_declaration
     105                      .dwattr $C$DW$17, DW_AT_external
     106              $C$DW$18        .dwtag  DW_TAG_formal_parameter
     107                      .dwattr $C$DW$18, DW_AT_type(*$C$DW$T$98)
     108                      .dwendtag $C$DW$17
     109              
TMS320C55x Assembler PC v4.4.1 Sun Sep 09 04:48:36 2018

Tools Copyright (c) 1996-2012 Texas Instruments Incorporated
queue.asm                                                            PAGE    3

     110              
     111              $C$DW$19        .dwtag  DW_TAG_subprogram, DW_AT_name("xTaskCheckForTimeOut")
     112                      .dwattr $C$DW$19, DW_AT_TI_symbol_name("_xTaskCheckForTimeOut")
     113                      .dwattr $C$DW$19, DW_AT_type(*$C$DW$T$43)
     114                      .dwattr $C$DW$19, DW_AT_declaration
     115                      .dwattr $C$DW$19, DW_AT_external
     116              $C$DW$20        .dwtag  DW_TAG_formal_parameter
     117                      .dwattr $C$DW$20, DW_AT_type(*$C$DW$T$79)
     118              $C$DW$21        .dwtag  DW_TAG_formal_parameter
     119                      .dwattr $C$DW$21, DW_AT_type(*$C$DW$T$102)
     120                      .dwendtag $C$DW$19
     121              
     122              
     123              $C$DW$22        .dwtag  DW_TAG_subprogram, DW_AT_name("vTaskMissedYield")
     124                      .dwattr $C$DW$22, DW_AT_TI_symbol_name("_vTaskMissedYield")
     125                      .dwattr $C$DW$22, DW_AT_declaration
     126                      .dwattr $C$DW$22, DW_AT_external
     127              
     128              $C$DW$23        .dwtag  DW_TAG_subprogram, DW_AT_name("vTaskInternalSetTimeOutState")
     129                      .dwattr $C$DW$23, DW_AT_TI_symbol_name("_vTaskInternalSetTimeOutState")
     130                      .dwattr $C$DW$23, DW_AT_declaration
     131                      .dwattr $C$DW$23, DW_AT_external
     132              $C$DW$24        .dwtag  DW_TAG_formal_parameter
     133                      .dwattr $C$DW$24, DW_AT_type(*$C$DW$T$79)
     134                      .dwendtag $C$DW$23
     135              
     136              
     137              $C$DW$25        .dwtag  DW_TAG_subprogram, DW_AT_name("vCoRoutineAddToDelayedList")
     138                      .dwattr $C$DW$25, DW_AT_TI_symbol_name("_vCoRoutineAddToDelayedList")
     139                      .dwattr $C$DW$25, DW_AT_declaration
     140                      .dwattr $C$DW$25, DW_AT_external
     141              $C$DW$26        .dwtag  DW_TAG_formal_parameter
     142                      .dwattr $C$DW$26, DW_AT_type(*$C$DW$T$38)
     143              $C$DW$27        .dwtag  DW_TAG_formal_parameter
     144                      .dwattr $C$DW$27, DW_AT_type(*$C$DW$T$70)
     145                      .dwendtag $C$DW$25
     146              
     147              
     148              $C$DW$28        .dwtag  DW_TAG_subprogram, DW_AT_name("xCoRoutineRemoveFromEventList")
     149                      .dwattr $C$DW$28, DW_AT_TI_symbol_name("_xCoRoutineRemoveFromEventList")
     150                      .dwattr $C$DW$28, DW_AT_type(*$C$DW$T$43)
     151                      .dwattr $C$DW$28, DW_AT_declaration
     152                      .dwattr $C$DW$28, DW_AT_external
     153              $C$DW$29        .dwtag  DW_TAG_formal_parameter
     154                      .dwattr $C$DW$29, DW_AT_type(*$C$DW$T$97)
     155                      .dwendtag $C$DW$28
     156              
     157              $C$DW$30        .dwtag  DW_TAG_variable, DW_AT_name("usCriticalNesting")
     158                      .dwattr $C$DW$30, DW_AT_TI_symbol_name("_usCriticalNesting")
     159                      .dwattr $C$DW$30, DW_AT_type(*$C$DW$T$129)
     160                      .dwattr $C$DW$30, DW_AT_declaration
     161                      .dwattr $C$DW$30, DW_AT_external
     162              ;       F:\ti\ccs8p1\ccsv8\tools\compiler\alt-install-ti-cgt-c55x_4.4.1\bin\acp55.exe -@f:\\AppData\\Local\\T
     163 000000               .sect   ".text"
     164                      .align 4
TMS320C55x Assembler PC v4.4.1 Sun Sep 09 04:48:36 2018

Tools Copyright (c) 1996-2012 Texas Instruments Incorporated
queue.asm                                                            PAGE    4

     165                      .global _xQueueGenericReset
     166              
     167              $C$DW$31        .dwtag  DW_TAG_subprogram, DW_AT_name("xQueueGenericReset")
     168                      .dwattr $C$DW$31, DW_AT_low_pc(_xQueueGenericReset)
     169                      .dwattr $C$DW$31, DW_AT_high_pc(0x00)
     170                      .dwattr $C$DW$31, DW_AT_TI_symbol_name("_xQueueGenericReset")
     171                      .dwattr $C$DW$31, DW_AT_external
     172                      .dwattr $C$DW$31, DW_AT_type(*$C$DW$T$43)
     173                      .dwattr $C$DW$31, DW_AT_TI_begin_file("../FreeRTOS/Source/queue.c")
     174                      .dwattr $C$DW$31, DW_AT_TI_begin_line(0xff)
     175                      .dwattr $C$DW$31, DW_AT_TI_begin_column(0x0c)
     176                      .dwattr $C$DW$31, DW_AT_TI_max_frame_size(0x08)
     177                      .dwpsn  file "../FreeRTOS/Source/queue.c",line 256,column 1,is_stmt,address _xQueueGenericReset
     178              
     179                      .dwfde $C$DW$CIE, _xQueueGenericReset
     180              $C$DW$32        .dwtag  DW_TAG_formal_parameter, DW_AT_name("xQueue")
     181                      .dwattr $C$DW$32, DW_AT_TI_symbol_name("_xQueue")
     182                      .dwattr $C$DW$32, DW_AT_type(*$C$DW$T$46)
     183                      .dwattr $C$DW$32, DW_AT_location[DW_OP_reg17]
     184              $C$DW$33        .dwtag  DW_TAG_formal_parameter, DW_AT_name("xNewQueue")
     185                      .dwattr $C$DW$33, DW_AT_TI_symbol_name("_xNewQueue")
     186                      .dwattr $C$DW$33, DW_AT_type(*$C$DW$T$43)
     187                      .dwattr $C$DW$33, DW_AT_location[DW_OP_reg12]
     188              ;*******************************************************************************
     189              ;* FUNCTION NAME: xQueueGenericReset                                           *
     190              ;*                                                                             *
     191              ;*   Function Uses Regs : AC0,T0,T1,AR0,XAR0,AR1,AR2,XAR2,AR3,XAR3,SP,CARRY,   *
     192              ;*                        M40,SATA,SATD,RDM,FRCT,SMUL                          *
     193              ;*   Stack Frame        : Compact (No Frame Pointer, w/ debug)                 *
     194              ;*   Total Frame Size   : 8 words                                              *
     195              ;*                        (2 return address/alignment)                         *
     196              ;*                        (6 local values)                                     *
     197              ;*   Min System Stack   : 1 word                                               *
     198              ;*******************************************************************************
     199 000000       _xQueueGenericReset:
     200                      .dwcfi  cfa_offset, 1
     201                      .dwcfi  save_reg_to_mem, 91, -1
     202 000000 4EF9          AADD #-7, SP
     203                      .dwcfi  cfa_offset, 8
     204              $C$DW$34        .dwtag  DW_TAG_variable, DW_AT_name("xQueue")
     205                      .dwattr $C$DW$34, DW_AT_TI_symbol_name("_xQueue")
     206                      .dwattr $C$DW$34, DW_AT_type(*$C$DW$T$46)
     207                      .dwattr $C$DW$34, DW_AT_location[DW_OP_bregx 0x24 0]
     208              $C$DW$35        .dwtag  DW_TAG_variable, DW_AT_name("xNewQueue")
     209                      .dwattr $C$DW$35, DW_AT_TI_symbol_name("_xNewQueue")
     210                      .dwattr $C$DW$35, DW_AT_type(*$C$DW$T$43)
     211                      .dwattr $C$DW$35, DW_AT_location[DW_OP_bregx 0x24 2]
     212              $C$DW$36        .dwtag  DW_TAG_variable, DW_AT_name("pxQueue")
     213                      .dwattr $C$DW$36, DW_AT_TI_symbol_name("_pxQueue")
     214                      .dwattr $C$DW$36, DW_AT_type(*$C$DW$T$57)
     215                      .dwattr $C$DW$36, DW_AT_location[DW_OP_bregx 0x24 4]
     216 000002 C404          MOV T0, *SP(#2) ; |256| 
     217 000004 EB00          MOV XAR0, dbl(*SP(#0))
         000006 85   
     218                      .dwpsn  file "../FreeRTOS/Source/queue.c",line 257,column 17,is_stmt
TMS320C55x Assembler PC v4.4.1 Sun Sep 09 04:48:36 2018

Tools Copyright (c) 1996-2012 Texas Instruments Incorporated
queue.asm                                                            PAGE    5

     219 000007 ED00          MOV dbl(*SP(#0)), XAR3
         000009 BF   
     220 00000a EB08          MOV XAR3, dbl(*SP(#4))
         00000c B5   
     221                      .dwpsn  file "../FreeRTOS/Source/queue.c",line 261,column 2,is_stmt
     222 00000d 20     nop
     223 00000e 46B3   bset INTM
     224 000010 F731          ADD #1, *(#_usCriticalNesting) ; |261| 
         000012 0001 
         000014 0000 
         000016 00!  
     225                      .dwpsn  file "../FreeRTOS/Source/queue.c",line 263,column 3,is_stmt
     226 000017 ED08          MOV dbl(*SP(#4)), XAR2
         000019 AF   
     227 00001a A54D          MOV *AR2(#30), T1 ; |263| 
         00001c 001E 
     228 00001e D36D          MPYM *AR3(#29), T1, AC0 ; |263| 
         000020 0500 
         000022 1D   
     229 000023 2209          MOV AC0, AR1 ; |263| 
     230 000025 ED61          MOV dbl(*AR3), XAR3
         000027 BF   
     231              
     232 000028 8E59          MOV XAR3, dbl(*AR2(short(#4)))
         00002a BB10 
         00002c B590 
     233              ||      AADD AR1, AR3 ; |263| 
     234              
     235                      .dwpsn  file "../FreeRTOS/Source/queue.c",line 264,column 3,is_stmt
     236 00002e ED08          MOV dbl(*SP(#4)), XAR3
         000030 BF   
     237 000031 E66D          MOV #0, *AR3(#28) ; |264| 
         000033 0000 
         000035 1C   
     238                      .dwpsn  file "../FreeRTOS/Source/queue.c",line 265,column 3,is_stmt
     239 000036 ED08          MOV dbl(*SP(#4)), XAR3
         000038 BF   
     240 000039 ED61          MOV dbl(*AR3), XAR2
         00003b AF   
     241 00003c EB75          MOV XAR2, dbl(*AR3(short(#2)))
         00003e A5   
     242                      .dwpsn  file "../FreeRTOS/Source/queue.c",line 266,column 3,is_stmt
     243 00003f ED08          MOV dbl(*SP(#4)), XAR2
         000041 AF   
     244 000042 ED08          MOV dbl(*SP(#4)), XAR3
         000044 BF   
     245 000045 A54D          MOV *AR2(#29), T1 ; |266| 
         000047 001D 
     246 000049 4215          SUB #1, T1 ; |266| 
     247 00004b D36D          MPYM *AR3(#30), T1, AC0 ; |266| 
         00004d 0500 
         00004f 1E   
     248 000050 2209          MOV AC0, AR1 ; |266| 
     249 000052 ED61          MOV dbl(*AR3), XAR3
         000054 BF   
TMS320C55x Assembler PC v4.4.1 Sun Sep 09 04:48:36 2018

Tools Copyright (c) 1996-2012 Texas Instruments Incorporated
queue.asm                                                            PAGE    6

     250              
     251 000055 8E5D          MOV XAR3, dbl(*AR2(short(#6)))
         000057 BB10 
         000059 B590 
     252              ||      AADD AR1, AR3 ; |266| 
     253              
     254                      .dwpsn  file "../FreeRTOS/Source/queue.c",line 267,column 3,is_stmt
     255 00005b ED08          MOV dbl(*SP(#4)), XAR3
         00005d BF   
     256 00005e E66D          MOV #-1, *AR3(#31) ; |267| 
         000060 FF00 
         000062 1F   
     257                      .dwpsn  file "../FreeRTOS/Source/queue.c",line 268,column 3,is_stmt
     258 000063 ED08          MOV dbl(*SP(#4)), XAR3
         000065 BF   
     259 000066 E66D          MOV #-1, *AR3(#32) ; |268| 
         000068 FF00 
         00006a 20   
     260                      .dwpsn  file "../FreeRTOS/Source/queue.c",line 270,column 3,is_stmt
     261 00006b A904          MOV *SP(#2), AR1 ; |270| 
     262 00006d 0419          BCC $C$L3,AR1 != #0 ; |270| 
         00006f 25   
     263                                                      ; branchcc occurs ; |270| 
     264                      .dwpsn  file "../FreeRTOS/Source/queue.c",line 277,column 4,is_stmt
     265 000070 ED08          MOV dbl(*SP(#4)), XAR3
         000072 BF   
     266 000073 A96D          MOV *AR3(#8), AR1 ; |277| 
         000075 0008 
     267 000077 6219          BCC $C$L1,AR1 != #0 ; |277| 
     268                                                      ; branchcc occurs ; |277| 
     269 000079 3C19          MOV #1, AR1
     270 00007b 4A02          B $C$L2   ; |277| 
     271                                                      ; branch occurs ; |277| 
     272 00007d       $C$L1:    
     273 00007d 3C09          MOV #0, AR1
     274 00007f       $C$L2:    
     275 00007f 0419          BCC $C$L4,AR1 != #0 ; |277| 
         000081 27   
     276                                                      ; branchcc occurs ; |277| 
     277                      .dwpsn  file "../FreeRTOS/Source/queue.c",line 279,column 5,is_stmt
     278 000082 ED08          MOV dbl(*SP(#4)), XAR0
         000084 8F   
     279 000085 1408          AADD #8, AR0 ; |279| 
         000087 84   
     280              $C$DW$37        .dwtag  DW_TAG_TI_branch
     281                      .dwattr $C$DW$37, DW_AT_low_pc(0x00)
     282                      .dwattr $C$DW$37, DW_AT_name("_xTaskRemoveFromEventList")
     283                      .dwattr $C$DW$37, DW_AT_TI_call
     284 000088 6C00          CALL #_xTaskRemoveFromEventList ; |279| 
         00008a 0000!
     285                                                      ; call occurs [#_xTaskRemoveFromEventList] ; |279| 
     286 00008c 0404          BCC $C$L4,T0 == #0 ; |279| 
         00008e 1A   
     287                                                      ; branchcc occurs ; |279| 
     288                      .dwpsn  file "../FreeRTOS/Source/queue.c",line 281,column 6,is_stmt
TMS320C55x Assembler PC v4.4.1 Sun Sep 09 04:48:36 2018

Tools Copyright (c) 1996-2012 Texas Instruments Incorporated
queue.asm                                                            PAGE    7

     289              $C$DW$38        .dwtag  DW_TAG_TI_branch
     290                      .dwattr $C$DW$38, DW_AT_low_pc(0x00)
     291                      .dwattr $C$DW$38, DW_AT_name("_vPortYield")
     292                      .dwattr $C$DW$38, DW_AT_TI_call
     293 00008f 6C00          CALL #_vPortYield ; |281| 
         000091 0000!
     294                                                      ; call occurs [#_vPortYield] ; |281| 
     295                      .dwpsn  file "../FreeRTOS/Source/queue.c",line 282,column 5,is_stmt
     296 000093 4A14          B $C$L4   ; |282| 
     297                                                      ; branch occurs ; |282| 
     298 000095       $C$L3:    
     299                      .dwpsn  file "../FreeRTOS/Source/queue.c",line 296,column 4,is_stmt
     300 000095 ED08          MOV dbl(*SP(#4)), XAR0
         000097 8F   
     301 000098 1408          AADD #8, AR0 ; |296| 
         00009a 84   
     302              $C$DW$39        .dwtag  DW_TAG_TI_branch
     303                      .dwattr $C$DW$39, DW_AT_low_pc(0x00)
     304                      .dwattr $C$DW$39, DW_AT_name("_vListInitialise")
     305                      .dwattr $C$DW$39, DW_AT_TI_call
     306 00009b 6C00          CALL #_vListInitialise ; |296| 
         00009d 0000!
     307                                                      ; call occurs [#_vListInitialise] ; |296| 
     308                      .dwpsn  file "../FreeRTOS/Source/queue.c",line 297,column 4,is_stmt
     309 00009f ED08          MOV dbl(*SP(#4)), XAR0
         0000a1 8F   
     310 0000a2 1412          AADD #18, AR0 ; |297| 
         0000a4 84   
     311              $C$DW$40        .dwtag  DW_TAG_TI_branch
     312                      .dwattr $C$DW$40, DW_AT_low_pc(0x00)
     313                      .dwattr $C$DW$40, DW_AT_name("_vListInitialise")
     314                      .dwattr $C$DW$40, DW_AT_TI_call
     315 0000a5 6C00          CALL #_vListInitialise ; |297| 
         0000a7 0000!
     316                                                      ; call occurs [#_vListInitialise] ; |297| 
     317 0000a9       $C$L4:    
     318                      .dwpsn  file "../FreeRTOS/Source/queue.c",line 300,column 2,is_stmt
     319 0000a9 A931          MOV *(#_usCriticalNesting), AR1 ; |300| 
         0000ab 0000 
         0000ad 00!  
     320 0000ae 0409          BCC $C$L5,AR1 == #0 ; |300| 
         0000b0 14   
     321                                                      ; branchcc occurs ; |300| 
     322 0000b1 F731          SUB #1, *(#_usCriticalNesting) ; |300| 
         0000b3 FFFF 
         0000b5 0000 
         0000b7 00!  
     323 0000b8 20            NOP
     324 0000b9 20            NOP
     325 0000ba 20            NOP
     326 0000bb A931          MOV *(#_usCriticalNesting), AR1 ; |300| 
         0000bd 0000 
         0000bf 00!  
     327 0000c0 6199          BCC $C$L5,AR1 != #0 ; |300| 
     328                                                      ; branchcc occurs ; |300| 
TMS320C55x Assembler PC v4.4.1 Sun Sep 09 04:48:36 2018

Tools Copyright (c) 1996-2012 Texas Instruments Incorporated
queue.asm                                                            PAGE    8

     329 0000c2 20     nop
     330 0000c3 46B2   bclr INTM
     331 0000c5       $C$L5:    
     332                      .dwpsn  file "../FreeRTOS/Source/queue.c",line 304,column 2,is_stmt
     333 0000c5 3C14          MOV #1, T0
     334                      .dwpsn  file "../FreeRTOS/Source/queue.c",line 305,column 1,is_stmt
     335 0000c7 4E07          AADD #7, SP
     336                      .dwcfi  cfa_offset, 1
     337              $C$DW$41        .dwtag  DW_TAG_TI_branch
     338                      .dwattr $C$DW$41, DW_AT_low_pc(0x00)
     339                      .dwattr $C$DW$41, DW_AT_TI_return
     340 0000c9 4804          RET
     341                                                      ; return occurs
     342                      .dwattr $C$DW$31, DW_AT_TI_end_file("../FreeRTOS/Source/queue.c")
     343                      .dwattr $C$DW$31, DW_AT_TI_end_line(0x131)
     344                      .dwattr $C$DW$31, DW_AT_TI_end_column(0x01)
     345                      .dwendentry
     346                      .dwendtag $C$DW$31
     347              
     348 0000cb               .sect   ".text"
     349                      .align 4
     350                      .global _xQueueGenericCreate
     351              
     352              $C$DW$42        .dwtag  DW_TAG_subprogram, DW_AT_name("xQueueGenericCreate")
     353                      .dwattr $C$DW$42, DW_AT_low_pc(_xQueueGenericCreate)
     354                      .dwattr $C$DW$42, DW_AT_high_pc(0x00)
     355                      .dwattr $C$DW$42, DW_AT_TI_symbol_name("_xQueueGenericCreate")
     356                      .dwattr $C$DW$42, DW_AT_external
     357                      .dwattr $C$DW$42, DW_AT_type(*$C$DW$T$46)
     358                      .dwattr $C$DW$42, DW_AT_TI_begin_file("../FreeRTOS/Source/queue.c")
     359                      .dwattr $C$DW$42, DW_AT_TI_begin_line(0x170)
     360                      .dwattr $C$DW$42, DW_AT_TI_begin_column(0x10)
     361                      .dwattr $C$DW$42, DW_AT_TI_max_frame_size(0x0c)
     362                      .dwpsn  file "../FreeRTOS/Source/queue.c",line 369,column 2,is_stmt,address _xQueueGenericCreate
     363              
     364                      .dwfde $C$DW$CIE, _xQueueGenericCreate
     365              $C$DW$43        .dwtag  DW_TAG_formal_parameter, DW_AT_name("uxQueueLength")
     366                      .dwattr $C$DW$43, DW_AT_TI_symbol_name("_uxQueueLength")
     367                      .dwattr $C$DW$43, DW_AT_type(*$C$DW$T$48)
     368                      .dwattr $C$DW$43, DW_AT_location[DW_OP_reg12]
     369              $C$DW$44        .dwtag  DW_TAG_formal_parameter, DW_AT_name("uxItemSize")
     370                      .dwattr $C$DW$44, DW_AT_TI_symbol_name("_uxItemSize")
     371                      .dwattr $C$DW$44, DW_AT_type(*$C$DW$T$48)
     372                      .dwattr $C$DW$44, DW_AT_location[DW_OP_reg13]
     373              $C$DW$45        .dwtag  DW_TAG_formal_parameter, DW_AT_name("ucQueueType")
     374                      .dwattr $C$DW$45, DW_AT_TI_symbol_name("_ucQueueType")
     375                      .dwattr $C$DW$45, DW_AT_type(*$C$DW$T$50)
     376                      .dwattr $C$DW$45, DW_AT_location[DW_OP_reg16]
     377              ;*******************************************************************************
     378              ;* FUNCTION NAME: xQueueGenericCreate                                          *
     379              ;*                                                                             *
     380              ;*   Function Uses Regs : AC0,AC0,T0,T1,AR0,XAR0,AR1,AR2,XAR2,AR3,XAR3,SP,     *
     381              ;*                        CARRY,M40,SATA,SATD,RDM,FRCT,SMUL                    *
     382              ;*   Stack Frame        : Compact (No Frame Pointer, w/ debug)                 *
     383              ;*   Total Frame Size   : 12 words                                             *
TMS320C55x Assembler PC v4.4.1 Sun Sep 09 04:48:36 2018

Tools Copyright (c) 1996-2012 Texas Instruments Incorporated
queue.asm                                                            PAGE    9

     384              ;*                        (2 return address/alignment)                         *
     385              ;*                        (10 local values)                                    *
     386              ;*   Min System Stack   : 1 word                                               *
     387              ;*******************************************************************************
     388 0000cc       _xQueueGenericCreate:
     389                      .dwcfi  cfa_offset, 1
     390                      .dwcfi  save_reg_to_mem, 91, -1
     391 0000cc 4EF5          AADD #-11, SP
     392                      .dwcfi  cfa_offset, 12
     393              $C$DW$46        .dwtag  DW_TAG_variable, DW_AT_name("uxQueueLength")
     394                      .dwattr $C$DW$46, DW_AT_TI_symbol_name("_uxQueueLength")
     395                      .dwattr $C$DW$46, DW_AT_type(*$C$DW$T$48)
     396                      .dwattr $C$DW$46, DW_AT_location[DW_OP_bregx 0x24 0]
     397              $C$DW$47        .dwtag  DW_TAG_variable, DW_AT_name("uxItemSize")
     398                      .dwattr $C$DW$47, DW_AT_TI_symbol_name("_uxItemSize")
     399                      .dwattr $C$DW$47, DW_AT_type(*$C$DW$T$48)
     400                      .dwattr $C$DW$47, DW_AT_location[DW_OP_bregx 0x24 1]
     401              $C$DW$48        .dwtag  DW_TAG_variable, DW_AT_name("ucQueueType")
     402                      .dwattr $C$DW$48, DW_AT_TI_symbol_name("_ucQueueType")
     403                      .dwattr $C$DW$48, DW_AT_type(*$C$DW$T$50)
     404                      .dwattr $C$DW$48, DW_AT_location[DW_OP_bregx 0x24 2]
     405              $C$DW$49        .dwtag  DW_TAG_variable, DW_AT_name("pxNewQueue")
     406                      .dwattr $C$DW$49, DW_AT_TI_symbol_name("_pxNewQueue")
     407                      .dwattr $C$DW$49, DW_AT_type(*$C$DW$T$56)
     408                      .dwattr $C$DW$49, DW_AT_location[DW_OP_bregx 0x24 4]
     409              $C$DW$50        .dwtag  DW_TAG_variable, DW_AT_name("xQueueSizeInBytes")
     410                      .dwattr $C$DW$50, DW_AT_TI_symbol_name("_xQueueSizeInBytes")
     411                      .dwattr $C$DW$50, DW_AT_type(*$C$DW$T$60)
     412                      .dwattr $C$DW$50, DW_AT_location[DW_OP_bregx 0x24 6]
     413              $C$DW$51        .dwtag  DW_TAG_variable, DW_AT_name("pucQueueStorage")
     414                      .dwattr $C$DW$51, DW_AT_TI_symbol_name("_pucQueueStorage")
     415                      .dwattr $C$DW$51, DW_AT_type(*$C$DW$T$84)
     416                      .dwattr $C$DW$51, DW_AT_location[DW_OP_bregx 0x24 8]
     417 0000ce C804          MOV AR0, *SP(#2) ; |369| 
     418 0000d0 C502          MOV T1, *SP(#1) ; |369| 
     419 0000d2 C400          MOV T0, *SP(#0) ; |369| 
     420                      .dwpsn  file "../FreeRTOS/Source/queue.c",line 376,column 3,is_stmt
     421 0000d4 A902          MOV *SP(#1), AR1 ; |376| 
     422 0000d6 6299          BCC $C$L6,AR1 != #0 ; |376| 
     423                                                      ; branchcc occurs ; |376| 
     424                      .dwpsn  file "../FreeRTOS/Source/queue.c",line 379,column 4,is_stmt
     425 0000d8 E60C          MOV #0, *SP(#6) ; |379| 
         0000da 00   
     426                      .dwpsn  file "../FreeRTOS/Source/queue.c",line 380,column 3,is_stmt
     427 0000db 4A07          B $C$L7   ; |380| 
     428                                                      ; branch occurs ; |380| 
     429 0000dd       $C$L6:    
     430                      .dwpsn  file "../FreeRTOS/Source/queue.c",line 385,column 4,is_stmt
     431 0000dd 2295          MOV AR1, T1
     432 0000df D300          MPYM *SP(#0), T1, AC0 ; |385| 
         0000e1 05   
     433 0000e2 C00C          MOV AC0, *SP(#6) ; |385| 
     434 0000e4       $C$L7:    
     435                      .dwpsn  file "../FreeRTOS/Source/queue.c",line 397,column 3,is_stmt
     436 0000e4 A90C          MOV *SP(#6), AR1 ; |397| 
TMS320C55x Assembler PC v4.4.1 Sun Sep 09 04:48:36 2018

Tools Copyright (c) 1996-2012 Texas Instruments Incorporated
queue.asm                                                            PAGE   10

     437 0000e6 7B00          ADD #34, AR1, T0 ; |397| 
         0000e8 2249 
     438              $C$DW$52        .dwtag  DW_TAG_TI_branch
     439                      .dwattr $C$DW$52, DW_AT_low_pc(0x00)
     440                      .dwattr $C$DW$52, DW_AT_name("_pvPortMalloc")
     441                      .dwattr $C$DW$52, DW_AT_TI_call
     442 0000ea 6C00          CALL #_pvPortMalloc ; |397| 
         0000ec 0000!
     443                                                      ; call occurs [#_pvPortMalloc] ; |397| 
     444 0000ee EB08          MOV XAR0, dbl(*SP(#4))
         0000f0 85   
     445                      .dwpsn  file "../FreeRTOS/Source/queue.c",line 399,column 3,is_stmt
     446 0000f1 ED08          MOV dbl(*SP(#4)), XAR3
         0000f3 BF   
     447 0000f4 90B0          MOV XAR3, AC0
     448 0000f6 0400          BCC $C$L8,AC0 == #0 ; |399| 
         0000f8 18   
     449                                                      ; branchcc occurs ; |399| 
     450                      .dwpsn  file "../FreeRTOS/Source/queue.c",line 403,column 4,is_stmt
     451 0000f9 EB10          MOV XAR3, dbl(*SP(#8))
         0000fb B5   
     452                      .dwpsn  file "../FreeRTOS/Source/queue.c",line 404,column 4,is_stmt
     453              
     454 0000fc 8E10          MOV XAR3, dbl(*SP(#8))
         0000fe BB14 
         000100 B522 
     455              ||      AADD #34, AR3 ; |404| 
     456              
     457                      .dwpsn  file "../FreeRTOS/Source/queue.c",line 415,column 4,is_stmt
     458 000102 A400          MOV *SP(#0), T0 ; |415| 
     459 000104 A502          MOV *SP(#1), T1 ; |415| 
     460 000106 ED10          MOV dbl(*SP(#8)), XAR0
         000108 8F   
     461 000109 A904          MOV *SP(#2), AR1 ; |415| 
     462 00010b ED08          MOV dbl(*SP(#4)), XAR2
         00010d AF   
     463              $C$DW$53        .dwtag  DW_TAG_TI_branch
     464                      .dwattr $C$DW$53, DW_AT_low_pc(0x00)
     465                      .dwattr $C$DW$53, DW_AT_name("_prvInitialiseNewQueue")
     466                      .dwattr $C$DW$53, DW_AT_TI_call
     467 00010e 0800          CALL #_prvInitialiseNewQueue ; |415| 
         000110 07   
     468                                                      ; call occurs [#_prvInitialiseNewQueue] ; |415| 
     469                      .dwpsn  file "../FreeRTOS/Source/queue.c",line 416,column 3,is_stmt
     470 000111       $C$L8:    
     471                      .dwpsn  file "../FreeRTOS/Source/queue.c",line 423,column 3,is_stmt
     472 000111 ED08          MOV dbl(*SP(#4)), XAR0
         000113 8F   
     473                      .dwpsn  file "../FreeRTOS/Source/queue.c",line 424,column 2,is_stmt
     474 000114 4E0B          AADD #11, SP
     475                      .dwcfi  cfa_offset, 1
     476              $C$DW$54        .dwtag  DW_TAG_TI_branch
     477                      .dwattr $C$DW$54, DW_AT_low_pc(0x00)
     478                      .dwattr $C$DW$54, DW_AT_TI_return
     479 000116 4804          RET
TMS320C55x Assembler PC v4.4.1 Sun Sep 09 04:48:36 2018

Tools Copyright (c) 1996-2012 Texas Instruments Incorporated
queue.asm                                                            PAGE   11

     480                                                      ; return occurs
     481                      .dwattr $C$DW$42, DW_AT_TI_end_file("../FreeRTOS/Source/queue.c")
     482                      .dwattr $C$DW$42, DW_AT_TI_end_line(0x1a8)
     483                      .dwattr $C$DW$42, DW_AT_TI_end_column(0x02)
     484                      .dwendentry
     485                      .dwendtag $C$DW$42
     486              
     487 000118               .sect   ".text"
     488                      .align 4
     489              
     490              $C$DW$55        .dwtag  DW_TAG_subprogram, DW_AT_name("prvInitialiseNewQueue")
     491                      .dwattr $C$DW$55, DW_AT_low_pc(_prvInitialiseNewQueue)
     492                      .dwattr $C$DW$55, DW_AT_high_pc(0x00)
     493                      .dwattr $C$DW$55, DW_AT_TI_symbol_name("_prvInitialiseNewQueue")
     494                      .dwattr $C$DW$55, DW_AT_TI_begin_file("../FreeRTOS/Source/queue.c")
     495                      .dwattr $C$DW$55, DW_AT_TI_begin_line(0x1ad)
     496                      .dwattr $C$DW$55, DW_AT_TI_begin_column(0x0d)
     497                      .dwattr $C$DW$55, DW_AT_TI_max_frame_size(0x0a)
     498                      .dwpsn  file "../FreeRTOS/Source/queue.c",line 430,column 1,is_stmt,address _prvInitialiseNewQueue
     499              
     500                      .dwfde $C$DW$CIE, _prvInitialiseNewQueue
     501              $C$DW$56        .dwtag  DW_TAG_formal_parameter, DW_AT_name("uxQueueLength")
     502                      .dwattr $C$DW$56, DW_AT_TI_symbol_name("_uxQueueLength")
     503                      .dwattr $C$DW$56, DW_AT_type(*$C$DW$T$48)
     504                      .dwattr $C$DW$56, DW_AT_location[DW_OP_reg12]
     505              $C$DW$57        .dwtag  DW_TAG_formal_parameter, DW_AT_name("uxItemSize")
     506                      .dwattr $C$DW$57, DW_AT_TI_symbol_name("_uxItemSize")
     507                      .dwattr $C$DW$57, DW_AT_type(*$C$DW$T$48)
     508                      .dwattr $C$DW$57, DW_AT_location[DW_OP_reg13]
     509              $C$DW$58        .dwtag  DW_TAG_formal_parameter, DW_AT_name("pucQueueStorage")
     510                      .dwattr $C$DW$58, DW_AT_TI_symbol_name("_pucQueueStorage")
     511                      .dwattr $C$DW$58, DW_AT_type(*$C$DW$T$84)
     512                      .dwattr $C$DW$58, DW_AT_location[DW_OP_reg17]
     513              $C$DW$59        .dwtag  DW_TAG_formal_parameter, DW_AT_name("ucQueueType")
     514                      .dwattr $C$DW$59, DW_AT_TI_symbol_name("_ucQueueType")
     515                      .dwattr $C$DW$59, DW_AT_type(*$C$DW$T$50)
     516                      .dwattr $C$DW$59, DW_AT_location[DW_OP_reg18]
     517              $C$DW$60        .dwtag  DW_TAG_formal_parameter, DW_AT_name("pxNewQueue")
     518                      .dwattr $C$DW$60, DW_AT_TI_symbol_name("_pxNewQueue")
     519                      .dwattr $C$DW$60, DW_AT_type(*$C$DW$T$56)
     520                      .dwattr $C$DW$60, DW_AT_location[DW_OP_reg21]
     521              ;*******************************************************************************
     522              ;* FUNCTION NAME: prvInitialiseNewQueue                                        *
     523              ;*                                                                             *
     524              ;*   Function Uses Regs : T0,T1,AR0,XAR0,AR1,AR2,XAR2,AR3,XAR3,SP,M40,SATA,    *
     525              ;*                        SATD,RDM,FRCT,SMUL                                   *
     526              ;*   Stack Frame        : Compact (No Frame Pointer, w/ debug)                 *
     527              ;*   Total Frame Size   : 10 words                                             *
     528              ;*                        (2 return address/alignment)                         *
     529              ;*                        (8 local values)                                     *
     530              ;*   Min System Stack   : 1 word                                               *
     531              ;*******************************************************************************
     532 000118       _prvInitialiseNewQueue:
     533                      .dwcfi  cfa_offset, 1
     534                      .dwcfi  save_reg_to_mem, 91, -1
TMS320C55x Assembler PC v4.4.1 Sun Sep 09 04:48:36 2018

Tools Copyright (c) 1996-2012 Texas Instruments Incorporated
queue.asm                                                            PAGE   12

     535 000118 4EF7          AADD #-9, SP
     536                      .dwcfi  cfa_offset, 10
     537              $C$DW$61        .dwtag  DW_TAG_variable, DW_AT_name("uxQueueLength")
     538                      .dwattr $C$DW$61, DW_AT_TI_symbol_name("_uxQueueLength")
     539                      .dwattr $C$DW$61, DW_AT_type(*$C$DW$T$48)
     540                      .dwattr $C$DW$61, DW_AT_location[DW_OP_bregx 0x24 0]
     541              $C$DW$62        .dwtag  DW_TAG_variable, DW_AT_name("uxItemSize")
     542                      .dwattr $C$DW$62, DW_AT_TI_symbol_name("_uxItemSize")
     543                      .dwattr $C$DW$62, DW_AT_type(*$C$DW$T$48)
     544                      .dwattr $C$DW$62, DW_AT_location[DW_OP_bregx 0x24 1]
     545              $C$DW$63        .dwtag  DW_TAG_variable, DW_AT_name("pucQueueStorage")
     546                      .dwattr $C$DW$63, DW_AT_TI_symbol_name("_pucQueueStorage")
     547                      .dwattr $C$DW$63, DW_AT_type(*$C$DW$T$84)
     548                      .dwattr $C$DW$63, DW_AT_location[DW_OP_bregx 0x24 2]
     549              $C$DW$64        .dwtag  DW_TAG_variable, DW_AT_name("ucQueueType")
     550                      .dwattr $C$DW$64, DW_AT_TI_symbol_name("_ucQueueType")
     551                      .dwattr $C$DW$64, DW_AT_type(*$C$DW$T$50)
     552                      .dwattr $C$DW$64, DW_AT_location[DW_OP_bregx 0x24 4]
     553              $C$DW$65        .dwtag  DW_TAG_variable, DW_AT_name("pxNewQueue")
     554                      .dwattr $C$DW$65, DW_AT_TI_symbol_name("_pxNewQueue")
     555                      .dwattr $C$DW$65, DW_AT_type(*$C$DW$T$56)
     556                      .dwattr $C$DW$65, DW_AT_location[DW_OP_bregx 0x24 6]
     557 00011a EB0C          MOV XAR2, dbl(*SP(#6))
         00011c A5   
     558 00011d C908          MOV AR1, *SP(#4) ; |430| 
     559 00011f EB04          MOV XAR0, dbl(*SP(#2))
         000121 85   
     560 000122 C502          MOV T1, *SP(#1) ; |430| 
     561 000124 C400          MOV T0, *SP(#0) ; |430| 
     562                      .dwpsn  file "../FreeRTOS/Source/queue.c",line 433,column 2,is_stmt
     563                      .dwpsn  file "../FreeRTOS/Source/queue.c",line 435,column 2,is_stmt
     564 000126 A902          MOV *SP(#1), AR1 ; |435| 
     565 000128 6599          BCC $C$L9,AR1 != #0 ; |435| 
     566                                                      ; branchcc occurs ; |435| 
     567                      .dwpsn  file "../FreeRTOS/Source/queue.c",line 441,column 3,is_stmt
     568 00012a ED0C          MOV dbl(*SP(#6)), XAR2
         00012c AF   
     569 00012d ED0C          MOV dbl(*SP(#6)), XAR3
         00012f BF   
     570 000130 EB41          MOV XAR3, dbl(*AR2)
         000132 B5   
     571                      .dwpsn  file "../FreeRTOS/Source/queue.c",line 442,column 2,is_stmt
     572 000133 4A09          B $C$L10  ; |442| 
     573                                                      ; branch occurs ; |442| 
     574 000135       $C$L9:    
     575                      .dwpsn  file "../FreeRTOS/Source/queue.c",line 446,column 3,is_stmt
     576 000135 ED0C          MOV dbl(*SP(#6)), XAR2
         000137 AF   
     577 000138 ED04          MOV dbl(*SP(#2)), XAR3
         00013a BF   
     578 00013b EB41          MOV XAR3, dbl(*AR2)
         00013d B5   
     579 00013e       $C$L10:    
     580                      .dwpsn  file "../FreeRTOS/Source/queue.c",line 451,column 2,is_stmt
     581 00013e ED0C          MOV dbl(*SP(#6)), XAR3
TMS320C55x Assembler PC v4.4.1 Sun Sep 09 04:48:36 2018

Tools Copyright (c) 1996-2012 Texas Instruments Incorporated
queue.asm                                                            PAGE   13

         000140 BF   
     582 000141 A900          MOV *SP(#0), AR1 ; |451| 
     583 000143 C96D          MOV AR1, *AR3(#29) ; |451| 
         000145 001D 
     584                      .dwpsn  file "../FreeRTOS/Source/queue.c",line 452,column 2,is_stmt
     585 000147 ED0C          MOV dbl(*SP(#6)), XAR3
         000149 BF   
     586 00014a A902          MOV *SP(#1), AR1 ; |452| 
     587 00014c C96D          MOV AR1, *AR3(#30) ; |452| 
         00014e 001E 
     588                      .dwpsn  file "../FreeRTOS/Source/queue.c",line 453,column 2,is_stmt
     589 000150 3C14          MOV #1, T0
     590 000152 ED0C          MOV dbl(*SP(#6)), XAR0
         000154 8F   
     591              $C$DW$66        .dwtag  DW_TAG_TI_branch
     592                      .dwattr $C$DW$66, DW_AT_low_pc(0x00)
     593                      .dwattr $C$DW$66, DW_AT_name("_xQueueGenericReset")
     594                      .dwattr $C$DW$66, DW_AT_TI_call
     595 000155 08FE          CALL #_xQueueGenericReset ; |453| 
         000157 A8   
     596                                                      ; call occurs [#_xQueueGenericReset] ; |453| 
     597                      .dwpsn  file "../FreeRTOS/Source/queue.c",line 468,column 1,is_stmt
     598 000158 4E09          AADD #9, SP
     599                      .dwcfi  cfa_offset, 1
     600              $C$DW$67        .dwtag  DW_TAG_TI_branch
     601                      .dwattr $C$DW$67, DW_AT_low_pc(0x00)
     602                      .dwattr $C$DW$67, DW_AT_TI_return
     603 00015a 4804          RET
     604                                                      ; return occurs
     605                      .dwattr $C$DW$55, DW_AT_TI_end_file("../FreeRTOS/Source/queue.c")
     606                      .dwattr $C$DW$55, DW_AT_TI_end_line(0x1d4)
     607                      .dwattr $C$DW$55, DW_AT_TI_end_column(0x01)
     608                      .dwendentry
     609                      .dwendtag $C$DW$55
     610              
     611 00015c               .sect   ".text"
     612                      .align 4
     613                      .global _xQueueGenericSend
     614              
     615              $C$DW$68        .dwtag  DW_TAG_subprogram, DW_AT_name("xQueueGenericSend")
     616                      .dwattr $C$DW$68, DW_AT_low_pc(_xQueueGenericSend)
     617                      .dwattr $C$DW$68, DW_AT_high_pc(0x00)
     618                      .dwattr $C$DW$68, DW_AT_TI_symbol_name("_xQueueGenericSend")
     619                      .dwattr $C$DW$68, DW_AT_external
     620                      .dwattr $C$DW$68, DW_AT_type(*$C$DW$T$43)
     621                      .dwattr $C$DW$68, DW_AT_TI_begin_file("../FreeRTOS/Source/queue.c")
     622                      .dwattr $C$DW$68, DW_AT_TI_begin_line(0x2eb)
     623                      .dwattr $C$DW$68, DW_AT_TI_begin_column(0x0c)
     624                      .dwattr $C$DW$68, DW_AT_TI_max_frame_size(0x0e)
     625                      .dwpsn  file "../FreeRTOS/Source/queue.c",line 748,column 1,is_stmt,address _xQueueGenericSend
     626              
     627                      .dwfde $C$DW$CIE, _xQueueGenericSend
     628              $C$DW$69        .dwtag  DW_TAG_formal_parameter, DW_AT_name("xQueue")
     629                      .dwattr $C$DW$69, DW_AT_TI_symbol_name("_xQueue")
     630                      .dwattr $C$DW$69, DW_AT_type(*$C$DW$T$46)
TMS320C55x Assembler PC v4.4.1 Sun Sep 09 04:48:36 2018

Tools Copyright (c) 1996-2012 Texas Instruments Incorporated
queue.asm                                                            PAGE   14

     631                      .dwattr $C$DW$69, DW_AT_location[DW_OP_reg17]
     632              $C$DW$70        .dwtag  DW_TAG_formal_parameter, DW_AT_name("pvItemToQueue")
     633                      .dwattr $C$DW$70, DW_AT_TI_symbol_name("_pvItemToQueue")
     634                      .dwattr $C$DW$70, DW_AT_type(*$C$DW$T$65)
     635                      .dwattr $C$DW$70, DW_AT_location[DW_OP_reg19]
     636              $C$DW$71        .dwtag  DW_TAG_formal_parameter, DW_AT_name("xTicksToWait")
     637                      .dwattr $C$DW$71, DW_AT_TI_symbol_name("_xTicksToWait")
     638                      .dwattr $C$DW$71, DW_AT_type(*$C$DW$T$38)
     639                      .dwattr $C$DW$71, DW_AT_location[DW_OP_reg12]
     640              $C$DW$72        .dwtag  DW_TAG_formal_parameter, DW_AT_name("xCopyPosition")
     641                      .dwattr $C$DW$72, DW_AT_TI_symbol_name("_xCopyPosition")
     642                      .dwattr $C$DW$72, DW_AT_type(*$C$DW$T$93)
     643                      .dwattr $C$DW$72, DW_AT_location[DW_OP_reg13]
     644              ;*******************************************************************************
     645              ;* FUNCTION NAME: xQueueGenericSend                                            *
     646              ;*                                                                             *
     647              ;*   Function Uses Regs : T0,T1,AR0,XAR0,AR1,XAR1,AR2,AR3,XAR3,SP,CARRY,TC1,   *
     648              ;*                        M40,SATA,SATD,RDM,FRCT,SMUL                          *
     649              ;*   Stack Frame        : Compact (No Frame Pointer, w/ debug)                 *
     650              ;*   Total Frame Size   : 14 words                                             *
     651              ;*                        (2 return address/alignment)                         *
     652              ;*                        (12 local values)                                    *
     653              ;*   Min System Stack   : 1 word                                               *
     654              ;*******************************************************************************
     655 00015c       _xQueueGenericSend:
     656                      .dwcfi  cfa_offset, 1
     657                      .dwcfi  save_reg_to_mem, 91, -1
     658 00015c 4EF3          AADD #-13, SP
     659                      .dwcfi  cfa_offset, 14
     660              $C$DW$73        .dwtag  DW_TAG_variable, DW_AT_name("xQueue")
     661                      .dwattr $C$DW$73, DW_AT_TI_symbol_name("_xQueue")
     662                      .dwattr $C$DW$73, DW_AT_type(*$C$DW$T$46)
     663                      .dwattr $C$DW$73, DW_AT_location[DW_OP_bregx 0x24 0]
     664              $C$DW$74        .dwtag  DW_TAG_variable, DW_AT_name("pvItemToQueue")
     665                      .dwattr $C$DW$74, DW_AT_TI_symbol_name("_pvItemToQueue")
     666                      .dwattr $C$DW$74, DW_AT_type(*$C$DW$T$65)
     667                      .dwattr $C$DW$74, DW_AT_location[DW_OP_bregx 0x24 2]
     668              $C$DW$75        .dwtag  DW_TAG_variable, DW_AT_name("xTicksToWait")
     669                      .dwattr $C$DW$75, DW_AT_TI_symbol_name("_xTicksToWait")
     670                      .dwattr $C$DW$75, DW_AT_type(*$C$DW$T$38)
     671                      .dwattr $C$DW$75, DW_AT_location[DW_OP_bregx 0x24 4]
     672              $C$DW$76        .dwtag  DW_TAG_variable, DW_AT_name("xCopyPosition")
     673                      .dwattr $C$DW$76, DW_AT_TI_symbol_name("_xCopyPosition")
     674                      .dwattr $C$DW$76, DW_AT_type(*$C$DW$T$93)
     675                      .dwattr $C$DW$76, DW_AT_location[DW_OP_bregx 0x24 5]
     676              $C$DW$77        .dwtag  DW_TAG_variable, DW_AT_name("xEntryTimeSet")
     677                      .dwattr $C$DW$77, DW_AT_TI_symbol_name("_xEntryTimeSet")
     678                      .dwattr $C$DW$77, DW_AT_type(*$C$DW$T$43)
     679                      .dwattr $C$DW$77, DW_AT_location[DW_OP_bregx 0x24 6]
     680              $C$DW$78        .dwtag  DW_TAG_variable, DW_AT_name("xYieldRequired")
     681                      .dwattr $C$DW$78, DW_AT_TI_symbol_name("_xYieldRequired")
     682                      .dwattr $C$DW$78, DW_AT_type(*$C$DW$T$43)
     683                      .dwattr $C$DW$78, DW_AT_location[DW_OP_bregx 0x24 7]
     684              $C$DW$79        .dwtag  DW_TAG_variable, DW_AT_name("xTimeOut")
     685                      .dwattr $C$DW$79, DW_AT_TI_symbol_name("_xTimeOut")
TMS320C55x Assembler PC v4.4.1 Sun Sep 09 04:48:36 2018

Tools Copyright (c) 1996-2012 Texas Instruments Incorporated
queue.asm                                                            PAGE   15

     686                      .dwattr $C$DW$79, DW_AT_type(*$C$DW$T$77)
     687                      .dwattr $C$DW$79, DW_AT_location[DW_OP_bregx 0x24 8]
     688              $C$DW$80        .dwtag  DW_TAG_variable, DW_AT_name("pxQueue")
     689                      .dwattr $C$DW$80, DW_AT_TI_symbol_name("_pxQueue")
     690                      .dwattr $C$DW$80, DW_AT_type(*$C$DW$T$57)
     691                      .dwattr $C$DW$80, DW_AT_location[DW_OP_bregx 0x24 10]
     692 00015e C50A          MOV T1, *SP(#5) ; |748| 
     693 000160 C408          MOV T0, *SP(#4) ; |748| 
     694 000162 EB04          MOV XAR1, dbl(*SP(#2))
         000164 95   
     695 000165 EB00          MOV XAR0, dbl(*SP(#0))
         000167 85   
     696                      .dwpsn  file "../FreeRTOS/Source/queue.c",line 749,column 12,is_stmt
     697 000168 E60C          MOV #0, *SP(#6) ; |749| 
         00016a 00   
     698                      .dwpsn  file "../FreeRTOS/Source/queue.c",line 751,column 17,is_stmt
     699 00016b ED00          MOV dbl(*SP(#0)), XAR3
         00016d BF   
     700 00016e EB14          MOV XAR3, dbl(*SP(#10))
         000170 B5   
     701 000171       $C$L11:    
     702 000171       $C$DW$L$_xQueueGenericSend$2$B:
     703                      .dwpsn  file "../FreeRTOS/Source/queue.c",line 768,column 3,is_stmt
     704 000171 20     nop
     705 000172 46B3   bset INTM
     706 000174 F731          ADD #1, *(#_usCriticalNesting) ; |768| 
         000176 0001 
         000178 0000 
         00017a 00!  
     707 00017b 20            NOP
     708                      .dwpsn  file "../FreeRTOS/Source/queue.c",line 774,column 4,is_stmt
     709 00017c ED14          MOV dbl(*SP(#10)), XAR3
         00017e BF   
     710 00017f A96D          MOV *AR3(#29), AR1 ; |774| 
         000181 001D 
     711 000183 AA6D          MOV *AR3(#28), AR2 ; |774| 
         000185 001C 
     712 000187 12A4          CMPU AR2 < AR1, TC1 ; |774| 
         000189 94   
     713 00018a 63E4          BCC $C$L12,TC1 ; |774| 
     714                                                      ; branchcc occurs ; |774| 
     715 00018c       $C$DW$L$_xQueueGenericSend$2$E:
     716 00018c       $C$DW$L$_xQueueGenericSend$3$B:
     717 00018c F00A          CMP *SP(#5) == #2, TC1 ; |774| 
         00018e 0002 
     718 000190 0474          BCC $C$L18,!TC1 ; |774| 
         000192 5A   
     719                                                      ; branchcc occurs ; |774| 
     720 000193       $C$DW$L$_xQueueGenericSend$3$E:
     721 000193       $C$L12:    
     722                      .dwpsn  file "../FreeRTOS/Source/queue.c",line 840,column 6,is_stmt
     723 000193 ED14          MOV dbl(*SP(#10)), XAR0
         000195 8F   
     724 000196 ED04          MOV dbl(*SP(#2)), XAR1
         000198 9F   
TMS320C55x Assembler PC v4.4.1 Sun Sep 09 04:48:36 2018

Tools Copyright (c) 1996-2012 Texas Instruments Incorporated
queue.asm                                                            PAGE   16

     725 000199 A40A          MOV *SP(#5), T0 ; |840| 
     726              $C$DW$81        .dwtag  DW_TAG_TI_branch
     727                      .dwattr $C$DW$81, DW_AT_low_pc(0x00)
     728                      .dwattr $C$DW$81, DW_AT_name("_prvCopyDataToQueue")
     729                      .dwattr $C$DW$81, DW_AT_TI_call
     730 00019b 0808          CALL #_prvCopyDataToQueue ; |840| 
         00019d 56   
     731                                                      ; call occurs [#_prvCopyDataToQueue] ; |840| 
     732 00019e C40E          MOV T0, *SP(#7) ; |840| 
     733                      .dwpsn  file "../FreeRTOS/Source/queue.c",line 844,column 6,is_stmt
     734 0001a0 ED14          MOV dbl(*SP(#10)), XAR3
         0001a2 BF   
     735 0001a3 A96D          MOV *AR3(#18), AR1 ; |844| 
         0001a5 0012 
     736 0001a7 6219          BCC $C$L13,AR1 != #0 ; |844| 
     737                                                      ; branchcc occurs ; |844| 
     738 0001a9 3C19          MOV #1, AR1
     739 0001ab 4A02          B $C$L14  ; |844| 
     740                                                      ; branch occurs ; |844| 
     741 0001ad       $C$L13:    
     742 0001ad 3C09          MOV #0, AR1
     743 0001af       $C$L14:    
     744 0001af 0419          BCC $C$L15,AR1 != #0 ; |844| 
         0001b1 12   
     745                                                      ; branchcc occurs ; |844| 
     746                      .dwpsn  file "../FreeRTOS/Source/queue.c",line 846,column 7,is_stmt
     747 0001b2 ED14          MOV dbl(*SP(#10)), XAR0
         0001b4 8F   
     748 0001b5 1412          AADD #18, AR0 ; |846| 
         0001b7 84   
     749              $C$DW$82        .dwtag  DW_TAG_TI_branch
     750                      .dwattr $C$DW$82, DW_AT_low_pc(0x00)
     751                      .dwattr $C$DW$82, DW_AT_name("_xTaskRemoveFromEventList")
     752                      .dwattr $C$DW$82, DW_AT_TI_call
     753 0001b8 6C00          CALL #_xTaskRemoveFromEventList ; |846| 
         0001ba 0000!
     754                                                      ; call occurs [#_xTaskRemoveFromEventList] ; |846| 
     755 0001bc 6704          BCC $C$L16,T0 == #0 ; |846| 
     756                                                      ; branchcc occurs ; |846| 
     757                      .dwpsn  file "../FreeRTOS/Source/queue.c",line 852,column 8,is_stmt
     758              $C$DW$83        .dwtag  DW_TAG_TI_branch
     759                      .dwattr $C$DW$83, DW_AT_low_pc(0x00)
     760                      .dwattr $C$DW$83, DW_AT_name("_vPortYield")
     761                      .dwattr $C$DW$83, DW_AT_TI_call
     762 0001be 6C00          CALL #_vPortYield ; |852| 
         0001c0 0000!
     763                                                      ; call occurs [#_vPortYield] ; |852| 
     764                      .dwpsn  file "../FreeRTOS/Source/queue.c",line 853,column 7,is_stmt
     765 0001c2 4A08          B $C$L16  ; |853| 
     766                                                      ; branch occurs ; |853| 
     767 0001c4       $C$L15:    
     768                      .dwpsn  file "../FreeRTOS/Source/queue.c",line 859,column 11,is_stmt
     769 0001c4 2249          MOV T0, AR1
     770 0001c6 6209          BCC $C$L16,AR1 == #0 ; |859| 
     771                                                      ; branchcc occurs ; |859| 
TMS320C55x Assembler PC v4.4.1 Sun Sep 09 04:48:36 2018

Tools Copyright (c) 1996-2012 Texas Instruments Incorporated
queue.asm                                                            PAGE   17

     772                      .dwpsn  file "../FreeRTOS/Source/queue.c",line 865,column 7,is_stmt
     773              $C$DW$84        .dwtag  DW_TAG_TI_branch
     774                      .dwattr $C$DW$84, DW_AT_low_pc(0x00)
     775                      .dwattr $C$DW$84, DW_AT_name("_vPortYield")
     776                      .dwattr $C$DW$84, DW_AT_TI_call
     777 0001c8 6C00          CALL #_vPortYield ; |865| 
         0001ca 0000!
     778                                                      ; call occurs [#_vPortYield] ; |865| 
     779                      .dwpsn  file "../FreeRTOS/Source/queue.c",line 866,column 6,is_stmt
     780 0001cc       $C$L16:    
     781                      .dwpsn  file "../FreeRTOS/Source/queue.c",line 874,column 5,is_stmt
     782 0001cc A931          MOV *(#_usCriticalNesting), AR1 ; |874| 
         0001ce 0000 
         0001d0 00!  
     783 0001d1 0409          BCC $C$L17,AR1 == #0 ; |874| 
         0001d3 14   
     784                                                      ; branchcc occurs ; |874| 
     785 0001d4 F731          SUB #1, *(#_usCriticalNesting) ; |874| 
         0001d6 FFFF 
         0001d8 0000 
         0001da 00!  
     786 0001db 20            NOP
     787 0001dc 20            NOP
     788 0001dd 20            NOP
     789 0001de A931          MOV *(#_usCriticalNesting), AR1 ; |874| 
         0001e0 0000 
         0001e2 00!  
     790 0001e3 6199          BCC $C$L17,AR1 != #0 ; |874| 
     791                                                      ; branchcc occurs ; |874| 
     792 0001e5 20     nop
     793 0001e6 46B2   bclr INTM
     794 0001e8       $C$L17:    
     795                      .dwpsn  file "../FreeRTOS/Source/queue.c",line 875,column 5,is_stmt
     796 0001e8 3C14          MOV #1, T0
     797 0001ea 0600          B $C$L28  ; |875| 
         0001ec EE   
     798                                                      ; branch occurs ; |875| 
     799 0001ed       $C$L18:    
     800 0001ed       $C$DW$L$_xQueueGenericSend$18$B:
     801                      .dwpsn  file "../FreeRTOS/Source/queue.c",line 879,column 5,is_stmt
     802 0001ed A908          MOV *SP(#4), AR1 ; |879| 
     803 0001ef 0419          BCC $C$L20,AR1 != #0 ; |879| 
         0001f1 21   
     804                                                      ; branchcc occurs ; |879| 
     805 0001f2       $C$DW$L$_xQueueGenericSend$18$E:
     806                      .dwpsn  file "../FreeRTOS/Source/queue.c",line 883,column 6,is_stmt
     807 0001f2 A931          MOV *(#_usCriticalNesting), AR1 ; |883| 
         0001f4 0000 
         0001f6 00!  
     808 0001f7 0409          BCC $C$L19,AR1 == #0 ; |883| 
         0001f9 14   
     809                                                      ; branchcc occurs ; |883| 
     810 0001fa F731          SUB #1, *(#_usCriticalNesting) ; |883| 
         0001fc FFFF 
         0001fe 0000 
TMS320C55x Assembler PC v4.4.1 Sun Sep 09 04:48:36 2018

Tools Copyright (c) 1996-2012 Texas Instruments Incorporated
queue.asm                                                            PAGE   18

         000200 00!  
     811 000201 20            NOP
     812 000202 20            NOP
     813 000203 20            NOP
     814 000204 A931          MOV *(#_usCriticalNesting), AR1 ; |883| 
         000206 0000 
         000208 00!  
     815 000209 6199          BCC $C$L19,AR1 != #0 ; |883| 
     816                                                      ; branchcc occurs ; |883| 
     817 00020b 20     nop
     818 00020c 46B2   bclr INTM
     819 00020e       $C$L19:    
     820                      .dwpsn  file "../FreeRTOS/Source/queue.c",line 888,column 6,is_stmt
     821 00020e 3C04          MOV #0, T0
     822 000210 0600          B $C$L28  ; |888| 
         000212 C8   
     823                                                      ; branch occurs ; |888| 
     824 000213       $C$L20:    
     825 000213       $C$DW$L$_xQueueGenericSend$24$B:
     826                      .dwpsn  file "../FreeRTOS/Source/queue.c",line 890,column 10,is_stmt
     827 000213 A90C          MOV *SP(#6), AR1 ; |890| 
     828 000215 6519          BCC $C$L21,AR1 != #0 ; |890| 
     829                                                      ; branchcc occurs ; |890| 
     830 000217       $C$DW$L$_xQueueGenericSend$24$E:
     831 000217       $C$DW$L$_xQueueGenericSend$25$B:
     832                      .dwpsn  file "../FreeRTOS/Source/queue.c",line 894,column 6,is_stmt
     833 000217 EC10          AMAR *SP(#8), XAR0
         000219 8E   
     834              $C$DW$85        .dwtag  DW_TAG_TI_branch
     835                      .dwattr $C$DW$85, DW_AT_low_pc(0x00)
     836                      .dwattr $C$DW$85, DW_AT_name("_vTaskInternalSetTimeOutState")
     837                      .dwattr $C$DW$85, DW_AT_TI_call
     838 00021a 6C00          CALL #_vTaskInternalSetTimeOutState ; |894| 
         00021c 0000!
     839                                                      ; call occurs [#_vTaskInternalSetTimeOutState] ; |894| 
     840                      .dwpsn  file "../FreeRTOS/Source/queue.c",line 895,column 6,is_stmt
     841 00021e E60C          MOV #1, *SP(#6) ; |895| 
         000220 01   
     842                      .dwpsn  file "../FreeRTOS/Source/queue.c",line 896,column 5,is_stmt
     843 000221       $C$DW$L$_xQueueGenericSend$25$E:
     844 000221       $C$L21:    
     845 000221       $C$DW$L$_xQueueGenericSend$26$B:
     846                      .dwpsn  file "../FreeRTOS/Source/queue.c",line 904,column 3,is_stmt
     847 000221 A931          MOV *(#_usCriticalNesting), AR1 ; |904| 
         000223 0000 
         000225 00!  
     848 000226 0409          BCC $C$L22,AR1 == #0 ; |904| 
         000228 14   
     849                                                      ; branchcc occurs ; |904| 
     850 000229       $C$DW$L$_xQueueGenericSend$26$E:
     851 000229       $C$DW$L$_xQueueGenericSend$27$B:
     852 000229 F731          SUB #1, *(#_usCriticalNesting) ; |904| 
         00022b FFFF 
         00022d 0000 
         00022f 00!  
TMS320C55x Assembler PC v4.4.1 Sun Sep 09 04:48:36 2018

Tools Copyright (c) 1996-2012 Texas Instruments Incorporated
queue.asm                                                            PAGE   19

     853 000230 20            NOP
     854 000231 20            NOP
     855 000232 20            NOP
     856 000233 A931          MOV *(#_usCriticalNesting), AR1 ; |904| 
         000235 0000 
         000237 00!  
     857 000238 6199          BCC $C$L22,AR1 != #0 ; |904| 
     858                                                      ; branchcc occurs ; |904| 
     859 00023a       $C$DW$L$_xQueueGenericSend$27$E:
     860 00023a       $C$DW$L$_xQueueGenericSend$28$B:
     861 00023a 20     nop
     862 00023b 46B2   bclr INTM
     863 00023d       $C$DW$L$_xQueueGenericSend$28$E:
     864 00023d       $C$L22:    
     865 00023d       $C$DW$L$_xQueueGenericSend$29$B:
     866                      .dwpsn  file "../FreeRTOS/Source/queue.c",line 909,column 3,is_stmt
     867              $C$DW$86        .dwtag  DW_TAG_TI_branch
     868                      .dwattr $C$DW$86, DW_AT_low_pc(0x00)
     869                      .dwattr $C$DW$86, DW_AT_name("_vTaskSuspendAll")
     870                      .dwattr $C$DW$86, DW_AT_TI_call
     871 00023d 6C00          CALL #_vTaskSuspendAll ; |909| 
         00023f 0000!
     872                                                      ; call occurs [#_vTaskSuspendAll] ; |909| 
     873                      .dwpsn  file "../FreeRTOS/Source/queue.c",line 910,column 3,is_stmt
     874 000241 20     nop
     875 000242 46B3   bset INTM
     876 000244 F731          ADD #1, *(#_usCriticalNesting) ; |910| 
         000246 0001 
         000248 0000 
         00024a 00!  
     877 00024b 20            NOP
     878 00024c 20            NOP
     879 00024d ED14          MOV dbl(*SP(#10)), XAR3
         00024f BF   
     880 000250 F06D          CMP *AR3(#31) == #-1, TC1 ; |910| 
         000252 FFFF 
         000254 001F 
     881 000256 62F4          BCC $C$L23,!TC1 ; |910| 
     882                                                      ; branchcc occurs ; |910| 
     883 000258       $C$DW$L$_xQueueGenericSend$29$E:
     884 000258       $C$DW$L$_xQueueGenericSend$30$B:
     885 000258 E66D          MOV #0, *AR3(#31) ; |910| 
         00025a 0000 
         00025c 1F   
     886 00025d       $C$DW$L$_xQueueGenericSend$30$E:
     887 00025d       $C$L23:    
     888 00025d       $C$DW$L$_xQueueGenericSend$31$B:
     889 00025d ED14          MOV dbl(*SP(#10)), XAR3
         00025f BF   
     890 000260 F06D          CMP *AR3(#32) == #-1, TC1 ; |910| 
         000262 FFFF 
         000264 0020 
     891 000266 62F4          BCC $C$L24,!TC1 ; |910| 
     892                                                      ; branchcc occurs ; |910| 
     893 000268       $C$DW$L$_xQueueGenericSend$31$E:
TMS320C55x Assembler PC v4.4.1 Sun Sep 09 04:48:36 2018

Tools Copyright (c) 1996-2012 Texas Instruments Incorporated
queue.asm                                                            PAGE   20

     894 000268       $C$DW$L$_xQueueGenericSend$32$B:
     895 000268 E66D          MOV #0, *AR3(#32) ; |910| 
         00026a 0000 
         00026c 20   
     896 00026d       $C$DW$L$_xQueueGenericSend$32$E:
     897 00026d       $C$L24:    
     898 00026d       $C$DW$L$_xQueueGenericSend$33$B:
     899 00026d A931          MOV *(#_usCriticalNesting), AR1 ; |910| 
         00026f 0000 
         000271 00!  
     900 000272 0409          BCC $C$L25,AR1 == #0 ; |910| 
         000274 14   
     901                                                      ; branchcc occurs ; |910| 
     902 000275       $C$DW$L$_xQueueGenericSend$33$E:
     903 000275       $C$DW$L$_xQueueGenericSend$34$B:
     904 000275 F731          SUB #1, *(#_usCriticalNesting) ; |910| 
         000277 FFFF 
         000279 0000 
         00027b 00!  
     905 00027c 20            NOP
     906 00027d 20            NOP
     907 00027e 20            NOP
     908 00027f A931          MOV *(#_usCriticalNesting), AR1 ; |910| 
         000281 0000 
         000283 00!  
     909 000284 6199          BCC $C$L25,AR1 != #0 ; |910| 
     910                                                      ; branchcc occurs ; |910| 
     911 000286       $C$DW$L$_xQueueGenericSend$34$E:
     912 000286       $C$DW$L$_xQueueGenericSend$35$B:
     913 000286 20     nop
     914 000287 46B2   bclr INTM
     915 000289       $C$DW$L$_xQueueGenericSend$35$E:
     916 000289       $C$L25:    
     917 000289       $C$DW$L$_xQueueGenericSend$36$B:
     918                      .dwpsn  file "../FreeRTOS/Source/queue.c",line 913,column 3,is_stmt
     919 000289 EC10          AMAR *SP(#8), XAR0
         00028b 8E   
     920 00028c EC08          AMAR *SP(#4), XAR1
         00028e 9E   
     921              $C$DW$87        .dwtag  DW_TAG_TI_branch
     922                      .dwattr $C$DW$87, DW_AT_low_pc(0x00)
     923                      .dwattr $C$DW$87, DW_AT_name("_xTaskCheckForTimeOut")
     924                      .dwattr $C$DW$87, DW_AT_TI_call
     925 00028f 6C00          CALL #_xTaskCheckForTimeOut ; |913| 
         000291 0000!
     926                                                      ; call occurs [#_xTaskCheckForTimeOut] ; |913| 
     927 000293 0414          BCC $C$L27,T0 != #0 ; |913| 
         000295 37   
     928                                                      ; branchcc occurs ; |913| 
     929 000296       $C$DW$L$_xQueueGenericSend$36$E:
     930 000296       $C$DW$L$_xQueueGenericSend$37$B:
     931                      .dwpsn  file "../FreeRTOS/Source/queue.c",line 915,column 4,is_stmt
     932 000296 ED14          MOV dbl(*SP(#10)), XAR0
         000298 8F   
     933              $C$DW$88        .dwtag  DW_TAG_TI_branch
TMS320C55x Assembler PC v4.4.1 Sun Sep 09 04:48:36 2018

Tools Copyright (c) 1996-2012 Texas Instruments Incorporated
queue.asm                                                            PAGE   21

     934                      .dwattr $C$DW$88, DW_AT_low_pc(0x00)
     935                      .dwattr $C$DW$88, DW_AT_name("_prvIsQueueFull")
     936                      .dwattr $C$DW$88, DW_AT_TI_call
     937 000299 0809          CALL #_prvIsQueueFull ; |915| 
         00029b CC   
     938                                                      ; call occurs [#_prvIsQueueFull] ; |915| 
     939 00029c 0404          BCC $C$L26,T0 == #0 ; |915| 
         00029e 21   
     940                                                      ; branchcc occurs ; |915| 
     941 00029f       $C$DW$L$_xQueueGenericSend$37$E:
     942 00029f       $C$DW$L$_xQueueGenericSend$38$B:
     943                      .dwpsn  file "../FreeRTOS/Source/queue.c",line 918,column 5,is_stmt
     944 00029f ED14          MOV dbl(*SP(#10)), XAR0
         0002a1 8F   
     945              
     946                      AADD #8, AR0 ; |918| 
     947 0002a2 8A08  ||      MOV *SP(#4), T0 ; |918| 
         0002a4 841C 
         0002a6 08   
     948              
     949              $C$DW$89        .dwtag  DW_TAG_TI_branch
     950                      .dwattr $C$DW$89, DW_AT_low_pc(0x00)
     951                      .dwattr $C$DW$89, DW_AT_name("_vTaskPlaceOnEventList")
     952                      .dwattr $C$DW$89, DW_AT_TI_call
     953 0002a7 6C00          CALL #_vTaskPlaceOnEventList ; |918| 
         0002a9 0000!
     954                                                      ; call occurs [#_vTaskPlaceOnEventList] ; |918| 
     955                      .dwpsn  file "../FreeRTOS/Source/queue.c",line 925,column 5,is_stmt
     956 0002ab ED14          MOV dbl(*SP(#10)), XAR0
         0002ad 8F   
     957              $C$DW$90        .dwtag  DW_TAG_TI_branch
     958                      .dwattr $C$DW$90, DW_AT_low_pc(0x00)
     959                      .dwattr $C$DW$90, DW_AT_name("_prvUnlockQueue")
     960                      .dwattr $C$DW$90, DW_AT_TI_call
     961 0002ae 0808          CALL #_prvUnlockQueue ; |925| 
         0002b0 6F   
     962                                                      ; call occurs [#_prvUnlockQueue] ; |925| 
     963                      .dwpsn  file "../FreeRTOS/Source/queue.c",line 932,column 5,is_stmt
     964              $C$DW$91        .dwtag  DW_TAG_TI_branch
     965                      .dwattr $C$DW$91, DW_AT_low_pc(0x00)
     966                      .dwattr $C$DW$91, DW_AT_name("_xTaskResumeAll")
     967                      .dwattr $C$DW$91, DW_AT_TI_call
     968 0002b1 6C00          CALL #_xTaskResumeAll ; |932| 
         0002b3 0000!
     969                                                      ; call occurs [#_xTaskResumeAll] ; |932| 
     970 0002b5 6D14          BCC $C$L11,T0 != #0 ; |932| 
         0002b7 FEB8 
     971                                                      ; branchcc occurs ; |932| 
     972 0002b9       $C$DW$L$_xQueueGenericSend$38$E:
     973 0002b9       $C$DW$L$_xQueueGenericSend$39$B:
     974                      .dwpsn  file "../FreeRTOS/Source/queue.c",line 934,column 6,is_stmt
     975              $C$DW$92        .dwtag  DW_TAG_TI_branch
     976                      .dwattr $C$DW$92, DW_AT_low_pc(0x00)
     977                      .dwattr $C$DW$92, DW_AT_name("_vPortYield")
     978                      .dwattr $C$DW$92, DW_AT_TI_call
TMS320C55x Assembler PC v4.4.1 Sun Sep 09 04:48:36 2018

Tools Copyright (c) 1996-2012 Texas Instruments Incorporated
queue.asm                                                            PAGE   22

     979 0002b9 6C00          CALL #_vPortYield ; |934| 
         0002bb 0000!
     980                                                      ; call occurs [#_vPortYield] ; |934| 
     981                      .dwpsn  file "../FreeRTOS/Source/queue.c",line 936,column 4,is_stmt
     982 0002bd 06FE          B $C$L11  ; |936| 
         0002bf B1   
     983                                                      ; branch occurs ; |936| 
     984 0002c0       $C$DW$L$_xQueueGenericSend$39$E:
     985 0002c0       $C$L26:    
     986 0002c0       $C$DW$L$_xQueueGenericSend$40$B:
     987                      .dwpsn  file "../FreeRTOS/Source/queue.c",line 940,column 5,is_stmt
     988 0002c0 ED14          MOV dbl(*SP(#10)), XAR0
         0002c2 8F   
     989              $C$DW$93        .dwtag  DW_TAG_TI_branch
     990                      .dwattr $C$DW$93, DW_AT_low_pc(0x00)
     991                      .dwattr $C$DW$93, DW_AT_name("_prvUnlockQueue")
     992                      .dwattr $C$DW$93, DW_AT_TI_call
     993 0002c3 0808          CALL #_prvUnlockQueue ; |940| 
         0002c5 5A   
     994                                                      ; call occurs [#_prvUnlockQueue] ; |940| 
     995                      .dwpsn  file "../FreeRTOS/Source/queue.c",line 941,column 5,is_stmt
     996              $C$DW$94        .dwtag  DW_TAG_TI_branch
     997                      .dwattr $C$DW$94, DW_AT_low_pc(0x00)
     998                      .dwattr $C$DW$94, DW_AT_name("_xTaskResumeAll")
     999                      .dwattr $C$DW$94, DW_AT_TI_call
    1000 0002c6 6C00          CALL #_xTaskResumeAll ; |941| 
         0002c8 0000!
    1001                                                      ; call occurs [#_xTaskResumeAll] ; |941| 
    1002                      .dwpsn  file "../FreeRTOS/Source/queue.c",line 943,column 3,is_stmt
    1003 0002ca 06FE          B $C$L11  ; |943| 
         0002cc A4   
    1004                                                      ; branch occurs ; |943| 
    1005 0002cd       $C$DW$L$_xQueueGenericSend$40$E:
    1006 0002cd       $C$L27:    
    1007                      .dwpsn  file "../FreeRTOS/Source/queue.c",line 947,column 4,is_stmt
    1008 0002cd ED14          MOV dbl(*SP(#10)), XAR0
         0002cf 8F   
    1009              $C$DW$95        .dwtag  DW_TAG_TI_branch
    1010                      .dwattr $C$DW$95, DW_AT_low_pc(0x00)
    1011                      .dwattr $C$DW$95, DW_AT_name("_prvUnlockQueue")
    1012                      .dwattr $C$DW$95, DW_AT_TI_call
    1013 0002d0 0808          CALL #_prvUnlockQueue ; |947| 
         0002d2 4D   
    1014                                                      ; call occurs [#_prvUnlockQueue] ; |947| 
    1015                      .dwpsn  file "../FreeRTOS/Source/queue.c",line 948,column 4,is_stmt
    1016              $C$DW$96        .dwtag  DW_TAG_TI_branch
    1017                      .dwattr $C$DW$96, DW_AT_low_pc(0x00)
    1018                      .dwattr $C$DW$96, DW_AT_name("_xTaskResumeAll")
    1019                      .dwattr $C$DW$96, DW_AT_TI_call
    1020 0002d3 6C00          CALL #_xTaskResumeAll ; |948| 
         0002d5 0000!
    1021                                                      ; call occurs [#_xTaskResumeAll] ; |948| 
    1022                      .dwpsn  file "../FreeRTOS/Source/queue.c",line 951,column 4,is_stmt
    1023 0002d7 3C04          MOV #0, T0
    1024 0002d9 4A00          B $C$L28  ; |951| 
TMS320C55x Assembler PC v4.4.1 Sun Sep 09 04:48:36 2018

Tools Copyright (c) 1996-2012 Texas Instruments Incorporated
queue.asm                                                            PAGE   23

    1025                                                      ; branch occurs ; |951| 
    1026 0002db       $C$L28:    
    1027                      .dwpsn  file "../FreeRTOS/Source/queue.c",line 954,column 1,is_stmt
    1028 0002db 4E0D          AADD #13, SP
    1029                      .dwcfi  cfa_offset, 1
    1030              $C$DW$97        .dwtag  DW_TAG_TI_branch
    1031                      .dwattr $C$DW$97, DW_AT_low_pc(0x00)
    1032                      .dwattr $C$DW$97, DW_AT_TI_return
    1033 0002dd 4804          RET
    1034                                                      ; return occurs
    1035              
    1036              $C$DW$98        .dwtag  DW_TAG_TI_loop
    1037                      .dwattr $C$DW$98, DW_AT_name("F:\eZdsp_DBG\eZDSP_5535_Files\ccsws2\test\Debug\queue.asm:$C$L11:1:1536
    1038                      .dwattr $C$DW$98, DW_AT_TI_begin_file("../FreeRTOS/Source/queue.c")
    1039                      .dwattr $C$DW$98, DW_AT_TI_begin_line(0x2fe)
    1040                      .dwattr $C$DW$98, DW_AT_TI_end_line(0x3b9)
    1041              $C$DW$99        .dwtag  DW_TAG_TI_loop_range
    1042                      .dwattr $C$DW$99, DW_AT_low_pc($C$DW$L$_xQueueGenericSend$2$B)
    1043                      .dwattr $C$DW$99, DW_AT_high_pc($C$DW$L$_xQueueGenericSend$2$E)
    1044              $C$DW$100       .dwtag  DW_TAG_TI_loop_range
    1045                      .dwattr $C$DW$100, DW_AT_low_pc($C$DW$L$_xQueueGenericSend$3$B)
    1046                      .dwattr $C$DW$100, DW_AT_high_pc($C$DW$L$_xQueueGenericSend$3$E)
    1047              $C$DW$101       .dwtag  DW_TAG_TI_loop_range
    1048                      .dwattr $C$DW$101, DW_AT_low_pc($C$DW$L$_xQueueGenericSend$18$B)
    1049                      .dwattr $C$DW$101, DW_AT_high_pc($C$DW$L$_xQueueGenericSend$18$E)
    1050              $C$DW$102       .dwtag  DW_TAG_TI_loop_range
    1051                      .dwattr $C$DW$102, DW_AT_low_pc($C$DW$L$_xQueueGenericSend$24$B)
    1052                      .dwattr $C$DW$102, DW_AT_high_pc($C$DW$L$_xQueueGenericSend$24$E)
    1053              $C$DW$103       .dwtag  DW_TAG_TI_loop_range
    1054                      .dwattr $C$DW$103, DW_AT_low_pc($C$DW$L$_xQueueGenericSend$25$B)
    1055                      .dwattr $C$DW$103, DW_AT_high_pc($C$DW$L$_xQueueGenericSend$25$E)
    1056              $C$DW$104       .dwtag  DW_TAG_TI_loop_range
    1057                      .dwattr $C$DW$104, DW_AT_low_pc($C$DW$L$_xQueueGenericSend$26$B)
    1058                      .dwattr $C$DW$104, DW_AT_high_pc($C$DW$L$_xQueueGenericSend$26$E)
    1059              $C$DW$105       .dwtag  DW_TAG_TI_loop_range
    1060                      .dwattr $C$DW$105, DW_AT_low_pc($C$DW$L$_xQueueGenericSend$27$B)
    1061                      .dwattr $C$DW$105, DW_AT_high_pc($C$DW$L$_xQueueGenericSend$27$E)
    1062              $C$DW$106       .dwtag  DW_TAG_TI_loop_range
    1063                      .dwattr $C$DW$106, DW_AT_low_pc($C$DW$L$_xQueueGenericSend$28$B)
    1064                      .dwattr $C$DW$106, DW_AT_high_pc($C$DW$L$_xQueueGenericSend$28$E)
    1065              $C$DW$107       .dwtag  DW_TAG_TI_loop_range
    1066                      .dwattr $C$DW$107, DW_AT_low_pc($C$DW$L$_xQueueGenericSend$29$B)
    1067                      .dwattr $C$DW$107, DW_AT_high_pc($C$DW$L$_xQueueGenericSend$29$E)
    1068              $C$DW$108       .dwtag  DW_TAG_TI_loop_range
    1069                      .dwattr $C$DW$108, DW_AT_low_pc($C$DW$L$_xQueueGenericSend$30$B)
    1070                      .dwattr $C$DW$108, DW_AT_high_pc($C$DW$L$_xQueueGenericSend$30$E)
    1071              $C$DW$109       .dwtag  DW_TAG_TI_loop_range
    1072                      .dwattr $C$DW$109, DW_AT_low_pc($C$DW$L$_xQueueGenericSend$31$B)
    1073                      .dwattr $C$DW$109, DW_AT_high_pc($C$DW$L$_xQueueGenericSend$31$E)
    1074              $C$DW$110       .dwtag  DW_TAG_TI_loop_range
    1075                      .dwattr $C$DW$110, DW_AT_low_pc($C$DW$L$_xQueueGenericSend$32$B)
    1076                      .dwattr $C$DW$110, DW_AT_high_pc($C$DW$L$_xQueueGenericSend$32$E)
    1077              $C$DW$111       .dwtag  DW_TAG_TI_loop_range
    1078                      .dwattr $C$DW$111, DW_AT_low_pc($C$DW$L$_xQueueGenericSend$33$B)
    1079                      .dwattr $C$DW$111, DW_AT_high_pc($C$DW$L$_xQueueGenericSend$33$E)
TMS320C55x Assembler PC v4.4.1 Sun Sep 09 04:48:36 2018

Tools Copyright (c) 1996-2012 Texas Instruments Incorporated
queue.asm                                                            PAGE   24

    1080              $C$DW$112       .dwtag  DW_TAG_TI_loop_range
    1081                      .dwattr $C$DW$112, DW_AT_low_pc($C$DW$L$_xQueueGenericSend$34$B)
    1082                      .dwattr $C$DW$112, DW_AT_high_pc($C$DW$L$_xQueueGenericSend$34$E)
    1083              $C$DW$113       .dwtag  DW_TAG_TI_loop_range
    1084                      .dwattr $C$DW$113, DW_AT_low_pc($C$DW$L$_xQueueGenericSend$35$B)
    1085                      .dwattr $C$DW$113, DW_AT_high_pc($C$DW$L$_xQueueGenericSend$35$E)
    1086              $C$DW$114       .dwtag  DW_TAG_TI_loop_range
    1087                      .dwattr $C$DW$114, DW_AT_low_pc($C$DW$L$_xQueueGenericSend$36$B)
    1088                      .dwattr $C$DW$114, DW_AT_high_pc($C$DW$L$_xQueueGenericSend$36$E)
    1089              $C$DW$115       .dwtag  DW_TAG_TI_loop_range
    1090                      .dwattr $C$DW$115, DW_AT_low_pc($C$DW$L$_xQueueGenericSend$37$B)
    1091                      .dwattr $C$DW$115, DW_AT_high_pc($C$DW$L$_xQueueGenericSend$37$E)
    1092              $C$DW$116       .dwtag  DW_TAG_TI_loop_range
    1093                      .dwattr $C$DW$116, DW_AT_low_pc($C$DW$L$_xQueueGenericSend$40$B)
    1094                      .dwattr $C$DW$116, DW_AT_high_pc($C$DW$L$_xQueueGenericSend$40$E)
    1095              $C$DW$117       .dwtag  DW_TAG_TI_loop_range
    1096                      .dwattr $C$DW$117, DW_AT_low_pc($C$DW$L$_xQueueGenericSend$39$B)
    1097                      .dwattr $C$DW$117, DW_AT_high_pc($C$DW$L$_xQueueGenericSend$39$E)
    1098              $C$DW$118       .dwtag  DW_TAG_TI_loop_range
    1099                      .dwattr $C$DW$118, DW_AT_low_pc($C$DW$L$_xQueueGenericSend$38$B)
    1100                      .dwattr $C$DW$118, DW_AT_high_pc($C$DW$L$_xQueueGenericSend$38$E)
    1101                      .dwendtag $C$DW$98
    1102              
    1103                      .dwattr $C$DW$68, DW_AT_TI_end_file("../FreeRTOS/Source/queue.c")
    1104                      .dwattr $C$DW$68, DW_AT_TI_end_line(0x3ba)
    1105                      .dwattr $C$DW$68, DW_AT_TI_end_column(0x01)
    1106                      .dwendentry
    1107                      .dwendtag $C$DW$68
    1108              
    1109 0002df               .sect   ".text"
    1110                      .align 4
    1111                      .global _xQueueGenericSendFromISR
    1112              
    1113              $C$DW$119       .dwtag  DW_TAG_subprogram, DW_AT_name("xQueueGenericSendFromISR")
    1114                      .dwattr $C$DW$119, DW_AT_low_pc(_xQueueGenericSendFromISR)
    1115                      .dwattr $C$DW$119, DW_AT_high_pc(0x00)
    1116                      .dwattr $C$DW$119, DW_AT_TI_symbol_name("_xQueueGenericSendFromISR")
    1117                      .dwattr $C$DW$119, DW_AT_external
    1118                      .dwattr $C$DW$119, DW_AT_type(*$C$DW$T$43)
    1119                      .dwattr $C$DW$119, DW_AT_TI_begin_file("../FreeRTOS/Source/queue.c")
    1120                      .dwattr $C$DW$119, DW_AT_TI_begin_line(0x3bd)
    1121                      .dwattr $C$DW$119, DW_AT_TI_begin_column(0x0c)
    1122                      .dwattr $C$DW$119, DW_AT_TI_max_frame_size(0x0e)
    1123                      .dwpsn  file "../FreeRTOS/Source/queue.c",line 958,column 1,is_stmt,address _xQueueGenericSendFromISR
    1124              
    1125                      .dwfde $C$DW$CIE, _xQueueGenericSendFromISR
    1126              $C$DW$120       .dwtag  DW_TAG_formal_parameter, DW_AT_name("xQueue")
    1127                      .dwattr $C$DW$120, DW_AT_TI_symbol_name("_xQueue")
    1128                      .dwattr $C$DW$120, DW_AT_type(*$C$DW$T$46)
    1129                      .dwattr $C$DW$120, DW_AT_location[DW_OP_reg17]
    1130              $C$DW$121       .dwtag  DW_TAG_formal_parameter, DW_AT_name("pvItemToQueue")
    1131                      .dwattr $C$DW$121, DW_AT_TI_symbol_name("_pvItemToQueue")
    1132                      .dwattr $C$DW$121, DW_AT_type(*$C$DW$T$65)
    1133                      .dwattr $C$DW$121, DW_AT_location[DW_OP_reg19]
    1134              $C$DW$122       .dwtag  DW_TAG_formal_parameter, DW_AT_name("pxHigherPriorityTaskWoken")
TMS320C55x Assembler PC v4.4.1 Sun Sep 09 04:48:36 2018

Tools Copyright (c) 1996-2012 Texas Instruments Incorporated
queue.asm                                                            PAGE   25

    1135                      .dwattr $C$DW$122, DW_AT_TI_symbol_name("_pxHigherPriorityTaskWoken")
    1136                      .dwattr $C$DW$122, DW_AT_type(*$C$DW$T$111)
    1137                      .dwattr $C$DW$122, DW_AT_location[DW_OP_reg21]
    1138              $C$DW$123       .dwtag  DW_TAG_formal_parameter, DW_AT_name("xCopyPosition")
    1139                      .dwattr $C$DW$123, DW_AT_TI_symbol_name("_xCopyPosition")
    1140                      .dwattr $C$DW$123, DW_AT_type(*$C$DW$T$93)
    1141                      .dwattr $C$DW$123, DW_AT_location[DW_OP_reg12]
    1142              ;*******************************************************************************
    1143              ;* FUNCTION NAME: xQueueGenericSendFromISR                                     *
    1144              ;*                                                                             *
    1145              ;*   Function Uses Regs : AC0,AC0,T0,AR0,XAR0,AR1,XAR1,AR2,XAR2,AR3,XAR3,SP,   *
    1146              ;*                        CARRY,TC1,M40,SATA,SATD,RDM,FRCT,SMUL                *
    1147              ;*   Stack Frame        : Compact (No Frame Pointer, w/ debug)                 *
    1148              ;*   Total Frame Size   : 14 words                                             *
    1149              ;*                        (1 return address/alignment)                         *
    1150              ;*                        (13 local values)                                    *
    1151              ;*   Min System Stack   : 1 word                                               *
    1152              ;*******************************************************************************
    1153 0002e0       _xQueueGenericSendFromISR:
    1154                      .dwcfi  cfa_offset, 1
    1155                      .dwcfi  save_reg_to_mem, 91, -1
    1156 0002e0 4EF3          AADD #-13, SP
    1157                      .dwcfi  cfa_offset, 14
    1158              $C$DW$124       .dwtag  DW_TAG_variable, DW_AT_name("xQueue")
    1159                      .dwattr $C$DW$124, DW_AT_TI_symbol_name("_xQueue")
    1160                      .dwattr $C$DW$124, DW_AT_type(*$C$DW$T$46)
    1161                      .dwattr $C$DW$124, DW_AT_location[DW_OP_bregx 0x24 0]
    1162              $C$DW$125       .dwtag  DW_TAG_variable, DW_AT_name("pvItemToQueue")
    1163                      .dwattr $C$DW$125, DW_AT_TI_symbol_name("_pvItemToQueue")
    1164                      .dwattr $C$DW$125, DW_AT_type(*$C$DW$T$65)
    1165                      .dwattr $C$DW$125, DW_AT_location[DW_OP_bregx 0x24 2]
    1166              $C$DW$126       .dwtag  DW_TAG_variable, DW_AT_name("pxHigherPriorityTaskWoken")
    1167                      .dwattr $C$DW$126, DW_AT_TI_symbol_name("_pxHigherPriorityTaskWoken")
    1168                      .dwattr $C$DW$126, DW_AT_type(*$C$DW$T$111)
    1169                      .dwattr $C$DW$126, DW_AT_location[DW_OP_bregx 0x24 4]
    1170              $C$DW$127       .dwtag  DW_TAG_variable, DW_AT_name("xCopyPosition")
    1171                      .dwattr $C$DW$127, DW_AT_TI_symbol_name("_xCopyPosition")
    1172                      .dwattr $C$DW$127, DW_AT_type(*$C$DW$T$93)
    1173                      .dwattr $C$DW$127, DW_AT_location[DW_OP_bregx 0x24 6]
    1174              $C$DW$128       .dwtag  DW_TAG_variable, DW_AT_name("xReturn")
    1175                      .dwattr $C$DW$128, DW_AT_TI_symbol_name("_xReturn")
    1176                      .dwattr $C$DW$128, DW_AT_type(*$C$DW$T$43)
    1177                      .dwattr $C$DW$128, DW_AT_location[DW_OP_bregx 0x24 7]
    1178              $C$DW$129       .dwtag  DW_TAG_variable, DW_AT_name("uxSavedInterruptStatus")
    1179                      .dwattr $C$DW$129, DW_AT_TI_symbol_name("_uxSavedInterruptStatus")
    1180                      .dwattr $C$DW$129, DW_AT_type(*$C$DW$T$26)
    1181                      .dwattr $C$DW$129, DW_AT_location[DW_OP_bregx 0x24 8]
    1182              $C$DW$130       .dwtag  DW_TAG_variable, DW_AT_name("pxQueue")
    1183                      .dwattr $C$DW$130, DW_AT_TI_symbol_name("_pxQueue")
    1184                      .dwattr $C$DW$130, DW_AT_type(*$C$DW$T$57)
    1185                      .dwattr $C$DW$130, DW_AT_location[DW_OP_bregx 0x24 10]
    1186 0002e2 C40C          MOV T0, *SP(#6) ; |958| 
    1187 0002e4 EB08          MOV XAR2, dbl(*SP(#4))
         0002e6 A5   
    1188 0002e7 EB04          MOV XAR1, dbl(*SP(#2))
TMS320C55x Assembler PC v4.4.1 Sun Sep 09 04:48:36 2018

Tools Copyright (c) 1996-2012 Texas Instruments Incorporated
queue.asm                                                            PAGE   26

         0002e9 95   
    1189 0002ea EB00          MOV XAR0, dbl(*SP(#0))
         0002ec 85   
    1190                      .dwpsn  file "../FreeRTOS/Source/queue.c",line 961,column 17,is_stmt
    1191 0002ed ED00          MOV dbl(*SP(#0)), XAR3
         0002ef BF   
    1192 0002f0 EB14          MOV XAR3, dbl(*SP(#10))
         0002f2 B5   
    1193                      .dwpsn  file "../FreeRTOS/Source/queue.c",line 988,column 2,is_stmt
    1194 0002f3 E610          MOV #0, *SP(#8) ; |988| 
         0002f5 00   
    1195                      .dwpsn  file "../FreeRTOS/Source/queue.c",line 990,column 3,is_stmt
    1196 0002f6 ED14          MOV dbl(*SP(#10)), XAR3
         0002f8 BF   
    1197 0002f9 A96D          MOV *AR3(#29), AR1 ; |990| 
         0002fb 001D 
    1198 0002fd AA6D          MOV *AR3(#28), AR2 ; |990| 
         0002ff 001C 
    1199 000301 12A4          CMPU AR2 < AR1, TC1 ; |990| 
         000303 94   
    1200 000304 63E4          BCC $C$L29,TC1 ; |990| 
    1201                                                      ; branchcc occurs ; |990| 
    1202 000306 F00C          CMP *SP(#6) == #2, TC1 ; |990| 
         000308 0002 
    1203 00030a 0474          BCC $C$L34,!TC1 ; |990| 
         00030c 54   
    1204                                                      ; branchcc occurs ; |990| 
    1205 00030d       $C$L29:    
    1206              
    1207              $C$DW$131       .dwtag  DW_TAG_lexical_block, DW_AT_low_pc(0x00), DW_AT_high_pc(0x00)
    1208              $C$DW$132       .dwtag  DW_TAG_variable, DW_AT_name("cTxLock")
    1209                      .dwattr $C$DW$132, DW_AT_TI_symbol_name("_cTxLock")
    1210                      .dwattr $C$DW$132, DW_AT_type(*$C$DW$T$92)
    1211                      .dwattr $C$DW$132, DW_AT_location[DW_OP_bregx 0x24 12]
    1212                      .dwpsn  file "../FreeRTOS/Source/queue.c",line 992,column 17,is_stmt
    1213 00030d A96D          MOV *AR3(#32), AR1 ; |992| 
         00030f 0020 
    1214 000311 C918          MOV AR1, *SP(#12) ; |992| 
    1215                      .dwpsn  file "../FreeRTOS/Source/queue.c",line 1001,column 4,is_stmt
    1216 000313 ED14          MOV dbl(*SP(#10)), XAR0
         000315 8F   
    1217 000316 A40C          MOV *SP(#6), T0 ; |1001| 
    1218 000318 ED04          MOV dbl(*SP(#2)), XAR1
         00031a 9F   
    1219              $C$DW$133       .dwtag  DW_TAG_TI_branch
    1220                      .dwattr $C$DW$133, DW_AT_low_pc(0x00)
    1221                      .dwattr $C$DW$133, DW_AT_name("_prvCopyDataToQueue")
    1222                      .dwattr $C$DW$133, DW_AT_TI_call
    1223 00031b 0806          CALL #_prvCopyDataToQueue ; |1001| 
         00031d D6   
    1224                                                      ; call occurs [#_prvCopyDataToQueue] ; |1001| 
    1225                      .dwpsn  file "../FreeRTOS/Source/queue.c",line 1005,column 4,is_stmt
    1226 00031e F018          CMP *SP(#12) == #-1, TC1 ; |1005| 
         000320 FFFF 
    1227 000322 0474          BCC $C$L32,!TC1 ; |1005| 
TMS320C55x Assembler PC v4.4.1 Sun Sep 09 04:48:36 2018

Tools Copyright (c) 1996-2012 Texas Instruments Incorporated
queue.asm                                                            PAGE   27

         000324 2C   
    1228                                                      ; branchcc occurs ; |1005| 
    1229                      .dwpsn  file "../FreeRTOS/Source/queue.c",line 1060,column 6,is_stmt
    1230 000325 ED14          MOV dbl(*SP(#10)), XAR3
         000327 BF   
    1231 000328 A96D          MOV *AR3(#18), AR1 ; |1060| 
         00032a 0012 
    1232 00032c 6219          BCC $C$L30,AR1 != #0 ; |1060| 
    1233                                                      ; branchcc occurs ; |1060| 
    1234 00032e 3C19          MOV #1, AR1
    1235 000330 4A02          B $C$L31  ; |1060| 
    1236                                                      ; branch occurs ; |1060| 
    1237 000332       $C$L30:    
    1238 000332 3C09          MOV #0, AR1
    1239 000334       $C$L31:    
    1240 000334 0419          BCC $C$L33,AR1 != #0 ; |1060| 
         000336 25   
    1241                                                      ; branchcc occurs ; |1060| 
    1242                      .dwpsn  file "../FreeRTOS/Source/queue.c",line 1062,column 7,is_stmt
    1243 000337 ED14          MOV dbl(*SP(#10)), XAR0
         000339 8F   
    1244 00033a 1412          AADD #18, AR0 ; |1062| 
         00033c 84   
    1245              $C$DW$134       .dwtag  DW_TAG_TI_branch
    1246                      .dwattr $C$DW$134, DW_AT_low_pc(0x00)
    1247                      .dwattr $C$DW$134, DW_AT_name("_xTaskRemoveFromEventList")
    1248                      .dwattr $C$DW$134, DW_AT_TI_call
    1249 00033d 6C00          CALL #_xTaskRemoveFromEventList ; |1062| 
         00033f 0000!
    1250                                                      ; call occurs [#_xTaskRemoveFromEventList] ; |1062| 
    1251 000341 0404          BCC $C$L33,T0 == #0 ; |1062| 
         000343 18   
    1252                                                      ; branchcc occurs ; |1062| 
    1253                      .dwpsn  file "../FreeRTOS/Source/queue.c",line 1066,column 8,is_stmt
    1254 000344 ED08          MOV dbl(*SP(#4)), XAR3
         000346 BF   
    1255 000347 90B0          MOV XAR3, AC0
    1256 000349 0400          BCC $C$L33,AC0 == #0 ; |1066| 
         00034b 10   
    1257                                                      ; branchcc occurs ; |1066| 
    1258                      .dwpsn  file "../FreeRTOS/Source/queue.c",line 1068,column 9,is_stmt
    1259 00034c E661          MOV #1, *AR3 ; |1068| 
         00034e 01   
    1260                      .dwpsn  file "../FreeRTOS/Source/queue.c",line 1069,column 8,is_stmt
    1261 00034f 4A0B          B $C$L33  ; |1069| 
    1262                                                      ; branch occurs ; |1069| 
    1263 000351       $C$L32:    
    1264                      .dwpsn  file "../FreeRTOS/Source/queue.c",line 1091,column 5,is_stmt
    1265 000351 ED14          MOV dbl(*SP(#10)), XAR3
         000353 BF   
    1266 000354 A918          MOV *SP(#12), AR1 ; |1091| 
    1267 000356 4019          ADD #1, AR1 ; |1091| 
    1268 000358 C96D          MOV AR1, *AR3(#32) ; |1091| 
         00035a 0020 
    1269 00035c       $C$L33:    
TMS320C55x Assembler PC v4.4.1 Sun Sep 09 04:48:36 2018

Tools Copyright (c) 1996-2012 Texas Instruments Incorporated
queue.asm                                                            PAGE   28

    1270                      .dwpsn  file "../FreeRTOS/Source/queue.c",line 1094,column 4,is_stmt
    1271 00035c E60E          MOV #1, *SP(#7) ; |1094| 
         00035e 01   
    1272                      .dwendtag $C$DW$131
    1273              
    1274                      .dwpsn  file "../FreeRTOS/Source/queue.c",line 1095,column 3,is_stmt
    1275 00035f 4A03          B $C$L35  ; |1095| 
    1276                                                      ; branch occurs ; |1095| 
    1277 000361       $C$L34:    
    1278                      .dwpsn  file "../FreeRTOS/Source/queue.c",line 1099,column 4,is_stmt
    1279 000361 E60E          MOV #0, *SP(#7) ; |1099| 
         000363 00   
    1280 000364       $C$L35:    
    1281                      .dwpsn  file "../FreeRTOS/Source/queue.c",line 1102,column 2,is_stmt
    1282                      .dwpsn  file "../FreeRTOS/Source/queue.c",line 1104,column 2,is_stmt
    1283 000364 A40E          MOV *SP(#7), T0 ; |1104| 
    1284                      .dwpsn  file "../FreeRTOS/Source/queue.c",line 1105,column 1,is_stmt
    1285 000366 4E0D          AADD #13, SP
    1286                      .dwcfi  cfa_offset, 1
    1287              $C$DW$135       .dwtag  DW_TAG_TI_branch
    1288                      .dwattr $C$DW$135, DW_AT_low_pc(0x00)
    1289                      .dwattr $C$DW$135, DW_AT_TI_return
    1290 000368 4804          RET
    1291                                                      ; return occurs
    1292                      .dwattr $C$DW$119, DW_AT_TI_end_file("../FreeRTOS/Source/queue.c")
    1293                      .dwattr $C$DW$119, DW_AT_TI_end_line(0x451)
    1294                      .dwattr $C$DW$119, DW_AT_TI_end_column(0x01)
    1295                      .dwendentry
    1296                      .dwendtag $C$DW$119
    1297              
    1298 00036a               .sect   ".text"
    1299                      .align 4
    1300                      .global _xQueueGiveFromISR
    1301              
    1302              $C$DW$136       .dwtag  DW_TAG_subprogram, DW_AT_name("xQueueGiveFromISR")
    1303                      .dwattr $C$DW$136, DW_AT_low_pc(_xQueueGiveFromISR)
    1304                      .dwattr $C$DW$136, DW_AT_high_pc(0x00)
    1305                      .dwattr $C$DW$136, DW_AT_TI_symbol_name("_xQueueGiveFromISR")
    1306                      .dwattr $C$DW$136, DW_AT_external
    1307                      .dwattr $C$DW$136, DW_AT_type(*$C$DW$T$43)
    1308                      .dwattr $C$DW$136, DW_AT_TI_begin_file("../FreeRTOS/Source/queue.c")
    1309                      .dwattr $C$DW$136, DW_AT_TI_begin_line(0x454)
    1310                      .dwattr $C$DW$136, DW_AT_TI_begin_column(0x0c)
    1311                      .dwattr $C$DW$136, DW_AT_TI_max_frame_size(0x0c)
    1312                      .dwpsn  file "../FreeRTOS/Source/queue.c",line 1109,column 1,is_stmt,address _xQueueGiveFromISR
    1313              
    1314                      .dwfde $C$DW$CIE, _xQueueGiveFromISR
    1315              $C$DW$137       .dwtag  DW_TAG_formal_parameter, DW_AT_name("xQueue")
    1316                      .dwattr $C$DW$137, DW_AT_TI_symbol_name("_xQueue")
    1317                      .dwattr $C$DW$137, DW_AT_type(*$C$DW$T$46)
    1318                      .dwattr $C$DW$137, DW_AT_location[DW_OP_reg17]
    1319              $C$DW$138       .dwtag  DW_TAG_formal_parameter, DW_AT_name("pxHigherPriorityTaskWoken")
    1320                      .dwattr $C$DW$138, DW_AT_TI_symbol_name("_pxHigherPriorityTaskWoken")
    1321                      .dwattr $C$DW$138, DW_AT_type(*$C$DW$T$111)
    1322                      .dwattr $C$DW$138, DW_AT_location[DW_OP_reg19]
TMS320C55x Assembler PC v4.4.1 Sun Sep 09 04:48:36 2018

Tools Copyright (c) 1996-2012 Texas Instruments Incorporated
queue.asm                                                            PAGE   29

    1323              ;*******************************************************************************
    1324              ;* FUNCTION NAME: xQueueGiveFromISR                                            *
    1325              ;*                                                                             *
    1326              ;*   Function Uses Regs : AC0,AC0,T0,AR0,XAR0,AR1,XAR1,AR2,AR3,XAR3,SP,CARRY,  *
    1327              ;*                        TC1,M40,SATA,SATD,RDM,FRCT,SMUL                      *
    1328              ;*   Stack Frame        : Compact (No Frame Pointer, w/ debug)                 *
    1329              ;*   Total Frame Size   : 12 words                                             *
    1330              ;*                        (2 return address/alignment)                         *
    1331              ;*                        (10 local values)                                    *
    1332              ;*   Min System Stack   : 1 word                                               *
    1333              ;*******************************************************************************
    1334 00036c       _xQueueGiveFromISR:
    1335                      .dwcfi  cfa_offset, 1
    1336                      .dwcfi  save_reg_to_mem, 91, -1
    1337 00036c 4EF5          AADD #-11, SP
    1338                      .dwcfi  cfa_offset, 12
    1339              $C$DW$139       .dwtag  DW_TAG_variable, DW_AT_name("xQueue")
    1340                      .dwattr $C$DW$139, DW_AT_TI_symbol_name("_xQueue")
    1341                      .dwattr $C$DW$139, DW_AT_type(*$C$DW$T$46)
    1342                      .dwattr $C$DW$139, DW_AT_location[DW_OP_bregx 0x24 0]
    1343              $C$DW$140       .dwtag  DW_TAG_variable, DW_AT_name("pxHigherPriorityTaskWoken")
    1344                      .dwattr $C$DW$140, DW_AT_TI_symbol_name("_pxHigherPriorityTaskWoken")
    1345                      .dwattr $C$DW$140, DW_AT_type(*$C$DW$T$111)
    1346                      .dwattr $C$DW$140, DW_AT_location[DW_OP_bregx 0x24 2]
    1347              $C$DW$141       .dwtag  DW_TAG_variable, DW_AT_name("xReturn")
    1348                      .dwattr $C$DW$141, DW_AT_TI_symbol_name("_xReturn")
    1349                      .dwattr $C$DW$141, DW_AT_type(*$C$DW$T$43)
    1350                      .dwattr $C$DW$141, DW_AT_location[DW_OP_bregx 0x24 4]
    1351              $C$DW$142       .dwtag  DW_TAG_variable, DW_AT_name("uxSavedInterruptStatus")
    1352                      .dwattr $C$DW$142, DW_AT_TI_symbol_name("_uxSavedInterruptStatus")
    1353                      .dwattr $C$DW$142, DW_AT_type(*$C$DW$T$26)
    1354                      .dwattr $C$DW$142, DW_AT_location[DW_OP_bregx 0x24 5]
    1355              $C$DW$143       .dwtag  DW_TAG_variable, DW_AT_name("pxQueue")
    1356                      .dwattr $C$DW$143, DW_AT_TI_symbol_name("_pxQueue")
    1357                      .dwattr $C$DW$143, DW_AT_type(*$C$DW$T$57)
    1358                      .dwattr $C$DW$143, DW_AT_location[DW_OP_bregx 0x24 6]
    1359 00036e EB04          MOV XAR1, dbl(*SP(#2))
         000370 95   
    1360 000371 EB00          MOV XAR0, dbl(*SP(#0))
         000373 85   
    1361                      .dwpsn  file "../FreeRTOS/Source/queue.c",line 1112,column 17,is_stmt
    1362 000374 ED00          MOV dbl(*SP(#0)), XAR3
         000376 BF   
    1363 000377 EB0C          MOV XAR3, dbl(*SP(#6))
         000379 B5   
    1364                      .dwpsn  file "../FreeRTOS/Source/queue.c",line 1147,column 2,is_stmt
    1365 00037a E60A          MOV #0, *SP(#5) ; |1147| 
         00037c 00   
    1366              
    1367              $C$DW$144       .dwtag  DW_TAG_lexical_block, DW_AT_low_pc(0x00), DW_AT_high_pc(0x00)
    1368              $C$DW$145       .dwtag  DW_TAG_variable, DW_AT_name("uxMessagesWaiting")
    1369                      .dwattr $C$DW$145, DW_AT_TI_symbol_name("_uxMessagesWaiting")
    1370                      .dwattr $C$DW$145, DW_AT_type(*$C$DW$T$48)
    1371                      .dwattr $C$DW$145, DW_AT_location[DW_OP_bregx 0x24 8]
    1372                      .dwpsn  file "../FreeRTOS/Source/queue.c",line 1149,column 21,is_stmt
TMS320C55x Assembler PC v4.4.1 Sun Sep 09 04:48:36 2018

Tools Copyright (c) 1996-2012 Texas Instruments Incorporated
queue.asm                                                            PAGE   30

    1373 00037d ED0C          MOV dbl(*SP(#6)), XAR3
         00037f BF   
    1374 000380 A96D          MOV *AR3(#28), AR1 ; |1149| 
         000382 001C 
    1375 000384 C910          MOV AR1, *SP(#8) ; |1149| 
    1376                      .dwpsn  file "../FreeRTOS/Source/queue.c",line 1154,column 3,is_stmt
    1377 000386 ED0C          MOV dbl(*SP(#6)), XAR3
         000388 BF   
    1378 000389 AA10          MOV *SP(#8), AR2 ; |1154| 
    1379 00038b A96D          MOV *AR3(#29), AR1 ; |1154| 
         00038d 001D 
    1380 00038f 12A8          CMPU AR2 >= AR1, TC1 ; |1154| 
         000391 94   
    1381 000392 0464          BCC $C$L40,TC1 ; |1154| 
         000394 54   
    1382                                                      ; branchcc occurs ; |1154| 
    1383              
    1384              $C$DW$146       .dwtag  DW_TAG_lexical_block, DW_AT_low_pc(0x00), DW_AT_high_pc(0x00)
    1385              $C$DW$147       .dwtag  DW_TAG_variable, DW_AT_name("cTxLock")
    1386                      .dwattr $C$DW$147, DW_AT_TI_symbol_name("_cTxLock")
    1387                      .dwattr $C$DW$147, DW_AT_type(*$C$DW$T$92)
    1388                      .dwattr $C$DW$147, DW_AT_location[DW_OP_bregx 0x24 9]
    1389                      .dwpsn  file "../FreeRTOS/Source/queue.c",line 1156,column 17,is_stmt
    1390 000395 A96D          MOV *AR3(#32), AR1 ; |1156| 
         000397 0020 
    1391 000399 C912          MOV AR1, *SP(#9) ; |1156| 
    1392                      .dwpsn  file "../FreeRTOS/Source/queue.c",line 1166,column 4,is_stmt
    1393 00039b ED0C          MOV dbl(*SP(#6)), XAR3
         00039d BF   
    1394 00039e A910          MOV *SP(#8), AR1 ; |1166| 
    1395 0003a0 4019          ADD #1, AR1 ; |1166| 
    1396 0003a2 C96D          MOV AR1, *AR3(#28) ; |1166| 
         0003a4 001C 
    1397                      .dwpsn  file "../FreeRTOS/Source/queue.c",line 1170,column 4,is_stmt
    1398 0003a6 F012          CMP *SP(#9) == #-1, TC1 ; |1170| 
         0003a8 FFFF 
    1399 0003aa 0474          BCC $C$L38,!TC1 ; |1170| 
         0003ac 2C   
    1400                                                      ; branchcc occurs ; |1170| 
    1401                      .dwpsn  file "../FreeRTOS/Source/queue.c",line 1225,column 6,is_stmt
    1402 0003ad ED0C          MOV dbl(*SP(#6)), XAR3
         0003af BF   
    1403 0003b0 A96D          MOV *AR3(#18), AR1 ; |1225| 
         0003b2 0012 
    1404 0003b4 6219          BCC $C$L36,AR1 != #0 ; |1225| 
    1405                                                      ; branchcc occurs ; |1225| 
    1406 0003b6 3C19          MOV #1, AR1
    1407 0003b8 4A02          B $C$L37  ; |1225| 
    1408                                                      ; branch occurs ; |1225| 
    1409 0003ba       $C$L36:    
    1410 0003ba 3C09          MOV #0, AR1
    1411 0003bc       $C$L37:    
    1412 0003bc 0419          BCC $C$L39,AR1 != #0 ; |1225| 
         0003be 25   
    1413                                                      ; branchcc occurs ; |1225| 
TMS320C55x Assembler PC v4.4.1 Sun Sep 09 04:48:36 2018

Tools Copyright (c) 1996-2012 Texas Instruments Incorporated
queue.asm                                                            PAGE   31

    1414                      .dwpsn  file "../FreeRTOS/Source/queue.c",line 1227,column 7,is_stmt
    1415 0003bf ED0C          MOV dbl(*SP(#6)), XAR0
         0003c1 8F   
    1416 0003c2 1412          AADD #18, AR0 ; |1227| 
         0003c4 84   
    1417              $C$DW$148       .dwtag  DW_TAG_TI_branch
    1418                      .dwattr $C$DW$148, DW_AT_low_pc(0x00)
    1419                      .dwattr $C$DW$148, DW_AT_name("_xTaskRemoveFromEventList")
    1420                      .dwattr $C$DW$148, DW_AT_TI_call
    1421 0003c5 6C00          CALL #_xTaskRemoveFromEventList ; |1227| 
         0003c7 0000!
    1422                                                      ; call occurs [#_xTaskRemoveFromEventList] ; |1227| 
    1423 0003c9 0404          BCC $C$L39,T0 == #0 ; |1227| 
         0003cb 18   
    1424                                                      ; branchcc occurs ; |1227| 
    1425                      .dwpsn  file "../FreeRTOS/Source/queue.c",line 1231,column 8,is_stmt
    1426 0003cc ED04          MOV dbl(*SP(#2)), XAR3
         0003ce BF   
    1427 0003cf 90B0          MOV XAR3, AC0
    1428 0003d1 0400          BCC $C$L39,AC0 == #0 ; |1231| 
         0003d3 10   
    1429                                                      ; branchcc occurs ; |1231| 
    1430                      .dwpsn  file "../FreeRTOS/Source/queue.c",line 1233,column 9,is_stmt
    1431 0003d4 E661          MOV #1, *AR3 ; |1233| 
         0003d6 01   
    1432                      .dwpsn  file "../FreeRTOS/Source/queue.c",line 1234,column 8,is_stmt
    1433 0003d7 4A0B          B $C$L39  ; |1234| 
    1434                                                      ; branch occurs ; |1234| 
    1435 0003d9       $C$L38:    
    1436                      .dwpsn  file "../FreeRTOS/Source/queue.c",line 1256,column 5,is_stmt
    1437 0003d9 ED0C          MOV dbl(*SP(#6)), XAR3
         0003db BF   
    1438 0003dc A912          MOV *SP(#9), AR1 ; |1256| 
    1439 0003de 4019          ADD #1, AR1 ; |1256| 
    1440 0003e0 C96D          MOV AR1, *AR3(#32) ; |1256| 
         0003e2 0020 
    1441 0003e4       $C$L39:    
    1442                      .dwpsn  file "../FreeRTOS/Source/queue.c",line 1259,column 4,is_stmt
    1443 0003e4 E608          MOV #1, *SP(#4) ; |1259| 
         0003e6 01   
    1444                      .dwendtag $C$DW$146
    1445              
    1446                      .dwpsn  file "../FreeRTOS/Source/queue.c",line 1260,column 3,is_stmt
    1447 0003e7 4A03          B $C$L41  ; |1260| 
    1448                                                      ; branch occurs ; |1260| 
    1449 0003e9       $C$L40:    
    1450                      .dwpsn  file "../FreeRTOS/Source/queue.c",line 1264,column 4,is_stmt
    1451 0003e9 E608          MOV #0, *SP(#4) ; |1264| 
         0003eb 00   
    1452              $C$L41:    
    1453                      .dwendtag $C$DW$144
    1454              
    1455                      .dwpsn  file "../FreeRTOS/Source/queue.c",line 1267,column 2,is_stmt
    1456                      .dwpsn  file "../FreeRTOS/Source/queue.c",line 1269,column 2,is_stmt
    1457 0003ec A408          MOV *SP(#4), T0 ; |1269| 
TMS320C55x Assembler PC v4.4.1 Sun Sep 09 04:48:36 2018

Tools Copyright (c) 1996-2012 Texas Instruments Incorporated
queue.asm                                                            PAGE   32

    1458                      .dwpsn  file "../FreeRTOS/Source/queue.c",line 1270,column 1,is_stmt
    1459 0003ee 4E0B          AADD #11, SP
    1460                      .dwcfi  cfa_offset, 1
    1461              $C$DW$149       .dwtag  DW_TAG_TI_branch
    1462                      .dwattr $C$DW$149, DW_AT_low_pc(0x00)
    1463                      .dwattr $C$DW$149, DW_AT_TI_return
    1464 0003f0 4804          RET
    1465                                                      ; return occurs
    1466                      .dwattr $C$DW$136, DW_AT_TI_end_file("../FreeRTOS/Source/queue.c")
    1467                      .dwattr $C$DW$136, DW_AT_TI_end_line(0x4f6)
    1468                      .dwattr $C$DW$136, DW_AT_TI_end_column(0x01)
    1469                      .dwendentry
    1470                      .dwendtag $C$DW$136
    1471              
    1472 0003f2               .sect   ".text"
    1473                      .align 4
    1474                      .global _xQueueReceive
    1475              
    1476              $C$DW$150       .dwtag  DW_TAG_subprogram, DW_AT_name("xQueueReceive")
    1477                      .dwattr $C$DW$150, DW_AT_low_pc(_xQueueReceive)
    1478                      .dwattr $C$DW$150, DW_AT_high_pc(0x00)
    1479                      .dwattr $C$DW$150, DW_AT_TI_symbol_name("_xQueueReceive")
    1480                      .dwattr $C$DW$150, DW_AT_external
    1481                      .dwattr $C$DW$150, DW_AT_type(*$C$DW$T$43)
    1482                      .dwattr $C$DW$150, DW_AT_TI_begin_file("../FreeRTOS/Source/queue.c")
    1483                      .dwattr $C$DW$150, DW_AT_TI_begin_line(0x4f9)
    1484                      .dwattr $C$DW$150, DW_AT_TI_begin_column(0x0c)
    1485                      .dwattr $C$DW$150, DW_AT_TI_max_frame_size(0x0c)
    1486                      .dwpsn  file "../FreeRTOS/Source/queue.c",line 1274,column 1,is_stmt,address _xQueueReceive
    1487              
    1488                      .dwfde $C$DW$CIE, _xQueueReceive
    1489              $C$DW$151       .dwtag  DW_TAG_formal_parameter, DW_AT_name("xQueue")
    1490                      .dwattr $C$DW$151, DW_AT_TI_symbol_name("_xQueue")
    1491                      .dwattr $C$DW$151, DW_AT_type(*$C$DW$T$46)
    1492                      .dwattr $C$DW$151, DW_AT_location[DW_OP_reg17]
    1493              $C$DW$152       .dwtag  DW_TAG_formal_parameter, DW_AT_name("pvBuffer")
    1494                      .dwattr $C$DW$152, DW_AT_TI_symbol_name("_pvBuffer")
    1495                      .dwattr $C$DW$152, DW_AT_type(*$C$DW$T$64)
    1496                      .dwattr $C$DW$152, DW_AT_location[DW_OP_reg19]
    1497              $C$DW$153       .dwtag  DW_TAG_formal_parameter, DW_AT_name("xTicksToWait")
    1498                      .dwattr $C$DW$153, DW_AT_TI_symbol_name("_xTicksToWait")
    1499                      .dwattr $C$DW$153, DW_AT_type(*$C$DW$T$38)
    1500                      .dwattr $C$DW$153, DW_AT_location[DW_OP_reg12]
    1501              ;*******************************************************************************
    1502              ;* FUNCTION NAME: xQueueReceive                                                *
    1503              ;*                                                                             *
    1504              ;*   Function Uses Regs : T0,AR0,XAR0,AR1,XAR1,AR3,XAR3,SP,CARRY,TC1,M40,SATA, *
    1505              ;*                        SATD,RDM,FRCT,SMUL                                   *
    1506              ;*   Stack Frame        : Compact (No Frame Pointer, w/ debug)                 *
    1507              ;*   Total Frame Size   : 12 words                                             *
    1508              ;*                        (1 return address/alignment)                         *
    1509              ;*                        (11 local values)                                    *
    1510              ;*   Min System Stack   : 1 word                                               *
    1511              ;*******************************************************************************
    1512 0003f4       _xQueueReceive:
TMS320C55x Assembler PC v4.4.1 Sun Sep 09 04:48:36 2018

Tools Copyright (c) 1996-2012 Texas Instruments Incorporated
queue.asm                                                            PAGE   33

    1513                      .dwcfi  cfa_offset, 1
    1514                      .dwcfi  save_reg_to_mem, 91, -1
    1515 0003f4 4EF5          AADD #-11, SP
    1516                      .dwcfi  cfa_offset, 12
    1517              $C$DW$154       .dwtag  DW_TAG_variable, DW_AT_name("xQueue")
    1518                      .dwattr $C$DW$154, DW_AT_TI_symbol_name("_xQueue")
    1519                      .dwattr $C$DW$154, DW_AT_type(*$C$DW$T$46)
    1520                      .dwattr $C$DW$154, DW_AT_location[DW_OP_bregx 0x24 0]
    1521              $C$DW$155       .dwtag  DW_TAG_variable, DW_AT_name("pvBuffer")
    1522                      .dwattr $C$DW$155, DW_AT_TI_symbol_name("_pvBuffer")
    1523                      .dwattr $C$DW$155, DW_AT_type(*$C$DW$T$64)
    1524                      .dwattr $C$DW$155, DW_AT_location[DW_OP_bregx 0x24 2]
    1525              $C$DW$156       .dwtag  DW_TAG_variable, DW_AT_name("xTicksToWait")
    1526                      .dwattr $C$DW$156, DW_AT_TI_symbol_name("_xTicksToWait")
    1527                      .dwattr $C$DW$156, DW_AT_type(*$C$DW$T$38)
    1528                      .dwattr $C$DW$156, DW_AT_location[DW_OP_bregx 0x24 4]
    1529              $C$DW$157       .dwtag  DW_TAG_variable, DW_AT_name("xEntryTimeSet")
    1530                      .dwattr $C$DW$157, DW_AT_TI_symbol_name("_xEntryTimeSet")
    1531                      .dwattr $C$DW$157, DW_AT_type(*$C$DW$T$43)
    1532                      .dwattr $C$DW$157, DW_AT_location[DW_OP_bregx 0x24 5]
    1533              $C$DW$158       .dwtag  DW_TAG_variable, DW_AT_name("xTimeOut")
    1534                      .dwattr $C$DW$158, DW_AT_TI_symbol_name("_xTimeOut")
    1535                      .dwattr $C$DW$158, DW_AT_type(*$C$DW$T$77)
    1536                      .dwattr $C$DW$158, DW_AT_location[DW_OP_bregx 0x24 6]
    1537              $C$DW$159       .dwtag  DW_TAG_variable, DW_AT_name("pxQueue")
    1538                      .dwattr $C$DW$159, DW_AT_TI_symbol_name("_pxQueue")
    1539                      .dwattr $C$DW$159, DW_AT_type(*$C$DW$T$57)
    1540                      .dwattr $C$DW$159, DW_AT_location[DW_OP_bregx 0x24 8]
    1541 0003f6 C408          MOV T0, *SP(#4) ; |1274| 
    1542 0003f8 EB04          MOV XAR1, dbl(*SP(#2))
         0003fa 95   
    1543 0003fb EB00          MOV XAR0, dbl(*SP(#0))
         0003fd 85   
    1544                      .dwpsn  file "../FreeRTOS/Source/queue.c",line 1275,column 12,is_stmt
    1545 0003fe E60A          MOV #0, *SP(#5) ; |1275| 
         000400 00   
    1546                      .dwpsn  file "../FreeRTOS/Source/queue.c",line 1277,column 17,is_stmt
    1547 000401 ED00          MOV dbl(*SP(#0)), XAR3
         000403 BF   
    1548 000404 EB10          MOV XAR3, dbl(*SP(#8))
         000406 B5   
    1549 000407       $C$L42:    
    1550 000407       $C$DW$L$_xQueueReceive$2$B:
    1551                      .dwpsn  file "../FreeRTOS/Source/queue.c",line 1299,column 3,is_stmt
    1552 000407 20     nop
    1553 000408 46B3   bset INTM
    1554 00040a F731          ADD #1, *(#_usCriticalNesting) ; |1299| 
         00040c 0001 
         00040e 0000 
         000410 00!  
    1555 000411 20            NOP
    1556 000412 20            NOP
    1557              
    1558              $C$DW$160       .dwtag  DW_TAG_lexical_block, DW_AT_low_pc(0x00), DW_AT_high_pc(0x00)
    1559              $C$DW$161       .dwtag  DW_TAG_variable, DW_AT_name("uxMessagesWaiting")
TMS320C55x Assembler PC v4.4.1 Sun Sep 09 04:48:36 2018

Tools Copyright (c) 1996-2012 Texas Instruments Incorporated
queue.asm                                                            PAGE   34

    1560                      .dwattr $C$DW$161, DW_AT_TI_symbol_name("_uxMessagesWaiting")
    1561                      .dwattr $C$DW$161, DW_AT_type(*$C$DW$T$48)
    1562                      .dwattr $C$DW$161, DW_AT_location[DW_OP_bregx 0x24 10]
    1563                      .dwpsn  file "../FreeRTOS/Source/queue.c",line 1301,column 22,is_stmt
    1564 000413 ED10          MOV dbl(*SP(#8)), XAR3
         000415 BF   
    1565 000416 A96D          MOV *AR3(#28), AR1 ; |1301| 
         000418 001C 
    1566 00041a C914          MOV AR1, *SP(#10) ; |1301| 
    1567                      .dwpsn  file "../FreeRTOS/Source/queue.c",line 1305,column 4,is_stmt
    1568 00041c 0409          BCC $C$L47,AR1 == #0 ; |1305| 
         00041e 5B   
    1569                                                      ; branchcc occurs ; |1305| 
    1570 00041f       $C$DW$L$_xQueueReceive$2$E:
    1571                      .dwpsn  file "../FreeRTOS/Source/queue.c",line 1308,column 5,is_stmt
    1572 00041f ED10          MOV dbl(*SP(#8)), XAR0
         000421 8F   
    1573 000422 ED04          MOV dbl(*SP(#2)), XAR1
         000424 9F   
    1574              $C$DW$162       .dwtag  DW_TAG_TI_branch
    1575                      .dwattr $C$DW$162, DW_AT_low_pc(0x00)
    1576                      .dwattr $C$DW$162, DW_AT_name("_prvCopyDataFromQueue")
    1577                      .dwattr $C$DW$162, DW_AT_TI_call
    1578 000425 0806          CALL #_prvCopyDataFromQueue ; |1308| 
         000427 A0   
    1579                                                      ; call occurs [#_prvCopyDataFromQueue] ; |1308| 
    1580                      .dwpsn  file "../FreeRTOS/Source/queue.c",line 1310,column 5,is_stmt
    1581 000428 ED10          MOV dbl(*SP(#8)), XAR3
         00042a BF   
    1582 00042b A914          MOV *SP(#10), AR1 ; |1310| 
    1583 00042d 4219          SUB #1, AR1 ; |1310| 
    1584 00042f C96D          MOV AR1, *AR3(#28) ; |1310| 
         000431 001C 
    1585 000433 20            NOP
    1586 000434 20            NOP
    1587                      .dwpsn  file "../FreeRTOS/Source/queue.c",line 1315,column 5,is_stmt
    1588 000435 ED10          MOV dbl(*SP(#8)), XAR3
         000437 BF   
    1589 000438 A96D          MOV *AR3(#8), AR1 ; |1315| 
         00043a 0008 
    1590 00043c 6219          BCC $C$L43,AR1 != #0 ; |1315| 
    1591                                                      ; branchcc occurs ; |1315| 
    1592 00043e 3C19          MOV #1, AR1
    1593 000440 4A02          B $C$L44  ; |1315| 
    1594                                                      ; branch occurs ; |1315| 
    1595 000442       $C$L43:    
    1596 000442 3C09          MOV #0, AR1
    1597 000444       $C$L44:    
    1598 000444 0419          BCC $C$L45,AR1 != #0 ; |1315| 
         000446 12   
    1599                                                      ; branchcc occurs ; |1315| 
    1600                      .dwpsn  file "../FreeRTOS/Source/queue.c",line 1317,column 6,is_stmt
    1601 000447 ED10          MOV dbl(*SP(#8)), XAR0
         000449 8F   
    1602 00044a 1408          AADD #8, AR0 ; |1317| 
TMS320C55x Assembler PC v4.4.1 Sun Sep 09 04:48:36 2018

Tools Copyright (c) 1996-2012 Texas Instruments Incorporated
queue.asm                                                            PAGE   35

         00044c 84   
    1603              $C$DW$163       .dwtag  DW_TAG_TI_branch
    1604                      .dwattr $C$DW$163, DW_AT_low_pc(0x00)
    1605                      .dwattr $C$DW$163, DW_AT_name("_xTaskRemoveFromEventList")
    1606                      .dwattr $C$DW$163, DW_AT_TI_call
    1607 00044d 6C00          CALL #_xTaskRemoveFromEventList ; |1317| 
         00044f 0000!
    1608                                                      ; call occurs [#_xTaskRemoveFromEventList] ; |1317| 
    1609 000451 6304          BCC $C$L45,T0 == #0 ; |1317| 
    1610                                                      ; branchcc occurs ; |1317| 
    1611                      .dwpsn  file "../FreeRTOS/Source/queue.c",line 1319,column 7,is_stmt
    1612              $C$DW$164       .dwtag  DW_TAG_TI_branch
    1613                      .dwattr $C$DW$164, DW_AT_low_pc(0x00)
    1614                      .dwattr $C$DW$164, DW_AT_name("_vPortYield")
    1615                      .dwattr $C$DW$164, DW_AT_TI_call
    1616 000453 6C00          CALL #_vPortYield ; |1319| 
         000455 0000!
    1617                                                      ; call occurs [#_vPortYield] ; |1319| 
    1618                      .dwpsn  file "../FreeRTOS/Source/queue.c",line 1320,column 6,is_stmt
    1619 000457 4A00          B $C$L45  ; |1320| 
    1620                                                      ; branch occurs ; |1320| 
    1621 000459       $C$L45:    
    1622                      .dwpsn  file "../FreeRTOS/Source/queue.c",line 1331,column 5,is_stmt
    1623 000459 A931          MOV *(#_usCriticalNesting), AR1 ; |1331| 
         00045b 0000 
         00045d 00!  
    1624 00045e 0409          BCC $C$L46,AR1 == #0 ; |1331| 
         000460 14   
    1625                                                      ; branchcc occurs ; |1331| 
    1626 000461 F731          SUB #1, *(#_usCriticalNesting) ; |1331| 
         000463 FFFF 
         000465 0000 
         000467 00!  
    1627 000468 20            NOP
    1628 000469 20            NOP
    1629 00046a 20            NOP
    1630 00046b A931          MOV *(#_usCriticalNesting), AR1 ; |1331| 
         00046d 0000 
         00046f 00!  
    1631 000470 6199          BCC $C$L46,AR1 != #0 ; |1331| 
    1632                                                      ; branchcc occurs ; |1331| 
    1633 000472 20     nop
    1634 000473 46B2   bclr INTM
    1635 000475       $C$L46:    
    1636                      .dwpsn  file "../FreeRTOS/Source/queue.c",line 1332,column 5,is_stmt
    1637 000475 3C14          MOV #1, T0
    1638 000477 0600          B $C$L57  ; |1332| 
         000479 F8   
    1639                                                      ; branch occurs ; |1332| 
    1640 00047a       $C$L47:    
    1641 00047a       $C$DW$L$_xQueueReceive$15$B:
    1642                      .dwpsn  file "../FreeRTOS/Source/queue.c",line 1336,column 5,is_stmt
    1643 00047a A908          MOV *SP(#4), AR1 ; |1336| 
    1644 00047c 0419          BCC $C$L49,AR1 != #0 ; |1336| 
         00047e 21   
TMS320C55x Assembler PC v4.4.1 Sun Sep 09 04:48:36 2018

Tools Copyright (c) 1996-2012 Texas Instruments Incorporated
queue.asm                                                            PAGE   36

    1645                                                      ; branchcc occurs ; |1336| 
    1646 00047f       $C$DW$L$_xQueueReceive$15$E:
    1647                      .dwpsn  file "../FreeRTOS/Source/queue.c",line 1340,column 6,is_stmt
    1648 00047f A931          MOV *(#_usCriticalNesting), AR1 ; |1340| 
         000481 0000 
         000483 00!  
    1649 000484 0409          BCC $C$L48,AR1 == #0 ; |1340| 
         000486 14   
    1650                                                      ; branchcc occurs ; |1340| 
    1651 000487 F731          SUB #1, *(#_usCriticalNesting) ; |1340| 
         000489 FFFF 
         00048b 0000 
         00048d 00!  
    1652 00048e 20            NOP
    1653 00048f 20            NOP
    1654 000490 20            NOP
    1655 000491 A931          MOV *(#_usCriticalNesting), AR1 ; |1340| 
         000493 0000 
         000495 00!  
    1656 000496 6199          BCC $C$L48,AR1 != #0 ; |1340| 
    1657                                                      ; branchcc occurs ; |1340| 
    1658 000498 20     nop
    1659 000499 46B2   bclr INTM
    1660 00049b       $C$L48:    
    1661                      .dwpsn  file "../FreeRTOS/Source/queue.c",line 1342,column 6,is_stmt
    1662 00049b 3C04          MOV #0, T0
    1663 00049d 0600          B $C$L57  ; |1342| 
         00049f D2   
    1664                                                      ; branch occurs ; |1342| 
    1665 0004a0       $C$L49:    
    1666 0004a0       $C$DW$L$_xQueueReceive$21$B:
    1667                      .dwpsn  file "../FreeRTOS/Source/queue.c",line 1344,column 10,is_stmt
    1668 0004a0 A90A          MOV *SP(#5), AR1 ; |1344| 
    1669 0004a2 6519          BCC $C$L50,AR1 != #0 ; |1344| 
    1670                                                      ; branchcc occurs ; |1344| 
    1671 0004a4       $C$DW$L$_xQueueReceive$21$E:
    1672 0004a4       $C$DW$L$_xQueueReceive$22$B:
    1673                      .dwpsn  file "../FreeRTOS/Source/queue.c",line 1348,column 6,is_stmt
    1674 0004a4 EC0C          AMAR *SP(#6), XAR0
         0004a6 8E   
    1675              $C$DW$165       .dwtag  DW_TAG_TI_branch
    1676                      .dwattr $C$DW$165, DW_AT_low_pc(0x00)
    1677                      .dwattr $C$DW$165, DW_AT_name("_vTaskInternalSetTimeOutState")
    1678                      .dwattr $C$DW$165, DW_AT_TI_call
    1679 0004a7 6C00          CALL #_vTaskInternalSetTimeOutState ; |1348| 
         0004a9 0000!
    1680                                                      ; call occurs [#_vTaskInternalSetTimeOutState] ; |1348| 
    1681                      .dwpsn  file "../FreeRTOS/Source/queue.c",line 1349,column 6,is_stmt
    1682 0004ab E60A          MOV #1, *SP(#5) ; |1349| 
         0004ad 01   
    1683                      .dwpsn  file "../FreeRTOS/Source/queue.c",line 1350,column 5,is_stmt
    1684              $C$DW$L$_xQueueReceive$22$E:
    1685              $C$L50:    
    1686              $C$DW$L$_xQueueReceive$23$B:
    1687                      .dwendtag $C$DW$160
TMS320C55x Assembler PC v4.4.1 Sun Sep 09 04:48:36 2018

Tools Copyright (c) 1996-2012 Texas Instruments Incorporated
queue.asm                                                            PAGE   37

    1688              
    1689                      .dwpsn  file "../FreeRTOS/Source/queue.c",line 1358,column 3,is_stmt
    1690 0004ae A931          MOV *(#_usCriticalNesting), AR1 ; |1358| 
         0004b0 0000 
         0004b2 00!  
    1691 0004b3 0409          BCC $C$L51,AR1 == #0 ; |1358| 
         0004b5 14   
    1692                                                      ; branchcc occurs ; |1358| 
    1693 0004b6       $C$DW$L$_xQueueReceive$23$E:
    1694 0004b6       $C$DW$L$_xQueueReceive$24$B:
    1695 0004b6 F731          SUB #1, *(#_usCriticalNesting) ; |1358| 
         0004b8 FFFF 
         0004ba 0000 
         0004bc 00!  
    1696 0004bd 20            NOP
    1697 0004be 20            NOP
    1698 0004bf 20            NOP
    1699 0004c0 A931          MOV *(#_usCriticalNesting), AR1 ; |1358| 
         0004c2 0000 
         0004c4 00!  
    1700 0004c5 6199          BCC $C$L51,AR1 != #0 ; |1358| 
    1701                                                      ; branchcc occurs ; |1358| 
    1702 0004c7       $C$DW$L$_xQueueReceive$24$E:
    1703 0004c7       $C$DW$L$_xQueueReceive$25$B:
    1704 0004c7 20     nop
    1705 0004c8 46B2   bclr INTM
    1706 0004ca       $C$DW$L$_xQueueReceive$25$E:
    1707 0004ca       $C$L51:    
    1708 0004ca       $C$DW$L$_xQueueReceive$26$B:
    1709                      .dwpsn  file "../FreeRTOS/Source/queue.c",line 1363,column 3,is_stmt
    1710              $C$DW$166       .dwtag  DW_TAG_TI_branch
    1711                      .dwattr $C$DW$166, DW_AT_low_pc(0x00)
    1712                      .dwattr $C$DW$166, DW_AT_name("_vTaskSuspendAll")
    1713                      .dwattr $C$DW$166, DW_AT_TI_call
    1714 0004ca 6C00          CALL #_vTaskSuspendAll ; |1363| 
         0004cc 0000!
    1715                                                      ; call occurs [#_vTaskSuspendAll] ; |1363| 
    1716                      .dwpsn  file "../FreeRTOS/Source/queue.c",line 1364,column 3,is_stmt
    1717 0004ce 20     nop
    1718 0004cf 46B3   bset INTM
    1719 0004d1 F731          ADD #1, *(#_usCriticalNesting) ; |1364| 
         0004d3 0001 
         0004d5 0000 
         0004d7 00!  
    1720 0004d8 20            NOP
    1721 0004d9 20            NOP
    1722 0004da ED10          MOV dbl(*SP(#8)), XAR3
         0004dc BF   
    1723 0004dd F06D          CMP *AR3(#31) == #-1, TC1 ; |1364| 
         0004df FFFF 
         0004e1 001F 
    1724 0004e3 62F4          BCC $C$L52,!TC1 ; |1364| 
    1725                                                      ; branchcc occurs ; |1364| 
    1726 0004e5       $C$DW$L$_xQueueReceive$26$E:
    1727 0004e5       $C$DW$L$_xQueueReceive$27$B:
TMS320C55x Assembler PC v4.4.1 Sun Sep 09 04:48:36 2018

Tools Copyright (c) 1996-2012 Texas Instruments Incorporated
queue.asm                                                            PAGE   38

    1728 0004e5 E66D          MOV #0, *AR3(#31) ; |1364| 
         0004e7 0000 
         0004e9 1F   
    1729 0004ea       $C$DW$L$_xQueueReceive$27$E:
    1730 0004ea       $C$L52:    
    1731 0004ea       $C$DW$L$_xQueueReceive$28$B:
    1732 0004ea ED10          MOV dbl(*SP(#8)), XAR3
         0004ec BF   
    1733 0004ed F06D          CMP *AR3(#32) == #-1, TC1 ; |1364| 
         0004ef FFFF 
         0004f1 0020 
    1734 0004f3 62F4          BCC $C$L53,!TC1 ; |1364| 
    1735                                                      ; branchcc occurs ; |1364| 
    1736 0004f5       $C$DW$L$_xQueueReceive$28$E:
    1737 0004f5       $C$DW$L$_xQueueReceive$29$B:
    1738 0004f5 E66D          MOV #0, *AR3(#32) ; |1364| 
         0004f7 0000 
         0004f9 20   
    1739 0004fa       $C$DW$L$_xQueueReceive$29$E:
    1740 0004fa       $C$L53:    
    1741 0004fa       $C$DW$L$_xQueueReceive$30$B:
    1742 0004fa A931          MOV *(#_usCriticalNesting), AR1 ; |1364| 
         0004fc 0000 
         0004fe 00!  
    1743 0004ff 0409          BCC $C$L54,AR1 == #0 ; |1364| 
         000501 14   
    1744                                                      ; branchcc occurs ; |1364| 
    1745 000502       $C$DW$L$_xQueueReceive$30$E:
    1746 000502       $C$DW$L$_xQueueReceive$31$B:
    1747 000502 F731          SUB #1, *(#_usCriticalNesting) ; |1364| 
         000504 FFFF 
         000506 0000 
         000508 00!  
    1748 000509 20            NOP
    1749 00050a 20            NOP
    1750 00050b 20            NOP
    1751 00050c A931          MOV *(#_usCriticalNesting), AR1 ; |1364| 
         00050e 0000 
         000510 00!  
    1752 000511 6199          BCC $C$L54,AR1 != #0 ; |1364| 
    1753                                                      ; branchcc occurs ; |1364| 
    1754 000513       $C$DW$L$_xQueueReceive$31$E:
    1755 000513       $C$DW$L$_xQueueReceive$32$B:
    1756 000513 20     nop
    1757 000514 46B2   bclr INTM
    1758 000516       $C$DW$L$_xQueueReceive$32$E:
    1759 000516       $C$L54:    
    1760 000516       $C$DW$L$_xQueueReceive$33$B:
    1761                      .dwpsn  file "../FreeRTOS/Source/queue.c",line 1367,column 3,is_stmt
    1762 000516 EC0C          AMAR *SP(#6), XAR0
         000518 8E   
    1763 000519 EC08          AMAR *SP(#4), XAR1
         00051b 9E   
    1764              $C$DW$167       .dwtag  DW_TAG_TI_branch
    1765                      .dwattr $C$DW$167, DW_AT_low_pc(0x00)
TMS320C55x Assembler PC v4.4.1 Sun Sep 09 04:48:36 2018

Tools Copyright (c) 1996-2012 Texas Instruments Incorporated
queue.asm                                                            PAGE   39

    1766                      .dwattr $C$DW$167, DW_AT_name("_xTaskCheckForTimeOut")
    1767                      .dwattr $C$DW$167, DW_AT_TI_call
    1768 00051c 6C00          CALL #_xTaskCheckForTimeOut ; |1367| 
         00051e 0000!
    1769                                                      ; call occurs [#_xTaskCheckForTimeOut] ; |1367| 
    1770 000520 0414          BCC $C$L56,T0 != #0 ; |1367| 
         000522 37   
    1771                                                      ; branchcc occurs ; |1367| 
    1772 000523       $C$DW$L$_xQueueReceive$33$E:
    1773 000523       $C$DW$L$_xQueueReceive$34$B:
    1774                      .dwpsn  file "../FreeRTOS/Source/queue.c",line 1371,column 4,is_stmt
    1775 000523 ED10          MOV dbl(*SP(#8)), XAR0
         000525 8F   
    1776              $C$DW$168       .dwtag  DW_TAG_TI_branch
    1777                      .dwattr $C$DW$168, DW_AT_low_pc(0x00)
    1778                      .dwattr $C$DW$168, DW_AT_name("_prvIsQueueEmpty")
    1779                      .dwattr $C$DW$168, DW_AT_TI_call
    1780 000526 0806          CALL #_prvIsQueueEmpty ; |1371| 
         000528 DB   
    1781                                                      ; call occurs [#_prvIsQueueEmpty] ; |1371| 
    1782 000529 0404          BCC $C$L55,T0 == #0 ; |1371| 
         00052b 21   
    1783                                                      ; branchcc occurs ; |1371| 
    1784 00052c       $C$DW$L$_xQueueReceive$34$E:
    1785 00052c       $C$DW$L$_xQueueReceive$35$B:
    1786                      .dwpsn  file "../FreeRTOS/Source/queue.c",line 1374,column 5,is_stmt
    1787 00052c ED10          MOV dbl(*SP(#8)), XAR0
         00052e 8F   
    1788              
    1789                      AADD #18, AR0 ; |1374| 
    1790 00052f 8A08  ||      MOV *SP(#4), T0 ; |1374| 
         000531 841C 
         000533 12   
    1791              
    1792              $C$DW$169       .dwtag  DW_TAG_TI_branch
    1793                      .dwattr $C$DW$169, DW_AT_low_pc(0x00)
    1794                      .dwattr $C$DW$169, DW_AT_name("_vTaskPlaceOnEventList")
    1795                      .dwattr $C$DW$169, DW_AT_TI_call
    1796 000534 6C00          CALL #_vTaskPlaceOnEventList ; |1374| 
         000536 0000!
    1797                                                      ; call occurs [#_vTaskPlaceOnEventList] ; |1374| 
    1798                      .dwpsn  file "../FreeRTOS/Source/queue.c",line 1375,column 5,is_stmt
    1799 000538 ED10          MOV dbl(*SP(#8)), XAR0
         00053a 8F   
    1800              $C$DW$170       .dwtag  DW_TAG_TI_branch
    1801                      .dwattr $C$DW$170, DW_AT_low_pc(0x00)
    1802                      .dwattr $C$DW$170, DW_AT_name("_prvUnlockQueue")
    1803                      .dwattr $C$DW$170, DW_AT_TI_call
    1804 00053b 0805          CALL #_prvUnlockQueue ; |1375| 
         00053d E2   
    1805                                                      ; call occurs [#_prvUnlockQueue] ; |1375| 
    1806                      .dwpsn  file "../FreeRTOS/Source/queue.c",line 1376,column 5,is_stmt
    1807              $C$DW$171       .dwtag  DW_TAG_TI_branch
    1808                      .dwattr $C$DW$171, DW_AT_low_pc(0x00)
    1809                      .dwattr $C$DW$171, DW_AT_name("_xTaskResumeAll")
TMS320C55x Assembler PC v4.4.1 Sun Sep 09 04:48:36 2018

Tools Copyright (c) 1996-2012 Texas Instruments Incorporated
queue.asm                                                            PAGE   40

    1810                      .dwattr $C$DW$171, DW_AT_TI_call
    1811 00053e 6C00          CALL #_xTaskResumeAll ; |1376| 
         000540 0000!
    1812                                                      ; call occurs [#_xTaskResumeAll] ; |1376| 
    1813 000542 6D14          BCC $C$L42,T0 != #0 ; |1376| 
         000544 FEC1 
    1814                                                      ; branchcc occurs ; |1376| 
    1815 000546       $C$DW$L$_xQueueReceive$35$E:
    1816 000546       $C$DW$L$_xQueueReceive$36$B:
    1817                      .dwpsn  file "../FreeRTOS/Source/queue.c",line 1378,column 6,is_stmt
    1818              $C$DW$172       .dwtag  DW_TAG_TI_branch
    1819                      .dwattr $C$DW$172, DW_AT_low_pc(0x00)
    1820                      .dwattr $C$DW$172, DW_AT_name("_vPortYield")
    1821                      .dwattr $C$DW$172, DW_AT_TI_call
    1822 000546 6C00          CALL #_vPortYield ; |1378| 
         000548 0000!
    1823                                                      ; call occurs [#_vPortYield] ; |1378| 
    1824                      .dwpsn  file "../FreeRTOS/Source/queue.c",line 1379,column 5,is_stmt
    1825 00054a 06FE          B $C$L42  ; |1379| 
         00054c BA   
    1826                                                      ; branch occurs ; |1379| 
    1827 00054d       $C$DW$L$_xQueueReceive$36$E:
    1828 00054d       $C$L55:    
    1829 00054d       $C$DW$L$_xQueueReceive$38$B:
    1830                      .dwpsn  file "../FreeRTOS/Source/queue.c",line 1389,column 5,is_stmt
    1831 00054d ED10          MOV dbl(*SP(#8)), XAR0
         00054f 8F   
    1832              $C$DW$173       .dwtag  DW_TAG_TI_branch
    1833                      .dwattr $C$DW$173, DW_AT_low_pc(0x00)
    1834                      .dwattr $C$DW$173, DW_AT_name("_prvUnlockQueue")
    1835                      .dwattr $C$DW$173, DW_AT_TI_call
    1836 000550 0805          CALL #_prvUnlockQueue ; |1389| 
         000552 CD   
    1837                                                      ; call occurs [#_prvUnlockQueue] ; |1389| 
    1838                      .dwpsn  file "../FreeRTOS/Source/queue.c",line 1390,column 5,is_stmt
    1839              $C$DW$174       .dwtag  DW_TAG_TI_branch
    1840                      .dwattr $C$DW$174, DW_AT_low_pc(0x00)
    1841                      .dwattr $C$DW$174, DW_AT_name("_xTaskResumeAll")
    1842                      .dwattr $C$DW$174, DW_AT_TI_call
    1843 000553 6C00          CALL #_xTaskResumeAll ; |1390| 
         000555 0000!
    1844                                                      ; call occurs [#_xTaskResumeAll] ; |1390| 
    1845                      .dwpsn  file "../FreeRTOS/Source/queue.c",line 1392,column 3,is_stmt
    1846 000557 06FE          B $C$L42  ; |1392| 
         000559 AD   
    1847                                                      ; branch occurs ; |1392| 
    1848 00055a       $C$DW$L$_xQueueReceive$38$E:
    1849 00055a       $C$L56:    
    1850 00055a       $C$DW$L$_xQueueReceive$39$B:
    1851                      .dwpsn  file "../FreeRTOS/Source/queue.c",line 1397,column 4,is_stmt
    1852 00055a ED10          MOV dbl(*SP(#8)), XAR0
         00055c 8F   
    1853              $C$DW$175       .dwtag  DW_TAG_TI_branch
    1854                      .dwattr $C$DW$175, DW_AT_low_pc(0x00)
    1855                      .dwattr $C$DW$175, DW_AT_name("_prvUnlockQueue")
TMS320C55x Assembler PC v4.4.1 Sun Sep 09 04:48:36 2018

Tools Copyright (c) 1996-2012 Texas Instruments Incorporated
queue.asm                                                            PAGE   41

    1856                      .dwattr $C$DW$175, DW_AT_TI_call
    1857 00055d 0805          CALL #_prvUnlockQueue ; |1397| 
         00055f C0   
    1858                                                      ; call occurs [#_prvUnlockQueue] ; |1397| 
    1859                      .dwpsn  file "../FreeRTOS/Source/queue.c",line 1398,column 4,is_stmt
    1860              $C$DW$176       .dwtag  DW_TAG_TI_branch
    1861                      .dwattr $C$DW$176, DW_AT_low_pc(0x00)
    1862                      .dwattr $C$DW$176, DW_AT_name("_xTaskResumeAll")
    1863                      .dwattr $C$DW$176, DW_AT_TI_call
    1864 000560 6C00          CALL #_xTaskResumeAll ; |1398| 
         000562 0000!
    1865                                                      ; call occurs [#_xTaskResumeAll] ; |1398| 
    1866                      .dwpsn  file "../FreeRTOS/Source/queue.c",line 1400,column 4,is_stmt
    1867 000564 ED10          MOV dbl(*SP(#8)), XAR0
         000566 8F   
    1868              $C$DW$177       .dwtag  DW_TAG_TI_branch
    1869                      .dwattr $C$DW$177, DW_AT_low_pc(0x00)
    1870                      .dwattr $C$DW$177, DW_AT_name("_prvIsQueueEmpty")
    1871                      .dwattr $C$DW$177, DW_AT_TI_call
    1872 000567 0806          CALL #_prvIsQueueEmpty ; |1400| 
         000569 9A   
    1873                                                      ; call occurs [#_prvIsQueueEmpty] ; |1400| 
    1874 00056a 6D04          BCC $C$L42,T0 == #0 ; |1400| 
         00056c FE99 
    1875                                                      ; branchcc occurs ; |1400| 
    1876 00056e       $C$DW$L$_xQueueReceive$39$E:
    1877                      .dwpsn  file "../FreeRTOS/Source/queue.c",line 1403,column 5,is_stmt
    1878 00056e 3C04          MOV #0, T0
    1879 000570 4A00          B $C$L57  ; |1403| 
    1880                                                      ; branch occurs ; |1403| 
    1881 000572       $C$L57:    
    1882                      .dwpsn  file "../FreeRTOS/Source/queue.c",line 1411,column 1,is_stmt
    1883 000572 4E0B          AADD #11, SP
    1884                      .dwcfi  cfa_offset, 1
    1885              $C$DW$178       .dwtag  DW_TAG_TI_branch
    1886                      .dwattr $C$DW$178, DW_AT_low_pc(0x00)
    1887                      .dwattr $C$DW$178, DW_AT_TI_return
    1888 000574 4804          RET
    1889                                                      ; return occurs
    1890              
    1891              $C$DW$179       .dwtag  DW_TAG_TI_loop
    1892                      .dwattr $C$DW$179, DW_AT_name("F:\eZdsp_DBG\eZDSP_5535_Files\ccsws2\test\Debug\queue.asm:$C$L42:1:153
    1893                      .dwattr $C$DW$179, DW_AT_TI_begin_file("../FreeRTOS/Source/queue.c")
    1894                      .dwattr $C$DW$179, DW_AT_TI_begin_line(0x511)
    1895                      .dwattr $C$DW$179, DW_AT_TI_end_line(0x582)
    1896              $C$DW$180       .dwtag  DW_TAG_TI_loop_range
    1897                      .dwattr $C$DW$180, DW_AT_low_pc($C$DW$L$_xQueueReceive$2$B)
    1898                      .dwattr $C$DW$180, DW_AT_high_pc($C$DW$L$_xQueueReceive$2$E)
    1899              $C$DW$181       .dwtag  DW_TAG_TI_loop_range
    1900                      .dwattr $C$DW$181, DW_AT_low_pc($C$DW$L$_xQueueReceive$15$B)
    1901                      .dwattr $C$DW$181, DW_AT_high_pc($C$DW$L$_xQueueReceive$15$E)
    1902              $C$DW$182       .dwtag  DW_TAG_TI_loop_range
    1903                      .dwattr $C$DW$182, DW_AT_low_pc($C$DW$L$_xQueueReceive$21$B)
    1904                      .dwattr $C$DW$182, DW_AT_high_pc($C$DW$L$_xQueueReceive$21$E)
    1905              $C$DW$183       .dwtag  DW_TAG_TI_loop_range
TMS320C55x Assembler PC v4.4.1 Sun Sep 09 04:48:36 2018

Tools Copyright (c) 1996-2012 Texas Instruments Incorporated
queue.asm                                                            PAGE   42

    1906                      .dwattr $C$DW$183, DW_AT_low_pc($C$DW$L$_xQueueReceive$22$B)
    1907                      .dwattr $C$DW$183, DW_AT_high_pc($C$DW$L$_xQueueReceive$22$E)
    1908              $C$DW$184       .dwtag  DW_TAG_TI_loop_range
    1909                      .dwattr $C$DW$184, DW_AT_low_pc($C$DW$L$_xQueueReceive$23$B)
    1910                      .dwattr $C$DW$184, DW_AT_high_pc($C$DW$L$_xQueueReceive$23$E)
    1911              $C$DW$185       .dwtag  DW_TAG_TI_loop_range
    1912                      .dwattr $C$DW$185, DW_AT_low_pc($C$DW$L$_xQueueReceive$24$B)
    1913                      .dwattr $C$DW$185, DW_AT_high_pc($C$DW$L$_xQueueReceive$24$E)
    1914              $C$DW$186       .dwtag  DW_TAG_TI_loop_range
    1915                      .dwattr $C$DW$186, DW_AT_low_pc($C$DW$L$_xQueueReceive$25$B)
    1916                      .dwattr $C$DW$186, DW_AT_high_pc($C$DW$L$_xQueueReceive$25$E)
    1917              $C$DW$187       .dwtag  DW_TAG_TI_loop_range
    1918                      .dwattr $C$DW$187, DW_AT_low_pc($C$DW$L$_xQueueReceive$26$B)
    1919                      .dwattr $C$DW$187, DW_AT_high_pc($C$DW$L$_xQueueReceive$26$E)
    1920              $C$DW$188       .dwtag  DW_TAG_TI_loop_range
    1921                      .dwattr $C$DW$188, DW_AT_low_pc($C$DW$L$_xQueueReceive$27$B)
    1922                      .dwattr $C$DW$188, DW_AT_high_pc($C$DW$L$_xQueueReceive$27$E)
    1923              $C$DW$189       .dwtag  DW_TAG_TI_loop_range
    1924                      .dwattr $C$DW$189, DW_AT_low_pc($C$DW$L$_xQueueReceive$28$B)
    1925                      .dwattr $C$DW$189, DW_AT_high_pc($C$DW$L$_xQueueReceive$28$E)
    1926              $C$DW$190       .dwtag  DW_TAG_TI_loop_range
    1927                      .dwattr $C$DW$190, DW_AT_low_pc($C$DW$L$_xQueueReceive$29$B)
    1928                      .dwattr $C$DW$190, DW_AT_high_pc($C$DW$L$_xQueueReceive$29$E)
    1929              $C$DW$191       .dwtag  DW_TAG_TI_loop_range
    1930                      .dwattr $C$DW$191, DW_AT_low_pc($C$DW$L$_xQueueReceive$30$B)
    1931                      .dwattr $C$DW$191, DW_AT_high_pc($C$DW$L$_xQueueReceive$30$E)
    1932              $C$DW$192       .dwtag  DW_TAG_TI_loop_range
    1933                      .dwattr $C$DW$192, DW_AT_low_pc($C$DW$L$_xQueueReceive$31$B)
    1934                      .dwattr $C$DW$192, DW_AT_high_pc($C$DW$L$_xQueueReceive$31$E)
    1935              $C$DW$193       .dwtag  DW_TAG_TI_loop_range
    1936                      .dwattr $C$DW$193, DW_AT_low_pc($C$DW$L$_xQueueReceive$32$B)
    1937                      .dwattr $C$DW$193, DW_AT_high_pc($C$DW$L$_xQueueReceive$32$E)
    1938              $C$DW$194       .dwtag  DW_TAG_TI_loop_range
    1939                      .dwattr $C$DW$194, DW_AT_low_pc($C$DW$L$_xQueueReceive$33$B)
    1940                      .dwattr $C$DW$194, DW_AT_high_pc($C$DW$L$_xQueueReceive$33$E)
    1941              $C$DW$195       .dwtag  DW_TAG_TI_loop_range
    1942                      .dwattr $C$DW$195, DW_AT_low_pc($C$DW$L$_xQueueReceive$34$B)
    1943                      .dwattr $C$DW$195, DW_AT_high_pc($C$DW$L$_xQueueReceive$34$E)
    1944              $C$DW$196       .dwtag  DW_TAG_TI_loop_range
    1945                      .dwattr $C$DW$196, DW_AT_low_pc($C$DW$L$_xQueueReceive$39$B)
    1946                      .dwattr $C$DW$196, DW_AT_high_pc($C$DW$L$_xQueueReceive$39$E)
    1947              $C$DW$197       .dwtag  DW_TAG_TI_loop_range
    1948                      .dwattr $C$DW$197, DW_AT_low_pc($C$DW$L$_xQueueReceive$38$B)
    1949                      .dwattr $C$DW$197, DW_AT_high_pc($C$DW$L$_xQueueReceive$38$E)
    1950              $C$DW$198       .dwtag  DW_TAG_TI_loop_range
    1951                      .dwattr $C$DW$198, DW_AT_low_pc($C$DW$L$_xQueueReceive$36$B)
    1952                      .dwattr $C$DW$198, DW_AT_high_pc($C$DW$L$_xQueueReceive$36$E)
    1953              $C$DW$199       .dwtag  DW_TAG_TI_loop_range
    1954                      .dwattr $C$DW$199, DW_AT_low_pc($C$DW$L$_xQueueReceive$35$B)
    1955                      .dwattr $C$DW$199, DW_AT_high_pc($C$DW$L$_xQueueReceive$35$E)
    1956                      .dwendtag $C$DW$179
    1957              
    1958                      .dwattr $C$DW$150, DW_AT_TI_end_file("../FreeRTOS/Source/queue.c")
    1959                      .dwattr $C$DW$150, DW_AT_TI_end_line(0x583)
    1960                      .dwattr $C$DW$150, DW_AT_TI_end_column(0x01)
TMS320C55x Assembler PC v4.4.1 Sun Sep 09 04:48:36 2018

Tools Copyright (c) 1996-2012 Texas Instruments Incorporated
queue.asm                                                            PAGE   43

    1961                      .dwendentry
    1962                      .dwendtag $C$DW$150
    1963              
    1964 000576               .sect   ".text"
    1965                      .align 4
    1966                      .global _xQueueSemaphoreTake
    1967              
    1968              $C$DW$200       .dwtag  DW_TAG_subprogram, DW_AT_name("xQueueSemaphoreTake")
    1969                      .dwattr $C$DW$200, DW_AT_low_pc(_xQueueSemaphoreTake)
    1970                      .dwattr $C$DW$200, DW_AT_high_pc(0x00)
    1971                      .dwattr $C$DW$200, DW_AT_TI_symbol_name("_xQueueSemaphoreTake")
    1972                      .dwattr $C$DW$200, DW_AT_external
    1973                      .dwattr $C$DW$200, DW_AT_type(*$C$DW$T$43)
    1974                      .dwattr $C$DW$200, DW_AT_TI_begin_file("../FreeRTOS/Source/queue.c")
    1975                      .dwattr $C$DW$200, DW_AT_TI_begin_line(0x586)
    1976                      .dwattr $C$DW$200, DW_AT_TI_begin_column(0x0c)
    1977                      .dwattr $C$DW$200, DW_AT_TI_max_frame_size(0x0a)
    1978                      .dwpsn  file "../FreeRTOS/Source/queue.c",line 1415,column 1,is_stmt,address _xQueueSemaphoreTake
    1979              
    1980                      .dwfde $C$DW$CIE, _xQueueSemaphoreTake
    1981              $C$DW$201       .dwtag  DW_TAG_formal_parameter, DW_AT_name("xQueue")
    1982                      .dwattr $C$DW$201, DW_AT_TI_symbol_name("_xQueue")
    1983                      .dwattr $C$DW$201, DW_AT_type(*$C$DW$T$46)
    1984                      .dwattr $C$DW$201, DW_AT_location[DW_OP_reg17]
    1985              $C$DW$202       .dwtag  DW_TAG_formal_parameter, DW_AT_name("xTicksToWait")
    1986                      .dwattr $C$DW$202, DW_AT_TI_symbol_name("_xTicksToWait")
    1987                      .dwattr $C$DW$202, DW_AT_type(*$C$DW$T$38)
    1988                      .dwattr $C$DW$202, DW_AT_location[DW_OP_reg12]
    1989              ;*******************************************************************************
    1990              ;* FUNCTION NAME: xQueueSemaphoreTake                                          *
    1991              ;*                                                                             *
    1992              ;*   Function Uses Regs : T0,AR0,XAR0,AR1,XAR1,AR3,XAR3,SP,CARRY,TC1,M40,SATA, *
    1993              ;*                        SATD,RDM,FRCT,SMUL                                   *
    1994              ;*   Stack Frame        : Compact (No Frame Pointer, w/ debug)                 *
    1995              ;*   Total Frame Size   : 10 words                                             *
    1996              ;*                        (1 return address/alignment)                         *
    1997              ;*                        (9 local values)                                     *
    1998              ;*   Min System Stack   : 1 word                                               *
    1999              ;*******************************************************************************
    2000 000578       _xQueueSemaphoreTake:
    2001                      .dwcfi  cfa_offset, 1
    2002                      .dwcfi  save_reg_to_mem, 91, -1
    2003 000578 4EF7          AADD #-9, SP
    2004                      .dwcfi  cfa_offset, 10
    2005              $C$DW$203       .dwtag  DW_TAG_variable, DW_AT_name("xQueue")
    2006                      .dwattr $C$DW$203, DW_AT_TI_symbol_name("_xQueue")
    2007                      .dwattr $C$DW$203, DW_AT_type(*$C$DW$T$46)
    2008                      .dwattr $C$DW$203, DW_AT_location[DW_OP_bregx 0x24 0]
    2009              $C$DW$204       .dwtag  DW_TAG_variable, DW_AT_name("xTicksToWait")
    2010                      .dwattr $C$DW$204, DW_AT_TI_symbol_name("_xTicksToWait")
    2011                      .dwattr $C$DW$204, DW_AT_type(*$C$DW$T$38)
    2012                      .dwattr $C$DW$204, DW_AT_location[DW_OP_bregx 0x24 2]
    2013              $C$DW$205       .dwtag  DW_TAG_variable, DW_AT_name("xEntryTimeSet")
    2014                      .dwattr $C$DW$205, DW_AT_TI_symbol_name("_xEntryTimeSet")
    2015                      .dwattr $C$DW$205, DW_AT_type(*$C$DW$T$43)
TMS320C55x Assembler PC v4.4.1 Sun Sep 09 04:48:36 2018

Tools Copyright (c) 1996-2012 Texas Instruments Incorporated
queue.asm                                                            PAGE   44

    2016                      .dwattr $C$DW$205, DW_AT_location[DW_OP_bregx 0x24 3]
    2017              $C$DW$206       .dwtag  DW_TAG_variable, DW_AT_name("xTimeOut")
    2018                      .dwattr $C$DW$206, DW_AT_TI_symbol_name("_xTimeOut")
    2019                      .dwattr $C$DW$206, DW_AT_type(*$C$DW$T$77)
    2020                      .dwattr $C$DW$206, DW_AT_location[DW_OP_bregx 0x24 4]
    2021              $C$DW$207       .dwtag  DW_TAG_variable, DW_AT_name("pxQueue")
    2022                      .dwattr $C$DW$207, DW_AT_TI_symbol_name("_pxQueue")
    2023                      .dwattr $C$DW$207, DW_AT_type(*$C$DW$T$57)
    2024                      .dwattr $C$DW$207, DW_AT_location[DW_OP_bregx 0x24 6]
    2025 00057a C404          MOV T0, *SP(#2) ; |1415| 
    2026 00057c EB00          MOV XAR0, dbl(*SP(#0))
         00057e 85   
    2027                      .dwpsn  file "../FreeRTOS/Source/queue.c",line 1416,column 12,is_stmt
    2028 00057f E606          MOV #0, *SP(#3) ; |1416| 
         000581 00   
    2029                      .dwpsn  file "../FreeRTOS/Source/queue.c",line 1418,column 17,is_stmt
    2030 000582 ED00          MOV dbl(*SP(#0)), XAR3
         000584 BF   
    2031 000585 EB0C          MOV XAR3, dbl(*SP(#6))
         000587 B5   
    2032 000588       $C$L58:    
    2033 000588       $C$DW$L$_xQueueSemaphoreTake$2$B:
    2034                      .dwpsn  file "../FreeRTOS/Source/queue.c",line 1444,column 3,is_stmt
    2035 000588 20     nop
    2036 000589 46B3   bset INTM
    2037 00058b F731          ADD #1, *(#_usCriticalNesting) ; |1444| 
         00058d 0001 
         00058f 0000 
         000591 00!  
    2038 000592 20            NOP
    2039 000593 20            NOP
    2040              
    2041              $C$DW$208       .dwtag  DW_TAG_lexical_block, DW_AT_low_pc(0x00), DW_AT_high_pc(0x00)
    2042              $C$DW$209       .dwtag  DW_TAG_variable, DW_AT_name("uxSemaphoreCount")
    2043                      .dwattr $C$DW$209, DW_AT_TI_symbol_name("_uxSemaphoreCount")
    2044                      .dwattr $C$DW$209, DW_AT_type(*$C$DW$T$48)
    2045                      .dwattr $C$DW$209, DW_AT_location[DW_OP_bregx 0x24 8]
    2046                      .dwpsn  file "../FreeRTOS/Source/queue.c",line 1448,column 22,is_stmt
    2047 000594 ED0C          MOV dbl(*SP(#6)), XAR3
         000596 BF   
    2048 000597 A96D          MOV *AR3(#28), AR1 ; |1448| 
         000599 001C 
    2049 00059b C910          MOV AR1, *SP(#8) ; |1448| 
    2050                      .dwpsn  file "../FreeRTOS/Source/queue.c",line 1452,column 4,is_stmt
    2051 00059d 0409          BCC $C$L63,AR1 == #0 ; |1452| 
         00059f 50   
    2052                                                      ; branchcc occurs ; |1452| 
    2053 0005a0       $C$DW$L$_xQueueSemaphoreTake$2$E:
    2054                      .dwpsn  file "../FreeRTOS/Source/queue.c",line 1458,column 5,is_stmt
    2055 0005a0 ED0C          MOV dbl(*SP(#6)), XAR3
         0005a2 BF   
    2056 0005a3 4219          SUB #1, AR1 ; |1458| 
    2057 0005a5 C96D          MOV AR1, *AR3(#28) ; |1458| 
         0005a7 001C 
    2058 0005a9 20            NOP
TMS320C55x Assembler PC v4.4.1 Sun Sep 09 04:48:36 2018

Tools Copyright (c) 1996-2012 Texas Instruments Incorporated
queue.asm                                                            PAGE   45

    2059 0005aa 20            NOP
    2060                      .dwpsn  file "../FreeRTOS/Source/queue.c",line 1477,column 5,is_stmt
    2061 0005ab ED0C          MOV dbl(*SP(#6)), XAR3
         0005ad BF   
    2062 0005ae A96D          MOV *AR3(#8), AR1 ; |1477| 
         0005b0 0008 
    2063 0005b2 6219          BCC $C$L59,AR1 != #0 ; |1477| 
    2064                                                      ; branchcc occurs ; |1477| 
    2065 0005b4 3C19          MOV #1, AR1
    2066 0005b6 4A02          B $C$L60  ; |1477| 
    2067                                                      ; branch occurs ; |1477| 
    2068 0005b8       $C$L59:    
    2069 0005b8 3C09          MOV #0, AR1
    2070 0005ba       $C$L60:    
    2071 0005ba 0419          BCC $C$L61,AR1 != #0 ; |1477| 
         0005bc 12   
    2072                                                      ; branchcc occurs ; |1477| 
    2073                      .dwpsn  file "../FreeRTOS/Source/queue.c",line 1479,column 6,is_stmt
    2074 0005bd ED0C          MOV dbl(*SP(#6)), XAR0
         0005bf 8F   
    2075 0005c0 1408          AADD #8, AR0 ; |1479| 
         0005c2 84   
    2076              $C$DW$210       .dwtag  DW_TAG_TI_branch
    2077                      .dwattr $C$DW$210, DW_AT_low_pc(0x00)
    2078                      .dwattr $C$DW$210, DW_AT_name("_xTaskRemoveFromEventList")
    2079                      .dwattr $C$DW$210, DW_AT_TI_call
    2080 0005c3 6C00          CALL #_xTaskRemoveFromEventList ; |1479| 
         0005c5 0000!
    2081                                                      ; call occurs [#_xTaskRemoveFromEventList] ; |1479| 
    2082 0005c7 6304          BCC $C$L61,T0 == #0 ; |1479| 
    2083                                                      ; branchcc occurs ; |1479| 
    2084                      .dwpsn  file "../FreeRTOS/Source/queue.c",line 1481,column 7,is_stmt
    2085              $C$DW$211       .dwtag  DW_TAG_TI_branch
    2086                      .dwattr $C$DW$211, DW_AT_low_pc(0x00)
    2087                      .dwattr $C$DW$211, DW_AT_name("_vPortYield")
    2088                      .dwattr $C$DW$211, DW_AT_TI_call
    2089 0005c9 6C00          CALL #_vPortYield ; |1481| 
         0005cb 0000!
    2090                                                      ; call occurs [#_vPortYield] ; |1481| 
    2091                      .dwpsn  file "../FreeRTOS/Source/queue.c",line 1482,column 6,is_stmt
    2092 0005cd 4A00          B $C$L61  ; |1482| 
    2093                                                      ; branch occurs ; |1482| 
    2094 0005cf       $C$L61:    
    2095                      .dwpsn  file "../FreeRTOS/Source/queue.c",line 1493,column 5,is_stmt
    2096 0005cf A931          MOV *(#_usCriticalNesting), AR1 ; |1493| 
         0005d1 0000 
         0005d3 00!  
    2097 0005d4 0409          BCC $C$L62,AR1 == #0 ; |1493| 
         0005d6 14   
    2098                                                      ; branchcc occurs ; |1493| 
    2099 0005d7 F731          SUB #1, *(#_usCriticalNesting) ; |1493| 
         0005d9 FFFF 
         0005db 0000 
         0005dd 00!  
    2100 0005de 20            NOP
TMS320C55x Assembler PC v4.4.1 Sun Sep 09 04:48:36 2018

Tools Copyright (c) 1996-2012 Texas Instruments Incorporated
queue.asm                                                            PAGE   46

    2101 0005df 20            NOP
    2102 0005e0 20            NOP
    2103 0005e1 A931          MOV *(#_usCriticalNesting), AR1 ; |1493| 
         0005e3 0000 
         0005e5 00!  
    2104 0005e6 6199          BCC $C$L62,AR1 != #0 ; |1493| 
    2105                                                      ; branchcc occurs ; |1493| 
    2106 0005e8 20     nop
    2107 0005e9 46B2   bclr INTM
    2108 0005eb       $C$L62:    
    2109                      .dwpsn  file "../FreeRTOS/Source/queue.c",line 1494,column 5,is_stmt
    2110 0005eb 3C14          MOV #1, T0
    2111 0005ed 0600          B $C$L73  ; |1494| 
         0005ef F8   
    2112                                                      ; branch occurs ; |1494| 
    2113 0005f0       $C$L63:    
    2114 0005f0       $C$DW$L$_xQueueSemaphoreTake$15$B:
    2115                      .dwpsn  file "../FreeRTOS/Source/queue.c",line 1498,column 5,is_stmt
    2116 0005f0 A904          MOV *SP(#2), AR1 ; |1498| 
    2117 0005f2 0419          BCC $C$L65,AR1 != #0 ; |1498| 
         0005f4 21   
    2118                                                      ; branchcc occurs ; |1498| 
    2119 0005f5       $C$DW$L$_xQueueSemaphoreTake$15$E:
    2120                      .dwpsn  file "../FreeRTOS/Source/queue.c",line 1511,column 6,is_stmt
    2121 0005f5 A931          MOV *(#_usCriticalNesting), AR1 ; |1511| 
         0005f7 0000 
         0005f9 00!  
    2122 0005fa 0409          BCC $C$L64,AR1 == #0 ; |1511| 
         0005fc 14   
    2123                                                      ; branchcc occurs ; |1511| 
    2124 0005fd F731          SUB #1, *(#_usCriticalNesting) ; |1511| 
         0005ff FFFF 
         000601 0000 
         000603 00!  
    2125 000604 20            NOP
    2126 000605 20            NOP
    2127 000606 20            NOP
    2128 000607 A931          MOV *(#_usCriticalNesting), AR1 ; |1511| 
         000609 0000 
         00060b 00!  
    2129 00060c 6199          BCC $C$L64,AR1 != #0 ; |1511| 
    2130                                                      ; branchcc occurs ; |1511| 
    2131 00060e 20     nop
    2132 00060f 46B2   bclr INTM
    2133 000611       $C$L64:    
    2134                      .dwpsn  file "../FreeRTOS/Source/queue.c",line 1513,column 6,is_stmt
    2135 000611 3C04          MOV #0, T0
    2136 000613 0600          B $C$L73  ; |1513| 
         000615 D2   
    2137                                                      ; branch occurs ; |1513| 
    2138 000616       $C$L65:    
    2139 000616       $C$DW$L$_xQueueSemaphoreTake$21$B:
    2140                      .dwpsn  file "../FreeRTOS/Source/queue.c",line 1515,column 10,is_stmt
    2141 000616 A906          MOV *SP(#3), AR1 ; |1515| 
    2142 000618 6519          BCC $C$L66,AR1 != #0 ; |1515| 
TMS320C55x Assembler PC v4.4.1 Sun Sep 09 04:48:36 2018

Tools Copyright (c) 1996-2012 Texas Instruments Incorporated
queue.asm                                                            PAGE   47

    2143                                                      ; branchcc occurs ; |1515| 
    2144 00061a       $C$DW$L$_xQueueSemaphoreTake$21$E:
    2145 00061a       $C$DW$L$_xQueueSemaphoreTake$22$B:
    2146                      .dwpsn  file "../FreeRTOS/Source/queue.c",line 1519,column 6,is_stmt
    2147 00061a EC08          AMAR *SP(#4), XAR0
         00061c 8E   
    2148              $C$DW$212       .dwtag  DW_TAG_TI_branch
    2149                      .dwattr $C$DW$212, DW_AT_low_pc(0x00)
    2150                      .dwattr $C$DW$212, DW_AT_name("_vTaskInternalSetTimeOutState")
    2151                      .dwattr $C$DW$212, DW_AT_TI_call
    2152 00061d 6C00          CALL #_vTaskInternalSetTimeOutState ; |1519| 
         00061f 0000!
    2153                                                      ; call occurs [#_vTaskInternalSetTimeOutState] ; |1519| 
    2154                      .dwpsn  file "../FreeRTOS/Source/queue.c",line 1520,column 6,is_stmt
    2155 000621 E606          MOV #1, *SP(#3) ; |1520| 
         000623 01   
    2156                      .dwpsn  file "../FreeRTOS/Source/queue.c",line 1521,column 5,is_stmt
    2157              $C$DW$L$_xQueueSemaphoreTake$22$E:
    2158              $C$L66:    
    2159              $C$DW$L$_xQueueSemaphoreTake$23$B:
    2160                      .dwendtag $C$DW$208
    2161              
    2162                      .dwpsn  file "../FreeRTOS/Source/queue.c",line 1529,column 3,is_stmt
    2163 000624 A931          MOV *(#_usCriticalNesting), AR1 ; |1529| 
         000626 0000 
         000628 00!  
    2164 000629 0409          BCC $C$L67,AR1 == #0 ; |1529| 
         00062b 14   
    2165                                                      ; branchcc occurs ; |1529| 
    2166 00062c       $C$DW$L$_xQueueSemaphoreTake$23$E:
    2167 00062c       $C$DW$L$_xQueueSemaphoreTake$24$B:
    2168 00062c F731          SUB #1, *(#_usCriticalNesting) ; |1529| 
         00062e FFFF 
         000630 0000 
         000632 00!  
    2169 000633 20            NOP
    2170 000634 20            NOP
    2171 000635 20            NOP
    2172 000636 A931          MOV *(#_usCriticalNesting), AR1 ; |1529| 
         000638 0000 
         00063a 00!  
    2173 00063b 6199          BCC $C$L67,AR1 != #0 ; |1529| 
    2174                                                      ; branchcc occurs ; |1529| 
    2175 00063d       $C$DW$L$_xQueueSemaphoreTake$24$E:
    2176 00063d       $C$DW$L$_xQueueSemaphoreTake$25$B:
    2177 00063d 20     nop
    2178 00063e 46B2   bclr INTM
    2179 000640       $C$DW$L$_xQueueSemaphoreTake$25$E:
    2180 000640       $C$L67:    
    2181 000640       $C$DW$L$_xQueueSemaphoreTake$26$B:
    2182                      .dwpsn  file "../FreeRTOS/Source/queue.c",line 1534,column 3,is_stmt
    2183              $C$DW$213       .dwtag  DW_TAG_TI_branch
    2184                      .dwattr $C$DW$213, DW_AT_low_pc(0x00)
    2185                      .dwattr $C$DW$213, DW_AT_name("_vTaskSuspendAll")
    2186                      .dwattr $C$DW$213, DW_AT_TI_call
TMS320C55x Assembler PC v4.4.1 Sun Sep 09 04:48:36 2018

Tools Copyright (c) 1996-2012 Texas Instruments Incorporated
queue.asm                                                            PAGE   48

    2187 000640 6C00          CALL #_vTaskSuspendAll ; |1534| 
         000642 0000!
    2188                                                      ; call occurs [#_vTaskSuspendAll] ; |1534| 
    2189                      .dwpsn  file "../FreeRTOS/Source/queue.c",line 1535,column 3,is_stmt
    2190 000644 20     nop
    2191 000645 46B3   bset INTM
    2192 000647 F731          ADD #1, *(#_usCriticalNesting) ; |1535| 
         000649 0001 
         00064b 0000 
         00064d 00!  
    2193 00064e 20            NOP
    2194 00064f 20            NOP
    2195 000650 ED0C          MOV dbl(*SP(#6)), XAR3
         000652 BF   
    2196 000653 F06D          CMP *AR3(#31) == #-1, TC1 ; |1535| 
         000655 FFFF 
         000657 001F 
    2197 000659 62F4          BCC $C$L68,!TC1 ; |1535| 
    2198                                                      ; branchcc occurs ; |1535| 
    2199 00065b       $C$DW$L$_xQueueSemaphoreTake$26$E:
    2200 00065b       $C$DW$L$_xQueueSemaphoreTake$27$B:
    2201 00065b E66D          MOV #0, *AR3(#31) ; |1535| 
         00065d 0000 
         00065f 1F   
    2202 000660       $C$DW$L$_xQueueSemaphoreTake$27$E:
    2203 000660       $C$L68:    
    2204 000660       $C$DW$L$_xQueueSemaphoreTake$28$B:
    2205 000660 ED0C          MOV dbl(*SP(#6)), XAR3
         000662 BF   
    2206 000663 F06D          CMP *AR3(#32) == #-1, TC1 ; |1535| 
         000665 FFFF 
         000667 0020 
    2207 000669 62F4          BCC $C$L69,!TC1 ; |1535| 
    2208                                                      ; branchcc occurs ; |1535| 
    2209 00066b       $C$DW$L$_xQueueSemaphoreTake$28$E:
    2210 00066b       $C$DW$L$_xQueueSemaphoreTake$29$B:
    2211 00066b E66D          MOV #0, *AR3(#32) ; |1535| 
         00066d 0000 
         00066f 20   
    2212 000670       $C$DW$L$_xQueueSemaphoreTake$29$E:
    2213 000670       $C$L69:    
    2214 000670       $C$DW$L$_xQueueSemaphoreTake$30$B:
    2215 000670 A931          MOV *(#_usCriticalNesting), AR1 ; |1535| 
         000672 0000 
         000674 00!  
    2216 000675 0409          BCC $C$L70,AR1 == #0 ; |1535| 
         000677 14   
    2217                                                      ; branchcc occurs ; |1535| 
    2218 000678       $C$DW$L$_xQueueSemaphoreTake$30$E:
    2219 000678       $C$DW$L$_xQueueSemaphoreTake$31$B:
    2220 000678 F731          SUB #1, *(#_usCriticalNesting) ; |1535| 
         00067a FFFF 
         00067c 0000 
         00067e 00!  
    2221 00067f 20            NOP
TMS320C55x Assembler PC v4.4.1 Sun Sep 09 04:48:36 2018

Tools Copyright (c) 1996-2012 Texas Instruments Incorporated
queue.asm                                                            PAGE   49

    2222 000680 20            NOP
    2223 000681 20            NOP
    2224 000682 A931          MOV *(#_usCriticalNesting), AR1 ; |1535| 
         000684 0000 
         000686 00!  
    2225 000687 6199          BCC $C$L70,AR1 != #0 ; |1535| 
    2226                                                      ; branchcc occurs ; |1535| 
    2227 000689       $C$DW$L$_xQueueSemaphoreTake$31$E:
    2228 000689       $C$DW$L$_xQueueSemaphoreTake$32$B:
    2229 000689 20     nop
    2230 00068a 46B2   bclr INTM
    2231 00068c       $C$DW$L$_xQueueSemaphoreTake$32$E:
    2232 00068c       $C$L70:    
    2233 00068c       $C$DW$L$_xQueueSemaphoreTake$33$B:
    2234                      .dwpsn  file "../FreeRTOS/Source/queue.c",line 1538,column 3,is_stmt
    2235 00068c EC08          AMAR *SP(#4), XAR0
         00068e 8E   
    2236 00068f EC04          AMAR *SP(#2), XAR1
         000691 9E   
    2237              $C$DW$214       .dwtag  DW_TAG_TI_branch
    2238                      .dwattr $C$DW$214, DW_AT_low_pc(0x00)
    2239                      .dwattr $C$DW$214, DW_AT_name("_xTaskCheckForTimeOut")
    2240                      .dwattr $C$DW$214, DW_AT_TI_call
    2241 000692 6C00          CALL #_xTaskCheckForTimeOut ; |1538| 
         000694 0000!
    2242                                                      ; call occurs [#_xTaskCheckForTimeOut] ; |1538| 
    2243 000696 0414          BCC $C$L72,T0 != #0 ; |1538| 
         000698 37   
    2244                                                      ; branchcc occurs ; |1538| 
    2245 000699       $C$DW$L$_xQueueSemaphoreTake$33$E:
    2246 000699       $C$DW$L$_xQueueSemaphoreTake$34$B:
    2247                      .dwpsn  file "../FreeRTOS/Source/queue.c",line 1544,column 4,is_stmt
    2248 000699 ED0C          MOV dbl(*SP(#6)), XAR0
         00069b 8F   
    2249              $C$DW$215       .dwtag  DW_TAG_TI_branch
    2250                      .dwattr $C$DW$215, DW_AT_low_pc(0x00)
    2251                      .dwattr $C$DW$215, DW_AT_name("_prvIsQueueEmpty")
    2252                      .dwattr $C$DW$215, DW_AT_TI_call
    2253 00069c 0805          CALL #_prvIsQueueEmpty ; |1544| 
         00069e 65   
    2254                                                      ; call occurs [#_prvIsQueueEmpty] ; |1544| 
    2255 00069f 0404          BCC $C$L71,T0 == #0 ; |1544| 
         0006a1 21   
    2256                                                      ; branchcc occurs ; |1544| 
    2257 0006a2       $C$DW$L$_xQueueSemaphoreTake$34$E:
    2258 0006a2       $C$DW$L$_xQueueSemaphoreTake$35$B:
    2259                      .dwpsn  file "../FreeRTOS/Source/queue.c",line 1565,column 5,is_stmt
    2260 0006a2 ED0C          MOV dbl(*SP(#6)), XAR0
         0006a4 8F   
    2261              
    2262                      AADD #18, AR0 ; |1565| 
    2263 0006a5 8A04  ||      MOV *SP(#2), T0 ; |1565| 
         0006a7 841C 
         0006a9 12   
    2264              
TMS320C55x Assembler PC v4.4.1 Sun Sep 09 04:48:36 2018

Tools Copyright (c) 1996-2012 Texas Instruments Incorporated
queue.asm                                                            PAGE   50

    2265              $C$DW$216       .dwtag  DW_TAG_TI_branch
    2266                      .dwattr $C$DW$216, DW_AT_low_pc(0x00)
    2267                      .dwattr $C$DW$216, DW_AT_name("_vTaskPlaceOnEventList")
    2268                      .dwattr $C$DW$216, DW_AT_TI_call
    2269 0006aa 6C00          CALL #_vTaskPlaceOnEventList ; |1565| 
         0006ac 0000!
    2270                                                      ; call occurs [#_vTaskPlaceOnEventList] ; |1565| 
    2271                      .dwpsn  file "../FreeRTOS/Source/queue.c",line 1566,column 5,is_stmt
    2272 0006ae ED0C          MOV dbl(*SP(#6)), XAR0
         0006b0 8F   
    2273              $C$DW$217       .dwtag  DW_TAG_TI_branch
    2274                      .dwattr $C$DW$217, DW_AT_low_pc(0x00)
    2275                      .dwattr $C$DW$217, DW_AT_name("_prvUnlockQueue")
    2276                      .dwattr $C$DW$217, DW_AT_TI_call
    2277 0006b1 0804          CALL #_prvUnlockQueue ; |1566| 
         0006b3 6C   
    2278                                                      ; call occurs [#_prvUnlockQueue] ; |1566| 
    2279                      .dwpsn  file "../FreeRTOS/Source/queue.c",line 1567,column 5,is_stmt
    2280              $C$DW$218       .dwtag  DW_TAG_TI_branch
    2281                      .dwattr $C$DW$218, DW_AT_low_pc(0x00)
    2282                      .dwattr $C$DW$218, DW_AT_name("_xTaskResumeAll")
    2283                      .dwattr $C$DW$218, DW_AT_TI_call
    2284 0006b4 6C00          CALL #_xTaskResumeAll ; |1567| 
         0006b6 0000!
    2285                                                      ; call occurs [#_xTaskResumeAll] ; |1567| 
    2286 0006b8 6D14          BCC $C$L58,T0 != #0 ; |1567| 
         0006ba FECC 
    2287                                                      ; branchcc occurs ; |1567| 
    2288 0006bc       $C$DW$L$_xQueueSemaphoreTake$35$E:
    2289 0006bc       $C$DW$L$_xQueueSemaphoreTake$36$B:
    2290                      .dwpsn  file "../FreeRTOS/Source/queue.c",line 1569,column 6,is_stmt
    2291              $C$DW$219       .dwtag  DW_TAG_TI_branch
    2292                      .dwattr $C$DW$219, DW_AT_low_pc(0x00)
    2293                      .dwattr $C$DW$219, DW_AT_name("_vPortYield")
    2294                      .dwattr $C$DW$219, DW_AT_TI_call
    2295 0006bc 6C00          CALL #_vPortYield ; |1569| 
         0006be 0000!
    2296                                                      ; call occurs [#_vPortYield] ; |1569| 
    2297                      .dwpsn  file "../FreeRTOS/Source/queue.c",line 1570,column 5,is_stmt
    2298 0006c0 06FE          B $C$L58  ; |1570| 
         0006c2 C5   
    2299                                                      ; branch occurs ; |1570| 
    2300 0006c3       $C$DW$L$_xQueueSemaphoreTake$36$E:
    2301 0006c3       $C$L71:    
    2302 0006c3       $C$DW$L$_xQueueSemaphoreTake$38$B:
    2303                      .dwpsn  file "../FreeRTOS/Source/queue.c",line 1580,column 5,is_stmt
    2304 0006c3 ED0C          MOV dbl(*SP(#6)), XAR0
         0006c5 8F   
    2305              $C$DW$220       .dwtag  DW_TAG_TI_branch
    2306                      .dwattr $C$DW$220, DW_AT_low_pc(0x00)
    2307                      .dwattr $C$DW$220, DW_AT_name("_prvUnlockQueue")
    2308                      .dwattr $C$DW$220, DW_AT_TI_call
    2309 0006c6 0804          CALL #_prvUnlockQueue ; |1580| 
         0006c8 57   
    2310                                                      ; call occurs [#_prvUnlockQueue] ; |1580| 
TMS320C55x Assembler PC v4.4.1 Sun Sep 09 04:48:36 2018

Tools Copyright (c) 1996-2012 Texas Instruments Incorporated
queue.asm                                                            PAGE   51

    2311                      .dwpsn  file "../FreeRTOS/Source/queue.c",line 1581,column 5,is_stmt
    2312              $C$DW$221       .dwtag  DW_TAG_TI_branch
    2313                      .dwattr $C$DW$221, DW_AT_low_pc(0x00)
    2314                      .dwattr $C$DW$221, DW_AT_name("_xTaskResumeAll")
    2315                      .dwattr $C$DW$221, DW_AT_TI_call
    2316 0006c9 6C00          CALL #_xTaskResumeAll ; |1581| 
         0006cb 0000!
    2317                                                      ; call occurs [#_xTaskResumeAll] ; |1581| 
    2318                      .dwpsn  file "../FreeRTOS/Source/queue.c",line 1583,column 3,is_stmt
    2319 0006cd 06FE          B $C$L58  ; |1583| 
         0006cf B8   
    2320                                                      ; branch occurs ; |1583| 
    2321 0006d0       $C$DW$L$_xQueueSemaphoreTake$38$E:
    2322 0006d0       $C$L72:    
    2323 0006d0       $C$DW$L$_xQueueSemaphoreTake$39$B:
    2324                      .dwpsn  file "../FreeRTOS/Source/queue.c",line 1587,column 4,is_stmt
    2325 0006d0 ED0C          MOV dbl(*SP(#6)), XAR0
         0006d2 8F   
    2326              $C$DW$222       .dwtag  DW_TAG_TI_branch
    2327                      .dwattr $C$DW$222, DW_AT_low_pc(0x00)
    2328                      .dwattr $C$DW$222, DW_AT_name("_prvUnlockQueue")
    2329                      .dwattr $C$DW$222, DW_AT_TI_call
    2330 0006d3 0804          CALL #_prvUnlockQueue ; |1587| 
         0006d5 4A   
    2331                                                      ; call occurs [#_prvUnlockQueue] ; |1587| 
    2332                      .dwpsn  file "../FreeRTOS/Source/queue.c",line 1588,column 4,is_stmt
    2333              $C$DW$223       .dwtag  DW_TAG_TI_branch
    2334                      .dwattr $C$DW$223, DW_AT_low_pc(0x00)
    2335                      .dwattr $C$DW$223, DW_AT_name("_xTaskResumeAll")
    2336                      .dwattr $C$DW$223, DW_AT_TI_call
    2337 0006d6 6C00          CALL #_xTaskResumeAll ; |1588| 
         0006d8 0000!
    2338                                                      ; call occurs [#_xTaskResumeAll] ; |1588| 
    2339                      .dwpsn  file "../FreeRTOS/Source/queue.c",line 1594,column 4,is_stmt
    2340 0006da ED0C          MOV dbl(*SP(#6)), XAR0
         0006dc 8F   
    2341              $C$DW$224       .dwtag  DW_TAG_TI_branch
    2342                      .dwattr $C$DW$224, DW_AT_low_pc(0x00)
    2343                      .dwattr $C$DW$224, DW_AT_name("_prvIsQueueEmpty")
    2344                      .dwattr $C$DW$224, DW_AT_TI_call
    2345 0006dd 0805          CALL #_prvIsQueueEmpty ; |1594| 
         0006df 24   
    2346                                                      ; call occurs [#_prvIsQueueEmpty] ; |1594| 
    2347 0006e0 6D04          BCC $C$L58,T0 == #0 ; |1594| 
         0006e2 FEA4 
    2348                                                      ; branchcc occurs ; |1594| 
    2349 0006e4       $C$DW$L$_xQueueSemaphoreTake$39$E:
    2350                      .dwpsn  file "../FreeRTOS/Source/queue.c",line 1621,column 5,is_stmt
    2351 0006e4 3C04          MOV #0, T0
    2352 0006e6 4A00          B $C$L73  ; |1621| 
    2353                                                      ; branch occurs ; |1621| 
    2354 0006e8       $C$L73:    
    2355                      .dwpsn  file "../FreeRTOS/Source/queue.c",line 1629,column 1,is_stmt
    2356 0006e8 4E09          AADD #9, SP
    2357                      .dwcfi  cfa_offset, 1
TMS320C55x Assembler PC v4.4.1 Sun Sep 09 04:48:36 2018

Tools Copyright (c) 1996-2012 Texas Instruments Incorporated
queue.asm                                                            PAGE   52

    2358              $C$DW$225       .dwtag  DW_TAG_TI_branch
    2359                      .dwattr $C$DW$225, DW_AT_low_pc(0x00)
    2360                      .dwattr $C$DW$225, DW_AT_TI_return
    2361 0006ea 4804          RET
    2362                                                      ; return occurs
    2363              
    2364              $C$DW$226       .dwtag  DW_TAG_TI_loop
    2365                      .dwattr $C$DW$226, DW_AT_name("F:\eZdsp_DBG\eZDSP_5535_Files\ccsws2\test\Debug\queue.asm:$C$L58:1:153
    2366                      .dwattr $C$DW$226, DW_AT_TI_begin_file("../FreeRTOS/Source/queue.c")
    2367                      .dwattr $C$DW$226, DW_AT_TI_begin_line(0x5a2)
    2368                      .dwattr $C$DW$226, DW_AT_TI_end_line(0x65c)
    2369              $C$DW$227       .dwtag  DW_TAG_TI_loop_range
    2370                      .dwattr $C$DW$227, DW_AT_low_pc($C$DW$L$_xQueueSemaphoreTake$2$B)
    2371                      .dwattr $C$DW$227, DW_AT_high_pc($C$DW$L$_xQueueSemaphoreTake$2$E)
    2372              $C$DW$228       .dwtag  DW_TAG_TI_loop_range
    2373                      .dwattr $C$DW$228, DW_AT_low_pc($C$DW$L$_xQueueSemaphoreTake$15$B)
    2374                      .dwattr $C$DW$228, DW_AT_high_pc($C$DW$L$_xQueueSemaphoreTake$15$E)
    2375              $C$DW$229       .dwtag  DW_TAG_TI_loop_range
    2376                      .dwattr $C$DW$229, DW_AT_low_pc($C$DW$L$_xQueueSemaphoreTake$21$B)
    2377                      .dwattr $C$DW$229, DW_AT_high_pc($C$DW$L$_xQueueSemaphoreTake$21$E)
    2378              $C$DW$230       .dwtag  DW_TAG_TI_loop_range
    2379                      .dwattr $C$DW$230, DW_AT_low_pc($C$DW$L$_xQueueSemaphoreTake$22$B)
    2380                      .dwattr $C$DW$230, DW_AT_high_pc($C$DW$L$_xQueueSemaphoreTake$22$E)
    2381              $C$DW$231       .dwtag  DW_TAG_TI_loop_range
    2382                      .dwattr $C$DW$231, DW_AT_low_pc($C$DW$L$_xQueueSemaphoreTake$23$B)
    2383                      .dwattr $C$DW$231, DW_AT_high_pc($C$DW$L$_xQueueSemaphoreTake$23$E)
    2384              $C$DW$232       .dwtag  DW_TAG_TI_loop_range
    2385                      .dwattr $C$DW$232, DW_AT_low_pc($C$DW$L$_xQueueSemaphoreTake$24$B)
    2386                      .dwattr $C$DW$232, DW_AT_high_pc($C$DW$L$_xQueueSemaphoreTake$24$E)
    2387              $C$DW$233       .dwtag  DW_TAG_TI_loop_range
    2388                      .dwattr $C$DW$233, DW_AT_low_pc($C$DW$L$_xQueueSemaphoreTake$25$B)
    2389                      .dwattr $C$DW$233, DW_AT_high_pc($C$DW$L$_xQueueSemaphoreTake$25$E)
    2390              $C$DW$234       .dwtag  DW_TAG_TI_loop_range
    2391                      .dwattr $C$DW$234, DW_AT_low_pc($C$DW$L$_xQueueSemaphoreTake$26$B)
    2392                      .dwattr $C$DW$234, DW_AT_high_pc($C$DW$L$_xQueueSemaphoreTake$26$E)
    2393              $C$DW$235       .dwtag  DW_TAG_TI_loop_range
    2394                      .dwattr $C$DW$235, DW_AT_low_pc($C$DW$L$_xQueueSemaphoreTake$27$B)
    2395                      .dwattr $C$DW$235, DW_AT_high_pc($C$DW$L$_xQueueSemaphoreTake$27$E)
    2396              $C$DW$236       .dwtag  DW_TAG_TI_loop_range
    2397                      .dwattr $C$DW$236, DW_AT_low_pc($C$DW$L$_xQueueSemaphoreTake$28$B)
    2398                      .dwattr $C$DW$236, DW_AT_high_pc($C$DW$L$_xQueueSemaphoreTake$28$E)
    2399              $C$DW$237       .dwtag  DW_TAG_TI_loop_range
    2400                      .dwattr $C$DW$237, DW_AT_low_pc($C$DW$L$_xQueueSemaphoreTake$29$B)
    2401                      .dwattr $C$DW$237, DW_AT_high_pc($C$DW$L$_xQueueSemaphoreTake$29$E)
    2402              $C$DW$238       .dwtag  DW_TAG_TI_loop_range
    2403                      .dwattr $C$DW$238, DW_AT_low_pc($C$DW$L$_xQueueSemaphoreTake$30$B)
    2404                      .dwattr $C$DW$238, DW_AT_high_pc($C$DW$L$_xQueueSemaphoreTake$30$E)
    2405              $C$DW$239       .dwtag  DW_TAG_TI_loop_range
    2406                      .dwattr $C$DW$239, DW_AT_low_pc($C$DW$L$_xQueueSemaphoreTake$31$B)
    2407                      .dwattr $C$DW$239, DW_AT_high_pc($C$DW$L$_xQueueSemaphoreTake$31$E)
    2408              $C$DW$240       .dwtag  DW_TAG_TI_loop_range
    2409                      .dwattr $C$DW$240, DW_AT_low_pc($C$DW$L$_xQueueSemaphoreTake$32$B)
    2410                      .dwattr $C$DW$240, DW_AT_high_pc($C$DW$L$_xQueueSemaphoreTake$32$E)
    2411              $C$DW$241       .dwtag  DW_TAG_TI_loop_range
    2412                      .dwattr $C$DW$241, DW_AT_low_pc($C$DW$L$_xQueueSemaphoreTake$33$B)
TMS320C55x Assembler PC v4.4.1 Sun Sep 09 04:48:36 2018

Tools Copyright (c) 1996-2012 Texas Instruments Incorporated
queue.asm                                                            PAGE   53

    2413                      .dwattr $C$DW$241, DW_AT_high_pc($C$DW$L$_xQueueSemaphoreTake$33$E)
    2414              $C$DW$242       .dwtag  DW_TAG_TI_loop_range
    2415                      .dwattr $C$DW$242, DW_AT_low_pc($C$DW$L$_xQueueSemaphoreTake$34$B)
    2416                      .dwattr $C$DW$242, DW_AT_high_pc($C$DW$L$_xQueueSemaphoreTake$34$E)
    2417              $C$DW$243       .dwtag  DW_TAG_TI_loop_range
    2418                      .dwattr $C$DW$243, DW_AT_low_pc($C$DW$L$_xQueueSemaphoreTake$39$B)
    2419                      .dwattr $C$DW$243, DW_AT_high_pc($C$DW$L$_xQueueSemaphoreTake$39$E)
    2420              $C$DW$244       .dwtag  DW_TAG_TI_loop_range
    2421                      .dwattr $C$DW$244, DW_AT_low_pc($C$DW$L$_xQueueSemaphoreTake$38$B)
    2422                      .dwattr $C$DW$244, DW_AT_high_pc($C$DW$L$_xQueueSemaphoreTake$38$E)
    2423              $C$DW$245       .dwtag  DW_TAG_TI_loop_range
    2424                      .dwattr $C$DW$245, DW_AT_low_pc($C$DW$L$_xQueueSemaphoreTake$36$B)
    2425                      .dwattr $C$DW$245, DW_AT_high_pc($C$DW$L$_xQueueSemaphoreTake$36$E)
    2426              $C$DW$246       .dwtag  DW_TAG_TI_loop_range
    2427                      .dwattr $C$DW$246, DW_AT_low_pc($C$DW$L$_xQueueSemaphoreTake$35$B)
    2428                      .dwattr $C$DW$246, DW_AT_high_pc($C$DW$L$_xQueueSemaphoreTake$35$E)
    2429                      .dwendtag $C$DW$226
    2430              
    2431                      .dwattr $C$DW$200, DW_AT_TI_end_file("../FreeRTOS/Source/queue.c")
    2432                      .dwattr $C$DW$200, DW_AT_TI_end_line(0x65d)
    2433                      .dwattr $C$DW$200, DW_AT_TI_end_column(0x01)
    2434                      .dwendentry
    2435                      .dwendtag $C$DW$200
    2436              
    2437 0006ec               .sect   ".text"
    2438                      .align 4
    2439                      .global _xQueuePeek
    2440              
    2441              $C$DW$247       .dwtag  DW_TAG_subprogram, DW_AT_name("xQueuePeek")
    2442                      .dwattr $C$DW$247, DW_AT_low_pc(_xQueuePeek)
    2443                      .dwattr $C$DW$247, DW_AT_high_pc(0x00)
    2444                      .dwattr $C$DW$247, DW_AT_TI_symbol_name("_xQueuePeek")
    2445                      .dwattr $C$DW$247, DW_AT_external
    2446                      .dwattr $C$DW$247, DW_AT_type(*$C$DW$T$43)
    2447                      .dwattr $C$DW$247, DW_AT_TI_begin_file("../FreeRTOS/Source/queue.c")
    2448                      .dwattr $C$DW$247, DW_AT_TI_begin_line(0x660)
    2449                      .dwattr $C$DW$247, DW_AT_TI_begin_column(0x0c)
    2450                      .dwattr $C$DW$247, DW_AT_TI_max_frame_size(0x0e)
    2451                      .dwpsn  file "../FreeRTOS/Source/queue.c",line 1633,column 1,is_stmt,address _xQueuePeek
    2452              
    2453                      .dwfde $C$DW$CIE, _xQueuePeek
    2454              $C$DW$248       .dwtag  DW_TAG_formal_parameter, DW_AT_name("xQueue")
    2455                      .dwattr $C$DW$248, DW_AT_TI_symbol_name("_xQueue")
    2456                      .dwattr $C$DW$248, DW_AT_type(*$C$DW$T$46)
    2457                      .dwattr $C$DW$248, DW_AT_location[DW_OP_reg17]
    2458              $C$DW$249       .dwtag  DW_TAG_formal_parameter, DW_AT_name("pvBuffer")
    2459                      .dwattr $C$DW$249, DW_AT_TI_symbol_name("_pvBuffer")
    2460                      .dwattr $C$DW$249, DW_AT_type(*$C$DW$T$64)
    2461                      .dwattr $C$DW$249, DW_AT_location[DW_OP_reg19]
    2462              $C$DW$250       .dwtag  DW_TAG_formal_parameter, DW_AT_name("xTicksToWait")
    2463                      .dwattr $C$DW$250, DW_AT_TI_symbol_name("_xTicksToWait")
    2464                      .dwattr $C$DW$250, DW_AT_type(*$C$DW$T$38)
    2465                      .dwattr $C$DW$250, DW_AT_location[DW_OP_reg12]
    2466              ;*******************************************************************************
    2467              ;* FUNCTION NAME: xQueuePeek                                                   *
TMS320C55x Assembler PC v4.4.1 Sun Sep 09 04:48:36 2018

Tools Copyright (c) 1996-2012 Texas Instruments Incorporated
queue.asm                                                            PAGE   54

    2468              ;*                                                                             *
    2469              ;*   Function Uses Regs : T0,AR0,XAR0,AR1,XAR1,AR2,XAR2,AR3,XAR3,SP,CARRY,TC1, *
    2470              ;*                        M40,SATA,SATD,RDM,FRCT,SMUL                          *
    2471              ;*   Stack Frame        : Compact (No Frame Pointer, w/ debug)                 *
    2472              ;*   Total Frame Size   : 14 words                                             *
    2473              ;*                        (1 return address/alignment)                         *
    2474              ;*                        (13 local values)                                    *
    2475              ;*   Min System Stack   : 1 word                                               *
    2476              ;*******************************************************************************
    2477 0006ec       _xQueuePeek:
    2478                      .dwcfi  cfa_offset, 1
    2479                      .dwcfi  save_reg_to_mem, 91, -1
    2480 0006ec 4EF3          AADD #-13, SP
    2481                      .dwcfi  cfa_offset, 14
    2482              $C$DW$251       .dwtag  DW_TAG_variable, DW_AT_name("xQueue")
    2483                      .dwattr $C$DW$251, DW_AT_TI_symbol_name("_xQueue")
    2484                      .dwattr $C$DW$251, DW_AT_type(*$C$DW$T$46)
    2485                      .dwattr $C$DW$251, DW_AT_location[DW_OP_bregx 0x24 0]
    2486              $C$DW$252       .dwtag  DW_TAG_variable, DW_AT_name("pvBuffer")
    2487                      .dwattr $C$DW$252, DW_AT_TI_symbol_name("_pvBuffer")
    2488                      .dwattr $C$DW$252, DW_AT_type(*$C$DW$T$64)
    2489                      .dwattr $C$DW$252, DW_AT_location[DW_OP_bregx 0x24 2]
    2490              $C$DW$253       .dwtag  DW_TAG_variable, DW_AT_name("xTicksToWait")
    2491                      .dwattr $C$DW$253, DW_AT_TI_symbol_name("_xTicksToWait")
    2492                      .dwattr $C$DW$253, DW_AT_type(*$C$DW$T$38)
    2493                      .dwattr $C$DW$253, DW_AT_location[DW_OP_bregx 0x24 4]
    2494              $C$DW$254       .dwtag  DW_TAG_variable, DW_AT_name("xEntryTimeSet")
    2495                      .dwattr $C$DW$254, DW_AT_TI_symbol_name("_xEntryTimeSet")
    2496                      .dwattr $C$DW$254, DW_AT_type(*$C$DW$T$43)
    2497                      .dwattr $C$DW$254, DW_AT_location[DW_OP_bregx 0x24 5]
    2498              $C$DW$255       .dwtag  DW_TAG_variable, DW_AT_name("xTimeOut")
    2499                      .dwattr $C$DW$255, DW_AT_TI_symbol_name("_xTimeOut")
    2500                      .dwattr $C$DW$255, DW_AT_type(*$C$DW$T$77)
    2501                      .dwattr $C$DW$255, DW_AT_location[DW_OP_bregx 0x24 6]
    2502              $C$DW$256       .dwtag  DW_TAG_variable, DW_AT_name("pcOriginalReadPosition")
    2503                      .dwattr $C$DW$256, DW_AT_TI_symbol_name("_pcOriginalReadPosition")
    2504                      .dwattr $C$DW$256, DW_AT_type(*$C$DW$T$24)
    2505                      .dwattr $C$DW$256, DW_AT_location[DW_OP_bregx 0x24 8]
    2506              $C$DW$257       .dwtag  DW_TAG_variable, DW_AT_name("pxQueue")
    2507                      .dwattr $C$DW$257, DW_AT_TI_symbol_name("_pxQueue")
    2508                      .dwattr $C$DW$257, DW_AT_type(*$C$DW$T$57)
    2509                      .dwattr $C$DW$257, DW_AT_location[DW_OP_bregx 0x24 10]
    2510 0006ee C408          MOV T0, *SP(#4) ; |1633| 
    2511 0006f0 EB04          MOV XAR1, dbl(*SP(#2))
         0006f2 95   
    2512 0006f3 EB00          MOV XAR0, dbl(*SP(#0))
         0006f5 85   
    2513                      .dwpsn  file "../FreeRTOS/Source/queue.c",line 1634,column 12,is_stmt
    2514 0006f6 E60A          MOV #0, *SP(#5) ; |1634| 
         0006f8 00   
    2515                      .dwpsn  file "../FreeRTOS/Source/queue.c",line 1637,column 17,is_stmt
    2516 0006f9 ED00          MOV dbl(*SP(#0)), XAR3
         0006fb BF   
    2517 0006fc EB14          MOV XAR3, dbl(*SP(#10))
         0006fe B5   
TMS320C55x Assembler PC v4.4.1 Sun Sep 09 04:48:36 2018

Tools Copyright (c) 1996-2012 Texas Instruments Incorporated
queue.asm                                                            PAGE   55

    2518 0006ff       $C$L74:    
    2519 0006ff       $C$DW$L$_xQueuePeek$2$B:
    2520                      .dwpsn  file "../FreeRTOS/Source/queue.c",line 1659,column 3,is_stmt
    2521 0006ff 20     nop
    2522 000700 46B3   bset INTM
    2523 000702 F731          ADD #1, *(#_usCriticalNesting) ; |1659| 
         000704 0001 
         000706 0000 
         000708 00!  
    2524 000709 20            NOP
    2525 00070a 20            NOP
    2526              
    2527              $C$DW$258       .dwtag  DW_TAG_lexical_block, DW_AT_low_pc(0x00), DW_AT_high_pc(0x00)
    2528              $C$DW$259       .dwtag  DW_TAG_variable, DW_AT_name("uxMessagesWaiting")
    2529                      .dwattr $C$DW$259, DW_AT_TI_symbol_name("_uxMessagesWaiting")
    2530                      .dwattr $C$DW$259, DW_AT_type(*$C$DW$T$48)
    2531                      .dwattr $C$DW$259, DW_AT_location[DW_OP_bregx 0x24 12]
    2532                      .dwpsn  file "../FreeRTOS/Source/queue.c",line 1661,column 22,is_stmt
    2533 00070b ED14          MOV dbl(*SP(#10)), XAR3
         00070d BF   
    2534 00070e A96D          MOV *AR3(#28), AR1 ; |1661| 
         000710 001C 
    2535 000712 C918          MOV AR1, *SP(#12) ; |1661| 
    2536                      .dwpsn  file "../FreeRTOS/Source/queue.c",line 1665,column 4,is_stmt
    2537 000714 0409          BCC $C$L79,AR1 == #0 ; |1665| 
         000716 60   
    2538                                                      ; branchcc occurs ; |1665| 
    2539 000717       $C$DW$L$_xQueuePeek$2$E:
    2540                      .dwpsn  file "../FreeRTOS/Source/queue.c",line 1670,column 5,is_stmt
    2541 000717 ED14          MOV dbl(*SP(#10)), XAR3
         000719 BF   
    2542 00071a ED7D          MOV dbl(*AR3(short(#6))), XAR3
         00071c BF   
    2543 00071d EB10          MOV XAR3, dbl(*SP(#8))
         00071f B5   
    2544                      .dwpsn  file "../FreeRTOS/Source/queue.c",line 1672,column 5,is_stmt
    2545 000720 ED14          MOV dbl(*SP(#10)), XAR0
         000722 8F   
    2546 000723 ED04          MOV dbl(*SP(#2)), XAR1
         000725 9F   
    2547              $C$DW$260       .dwtag  DW_TAG_TI_branch
    2548                      .dwattr $C$DW$260, DW_AT_low_pc(0x00)
    2549                      .dwattr $C$DW$260, DW_AT_name("_prvCopyDataFromQueue")
    2550                      .dwattr $C$DW$260, DW_AT_TI_call
    2551 000726 0803          CALL #_prvCopyDataFromQueue ; |1672| 
         000728 9F   
    2552                                                      ; call occurs [#_prvCopyDataFromQueue] ; |1672| 
    2553                      .dwpsn  file "../FreeRTOS/Source/queue.c",line 1676,column 5,is_stmt
    2554 000729 ED14          MOV dbl(*SP(#10)), XAR3
         00072b BF   
    2555 00072c ED10          MOV dbl(*SP(#8)), XAR2
         00072e AF   
    2556 00072f EB7D          MOV XAR2, dbl(*AR3(short(#6)))
         000731 A5   
    2557                      .dwpsn  file "../FreeRTOS/Source/queue.c",line 1680,column 5,is_stmt
TMS320C55x Assembler PC v4.4.1 Sun Sep 09 04:48:36 2018

Tools Copyright (c) 1996-2012 Texas Instruments Incorporated
queue.asm                                                            PAGE   56

    2558 000732 ED14          MOV dbl(*SP(#10)), XAR3
         000734 BF   
    2559 000735 A96D          MOV *AR3(#18), AR1 ; |1680| 
         000737 0012 
    2560 000739 6219          BCC $C$L75,AR1 != #0 ; |1680| 
    2561                                                      ; branchcc occurs ; |1680| 
    2562 00073b 3C19          MOV #1, AR1
    2563 00073d 4A02          B $C$L76  ; |1680| 
    2564                                                      ; branch occurs ; |1680| 
    2565 00073f       $C$L75:    
    2566 00073f 3C09          MOV #0, AR1
    2567 000741       $C$L76:    
    2568 000741 0419          BCC $C$L77,AR1 != #0 ; |1680| 
         000743 12   
    2569                                                      ; branchcc occurs ; |1680| 
    2570                      .dwpsn  file "../FreeRTOS/Source/queue.c",line 1682,column 6,is_stmt
    2571 000744 ED14          MOV dbl(*SP(#10)), XAR0
         000746 8F   
    2572 000747 1412          AADD #18, AR0 ; |1682| 
         000749 84   
    2573              $C$DW$261       .dwtag  DW_TAG_TI_branch
    2574                      .dwattr $C$DW$261, DW_AT_low_pc(0x00)
    2575                      .dwattr $C$DW$261, DW_AT_name("_xTaskRemoveFromEventList")
    2576                      .dwattr $C$DW$261, DW_AT_TI_call
    2577 00074a 6C00          CALL #_xTaskRemoveFromEventList ; |1682| 
         00074c 0000!
    2578                                                      ; call occurs [#_xTaskRemoveFromEventList] ; |1682| 
    2579 00074e 6304          BCC $C$L77,T0 == #0 ; |1682| 
    2580                                                      ; branchcc occurs ; |1682| 
    2581                      .dwpsn  file "../FreeRTOS/Source/queue.c",line 1685,column 7,is_stmt
    2582              $C$DW$262       .dwtag  DW_TAG_TI_branch
    2583                      .dwattr $C$DW$262, DW_AT_low_pc(0x00)
    2584                      .dwattr $C$DW$262, DW_AT_name("_vPortYield")
    2585                      .dwattr $C$DW$262, DW_AT_TI_call
    2586 000750 6C00          CALL #_vPortYield ; |1685| 
         000752 0000!
    2587                                                      ; call occurs [#_vPortYield] ; |1685| 
    2588                      .dwpsn  file "../FreeRTOS/Source/queue.c",line 1686,column 6,is_stmt
    2589 000754 4A00          B $C$L77  ; |1686| 
    2590                                                      ; branch occurs ; |1686| 
    2591 000756       $C$L77:    
    2592                      .dwpsn  file "../FreeRTOS/Source/queue.c",line 1697,column 5,is_stmt
    2593 000756 A931          MOV *(#_usCriticalNesting), AR1 ; |1697| 
         000758 0000 
         00075a 00!  
    2594 00075b 0409          BCC $C$L78,AR1 == #0 ; |1697| 
         00075d 14   
    2595                                                      ; branchcc occurs ; |1697| 
    2596 00075e F731          SUB #1, *(#_usCriticalNesting) ; |1697| 
         000760 FFFF 
         000762 0000 
         000764 00!  
    2597 000765 20            NOP
    2598 000766 20            NOP
    2599 000767 20            NOP
TMS320C55x Assembler PC v4.4.1 Sun Sep 09 04:48:36 2018

Tools Copyright (c) 1996-2012 Texas Instruments Incorporated
queue.asm                                                            PAGE   57

    2600 000768 A931          MOV *(#_usCriticalNesting), AR1 ; |1697| 
         00076a 0000 
         00076c 00!  
    2601 00076d 6199          BCC $C$L78,AR1 != #0 ; |1697| 
    2602                                                      ; branchcc occurs ; |1697| 
    2603 00076f 20     nop
    2604 000770 46B2   bclr INTM
    2605 000772       $C$L78:    
    2606                      .dwpsn  file "../FreeRTOS/Source/queue.c",line 1698,column 5,is_stmt
    2607 000772 3C14          MOV #1, T0
    2608 000774 0600          B $C$L89  ; |1698| 
         000776 F8   
    2609                                                      ; branch occurs ; |1698| 
    2610 000777       $C$L79:    
    2611 000777       $C$DW$L$_xQueuePeek$15$B:
    2612                      .dwpsn  file "../FreeRTOS/Source/queue.c",line 1702,column 5,is_stmt
    2613 000777 A908          MOV *SP(#4), AR1 ; |1702| 
    2614 000779 0419          BCC $C$L81,AR1 != #0 ; |1702| 
         00077b 21   
    2615                                                      ; branchcc occurs ; |1702| 
    2616 00077c       $C$DW$L$_xQueuePeek$15$E:
    2617                      .dwpsn  file "../FreeRTOS/Source/queue.c",line 1706,column 6,is_stmt
    2618 00077c A931          MOV *(#_usCriticalNesting), AR1 ; |1706| 
         00077e 0000 
         000780 00!  
    2619 000781 0409          BCC $C$L80,AR1 == #0 ; |1706| 
         000783 14   
    2620                                                      ; branchcc occurs ; |1706| 
    2621 000784 F731          SUB #1, *(#_usCriticalNesting) ; |1706| 
         000786 FFFF 
         000788 0000 
         00078a 00!  
    2622 00078b 20            NOP
    2623 00078c 20            NOP
    2624 00078d 20            NOP
    2625 00078e A931          MOV *(#_usCriticalNesting), AR1 ; |1706| 
         000790 0000 
         000792 00!  
    2626 000793 6199          BCC $C$L80,AR1 != #0 ; |1706| 
    2627                                                      ; branchcc occurs ; |1706| 
    2628 000795 20     nop
    2629 000796 46B2   bclr INTM
    2630 000798       $C$L80:    
    2631                      .dwpsn  file "../FreeRTOS/Source/queue.c",line 1708,column 6,is_stmt
    2632 000798 3C04          MOV #0, T0
    2633 00079a 0600          B $C$L89  ; |1708| 
         00079c D2   
    2634                                                      ; branch occurs ; |1708| 
    2635 00079d       $C$L81:    
    2636 00079d       $C$DW$L$_xQueuePeek$21$B:
    2637                      .dwpsn  file "../FreeRTOS/Source/queue.c",line 1710,column 10,is_stmt
    2638 00079d A90A          MOV *SP(#5), AR1 ; |1710| 
    2639 00079f 6519          BCC $C$L82,AR1 != #0 ; |1710| 
    2640                                                      ; branchcc occurs ; |1710| 
    2641 0007a1       $C$DW$L$_xQueuePeek$21$E:
TMS320C55x Assembler PC v4.4.1 Sun Sep 09 04:48:36 2018

Tools Copyright (c) 1996-2012 Texas Instruments Incorporated
queue.asm                                                            PAGE   58

    2642 0007a1       $C$DW$L$_xQueuePeek$22$B:
    2643                      .dwpsn  file "../FreeRTOS/Source/queue.c",line 1715,column 6,is_stmt
    2644 0007a1 EC0C          AMAR *SP(#6), XAR0
         0007a3 8E   
    2645              $C$DW$263       .dwtag  DW_TAG_TI_branch
    2646                      .dwattr $C$DW$263, DW_AT_low_pc(0x00)
    2647                      .dwattr $C$DW$263, DW_AT_name("_vTaskInternalSetTimeOutState")
    2648                      .dwattr $C$DW$263, DW_AT_TI_call
    2649 0007a4 6C00          CALL #_vTaskInternalSetTimeOutState ; |1715| 
         0007a6 0000!
    2650                                                      ; call occurs [#_vTaskInternalSetTimeOutState] ; |1715| 
    2651                      .dwpsn  file "../FreeRTOS/Source/queue.c",line 1716,column 6,is_stmt
    2652 0007a8 E60A          MOV #1, *SP(#5) ; |1716| 
         0007aa 01   
    2653                      .dwpsn  file "../FreeRTOS/Source/queue.c",line 1717,column 5,is_stmt
    2654              $C$DW$L$_xQueuePeek$22$E:
    2655              $C$L82:    
    2656              $C$DW$L$_xQueuePeek$23$B:
    2657                      .dwendtag $C$DW$258
    2658              
    2659                      .dwpsn  file "../FreeRTOS/Source/queue.c",line 1725,column 3,is_stmt
    2660 0007ab A931          MOV *(#_usCriticalNesting), AR1 ; |1725| 
         0007ad 0000 
         0007af 00!  
    2661 0007b0 0409          BCC $C$L83,AR1 == #0 ; |1725| 
         0007b2 14   
    2662                                                      ; branchcc occurs ; |1725| 
    2663 0007b3       $C$DW$L$_xQueuePeek$23$E:
    2664 0007b3       $C$DW$L$_xQueuePeek$24$B:
    2665 0007b3 F731          SUB #1, *(#_usCriticalNesting) ; |1725| 
         0007b5 FFFF 
         0007b7 0000 
         0007b9 00!  
    2666 0007ba 20            NOP
    2667 0007bb 20            NOP
    2668 0007bc 20            NOP
    2669 0007bd A931          MOV *(#_usCriticalNesting), AR1 ; |1725| 
         0007bf 0000 
         0007c1 00!  
    2670 0007c2 6199          BCC $C$L83,AR1 != #0 ; |1725| 
    2671                                                      ; branchcc occurs ; |1725| 
    2672 0007c4       $C$DW$L$_xQueuePeek$24$E:
    2673 0007c4       $C$DW$L$_xQueuePeek$25$B:
    2674 0007c4 20     nop
    2675 0007c5 46B2   bclr INTM
    2676 0007c7       $C$DW$L$_xQueuePeek$25$E:
    2677 0007c7       $C$L83:    
    2678 0007c7       $C$DW$L$_xQueuePeek$26$B:
    2679                      .dwpsn  file "../FreeRTOS/Source/queue.c",line 1730,column 3,is_stmt
    2680              $C$DW$264       .dwtag  DW_TAG_TI_branch
    2681                      .dwattr $C$DW$264, DW_AT_low_pc(0x00)
    2682                      .dwattr $C$DW$264, DW_AT_name("_vTaskSuspendAll")
    2683                      .dwattr $C$DW$264, DW_AT_TI_call
    2684 0007c7 6C00          CALL #_vTaskSuspendAll ; |1730| 
         0007c9 0000!
TMS320C55x Assembler PC v4.4.1 Sun Sep 09 04:48:36 2018

Tools Copyright (c) 1996-2012 Texas Instruments Incorporated
queue.asm                                                            PAGE   59

    2685                                                      ; call occurs [#_vTaskSuspendAll] ; |1730| 
    2686                      .dwpsn  file "../FreeRTOS/Source/queue.c",line 1731,column 3,is_stmt
    2687 0007cb 20     nop
    2688 0007cc 46B3   bset INTM
    2689 0007ce F731          ADD #1, *(#_usCriticalNesting) ; |1731| 
         0007d0 0001 
         0007d2 0000 
         0007d4 00!  
    2690 0007d5 20            NOP
    2691 0007d6 20            NOP
    2692 0007d7 ED14          MOV dbl(*SP(#10)), XAR3
         0007d9 BF   
    2693 0007da F06D          CMP *AR3(#31) == #-1, TC1 ; |1731| 
         0007dc FFFF 
         0007de 001F 
    2694 0007e0 62F4          BCC $C$L84,!TC1 ; |1731| 
    2695                                                      ; branchcc occurs ; |1731| 
    2696 0007e2       $C$DW$L$_xQueuePeek$26$E:
    2697 0007e2       $C$DW$L$_xQueuePeek$27$B:
    2698 0007e2 E66D          MOV #0, *AR3(#31) ; |1731| 
         0007e4 0000 
         0007e6 1F   
    2699 0007e7       $C$DW$L$_xQueuePeek$27$E:
    2700 0007e7       $C$L84:    
    2701 0007e7       $C$DW$L$_xQueuePeek$28$B:
    2702 0007e7 ED14          MOV dbl(*SP(#10)), XAR3
         0007e9 BF   
    2703 0007ea F06D          CMP *AR3(#32) == #-1, TC1 ; |1731| 
         0007ec FFFF 
         0007ee 0020 
    2704 0007f0 62F4          BCC $C$L85,!TC1 ; |1731| 
    2705                                                      ; branchcc occurs ; |1731| 
    2706 0007f2       $C$DW$L$_xQueuePeek$28$E:
    2707 0007f2       $C$DW$L$_xQueuePeek$29$B:
    2708 0007f2 E66D          MOV #0, *AR3(#32) ; |1731| 
         0007f4 0000 
         0007f6 20   
    2709 0007f7       $C$DW$L$_xQueuePeek$29$E:
    2710 0007f7       $C$L85:    
    2711 0007f7       $C$DW$L$_xQueuePeek$30$B:
    2712 0007f7 A931          MOV *(#_usCriticalNesting), AR1 ; |1731| 
         0007f9 0000 
         0007fb 00!  
    2713 0007fc 0409          BCC $C$L86,AR1 == #0 ; |1731| 
         0007fe 14   
    2714                                                      ; branchcc occurs ; |1731| 
    2715 0007ff       $C$DW$L$_xQueuePeek$30$E:
    2716 0007ff       $C$DW$L$_xQueuePeek$31$B:
    2717 0007ff F731          SUB #1, *(#_usCriticalNesting) ; |1731| 
         000801 FFFF 
         000803 0000 
         000805 00!  
    2718 000806 20            NOP
    2719 000807 20            NOP
    2720 000808 20            NOP
TMS320C55x Assembler PC v4.4.1 Sun Sep 09 04:48:36 2018

Tools Copyright (c) 1996-2012 Texas Instruments Incorporated
queue.asm                                                            PAGE   60

    2721 000809 A931          MOV *(#_usCriticalNesting), AR1 ; |1731| 
         00080b 0000 
         00080d 00!  
    2722 00080e 6199          BCC $C$L86,AR1 != #0 ; |1731| 
    2723                                                      ; branchcc occurs ; |1731| 
    2724 000810       $C$DW$L$_xQueuePeek$31$E:
    2725 000810       $C$DW$L$_xQueuePeek$32$B:
    2726 000810 20     nop
    2727 000811 46B2   bclr INTM
    2728 000813       $C$DW$L$_xQueuePeek$32$E:
    2729 000813       $C$L86:    
    2730 000813       $C$DW$L$_xQueuePeek$33$B:
    2731                      .dwpsn  file "../FreeRTOS/Source/queue.c",line 1734,column 3,is_stmt
    2732 000813 EC0C          AMAR *SP(#6), XAR0
         000815 8E   
    2733 000816 EC08          AMAR *SP(#4), XAR1
         000818 9E   
    2734              $C$DW$265       .dwtag  DW_TAG_TI_branch
    2735                      .dwattr $C$DW$265, DW_AT_low_pc(0x00)
    2736                      .dwattr $C$DW$265, DW_AT_name("_xTaskCheckForTimeOut")
    2737                      .dwattr $C$DW$265, DW_AT_TI_call
    2738 000819 6C00          CALL #_xTaskCheckForTimeOut ; |1734| 
         00081b 0000!
    2739                                                      ; call occurs [#_xTaskCheckForTimeOut] ; |1734| 
    2740 00081d 0414          BCC $C$L88,T0 != #0 ; |1734| 
         00081f 37   
    2741                                                      ; branchcc occurs ; |1734| 
    2742 000820       $C$DW$L$_xQueuePeek$33$E:
    2743 000820       $C$DW$L$_xQueuePeek$34$B:
    2744                      .dwpsn  file "../FreeRTOS/Source/queue.c",line 1738,column 4,is_stmt
    2745 000820 ED14          MOV dbl(*SP(#10)), XAR0
         000822 8F   
    2746              $C$DW$266       .dwtag  DW_TAG_TI_branch
    2747                      .dwattr $C$DW$266, DW_AT_low_pc(0x00)
    2748                      .dwattr $C$DW$266, DW_AT_name("_prvIsQueueEmpty")
    2749                      .dwattr $C$DW$266, DW_AT_TI_call
    2750 000823 0803          CALL #_prvIsQueueEmpty ; |1738| 
         000825 DE   
    2751                                                      ; call occurs [#_prvIsQueueEmpty] ; |1738| 
    2752 000826 0404          BCC $C$L87,T0 == #0 ; |1738| 
         000828 21   
    2753                                                      ; branchcc occurs ; |1738| 
    2754 000829       $C$DW$L$_xQueuePeek$34$E:
    2755 000829       $C$DW$L$_xQueuePeek$35$B:
    2756                      .dwpsn  file "../FreeRTOS/Source/queue.c",line 1741,column 5,is_stmt
    2757 000829 ED14          MOV dbl(*SP(#10)), XAR0
         00082b 8F   
    2758              
    2759                      AADD #18, AR0 ; |1741| 
    2760 00082c 8A08  ||      MOV *SP(#4), T0 ; |1741| 
         00082e 841C 
         000830 12   
    2761              
    2762              $C$DW$267       .dwtag  DW_TAG_TI_branch
    2763                      .dwattr $C$DW$267, DW_AT_low_pc(0x00)
TMS320C55x Assembler PC v4.4.1 Sun Sep 09 04:48:36 2018

Tools Copyright (c) 1996-2012 Texas Instruments Incorporated
queue.asm                                                            PAGE   61

    2764                      .dwattr $C$DW$267, DW_AT_name("_vTaskPlaceOnEventList")
    2765                      .dwattr $C$DW$267, DW_AT_TI_call
    2766 000831 6C00          CALL #_vTaskPlaceOnEventList ; |1741| 
         000833 0000!
    2767                                                      ; call occurs [#_vTaskPlaceOnEventList] ; |1741| 
    2768                      .dwpsn  file "../FreeRTOS/Source/queue.c",line 1742,column 5,is_stmt
    2769 000835 ED14          MOV dbl(*SP(#10)), XAR0
         000837 8F   
    2770              $C$DW$268       .dwtag  DW_TAG_TI_branch
    2771                      .dwattr $C$DW$268, DW_AT_low_pc(0x00)
    2772                      .dwattr $C$DW$268, DW_AT_name("_prvUnlockQueue")
    2773                      .dwattr $C$DW$268, DW_AT_TI_call
    2774 000838 0802          CALL #_prvUnlockQueue ; |1742| 
         00083a E5   
    2775                                                      ; call occurs [#_prvUnlockQueue] ; |1742| 
    2776                      .dwpsn  file "../FreeRTOS/Source/queue.c",line 1743,column 5,is_stmt
    2777              $C$DW$269       .dwtag  DW_TAG_TI_branch
    2778                      .dwattr $C$DW$269, DW_AT_low_pc(0x00)
    2779                      .dwattr $C$DW$269, DW_AT_name("_xTaskResumeAll")
    2780                      .dwattr $C$DW$269, DW_AT_TI_call
    2781 00083b 6C00          CALL #_xTaskResumeAll ; |1743| 
         00083d 0000!
    2782                                                      ; call occurs [#_xTaskResumeAll] ; |1743| 
    2783 00083f 6D14          BCC $C$L74,T0 != #0 ; |1743| 
         000841 FEBC 
    2784                                                      ; branchcc occurs ; |1743| 
    2785 000843       $C$DW$L$_xQueuePeek$35$E:
    2786 000843       $C$DW$L$_xQueuePeek$36$B:
    2787                      .dwpsn  file "../FreeRTOS/Source/queue.c",line 1745,column 6,is_stmt
    2788              $C$DW$270       .dwtag  DW_TAG_TI_branch
    2789                      .dwattr $C$DW$270, DW_AT_low_pc(0x00)
    2790                      .dwattr $C$DW$270, DW_AT_name("_vPortYield")
    2791                      .dwattr $C$DW$270, DW_AT_TI_call
    2792 000843 6C00          CALL #_vPortYield ; |1745| 
         000845 0000!
    2793                                                      ; call occurs [#_vPortYield] ; |1745| 
    2794                      .dwpsn  file "../FreeRTOS/Source/queue.c",line 1746,column 5,is_stmt
    2795 000847 06FE          B $C$L74  ; |1746| 
         000849 B5   
    2796                                                      ; branch occurs ; |1746| 
    2797 00084a       $C$DW$L$_xQueuePeek$36$E:
    2798 00084a       $C$L87:    
    2799 00084a       $C$DW$L$_xQueuePeek$38$B:
    2800                      .dwpsn  file "../FreeRTOS/Source/queue.c",line 1756,column 5,is_stmt
    2801 00084a ED14          MOV dbl(*SP(#10)), XAR0
         00084c 8F   
    2802              $C$DW$271       .dwtag  DW_TAG_TI_branch
    2803                      .dwattr $C$DW$271, DW_AT_low_pc(0x00)
    2804                      .dwattr $C$DW$271, DW_AT_name("_prvUnlockQueue")
    2805                      .dwattr $C$DW$271, DW_AT_TI_call
    2806 00084d 0802          CALL #_prvUnlockQueue ; |1756| 
         00084f D0   
    2807                                                      ; call occurs [#_prvUnlockQueue] ; |1756| 
    2808                      .dwpsn  file "../FreeRTOS/Source/queue.c",line 1757,column 5,is_stmt
    2809              $C$DW$272       .dwtag  DW_TAG_TI_branch
TMS320C55x Assembler PC v4.4.1 Sun Sep 09 04:48:36 2018

Tools Copyright (c) 1996-2012 Texas Instruments Incorporated
queue.asm                                                            PAGE   62

    2810                      .dwattr $C$DW$272, DW_AT_low_pc(0x00)
    2811                      .dwattr $C$DW$272, DW_AT_name("_xTaskResumeAll")
    2812                      .dwattr $C$DW$272, DW_AT_TI_call
    2813 000850 6C00          CALL #_xTaskResumeAll ; |1757| 
         000852 0000!
    2814                                                      ; call occurs [#_xTaskResumeAll] ; |1757| 
    2815                      .dwpsn  file "../FreeRTOS/Source/queue.c",line 1759,column 3,is_stmt
    2816 000854 06FE          B $C$L74  ; |1759| 
         000856 A8   
    2817                                                      ; branch occurs ; |1759| 
    2818 000857       $C$DW$L$_xQueuePeek$38$E:
    2819 000857       $C$L88:    
    2820 000857       $C$DW$L$_xQueuePeek$39$B:
    2821                      .dwpsn  file "../FreeRTOS/Source/queue.c",line 1764,column 4,is_stmt
    2822 000857 ED14          MOV dbl(*SP(#10)), XAR0
         000859 8F   
    2823              $C$DW$273       .dwtag  DW_TAG_TI_branch
    2824                      .dwattr $C$DW$273, DW_AT_low_pc(0x00)
    2825                      .dwattr $C$DW$273, DW_AT_name("_prvUnlockQueue")
    2826                      .dwattr $C$DW$273, DW_AT_TI_call
    2827 00085a 0802          CALL #_prvUnlockQueue ; |1764| 
         00085c C3   
    2828                                                      ; call occurs [#_prvUnlockQueue] ; |1764| 
    2829                      .dwpsn  file "../FreeRTOS/Source/queue.c",line 1765,column 4,is_stmt
    2830              $C$DW$274       .dwtag  DW_TAG_TI_branch
    2831                      .dwattr $C$DW$274, DW_AT_low_pc(0x00)
    2832                      .dwattr $C$DW$274, DW_AT_name("_xTaskResumeAll")
    2833                      .dwattr $C$DW$274, DW_AT_TI_call
    2834 00085d 6C00          CALL #_xTaskResumeAll ; |1765| 
         00085f 0000!
    2835                                                      ; call occurs [#_xTaskResumeAll] ; |1765| 
    2836                      .dwpsn  file "../FreeRTOS/Source/queue.c",line 1767,column 4,is_stmt
    2837 000861 ED14          MOV dbl(*SP(#10)), XAR0
         000863 8F   
    2838              $C$DW$275       .dwtag  DW_TAG_TI_branch
    2839                      .dwattr $C$DW$275, DW_AT_low_pc(0x00)
    2840                      .dwattr $C$DW$275, DW_AT_name("_prvIsQueueEmpty")
    2841                      .dwattr $C$DW$275, DW_AT_TI_call
    2842 000864 0803          CALL #_prvIsQueueEmpty ; |1767| 
         000866 9D   
    2843                                                      ; call occurs [#_prvIsQueueEmpty] ; |1767| 
    2844 000867 6D04          BCC $C$L74,T0 == #0 ; |1767| 
         000869 FE94 
    2845                                                      ; branchcc occurs ; |1767| 
    2846 00086b       $C$DW$L$_xQueuePeek$39$E:
    2847                      .dwpsn  file "../FreeRTOS/Source/queue.c",line 1770,column 5,is_stmt
    2848 00086b 3C04          MOV #0, T0
    2849 00086d 4A00          B $C$L89  ; |1770| 
    2850                                                      ; branch occurs ; |1770| 
    2851 00086f       $C$L89:    
    2852                      .dwpsn  file "../FreeRTOS/Source/queue.c",line 1778,column 1,is_stmt
    2853 00086f 4E0D          AADD #13, SP
    2854                      .dwcfi  cfa_offset, 1
    2855              $C$DW$276       .dwtag  DW_TAG_TI_branch
    2856                      .dwattr $C$DW$276, DW_AT_low_pc(0x00)
TMS320C55x Assembler PC v4.4.1 Sun Sep 09 04:48:36 2018

Tools Copyright (c) 1996-2012 Texas Instruments Incorporated
queue.asm                                                            PAGE   63

    2857                      .dwattr $C$DW$276, DW_AT_TI_return
    2858 000871 4804          RET
    2859                                                      ; return occurs
    2860              
    2861              $C$DW$277       .dwtag  DW_TAG_TI_loop
    2862                      .dwattr $C$DW$277, DW_AT_name("F:\eZdsp_DBG\eZDSP_5535_Files\ccsws2\test\Debug\queue.asm:$C$L74:1:153
    2863                      .dwattr $C$DW$277, DW_AT_TI_begin_file("../FreeRTOS/Source/queue.c")
    2864                      .dwattr $C$DW$277, DW_AT_TI_begin_line(0x679)
    2865                      .dwattr $C$DW$277, DW_AT_TI_end_line(0x6f1)
    2866              $C$DW$278       .dwtag  DW_TAG_TI_loop_range
    2867                      .dwattr $C$DW$278, DW_AT_low_pc($C$DW$L$_xQueuePeek$2$B)
    2868                      .dwattr $C$DW$278, DW_AT_high_pc($C$DW$L$_xQueuePeek$2$E)
    2869              $C$DW$279       .dwtag  DW_TAG_TI_loop_range
    2870                      .dwattr $C$DW$279, DW_AT_low_pc($C$DW$L$_xQueuePeek$15$B)
    2871                      .dwattr $C$DW$279, DW_AT_high_pc($C$DW$L$_xQueuePeek$15$E)
    2872              $C$DW$280       .dwtag  DW_TAG_TI_loop_range
    2873                      .dwattr $C$DW$280, DW_AT_low_pc($C$DW$L$_xQueuePeek$21$B)
    2874                      .dwattr $C$DW$280, DW_AT_high_pc($C$DW$L$_xQueuePeek$21$E)
    2875              $C$DW$281       .dwtag  DW_TAG_TI_loop_range
    2876                      .dwattr $C$DW$281, DW_AT_low_pc($C$DW$L$_xQueuePeek$22$B)
    2877                      .dwattr $C$DW$281, DW_AT_high_pc($C$DW$L$_xQueuePeek$22$E)
    2878              $C$DW$282       .dwtag  DW_TAG_TI_loop_range
    2879                      .dwattr $C$DW$282, DW_AT_low_pc($C$DW$L$_xQueuePeek$23$B)
    2880                      .dwattr $C$DW$282, DW_AT_high_pc($C$DW$L$_xQueuePeek$23$E)
    2881              $C$DW$283       .dwtag  DW_TAG_TI_loop_range
    2882                      .dwattr $C$DW$283, DW_AT_low_pc($C$DW$L$_xQueuePeek$24$B)
    2883                      .dwattr $C$DW$283, DW_AT_high_pc($C$DW$L$_xQueuePeek$24$E)
    2884              $C$DW$284       .dwtag  DW_TAG_TI_loop_range
    2885                      .dwattr $C$DW$284, DW_AT_low_pc($C$DW$L$_xQueuePeek$25$B)
    2886                      .dwattr $C$DW$284, DW_AT_high_pc($C$DW$L$_xQueuePeek$25$E)
    2887              $C$DW$285       .dwtag  DW_TAG_TI_loop_range
    2888                      .dwattr $C$DW$285, DW_AT_low_pc($C$DW$L$_xQueuePeek$26$B)
    2889                      .dwattr $C$DW$285, DW_AT_high_pc($C$DW$L$_xQueuePeek$26$E)
    2890              $C$DW$286       .dwtag  DW_TAG_TI_loop_range
    2891                      .dwattr $C$DW$286, DW_AT_low_pc($C$DW$L$_xQueuePeek$27$B)
    2892                      .dwattr $C$DW$286, DW_AT_high_pc($C$DW$L$_xQueuePeek$27$E)
    2893              $C$DW$287       .dwtag  DW_TAG_TI_loop_range
    2894                      .dwattr $C$DW$287, DW_AT_low_pc($C$DW$L$_xQueuePeek$28$B)
    2895                      .dwattr $C$DW$287, DW_AT_high_pc($C$DW$L$_xQueuePeek$28$E)
    2896              $C$DW$288       .dwtag  DW_TAG_TI_loop_range
    2897                      .dwattr $C$DW$288, DW_AT_low_pc($C$DW$L$_xQueuePeek$29$B)
    2898                      .dwattr $C$DW$288, DW_AT_high_pc($C$DW$L$_xQueuePeek$29$E)
    2899              $C$DW$289       .dwtag  DW_TAG_TI_loop_range
    2900                      .dwattr $C$DW$289, DW_AT_low_pc($C$DW$L$_xQueuePeek$30$B)
    2901                      .dwattr $C$DW$289, DW_AT_high_pc($C$DW$L$_xQueuePeek$30$E)
    2902              $C$DW$290       .dwtag  DW_TAG_TI_loop_range
    2903                      .dwattr $C$DW$290, DW_AT_low_pc($C$DW$L$_xQueuePeek$31$B)
    2904                      .dwattr $C$DW$290, DW_AT_high_pc($C$DW$L$_xQueuePeek$31$E)
    2905              $C$DW$291       .dwtag  DW_TAG_TI_loop_range
    2906                      .dwattr $C$DW$291, DW_AT_low_pc($C$DW$L$_xQueuePeek$32$B)
    2907                      .dwattr $C$DW$291, DW_AT_high_pc($C$DW$L$_xQueuePeek$32$E)
    2908              $C$DW$292       .dwtag  DW_TAG_TI_loop_range
    2909                      .dwattr $C$DW$292, DW_AT_low_pc($C$DW$L$_xQueuePeek$33$B)
    2910                      .dwattr $C$DW$292, DW_AT_high_pc($C$DW$L$_xQueuePeek$33$E)
    2911              $C$DW$293       .dwtag  DW_TAG_TI_loop_range
TMS320C55x Assembler PC v4.4.1 Sun Sep 09 04:48:36 2018

Tools Copyright (c) 1996-2012 Texas Instruments Incorporated
queue.asm                                                            PAGE   64

    2912                      .dwattr $C$DW$293, DW_AT_low_pc($C$DW$L$_xQueuePeek$34$B)
    2913                      .dwattr $C$DW$293, DW_AT_high_pc($C$DW$L$_xQueuePeek$34$E)
    2914              $C$DW$294       .dwtag  DW_TAG_TI_loop_range
    2915                      .dwattr $C$DW$294, DW_AT_low_pc($C$DW$L$_xQueuePeek$39$B)
    2916                      .dwattr $C$DW$294, DW_AT_high_pc($C$DW$L$_xQueuePeek$39$E)
    2917              $C$DW$295       .dwtag  DW_TAG_TI_loop_range
    2918                      .dwattr $C$DW$295, DW_AT_low_pc($C$DW$L$_xQueuePeek$38$B)
    2919                      .dwattr $C$DW$295, DW_AT_high_pc($C$DW$L$_xQueuePeek$38$E)
    2920              $C$DW$296       .dwtag  DW_TAG_TI_loop_range
    2921                      .dwattr $C$DW$296, DW_AT_low_pc($C$DW$L$_xQueuePeek$36$B)
    2922                      .dwattr $C$DW$296, DW_AT_high_pc($C$DW$L$_xQueuePeek$36$E)
    2923              $C$DW$297       .dwtag  DW_TAG_TI_loop_range
    2924                      .dwattr $C$DW$297, DW_AT_low_pc($C$DW$L$_xQueuePeek$35$B)
    2925                      .dwattr $C$DW$297, DW_AT_high_pc($C$DW$L$_xQueuePeek$35$E)
    2926                      .dwendtag $C$DW$277
    2927              
    2928                      .dwattr $C$DW$247, DW_AT_TI_end_file("../FreeRTOS/Source/queue.c")
    2929                      .dwattr $C$DW$247, DW_AT_TI_end_line(0x6f2)
    2930                      .dwattr $C$DW$247, DW_AT_TI_end_column(0x01)
    2931                      .dwendentry
    2932                      .dwendtag $C$DW$247
    2933              
    2934 000873               .sect   ".text"
    2935                      .align 4
    2936                      .global _xQueueReceiveFromISR
    2937              
    2938              $C$DW$298       .dwtag  DW_TAG_subprogram, DW_AT_name("xQueueReceiveFromISR")
    2939                      .dwattr $C$DW$298, DW_AT_low_pc(_xQueueReceiveFromISR)
    2940                      .dwattr $C$DW$298, DW_AT_high_pc(0x00)
    2941                      .dwattr $C$DW$298, DW_AT_TI_symbol_name("_xQueueReceiveFromISR")
    2942                      .dwattr $C$DW$298, DW_AT_external
    2943                      .dwattr $C$DW$298, DW_AT_type(*$C$DW$T$43)
    2944                      .dwattr $C$DW$298, DW_AT_TI_begin_file("../FreeRTOS/Source/queue.c")
    2945                      .dwattr $C$DW$298, DW_AT_TI_begin_line(0x6f5)
    2946                      .dwattr $C$DW$298, DW_AT_TI_begin_column(0x0c)
    2947                      .dwattr $C$DW$298, DW_AT_TI_max_frame_size(0x0e)
    2948                      .dwpsn  file "../FreeRTOS/Source/queue.c",line 1782,column 1,is_stmt,address _xQueueReceiveFromISR
    2949              
    2950                      .dwfde $C$DW$CIE, _xQueueReceiveFromISR
    2951              $C$DW$299       .dwtag  DW_TAG_formal_parameter, DW_AT_name("xQueue")
    2952                      .dwattr $C$DW$299, DW_AT_TI_symbol_name("_xQueue")
    2953                      .dwattr $C$DW$299, DW_AT_type(*$C$DW$T$46)
    2954                      .dwattr $C$DW$299, DW_AT_location[DW_OP_reg17]
    2955              $C$DW$300       .dwtag  DW_TAG_formal_parameter, DW_AT_name("pvBuffer")
    2956                      .dwattr $C$DW$300, DW_AT_TI_symbol_name("_pvBuffer")
    2957                      .dwattr $C$DW$300, DW_AT_type(*$C$DW$T$64)
    2958                      .dwattr $C$DW$300, DW_AT_location[DW_OP_reg19]
    2959              $C$DW$301       .dwtag  DW_TAG_formal_parameter, DW_AT_name("pxHigherPriorityTaskWoken")
    2960                      .dwattr $C$DW$301, DW_AT_TI_symbol_name("_pxHigherPriorityTaskWoken")
    2961                      .dwattr $C$DW$301, DW_AT_type(*$C$DW$T$111)
    2962                      .dwattr $C$DW$301, DW_AT_location[DW_OP_reg21]
    2963              ;*******************************************************************************
    2964              ;* FUNCTION NAME: xQueueReceiveFromISR                                         *
    2965              ;*                                                                             *
    2966              ;*   Function Uses Regs : AC0,AC0,T0,AR0,XAR0,AR1,XAR1,AR2,XAR2,AR3,XAR3,SP,   *
TMS320C55x Assembler PC v4.4.1 Sun Sep 09 04:48:36 2018

Tools Copyright (c) 1996-2012 Texas Instruments Incorporated
queue.asm                                                            PAGE   65

    2967              ;*                        CARRY,TC1,M40,SATA,SATD,RDM,FRCT,SMUL                *
    2968              ;*   Stack Frame        : Compact (No Frame Pointer, w/ debug)                 *
    2969              ;*   Total Frame Size   : 14 words                                             *
    2970              ;*                        (2 return address/alignment)                         *
    2971              ;*                        (12 local values)                                    *
    2972              ;*   Min System Stack   : 1 word                                               *
    2973              ;*******************************************************************************
    2974 000874       _xQueueReceiveFromISR:
    2975                      .dwcfi  cfa_offset, 1
    2976                      .dwcfi  save_reg_to_mem, 91, -1
    2977 000874 4EF3          AADD #-13, SP
    2978                      .dwcfi  cfa_offset, 14
    2979              $C$DW$302       .dwtag  DW_TAG_variable, DW_AT_name("xQueue")
    2980                      .dwattr $C$DW$302, DW_AT_TI_symbol_name("_xQueue")
    2981                      .dwattr $C$DW$302, DW_AT_type(*$C$DW$T$46)
    2982                      .dwattr $C$DW$302, DW_AT_location[DW_OP_bregx 0x24 0]
    2983              $C$DW$303       .dwtag  DW_TAG_variable, DW_AT_name("pvBuffer")
    2984                      .dwattr $C$DW$303, DW_AT_TI_symbol_name("_pvBuffer")
    2985                      .dwattr $C$DW$303, DW_AT_type(*$C$DW$T$64)
    2986                      .dwattr $C$DW$303, DW_AT_location[DW_OP_bregx 0x24 2]
    2987              $C$DW$304       .dwtag  DW_TAG_variable, DW_AT_name("pxHigherPriorityTaskWoken")
    2988                      .dwattr $C$DW$304, DW_AT_TI_symbol_name("_pxHigherPriorityTaskWoken")
    2989                      .dwattr $C$DW$304, DW_AT_type(*$C$DW$T$111)
    2990                      .dwattr $C$DW$304, DW_AT_location[DW_OP_bregx 0x24 4]
    2991              $C$DW$305       .dwtag  DW_TAG_variable, DW_AT_name("xReturn")
    2992                      .dwattr $C$DW$305, DW_AT_TI_symbol_name("_xReturn")
    2993                      .dwattr $C$DW$305, DW_AT_type(*$C$DW$T$43)
    2994                      .dwattr $C$DW$305, DW_AT_location[DW_OP_bregx 0x24 6]
    2995              $C$DW$306       .dwtag  DW_TAG_variable, DW_AT_name("uxSavedInterruptStatus")
    2996                      .dwattr $C$DW$306, DW_AT_TI_symbol_name("_uxSavedInterruptStatus")
    2997                      .dwattr $C$DW$306, DW_AT_type(*$C$DW$T$26)
    2998                      .dwattr $C$DW$306, DW_AT_location[DW_OP_bregx 0x24 7]
    2999              $C$DW$307       .dwtag  DW_TAG_variable, DW_AT_name("pxQueue")
    3000                      .dwattr $C$DW$307, DW_AT_TI_symbol_name("_pxQueue")
    3001                      .dwattr $C$DW$307, DW_AT_type(*$C$DW$T$57)
    3002                      .dwattr $C$DW$307, DW_AT_location[DW_OP_bregx 0x24 8]
    3003 000876 EB08          MOV XAR2, dbl(*SP(#4))
         000878 A5   
    3004 000879 EB04          MOV XAR1, dbl(*SP(#2))
         00087b 95   
    3005 00087c EB00          MOV XAR0, dbl(*SP(#0))
         00087e 85   
    3006                      .dwpsn  file "../FreeRTOS/Source/queue.c",line 1785,column 17,is_stmt
    3007 00087f ED00          MOV dbl(*SP(#0)), XAR3
         000881 BF   
    3008 000882 EB10          MOV XAR3, dbl(*SP(#8))
         000884 B5   
    3009                      .dwpsn  file "../FreeRTOS/Source/queue.c",line 1806,column 2,is_stmt
    3010 000885 E60E          MOV #0, *SP(#7) ; |1806| 
         000887 00   
    3011              
    3012              $C$DW$308       .dwtag  DW_TAG_lexical_block, DW_AT_low_pc(0x00), DW_AT_high_pc(0x00)
    3013              $C$DW$309       .dwtag  DW_TAG_variable, DW_AT_name("uxMessagesWaiting")
    3014                      .dwattr $C$DW$309, DW_AT_TI_symbol_name("_uxMessagesWaiting")
    3015                      .dwattr $C$DW$309, DW_AT_type(*$C$DW$T$48)
TMS320C55x Assembler PC v4.4.1 Sun Sep 09 04:48:36 2018

Tools Copyright (c) 1996-2012 Texas Instruments Incorporated
queue.asm                                                            PAGE   66

    3016                      .dwattr $C$DW$309, DW_AT_location[DW_OP_bregx 0x24 10]
    3017                      .dwpsn  file "../FreeRTOS/Source/queue.c",line 1808,column 21,is_stmt
    3018 000888 ED10          MOV dbl(*SP(#8)), XAR3
         00088a BF   
    3019 00088b A96D          MOV *AR3(#28), AR1 ; |1808| 
         00088d 001C 
    3020 00088f C914          MOV AR1, *SP(#10) ; |1808| 
    3021                      .dwpsn  file "../FreeRTOS/Source/queue.c",line 1811,column 3,is_stmt
    3022 000891 0409          BCC $C$L94,AR1 == #0 ; |1811| 
         000893 60   
    3023                                                      ; branchcc occurs ; |1811| 
    3024              
    3025              $C$DW$310       .dwtag  DW_TAG_lexical_block, DW_AT_low_pc(0x00), DW_AT_high_pc(0x00)
    3026              $C$DW$311       .dwtag  DW_TAG_variable, DW_AT_name("cRxLock")
    3027                      .dwattr $C$DW$311, DW_AT_TI_symbol_name("_cRxLock")
    3028                      .dwattr $C$DW$311, DW_AT_type(*$C$DW$T$92)
    3029                      .dwattr $C$DW$311, DW_AT_location[DW_OP_bregx 0x24 11]
    3030                      .dwpsn  file "../FreeRTOS/Source/queue.c",line 1813,column 17,is_stmt
    3031 000894 ED10          MOV dbl(*SP(#8)), XAR3
         000896 BF   
    3032 000897 A96D          MOV *AR3(#31), AR1 ; |1813| 
         000899 001F 
    3033 00089b C916          MOV AR1, *SP(#11) ; |1813| 
    3034                      .dwpsn  file "../FreeRTOS/Source/queue.c",line 1817,column 4,is_stmt
    3035 00089d ED10          MOV dbl(*SP(#8)), XAR0
         00089f 8F   
    3036 0008a0 ED04          MOV dbl(*SP(#2)), XAR1
         0008a2 9F   
    3037              $C$DW$312       .dwtag  DW_TAG_TI_branch
    3038                      .dwattr $C$DW$312, DW_AT_low_pc(0x00)
    3039                      .dwattr $C$DW$312, DW_AT_name("_prvCopyDataFromQueue")
    3040                      .dwattr $C$DW$312, DW_AT_TI_call
    3041 0008a3 0802          CALL #_prvCopyDataFromQueue ; |1817| 
         0008a5 22   
    3042                                                      ; call occurs [#_prvCopyDataFromQueue] ; |1817| 
    3043                      .dwpsn  file "../FreeRTOS/Source/queue.c",line 1818,column 4,is_stmt
    3044 0008a6 ED10          MOV dbl(*SP(#8)), XAR3
         0008a8 BF   
    3045 0008a9 A914          MOV *SP(#10), AR1 ; |1818| 
    3046 0008ab 4219          SUB #1, AR1 ; |1818| 
    3047 0008ad C96D          MOV AR1, *AR3(#28) ; |1818| 
         0008af 001C 
    3048                      .dwpsn  file "../FreeRTOS/Source/queue.c",line 1824,column 4,is_stmt
    3049 0008b1 F016          CMP *SP(#11) == #-1, TC1 ; |1824| 
         0008b3 FFFF 
    3050 0008b5 0474          BCC $C$L92,!TC1 ; |1824| 
         0008b7 2C   
    3051                                                      ; branchcc occurs ; |1824| 
    3052                      .dwpsn  file "../FreeRTOS/Source/queue.c",line 1826,column 5,is_stmt
    3053 0008b8 ED10          MOV dbl(*SP(#8)), XAR3
         0008ba BF   
    3054 0008bb A96D          MOV *AR3(#8), AR1 ; |1826| 
         0008bd 0008 
    3055 0008bf 6219          BCC $C$L90,AR1 != #0 ; |1826| 
    3056                                                      ; branchcc occurs ; |1826| 
TMS320C55x Assembler PC v4.4.1 Sun Sep 09 04:48:36 2018

Tools Copyright (c) 1996-2012 Texas Instruments Incorporated
queue.asm                                                            PAGE   67

    3057 0008c1 3C19          MOV #1, AR1
    3058 0008c3 4A02          B $C$L91  ; |1826| 
    3059                                                      ; branch occurs ; |1826| 
    3060 0008c5       $C$L90:    
    3061 0008c5 3C09          MOV #0, AR1
    3062 0008c7       $C$L91:    
    3063 0008c7 0419          BCC $C$L93,AR1 != #0 ; |1826| 
         0008c9 25   
    3064                                                      ; branchcc occurs ; |1826| 
    3065                      .dwpsn  file "../FreeRTOS/Source/queue.c",line 1828,column 6,is_stmt
    3066 0008ca ED10          MOV dbl(*SP(#8)), XAR0
         0008cc 8F   
    3067 0008cd 1408          AADD #8, AR0 ; |1828| 
         0008cf 84   
    3068              $C$DW$313       .dwtag  DW_TAG_TI_branch
    3069                      .dwattr $C$DW$313, DW_AT_low_pc(0x00)
    3070                      .dwattr $C$DW$313, DW_AT_name("_xTaskRemoveFromEventList")
    3071                      .dwattr $C$DW$313, DW_AT_TI_call
    3072 0008d0 6C00          CALL #_xTaskRemoveFromEventList ; |1828| 
         0008d2 0000!
    3073                                                      ; call occurs [#_xTaskRemoveFromEventList] ; |1828| 
    3074 0008d4 0404          BCC $C$L93,T0 == #0 ; |1828| 
         0008d6 18   
    3075                                                      ; branchcc occurs ; |1828| 
    3076                      .dwpsn  file "../FreeRTOS/Source/queue.c",line 1832,column 7,is_stmt
    3077 0008d7 ED08          MOV dbl(*SP(#4)), XAR3
         0008d9 BF   
    3078 0008da 90B0          MOV XAR3, AC0
    3079 0008dc 0400          BCC $C$L93,AC0 == #0 ; |1832| 
         0008de 10   
    3080                                                      ; branchcc occurs ; |1832| 
    3081                      .dwpsn  file "../FreeRTOS/Source/queue.c",line 1834,column 8,is_stmt
    3082 0008df E661          MOV #1, *AR3 ; |1834| 
         0008e1 01   
    3083                      .dwpsn  file "../FreeRTOS/Source/queue.c",line 1835,column 7,is_stmt
    3084 0008e2 4A0B          B $C$L93  ; |1835| 
    3085                                                      ; branch occurs ; |1835| 
    3086 0008e4       $C$L92:    
    3087                      .dwpsn  file "../FreeRTOS/Source/queue.c",line 1855,column 5,is_stmt
    3088 0008e4 ED10          MOV dbl(*SP(#8)), XAR3
         0008e6 BF   
    3089 0008e7 A916          MOV *SP(#11), AR1 ; |1855| 
    3090 0008e9 4019          ADD #1, AR1 ; |1855| 
    3091 0008eb C96D          MOV AR1, *AR3(#31) ; |1855| 
         0008ed 001F 
    3092 0008ef       $C$L93:    
    3093                      .dwpsn  file "../FreeRTOS/Source/queue.c",line 1858,column 4,is_stmt
    3094 0008ef E60C          MOV #1, *SP(#6) ; |1858| 
         0008f1 01   
    3095                      .dwendtag $C$DW$310
    3096              
    3097                      .dwpsn  file "../FreeRTOS/Source/queue.c",line 1859,column 3,is_stmt
    3098 0008f2 4A03          B $C$L95  ; |1859| 
    3099                                                      ; branch occurs ; |1859| 
    3100 0008f4       $C$L94:    
TMS320C55x Assembler PC v4.4.1 Sun Sep 09 04:48:36 2018

Tools Copyright (c) 1996-2012 Texas Instruments Incorporated
queue.asm                                                            PAGE   68

    3101                      .dwpsn  file "../FreeRTOS/Source/queue.c",line 1862,column 4,is_stmt
    3102 0008f4 E60C          MOV #0, *SP(#6) ; |1862| 
         0008f6 00   
    3103              $C$L95:    
    3104                      .dwendtag $C$DW$308
    3105              
    3106                      .dwpsn  file "../FreeRTOS/Source/queue.c",line 1866,column 2,is_stmt
    3107                      .dwpsn  file "../FreeRTOS/Source/queue.c",line 1868,column 2,is_stmt
    3108 0008f7 A40C          MOV *SP(#6), T0 ; |1868| 
    3109                      .dwpsn  file "../FreeRTOS/Source/queue.c",line 1869,column 1,is_stmt
    3110 0008f9 4E0D          AADD #13, SP
    3111                      .dwcfi  cfa_offset, 1
    3112              $C$DW$314       .dwtag  DW_TAG_TI_branch
    3113                      .dwattr $C$DW$314, DW_AT_low_pc(0x00)
    3114                      .dwattr $C$DW$314, DW_AT_TI_return
    3115 0008fb 4804          RET
    3116                                                      ; return occurs
    3117                      .dwattr $C$DW$298, DW_AT_TI_end_file("../FreeRTOS/Source/queue.c")
    3118                      .dwattr $C$DW$298, DW_AT_TI_end_line(0x74d)
    3119                      .dwattr $C$DW$298, DW_AT_TI_end_column(0x01)
    3120                      .dwendentry
    3121                      .dwendtag $C$DW$298
    3122              
    3123 0008fd               .sect   ".text"
    3124                      .align 4
    3125                      .global _xQueuePeekFromISR
    3126              
    3127              $C$DW$315       .dwtag  DW_TAG_subprogram, DW_AT_name("xQueuePeekFromISR")
    3128                      .dwattr $C$DW$315, DW_AT_low_pc(_xQueuePeekFromISR)
    3129                      .dwattr $C$DW$315, DW_AT_high_pc(0x00)
    3130                      .dwattr $C$DW$315, DW_AT_TI_symbol_name("_xQueuePeekFromISR")
    3131                      .dwattr $C$DW$315, DW_AT_external
    3132                      .dwattr $C$DW$315, DW_AT_type(*$C$DW$T$43)
    3133                      .dwattr $C$DW$315, DW_AT_TI_begin_file("../FreeRTOS/Source/queue.c")
    3134                      .dwattr $C$DW$315, DW_AT_TI_begin_line(0x750)
    3135                      .dwattr $C$DW$315, DW_AT_TI_begin_column(0x0c)
    3136                      .dwattr $C$DW$315, DW_AT_TI_max_frame_size(0x0c)
    3137                      .dwpsn  file "../FreeRTOS/Source/queue.c",line 1873,column 1,is_stmt,address _xQueuePeekFromISR
    3138              
    3139                      .dwfde $C$DW$CIE, _xQueuePeekFromISR
    3140              $C$DW$316       .dwtag  DW_TAG_formal_parameter, DW_AT_name("xQueue")
    3141                      .dwattr $C$DW$316, DW_AT_TI_symbol_name("_xQueue")
    3142                      .dwattr $C$DW$316, DW_AT_type(*$C$DW$T$46)
    3143                      .dwattr $C$DW$316, DW_AT_location[DW_OP_reg17]
    3144              $C$DW$317       .dwtag  DW_TAG_formal_parameter, DW_AT_name("pvBuffer")
    3145                      .dwattr $C$DW$317, DW_AT_TI_symbol_name("_pvBuffer")
    3146                      .dwattr $C$DW$317, DW_AT_type(*$C$DW$T$64)
    3147                      .dwattr $C$DW$317, DW_AT_location[DW_OP_reg19]
    3148              ;*******************************************************************************
    3149              ;* FUNCTION NAME: xQueuePeekFromISR                                            *
    3150              ;*                                                                             *
    3151              ;*   Function Uses Regs : T0,AR0,XAR0,AR1,XAR1,AR2,XAR2,AR3,XAR3,SP,M40,SATA,  *
    3152              ;*                        SATD,RDM,FRCT,SMUL                                   *
    3153              ;*   Stack Frame        : Compact (No Frame Pointer, w/ debug)                 *
    3154              ;*   Total Frame Size   : 12 words                                             *
TMS320C55x Assembler PC v4.4.1 Sun Sep 09 04:48:36 2018

Tools Copyright (c) 1996-2012 Texas Instruments Incorporated
queue.asm                                                            PAGE   69

    3155              ;*                        (2 return address/alignment)                         *
    3156              ;*                        (10 local values)                                    *
    3157              ;*   Min System Stack   : 1 word                                               *
    3158              ;*******************************************************************************
    3159 000900       _xQueuePeekFromISR:
    3160                      .dwcfi  cfa_offset, 1
    3161                      .dwcfi  save_reg_to_mem, 91, -1
    3162 000900 4EF5          AADD #-11, SP
    3163                      .dwcfi  cfa_offset, 12
    3164              $C$DW$318       .dwtag  DW_TAG_variable, DW_AT_name("xQueue")
    3165                      .dwattr $C$DW$318, DW_AT_TI_symbol_name("_xQueue")
    3166                      .dwattr $C$DW$318, DW_AT_type(*$C$DW$T$46)
