TMS320C55x Assembler PC v4.4.1 Tue Sep 18 04:49:51 2018

Tools Copyright (c) 1996-2012 Texas Instruments Incorporated
queue.asm                                                            PAGE    1

    7451              ; Temporary Registers Used: None
       1              ;*******************************************************************************
       2              ;* TMS320C55x C/C++ Codegen                                          PC v4.4.1 *
       3              ;* Date/Time created: Tue Sep 18 04:49:49 2018                                 *
       4              ;*******************************************************************************
       5                      .compiler_opts --hll_source=on --mem_model:code=flat --mem_model:data=large --object_format=coff --si
       6                      .mmregs
       7                      .cpl_on
       8                      .arms_on
       9                      .c54cm_off
      10                      .asg AR6, FP
      11                      .asg XAR6, XFP
      12                      .asg DPH, MDP
      13                      .model call=c55_std
      14                      .model mem=large
      15                      .noremark 5002  ; code respects overwrite rules
      16              ;*******************************************************************************
      17              ;* GLOBAL FILE PARAMETERS                                                      *
      18              ;*                                                                             *
      19              ;*   Architecture       : TMS320C55x                                           *
      20              ;*   Optimizing for     : Speed                                                *
      21              ;*   Memory             : Large Model (23-Bit Data Pointers)                   *
      22              ;*   Calls              : Normal Library ASM calls                             *
      23              ;*   Debug Info         : Standard TI Debug Information                        *
      24              ;*******************************************************************************
      25              
      26              $C$DW$CU        .dwtag  DW_TAG_compile_unit
      27                      .dwattr $C$DW$CU, DW_AT_name("../FreeRTOS/Source/queue.c")
      28                      .dwattr $C$DW$CU, DW_AT_producer("TMS320C55x C/C++ Codegen PC v4.4.1 Copyright (c) 1996-2012 Texas In
      29                      .dwattr $C$DW$CU, DW_AT_TI_version(0x01)
      30                      .dwattr $C$DW$CU, DW_AT_comp_dir("F:\eZdsp_DBG\eZDSP_5535_Files\ccsws2\test\Debug")
      31              
      32              $C$DW$1 .dwtag  DW_TAG_subprogram, DW_AT_name("memcpy")
      33                      .dwattr $C$DW$1, DW_AT_TI_symbol_name("_memcpy")
      34                      .dwattr $C$DW$1, DW_AT_type(*$C$DW$T$3)
      35                      .dwattr $C$DW$1, DW_AT_declaration
      36                      .dwattr $C$DW$1, DW_AT_external
      37              $C$DW$2 .dwtag  DW_TAG_formal_parameter
      38                      .dwattr $C$DW$2, DW_AT_type(*$C$DW$T$3)
      39              $C$DW$3 .dwtag  DW_TAG_formal_parameter
      40                      .dwattr $C$DW$3, DW_AT_type(*$C$DW$T$71)
      41              $C$DW$4 .dwtag  DW_TAG_formal_parameter
      42                      .dwattr $C$DW$4, DW_AT_type(*$C$DW$T$72)
      43                      .dwendtag $C$DW$1
      44              
      45              
      46              $C$DW$5 .dwtag  DW_TAG_subprogram, DW_AT_name("vPortYield")
      47                      .dwattr $C$DW$5, DW_AT_TI_symbol_name("_vPortYield")
      48                      .dwattr $C$DW$5, DW_AT_declaration
      49                      .dwattr $C$DW$5, DW_AT_external
      50              
      51              $C$DW$6 .dwtag  DW_TAG_subprogram, DW_AT_name("pvPortMalloc")
      52                      .dwattr $C$DW$6, DW_AT_TI_symbol_name("_pvPortMalloc")
      53                      .dwattr $C$DW$6, DW_AT_type(*$C$DW$T$3)
      54                      .dwattr $C$DW$6, DW_AT_declaration
TMS320C55x Assembler PC v4.4.1 Tue Sep 18 04:49:51 2018

Tools Copyright (c) 1996-2012 Texas Instruments Incorporated
queue.asm                                                            PAGE    2

      55                      .dwattr $C$DW$6, DW_AT_external
      56              $C$DW$7 .dwtag  DW_TAG_formal_parameter
      57                      .dwattr $C$DW$7, DW_AT_type(*$C$DW$T$72)
      58                      .dwendtag $C$DW$6
      59              
      60              
      61              $C$DW$8 .dwtag  DW_TAG_subprogram, DW_AT_name("vPortFree")
      62                      .dwattr $C$DW$8, DW_AT_TI_symbol_name("_vPortFree")
      63                      .dwattr $C$DW$8, DW_AT_declaration
      64                      .dwattr $C$DW$8, DW_AT_external
      65              $C$DW$9 .dwtag  DW_TAG_formal_parameter
      66                      .dwattr $C$DW$9, DW_AT_type(*$C$DW$T$3)
      67                      .dwendtag $C$DW$8
      68              
      69              
      70              $C$DW$10        .dwtag  DW_TAG_subprogram, DW_AT_name("vListInitialise")
      71                      .dwattr $C$DW$10, DW_AT_TI_symbol_name("_vListInitialise")
      72                      .dwattr $C$DW$10, DW_AT_declaration
      73                      .dwattr $C$DW$10, DW_AT_external
      74              $C$DW$11        .dwtag  DW_TAG_formal_parameter
      75                      .dwattr $C$DW$11, DW_AT_type(*$C$DW$T$83)
      76                      .dwendtag $C$DW$10
      77              
      78              
      79              $C$DW$12        .dwtag  DW_TAG_subprogram, DW_AT_name("vTaskSuspendAll")
      80                      .dwattr $C$DW$12, DW_AT_TI_symbol_name("_vTaskSuspendAll")
      81                      .dwattr $C$DW$12, DW_AT_declaration
      82                      .dwattr $C$DW$12, DW_AT_external
      83              
      84              $C$DW$13        .dwtag  DW_TAG_subprogram, DW_AT_name("xTaskResumeAll")
      85                      .dwattr $C$DW$13, DW_AT_TI_symbol_name("_xTaskResumeAll")
      86                      .dwattr $C$DW$13, DW_AT_type(*$C$DW$T$49)
      87                      .dwattr $C$DW$13, DW_AT_declaration
      88                      .dwattr $C$DW$13, DW_AT_external
      89              
      90              $C$DW$14        .dwtag  DW_TAG_subprogram, DW_AT_name("vTaskPlaceOnEventList")
      91                      .dwattr $C$DW$14, DW_AT_TI_symbol_name("_vTaskPlaceOnEventList")
      92                      .dwattr $C$DW$14, DW_AT_declaration
      93                      .dwattr $C$DW$14, DW_AT_external
      94              $C$DW$15        .dwtag  DW_TAG_formal_parameter
      95                      .dwattr $C$DW$15, DW_AT_type(*$C$DW$T$83)
      96              $C$DW$16        .dwtag  DW_TAG_formal_parameter
      97                      .dwattr $C$DW$16, DW_AT_type(*$C$DW$T$86)
      98                      .dwendtag $C$DW$14
      99              
     100              
     101              $C$DW$17        .dwtag  DW_TAG_subprogram, DW_AT_name("xTaskRemoveFromEventList")
     102                      .dwattr $C$DW$17, DW_AT_TI_symbol_name("_xTaskRemoveFromEventList")
     103                      .dwattr $C$DW$17, DW_AT_type(*$C$DW$T$49)
     104                      .dwattr $C$DW$17, DW_AT_declaration
     105                      .dwattr $C$DW$17, DW_AT_external
     106              $C$DW$18        .dwtag  DW_TAG_formal_parameter
     107                      .dwattr $C$DW$18, DW_AT_type(*$C$DW$T$115)
     108                      .dwendtag $C$DW$17
     109              
TMS320C55x Assembler PC v4.4.1 Tue Sep 18 04:49:51 2018

Tools Copyright (c) 1996-2012 Texas Instruments Incorporated
queue.asm                                                            PAGE    3

     110              
     111              $C$DW$19        .dwtag  DW_TAG_subprogram, DW_AT_name("xTaskGetCurrentTaskHandle")
     112                      .dwattr $C$DW$19, DW_AT_TI_symbol_name("_xTaskGetCurrentTaskHandle")
     113                      .dwattr $C$DW$19, DW_AT_type(*$C$DW$T$38)
     114                      .dwattr $C$DW$19, DW_AT_declaration
     115                      .dwattr $C$DW$19, DW_AT_external
     116              
     117              $C$DW$20        .dwtag  DW_TAG_subprogram, DW_AT_name("xTaskCheckForTimeOut")
     118                      .dwattr $C$DW$20, DW_AT_TI_symbol_name("_xTaskCheckForTimeOut")
     119                      .dwattr $C$DW$20, DW_AT_type(*$C$DW$T$49)
     120                      .dwattr $C$DW$20, DW_AT_declaration
     121                      .dwattr $C$DW$20, DW_AT_external
     122              $C$DW$21        .dwtag  DW_TAG_formal_parameter
     123                      .dwattr $C$DW$21, DW_AT_type(*$C$DW$T$94)
     124              $C$DW$22        .dwtag  DW_TAG_formal_parameter
     125                      .dwattr $C$DW$22, DW_AT_type(*$C$DW$T$119)
     126                      .dwendtag $C$DW$20
     127              
     128              
     129              $C$DW$23        .dwtag  DW_TAG_subprogram, DW_AT_name("vTaskMissedYield")
     130                      .dwattr $C$DW$23, DW_AT_TI_symbol_name("_vTaskMissedYield")
     131                      .dwattr $C$DW$23, DW_AT_declaration
     132                      .dwattr $C$DW$23, DW_AT_external
     133              
     134              $C$DW$24        .dwtag  DW_TAG_subprogram, DW_AT_name("xTaskPriorityInherit")
     135                      .dwattr $C$DW$24, DW_AT_TI_symbol_name("_xTaskPriorityInherit")
     136                      .dwattr $C$DW$24, DW_AT_type(*$C$DW$T$49)
     137                      .dwattr $C$DW$24, DW_AT_declaration
     138                      .dwattr $C$DW$24, DW_AT_external
     139              $C$DW$25        .dwtag  DW_TAG_formal_parameter
     140                      .dwattr $C$DW$25, DW_AT_type(*$C$DW$T$89)
     141                      .dwendtag $C$DW$24
     142              
     143              
     144              $C$DW$26        .dwtag  DW_TAG_subprogram, DW_AT_name("xTaskPriorityDisinherit")
     145                      .dwattr $C$DW$26, DW_AT_TI_symbol_name("_xTaskPriorityDisinherit")
     146                      .dwattr $C$DW$26, DW_AT_type(*$C$DW$T$49)
     147                      .dwattr $C$DW$26, DW_AT_declaration
     148                      .dwattr $C$DW$26, DW_AT_external
     149              $C$DW$27        .dwtag  DW_TAG_formal_parameter
     150                      .dwattr $C$DW$27, DW_AT_type(*$C$DW$T$89)
     151                      .dwendtag $C$DW$26
     152              
     153              
     154              $C$DW$28        .dwtag  DW_TAG_subprogram, DW_AT_name("vTaskPriorityDisinheritAfterTimeout")
     155                      .dwattr $C$DW$28, DW_AT_TI_symbol_name("_vTaskPriorityDisinheritAfterTimeout")
     156                      .dwattr $C$DW$28, DW_AT_declaration
     157                      .dwattr $C$DW$28, DW_AT_external
     158              $C$DW$29        .dwtag  DW_TAG_formal_parameter
     159                      .dwattr $C$DW$29, DW_AT_type(*$C$DW$T$89)
     160              $C$DW$30        .dwtag  DW_TAG_formal_parameter
     161                      .dwattr $C$DW$30, DW_AT_type(*$C$DW$T$32)
     162                      .dwendtag $C$DW$28
     163              
     164              
TMS320C55x Assembler PC v4.4.1 Tue Sep 18 04:49:51 2018

Tools Copyright (c) 1996-2012 Texas Instruments Incorporated
queue.asm                                                            PAGE    4

     165              $C$DW$31        .dwtag  DW_TAG_subprogram, DW_AT_name("pvTaskIncrementMutexHeldCount")
     166                      .dwattr $C$DW$31, DW_AT_TI_symbol_name("_pvTaskIncrementMutexHeldCount")
     167                      .dwattr $C$DW$31, DW_AT_type(*$C$DW$T$38)
     168                      .dwattr $C$DW$31, DW_AT_declaration
     169                      .dwattr $C$DW$31, DW_AT_external
     170              
     171              $C$DW$32        .dwtag  DW_TAG_subprogram, DW_AT_name("vTaskInternalSetTimeOutState")
     172                      .dwattr $C$DW$32, DW_AT_TI_symbol_name("_vTaskInternalSetTimeOutState")
     173                      .dwattr $C$DW$32, DW_AT_declaration
     174                      .dwattr $C$DW$32, DW_AT_external
     175              $C$DW$33        .dwtag  DW_TAG_formal_parameter
     176                      .dwattr $C$DW$33, DW_AT_type(*$C$DW$T$94)
     177                      .dwendtag $C$DW$32
     178              
     179                      .global _xQueueRegistry
     180 000000               .bss    _xQueueRegistry,32,0,2
     181              $C$DW$34        .dwtag  DW_TAG_variable, DW_AT_name("xQueueRegistry")
     182                      .dwattr $C$DW$34, DW_AT_TI_symbol_name("_xQueueRegistry")
     183                      .dwattr $C$DW$34, DW_AT_location[DW_OP_addr _xQueueRegistry]
     184                      .dwattr $C$DW$34, DW_AT_type(*$C$DW$T$53)
     185                      .dwattr $C$DW$34, DW_AT_external
     186              $C$DW$35        .dwtag  DW_TAG_variable, DW_AT_name("usCriticalNesting")
     187                      .dwattr $C$DW$35, DW_AT_TI_symbol_name("_usCriticalNesting")
     188                      .dwattr $C$DW$35, DW_AT_type(*$C$DW$T$147)
     189                      .dwattr $C$DW$35, DW_AT_declaration
     190                      .dwattr $C$DW$35, DW_AT_external
     191              ;       F:\ti\ccs8p1\ccsv8\tools\compiler\alt-install-ti-cgt-c55x_4.4.1\bin\acp55.exe -@f:\\AppData\\Local\\T
     192 000000               .sect   ".text"
     193                      .align 4
     194                      .global _xQueueGenericReset
     195              
     196              $C$DW$36        .dwtag  DW_TAG_subprogram, DW_AT_name("xQueueGenericReset")
     197                      .dwattr $C$DW$36, DW_AT_low_pc(_xQueueGenericReset)
     198                      .dwattr $C$DW$36, DW_AT_high_pc(0x00)
     199                      .dwattr $C$DW$36, DW_AT_TI_symbol_name("_xQueueGenericReset")
     200                      .dwattr $C$DW$36, DW_AT_external
     201                      .dwattr $C$DW$36, DW_AT_type(*$C$DW$T$49)
     202                      .dwattr $C$DW$36, DW_AT_TI_begin_file("../FreeRTOS/Source/queue.c")
     203                      .dwattr $C$DW$36, DW_AT_TI_begin_line(0xff)
     204                      .dwattr $C$DW$36, DW_AT_TI_begin_column(0x0c)
     205                      .dwattr $C$DW$36, DW_AT_TI_max_frame_size(0x08)
     206                      .dwpsn  file "../FreeRTOS/Source/queue.c",line 256,column 1,is_stmt,address _xQueueGenericReset
     207              
     208                      .dwfde $C$DW$CIE, _xQueueGenericReset
     209              $C$DW$37        .dwtag  DW_TAG_formal_parameter, DW_AT_name("xQueue")
     210                      .dwattr $C$DW$37, DW_AT_TI_symbol_name("_xQueue")
     211                      .dwattr $C$DW$37, DW_AT_type(*$C$DW$T$27)
     212                      .dwattr $C$DW$37, DW_AT_location[DW_OP_reg17]
     213              $C$DW$38        .dwtag  DW_TAG_formal_parameter, DW_AT_name("xNewQueue")
     214                      .dwattr $C$DW$38, DW_AT_TI_symbol_name("_xNewQueue")
     215                      .dwattr $C$DW$38, DW_AT_type(*$C$DW$T$49)
     216                      .dwattr $C$DW$38, DW_AT_location[DW_OP_reg12]
     217              ;*******************************************************************************
     218              ;* FUNCTION NAME: xQueueGenericReset                                           *
     219              ;*                                                                             *
TMS320C55x Assembler PC v4.4.1 Tue Sep 18 04:49:51 2018

Tools Copyright (c) 1996-2012 Texas Instruments Incorporated
queue.asm                                                            PAGE    5

     220              ;*   Function Uses Regs : AC0,AC0,T0,T1,AR0,XAR0,AR1,AR2,XAR2,AR3,XAR3,SP,     *
     221              ;*                        CARRY,M40,SATA,SATD,RDM,FRCT,SMUL                    *
     222              ;*   Stack Frame        : Compact (No Frame Pointer, w/ debug)                 *
     223              ;*   Total Frame Size   : 8 words                                              *
     224              ;*                        (2 return address/alignment)                         *
     225              ;*                        (6 local values)                                     *
     226              ;*   Min System Stack   : 1 word                                               *
     227              ;*******************************************************************************
     228 000000       _xQueueGenericReset:
     229                      .dwcfi  cfa_offset, 1
     230                      .dwcfi  save_reg_to_mem, 91, -1
     231 000000 4EF9          AADD #-7, SP
     232                      .dwcfi  cfa_offset, 8
     233              $C$DW$39        .dwtag  DW_TAG_variable, DW_AT_name("xQueue")
     234                      .dwattr $C$DW$39, DW_AT_TI_symbol_name("_xQueue")
     235                      .dwattr $C$DW$39, DW_AT_type(*$C$DW$T$27)
     236                      .dwattr $C$DW$39, DW_AT_location[DW_OP_bregx 0x24 0]
     237              $C$DW$40        .dwtag  DW_TAG_variable, DW_AT_name("xNewQueue")
     238                      .dwattr $C$DW$40, DW_AT_TI_symbol_name("_xNewQueue")
     239                      .dwattr $C$DW$40, DW_AT_type(*$C$DW$T$49)
     240                      .dwattr $C$DW$40, DW_AT_location[DW_OP_bregx 0x24 2]
     241              $C$DW$41        .dwtag  DW_TAG_variable, DW_AT_name("pxQueue")
     242                      .dwattr $C$DW$41, DW_AT_TI_symbol_name("_pxQueue")
     243                      .dwattr $C$DW$41, DW_AT_type(*$C$DW$T$69)
     244                      .dwattr $C$DW$41, DW_AT_location[DW_OP_bregx 0x24 4]
     245 000002 C404          MOV T0, *SP(#2) ; |256| 
     246 000004 EB00          MOV XAR0, dbl(*SP(#0))
         000006 85   
     247                      .dwpsn  file "../FreeRTOS/Source/queue.c",line 257,column 17,is_stmt
     248 000007 ED00          MOV dbl(*SP(#0)), XAR3
         000009 BF   
     249 00000a EB08          MOV XAR3, dbl(*SP(#4))
         00000c B5   
     250                      .dwpsn  file "../FreeRTOS/Source/queue.c",line 259,column 2,is_stmt
     251 00000d 90B0          MOV XAR3, AC0
     252 00000f 6290          BCC $C$L2,AC0 != #0 ; |259| 
     253                                                      ; branchcc occurs ; |259| 
     254 000011 20     nop
     255 000012 46B3   bset INTM
     256 000014       $C$L1:    
     257 000014       $C$DW$L$_xQueueGenericReset$3$B:
     258 000014 4A7E          B $C$L1   ; |259| 
     259                                                      ; branch occurs ; |259| 
     260 000016       $C$DW$L$_xQueueGenericReset$3$E:
     261 000016       $C$L2:    
     262                      .dwpsn  file "../FreeRTOS/Source/queue.c",line 261,column 2,is_stmt
     263 000016 20     nop
     264 000017 46B3   bset INTM
     265 000019 F731          ADD #1, *(#_usCriticalNesting) ; |261| 
         00001b 0001 
         00001d 0000 
         00001f 00!  
     266                      .dwpsn  file "../FreeRTOS/Source/queue.c",line 263,column 3,is_stmt
     267 000020 ED08          MOV dbl(*SP(#4)), XAR2
         000022 AF   
TMS320C55x Assembler PC v4.4.1 Tue Sep 18 04:49:51 2018

Tools Copyright (c) 1996-2012 Texas Instruments Incorporated
queue.asm                                                            PAGE    6

     268 000023 A54D          MOV *AR2(#30), T1 ; |263| 
         000025 001E 
     269 000027 D36D          MPYM *AR3(#29), T1, AC0 ; |263| 
         000029 0500 
         00002b 1D   
     270 00002c 2209          MOV AC0, AR1 ; |263| 
     271 00002e ED61          MOV dbl(*AR3), XAR3
         000030 BF   
     272              
     273 000031 8E59          MOV XAR3, dbl(*AR2(short(#4)))
         000033 BB10 
         000035 B590 
     274              ||      AADD AR1, AR3 ; |263| 
     275              
     276                      .dwpsn  file "../FreeRTOS/Source/queue.c",line 264,column 3,is_stmt
     277 000037 ED08          MOV dbl(*SP(#4)), XAR3
         000039 BF   
     278 00003a E66D          MOV #0, *AR3(#28) ; |264| 
         00003c 0000 
         00003e 1C   
     279                      .dwpsn  file "../FreeRTOS/Source/queue.c",line 265,column 3,is_stmt
     280 00003f ED08          MOV dbl(*SP(#4)), XAR3
         000041 BF   
     281 000042 ED61          MOV dbl(*AR3), XAR2
         000044 AF   
     282 000045 EB75          MOV XAR2, dbl(*AR3(short(#2)))
         000047 A5   
     283                      .dwpsn  file "../FreeRTOS/Source/queue.c",line 266,column 3,is_stmt
     284 000048 ED08          MOV dbl(*SP(#4)), XAR2
         00004a AF   
     285 00004b ED08          MOV dbl(*SP(#4)), XAR3
         00004d BF   
     286 00004e A54D          MOV *AR2(#29), T1 ; |266| 
         000050 001D 
     287 000052 4215          SUB #1, T1 ; |266| 
     288 000054 D36D          MPYM *AR3(#30), T1, AC0 ; |266| 
         000056 0500 
         000058 1E   
     289 000059 2209          MOV AC0, AR1 ; |266| 
     290 00005b ED61          MOV dbl(*AR3), XAR3
         00005d BF   
     291              
     292 00005e 8E5D          MOV XAR3, dbl(*AR2(short(#6)))
         000060 BB10 
         000062 B590 
     293              ||      AADD AR1, AR3 ; |266| 
     294              
     295                      .dwpsn  file "../FreeRTOS/Source/queue.c",line 267,column 3,is_stmt
     296 000064 ED08          MOV dbl(*SP(#4)), XAR3
         000066 BF   
     297 000067 E66D          MOV #-1, *AR3(#31) ; |267| 
         000069 FF00 
         00006b 1F   
     298                      .dwpsn  file "../FreeRTOS/Source/queue.c",line 268,column 3,is_stmt
     299 00006c ED08          MOV dbl(*SP(#4)), XAR3
TMS320C55x Assembler PC v4.4.1 Tue Sep 18 04:49:51 2018

Tools Copyright (c) 1996-2012 Texas Instruments Incorporated
queue.asm                                                            PAGE    7

         00006e BF   
     300 00006f E66D          MOV #-1, *AR3(#32) ; |268| 
         000071 FF00 
         000073 20   
     301                      .dwpsn  file "../FreeRTOS/Source/queue.c",line 270,column 3,is_stmt
     302 000074 A904          MOV *SP(#2), AR1 ; |270| 
     303 000076 0419          BCC $C$L5,AR1 != #0 ; |270| 
         000078 25   
     304                                                      ; branchcc occurs ; |270| 
     305                      .dwpsn  file "../FreeRTOS/Source/queue.c",line 277,column 4,is_stmt
     306 000079 ED08          MOV dbl(*SP(#4)), XAR3
         00007b BF   
     307 00007c A96D          MOV *AR3(#8), AR1 ; |277| 
         00007e 0008 
     308 000080 6219          BCC $C$L3,AR1 != #0 ; |277| 
     309                                                      ; branchcc occurs ; |277| 
     310 000082 3C19          MOV #1, AR1
     311 000084 4A02          B $C$L4   ; |277| 
     312                                                      ; branch occurs ; |277| 
     313 000086       $C$L3:    
     314 000086 3C09          MOV #0, AR1
     315 000088       $C$L4:    
     316 000088 0419          BCC $C$L6,AR1 != #0 ; |277| 
         00008a 27   
     317                                                      ; branchcc occurs ; |277| 
     318                      .dwpsn  file "../FreeRTOS/Source/queue.c",line 279,column 5,is_stmt
     319 00008b ED08          MOV dbl(*SP(#4)), XAR0
         00008d 8F   
     320 00008e 1408          AADD #8, AR0 ; |279| 
         000090 84   
     321              $C$DW$42        .dwtag  DW_TAG_TI_branch
     322                      .dwattr $C$DW$42, DW_AT_low_pc(0x00)
     323                      .dwattr $C$DW$42, DW_AT_name("_xTaskRemoveFromEventList")
     324                      .dwattr $C$DW$42, DW_AT_TI_call
     325 000091 6C00          CALL #_xTaskRemoveFromEventList ; |279| 
         000093 0000!
     326                                                      ; call occurs [#_xTaskRemoveFromEventList] ; |279| 
     327 000095 0404          BCC $C$L6,T0 == #0 ; |279| 
         000097 1A   
     328                                                      ; branchcc occurs ; |279| 
     329                      .dwpsn  file "../FreeRTOS/Source/queue.c",line 281,column 6,is_stmt
     330              $C$DW$43        .dwtag  DW_TAG_TI_branch
     331                      .dwattr $C$DW$43, DW_AT_low_pc(0x00)
     332                      .dwattr $C$DW$43, DW_AT_name("_vPortYield")
     333                      .dwattr $C$DW$43, DW_AT_TI_call
     334 000098 6C00          CALL #_vPortYield ; |281| 
         00009a 0000!
     335                                                      ; call occurs [#_vPortYield] ; |281| 
     336                      .dwpsn  file "../FreeRTOS/Source/queue.c",line 282,column 5,is_stmt
     337 00009c 4A14          B $C$L6   ; |282| 
     338                                                      ; branch occurs ; |282| 
     339 00009e       $C$L5:    
     340                      .dwpsn  file "../FreeRTOS/Source/queue.c",line 296,column 4,is_stmt
     341 00009e ED08          MOV dbl(*SP(#4)), XAR0
         0000a0 8F   
TMS320C55x Assembler PC v4.4.1 Tue Sep 18 04:49:51 2018

Tools Copyright (c) 1996-2012 Texas Instruments Incorporated
queue.asm                                                            PAGE    8

     342 0000a1 1408          AADD #8, AR0 ; |296| 
         0000a3 84   
     343              $C$DW$44        .dwtag  DW_TAG_TI_branch
     344                      .dwattr $C$DW$44, DW_AT_low_pc(0x00)
     345                      .dwattr $C$DW$44, DW_AT_name("_vListInitialise")
     346                      .dwattr $C$DW$44, DW_AT_TI_call
     347 0000a4 6C00          CALL #_vListInitialise ; |296| 
         0000a6 0000!
     348                                                      ; call occurs [#_vListInitialise] ; |296| 
     349                      .dwpsn  file "../FreeRTOS/Source/queue.c",line 297,column 4,is_stmt
     350 0000a8 ED08          MOV dbl(*SP(#4)), XAR0
         0000aa 8F   
     351 0000ab 1412          AADD #18, AR0 ; |297| 
         0000ad 84   
     352              $C$DW$45        .dwtag  DW_TAG_TI_branch
     353                      .dwattr $C$DW$45, DW_AT_low_pc(0x00)
     354                      .dwattr $C$DW$45, DW_AT_name("_vListInitialise")
     355                      .dwattr $C$DW$45, DW_AT_TI_call
     356 0000ae 6C00          CALL #_vListInitialise ; |297| 
         0000b0 0000!
     357                                                      ; call occurs [#_vListInitialise] ; |297| 
     358 0000b2       $C$L6:    
     359                      .dwpsn  file "../FreeRTOS/Source/queue.c",line 300,column 2,is_stmt
     360 0000b2 A931          MOV *(#_usCriticalNesting), AR1 ; |300| 
         0000b4 0000 
         0000b6 00!  
     361 0000b7 0409          BCC $C$L7,AR1 == #0 ; |300| 
         0000b9 14   
     362                                                      ; branchcc occurs ; |300| 
     363 0000ba F731          SUB #1, *(#_usCriticalNesting) ; |300| 
         0000bc FFFF 
         0000be 0000 
         0000c0 00!  
     364 0000c1 20            NOP
     365 0000c2 20            NOP
     366 0000c3 20            NOP
     367 0000c4 A931          MOV *(#_usCriticalNesting), AR1 ; |300| 
         0000c6 0000 
         0000c8 00!  
     368 0000c9 6199          BCC $C$L7,AR1 != #0 ; |300| 
     369                                                      ; branchcc occurs ; |300| 
     370 0000cb 20     nop
     371 0000cc 46B2   bclr INTM
     372 0000ce       $C$L7:    
     373                      .dwpsn  file "../FreeRTOS/Source/queue.c",line 304,column 2,is_stmt
     374 0000ce 3C14          MOV #1, T0
     375                      .dwpsn  file "../FreeRTOS/Source/queue.c",line 305,column 1,is_stmt
     376 0000d0 4E07          AADD #7, SP
     377                      .dwcfi  cfa_offset, 1
     378              $C$DW$46        .dwtag  DW_TAG_TI_branch
     379                      .dwattr $C$DW$46, DW_AT_low_pc(0x00)
     380                      .dwattr $C$DW$46, DW_AT_TI_return
     381 0000d2 4804          RET
     382                                                      ; return occurs
     383              
TMS320C55x Assembler PC v4.4.1 Tue Sep 18 04:49:51 2018

Tools Copyright (c) 1996-2012 Texas Instruments Incorporated
queue.asm                                                            PAGE    9

     384              $C$DW$47        .dwtag  DW_TAG_TI_loop
     385                      .dwattr $C$DW$47, DW_AT_name("F:\eZdsp_DBG\eZDSP_5535_Files\ccsws2\test\Debug\queue.asm:$C$L1:1:15372
     386                      .dwattr $C$DW$47, DW_AT_TI_begin_file("../FreeRTOS/Source/queue.c")
     387                      .dwattr $C$DW$47, DW_AT_TI_begin_line(0x103)
     388                      .dwattr $C$DW$47, DW_AT_TI_end_line(0x103)
     389              $C$DW$48        .dwtag  DW_TAG_TI_loop_range
     390                      .dwattr $C$DW$48, DW_AT_low_pc($C$DW$L$_xQueueGenericReset$3$B)
     391                      .dwattr $C$DW$48, DW_AT_high_pc($C$DW$L$_xQueueGenericReset$3$E)
     392                      .dwendtag $C$DW$47
     393              
     394                      .dwattr $C$DW$36, DW_AT_TI_end_file("../FreeRTOS/Source/queue.c")
     395                      .dwattr $C$DW$36, DW_AT_TI_end_line(0x131)
     396                      .dwattr $C$DW$36, DW_AT_TI_end_column(0x01)
     397                      .dwendentry
     398                      .dwendtag $C$DW$36
     399              
     400 0000d4               .sect   ".text"
     401                      .align 4
     402                      .global _xQueueGenericCreate
     403              
     404              $C$DW$49        .dwtag  DW_TAG_subprogram, DW_AT_name("xQueueGenericCreate")
     405                      .dwattr $C$DW$49, DW_AT_low_pc(_xQueueGenericCreate)
     406                      .dwattr $C$DW$49, DW_AT_high_pc(0x00)
     407                      .dwattr $C$DW$49, DW_AT_TI_symbol_name("_xQueueGenericCreate")
     408                      .dwattr $C$DW$49, DW_AT_external
     409                      .dwattr $C$DW$49, DW_AT_type(*$C$DW$T$27)
     410                      .dwattr $C$DW$49, DW_AT_TI_begin_file("../FreeRTOS/Source/queue.c")
     411                      .dwattr $C$DW$49, DW_AT_TI_begin_line(0x170)
     412                      .dwattr $C$DW$49, DW_AT_TI_begin_column(0x10)
     413                      .dwattr $C$DW$49, DW_AT_TI_max_frame_size(0x0c)
     414                      .dwpsn  file "../FreeRTOS/Source/queue.c",line 369,column 2,is_stmt,address _xQueueGenericCreate
     415              
     416                      .dwfde $C$DW$CIE, _xQueueGenericCreate
     417              $C$DW$50        .dwtag  DW_TAG_formal_parameter, DW_AT_name("uxQueueLength")
     418                      .dwattr $C$DW$50, DW_AT_TI_symbol_name("_uxQueueLength")
     419                      .dwattr $C$DW$50, DW_AT_type(*$C$DW$T$56)
     420                      .dwattr $C$DW$50, DW_AT_location[DW_OP_reg12]
     421              $C$DW$51        .dwtag  DW_TAG_formal_parameter, DW_AT_name("uxItemSize")
     422                      .dwattr $C$DW$51, DW_AT_TI_symbol_name("_uxItemSize")
     423                      .dwattr $C$DW$51, DW_AT_type(*$C$DW$T$56)
     424                      .dwattr $C$DW$51, DW_AT_location[DW_OP_reg13]
     425              $C$DW$52        .dwtag  DW_TAG_formal_parameter, DW_AT_name("ucQueueType")
     426                      .dwattr $C$DW$52, DW_AT_TI_symbol_name("_ucQueueType")
     427                      .dwattr $C$DW$52, DW_AT_type(*$C$DW$T$58)
     428                      .dwattr $C$DW$52, DW_AT_location[DW_OP_reg16]
     429              ;*******************************************************************************
     430              ;* FUNCTION NAME: xQueueGenericCreate                                          *
     431              ;*                                                                             *
     432              ;*   Function Uses Regs : AC0,AC0,T0,T1,AR0,XAR0,AR1,AR2,XAR2,AR3,XAR3,SP,     *
     433              ;*                        CARRY,M40,SATA,SATD,RDM,FRCT,SMUL                    *
     434              ;*   Stack Frame        : Compact (No Frame Pointer, w/ debug)                 *
     435              ;*   Total Frame Size   : 12 words                                             *
     436              ;*                        (2 return address/alignment)                         *
     437              ;*                        (10 local values)                                    *
     438              ;*   Min System Stack   : 1 word                                               *
TMS320C55x Assembler PC v4.4.1 Tue Sep 18 04:49:51 2018

Tools Copyright (c) 1996-2012 Texas Instruments Incorporated
queue.asm                                                            PAGE   10

     439              ;*******************************************************************************
     440 0000d4       _xQueueGenericCreate:
     441                      .dwcfi  cfa_offset, 1
     442                      .dwcfi  save_reg_to_mem, 91, -1
     443 0000d4 4EF5          AADD #-11, SP
     444                      .dwcfi  cfa_offset, 12
     445              $C$DW$53        .dwtag  DW_TAG_variable, DW_AT_name("uxQueueLength")
     446                      .dwattr $C$DW$53, DW_AT_TI_symbol_name("_uxQueueLength")
     447                      .dwattr $C$DW$53, DW_AT_type(*$C$DW$T$56)
     448                      .dwattr $C$DW$53, DW_AT_location[DW_OP_bregx 0x24 0]
     449              $C$DW$54        .dwtag  DW_TAG_variable, DW_AT_name("uxItemSize")
     450                      .dwattr $C$DW$54, DW_AT_TI_symbol_name("_uxItemSize")
     451                      .dwattr $C$DW$54, DW_AT_type(*$C$DW$T$56)
     452                      .dwattr $C$DW$54, DW_AT_location[DW_OP_bregx 0x24 1]
     453              $C$DW$55        .dwtag  DW_TAG_variable, DW_AT_name("ucQueueType")
     454                      .dwattr $C$DW$55, DW_AT_TI_symbol_name("_ucQueueType")
     455                      .dwattr $C$DW$55, DW_AT_type(*$C$DW$T$58)
     456                      .dwattr $C$DW$55, DW_AT_location[DW_OP_bregx 0x24 2]
     457              $C$DW$56        .dwtag  DW_TAG_variable, DW_AT_name("pxNewQueue")
     458                      .dwattr $C$DW$56, DW_AT_TI_symbol_name("_pxNewQueue")
     459                      .dwattr $C$DW$56, DW_AT_type(*$C$DW$T$68)
     460                      .dwattr $C$DW$56, DW_AT_location[DW_OP_bregx 0x24 4]
     461              $C$DW$57        .dwtag  DW_TAG_variable, DW_AT_name("xQueueSizeInBytes")
     462                      .dwattr $C$DW$57, DW_AT_TI_symbol_name("_xQueueSizeInBytes")
     463                      .dwattr $C$DW$57, DW_AT_type(*$C$DW$T$72)
     464                      .dwattr $C$DW$57, DW_AT_location[DW_OP_bregx 0x24 6]
     465              $C$DW$58        .dwtag  DW_TAG_variable, DW_AT_name("pucQueueStorage")
     466                      .dwattr $C$DW$58, DW_AT_TI_symbol_name("_pucQueueStorage")
     467                      .dwattr $C$DW$58, DW_AT_type(*$C$DW$T$97)
     468                      .dwattr $C$DW$58, DW_AT_location[DW_OP_bregx 0x24 8]
     469 0000d6 C804          MOV AR0, *SP(#2) ; |369| 
     470 0000d8 C502          MOV T1, *SP(#1) ; |369| 
     471 0000da C400          MOV T0, *SP(#0) ; |369| 
     472                      .dwpsn  file "../FreeRTOS/Source/queue.c",line 374,column 3,is_stmt
     473 0000dc 224A          MOV T0, AR2
     474              
     475 0000de 610A          BCC $C$L8,AR2 == #0 ; |374| 
     476 0000e0 3D09  ||      MOV #0, AR1
     477              
     478                                                      ; branchcc occurs ; |374| 
     479 0000e2 3C19          MOV #1, AR1
     480 0000e4       $C$L8:    
     481 0000e4 6299          BCC $C$L10,AR1 != #0 ; |374| 
     482                                                      ; branchcc occurs ; |374| 
     483 0000e6 20     nop
     484 0000e7 46B3   bset INTM
     485 0000e9       $C$L9:    
     486 0000e9       $C$DW$L$_xQueueGenericCreate$5$B:
     487 0000e9 4A7E          B $C$L9   ; |374| 
     488                                                      ; branch occurs ; |374| 
     489 0000eb       $C$DW$L$_xQueueGenericCreate$5$E:
     490 0000eb       $C$L10:    
     491                      .dwpsn  file "../FreeRTOS/Source/queue.c",line 376,column 3,is_stmt
     492 0000eb A902          MOV *SP(#1), AR1 ; |376| 
     493 0000ed 6299          BCC $C$L11,AR1 != #0 ; |376| 
TMS320C55x Assembler PC v4.4.1 Tue Sep 18 04:49:51 2018

Tools Copyright (c) 1996-2012 Texas Instruments Incorporated
queue.asm                                                            PAGE   11

     494                                                      ; branchcc occurs ; |376| 
     495                      .dwpsn  file "../FreeRTOS/Source/queue.c",line 379,column 4,is_stmt
     496 0000ef E60C          MOV #0, *SP(#6) ; |379| 
         0000f1 00   
     497                      .dwpsn  file "../FreeRTOS/Source/queue.c",line 380,column 3,is_stmt
     498 0000f2 4A07          B $C$L12  ; |380| 
     499                                                      ; branch occurs ; |380| 
     500 0000f4       $C$L11:    
     501                      .dwpsn  file "../FreeRTOS/Source/queue.c",line 385,column 4,is_stmt
     502 0000f4 2295          MOV AR1, T1
     503 0000f6 D300          MPYM *SP(#0), T1, AC0 ; |385| 
         0000f8 05   
     504 0000f9 C00C          MOV AC0, *SP(#6) ; |385| 
     505 0000fb       $C$L12:    
     506                      .dwpsn  file "../FreeRTOS/Source/queue.c",line 397,column 3,is_stmt
     507 0000fb A90C          MOV *SP(#6), AR1 ; |397| 
     508 0000fd 7B00          ADD #34, AR1, T0 ; |397| 
         0000ff 2249 
     509              $C$DW$59        .dwtag  DW_TAG_TI_branch
     510                      .dwattr $C$DW$59, DW_AT_low_pc(0x00)
     511                      .dwattr $C$DW$59, DW_AT_name("_pvPortMalloc")
     512                      .dwattr $C$DW$59, DW_AT_TI_call
     513 000101 6C00          CALL #_pvPortMalloc ; |397| 
         000103 0000!
     514                                                      ; call occurs [#_pvPortMalloc] ; |397| 
     515 000105 EB08          MOV XAR0, dbl(*SP(#4))
         000107 85   
     516                      .dwpsn  file "../FreeRTOS/Source/queue.c",line 399,column 3,is_stmt
     517 000108 ED08          MOV dbl(*SP(#4)), XAR3
         00010a BF   
     518 00010b 90B0          MOV XAR3, AC0
     519 00010d 0400          BCC $C$L13,AC0 == #0 ; |399| 
         00010f 18   
     520                                                      ; branchcc occurs ; |399| 
     521                      .dwpsn  file "../FreeRTOS/Source/queue.c",line 403,column 4,is_stmt
     522 000110 EB10          MOV XAR3, dbl(*SP(#8))
         000112 B5   
     523                      .dwpsn  file "../FreeRTOS/Source/queue.c",line 404,column 4,is_stmt
     524              
     525 000113 8E10          MOV XAR3, dbl(*SP(#8))
         000115 BB14 
         000117 B522 
     526              ||      AADD #34, AR3 ; |404| 
     527              
     528                      .dwpsn  file "../FreeRTOS/Source/queue.c",line 415,column 4,is_stmt
     529 000119 A400          MOV *SP(#0), T0 ; |415| 
     530 00011b A502          MOV *SP(#1), T1 ; |415| 
     531 00011d ED10          MOV dbl(*SP(#8)), XAR0
         00011f 8F   
     532 000120 A904          MOV *SP(#2), AR1 ; |415| 
     533 000122 ED08          MOV dbl(*SP(#4)), XAR2
         000124 AF   
     534              $C$DW$60        .dwtag  DW_TAG_TI_branch
     535                      .dwattr $C$DW$60, DW_AT_low_pc(0x00)
     536                      .dwattr $C$DW$60, DW_AT_name("_prvInitialiseNewQueue")
TMS320C55x Assembler PC v4.4.1 Tue Sep 18 04:49:51 2018

Tools Copyright (c) 1996-2012 Texas Instruments Incorporated
queue.asm                                                            PAGE   12

     537                      .dwattr $C$DW$60, DW_AT_TI_call
     538 000125 0800          CALL #_prvInitialiseNewQueue ; |415| 
         000127 08   
     539                                                      ; call occurs [#_prvInitialiseNewQueue] ; |415| 
     540                      .dwpsn  file "../FreeRTOS/Source/queue.c",line 416,column 3,is_stmt
     541 000128       $C$L13:    
     542                      .dwpsn  file "../FreeRTOS/Source/queue.c",line 423,column 3,is_stmt
     543 000128 ED08          MOV dbl(*SP(#4)), XAR0
         00012a 8F   
     544                      .dwpsn  file "../FreeRTOS/Source/queue.c",line 424,column 2,is_stmt
     545 00012b 4E0B          AADD #11, SP
     546                      .dwcfi  cfa_offset, 1
     547              $C$DW$61        .dwtag  DW_TAG_TI_branch
     548                      .dwattr $C$DW$61, DW_AT_low_pc(0x00)
     549                      .dwattr $C$DW$61, DW_AT_TI_return
     550 00012d 4804          RET
     551                                                      ; return occurs
     552              
     553              $C$DW$62        .dwtag  DW_TAG_TI_loop
     554                      .dwattr $C$DW$62, DW_AT_name("F:\eZdsp_DBG\eZDSP_5535_Files\ccsws2\test\Debug\queue.asm:$C$L9:1:15372
     555                      .dwattr $C$DW$62, DW_AT_TI_begin_file("../FreeRTOS/Source/queue.c")
     556                      .dwattr $C$DW$62, DW_AT_TI_begin_line(0x176)
     557                      .dwattr $C$DW$62, DW_AT_TI_end_line(0x176)
     558              $C$DW$63        .dwtag  DW_TAG_TI_loop_range
     559                      .dwattr $C$DW$63, DW_AT_low_pc($C$DW$L$_xQueueGenericCreate$5$B)
     560                      .dwattr $C$DW$63, DW_AT_high_pc($C$DW$L$_xQueueGenericCreate$5$E)
     561                      .dwendtag $C$DW$62
     562              
     563                      .dwattr $C$DW$49, DW_AT_TI_end_file("../FreeRTOS/Source/queue.c")
     564                      .dwattr $C$DW$49, DW_AT_TI_end_line(0x1a8)
     565                      .dwattr $C$DW$49, DW_AT_TI_end_column(0x02)
     566                      .dwendentry
     567                      .dwendtag $C$DW$49
     568              
     569 00012f               .sect   ".text"
     570                      .align 4
     571              
     572              $C$DW$64        .dwtag  DW_TAG_subprogram, DW_AT_name("prvInitialiseNewQueue")
     573                      .dwattr $C$DW$64, DW_AT_low_pc(_prvInitialiseNewQueue)
     574                      .dwattr $C$DW$64, DW_AT_high_pc(0x00)
     575                      .dwattr $C$DW$64, DW_AT_TI_symbol_name("_prvInitialiseNewQueue")
     576                      .dwattr $C$DW$64, DW_AT_TI_begin_file("../FreeRTOS/Source/queue.c")
     577                      .dwattr $C$DW$64, DW_AT_TI_begin_line(0x1ad)
     578                      .dwattr $C$DW$64, DW_AT_TI_begin_column(0x0d)
     579                      .dwattr $C$DW$64, DW_AT_TI_max_frame_size(0x0a)
     580                      .dwpsn  file "../FreeRTOS/Source/queue.c",line 430,column 1,is_stmt,address _prvInitialiseNewQueue
     581              
     582                      .dwfde $C$DW$CIE, _prvInitialiseNewQueue
     583              $C$DW$65        .dwtag  DW_TAG_formal_parameter, DW_AT_name("uxQueueLength")
     584                      .dwattr $C$DW$65, DW_AT_TI_symbol_name("_uxQueueLength")
     585                      .dwattr $C$DW$65, DW_AT_type(*$C$DW$T$56)
     586                      .dwattr $C$DW$65, DW_AT_location[DW_OP_reg12]
     587              $C$DW$66        .dwtag  DW_TAG_formal_parameter, DW_AT_name("uxItemSize")
     588                      .dwattr $C$DW$66, DW_AT_TI_symbol_name("_uxItemSize")
     589                      .dwattr $C$DW$66, DW_AT_type(*$C$DW$T$56)
TMS320C55x Assembler PC v4.4.1 Tue Sep 18 04:49:51 2018

Tools Copyright (c) 1996-2012 Texas Instruments Incorporated
queue.asm                                                            PAGE   13

     590                      .dwattr $C$DW$66, DW_AT_location[DW_OP_reg13]
     591              $C$DW$67        .dwtag  DW_TAG_formal_parameter, DW_AT_name("pucQueueStorage")
     592                      .dwattr $C$DW$67, DW_AT_TI_symbol_name("_pucQueueStorage")
     593                      .dwattr $C$DW$67, DW_AT_type(*$C$DW$T$97)
     594                      .dwattr $C$DW$67, DW_AT_location[DW_OP_reg17]
     595              $C$DW$68        .dwtag  DW_TAG_formal_parameter, DW_AT_name("ucQueueType")
     596                      .dwattr $C$DW$68, DW_AT_TI_symbol_name("_ucQueueType")
     597                      .dwattr $C$DW$68, DW_AT_type(*$C$DW$T$58)
     598                      .dwattr $C$DW$68, DW_AT_location[DW_OP_reg18]
     599              $C$DW$69        .dwtag  DW_TAG_formal_parameter, DW_AT_name("pxNewQueue")
     600                      .dwattr $C$DW$69, DW_AT_TI_symbol_name("_pxNewQueue")
     601                      .dwattr $C$DW$69, DW_AT_type(*$C$DW$T$68)
     602                      .dwattr $C$DW$69, DW_AT_location[DW_OP_reg21]
     603              ;*******************************************************************************
     604              ;* FUNCTION NAME: prvInitialiseNewQueue                                        *
     605              ;*                                                                             *
     606              ;*   Function Uses Regs : T0,T1,AR0,XAR0,AR1,AR2,XAR2,AR3,XAR3,SP,M40,SATA,    *
     607              ;*                        SATD,RDM,FRCT,SMUL                                   *
     608              ;*   Stack Frame        : Compact (No Frame Pointer, w/ debug)                 *
     609              ;*   Total Frame Size   : 10 words                                             *
     610              ;*                        (2 return address/alignment)                         *
     611              ;*                        (8 local values)                                     *
     612              ;*   Min System Stack   : 1 word                                               *
     613              ;*******************************************************************************
     614 000130       _prvInitialiseNewQueue:
     615                      .dwcfi  cfa_offset, 1
     616                      .dwcfi  save_reg_to_mem, 91, -1
     617 000130 4EF7          AADD #-9, SP
     618                      .dwcfi  cfa_offset, 10
     619              $C$DW$70        .dwtag  DW_TAG_variable, DW_AT_name("uxQueueLength")
     620                      .dwattr $C$DW$70, DW_AT_TI_symbol_name("_uxQueueLength")
     621                      .dwattr $C$DW$70, DW_AT_type(*$C$DW$T$56)
     622                      .dwattr $C$DW$70, DW_AT_location[DW_OP_bregx 0x24 0]
     623              $C$DW$71        .dwtag  DW_TAG_variable, DW_AT_name("uxItemSize")
     624                      .dwattr $C$DW$71, DW_AT_TI_symbol_name("_uxItemSize")
     625                      .dwattr $C$DW$71, DW_AT_type(*$C$DW$T$56)
     626                      .dwattr $C$DW$71, DW_AT_location[DW_OP_bregx 0x24 1]
     627              $C$DW$72        .dwtag  DW_TAG_variable, DW_AT_name("pucQueueStorage")
     628                      .dwattr $C$DW$72, DW_AT_TI_symbol_name("_pucQueueStorage")
     629                      .dwattr $C$DW$72, DW_AT_type(*$C$DW$T$97)
     630                      .dwattr $C$DW$72, DW_AT_location[DW_OP_bregx 0x24 2]
     631              $C$DW$73        .dwtag  DW_TAG_variable, DW_AT_name("ucQueueType")
     632                      .dwattr $C$DW$73, DW_AT_TI_symbol_name("_ucQueueType")
     633                      .dwattr $C$DW$73, DW_AT_type(*$C$DW$T$58)
     634                      .dwattr $C$DW$73, DW_AT_location[DW_OP_bregx 0x24 4]
     635              $C$DW$74        .dwtag  DW_TAG_variable, DW_AT_name("pxNewQueue")
     636                      .dwattr $C$DW$74, DW_AT_TI_symbol_name("_pxNewQueue")
     637                      .dwattr $C$DW$74, DW_AT_type(*$C$DW$T$68)
     638                      .dwattr $C$DW$74, DW_AT_location[DW_OP_bregx 0x24 6]
     639 000132 EB0C          MOV XAR2, dbl(*SP(#6))
         000134 A5   
     640 000135 C908          MOV AR1, *SP(#4) ; |430| 
     641 000137 EB04          MOV XAR0, dbl(*SP(#2))
         000139 85   
     642 00013a C502          MOV T1, *SP(#1) ; |430| 
TMS320C55x Assembler PC v4.4.1 Tue Sep 18 04:49:51 2018

Tools Copyright (c) 1996-2012 Texas Instruments Incorporated
queue.asm                                                            PAGE   14

     643 00013c C400          MOV T0, *SP(#0) ; |430| 
     644                      .dwpsn  file "../FreeRTOS/Source/queue.c",line 433,column 2,is_stmt
     645                      .dwpsn  file "../FreeRTOS/Source/queue.c",line 435,column 2,is_stmt
     646 00013e A902          MOV *SP(#1), AR1 ; |435| 
     647 000140 6599          BCC $C$L14,AR1 != #0 ; |435| 
     648                                                      ; branchcc occurs ; |435| 
     649                      .dwpsn  file "../FreeRTOS/Source/queue.c",line 441,column 3,is_stmt
     650 000142 ED0C          MOV dbl(*SP(#6)), XAR2
         000144 AF   
     651 000145 ED0C          MOV dbl(*SP(#6)), XAR3
         000147 BF   
     652 000148 EB41          MOV XAR3, dbl(*AR2)
         00014a B5   
     653                      .dwpsn  file "../FreeRTOS/Source/queue.c",line 442,column 2,is_stmt
     654 00014b 4A09          B $C$L15  ; |442| 
     655                                                      ; branch occurs ; |442| 
     656 00014d       $C$L14:    
     657                      .dwpsn  file "../FreeRTOS/Source/queue.c",line 446,column 3,is_stmt
     658 00014d ED0C          MOV dbl(*SP(#6)), XAR2
         00014f AF   
     659 000150 ED04          MOV dbl(*SP(#2)), XAR3
         000152 BF   
     660 000153 EB41          MOV XAR3, dbl(*AR2)
         000155 B5   
     661 000156       $C$L15:    
     662                      .dwpsn  file "../FreeRTOS/Source/queue.c",line 451,column 2,is_stmt
     663 000156 ED0C          MOV dbl(*SP(#6)), XAR3
         000158 BF   
     664 000159 A900          MOV *SP(#0), AR1 ; |451| 
     665 00015b C96D          MOV AR1, *AR3(#29) ; |451| 
         00015d 001D 
     666                      .dwpsn  file "../FreeRTOS/Source/queue.c",line 452,column 2,is_stmt
     667 00015f ED0C          MOV dbl(*SP(#6)), XAR3
         000161 BF   
     668 000162 A902          MOV *SP(#1), AR1 ; |452| 
     669 000164 C96D          MOV AR1, *AR3(#30) ; |452| 
         000166 001E 
     670                      .dwpsn  file "../FreeRTOS/Source/queue.c",line 453,column 2,is_stmt
     671 000168 3C14          MOV #1, T0
     672 00016a ED0C          MOV dbl(*SP(#6)), XAR0
         00016c 8F   
     673              $C$DW$75        .dwtag  DW_TAG_TI_branch
     674                      .dwattr $C$DW$75, DW_AT_low_pc(0x00)
     675                      .dwattr $C$DW$75, DW_AT_name("_xQueueGenericReset")
     676                      .dwattr $C$DW$75, DW_AT_TI_call
     677 00016d 08FE          CALL #_xQueueGenericReset ; |453| 
         00016f 90   
     678                                                      ; call occurs [#_xQueueGenericReset] ; |453| 
     679                      .dwpsn  file "../FreeRTOS/Source/queue.c",line 468,column 1,is_stmt
     680 000170 4E09          AADD #9, SP
     681                      .dwcfi  cfa_offset, 1
     682              $C$DW$76        .dwtag  DW_TAG_TI_branch
     683                      .dwattr $C$DW$76, DW_AT_low_pc(0x00)
     684                      .dwattr $C$DW$76, DW_AT_TI_return
     685 000172 4804          RET
TMS320C55x Assembler PC v4.4.1 Tue Sep 18 04:49:51 2018

Tools Copyright (c) 1996-2012 Texas Instruments Incorporated
queue.asm                                                            PAGE   15

     686                                                      ; return occurs
     687                      .dwattr $C$DW$64, DW_AT_TI_end_file("../FreeRTOS/Source/queue.c")
     688                      .dwattr $C$DW$64, DW_AT_TI_end_line(0x1d4)
     689                      .dwattr $C$DW$64, DW_AT_TI_end_column(0x01)
     690                      .dwendentry
     691                      .dwendtag $C$DW$64
     692              
     693 000174               .sect   ".text"
     694                      .align 4
     695              
     696              $C$DW$77        .dwtag  DW_TAG_subprogram, DW_AT_name("prvInitialiseMutex")
     697                      .dwattr $C$DW$77, DW_AT_low_pc(_prvInitialiseMutex)
     698                      .dwattr $C$DW$77, DW_AT_high_pc(0x00)
     699                      .dwattr $C$DW$77, DW_AT_TI_symbol_name("_prvInitialiseMutex")
     700                      .dwattr $C$DW$77, DW_AT_TI_begin_file("../FreeRTOS/Source/queue.c")
     701                      .dwattr $C$DW$77, DW_AT_TI_begin_line(0x1d9)
     702                      .dwattr $C$DW$77, DW_AT_TI_begin_column(0x0e)
     703                      .dwattr $C$DW$77, DW_AT_TI_max_frame_size(0x04)
     704                      .dwpsn  file "../FreeRTOS/Source/queue.c",line 474,column 2,is_stmt,address _prvInitialiseMutex
     705              
     706                      .dwfde $C$DW$CIE, _prvInitialiseMutex
     707              $C$DW$78        .dwtag  DW_TAG_formal_parameter, DW_AT_name("pxNewQueue")
     708                      .dwattr $C$DW$78, DW_AT_TI_symbol_name("_pxNewQueue")
     709                      .dwattr $C$DW$78, DW_AT_type(*$C$DW$T$68)
     710                      .dwattr $C$DW$78, DW_AT_location[DW_OP_reg17]
     711              ;*******************************************************************************
     712              ;* FUNCTION NAME: prvInitialiseMutex                                           *
     713              ;*                                                                             *
     714              ;*   Function Uses Regs : AC0,AC0,T0,AR0,XAR0,AR1,XAR1,AR3,XAR3,SP,M40,SATA,   *
     715              ;*                        SATD,RDM,FRCT,SMUL                                   *
     716              ;*   Stack Frame        : Compact (No Frame Pointer, w/ debug)                 *
     717              ;*   Total Frame Size   : 4 words                                              *
     718              ;*                        (2 return address/alignment)                         *
     719              ;*                        (2 local values)                                     *
     720              ;*   Min System Stack   : 1 word                                               *
     721              ;*******************************************************************************
     722 000174       _prvInitialiseMutex:
     723                      .dwcfi  cfa_offset, 1
     724                      .dwcfi  save_reg_to_mem, 91, -1
     725 000174 4EFD          AADD #-3, SP
     726                      .dwcfi  cfa_offset, 4
     727              $C$DW$79        .dwtag  DW_TAG_variable, DW_AT_name("pxNewQueue")
     728                      .dwattr $C$DW$79, DW_AT_TI_symbol_name("_pxNewQueue")
     729                      .dwattr $C$DW$79, DW_AT_type(*$C$DW$T$68)
     730                      .dwattr $C$DW$79, DW_AT_location[DW_OP_bregx 0x24 0]
     731 000176 EB00          MOV XAR0, dbl(*SP(#0))
         000178 85   
     732                      .dwpsn  file "../FreeRTOS/Source/queue.c",line 475,column 3,is_stmt
     733 000179 ED00          MOV dbl(*SP(#0)), XAR3
         00017b BF   
     734 00017c 90B0          MOV XAR3, AC0
     735 00017e 0400          BCC $C$L16,AC0 == #0 ; |475| 
         000180 21   
     736                                                      ; branchcc occurs ; |475| 
     737                      .dwpsn  file "../FreeRTOS/Source/queue.c",line 481,column 4,is_stmt
TMS320C55x Assembler PC v4.4.1 Tue Sep 18 04:49:51 2018

Tools Copyright (c) 1996-2012 Texas Instruments Incorporated
queue.asm                                                            PAGE   16

     738 000181 3C00          MOV #0, AC0 ; |481| 
     739 000183 EB79          MOV AC0, dbl(*AR3(short(#4)))
         000185 08   
     740                      .dwpsn  file "../FreeRTOS/Source/queue.c",line 482,column 4,is_stmt
     741 000186 ED00          MOV dbl(*SP(#0)), XAR3
         000188 BF   
     742 000189 EB61          MOV AC0, dbl(*AR3)
         00018b 08   
     743                      .dwpsn  file "../FreeRTOS/Source/queue.c",line 485,column 4,is_stmt
     744 00018c ED00          MOV dbl(*SP(#0)), XAR3
         00018e BF   
     745 00018f E67D          MOV #0, *AR3(short(#6)) ; |485| 
         000191 00   
     746                      .dwpsn  file "../FreeRTOS/Source/queue.c",line 490,column 4,is_stmt
     747 000192 EC31          AMOV #0, XAR1 ; |490| 
         000194 9E00 
         000196 0000 
     748 000198 ED00          MOV dbl(*SP(#0)), XAR0
         00019a 8F   
     749              $C$DW$80        .dwtag  DW_TAG_TI_branch
     750                      .dwattr $C$DW$80, DW_AT_low_pc(0x00)
     751                      .dwattr $C$DW$80, DW_AT_name("_xQueueGenericSend")
     752                      .dwattr $C$DW$80, DW_AT_TI_call
     753              
     754 00019b 0801          CALL #_xQueueGenericSend ; |490| 
         00019d 1C   
     755 00019e 3D04  ||      MOV #0, T0
     756              
     757                                                      ; call occurs [#_xQueueGenericSend] ; |490| 
     758                      .dwpsn  file "../FreeRTOS/Source/queue.c",line 491,column 3,is_stmt
     759 0001a0 4A00          B $C$L16  ; |491| 
     760                                                      ; branch occurs ; |491| 
     761 0001a2       $C$L16:    
     762 0001a2 4E03          AADD #3, SP
     763                      .dwcfi  cfa_offset, 1
     764              $C$DW$81        .dwtag  DW_TAG_TI_branch
     765                      .dwattr $C$DW$81, DW_AT_low_pc(0x00)
     766                      .dwattr $C$DW$81, DW_AT_TI_return
     767 0001a4 4804          RET
     768                                                      ; return occurs
     769                      .dwattr $C$DW$77, DW_AT_TI_end_file("../FreeRTOS/Source/queue.c")
     770                      .dwattr $C$DW$77, DW_AT_TI_end_line(0x1f0)
     771                      .dwattr $C$DW$77, DW_AT_TI_end_column(0x02)
     772                      .dwendentry
     773                      .dwendtag $C$DW$77
     774              
     775 0001a6               .sect   ".text"
     776                      .align 4
     777                      .global _xQueueCreateMutex
     778              
     779              $C$DW$82        .dwtag  DW_TAG_subprogram, DW_AT_name("xQueueCreateMutex")
     780                      .dwattr $C$DW$82, DW_AT_low_pc(_xQueueCreateMutex)
     781                      .dwattr $C$DW$82, DW_AT_high_pc(0x00)
     782                      .dwattr $C$DW$82, DW_AT_TI_symbol_name("_xQueueCreateMutex")
     783                      .dwattr $C$DW$82, DW_AT_external
TMS320C55x Assembler PC v4.4.1 Tue Sep 18 04:49:51 2018

Tools Copyright (c) 1996-2012 Texas Instruments Incorporated
queue.asm                                                            PAGE   17

     784                      .dwattr $C$DW$82, DW_AT_type(*$C$DW$T$27)
     785                      .dwattr $C$DW$82, DW_AT_TI_begin_file("../FreeRTOS/Source/queue.c")
     786                      .dwattr $C$DW$82, DW_AT_TI_begin_line(0x1f7)
     787                      .dwattr $C$DW$82, DW_AT_TI_begin_column(0x10)
     788                      .dwattr $C$DW$82, DW_AT_TI_max_frame_size(0x08)
     789                      .dwpsn  file "../FreeRTOS/Source/queue.c",line 504,column 2,is_stmt,address _xQueueCreateMutex
     790              
     791                      .dwfde $C$DW$CIE, _xQueueCreateMutex
     792              $C$DW$83        .dwtag  DW_TAG_formal_parameter, DW_AT_name("ucQueueType")
     793                      .dwattr $C$DW$83, DW_AT_TI_symbol_name("_ucQueueType")
     794                      .dwattr $C$DW$83, DW_AT_type(*$C$DW$T$58)
     795                      .dwattr $C$DW$83, DW_AT_location[DW_OP_reg12]
     796              ;*******************************************************************************
     797              ;* FUNCTION NAME: xQueueCreateMutex                                            *
     798              ;*                                                                             *
     799              ;*   Function Uses Regs : T0,T1,AR0,XAR0,SP,M40,SATA,SATD,RDM,FRCT,SMUL        *
     800              ;*   Stack Frame        : Compact (No Frame Pointer, w/ debug)                 *
     801              ;*   Total Frame Size   : 8 words                                              *
     802              ;*                        (2 return address/alignment)                         *
     803              ;*                        (6 local values)                                     *
     804              ;*   Min System Stack   : 1 word                                               *
     805              ;*******************************************************************************
     806 0001a8       _xQueueCreateMutex:
     807                      .dwcfi  cfa_offset, 1
     808                      .dwcfi  save_reg_to_mem, 91, -1
     809 0001a8 4EF9          AADD #-7, SP
     810                      .dwcfi  cfa_offset, 8
     811              $C$DW$84        .dwtag  DW_TAG_variable, DW_AT_name("ucQueueType")
     812                      .dwattr $C$DW$84, DW_AT_TI_symbol_name("_ucQueueType")
     813                      .dwattr $C$DW$84, DW_AT_type(*$C$DW$T$58)
     814                      .dwattr $C$DW$84, DW_AT_location[DW_OP_bregx 0x24 0]
     815              $C$DW$85        .dwtag  DW_TAG_variable, DW_AT_name("xNewQueue")
     816                      .dwattr $C$DW$85, DW_AT_TI_symbol_name("_xNewQueue")
     817                      .dwattr $C$DW$85, DW_AT_type(*$C$DW$T$27)
     818                      .dwattr $C$DW$85, DW_AT_location[DW_OP_bregx 0x24 2]
     819              $C$DW$86        .dwtag  DW_TAG_variable, DW_AT_name("uxMutexLength")
     820                      .dwattr $C$DW$86, DW_AT_TI_symbol_name("_uxMutexLength")
     821                      .dwattr $C$DW$86, DW_AT_type(*$C$DW$T$56)
     822                      .dwattr $C$DW$86, DW_AT_location[DW_OP_bregx 0x24 4]
     823              $C$DW$87        .dwtag  DW_TAG_variable, DW_AT_name("uxMutexSize")
     824                      .dwattr $C$DW$87, DW_AT_TI_symbol_name("_uxMutexSize")
     825                      .dwattr $C$DW$87, DW_AT_type(*$C$DW$T$56)
     826                      .dwattr $C$DW$87, DW_AT_location[DW_OP_bregx 0x24 5]
     827 0001aa C400          MOV T0, *SP(#0) ; |504| 
     828                      .dwpsn  file "../FreeRTOS/Source/queue.c",line 506,column 20,is_stmt
     829 0001ac E608          MOV #1, *SP(#4) ; |506| 
         0001ae 01   
     830                      .dwpsn  file "../FreeRTOS/Source/queue.c",line 506,column 55,is_stmt
     831 0001af E60A          MOV #0, *SP(#5) ; |506| 
         0001b1 00   
     832                      .dwpsn  file "../FreeRTOS/Source/queue.c",line 508,column 3,is_stmt
     833 0001b2 A50A          MOV *SP(#5), T1 ; |508| 
     834 0001b4 A800          MOV *SP(#0), AR0 ; |508| 
     835 0001b6 A408          MOV *SP(#4), T0 ; |508| 
     836              $C$DW$88        .dwtag  DW_TAG_TI_branch
TMS320C55x Assembler PC v4.4.1 Tue Sep 18 04:49:51 2018

Tools Copyright (c) 1996-2012 Texas Instruments Incorporated
queue.asm                                                            PAGE   18

     837                      .dwattr $C$DW$88, DW_AT_low_pc(0x00)
     838                      .dwattr $C$DW$88, DW_AT_name("_xQueueGenericCreate")
     839                      .dwattr $C$DW$88, DW_AT_TI_call
     840 0001b8 08FF          CALL #_xQueueGenericCreate ; |508| 
         0001ba 19   
     841                                                      ; call occurs [#_xQueueGenericCreate] ; |508| 
     842 0001bb EB04          MOV XAR0, dbl(*SP(#2))
         0001bd 85   
     843                      .dwpsn  file "../FreeRTOS/Source/queue.c",line 509,column 3,is_stmt
     844              $C$DW$89        .dwtag  DW_TAG_TI_branch
     845                      .dwattr $C$DW$89, DW_AT_low_pc(0x00)
     846                      .dwattr $C$DW$89, DW_AT_name("_prvInitialiseMutex")
     847                      .dwattr $C$DW$89, DW_AT_TI_call
     848 0001be 08FF          CALL #_prvInitialiseMutex ; |509| 
         0001c0 B3   
     849                                                      ; call occurs [#_prvInitialiseMutex] ; |509| 
     850                      .dwpsn  file "../FreeRTOS/Source/queue.c",line 511,column 3,is_stmt
     851 0001c1 ED04          MOV dbl(*SP(#2)), XAR0
         0001c3 8F   
     852                      .dwpsn  file "../FreeRTOS/Source/queue.c",line 512,column 2,is_stmt
     853 0001c4 4E07          AADD #7, SP
     854                      .dwcfi  cfa_offset, 1
     855              $C$DW$90        .dwtag  DW_TAG_TI_branch
     856                      .dwattr $C$DW$90, DW_AT_low_pc(0x00)
     857                      .dwattr $C$DW$90, DW_AT_TI_return
     858 0001c6 4804          RET
     859                                                      ; return occurs
     860                      .dwattr $C$DW$82, DW_AT_TI_end_file("../FreeRTOS/Source/queue.c")
     861                      .dwattr $C$DW$82, DW_AT_TI_end_line(0x200)
     862                      .dwattr $C$DW$82, DW_AT_TI_end_column(0x02)
     863                      .dwendentry
     864                      .dwendtag $C$DW$82
     865              
     866 0001c8               .sect   ".text"
     867                      .align 4
     868                      .global _xQueueGiveMutexRecursive
     869              
     870              $C$DW$91        .dwtag  DW_TAG_subprogram, DW_AT_name("xQueueGiveMutexRecursive")
     871                      .dwattr $C$DW$91, DW_AT_low_pc(_xQueueGiveMutexRecursive)
     872                      .dwattr $C$DW$91, DW_AT_high_pc(0x00)
     873                      .dwattr $C$DW$91, DW_AT_TI_symbol_name("_xQueueGiveMutexRecursive")
     874                      .dwattr $C$DW$91, DW_AT_external
     875                      .dwattr $C$DW$91, DW_AT_type(*$C$DW$T$49)
     876                      .dwattr $C$DW$91, DW_AT_TI_begin_file("../FreeRTOS/Source/queue.c")
     877                      .dwattr $C$DW$91, DW_AT_TI_begin_line(0x254)
     878                      .dwattr $C$DW$91, DW_AT_TI_begin_column(0x0d)
     879                      .dwattr $C$DW$91, DW_AT_TI_max_frame_size(0x08)
     880                      .dwpsn  file "../FreeRTOS/Source/queue.c",line 597,column 2,is_stmt,address _xQueueGiveMutexRecursive
     881              
     882                      .dwfde $C$DW$CIE, _xQueueGiveMutexRecursive
     883              $C$DW$92        .dwtag  DW_TAG_formal_parameter, DW_AT_name("xMutex")
     884                      .dwattr $C$DW$92, DW_AT_TI_symbol_name("_xMutex")
     885                      .dwattr $C$DW$92, DW_AT_type(*$C$DW$T$27)
     886                      .dwattr $C$DW$92, DW_AT_location[DW_OP_reg17]
     887              ;*******************************************************************************
TMS320C55x Assembler PC v4.4.1 Tue Sep 18 04:49:51 2018

Tools Copyright (c) 1996-2012 Texas Instruments Incorporated
queue.asm                                                            PAGE   19

     888              ;* FUNCTION NAME: xQueueGiveMutexRecursive                                     *
     889              ;*                                                                             *
     890              ;*   Function Uses Regs : AC0,AC0,AC1,AC1,T0,AR0,XAR0,AR1,XAR1,AR3,XAR3,SP,    *
     891              ;*                        CARRY,TC1,M40,SATA,SATD,RDM,FRCT,SMUL                *
     892              ;*   Stack Frame        : Compact (No Frame Pointer, w/ debug)                 *
     893              ;*   Total Frame Size   : 8 words                                              *
     894              ;*                        (2 return address/alignment)                         *
     895              ;*                        (6 local values)                                     *
     896              ;*   Min System Stack   : 1 word                                               *
     897              ;*******************************************************************************
     898 0001c8       _xQueueGiveMutexRecursive:
     899                      .dwcfi  cfa_offset, 1
     900                      .dwcfi  save_reg_to_mem, 91, -1
     901 0001c8 4EF9          AADD #-7, SP
     902                      .dwcfi  cfa_offset, 8
     903              $C$DW$93        .dwtag  DW_TAG_variable, DW_AT_name("xMutex")
     904                      .dwattr $C$DW$93, DW_AT_TI_symbol_name("_xMutex")
     905                      .dwattr $C$DW$93, DW_AT_type(*$C$DW$T$27)
     906                      .dwattr $C$DW$93, DW_AT_location[DW_OP_bregx 0x24 0]
     907              $C$DW$94        .dwtag  DW_TAG_variable, DW_AT_name("xReturn")
     908                      .dwattr $C$DW$94, DW_AT_TI_symbol_name("_xReturn")
     909                      .dwattr $C$DW$94, DW_AT_type(*$C$DW$T$49)
     910                      .dwattr $C$DW$94, DW_AT_location[DW_OP_bregx 0x24 2]
     911              $C$DW$95        .dwtag  DW_TAG_variable, DW_AT_name("pxMutex")
     912                      .dwattr $C$DW$95, DW_AT_TI_symbol_name("_pxMutex")
     913                      .dwattr $C$DW$95, DW_AT_type(*$C$DW$T$69)
     914                      .dwattr $C$DW$95, DW_AT_location[DW_OP_bregx 0x24 4]
     915 0001ca EB00          MOV XAR0, dbl(*SP(#0))
         0001cc 85   
     916                      .dwpsn  file "../FreeRTOS/Source/queue.c",line 599,column 18,is_stmt
     917 0001cd ED00          MOV dbl(*SP(#0)), XAR3
         0001cf BF   
     918 0001d0 EB08          MOV XAR3, dbl(*SP(#4))
         0001d2 B5   
     919                      .dwpsn  file "../FreeRTOS/Source/queue.c",line 601,column 3,is_stmt
     920 0001d3 90B0          MOV XAR3, AC0
     921 0001d5 6290          BCC $C$L18,AC0 != #0 ; |601| 
     922                                                      ; branchcc occurs ; |601| 
     923 0001d7 20     nop
     924 0001d8 46B3   bset INTM
     925 0001da       $C$L17:    
     926 0001da       $C$DW$L$_xQueueGiveMutexRecursive$3$B:
     927 0001da 4A7E          B $C$L17  ; |601| 
     928                                                      ; branch occurs ; |601| 
     929 0001dc       $C$DW$L$_xQueueGiveMutexRecursive$3$E:
     930 0001dc       $C$L18:    
     931                      .dwpsn  file "../FreeRTOS/Source/queue.c",line 609,column 3,is_stmt
     932              $C$DW$96        .dwtag  DW_TAG_TI_branch
     933                      .dwattr $C$DW$96, DW_AT_low_pc(0x00)
     934                      .dwattr $C$DW$96, DW_AT_name("_xTaskGetCurrentTaskHandle")
     935                      .dwattr $C$DW$96, DW_AT_TI_call
     936 0001dc 6C00          CALL #_xTaskGetCurrentTaskHandle ; |609| 
         0001de 0000!
     937                                                      ; call occurs [#_xTaskGetCurrentTaskHandle] ; |609| 
     938 0001e0 ED08          MOV dbl(*SP(#4)), XAR3
TMS320C55x Assembler PC v4.4.1 Tue Sep 18 04:49:51 2018

Tools Copyright (c) 1996-2012 Texas Instruments Incorporated
queue.asm                                                            PAGE   20

         0001e2 BF   
     939 0001e3 9081          MOV XAR0, AC1
     940 0001e5 ED79          MOV dbl(*AR3(short(#4))), XAR3
         0001e7 BF   
     941 0001e8 90B0          MOV XAR3, AC0
     942 0001ea 120C          CMPU AC0 != AC1, TC1 ; |609| 
         0001ec 14   
     943 0001ed 0464          BCC $C$L20,TC1 ; |609| 
         0001ef 24   
     944                                                      ; branchcc occurs ; |609| 
     945                      .dwpsn  file "../FreeRTOS/Source/queue.c",line 618,column 4,is_stmt
     946 0001f0 ED08          MOV dbl(*SP(#4)), XAR3
         0001f2 BF   
     947 0001f3 F77D          SUB #1, *AR3(short(#6)) ; |618| 
         0001f5 FFFF 
     948                      .dwpsn  file "../FreeRTOS/Source/queue.c",line 621,column 4,is_stmt
     949 0001f7 ED08          MOV dbl(*SP(#4)), XAR3
         0001f9 BF   
     950 0001fa A97D          MOV *AR3(short(#6)), AR1 ; |621| 
     951 0001fc 0419          BCC $C$L19,AR1 != #0 ; |621| 
         0001fe 10   
     952                                                      ; branchcc occurs ; |621| 
     953                      .dwpsn  file "../FreeRTOS/Source/queue.c",line 625,column 5,is_stmt
     954 0001ff ED08          MOV dbl(*SP(#4)), XAR0
         000201 8F   
     955 000202 EC31          AMOV #0, XAR1 ; |625| 
         000204 9E00 
         000206 0000 
     956 000208 3C00          MOV #0, AC0 ; |625| 
     957              $C$DW$97        .dwtag  DW_TAG_TI_branch
     958                      .dwattr $C$DW$97, DW_AT_low_pc(0x00)
     959                      .dwattr $C$DW$97, DW_AT_name("_xQueueGenericSend")
     960                      .dwattr $C$DW$97, DW_AT_TI_call
     961              
     962 00020a 0800          CALL #_xQueueGenericSend ; |625| 
         00020c AD   
     963 00020d 3D04  ||      MOV #0, T0
     964              
     965                                                      ; call occurs [#_xQueueGenericSend] ; |625| 
     966                      .dwpsn  file "../FreeRTOS/Source/queue.c",line 626,column 4,is_stmt
     967 00020f       $C$L19:    
     968                      .dwpsn  file "../FreeRTOS/Source/queue.c",line 632,column 4,is_stmt
     969 00020f E604          MOV #1, *SP(#2) ; |632| 
         000211 01   
     970                      .dwpsn  file "../FreeRTOS/Source/queue.c",line 633,column 3,is_stmt
     971 000212 4A03          B $C$L21  ; |633| 
     972                                                      ; branch occurs ; |633| 
     973 000214       $C$L20:    
     974                      .dwpsn  file "../FreeRTOS/Source/queue.c",line 638,column 4,is_stmt
     975 000214 E604          MOV #0, *SP(#2) ; |638| 
         000216 00   
     976 000217       $C$L21:    
     977                      .dwpsn  file "../FreeRTOS/Source/queue.c",line 643,column 3,is_stmt
     978 000217 A404          MOV *SP(#2), T0 ; |643| 
     979                      .dwpsn  file "../FreeRTOS/Source/queue.c",line 644,column 2,is_stmt
TMS320C55x Assembler PC v4.4.1 Tue Sep 18 04:49:51 2018

Tools Copyright (c) 1996-2012 Texas Instruments Incorporated
queue.asm                                                            PAGE   21

     980 000219 4E07          AADD #7, SP
     981                      .dwcfi  cfa_offset, 1
     982              $C$DW$98        .dwtag  DW_TAG_TI_branch
     983                      .dwattr $C$DW$98, DW_AT_low_pc(0x00)
     984                      .dwattr $C$DW$98, DW_AT_TI_return
     985 00021b 4804          RET
     986                                                      ; return occurs
     987              
     988              $C$DW$99        .dwtag  DW_TAG_TI_loop
     989                      .dwattr $C$DW$99, DW_AT_name("F:\eZdsp_DBG\eZDSP_5535_Files\ccsws2\test\Debug\queue.asm:$C$L17:1:1537
     990                      .dwattr $C$DW$99, DW_AT_TI_begin_file("../FreeRTOS/Source/queue.c")
     991                      .dwattr $C$DW$99, DW_AT_TI_begin_line(0x259)
     992                      .dwattr $C$DW$99, DW_AT_TI_end_line(0x259)
     993              $C$DW$100       .dwtag  DW_TAG_TI_loop_range
     994                      .dwattr $C$DW$100, DW_AT_low_pc($C$DW$L$_xQueueGiveMutexRecursive$3$B)
     995                      .dwattr $C$DW$100, DW_AT_high_pc($C$DW$L$_xQueueGiveMutexRecursive$3$E)
     996                      .dwendtag $C$DW$99
     997              
     998                      .dwattr $C$DW$91, DW_AT_TI_end_file("../FreeRTOS/Source/queue.c")
     999                      .dwattr $C$DW$91, DW_AT_TI_end_line(0x284)
    1000                      .dwattr $C$DW$91, DW_AT_TI_end_column(0x02)
    1001                      .dwendentry
    1002                      .dwendtag $C$DW$91
    1003              
    1004 00021d               .sect   ".text"
    1005                      .align 4
    1006                      .global _xQueueTakeMutexRecursive
    1007              
    1008              $C$DW$101       .dwtag  DW_TAG_subprogram, DW_AT_name("xQueueTakeMutexRecursive")
    1009                      .dwattr $C$DW$101, DW_AT_low_pc(_xQueueTakeMutexRecursive)
    1010                      .dwattr $C$DW$101, DW_AT_high_pc(0x00)
    1011                      .dwattr $C$DW$101, DW_AT_TI_symbol_name("_xQueueTakeMutexRecursive")
    1012                      .dwattr $C$DW$101, DW_AT_external
    1013                      .dwattr $C$DW$101, DW_AT_type(*$C$DW$T$49)
    1014                      .dwattr $C$DW$101, DW_AT_TI_begin_file("../FreeRTOS/Source/queue.c")
    1015                      .dwattr $C$DW$101, DW_AT_TI_begin_line(0x28b)
    1016                      .dwattr $C$DW$101, DW_AT_TI_begin_column(0x0d)
    1017                      .dwattr $C$DW$101, DW_AT_TI_max_frame_size(0x0a)
    1018                      .dwpsn  file "../FreeRTOS/Source/queue.c",line 652,column 2,is_stmt,address _xQueueTakeMutexRecursive
    1019              
    1020                      .dwfde $C$DW$CIE, _xQueueTakeMutexRecursive
    1021              $C$DW$102       .dwtag  DW_TAG_formal_parameter, DW_AT_name("xMutex")
    1022                      .dwattr $C$DW$102, DW_AT_TI_symbol_name("_xMutex")
    1023                      .dwattr $C$DW$102, DW_AT_type(*$C$DW$T$27)
    1024                      .dwattr $C$DW$102, DW_AT_location[DW_OP_reg17]
    1025              $C$DW$103       .dwtag  DW_TAG_formal_parameter, DW_AT_name("xTicksToWait")
    1026                      .dwattr $C$DW$103, DW_AT_TI_symbol_name("_xTicksToWait")
    1027                      .dwattr $C$DW$103, DW_AT_type(*$C$DW$T$44)
    1028                      .dwattr $C$DW$103, DW_AT_location[DW_OP_reg0]
    1029              ;*******************************************************************************
    1030              ;* FUNCTION NAME: xQueueTakeMutexRecursive                                     *
    1031              ;*                                                                             *
    1032              ;*   Function Uses Regs : AC0,AC0,AC1,AC1,T0,AR0,XAR0,AR1,AR3,XAR3,SP,CARRY,   *
    1033              ;*                        TC1,M40,SATA,SATD,RDM,FRCT,SMUL                      *
    1034              ;*   Stack Frame        : Compact (No Frame Pointer, w/ debug)                 *
TMS320C55x Assembler PC v4.4.1 Tue Sep 18 04:49:51 2018

Tools Copyright (c) 1996-2012 Texas Instruments Incorporated
queue.asm                                                            PAGE   22

    1035              ;*   Total Frame Size   : 10 words                                             *
    1036              ;*                        (2 return address/alignment)                         *
    1037              ;*                        (8 local values)                                     *
    1038              ;*   Min System Stack   : 1 word                                               *
    1039              ;*******************************************************************************
    1040 000220       _xQueueTakeMutexRecursive:
    1041                      .dwcfi  cfa_offset, 1
    1042                      .dwcfi  save_reg_to_mem, 91, -1
    1043 000220 4EF7          AADD #-9, SP
    1044                      .dwcfi  cfa_offset, 10
    1045              $C$DW$104       .dwtag  DW_TAG_variable, DW_AT_name("xMutex")
    1046                      .dwattr $C$DW$104, DW_AT_TI_symbol_name("_xMutex")
    1047                      .dwattr $C$DW$104, DW_AT_type(*$C$DW$T$27)
    1048                      .dwattr $C$DW$104, DW_AT_location[DW_OP_bregx 0x24 0]
    1049              $C$DW$105       .dwtag  DW_TAG_variable, DW_AT_name("xTicksToWait")
    1050                      .dwattr $C$DW$105, DW_AT_TI_symbol_name("_xTicksToWait")
    1051                      .dwattr $C$DW$105, DW_AT_type(*$C$DW$T$44)
    1052                      .dwattr $C$DW$105, DW_AT_location[DW_OP_bregx 0x24 2]
    1053              $C$DW$106       .dwtag  DW_TAG_variable, DW_AT_name("xReturn")
    1054                      .dwattr $C$DW$106, DW_AT_TI_symbol_name("_xReturn")
    1055                      .dwattr $C$DW$106, DW_AT_type(*$C$DW$T$49)
    1056                      .dwattr $C$DW$106, DW_AT_location[DW_OP_bregx 0x24 4]
    1057              $C$DW$107       .dwtag  DW_TAG_variable, DW_AT_name("pxMutex")
    1058                      .dwattr $C$DW$107, DW_AT_TI_symbol_name("_pxMutex")
    1059                      .dwattr $C$DW$107, DW_AT_type(*$C$DW$T$69)
    1060                      .dwattr $C$DW$107, DW_AT_location[DW_OP_bregx 0x24 6]
    1061 000222 EB04          MOV AC0, dbl(*SP(#2)) ; |652| 
         000224 08   
    1062 000225 EB00          MOV XAR0, dbl(*SP(#0))
         000227 85   
    1063                      .dwpsn  file "../FreeRTOS/Source/queue.c",line 654,column 18,is_stmt
    1064 000228 ED00          MOV dbl(*SP(#0)), XAR3
         00022a BF   
    1065 00022b EB0C          MOV XAR3, dbl(*SP(#6))
         00022d B5   
    1066                      .dwpsn  file "../FreeRTOS/Source/queue.c",line 656,column 3,is_stmt
    1067 00022e 90B0          MOV XAR3, AC0
    1068 000230 6290          BCC $C$L23,AC0 != #0 ; |656| 
    1069                                                      ; branchcc occurs ; |656| 
    1070 000232 20     nop
    1071 000233 46B3   bset INTM
    1072 000235       $C$L22:    
    1073 000235       $C$DW$L$_xQueueTakeMutexRecursive$3$B:
    1074 000235 4A7E          B $C$L22  ; |656| 
    1075                                                      ; branch occurs ; |656| 
    1076 000237       $C$DW$L$_xQueueTakeMutexRecursive$3$E:
    1077 000237       $C$L23:    
    1078                      .dwpsn  file "../FreeRTOS/Source/queue.c",line 663,column 3,is_stmt
    1079              $C$DW$108       .dwtag  DW_TAG_TI_branch
    1080                      .dwattr $C$DW$108, DW_AT_low_pc(0x00)
    1081                      .dwattr $C$DW$108, DW_AT_name("_xTaskGetCurrentTaskHandle")
    1082                      .dwattr $C$DW$108, DW_AT_TI_call
    1083 000237 6C00          CALL #_xTaskGetCurrentTaskHandle ; |663| 
         000239 0000!
    1084                                                      ; call occurs [#_xTaskGetCurrentTaskHandle] ; |663| 
TMS320C55x Assembler PC v4.4.1 Tue Sep 18 04:49:51 2018

Tools Copyright (c) 1996-2012 Texas Instruments Incorporated
queue.asm                                                            PAGE   23

    1085 00023b ED0C          MOV dbl(*SP(#6)), XAR3
         00023d BF   
    1086 00023e 9081          MOV XAR0, AC1
    1087 000240 ED79          MOV dbl(*AR3(short(#4))), XAR3
         000242 BF   
    1088 000243 90B0          MOV XAR3, AC0
    1089 000245 120C          CMPU AC0 != AC1, TC1 ; |663| 
         000247 14   
    1090 000248 6664          BCC $C$L24,TC1 ; |663| 
    1091                                                      ; branchcc occurs ; |663| 
    1092                      .dwpsn  file "../FreeRTOS/Source/queue.c",line 665,column 4,is_stmt
    1093 00024a ED0C          MOV dbl(*SP(#6)), XAR3
         00024c BF   
    1094 00024d F77D          ADD #1, *AR3(short(#6)) ; |665| 
         00024f 0001 
    1095                      .dwpsn  file "../FreeRTOS/Source/queue.c",line 666,column 4,is_stmt
    1096 000251 E608          MOV #1, *SP(#4) ; |666| 
         000253 01   
    1097                      .dwpsn  file "../FreeRTOS/Source/queue.c",line 667,column 3,is_stmt
    1098 000254 4A16          B $C$L25  ; |667| 
    1099                                                      ; branch occurs ; |667| 
    1100 000256       $C$L24:    
    1101                      .dwpsn  file "../FreeRTOS/Source/queue.c",line 670,column 4,is_stmt
    1102 000256 ED0C          MOV dbl(*SP(#6)), XAR0
         000258 8F   
    1103 000259 ED04          MOV dbl(*SP(#2)), AC0 ; |670| 
         00025b 08   
    1104              $C$DW$109       .dwtag  DW_TAG_TI_branch
    1105                      .dwattr $C$DW$109, DW_AT_low_pc(0x00)
    1106                      .dwattr $C$DW$109, DW_AT_name("_xQueueSemaphoreTake")
    1107                      .dwattr $C$DW$109, DW_AT_TI_call
    1108 00025c 0805          CALL #_xQueueSemaphoreTake ; |670| 
         00025e 7D   
    1109                                                      ; call occurs [#_xQueueSemaphoreTake] ; |670| 
    1110 00025f C408          MOV T0, *SP(#4) ; |670| 
    1111                      .dwpsn  file "../FreeRTOS/Source/queue.c",line 675,column 4,is_stmt
    1112 000261 2249          MOV T0, AR1
    1113 000263 6389          BCC $C$L25,AR1 == #0 ; |675| 
    1114                                                      ; branchcc occurs ; |675| 
    1115                      .dwpsn  file "../FreeRTOS/Source/queue.c",line 677,column 5,is_stmt
    1116 000265 ED0C          MOV dbl(*SP(#6)), XAR3
         000267 BF   
    1117 000268 F77D          ADD #1, *AR3(short(#6)) ; |677| 
         00026a 0001 
    1118                      .dwpsn  file "../FreeRTOS/Source/queue.c",line 678,column 4,is_stmt
    1119 00026c       $C$L25:    
    1120                      .dwpsn  file "../FreeRTOS/Source/queue.c",line 685,column 3,is_stmt
    1121 00026c A408          MOV *SP(#4), T0 ; |685| 
    1122                      .dwpsn  file "../FreeRTOS/Source/queue.c",line 686,column 2,is_stmt
    1123 00026e 4E09          AADD #9, SP
    1124                      .dwcfi  cfa_offset, 1
    1125              $C$DW$110       .dwtag  DW_TAG_TI_branch
    1126                      .dwattr $C$DW$110, DW_AT_low_pc(0x00)
    1127                      .dwattr $C$DW$110, DW_AT_TI_return
    1128 000270 4804          RET
TMS320C55x Assembler PC v4.4.1 Tue Sep 18 04:49:51 2018

Tools Copyright (c) 1996-2012 Texas Instruments Incorporated
queue.asm                                                            PAGE   24

    1129                                                      ; return occurs
    1130              
    1131              $C$DW$111       .dwtag  DW_TAG_TI_loop
    1132                      .dwattr $C$DW$111, DW_AT_name("F:\eZdsp_DBG\eZDSP_5535_Files\ccsws2\test\Debug\queue.asm:$C$L22:1:153
    1133                      .dwattr $C$DW$111, DW_AT_TI_begin_file("../FreeRTOS/Source/queue.c")
    1134                      .dwattr $C$DW$111, DW_AT_TI_begin_line(0x290)
    1135                      .dwattr $C$DW$111, DW_AT_TI_end_line(0x290)
    1136              $C$DW$112       .dwtag  DW_TAG_TI_loop_range
    1137                      .dwattr $C$DW$112, DW_AT_low_pc($C$DW$L$_xQueueTakeMutexRecursive$3$B)
    1138                      .dwattr $C$DW$112, DW_AT_high_pc($C$DW$L$_xQueueTakeMutexRecursive$3$E)
    1139                      .dwendtag $C$DW$111
    1140              
    1141                      .dwattr $C$DW$101, DW_AT_TI_end_file("../FreeRTOS/Source/queue.c")
    1142                      .dwattr $C$DW$101, DW_AT_TI_end_line(0x2ae)
    1143                      .dwattr $C$DW$101, DW_AT_TI_end_column(0x02)
    1144                      .dwendentry
    1145                      .dwendtag $C$DW$101
    1146              
    1147 000272               .sect   ".text"
    1148                      .align 4
    1149                      .global _xQueueCreateCountingSemaphore
    1150              
    1151              $C$DW$113       .dwtag  DW_TAG_subprogram, DW_AT_name("xQueueCreateCountingSemaphore")
    1152                      .dwattr $C$DW$113, DW_AT_low_pc(_xQueueCreateCountingSemaphore)
    1153                      .dwattr $C$DW$113, DW_AT_high_pc(0x00)
    1154                      .dwattr $C$DW$113, DW_AT_TI_symbol_name("_xQueueCreateCountingSemaphore")
    1155                      .dwattr $C$DW$113, DW_AT_external
    1156                      .dwattr $C$DW$113, DW_AT_type(*$C$DW$T$27)
    1157                      .dwattr $C$DW$113, DW_AT_TI_begin_file("../FreeRTOS/Source/queue.c")
    1158                      .dwattr $C$DW$113, DW_AT_TI_begin_line(0x2d1)
    1159                      .dwattr $C$DW$113, DW_AT_TI_begin_column(0x10)
    1160                      .dwattr $C$DW$113, DW_AT_TI_max_frame_size(0x06)
    1161                      .dwpsn  file "../FreeRTOS/Source/queue.c",line 722,column 2,is_stmt,address _xQueueCreateCountingSema
    1162              
    1163                      .dwfde $C$DW$CIE, _xQueueCreateCountingSemaphore
    1164              $C$DW$114       .dwtag  DW_TAG_formal_parameter, DW_AT_name("uxMaxCount")
    1165                      .dwattr $C$DW$114, DW_AT_TI_symbol_name("_uxMaxCount")
    1166                      .dwattr $C$DW$114, DW_AT_type(*$C$DW$T$56)
    1167                      .dwattr $C$DW$114, DW_AT_location[DW_OP_reg12]
    1168              $C$DW$115       .dwtag  DW_TAG_formal_parameter, DW_AT_name("uxInitialCount")
    1169                      .dwattr $C$DW$115, DW_AT_TI_symbol_name("_uxInitialCount")
    1170                      .dwattr $C$DW$115, DW_AT_type(*$C$DW$T$56)
    1171                      .dwattr $C$DW$115, DW_AT_location[DW_OP_reg13]
    1172              ;*******************************************************************************
    1173              ;* FUNCTION NAME: xQueueCreateCountingSemaphore                                *
    1174              ;*                                                                             *
    1175              ;*   Function Uses Regs : AC0,AC0,T0,T1,AR0,XAR0,AR1,AR2,AR3,XAR3,SP,TC1,M40,  *
    1176              ;*                        SATA,SATD,RDM,FRCT,SMUL                              *
    1177              ;*   Stack Frame        : Compact (No Frame Pointer, w/ debug)                 *
    1178              ;*   Total Frame Size   : 6 words                                              *
    1179              ;*                        (2 return address/alignment)                         *
    1180              ;*                        (4 local values)                                     *
    1181              ;*   Min System Stack   : 1 word                                               *
    1182              ;*******************************************************************************
    1183 000274       _xQueueCreateCountingSemaphore:
TMS320C55x Assembler PC v4.4.1 Tue Sep 18 04:49:51 2018

Tools Copyright (c) 1996-2012 Texas Instruments Incorporated
queue.asm                                                            PAGE   25

    1184                      .dwcfi  cfa_offset, 1
    1185                      .dwcfi  save_reg_to_mem, 91, -1
    1186 000274 4EFB          AADD #-5, SP
    1187                      .dwcfi  cfa_offset, 6
    1188              $C$DW$116       .dwtag  DW_TAG_variable, DW_AT_name("uxMaxCount")
    1189                      .dwattr $C$DW$116, DW_AT_TI_symbol_name("_uxMaxCount")
    1190                      .dwattr $C$DW$116, DW_AT_type(*$C$DW$T$56)
    1191                      .dwattr $C$DW$116, DW_AT_location[DW_OP_bregx 0x24 0]
    1192              $C$DW$117       .dwtag  DW_TAG_variable, DW_AT_name("uxInitialCount")
    1193                      .dwattr $C$DW$117, DW_AT_TI_symbol_name("_uxInitialCount")
    1194                      .dwattr $C$DW$117, DW_AT_type(*$C$DW$T$56)
    1195                      .dwattr $C$DW$117, DW_AT_location[DW_OP_bregx 0x24 1]
    1196              $C$DW$118       .dwtag  DW_TAG_variable, DW_AT_name("xHandle")
    1197                      .dwattr $C$DW$118, DW_AT_TI_symbol_name("_xHandle")
    1198                      .dwattr $C$DW$118, DW_AT_type(*$C$DW$T$27)
    1199                      .dwattr $C$DW$118, DW_AT_location[DW_OP_bregx 0x24 2]
    1200 000276 C502          MOV T1, *SP(#1) ; |722| 
    1201 000278 C400          MOV T0, *SP(#0) ; |722| 
    1202                      .dwpsn  file "../FreeRTOS/Source/queue.c",line 725,column 3,is_stmt
    1203 00027a 224A          MOV T0, AR2
    1204              
    1205 00027c 610A          BCC $C$L26,AR2 == #0 ; |725| 
    1206 00027e 3D09  ||      MOV #0, AR1
    1207              
    1208                                                      ; branchcc occurs ; |725| 
    1209 000280 3C19          MOV #1, AR1
    1210 000282       $C$L26:    
    1211 000282 6299          BCC $C$L28,AR1 != #0 ; |725| 
    1212                                                      ; branchcc occurs ; |725| 
    1213 000284 20     nop
    1214 000285 46B3   bset INTM
    1215 000287       $C$L27:    
    1216 000287       $C$DW$L$_xQueueCreateCountingSemaphore$5$B:
    1217 000287 4A7E          B $C$L27  ; |725| 
    1218                                                      ; branch occurs ; |725| 
    1219 000289       $C$DW$L$_xQueueCreateCountingSemaphore$5$E:
    1220 000289       $C$L28:    
    1221                      .dwpsn  file "../FreeRTOS/Source/queue.c",line 726,column 3,is_stmt
    1222 000289 AB02          MOV *SP(#1), AR3 ; |726| 
    1223 00028b 12A4          CMPU AR3 > AR2, TC1 ; |726| 
         00028d B4   
    1224 00028e 3C09          MOV #0, AR1
    1225 000290 6164          BCC $C$L29,TC1 ; |726| 
    1226                                                      ; branchcc occurs ; |726| 
    1227 000292 3C19          MOV #1, AR1
    1228 000294       $C$L29:    
    1229 000294 6299          BCC $C$L31,AR1 != #0 ; |726| 
    1230                                                      ; branchcc occurs ; |726| 
    1231 000296 20     nop
    1232 000297 46B3   bset INTM
    1233 000299       $C$L30:    
    1234 000299       $C$DW$L$_xQueueCreateCountingSemaphore$10$B:
    1235 000299 4A7E          B $C$L30  ; |726| 
    1236                                                      ; branch occurs ; |726| 
    1237 00029b       $C$DW$L$_xQueueCreateCountingSemaphore$10$E:
TMS320C55x Assembler PC v4.4.1 Tue Sep 18 04:49:51 2018

Tools Copyright (c) 1996-2012 Texas Instruments Incorporated
queue.asm                                                            PAGE   26

    1238 00029b       $C$L31:    
    1239                      .dwpsn  file "../FreeRTOS/Source/queue.c",line 728,column 3,is_stmt
    1240 00029b 3C05          MOV #0, T1
    1241              $C$DW$119       .dwtag  DW_TAG_TI_branch
    1242                      .dwattr $C$DW$119, DW_AT_low_pc(0x00)
    1243                      .dwattr $C$DW$119, DW_AT_name("_xQueueGenericCreate")
    1244                      .dwattr $C$DW$119, DW_AT_TI_call
    1245              
    1246 00029d 08FE          CALL #_xQueueGenericCreate ; |728| 
         00029f 32   
    1247 0002a0 3D28  ||      MOV #2, AR0
    1248              
    1249                                                      ; call occurs [#_xQueueGenericCreate] ; |728| 
    1250 0002a2 EB04          MOV XAR0, dbl(*SP(#2))
         0002a4 85   
    1251                      .dwpsn  file "../FreeRTOS/Source/queue.c",line 730,column 3,is_stmt
    1252 0002a5 ED04          MOV dbl(*SP(#2)), XAR3
         0002a7 BF   
    1253 0002a8 90B0          MOV XAR3, AC0
    1254 0002aa 6300          BCC $C$L32,AC0 == #0 ; |730| 
    1255                                                      ; branchcc occurs ; |730| 
    1256                      .dwpsn  file "../FreeRTOS/Source/queue.c",line 732,column 4,is_stmt
    1257 0002ac A902          MOV *SP(#1), AR1 ; |732| 
    1258 0002ae C96D          MOV AR1, *AR3(#28) ; |732| 
         0002b0 001C 
    1259                      .dwpsn  file "../FreeRTOS/Source/queue.c",line 735,column 3,is_stmt
    1260 0002b2       $C$L32:    
    1261                      .dwpsn  file "../FreeRTOS/Source/queue.c",line 741,column 3,is_stmt
    1262 0002b2 ED04          MOV dbl(*SP(#2)), XAR0
         0002b4 8F   
    1263                      .dwpsn  file "../FreeRTOS/Source/queue.c",line 742,column 2,is_stmt
    1264 0002b5 4E05          AADD #5, SP
    1265                      .dwcfi  cfa_offset, 1
    1266              $C$DW$120       .dwtag  DW_TAG_TI_branch
    1267                      .dwattr $C$DW$120, DW_AT_low_pc(0x00)
    1268                      .dwattr $C$DW$120, DW_AT_TI_return
    1269 0002b7 4804          RET
    1270                                                      ; return occurs
    1271              
    1272              $C$DW$121       .dwtag  DW_TAG_TI_loop
    1273                      .dwattr $C$DW$121, DW_AT_name("F:\eZdsp_DBG\eZDSP_5535_Files\ccsws2\test\Debug\queue.asm:$C$L30:1:153
    1274                      .dwattr $C$DW$121, DW_AT_TI_begin_file("../FreeRTOS/Source/queue.c")
    1275                      .dwattr $C$DW$121, DW_AT_TI_begin_line(0x2d6)
    1276                      .dwattr $C$DW$121, DW_AT_TI_end_line(0x2d6)
    1277              $C$DW$122       .dwtag  DW_TAG_TI_loop_range
    1278                      .dwattr $C$DW$122, DW_AT_low_pc($C$DW$L$_xQueueCreateCountingSemaphore$10$B)
    1279                      .dwattr $C$DW$122, DW_AT_high_pc($C$DW$L$_xQueueCreateCountingSemaphore$10$E)
    1280                      .dwendtag $C$DW$121
    1281              
    1282              
    1283              $C$DW$123       .dwtag  DW_TAG_TI_loop
    1284                      .dwattr $C$DW$123, DW_AT_name("F:\eZdsp_DBG\eZDSP_5535_Files\ccsws2\test\Debug\queue.asm:$C$L27:1:153
    1285                      .dwattr $C$DW$123, DW_AT_TI_begin_file("../FreeRTOS/Source/queue.c")
    1286                      .dwattr $C$DW$123, DW_AT_TI_begin_line(0x2d5)
    1287                      .dwattr $C$DW$123, DW_AT_TI_end_line(0x2d5)
TMS320C55x Assembler PC v4.4.1 Tue Sep 18 04:49:51 2018

Tools Copyright (c) 1996-2012 Texas Instruments Incorporated
queue.asm                                                            PAGE   27

    1288              $C$DW$124       .dwtag  DW_TAG_TI_loop_range
    1289                      .dwattr $C$DW$124, DW_AT_low_pc($C$DW$L$_xQueueCreateCountingSemaphore$5$B)
    1290                      .dwattr $C$DW$124, DW_AT_high_pc($C$DW$L$_xQueueCreateCountingSemaphore$5$E)
    1291                      .dwendtag $C$DW$123
    1292              
    1293                      .dwattr $C$DW$113, DW_AT_TI_end_file("../FreeRTOS/Source/queue.c")
    1294                      .dwattr $C$DW$113, DW_AT_TI_end_line(0x2e6)
    1295                      .dwattr $C$DW$113, DW_AT_TI_end_column(0x02)
    1296                      .dwendentry
    1297                      .dwendtag $C$DW$113
    1298              
    1299 0002b9               .sect   ".text"
    1300                      .align 4
    1301                      .global _xQueueGenericSend
    1302              
    1303              $C$DW$125       .dwtag  DW_TAG_subprogram, DW_AT_name("xQueueGenericSend")
    1304                      .dwattr $C$DW$125, DW_AT_low_pc(_xQueueGenericSend)
    1305                      .dwattr $C$DW$125, DW_AT_high_pc(0x00)
    1306                      .dwattr $C$DW$125, DW_AT_TI_symbol_name("_xQueueGenericSend")
    1307                      .dwattr $C$DW$125, DW_AT_external
    1308                      .dwattr $C$DW$125, DW_AT_type(*$C$DW$T$49)
    1309                      .dwattr $C$DW$125, DW_AT_TI_begin_file("../FreeRTOS/Source/queue.c")
    1310                      .dwattr $C$DW$125, DW_AT_TI_begin_line(0x2eb)
    1311                      .dwattr $C$DW$125, DW_AT_TI_begin_column(0x0c)
    1312                      .dwattr $C$DW$125, DW_AT_TI_max_frame_size(0x12)
    1313                      .dwpsn  file "../FreeRTOS/Source/queue.c",line 748,column 1,is_stmt,address _xQueueGenericSend
    1314              
    1315                      .dwfde $C$DW$CIE, _xQueueGenericSend
    1316              $C$DW$126       .dwtag  DW_TAG_formal_parameter, DW_AT_name("xQueue")
    1317                      .dwattr $C$DW$126, DW_AT_TI_symbol_name("_xQueue")
    1318                      .dwattr $C$DW$126, DW_AT_type(*$C$DW$T$27)
    1319                      .dwattr $C$DW$126, DW_AT_location[DW_OP_reg17]
    1320              $C$DW$127       .dwtag  DW_TAG_formal_parameter, DW_AT_name("pvItemToQueue")
    1321                      .dwattr $C$DW$127, DW_AT_TI_symbol_name("_pvItemToQueue")
    1322                      .dwattr $C$DW$127, DW_AT_type(*$C$DW$T$77)
    1323                      .dwattr $C$DW$127, DW_AT_location[DW_OP_reg19]
    1324              $C$DW$128       .dwtag  DW_TAG_formal_parameter, DW_AT_name("xTicksToWait")
    1325                      .dwattr $C$DW$128, DW_AT_TI_symbol_name("_xTicksToWait")
    1326                      .dwattr $C$DW$128, DW_AT_type(*$C$DW$T$44)
    1327                      .dwattr $C$DW$128, DW_AT_location[DW_OP_reg0]
    1328              $C$DW$129       .dwtag  DW_TAG_formal_parameter, DW_AT_name("xCopyPosition")
    1329                      .dwattr $C$DW$129, DW_AT_TI_symbol_name("_xCopyPosition")
    1330                      .dwattr $C$DW$129, DW_AT_type(*$C$DW$T$110)
    1331                      .dwattr $C$DW$129, DW_AT_location[DW_OP_reg12]
    1332              ;*******************************************************************************
    1333              ;* FUNCTION NAME: xQueueGenericSend                                            *
    1334              ;*                                                                             *
    1335              ;*   Function Uses Regs : AC0,AC0,T0,AR0,XAR0,AR1,XAR1,AR2,AR3,XAR3,SP,CARRY,  *
    1336              ;*                        TC1,M40,SATA,SATD,RDM,FRCT,SMUL                      *
    1337              ;*   Stack Frame        : Compact (No Frame Pointer, w/ debug)                 *
    1338              ;*   Total Frame Size   : 18 words                                             *
    1339              ;*                        (2 return address/alignment)                         *
    1340              ;*                        (16 local values)                                    *
    1341              ;*   Min System Stack   : 1 word                                               *
    1342              ;*******************************************************************************
TMS320C55x Assembler PC v4.4.1 Tue Sep 18 04:49:51 2018

Tools Copyright (c) 1996-2012 Texas Instruments Incorporated
queue.asm                                                            PAGE   28

    1343 0002bc       _xQueueGenericSend:
    1344                      .dwcfi  cfa_offset, 1
    1345                      .dwcfi  save_reg_to_mem, 91, -1
    1346 0002bc 4EEF          AADD #-17, SP
    1347                      .dwcfi  cfa_offset, 18
    1348              $C$DW$130       .dwtag  DW_TAG_variable, DW_AT_name("xQueue")
    1349                      .dwattr $C$DW$130, DW_AT_TI_symbol_name("_xQueue")
    1350                      .dwattr $C$DW$130, DW_AT_type(*$C$DW$T$27)
    1351                      .dwattr $C$DW$130, DW_AT_location[DW_OP_bregx 0x24 0]
    1352              $C$DW$131       .dwtag  DW_TAG_variable, DW_AT_name("pvItemToQueue")
    1353                      .dwattr $C$DW$131, DW_AT_TI_symbol_name("_pvItemToQueue")
    1354                      .dwattr $C$DW$131, DW_AT_type(*$C$DW$T$77)
    1355                      .dwattr $C$DW$131, DW_AT_location[DW_OP_bregx 0x24 2]
    1356              $C$DW$132       .dwtag  DW_TAG_variable, DW_AT_name("xTicksToWait")
    1357                      .dwattr $C$DW$132, DW_AT_TI_symbol_name("_xTicksToWait")
    1358                      .dwattr $C$DW$132, DW_AT_type(*$C$DW$T$44)
    1359                      .dwattr $C$DW$132, DW_AT_location[DW_OP_bregx 0x24 4]
    1360              $C$DW$133       .dwtag  DW_TAG_variable, DW_AT_name("xCopyPosition")
    1361                      .dwattr $C$DW$133, DW_AT_TI_symbol_name("_xCopyPosition")
    1362                      .dwattr $C$DW$133, DW_AT_type(*$C$DW$T$110)
    1363                      .dwattr $C$DW$133, DW_AT_location[DW_OP_bregx 0x24 6]
    1364              $C$DW$134       .dwtag  DW_TAG_variable, DW_AT_name("xEntryTimeSet")
    1365                      .dwattr $C$DW$134, DW_AT_TI_symbol_name("_xEntryTimeSet")
    1366                      .dwattr $C$DW$134, DW_AT_type(*$C$DW$T$49)
    1367                      .dwattr $C$DW$134, DW_AT_location[DW_OP_bregx 0x24 7]
    1368              $C$DW$135       .dwtag  DW_TAG_variable, DW_AT_name("xYieldRequired")
    1369                      .dwattr $C$DW$135, DW_AT_TI_symbol_name("_xYieldRequired")
    1370                      .dwattr $C$DW$135, DW_AT_type(*$C$DW$T$49)
    1371                      .dwattr $C$DW$135, DW_AT_location[DW_OP_bregx 0x24 8]
    1372              $C$DW$136       .dwtag  DW_TAG_variable, DW_AT_name("xTimeOut")
    1373                      .dwattr $C$DW$136, DW_AT_TI_symbol_name("_xTimeOut")
    1374                      .dwattr $C$DW$136, DW_AT_type(*$C$DW$T$92)
    1375                      .dwattr $C$DW$136, DW_AT_location[DW_OP_bregx 0x24 10]
    1376              $C$DW$137       .dwtag  DW_TAG_variable, DW_AT_name("pxQueue")
    1377                      .dwattr $C$DW$137, DW_AT_TI_symbol_name("_pxQueue")
    1378                      .dwattr $C$DW$137, DW_AT_type(*$C$DW$T$69)
    1379                      .dwattr $C$DW$137, DW_AT_location[DW_OP_bregx 0x24 14]
    1380 0002be C40C          MOV T0, *SP(#6) ; |748| 
    1381 0002c0 EB08          MOV AC0, dbl(*SP(#4)) ; |748| 
         0002c2 08   
    1382 0002c3 EB04          MOV XAR1, dbl(*SP(#2))
         0002c5 95   
    1383 0002c6 EB00          MOV XAR0, dbl(*SP(#0))
         0002c8 85   
    1384                      .dwpsn  file "../FreeRTOS/Source/queue.c",line 749,column 12,is_stmt
    1385 0002c9 E60E          MOV #0, *SP(#7) ; |749| 
         0002cb 00   
    1386                      .dwpsn  file "../FreeRTOS/Source/queue.c",line 751,column 17,is_stmt
    1387 0002cc ED00          MOV dbl(*SP(#0)), XAR3
         0002ce BF   
    1388 0002cf EB1C          MOV XAR3, dbl(*SP(#14))
         0002d1 B5   
    1389                      .dwpsn  file "../FreeRTOS/Source/queue.c",line 753,column 2,is_stmt
    1390 0002d2 90B0          MOV XAR3, AC0
    1391 0002d4 6290          BCC $C$L34,AC0 != #0 ; |753| 
TMS320C55x Assembler PC v4.4.1 Tue Sep 18 04:49:51 2018

Tools Copyright (c) 1996-2012 Texas Instruments Incorporated
queue.asm                                                            PAGE   29

    1392                                                      ; branchcc occurs ; |753| 
    1393 0002d6 20     nop
    1394 0002d7 46B3   bset INTM
    1395 0002d9       $C$L33:    
    1396 0002d9       $C$DW$L$_xQueueGenericSend$3$B:
    1397 0002d9 4A7E          B $C$L33  ; |753| 
    1398                                                      ; branch occurs ; |753| 
    1399 0002db       $C$DW$L$_xQueueGenericSend$3$E:
    1400 0002db       $C$L34:    
    1401                      .dwpsn  file "../FreeRTOS/Source/queue.c",line 754,column 2,is_stmt
    1402 0002db ED04          MOV dbl(*SP(#2)), XAR3
         0002dd BF   
    1403 0002de 90B0          MOV XAR3, AC0
    1404 0002e0 3C0A          MOV #0, AR2
    1405              
    1406 0002e2 6590          BCC $C$L35,AC0 != #0 ; |754| 
    1407 0002e4 3D09  ||      MOV #0, AR1
    1408              
    1409                                                      ; branchcc occurs ; |754| 
    1410 0002e6 ED1C          MOV dbl(*SP(#14)), XAR3
         0002e8 BF   
    1411 0002e9 AB6D          MOV *AR3(#30), AR3 ; |754| 
         0002eb 001E 
    1412 0002ed 610B          BCC $C$L35,AR3 == #0 ; |754| 
    1413                                                      ; branchcc occurs ; |754| 
    1414 0002ef 3C1A          MOV #1, AR2
    1415 0002f1       $C$L35:    
    1416 0002f1 611A          BCC $C$L36,AR2 != #0 ; |754| 
    1417                                                      ; branchcc occurs ; |754| 
    1418 0002f3 3C19          MOV #1, AR1
    1419 0002f5       $C$L36:    
    1420 0002f5 6299          BCC $C$L38,AR1 != #0 ; |754| 
    1421                                                      ; branchcc occurs ; |754| 
    1422 0002f7 20     nop
    1423 0002f8 46B3   bset INTM
    1424 0002fa       $C$L37:    
    1425 0002fa       $C$DW$L$_xQueueGenericSend$11$B:
    1426 0002fa 4A7E          B $C$L37  ; |754| 
    1427                                                      ; branch occurs ; |754| 
    1428 0002fc       $C$DW$L$_xQueueGenericSend$11$E:
    1429 0002fc       $C$L38:    
    1430                      .dwpsn  file "../FreeRTOS/Source/queue.c",line 755,column 2,is_stmt
    1431 0002fc F00C          CMP *SP(#6) == #2, TC1 ; |755| 
         0002fe 0002 
    1432 000300 3C0A          MOV #0, AR2
    1433              
    1434 000302 66F4          BCC $C$L39,!TC1 ; |755| 
    1435 000304 3D09  ||      MOV #0, AR1
    1436              
    1437                                                      ; branchcc occurs ; |755| 
    1438 000306 ED1C          MOV dbl(*SP(#14)), XAR3
         000308 BF   
    1439 000309 F06D          CMP *AR3(#29) == #1, TC1 ; |755| 
         00030b 0001 
         00030d 001D 
TMS320C55x Assembler PC v4.4.1 Tue Sep 18 04:49:51 2018

Tools Copyright (c) 1996-2012 Texas Instruments Incorporated
queue.asm                                                            PAGE   30

    1440 00030f 6164          BCC $C$L39,TC1 ; |755| 
    1441                                                      ; branchcc occurs ; |755| 
    1442 000311 3C1A          MOV #1, AR2
    1443 000313       $C$L39:    
    1444 000313 611A          BCC $C$L40,AR2 != #0 ; |755| 
    1445                                                      ; branchcc occurs ; |755| 
    1446 000315 3C19          MOV #1, AR1
    1447 000317       $C$L40:    
    1448 000317 6299          BCC $C$L42,AR1 != #0 ; |755| 
    1449                                                      ; branchcc occurs ; |755| 
    1450 000319 20     nop
    1451 00031a 46B3   bset INTM
    1452 00031c       $C$L41:    
    1453 00031c       $C$DW$L$_xQueueGenericSend$19$B:
    1454 00031c 4A7E          B $C$L41  ; |755| 
    1455                                                      ; branch occurs ; |755| 
    1456 00031e       $C$DW$L$_xQueueGenericSend$19$E:
    1457 00031e       $C$L42:    
    1458 00031e       $C$DW$L$_xQueueGenericSend$20$B:
    1459                      .dwpsn  file "../FreeRTOS/Source/queue.c",line 768,column 3,is_stmt
    1460 00031e 20     nop
    1461 00031f 46B3   bset INTM
    1462 000321 F731          ADD #1, *(#_usCriticalNesting) ; |768| 
         000323 0001 
         000325 0000 
         000327 00!  
    1463 000328 20            NOP
    1464                      .dwpsn  file "../FreeRTOS/Source/queue.c",line 774,column 4,is_stmt
    1465 000329 ED1C          MOV dbl(*SP(#14)), XAR3
         00032b BF   
    1466 00032c A96D          MOV *AR3(#29), AR1 ; |774| 
         00032e 001D 
    1467 000330 AA6D          MOV *AR3(#28), AR2 ; |774| 
         000332 001C 
    1468 000334 12A4          CMPU AR2 < AR1, TC1 ; |774| 
         000336 94   
    1469 000337 63E4          BCC $C$L43,TC1 ; |774| 
    1470                                                      ; branchcc occurs ; |774| 
    1471 000339       $C$DW$L$_xQueueGenericSend$20$E:
    1472 000339       $C$DW$L$_xQueueGenericSend$21$B:
    1473 000339 F00C          CMP *SP(#6) == #2, TC1 ; |774| 
         00033b 0002 
    1474 00033d 0474          BCC $C$L49,!TC1 ; |774| 
         00033f 5A   
    1475                                                      ; branchcc occurs ; |774| 
    1476 000340       $C$DW$L$_xQueueGenericSend$21$E:
    1477 000340       $C$L43:    
    1478                      .dwpsn  file "../FreeRTOS/Source/queue.c",line 840,column 6,is_stmt
    1479 000340 ED1C          MOV dbl(*SP(#14)), XAR0
         000342 8F   
    1480 000343 ED04          MOV dbl(*SP(#2)), XAR1
         000345 9F   
    1481 000346 A40C          MOV *SP(#6), T0 ; |840| 
    1482              $C$DW$138       .dwtag  DW_TAG_TI_branch
    1483                      .dwattr $C$DW$138, DW_AT_low_pc(0x00)
TMS320C55x Assembler PC v4.4.1 Tue Sep 18 04:49:51 2018

Tools Copyright (c) 1996-2012 Texas Instruments Incorporated
queue.asm                                                            PAGE   31

    1484                      .dwattr $C$DW$138, DW_AT_name("_prvCopyDataToQueue")
    1485                      .dwattr $C$DW$138, DW_AT_TI_call
    1486 000348 080A          CALL #_prvCopyDataToQueue ; |840| 
         00034a B1   
    1487                                                      ; call occurs [#_prvCopyDataToQueue] ; |840| 
    1488 00034b C410          MOV T0, *SP(#8) ; |840| 
    1489                      .dwpsn  file "../FreeRTOS/Source/queue.c",line 844,column 6,is_stmt
    1490 00034d ED1C          MOV dbl(*SP(#14)), XAR3
         00034f BF   
    1491 000350 A96D          MOV *AR3(#18), AR1 ; |844| 
         000352 0012 
    1492 000354 6219          BCC $C$L44,AR1 != #0 ; |844| 
    1493                                                      ; branchcc occurs ; |844| 
    1494 000356 3C19          MOV #1, AR1
    1495 000358 4A02          B $C$L45  ; |844| 
    1496                                                      ; branch occurs ; |844| 
    1497 00035a       $C$L44:    
    1498 00035a 3C09          MOV #0, AR1
    1499 00035c       $C$L45:    
    1500 00035c 0419          BCC $C$L46,AR1 != #0 ; |844| 
         00035e 12   
    1501                                                      ; branchcc occurs ; |844| 
    1502                      .dwpsn  file "../FreeRTOS/Source/queue.c",line 846,column 7,is_stmt
    1503 00035f ED1C          MOV dbl(*SP(#14)), XAR0
         000361 8F   
    1504 000362 1412          AADD #18, AR0 ; |846| 
         000364 84   
    1505              $C$DW$139       .dwtag  DW_TAG_TI_branch
    1506                      .dwattr $C$DW$139, DW_AT_low_pc(0x00)
    1507                      .dwattr $C$DW$139, DW_AT_name("_xTaskRemoveFromEventList")
    1508                      .dwattr $C$DW$139, DW_AT_TI_call
    1509 000365 6C00          CALL #_xTaskRemoveFromEventList ; |846| 
         000367 0000!
    1510                                                      ; call occurs [#_xTaskRemoveFromEventList] ; |846| 
    1511 000369 6704          BCC $C$L47,T0 == #0 ; |846| 
    1512                                                      ; branchcc occurs ; |846| 
    1513                      .dwpsn  file "../FreeRTOS/Source/queue.c",line 852,column 8,is_stmt
    1514              $C$DW$140       .dwtag  DW_TAG_TI_branch
    1515                      .dwattr $C$DW$140, DW_AT_low_pc(0x00)
    1516                      .dwattr $C$DW$140, DW_AT_name("_vPortYield")
    1517                      .dwattr $C$DW$140, DW_AT_TI_call
    1518 00036b 6C00          CALL #_vPortYield ; |852| 
         00036d 0000!
    1519                                                      ; call occurs [#_vPortYield] ; |852| 
    1520                      .dwpsn  file "../FreeRTOS/Source/queue.c",line 853,column 7,is_stmt
    1521 00036f 4A08          B $C$L47  ; |853| 
    1522                                                      ; branch occurs ; |853| 
    1523 000371       $C$L46:    
    1524                      .dwpsn  file "../FreeRTOS/Source/queue.c",line 859,column 11,is_stmt
    1525 000371 2249          MOV T0, AR1
    1526 000373 6209          BCC $C$L47,AR1 == #0 ; |859| 
    1527                                                      ; branchcc occurs ; |859| 
    1528                      .dwpsn  file "../FreeRTOS/Source/queue.c",line 865,column 7,is_stmt
    1529              $C$DW$141       .dwtag  DW_TAG_TI_branch
    1530                      .dwattr $C$DW$141, DW_AT_low_pc(0x00)
TMS320C55x Assembler PC v4.4.1 Tue Sep 18 04:49:51 2018

Tools Copyright (c) 1996-2012 Texas Instruments Incorporated
queue.asm                                                            PAGE   32

    1531                      .dwattr $C$DW$141, DW_AT_name("_vPortYield")
    1532                      .dwattr $C$DW$141, DW_AT_TI_call
    1533 000375 6C00          CALL #_vPortYield ; |865| 
         000377 0000!
    1534                                                      ; call occurs [#_vPortYield] ; |865| 
    1535                      .dwpsn  file "../FreeRTOS/Source/queue.c",line 866,column 6,is_stmt
    1536 000379       $C$L47:    
    1537                      .dwpsn  file "../FreeRTOS/Source/queue.c",line 874,column 5,is_stmt
    1538 000379 A931          MOV *(#_usCriticalNesting), AR1 ; |874| 
         00037b 0000 
         00037d 00!  
    1539 00037e 0409          BCC $C$L48,AR1 == #0 ; |874| 
         000380 14   
    1540                                                      ; branchcc occurs ; |874| 
    1541 000381 F731          SUB #1, *(#_usCriticalNesting) ; |874| 
         000383 FFFF 
         000385 0000 
         000387 00!  
    1542 000388 20            NOP
    1543 000389 20            NOP
    1544 00038a 20            NOP
    1545 00038b A931          MOV *(#_usCriticalNesting), AR1 ; |874| 
         00038d 0000 
         00038f 00!  
    1546 000390 6199          BCC $C$L48,AR1 != #0 ; |874| 
    1547                                                      ; branchcc occurs ; |874| 
    1548 000392 20     nop
    1549 000393 46B2   bclr INTM
    1550 000395       $C$L48:    
    1551                      .dwpsn  file "../FreeRTOS/Source/queue.c",line 875,column 5,is_stmt
    1552 000395 3C14          MOV #1, T0
    1553 000397 0600          B $C$L59  ; |875| 
         000399 F0   
    1554                                                      ; branch occurs ; |875| 
    1555 00039a       $C$L49:    
    1556 00039a       $C$DW$L$_xQueueGenericSend$36$B:
    1557                      .dwpsn  file "../FreeRTOS/Source/queue.c",line 879,column 5,is_stmt
    1558 00039a ED08          MOV dbl(*SP(#4)), AC0 ; |879| 
         00039c 08   
    1559 00039d 0410          BCC $C$L51,AC0 != #0 ; |879| 
         00039f 21   
    1560                                                      ; branchcc occurs ; |879| 
    1561 0003a0       $C$DW$L$_xQueueGenericSend$36$E:
    1562                      .dwpsn  file "../FreeRTOS/Source/queue.c",line 883,column 6,is_stmt
    1563 0003a0 A931          MOV *(#_usCriticalNesting), AR1 ; |883| 
         0003a2 0000 
         0003a4 00!  
    1564 0003a5 0409          BCC $C$L50,AR1 == #0 ; |883| 
         0003a7 14   
    1565                                                      ; branchcc occurs ; |883| 
    1566 0003a8 F731          SUB #1, *(#_usCriticalNesting) ; |883| 
         0003aa FFFF 
         0003ac 0000 
         0003ae 00!  
    1567 0003af 20            NOP
TMS320C55x Assembler PC v4.4.1 Tue Sep 18 04:49:51 2018

Tools Copyright (c) 1996-2012 Texas Instruments Incorporated
queue.asm                                                            PAGE   33

    1568 0003b0 20            NOP
    1569 0003b1 20            NOP
    1570 0003b2 A931          MOV *(#_usCriticalNesting), AR1 ; |883| 
         0003b4 0000 
         0003b6 00!  
    1571 0003b7 6199          BCC $C$L50,AR1 != #0 ; |883| 
    1572                                                      ; branchcc occurs ; |883| 
    1573 0003b9 20     nop
    1574 0003ba 46B2   bclr INTM
    1575 0003bc       $C$L50:    
    1576                      .dwpsn  file "../FreeRTOS/Source/queue.c",line 888,column 6,is_stmt
    1577 0003bc 3C04          MOV #0, T0
    1578 0003be 0600          B $C$L59  ; |888| 
         0003c0 C9   
    1579                                                      ; branch occurs ; |888| 
    1580 0003c1       $C$L51:    
    1581 0003c1       $C$DW$L$_xQueueGenericSend$42$B:
    1582                      .dwpsn  file "../FreeRTOS/Source/queue.c",line 890,column 10,is_stmt
    1583 0003c1 A90E          MOV *SP(#7), AR1 ; |890| 
    1584 0003c3 6519          BCC $C$L52,AR1 != #0 ; |890| 
    1585                                                      ; branchcc occurs ; |890| 
    1586 0003c5       $C$DW$L$_xQueueGenericSend$42$E:
    1587 0003c5       $C$DW$L$_xQueueGenericSend$43$B:
    1588                      .dwpsn  file "../FreeRTOS/Source/queue.c",line 894,column 6,is_stmt
    1589 0003c5 EC14          AMAR *SP(#10), XAR0
         0003c7 8E   
    1590              $C$DW$142       .dwtag  DW_TAG_TI_branch
    1591                      .dwattr $C$DW$142, DW_AT_low_pc(0x00)
    1592                      .dwattr $C$DW$142, DW_AT_name("_vTaskInternalSetTimeOutState")
    1593                      .dwattr $C$DW$142, DW_AT_TI_call
    1594 0003c8 6C00          CALL #_vTaskInternalSetTimeOutState ; |894| 
         0003ca 0000!
    1595                                                      ; call occurs [#_vTaskInternalSetTimeOutState] ; |894| 
    1596                      .dwpsn  file "../FreeRTOS/Source/queue.c",line 895,column 6,is_stmt
    1597 0003cc E60E          MOV #1, *SP(#7) ; |895| 
         0003ce 01   
    1598                      .dwpsn  file "../FreeRTOS/Source/queue.c",line 896,column 5,is_stmt
    1599 0003cf       $C$DW$L$_xQueueGenericSend$43$E:
    1600 0003cf       $C$L52:    
    1601 0003cf       $C$DW$L$_xQueueGenericSend$44$B:
    1602                      .dwpsn  file "../FreeRTOS/Source/queue.c",line 904,column 3,is_stmt
    1603 0003cf A931          MOV *(#_usCriticalNesting), AR1 ; |904| 
         0003d1 0000 
         0003d3 00!  
    1604 0003d4 0409          BCC $C$L53,AR1 == #0 ; |904| 
         0003d6 14   
    1605                                                      ; branchcc occurs ; |904| 
    1606 0003d7       $C$DW$L$_xQueueGenericSend$44$E:
    1607 0003d7       $C$DW$L$_xQueueGenericSend$45$B:
    1608 0003d7 F731          SUB #1, *(#_usCriticalNesting) ; |904| 
         0003d9 FFFF 
         0003db 0000 
         0003dd 00!  
    1609 0003de 20            NOP
    1610 0003df 20            NOP
TMS320C55x Assembler PC v4.4.1 Tue Sep 18 04:49:51 2018

Tools Copyright (c) 1996-2012 Texas Instruments Incorporated
queue.asm                                                            PAGE   34

    1611 0003e0 20            NOP
    1612 0003e1 A931          MOV *(#_usCriticalNesting), AR1 ; |904| 
         0003e3 0000 
         0003e5 00!  
    1613 0003e6 6199          BCC $C$L53,AR1 != #0 ; |904| 
    1614                                                      ; branchcc occurs ; |904| 
    1615 0003e8       $C$DW$L$_xQueueGenericSend$45$E:
    1616 0003e8       $C$DW$L$_xQueueGenericSend$46$B:
    1617 0003e8 20     nop
    1618 0003e9 46B2   bclr INTM
    1619 0003eb       $C$DW$L$_xQueueGenericSend$46$E:
    1620 0003eb       $C$L53:    
    1621 0003eb       $C$DW$L$_xQueueGenericSend$47$B:
    1622                      .dwpsn  file "../FreeRTOS/Source/queue.c",line 909,column 3,is_stmt
    1623              $C$DW$143       .dwtag  DW_TAG_TI_branch
    1624                      .dwattr $C$DW$143, DW_AT_low_pc(0x00)
    1625                      .dwattr $C$DW$143, DW_AT_name("_vTaskSuspendAll")
    1626                      .dwattr $C$DW$143, DW_AT_TI_call
    1627 0003eb 6C00          CALL #_vTaskSuspendAll ; |909| 
         0003ed 0000!
    1628                                                      ; call occurs [#_vTaskSuspendAll] ; |909| 
    1629                      .dwpsn  file "../FreeRTOS/Source/queue.c",line 910,column 3,is_stmt
    1630 0003ef 20     nop
    1631 0003f0 46B3   bset INTM
    1632 0003f2 F731          ADD #1, *(#_usCriticalNesting) ; |910| 
         0003f4 0001 
         0003f6 0000 
         0003f8 00!  
    1633 0003f9 20            NOP
    1634 0003fa 20            NOP
    1635 0003fb ED1C          MOV dbl(*SP(#14)), XAR3
         0003fd BF   
    1636 0003fe F06D          CMP *AR3(#31) == #-1, TC1 ; |910| 
         000400 FFFF 
         000402 001F 
    1637 000404 62F4          BCC $C$L54,!TC1 ; |910| 
    1638                                                      ; branchcc occurs ; |910| 
    1639 000406       $C$DW$L$_xQueueGenericSend$47$E:
    1640 000406       $C$DW$L$_xQueueGenericSend$48$B:
    1641 000406 E66D          MOV #0, *AR3(#31) ; |910| 
         000408 0000 
         00040a 1F   
    1642 00040b       $C$DW$L$_xQueueGenericSend$48$E:
    1643 00040b       $C$L54:    
    1644 00040b       $C$DW$L$_xQueueGenericSend$49$B:
    1645 00040b ED1C          MOV dbl(*SP(#14)), XAR3
         00040d BF   
    1646 00040e F06D          CMP *AR3(#32) == #-1, TC1 ; |910| 
         000410 FFFF 
         000412 0020 
    1647 000414 62F4          BCC $C$L55,!TC1 ; |910| 
    1648                                                      ; branchcc occurs ; |910| 
    1649 000416       $C$DW$L$_xQueueGenericSend$49$E:
    1650 000416       $C$DW$L$_xQueueGenericSend$50$B:
    1651 000416 E66D          MOV #0, *AR3(#32) ; |910| 
TMS320C55x Assembler PC v4.4.1 Tue Sep 18 04:49:51 2018

Tools Copyright (c) 1996-2012 Texas Instruments Incorporated
queue.asm                                                            PAGE   35

         000418 0000 
         00041a 20   
    1652 00041b       $C$DW$L$_xQueueGenericSend$50$E:
    1653 00041b       $C$L55:    
    1654 00041b       $C$DW$L$_xQueueGenericSend$51$B:
    1655 00041b A931          MOV *(#_usCriticalNesting), AR1 ; |910| 
         00041d 0000 
         00041f 00!  
    1656 000420 0409          BCC $C$L56,AR1 == #0 ; |910| 
         000422 14   
    1657                                                      ; branchcc occurs ; |910| 
    1658 000423       $C$DW$L$_xQueueGenericSend$51$E:
    1659 000423       $C$DW$L$_xQueueGenericSend$52$B:
    1660 000423 F731          SUB #1, *(#_usCriticalNesting) ; |910| 
         000425 FFFF 
         000427 0000 
         000429 00!  
    1661 00042a 20            NOP
    1662 00042b 20            NOP
    1663 00042c 20            NOP
    1664 00042d A931          MOV *(#_usCriticalNesting), AR1 ; |910| 
         00042f 0000 
         000431 00!  
    1665 000432 6199          BCC $C$L56,AR1 != #0 ; |910| 
    1666                                                      ; branchcc occurs ; |910| 
    1667 000434       $C$DW$L$_xQueueGenericSend$52$E:
    1668 000434       $C$DW$L$_xQueueGenericSend$53$B:
    1669 000434 20     nop
    1670 000435 46B2   bclr INTM
    1671 000437       $C$DW$L$_xQueueGenericSend$53$E:
    1672 000437       $C$L56:    
    1673 000437       $C$DW$L$_xQueueGenericSend$54$B:
    1674                      .dwpsn  file "../FreeRTOS/Source/queue.c",line 913,column 3,is_stmt
    1675 000437 EC14          AMAR *SP(#10), XAR0
         000439 8E   
    1676 00043a EC08          AMAR *SP(#4), XAR1
         00043c 9E   
    1677              $C$DW$144       .dwtag  DW_TAG_TI_branch
    1678                      .dwattr $C$DW$144, DW_AT_low_pc(0x00)
    1679                      .dwattr $C$DW$144, DW_AT_name("_xTaskCheckForTimeOut")
    1680                      .dwattr $C$DW$144, DW_AT_TI_call
    1681 00043d 6C00          CALL #_xTaskCheckForTimeOut ; |913| 
         00043f 0000!
    1682                                                      ; call occurs [#_xTaskCheckForTimeOut] ; |913| 
    1683 000441 0414          BCC $C$L58,T0 != #0 ; |913| 
         000443 38   
    1684                                                      ; branchcc occurs ; |913| 
    1685 000444       $C$DW$L$_xQueueGenericSend$54$E:
    1686 000444       $C$DW$L$_xQueueGenericSend$55$B:
    1687                      .dwpsn  file "../FreeRTOS/Source/queue.c",line 915,column 4,is_stmt
    1688 000444 ED1C          MOV dbl(*SP(#14)), XAR0
         000446 8F   
    1689              $C$DW$145       .dwtag  DW_TAG_TI_branch
    1690                      .dwattr $C$DW$145, DW_AT_low_pc(0x00)
    1691                      .dwattr $C$DW$145, DW_AT_name("_prvIsQueueFull")
TMS320C55x Assembler PC v4.4.1 Tue Sep 18 04:49:51 2018

Tools Copyright (c) 1996-2012 Texas Instruments Incorporated
queue.asm                                                            PAGE   36

    1692                      .dwattr $C$DW$145, DW_AT_TI_call
    1693 000447 080C          CALL #_prvIsQueueFull ; |915| 
         000449 4E   
    1694                                                      ; call occurs [#_prvIsQueueFull] ; |915| 
    1695 00044a 0404          BCC $C$L57,T0 == #0 ; |915| 
         00044c 22   
    1696                                                      ; branchcc occurs ; |915| 
    1697 00044d       $C$DW$L$_xQueueGenericSend$55$E:
    1698 00044d       $C$DW$L$_xQueueGenericSend$56$B:
    1699                      .dwpsn  file "../FreeRTOS/Source/queue.c",line 918,column 5,is_stmt
    1700 00044d ED1C          MOV dbl(*SP(#14)), XAR0
         00044f 8F   
    1701              
    1702                      AADD #8, AR0 ; |918| 
    1703 000450 8E08  ||      MOV dbl(*SP(#4)), AC0 ; |918| 
         000452 8D1C 
         000454 0808 
    1704              
    1705              $C$DW$146       .dwtag  DW_TAG_TI_branch
    1706                      .dwattr $C$DW$146, DW_AT_low_pc(0x00)
    1707                      .dwattr $C$DW$146, DW_AT_name("_vTaskPlaceOnEventList")
    1708                      .dwattr $C$DW$146, DW_AT_TI_call
    1709 000456 6C00          CALL #_vTaskPlaceOnEventList ; |918| 
         000458 0000!
    1710                                                      ; call occurs [#_vTaskPlaceOnEventList] ; |918| 
    1711                      .dwpsn  file "../FreeRTOS/Source/queue.c",line 925,column 5,is_stmt
    1712 00045a ED1C          MOV dbl(*SP(#14)), XAR0
         00045c 8F   
    1713              $C$DW$147       .dwtag  DW_TAG_TI_branch
    1714                      .dwattr $C$DW$147, DW_AT_low_pc(0x00)
    1715                      .dwattr $C$DW$147, DW_AT_name("_prvUnlockQueue")
    1716                      .dwattr $C$DW$147, DW_AT_TI_call
    1717 00045d 080A          CALL #_prvUnlockQueue ; |925| 
         00045f E8   
    1718                                                      ; call occurs [#_prvUnlockQueue] ; |925| 
    1719                      .dwpsn  file "../FreeRTOS/Source/queue.c",line 932,column 5,is_stmt
    1720              $C$DW$148       .dwtag  DW_TAG_TI_branch
    1721                      .dwattr $C$DW$148, DW_AT_low_pc(0x00)
    1722                      .dwattr $C$DW$148, DW_AT_name("_xTaskResumeAll")
    1723                      .dwattr $C$DW$148, DW_AT_TI_call
    1724 000460 6C00          CALL #_xTaskResumeAll ; |932| 
         000462 0000!
    1725                                                      ; call occurs [#_xTaskResumeAll] ; |932| 
    1726 000464 6D14          BCC $C$L42,T0 != #0 ; |932| 
         000466 FEB6 
    1727                                                      ; branchcc occurs ; |932| 
    1728 000468       $C$DW$L$_xQueueGenericSend$56$E:
    1729 000468       $C$DW$L$_xQueueGenericSend$57$B:
    1730                      .dwpsn  file "../FreeRTOS/Source/queue.c",line 934,column 6,is_stmt
    1731              $C$DW$149       .dwtag  DW_TAG_TI_branch
    1732                      .dwattr $C$DW$149, DW_AT_low_pc(0x00)
    1733                      .dwattr $C$DW$149, DW_AT_name("_vPortYield")
    1734                      .dwattr $C$DW$149, DW_AT_TI_call
    1735 000468 6C00          CALL #_vPortYield ; |934| 
         00046a 0000!
TMS320C55x Assembler PC v4.4.1 Tue Sep 18 04:49:51 2018

Tools Copyright (c) 1996-2012 Texas Instruments Incorporated
queue.asm                                                            PAGE   37

    1736                                                      ; call occurs [#_vPortYield] ; |934| 
    1737                      .dwpsn  file "../FreeRTOS/Source/queue.c",line 936,column 4,is_stmt
    1738 00046c 06FE          B $C$L42  ; |936| 
         00046e AF   
    1739                                                      ; branch occurs ; |936| 
    1740 00046f       $C$DW$L$_xQueueGenericSend$57$E:
    1741 00046f       $C$L57:    
    1742 00046f       $C$DW$L$_xQueueGenericSend$58$B:
    1743                      .dwpsn  file "../FreeRTOS/Source/queue.c",line 940,column 5,is_stmt
    1744 00046f ED1C          MOV dbl(*SP(#14)), XAR0
         000471 8F   
    1745              $C$DW$150       .dwtag  DW_TAG_TI_branch
    1746                      .dwattr $C$DW$150, DW_AT_low_pc(0x00)
    1747                      .dwattr $C$DW$150, DW_AT_name("_prvUnlockQueue")
    1748                      .dwattr $C$DW$150, DW_AT_TI_call
    1749 000472 080A          CALL #_prvUnlockQueue ; |940| 
         000474 D3   
    1750                                                      ; call occurs [#_prvUnlockQueue] ; |940| 
    1751                      .dwpsn  file "../FreeRTOS/Source/queue.c",line 941,column 5,is_stmt
    1752              $C$DW$151       .dwtag  DW_TAG_TI_branch
    1753                      .dwattr $C$DW$151, DW_AT_low_pc(0x00)
    1754                      .dwattr $C$DW$151, DW_AT_name("_xTaskResumeAll")
    1755                      .dwattr $C$DW$151, DW_AT_TI_call
    1756 000475 6C00          CALL #_xTaskResumeAll ; |941| 
         000477 0000!
    1757                                                      ; call occurs [#_xTaskResumeAll] ; |941| 
    1758                      .dwpsn  file "../FreeRTOS/Source/queue.c",line 943,column 3,is_stmt
    1759 000479 06FE          B $C$L42  ; |943| 
         00047b A2   
    1760                                                      ; branch occurs ; |943| 
    1761 00047c       $C$DW$L$_xQueueGenericSend$58$E:
    1762 00047c       $C$L58:    
    1763                      .dwpsn  file "../FreeRTOS/Source/queue.c",line 947,column 4,is_stmt
    1764 00047c ED1C          MOV dbl(*SP(#14)), XAR0
         00047e 8F   
    1765              $C$DW$152       .dwtag  DW_TAG_TI_branch
    1766                      .dwattr $C$DW$152, DW_AT_low_pc(0x00)
    1767                      .dwattr $C$DW$152, DW_AT_name("_prvUnlockQueue")
    1768                      .dwattr $C$DW$152, DW_AT_TI_call
    1769 00047f 080A          CALL #_prvUnlockQueue ; |947| 
         000481 C6   
    1770                                                      ; call occurs [#_prvUnlockQueue] ; |947| 
    1771                      .dwpsn  file "../FreeRTOS/Source/queue.c",line 948,column 4,is_stmt
    1772              $C$DW$153       .dwtag  DW_TAG_TI_branch
    1773                      .dwattr $C$DW$153, DW_AT_low_pc(0x00)
    1774                      .dwattr $C$DW$153, DW_AT_name("_xTaskResumeAll")
    1775                      .dwattr $C$DW$153, DW_AT_TI_call
    1776 000482 6C00          CALL #_xTaskResumeAll ; |948| 
         000484 0000!
    1777                                                      ; call occurs [#_xTaskResumeAll] ; |948| 
    1778                      .dwpsn  file "../FreeRTOS/Source/queue.c",line 951,column 4,is_stmt
    1779 000486 3C04          MOV #0, T0
    1780 000488 4A00          B $C$L59  ; |951| 
    1781                                                      ; branch occurs ; |951| 
    1782 00048a       $C$L59:    
TMS320C55x Assembler PC v4.4.1 Tue Sep 18 04:49:51 2018

Tools Copyright (c) 1996-2012 Texas Instruments Incorporated
queue.asm                                                            PAGE   38

    1783                      .dwpsn  file "../FreeRTOS/Source/queue.c",line 954,column 1,is_stmt
    1784 00048a 4E11          AADD #17, SP
    1785                      .dwcfi  cfa_offset, 1
    1786              $C$DW$154       .dwtag  DW_TAG_TI_branch
    1787                      .dwattr $C$DW$154, DW_AT_low_pc(0x00)
    1788                      .dwattr $C$DW$154, DW_AT_TI_return
    1789 00048c 4804          RET
    1790                                                      ; return occurs
    1791              
    1792              $C$DW$155       .dwtag  DW_TAG_TI_loop
    1793                      .dwattr $C$DW$155, DW_AT_name("F:\eZdsp_DBG\eZDSP_5535_Files\ccsws2\test\Debug\queue.asm:$C$L42:1:153
    1794                      .dwattr $C$DW$155, DW_AT_TI_begin_file("../FreeRTOS/Source/queue.c")
    1795                      .dwattr $C$DW$155, DW_AT_TI_begin_line(0x2fe)
    1796                      .dwattr $C$DW$155, DW_AT_TI_end_line(0x3b9)
    1797              $C$DW$156       .dwtag  DW_TAG_TI_loop_range
    1798                      .dwattr $C$DW$156, DW_AT_low_pc($C$DW$L$_xQueueGenericSend$20$B)
    1799                      .dwattr $C$DW$156, DW_AT_high_pc($C$DW$L$_xQueueGenericSend$20$E)
    1800              $C$DW$157       .dwtag  DW_TAG_TI_loop_range
    1801                      .dwattr $C$DW$157, DW_AT_low_pc($C$DW$L$_xQueueGenericSend$21$B)
    1802                      .dwattr $C$DW$157, DW_AT_high_pc($C$DW$L$_xQueueGenericSend$21$E)
    1803              $C$DW$158       .dwtag  DW_TAG_TI_loop_range
    1804                      .dwattr $C$DW$158, DW_AT_low_pc($C$DW$L$_xQueueGenericSend$36$B)
    1805                      .dwattr $C$DW$158, DW_AT_high_pc($C$DW$L$_xQueueGenericSend$36$E)
    1806              $C$DW$159       .dwtag  DW_TAG_TI_loop_range
    1807                      .dwattr $C$DW$159, DW_AT_low_pc($C$DW$L$_xQueueGenericSend$42$B)
    1808                      .dwattr $C$DW$159, DW_AT_high_pc($C$DW$L$_xQueueGenericSend$42$E)
    1809              $C$DW$160       .dwtag  DW_TAG_TI_loop_range
    1810                      .dwattr $C$DW$160, DW_AT_low_pc($C$DW$L$_xQueueGenericSend$43$B)
    1811                      .dwattr $C$DW$160, DW_AT_high_pc($C$DW$L$_xQueueGenericSend$43$E)
    1812              $C$DW$161       .dwtag  DW_TAG_TI_loop_range
    1813                      .dwattr $C$DW$161, DW_AT_low_pc($C$DW$L$_xQueueGenericSend$44$B)
    1814                      .dwattr $C$DW$161, DW_AT_high_pc($C$DW$L$_xQueueGenericSend$44$E)
    1815              $C$DW$162       .dwtag  DW_TAG_TI_loop_range
    1816                      .dwattr $C$DW$162, DW_AT_low_pc($C$DW$L$_xQueueGenericSend$45$B)
    1817                      .dwattr $C$DW$162, DW_AT_high_pc($C$DW$L$_xQueueGenericSend$45$E)
    1818              $C$DW$163       .dwtag  DW_TAG_TI_loop_range
    1819                      .dwattr $C$DW$163, DW_AT_low_pc($C$DW$L$_xQueueGenericSend$46$B)
    1820                      .dwattr $C$DW$163, DW_AT_high_pc($C$DW$L$_xQueueGenericSend$46$E)
    1821              $C$DW$164       .dwtag  DW_TAG_TI_loop_range
    1822                      .dwattr $C$DW$164, DW_AT_low_pc($C$DW$L$_xQueueGenericSend$47$B)
    1823                      .dwattr $C$DW$164, DW_AT_high_pc($C$DW$L$_xQueueGenericSend$47$E)
    1824              $C$DW$165       .dwtag  DW_TAG_TI_loop_range
    1825                      .dwattr $C$DW$165, DW_AT_low_pc($C$DW$L$_xQueueGenericSend$48$B)
    1826                      .dwattr $C$DW$165, DW_AT_high_pc($C$DW$L$_xQueueGenericSend$48$E)
    1827              $C$DW$166       .dwtag  DW_TAG_TI_loop_range
    1828                      .dwattr $C$DW$166, DW_AT_low_pc($C$DW$L$_xQueueGenericSend$49$B)
    1829                      .dwattr $C$DW$166, DW_AT_high_pc($C$DW$L$_xQueueGenericSend$49$E)
    1830              $C$DW$167       .dwtag  DW_TAG_TI_loop_range
    1831                      .dwattr $C$DW$167, DW_AT_low_pc($C$DW$L$_xQueueGenericSend$50$B)
    1832                      .dwattr $C$DW$167, DW_AT_high_pc($C$DW$L$_xQueueGenericSend$50$E)
    1833              $C$DW$168       .dwtag  DW_TAG_TI_loop_range
    1834                      .dwattr $C$DW$168, DW_AT_low_pc($C$DW$L$_xQueueGenericSend$51$B)
    1835                      .dwattr $C$DW$168, DW_AT_high_pc($C$DW$L$_xQueueGenericSend$51$E)
    1836              $C$DW$169       .dwtag  DW_TAG_TI_loop_range
    1837                      .dwattr $C$DW$169, DW_AT_low_pc($C$DW$L$_xQueueGenericSend$52$B)
TMS320C55x Assembler PC v4.4.1 Tue Sep 18 04:49:51 2018

Tools Copyright (c) 1996-2012 Texas Instruments Incorporated
queue.asm                                                            PAGE   39

    1838                      .dwattr $C$DW$169, DW_AT_high_pc($C$DW$L$_xQueueGenericSend$52$E)
    1839              $C$DW$170       .dwtag  DW_TAG_TI_loop_range
    1840                      .dwattr $C$DW$170, DW_AT_low_pc($C$DW$L$_xQueueGenericSend$53$B)
    1841                      .dwattr $C$DW$170, DW_AT_high_pc($C$DW$L$_xQueueGenericSend$53$E)
    1842              $C$DW$171       .dwtag  DW_TAG_TI_loop_range
    1843                      .dwattr $C$DW$171, DW_AT_low_pc($C$DW$L$_xQueueGenericSend$54$B)
    1844                      .dwattr $C$DW$171, DW_AT_high_pc($C$DW$L$_xQueueGenericSend$54$E)
    1845              $C$DW$172       .dwtag  DW_TAG_TI_loop_range
    1846                      .dwattr $C$DW$172, DW_AT_low_pc($C$DW$L$_xQueueGenericSend$55$B)
    1847                      .dwattr $C$DW$172, DW_AT_high_pc($C$DW$L$_xQueueGenericSend$55$E)
    1848              $C$DW$173       .dwtag  DW_TAG_TI_loop_range
    1849                      .dwattr $C$DW$173, DW_AT_low_pc($C$DW$L$_xQueueGenericSend$58$B)
    1850                      .dwattr $C$DW$173, DW_AT_high_pc($C$DW$L$_xQueueGenericSend$58$E)
    1851              $C$DW$174       .dwtag  DW_TAG_TI_loop_range
    1852                      .dwattr $C$DW$174, DW_AT_low_pc($C$DW$L$_xQueueGenericSend$57$B)
    1853                      .dwattr $C$DW$174, DW_AT_high_pc($C$DW$L$_xQueueGenericSend$57$E)
    1854              $C$DW$175       .dwtag  DW_TAG_TI_loop_range
    1855                      .dwattr $C$DW$175, DW_AT_low_pc($C$DW$L$_xQueueGenericSend$56$B)
    1856                      .dwattr $C$DW$175, DW_AT_high_pc($C$DW$L$_xQueueGenericSend$56$E)
    1857                      .dwendtag $C$DW$155
    1858              
    1859              
    1860              $C$DW$176       .dwtag  DW_TAG_TI_loop
    1861                      .dwattr $C$DW$176, DW_AT_name("F:\eZdsp_DBG\eZDSP_5535_Files\ccsws2\test\Debug\queue.asm:$C$L41:1:153
    1862                      .dwattr $C$DW$176, DW_AT_TI_begin_file("../FreeRTOS/Source/queue.c")
    1863                      .dwattr $C$DW$176, DW_AT_TI_begin_line(0x2f3)
    1864                      .dwattr $C$DW$176, DW_AT_TI_end_line(0x2f3)
    1865              $C$DW$177       .dwtag  DW_TAG_TI_loop_range
    1866                      .dwattr $C$DW$177, DW_AT_low_pc($C$DW$L$_xQueueGenericSend$19$B)
    1867                      .dwattr $C$DW$177, DW_AT_high_pc($C$DW$L$_xQueueGenericSend$19$E)
    1868                      .dwendtag $C$DW$176
    1869              
    1870              
    1871              $C$DW$178       .dwtag  DW_TAG_TI_loop
    1872                      .dwattr $C$DW$178, DW_AT_name("F:\eZdsp_DBG\eZDSP_5535_Files\ccsws2\test\Debug\queue.asm:$C$L37:1:153
    1873                      .dwattr $C$DW$178, DW_AT_TI_begin_file("../FreeRTOS/Source/queue.c")
    1874                      .dwattr $C$DW$178, DW_AT_TI_begin_line(0x2f2)
    1875                      .dwattr $C$DW$178, DW_AT_TI_end_line(0x2f2)
    1876              $C$DW$179       .dwtag  DW_TAG_TI_loop_range
    1877                      .dwattr $C$DW$179, DW_AT_low_pc($C$DW$L$_xQueueGenericSend$11$B)
    1878                      .dwattr $C$DW$179, DW_AT_high_pc($C$DW$L$_xQueueGenericSend$11$E)
    1879                      .dwendtag $C$DW$178
    1880              
    1881              
    1882              $C$DW$180       .dwtag  DW_TAG_TI_loop
    1883                      .dwattr $C$DW$180, DW_AT_name("F:\eZdsp_DBG\eZDSP_5535_Files\ccsws2\test\Debug\queue.asm:$C$L33:1:153
    1884                      .dwattr $C$DW$180, DW_AT_TI_begin_file("../FreeRTOS/Source/queue.c")
    1885                      .dwattr $C$DW$180, DW_AT_TI_begin_line(0x2f1)
    1886                      .dwattr $C$DW$180, DW_AT_TI_end_line(0x2f1)
    1887              $C$DW$181       .dwtag  DW_TAG_TI_loop_range
    1888                      .dwattr $C$DW$181, DW_AT_low_pc($C$DW$L$_xQueueGenericSend$3$B)
    1889                      .dwattr $C$DW$181, DW_AT_high_pc($C$DW$L$_xQueueGenericSend$3$E)
    1890                      .dwendtag $C$DW$180
    1891              
    1892                      .dwattr $C$DW$125, DW_AT_TI_end_file("../FreeRTOS/Source/queue.c")
TMS320C55x Assembler PC v4.4.1 Tue Sep 18 04:49:51 2018

Tools Copyright (c) 1996-2012 Texas Instruments Incorporated
queue.asm                                                            PAGE   40

    1893                      .dwattr $C$DW$125, DW_AT_TI_end_line(0x3ba)
    1894                      .dwattr $C$DW$125, DW_AT_TI_end_column(0x01)
    1895                      .dwendentry
    1896                      .dwendtag $C$DW$125
    1897              
    1898 00048e               .sect   ".text"
    1899                      .align 4
    1900                      .global _xQueueGenericSendFromISR
    1901              
    1902              $C$DW$182       .dwtag  DW_TAG_subprogram, DW_AT_name("xQueueGenericSendFromISR")
    1903                      .dwattr $C$DW$182, DW_AT_low_pc(_xQueueGenericSendFromISR)
    1904                      .dwattr $C$DW$182, DW_AT_high_pc(0x00)
    1905                      .dwattr $C$DW$182, DW_AT_TI_symbol_name("_xQueueGenericSendFromISR")
    1906                      .dwattr $C$DW$182, DW_AT_external
    1907                      .dwattr $C$DW$182, DW_AT_type(*$C$DW$T$49)
    1908                      .dwattr $C$DW$182, DW_AT_TI_begin_file("../FreeRTOS/Source/queue.c")
    1909                      .dwattr $C$DW$182, DW_AT_TI_begin_line(0x3bd)
    1910                      .dwattr $C$DW$182, DW_AT_TI_begin_column(0x0c)
    1911                      .dwattr $C$DW$182, DW_AT_TI_max_frame_size(0x0e)
    1912                      .dwpsn  file "../FreeRTOS/Source/queue.c",line 958,column 1,is_stmt,address _xQueueGenericSendFromISR
    1913              
    1914                      .dwfde $C$DW$CIE, _xQueueGenericSendFromISR
    1915              $C$DW$183       .dwtag  DW_TAG_formal_parameter, DW_AT_name("xQueue")
    1916                      .dwattr $C$DW$183, DW_AT_TI_symbol_name("_xQueue")
    1917                      .dwattr $C$DW$183, DW_AT_type(*$C$DW$T$27)
    1918                      .dwattr $C$DW$183, DW_AT_location[DW_OP_reg17]
    1919              $C$DW$184       .dwtag  DW_TAG_formal_parameter, DW_AT_name("pvItemToQueue")
    1920                      .dwattr $C$DW$184, DW_AT_TI_symbol_name("_pvItemToQueue")
    1921                      .dwattr $C$DW$184, DW_AT_type(*$C$DW$T$77)
    1922                      .dwattr $C$DW$184, DW_AT_location[DW_OP_reg19]
    1923              $C$DW$185       .dwtag  DW_TAG_formal_parameter, DW_AT_name("pxHigherPriorityTaskWoken")
    1924                      .dwattr $C$DW$185, DW_AT_TI_symbol_name("_pxHigherPriorityTaskWoken")
    1925                      .dwattr $C$DW$185, DW_AT_type(*$C$DW$T$132)
    1926                      .dwattr $C$DW$185, DW_AT_location[DW_OP_reg21]
    1927              $C$DW$186       .dwtag  DW_TAG_formal_parameter, DW_AT_name("xCopyPosition")
    1928                      .dwattr $C$DW$186, DW_AT_TI_symbol_name("_xCopyPosition")
    1929                      .dwattr $C$DW$186, DW_AT_type(*$C$DW$T$110)
    1930                      .dwattr $C$DW$186, DW_AT_location[DW_OP_reg12]
    1931              ;*******************************************************************************
    1932              ;* FUNCTION NAME: xQueueGenericSendFromISR                                     *
    1933              ;*                                                                             *
    1934              ;*   Function Uses Regs : AC0,AC0,T0,AR0,XAR0,AR1,XAR1,AR2,XAR2,AR3,XAR3,SP,   *
    1935              ;*                        CARRY,TC1,M40,SATA,SATD,RDM,FRCT,SMUL                *
    1936              ;*   Stack Frame        : Compact (No Frame Pointer, w/ debug)                 *
    1937              ;*   Total Frame Size   : 14 words                                             *
    1938              ;*                        (1 return address/alignment)                         *
    1939              ;*                        (13 local values)                                    *
    1940              ;*   Min System Stack   : 1 word                                               *
    1941              ;*******************************************************************************
    1942 000490       _xQueueGenericSendFromISR:
    1943                      .dwcfi  cfa_offset, 1
    1944                      .dwcfi  save_reg_to_mem, 91, -1
    1945 000490 4EF3          AADD #-13, SP
    1946                      .dwcfi  cfa_offset, 14
    1947              $C$DW$187       .dwtag  DW_TAG_variable, DW_AT_name("xQueue")
TMS320C55x Assembler PC v4.4.1 Tue Sep 18 04:49:51 2018

Tools Copyright (c) 1996-2012 Texas Instruments Incorporated
queue.asm                                                            PAGE   41

    1948                      .dwattr $C$DW$187, DW_AT_TI_symbol_name("_xQueue")
    1949                      .dwattr $C$DW$187, DW_AT_type(*$C$DW$T$27)
    1950                      .dwattr $C$DW$187, DW_AT_location[DW_OP_bregx 0x24 0]
    1951              $C$DW$188       .dwtag  DW_TAG_variable, DW_AT_name("pvItemToQueue")
    1952                      .dwattr $C$DW$188, DW_AT_TI_symbol_name("_pvItemToQueue")
    1953                      .dwattr $C$DW$188, DW_AT_type(*$C$DW$T$77)
    1954                      .dwattr $C$DW$188, DW_AT_location[DW_OP_bregx 0x24 2]
    1955              $C$DW$189       .dwtag  DW_TAG_variable, DW_AT_name("pxHigherPriorityTaskWoken")
    1956                      .dwattr $C$DW$189, DW_AT_TI_symbol_name("_pxHigherPriorityTaskWoken")
    1957                      .dwattr $C$DW$189, DW_AT_type(*$C$DW$T$132)
    1958                      .dwattr $C$DW$189, DW_AT_location[DW_OP_bregx 0x24 4]
    1959              $C$DW$190       .dwtag  DW_TAG_variable, DW_AT_name("xCopyPosition")
    1960                      .dwattr $C$DW$190, DW_AT_TI_symbol_name("_xCopyPosition")
    1961                      .dwattr $C$DW$190, DW_AT_type(*$C$DW$T$110)
    1962                      .dwattr $C$DW$190, DW_AT_location[DW_OP_bregx 0x24 6]
    1963              $C$DW$191       .dwtag  DW_TAG_variable, DW_AT_name("xReturn")
    1964                      .dwattr $C$DW$191, DW_AT_TI_symbol_name("_xReturn")
    1965                      .dwattr $C$DW$191, DW_AT_type(*$C$DW$T$49)
    1966                      .dwattr $C$DW$191, DW_AT_location[DW_OP_bregx 0x24 7]
    1967              $C$DW$192       .dwtag  DW_TAG_variable, DW_AT_name("uxSavedInterruptStatus")
    1968                      .dwattr $C$DW$192, DW_AT_TI_symbol_name("_uxSavedInterruptStatus")
    1969                      .dwattr $C$DW$192, DW_AT_type(*$C$DW$T$32)
    1970                      .dwattr $C$DW$192, DW_AT_location[DW_OP_bregx 0x24 8]
    1971              $C$DW$193       .dwtag  DW_TAG_variable, DW_AT_name("pxQueue")
    1972                      .dwattr $C$DW$193, DW_AT_TI_symbol_name("_pxQueue")
    1973                      .dwattr $C$DW$193, DW_AT_type(*$C$DW$T$69)
    1974                      .dwattr $C$DW$193, DW_AT_location[DW_OP_bregx 0x24 10]
    1975 000492 C40C          MOV T0, *SP(#6) ; |958| 
    1976 000494 EB08          MOV XAR2, dbl(*SP(#4))
         000496 A5   
    1977 000497 EB04          MOV XAR1, dbl(*SP(#2))
         000499 95   
    1978 00049a EB00          MOV XAR0, dbl(*SP(#0))
         00049c 85   
    1979                      .dwpsn  file "../FreeRTOS/Source/queue.c",line 961,column 17,is_stmt
    1980 00049d ED00          MOV dbl(*SP(#0)), XAR3
         00049f BF   
    1981 0004a0 EB14          MOV XAR3, dbl(*SP(#10))
         0004a2 B5   
    1982                      .dwpsn  file "../FreeRTOS/Source/queue.c",line 963,column 2,is_stmt
    1983 0004a3 90B0          MOV XAR3, AC0
    1984 0004a5 6290          BCC $C$L61,AC0 != #0 ; |963| 
    1985                                                      ; branchcc occurs ; |963| 
    1986 0004a7 20     nop
    1987 0004a8 46B3   bset INTM
    1988 0004aa       $C$L60:    
    1989 0004aa       $C$DW$L$_xQueueGenericSendFromISR$3$B:
    1990 0004aa 4A7E          B $C$L60  ; |963| 
    1991                                                      ; branch occurs ; |963| 
    1992 0004ac       $C$DW$L$_xQueueGenericSendFromISR$3$E:
    1993 0004ac       $C$L61:    
    1994                      .dwpsn  file "../FreeRTOS/Source/queue.c",line 964,column 2,is_stmt
    1995 0004ac ED04          MOV dbl(*SP(#2)), XAR3
         0004ae BF   
    1996 0004af 90B0          MOV XAR3, AC0
TMS320C55x Assembler PC v4.4.1 Tue Sep 18 04:49:51 2018

Tools Copyright (c) 1996-2012 Texas Instruments Incorporated
queue.asm                                                            PAGE   42

    1997 0004b1 3C0A          MOV #0, AR2
    1998              
    1999 0004b3 6590          BCC $C$L62,AC0 != #0 ; |964| 
    2000 0004b5 3D09  ||      MOV #0, AR1
    2001              
    2002                                                      ; branchcc occurs ; |964| 
    2003 0004b7 ED14          MOV dbl(*SP(#10)), XAR3
         0004b9 BF   
    2004 0004ba AB6D          MOV *AR3(#30), AR3 ; |964| 
         0004bc 001E 
    2005 0004be 610B          BCC $C$L62,AR3 == #0 ; |964| 
    2006                                                      ; branchcc occurs ; |964| 
    2007 0004c0 3C1A          MOV #1, AR2
    2008 0004c2       $C$L62:    
    2009 0004c2 611A          BCC $C$L63,AR2 != #0 ; |964| 
    2010                                                      ; branchcc occurs ; |964| 
    2011 0004c4 3C19          MOV #1, AR1
    2012 0004c6       $C$L63:    
    2013 0004c6 6299          BCC $C$L65,AR1 != #0 ; |964| 
    2014                                                      ; branchcc occurs ; |964| 
    2015 0004c8 20     nop
    2016 0004c9 46B3   bset INTM
    2017 0004cb       $C$L64:    
    2018 0004cb       $C$DW$L$_xQueueGenericSendFromISR$11$B:
    2019 0004cb 4A7E          B $C$L64  ; |964| 
    2020                                                      ; branch occurs ; |964| 
    2021 0004cd       $C$DW$L$_xQueueGenericSendFromISR$11$E:
    2022 0004cd       $C$L65:    
    2023                      .dwpsn  file "../FreeRTOS/Source/queue.c",line 965,column 2,is_stmt
    2024 0004cd F00C          CMP *SP(#6) == #2, TC1 ; |965| 
         0004cf 0002 
    2025 0004d1 3C0A          MOV #0, AR2
    2026              
    2027 0004d3 66F4          BCC $C$L66,!TC1 ; |965| 
    2028 0004d5 3D09  ||      MOV #0, AR1
    2029              
    2030                                                      ; branchcc occurs ; |965| 
    2031 0004d7 ED14          MOV dbl(*SP(#10)), XAR3
         0004d9 BF   
    2032 0004da F06D          CMP *AR3(#29) == #1, TC1 ; |965| 
         0004dc 0001 
         0004de 001D 
    2033 0004e0 6164          BCC $C$L66,TC1 ; |965| 
    2034                                                      ; branchcc occurs ; |965| 
    2035 0004e2 3C1A          MOV #1, AR2
    2036 0004e4       $C$L66:    
    2037 0004e4 611A          BCC $C$L67,AR2 != #0 ; |965| 
    2038                                                      ; branchcc occurs ; |965| 
    2039 0004e6 3C19          MOV #1, AR1
    2040 0004e8       $C$L67:    
    2041 0004e8 6299          BCC $C$L69,AR1 != #0 ; |965| 
    2042                                                      ; branchcc occurs ; |965| 
    2043 0004ea 20     nop
    2044 0004eb 46B3   bset INTM
    2045 0004ed       $C$L68:    
TMS320C55x Assembler PC v4.4.1 Tue Sep 18 04:49:51 2018

Tools Copyright (c) 1996-2012 Texas Instruments Incorporated
queue.asm                                                            PAGE   43

    2046 0004ed       $C$DW$L$_xQueueGenericSendFromISR$19$B:
    2047 0004ed 4A7E          B $C$L68  ; |965| 
    2048                                                      ; branch occurs ; |965| 
    2049 0004ef       $C$DW$L$_xQueueGenericSendFromISR$19$E:
    2050 0004ef       $C$L69:    
    2051                      .dwpsn  file "../FreeRTOS/Source/queue.c",line 988,column 2,is_stmt
    2052 0004ef E610          MOV #0, *SP(#8) ; |988| 
         0004f1 00   
    2053                      .dwpsn  file "../FreeRTOS/Source/queue.c",line 990,column 3,is_stmt
    2054 0004f2 ED14          MOV dbl(*SP(#10)), XAR3
         0004f4 BF   
    2055 0004f5 A96D          MOV *AR3(#29), AR1 ; |990| 
         0004f7 001D 
    2056 0004f9 AA6D          MOV *AR3(#28), AR2 ; |990| 
         0004fb 001C 
    2057 0004fd 12A4          CMPU AR2 < AR1, TC1 ; |990| 
         0004ff 94   
    2058 000500 63E4          BCC $C$L70,TC1 ; |990| 
    2059                                                      ; branchcc occurs ; |990| 
    2060 000502 F00C          CMP *SP(#6) == #2, TC1 ; |990| 
         000504 0002 
    2061 000506 0474          BCC $C$L75,!TC1 ; |990| 
         000508 54   
    2062                                                      ; branchcc occurs ; |990| 
    2063 000509       $C$L70:    
    2064              
    2065              $C$DW$194       .dwtag  DW_TAG_lexical_block, DW_AT_low_pc(0x00), DW_AT_high_pc(0x00)
    2066              $C$DW$195       .dwtag  DW_TAG_variable, DW_AT_name("cTxLock")
    2067                      .dwattr $C$DW$195, DW_AT_TI_symbol_name("_cTxLock")
    2068                      .dwattr $C$DW$195, DW_AT_type(*$C$DW$T$109)
    2069                      .dwattr $C$DW$195, DW_AT_location[DW_OP_bregx 0x24 12]
    2070                      .dwpsn  file "../FreeRTOS/Source/queue.c",line 992,column 17,is_stmt
    2071 000509 A96D          MOV *AR3(#32), AR1 ; |992| 
         00050b 0020 
    2072 00050d C918          MOV AR1, *SP(#12) ; |992| 
    2073                      .dwpsn  file "../FreeRTOS/Source/queue.c",line 1001,column 4,is_stmt
    2074 00050f ED14          MOV dbl(*SP(#10)), XAR0
         000511 8F   
    2075 000512 A40C          MOV *SP(#6), T0 ; |1001| 
    2076 000514 ED04          MOV dbl(*SP(#2)), XAR1
         000516 9F   
    2077              $C$DW$196       .dwtag  DW_TAG_TI_branch
    2078                      .dwattr $C$DW$196, DW_AT_low_pc(0x00)
    2079                      .dwattr $C$DW$196, DW_AT_name("_prvCopyDataToQueue")
    2080                      .dwattr $C$DW$196, DW_AT_TI_call
    2081 000517 0808          CALL #_prvCopyDataToQueue ; |1001| 
         000519 E2   
    2082                                                      ; call occurs [#_prvCopyDataToQueue] ; |1001| 
    2083                      .dwpsn  file "../FreeRTOS/Source/queue.c",line 1005,column 4,is_stmt
    2084 00051a F018          CMP *SP(#12) == #-1, TC1 ; |1005| 
         00051c FFFF 
    2085 00051e 0474          BCC $C$L73,!TC1 ; |1005| 
         000520 2C   
    2086                                                      ; branchcc occurs ; |1005| 
    2087                      .dwpsn  file "../FreeRTOS/Source/queue.c",line 1060,column 6,is_stmt
TMS320C55x Assembler PC v4.4.1 Tue Sep 18 04:49:51 2018

Tools Copyright (c) 1996-2012 Texas Instruments Incorporated
queue.asm                                                            PAGE   44

    2088 000521 ED14          MOV dbl(*SP(#10)), XAR3
         000523 BF   
    2089 000524 A96D          MOV *AR3(#18), AR1 ; |1060| 
         000526 0012 
    2090 000528 6219          BCC $C$L71,AR1 != #0 ; |1060| 
    2091                                                      ; branchcc occurs ; |1060| 
    2092 00052a 3C19          MOV #1, AR1
    2093 00052c 4A02          B $C$L72  ; |1060| 
    2094                                                      ; branch occurs ; |1060| 
    2095 00052e       $C$L71:    
    2096 00052e 3C09          MOV #0, AR1
    2097 000530       $C$L72:    
    2098 000530 0419          BCC $C$L74,AR1 != #0 ; |1060| 
         000532 25   
    2099                                                      ; branchcc occurs ; |1060| 
    2100                      .dwpsn  file "../FreeRTOS/Source/queue.c",line 1062,column 7,is_stmt
    2101 000533 ED14          MOV dbl(*SP(#10)), XAR0
         000535 8F   
    2102 000536 1412          AADD #18, AR0 ; |1062| 
         000538 84   
    2103              $C$DW$197       .dwtag  DW_TAG_TI_branch
    2104                      .dwattr $C$DW$197, DW_AT_low_pc(0x00)
    2105                      .dwattr $C$DW$197, DW_AT_name("_xTaskRemoveFromEventList")
    2106                      .dwattr $C$DW$197, DW_AT_TI_call
    2107 000539 6C00          CALL #_xTaskRemoveFromEventList ; |1062| 
         00053b 0000!
    2108                                                      ; call occurs [#_xTaskRemoveFromEventList] ; |1062| 
    2109 00053d 0404          BCC $C$L74,T0 == #0 ; |1062| 
         00053f 18   
    2110                                                      ; branchcc occurs ; |1062| 
    2111                      .dwpsn  file "../FreeRTOS/Source/queue.c",line 1066,column 8,is_stmt
    2112 000540 ED08          MOV dbl(*SP(#4)), XAR3
         000542 BF   
    2113 000543 90B0          MOV XAR3, AC0
    2114 000545 0400          BCC $C$L74,AC0 == #0 ; |1066| 
         000547 10   
    2115                                                      ; branchcc occurs ; |1066| 
    2116                      .dwpsn  file "../FreeRTOS/Source/queue.c",line 1068,column 9,is_stmt
    2117 000548 E661          MOV #1, *AR3 ; |1068| 
         00054a 01   
    2118                      .dwpsn  file "../FreeRTOS/Source/queue.c",line 1069,column 8,is_stmt
    2119 00054b 4A0B          B $C$L74  ; |1069| 
    2120                                                      ; branch occurs ; |1069| 
    2121 00054d       $C$L73:    
    2122                      .dwpsn  file "../FreeRTOS/Source/queue.c",line 1091,column 5,is_stmt
    2123 00054d ED14          MOV dbl(*SP(#10)), XAR3
         00054f BF   
    2124 000550 A918          MOV *SP(#12), AR1 ; |1091| 
    2125 000552 4019          ADD #1, AR1 ; |1091| 
    2126 000554 C96D          MOV AR1, *AR3(#32) ; |1091| 
         000556 0020 
    2127 000558       $C$L74:    
    2128                      .dwpsn  file "../FreeRTOS/Source/queue.c",line 1094,column 4,is_stmt
    2129 000558 E60E          MOV #1, *SP(#7) ; |1094| 
         00055a 01   
TMS320C55x Assembler PC v4.4.1 Tue Sep 18 04:49:51 2018

Tools Copyright (c) 1996-2012 Texas Instruments Incorporated
queue.asm                                                            PAGE   45

    2130                      .dwendtag $C$DW$194
    2131              
    2132                      .dwpsn  file "../FreeRTOS/Source/queue.c",line 1095,column 3,is_stmt
    2133 00055b 4A03          B $C$L76  ; |1095| 
    2134                                                      ; branch occurs ; |1095| 
    2135 00055d       $C$L75:    
    2136                      .dwpsn  file "../FreeRTOS/Source/queue.c",line 1099,column 4,is_stmt
    2137 00055d E60E          MOV #0, *SP(#7) ; |1099| 
         00055f 00   
    2138 000560       $C$L76:    
    2139                      .dwpsn  file "../FreeRTOS/Source/queue.c",line 1102,column 2,is_stmt
    2140                      .dwpsn  file "../FreeRTOS/Source/queue.c",line 1104,column 2,is_stmt
    2141 000560 A40E          MOV *SP(#7), T0 ; |1104| 
    2142                      .dwpsn  file "../FreeRTOS/Source/queue.c",line 1105,column 1,is_stmt
    2143 000562 4E0D          AADD #13, SP
    2144                      .dwcfi  cfa_offset, 1
    2145              $C$DW$198       .dwtag  DW_TAG_TI_branch
    2146                      .dwattr $C$DW$198, DW_AT_low_pc(0x00)
    2147                      .dwattr $C$DW$198, DW_AT_TI_return
    2148 000564 4804          RET
    2149                                                      ; return occurs
    2150              
    2151              $C$DW$199       .dwtag  DW_TAG_TI_loop
    2152                      .dwattr $C$DW$199, DW_AT_name("F:\eZdsp_DBG\eZDSP_5535_Files\ccsws2\test\Debug\queue.asm:$C$L68:1:153
    2153                      .dwattr $C$DW$199, DW_AT_TI_begin_file("../FreeRTOS/Source/queue.c")
    2154                      .dwattr $C$DW$199, DW_AT_TI_begin_line(0x3c5)
    2155                      .dwattr $C$DW$199, DW_AT_TI_end_line(0x3c5)
    2156              $C$DW$200       .dwtag  DW_TAG_TI_loop_range
    2157                      .dwattr $C$DW$200, DW_AT_low_pc($C$DW$L$_xQueueGenericSendFromISR$19$B)
    2158                      .dwattr $C$DW$200, DW_AT_high_pc($C$DW$L$_xQueueGenericSendFromISR$19$E)
    2159                      .dwendtag $C$DW$199
    2160              
    2161              
    2162              $C$DW$201       .dwtag  DW_TAG_TI_loop
    2163                      .dwattr $C$DW$201, DW_AT_name("F:\eZdsp_DBG\eZDSP_5535_Files\ccsws2\test\Debug\queue.asm:$C$L64:1:153
    2164                      .dwattr $C$DW$201, DW_AT_TI_begin_file("../FreeRTOS/Source/queue.c")
    2165                      .dwattr $C$DW$201, DW_AT_TI_begin_line(0x3c4)
    2166                      .dwattr $C$DW$201, DW_AT_TI_end_line(0x3c4)
    2167              $C$DW$202       .dwtag  DW_TAG_TI_loop_range
    2168                      .dwattr $C$DW$202, DW_AT_low_pc($C$DW$L$_xQueueGenericSendFromISR$11$B)
    2169                      .dwattr $C$DW$202, DW_AT_high_pc($C$DW$L$_xQueueGenericSendFromISR$11$E)
    2170                      .dwendtag $C$DW$201
    2171              
    2172              
    2173              $C$DW$203       .dwtag  DW_TAG_TI_loop
    2174                      .dwattr $C$DW$203, DW_AT_name("F:\eZdsp_DBG\eZDSP_5535_Files\ccsws2\test\Debug\queue.asm:$C$L60:1:153
    2175                      .dwattr $C$DW$203, DW_AT_TI_begin_file("../FreeRTOS/Source/queue.c")
    2176                      .dwattr $C$DW$203, DW_AT_TI_begin_line(0x3c3)
    2177                      .dwattr $C$DW$203, DW_AT_TI_end_line(0x3c3)
    2178              $C$DW$204       .dwtag  DW_TAG_TI_loop_range
    2179                      .dwattr $C$DW$204, DW_AT_low_pc($C$DW$L$_xQueueGenericSendFromISR$3$B)
    2180                      .dwattr $C$DW$204, DW_AT_high_pc($C$DW$L$_xQueueGenericSendFromISR$3$E)
    2181                      .dwendtag $C$DW$203
    2182              
    2183                      .dwattr $C$DW$182, DW_AT_TI_end_file("../FreeRTOS/Source/queue.c")
TMS320C55x Assembler PC v4.4.1 Tue Sep 18 04:49:51 2018

Tools Copyright (c) 1996-2012 Texas Instruments Incorporated
queue.asm                                                            PAGE   46

    2184                      .dwattr $C$DW$182, DW_AT_TI_end_line(0x451)
    2185                      .dwattr $C$DW$182, DW_AT_TI_end_column(0x01)
    2186                      .dwendentry
    2187                      .dwendtag $C$DW$182
    2188              
    2189 000566               .sect   ".text"
    2190                      .align 4
    2191                      .global _xQueueGiveFromISR
    2192              
    2193              $C$DW$205       .dwtag  DW_TAG_subprogram, DW_AT_name("xQueueGiveFromISR")
    2194                      .dwattr $C$DW$205, DW_AT_low_pc(_xQueueGiveFromISR)
    2195                      .dwattr $C$DW$205, DW_AT_high_pc(0x00)
    2196                      .dwattr $C$DW$205, DW_AT_TI_symbol_name("_xQueueGiveFromISR")
    2197                      .dwattr $C$DW$205, DW_AT_external
    2198                      .dwattr $C$DW$205, DW_AT_type(*$C$DW$T$49)
    2199                      .dwattr $C$DW$205, DW_AT_TI_begin_file("../FreeRTOS/Source/queue.c")
    2200                      .dwattr $C$DW$205, DW_AT_TI_begin_line(0x454)
    2201                      .dwattr $C$DW$205, DW_AT_TI_begin_column(0x0c)
    2202                      .dwattr $C$DW$205, DW_AT_TI_max_frame_size(0x0c)
    2203                      .dwpsn  file "../FreeRTOS/Source/queue.c",line 1109,column 1,is_stmt,address _xQueueGiveFromISR
    2204              
    2205                      .dwfde $C$DW$CIE, _xQueueGiveFromISR
    2206              $C$DW$206       .dwtag  DW_TAG_formal_parameter, DW_AT_name("xQueue")
    2207                      .dwattr $C$DW$206, DW_AT_TI_symbol_name("_xQueue")
    2208                      .dwattr $C$DW$206, DW_AT_type(*$C$DW$T$27)
    2209                      .dwattr $C$DW$206, DW_AT_location[DW_OP_reg17]
    2210              $C$DW$207       .dwtag  DW_TAG_formal_parameter, DW_AT_name("pxHigherPriorityTaskWoken")
    2211                      .dwattr $C$DW$207, DW_AT_TI_symbol_name("_pxHigherPriorityTaskWoken")
    2212                      .dwattr $C$DW$207, DW_AT_type(*$C$DW$T$132)
    2213                      .dwattr $C$DW$207, DW_AT_location[DW_OP_reg19]
    2214              ;*******************************************************************************
    2215              ;* FUNCTION NAME: xQueueGiveFromISR                                            *
    2216              ;*                                                                             *
    2217              ;*   Function Uses Regs : AC0,AC0,T0,AR0,XAR0,AR1,XAR1,AR2,AR3,XAR3,SP,CARRY,  *
    2218              ;*                        TC1,M40,SATA,SATD,RDM,FRCT,SMUL                      *
    2219              ;*   Stack Frame        : Compact (No Frame Pointer, w/ debug)                 *
    2220              ;*   Total Frame Size   : 12 words                                             *
    2221              ;*                        (2 return address/alignment)                         *
    2222              ;*                        (10 local values)                                    *
    2223              ;*   Min System Stack   : 1 word                                               *
    2224              ;*******************************************************************************
    2225 000568       _xQueueGiveFromISR:
    2226                      .dwcfi  cfa_offset, 1
    2227                      .dwcfi  save_reg_to_mem, 91, -1
    2228 000568 4EF5          AADD #-11, SP
    2229                      .dwcfi  cfa_offset, 12
    2230              $C$DW$208       .dwtag  DW_TAG_variable, DW_AT_name("xQueue")
    2231                      .dwattr $C$DW$208, DW_AT_TI_symbol_name("_xQueue")
    2232                      .dwattr $C$DW$208, DW_AT_type(*$C$DW$T$27)
    2233                      .dwattr $C$DW$208, DW_AT_location[DW_OP_bregx 0x24 0]
    2234              $C$DW$209       .dwtag  DW_TAG_variable, DW_AT_name("pxHigherPriorityTaskWoken")
    2235                      .dwattr $C$DW$209, DW_AT_TI_symbol_name("_pxHigherPriorityTaskWoken")
    2236                      .dwattr $C$DW$209, DW_AT_type(*$C$DW$T$132)
    2237                      .dwattr $C$DW$209, DW_AT_location[DW_OP_bregx 0x24 2]
    2238              $C$DW$210       .dwtag  DW_TAG_variable, DW_AT_name("xReturn")
TMS320C55x Assembler PC v4.4.1 Tue Sep 18 04:49:51 2018

Tools Copyright (c) 1996-2012 Texas Instruments Incorporated
queue.asm                                                            PAGE   47

    2239                      .dwattr $C$DW$210, DW_AT_TI_symbol_name("_xReturn")
    2240                      .dwattr $C$DW$210, DW_AT_type(*$C$DW$T$49)
    2241                      .dwattr $C$DW$210, DW_AT_location[DW_OP_bregx 0x24 4]
    2242              $C$DW$211       .dwtag  DW_TAG_variable, DW_AT_name("uxSavedInterruptStatus")
    2243                      .dwattr $C$DW$211, DW_AT_TI_symbol_name("_uxSavedInterruptStatus")
    2244                      .dwattr $C$DW$211, DW_AT_type(*$C$DW$T$32)
    2245                      .dwattr $C$DW$211, DW_AT_location[DW_OP_bregx 0x24 5]
    2246              $C$DW$212       .dwtag  DW_TAG_variable, DW_AT_name("pxQueue")
    2247                      .dwattr $C$DW$212, DW_AT_TI_symbol_name("_pxQueue")
    2248                      .dwattr $C$DW$212, DW_AT_type(*$C$DW$T$69)
    2249                      .dwattr $C$DW$212, DW_AT_location[DW_OP_bregx 0x24 6]
    2250 00056a EB04          MOV XAR1, dbl(*SP(#2))
         00056c 95   
    2251 00056d EB00          MOV XAR0, dbl(*SP(#0))
         00056f 85   
    2252                      .dwpsn  file "../FreeRTOS/Source/queue.c",line 1112,column 17,is_stmt
    2253 000570 ED00          MOV dbl(*SP(#0)), XAR3
         000572 BF   
    2254 000573 EB0C          MOV XAR3, dbl(*SP(#6))
         000575 B5   
    2255                      .dwpsn  file "../FreeRTOS/Source/queue.c",line 1120,column 2,is_stmt
    2256 000576 90B0          MOV XAR3, AC0
    2257 000578 6290          BCC $C$L78,AC0 != #0 ; |1120| 
    2258                                                      ; branchcc occurs ; |1120| 
    2259 00057a 20     nop
    2260 00057b 46B3   bset INTM
    2261 00057d       $C$L77:    
    2262 00057d       $C$DW$L$_xQueueGiveFromISR$3$B:
    2263 00057d 4A7E          B $C$L77  ; |1120| 
    2264                                                      ; branch occurs ; |1120| 
    2265 00057f       $C$DW$L$_xQueueGiveFromISR$3$E:
    2266 00057f       $C$L78:    
    2267                      .dwpsn  file "../FreeRTOS/Source/queue.c",line 1124,column 2,is_stmt
    2268 00057f AA6D          MOV *AR3(#30), AR2 ; |1124| 
         000581 001E 
    2269 000583 3C09          MOV #0, AR1
    2270 000585 611A          BCC $C$L79,AR2 != #0 ; |1124| 
    2271                                                      ; branchcc occurs ; |1124| 
    2272 000587 3C19          MOV #1, AR1
    2273 000589       $C$L79:    
    2274 000589 6299          BCC $C$L81,AR1 != #0 ; |1124| 
    2275                                                      ; branchcc occurs ; |1124| 
    2276 00058b 20     nop
    2277 00058c 46B3   bset INTM
    2278 00058e       $C$L80:    
    2279 00058e       $C$DW$L$_xQueueGiveFromISR$8$B:
    2280 00058e 4A7E          B $C$L80  ; |1124| 
    2281                                                      ; branch occurs ; |1124| 
    2282 000590       $C$DW$L$_xQueueGiveFromISR$8$E:
    2283 000590       $C$L81:    
    2284                      .dwpsn  file "../FreeRTOS/Source/queue.c",line 1129,column 2,is_stmt
    2285 000590 ED61          MOV dbl(*AR3), XAR3
         000592 BF   
    2286 000593 90B0          MOV XAR3, AC0
    2287 000595 3C0A          MOV #0, AR2
TMS320C55x Assembler PC v4.4.1 Tue Sep 18 04:49:51 2018

Tools Copyright (c) 1996-2012 Texas Instruments Incorporated
queue.asm                                                            PAGE   48

    2288              
    2289 000597 6610          BCC $C$L82,AC0 != #0 ; |1129| 
    2290 000599 3D09  ||      MOV #0, AR1
    2291              
    2292                                                      ; branchcc occurs ; |1129| 
    2293 00059b ED0C          MOV dbl(*SP(#6)), XAR3
         00059d BF   
    2294 00059e ED79          MOV dbl(*AR3(short(#4))), XAR3
         0005a0 BF   
    2295 0005a1 90B0          MOV XAR3, AC0
    2296 0005a3 6100          BCC $C$L82,AC0 == #0 ; |1129| 
    2297                                                      ; branchcc occurs ; |1129| 
    2298 0005a5 3C1A          MOV #1, AR2
    2299 0005a7       $C$L82:    
    2300 0005a7 611A          BCC $C$L83,AR2 != #0 ; |1129| 
    2301                                                      ; branchcc occurs ; |1129| 
    2302 0005a9 3C19          MOV #1, AR1
    2303 0005ab       $C$L83:    
    2304 0005ab 6299          BCC $C$L85,AR1 != #0 ; |1129| 
    2305                                                      ; branchcc occurs ; |1129| 
    2306 0005ad 20     nop
    2307 0005ae 46B3   bset INTM
    2308 0005b0       $C$L84:    
    2309 0005b0       $C$DW$L$_xQueueGiveFromISR$16$B:
    2310 0005b0 4A7E          B $C$L84  ; |1129| 
    2311                                                      ; branch occurs ; |1129| 
    2312 0005b2       $C$DW$L$_xQueueGiveFromISR$16$E:
    2313 0005b2       $C$L85:    
    2314                      .dwpsn  file "../FreeRTOS/Source/queue.c",line 1147,column 2,is_stmt
    2315 0005b2 E60A          MOV #0, *SP(#5) ; |1147| 
         0005b4 00   
    2316              
    2317              $C$DW$213       .dwtag  DW_TAG_lexical_block, DW_AT_low_pc(0x00), DW_AT_high_pc(0x00)
    2318              $C$DW$214       .dwtag  DW_TAG_variable, DW_AT_name("uxMessagesWaiting")
    2319                      .dwattr $C$DW$214, DW_AT_TI_symbol_name("_uxMessagesWaiting")
    2320                      .dwattr $C$DW$214, DW_AT_type(*$C$DW$T$56)
    2321                      .dwattr $C$DW$214, DW_AT_location[DW_OP_bregx 0x24 8]
    2322                      .dwpsn  file "../FreeRTOS/Source/queue.c",line 1149,column 21,is_stmt
    2323 0005b5 ED0C          MOV dbl(*SP(#6)), XAR3
         0005b7 BF   
    2324 0005b8 A96D          MOV *AR3(#28), AR1 ; |1149| 
         0005ba 001C 
    2325 0005bc C910          MOV AR1, *SP(#8) ; |1149| 
    2326                      .dwpsn  file "../FreeRTOS/Source/queue.c",line 1154,column 3,is_stmt
    2327 0005be ED0C          MOV dbl(*SP(#6)), XAR3
         0005c0 BF   
    2328 0005c1 AA10          MOV *SP(#8), AR2 ; |1154| 
    2329 0005c3 A96D          MOV *AR3(#29), AR1 ; |1154| 
         0005c5 001D 
    2330 0005c7 12A8          CMPU AR2 >= AR1, TC1 ; |1154| 
         0005c9 94   
    2331 0005ca 0464          BCC $C$L90,TC1 ; |1154| 
         0005cc 54   
    2332                                                      ; branchcc occurs ; |1154| 
    2333              
TMS320C55x Assembler PC v4.4.1 Tue Sep 18 04:49:51 2018

Tools Copyright (c) 1996-2012 Texas Instruments Incorporated
queue.asm                                                            PAGE   49

    2334              $C$DW$215       .dwtag  DW_TAG_lexical_block, DW_AT_low_pc(0x00), DW_AT_high_pc(0x00)
    2335              $C$DW$216       .dwtag  DW_TAG_variable, DW_AT_name("cTxLock")
    2336                      .dwattr $C$DW$216, DW_AT_TI_symbol_name("_cTxLock")
    2337                      .dwattr $C$DW$216, DW_AT_type(*$C$DW$T$109)
    2338                      .dwattr $C$DW$216, DW_AT_location[DW_OP_bregx 0x24 9]
    2339                      .dwpsn  file "../FreeRTOS/Source/queue.c",line 1156,column 17,is_stmt
    2340 0005cd A96D          MOV *AR3(#32), AR1 ; |1156| 
         0005cf 0020 
    2341 0005d1 C912          MOV AR1, *SP(#9) ; |1156| 
    2342                      .dwpsn  file "../FreeRTOS/Source/queue.c",line 1166,column 4,is_stmt
    2343 0005d3 ED0C          MOV dbl(*SP(#6)), XAR3
         0005d5 BF   
    2344 0005d6 A910          MOV *SP(#8), AR1 ; |1166| 
    2345 0005d8 4019          ADD #1, AR1 ; |1166| 
    2346 0005da C96D          MOV AR1, *AR3(#28) ; |1166| 
         0005dc 001C 
    2347                      .dwpsn  file "../FreeRTOS/Source/queue.c",line 1170,column 4,is_stmt
    2348 0005de F012          CMP *SP(#9) == #-1, TC1 ; |1170| 
         0005e0 FFFF 
    2349 0005e2 0474          BCC $C$L88,!TC1 ; |1170| 
         0005e4 2C   
    2350                                                      ; branchcc occurs ; |1170| 
    2351                      .dwpsn  file "../FreeRTOS/Source/queue.c",line 1225,column 6,is_stmt
    2352 0005e5 ED0C          MOV dbl(*SP(#6)), XAR3
         0005e7 BF   
    2353 0005e8 A96D          MOV *AR3(#18), AR1 ; |1225| 
         0005ea 0012 
    2354 0005ec 6219          BCC $C$L86,AR1 != #0 ; |1225| 
    2355                                                      ; branchcc occurs ; |1225| 
    2356 0005ee 3C19          MOV #1, AR1
    2357 0005f0 4A02          B $C$L87  ; |1225| 
    2358                                                      ; branch occurs ; |1225| 
    2359 0005f2       $C$L86:    
    2360 0005f2 3C09          MOV #0, AR1
    2361 0005f4       $C$L87:    
    2362 0005f4 0419          BCC $C$L89,AR1 != #0 ; |1225| 
         0005f6 25   
    2363                                                      ; branchcc occurs ; |1225| 
    2364                      .dwpsn  file "../FreeRTOS/Source/queue.c",line 1227,column 7,is_stmt
    2365 0005f7 ED0C          MOV dbl(*SP(#6)), XAR0
         0005f9 8F   
    2366 0005fa 1412          AADD #18, AR0 ; |1227| 
         0005fc 84   
    2367              $C$DW$217       .dwtag  DW_TAG_TI_branch
    2368                      .dwattr $C$DW$217, DW_AT_low_pc(0x00)
    2369                      .dwattr $C$DW$217, DW_AT_name("_xTaskRemoveFromEventList")
    2370                      .dwattr $C$DW$217, DW_AT_TI_call
    2371 0005fd 6C00          CALL #_xTaskRemoveFromEventList ; |1227| 
         0005ff 0000!
    2372                                                      ; call occurs [#_xTaskRemoveFromEventList] ; |1227| 
    2373 000601 0404          BCC $C$L89,T0 == #0 ; |1227| 
         000603 18   
    2374                                                      ; branchcc occurs ; |1227| 
    2375                      .dwpsn  file "../FreeRTOS/Source/queue.c",line 1231,column 8,is_stmt
    2376 000604 ED04          MOV dbl(*SP(#2)), XAR3
TMS320C55x Assembler PC v4.4.1 Tue Sep 18 04:49:51 2018

Tools Copyright (c) 1996-2012 Texas Instruments Incorporated
queue.asm                                                            PAGE   50

         000606 BF   
    2377 000607 90B0          MOV XAR3, AC0
    2378 000609 0400          BCC $C$L89,AC0 == #0 ; |1231| 
         00060b 10   
    2379                                                      ; branchcc occurs ; |1231| 
    2380                      .dwpsn  file "../FreeRTOS/Source/queue.c",line 1233,column 9,is_stmt
    2381 00060c E661          MOV #1, *AR3 ; |1233| 
         00060e 01   
    2382                      .dwpsn  file "../FreeRTOS/Source/queue.c",line 1234,column 8,is_stmt
    2383 00060f 4A0B          B $C$L89  ; |1234| 
    2384                                                      ; branch occurs ; |1234| 
    2385 000611       $C$L88:    
    2386                      .dwpsn  file "../FreeRTOS/Source/queue.c",line 1256,column 5,is_stmt
    2387 000611 ED0C          MOV dbl(*SP(#6)), XAR3
         000613 BF   
    2388 000614 A912          MOV *SP(#9), AR1 ; |1256| 
    2389 000616 4019          ADD #1, AR1 ; |1256| 
    2390 000618 C96D          MOV AR1, *AR3(#32) ; |1256| 
         00061a 0020 
    2391 00061c       $C$L89:    
    2392                      .dwpsn  file "../FreeRTOS/Source/queue.c",line 1259,column 4,is_stmt
    2393 00061c E608          MOV #1, *SP(#4) ; |1259| 
         00061e 01   
    2394                      .dwendtag $C$DW$215
    2395              
    2396                      .dwpsn  file "../FreeRTOS/Source/queue.c",line 1260,column 3,is_stmt
    2397 00061f 4A03          B $C$L91  ; |1260| 
    2398                                                      ; branch occurs ; |1260| 
    2399 000621       $C$L90:    
    2400                      .dwpsn  file "../FreeRTOS/Source/queue.c",line 1264,column 4,is_stmt
    2401 000621 E608          MOV #0, *SP(#4) ; |1264| 
         000623 00   
    2402              $C$L91:    
    2403                      .dwendtag $C$DW$213
    2404              
    2405                      .dwpsn  file "../FreeRTOS/Source/queue.c",line 1267,column 2,is_stmt
    2406                      .dwpsn  file "../FreeRTOS/Source/queue.c",line 1269,column 2,is_stmt
    2407 000624 A408          MOV *SP(#4), T0 ; |1269| 
    2408                      .dwpsn  file "../FreeRTOS/Source/queue.c",line 1270,column 1,is_stmt
    2409 000626 4E0B          AADD #11, SP
    2410                      .dwcfi  cfa_offset, 1
    2411              $C$DW$218       .dwtag  DW_TAG_TI_branch
    2412                      .dwattr $C$DW$218, DW_AT_low_pc(0x00)
    2413                      .dwattr $C$DW$218, DW_AT_TI_return
    2414 000628 4804          RET
    2415                                                      ; return occurs
    2416              
    2417              $C$DW$219       .dwtag  DW_TAG_TI_loop
    2418                      .dwattr $C$DW$219, DW_AT_name("F:\eZdsp_DBG\eZDSP_5535_Files\ccsws2\test\Debug\queue.asm:$C$L84:1:153
    2419                      .dwattr $C$DW$219, DW_AT_TI_begin_file("../FreeRTOS/Source/queue.c")
    2420                      .dwattr $C$DW$219, DW_AT_TI_begin_line(0x469)
    2421                      .dwattr $C$DW$219, DW_AT_TI_end_line(0x469)
    2422              $C$DW$220       .dwtag  DW_TAG_TI_loop_range
    2423                      .dwattr $C$DW$220, DW_AT_low_pc($C$DW$L$_xQueueGiveFromISR$16$B)
    2424                      .dwattr $C$DW$220, DW_AT_high_pc($C$DW$L$_xQueueGiveFromISR$16$E)
TMS320C55x Assembler PC v4.4.1 Tue Sep 18 04:49:51 2018

Tools Copyright (c) 1996-2012 Texas Instruments Incorporated
queue.asm                                                            PAGE   51

    2425                      .dwendtag $C$DW$219
    2426              
    2427              
    2428              $C$DW$221       .dwtag  DW_TAG_TI_loop
    2429                      .dwattr $C$DW$221, DW_AT_name("F:\eZdsp_DBG\eZDSP_5535_Files\ccsws2\test\Debug\queue.asm:$C$L80:1:153
    2430                      .dwattr $C$DW$221, DW_AT_TI_begin_file("../FreeRTOS/Source/queue.c")
    2431                      .dwattr $C$DW$221, DW_AT_TI_begin_line(0x464)
    2432                      .dwattr $C$DW$221, DW_AT_TI_end_line(0x464)
    2433              $C$DW$222       .dwtag  DW_TAG_TI_loop_range
    2434                      .dwattr $C$DW$222, DW_AT_low_pc($C$DW$L$_xQueueGiveFromISR$8$B)
    2435                      .dwattr $C$DW$222, DW_AT_high_pc($C$DW$L$_xQueueGiveFromISR$8$E)
    2436                      .dwendtag $C$DW$221
    2437              
    2438              
    2439              $C$DW$223       .dwtag  DW_TAG_TI_loop
    2440                      .dwattr $C$DW$223, DW_AT_name("F:\eZdsp_DBG\eZDSP_5535_Files\ccsws2\test\Debug\queue.asm:$C$L77:1:153
    2441                      .dwattr $C$DW$223, DW_AT_TI_begin_file("../FreeRTOS/Source/queue.c")
    2442                      .dwattr $C$DW$223, DW_AT_TI_begin_line(0x460)
    2443                      .dwattr $C$DW$223, DW_AT_TI_end_line(0x460)
    2444              $C$DW$224       .dwtag  DW_TAG_TI_loop_range
    2445                      .dwattr $C$DW$224, DW_AT_low_pc($C$DW$L$_xQueueGiveFromISR$3$B)
    2446                      .dwattr $C$DW$224, DW_AT_high_pc($C$DW$L$_xQueueGiveFromISR$3$E)
    2447                      .dwendtag $C$DW$223
    2448              
    2449                      .dwattr $C$DW$205, DW_AT_TI_end_file("../FreeRTOS/Source/queue.c")
    2450                      .dwattr $C$DW$205, DW_AT_TI_end_line(0x4f6)
    2451                      .dwattr $C$DW$205, DW_AT_TI_end_column(0x01)
    2452                      .dwendentry
    2453                      .dwendtag $C$DW$205
    2454              
    2455 00062a               .sect   ".text"
    2456                      .align 4
    2457                      .global _xQueueReceive
    2458              
    2459              $C$DW$225       .dwtag  DW_TAG_subprogram, DW_AT_name("xQueueReceive")
    2460                      .dwattr $C$DW$225, DW_AT_low_pc(_xQueueReceive)
    2461                      .dwattr $C$DW$225, DW_AT_high_pc(0x00)
    2462                      .dwattr $C$DW$225, DW_AT_TI_symbol_name("_xQueueReceive")
    2463                      .dwattr $C$DW$225, DW_AT_external
    2464                      .dwattr $C$DW$225, DW_AT_type(*$C$DW$T$49)
    2465                      .dwattr $C$DW$225, DW_AT_TI_begin_file("../FreeRTOS/Source/queue.c")
    2466                      .dwattr $C$DW$225, DW_AT_TI_begin_line(0x4f9)
    2467                      .dwattr $C$DW$225, DW_AT_TI_begin_column(0x0c)
    2468                      .dwattr $C$DW$225, DW_AT_TI_max_frame_size(0x10)
    2469                      .dwpsn  file "../FreeRTOS/Source/queue.c",line 1274,column 1,is_stmt,address _xQueueReceive
    2470              
    2471                      .dwfde $C$DW$CIE, _xQueueReceive
    2472              $C$DW$226       .dwtag  DW_TAG_formal_parameter, DW_AT_name("xQueue")
    2473                      .dwattr $C$DW$226, DW_AT_TI_symbol_name("_xQueue")
    2474                      .dwattr $C$DW$226, DW_AT_type(*$C$DW$T$27)
    2475                      .dwattr $C$DW$226, DW_AT_location[DW_OP_reg17]
    2476              $C$DW$227       .dwtag  DW_TAG_formal_parameter, DW_AT_name("pvBuffer")
    2477                      .dwattr $C$DW$227, DW_AT_TI_symbol_name("_pvBuffer")
    2478                      .dwattr $C$DW$227, DW_AT_type(*$C$DW$T$76)
    2479                      .dwattr $C$DW$227, DW_AT_location[DW_OP_reg19]
TMS320C55x Assembler PC v4.4.1 Tue Sep 18 04:49:51 2018

Tools Copyright (c) 1996-2012 Texas Instruments Incorporated
queue.asm                                                            PAGE   52

    2480              $C$DW$228       .dwtag  DW_TAG_formal_parameter, DW_AT_name("xTicksToWait")
    2481                      .dwattr $C$DW$228, DW_AT_TI_symbol_name("_xTicksToWait")
    2482                      .dwattr $C$DW$228, DW_AT_type(*$C$DW$T$44)
    2483                      .dwattr $C$DW$228, DW_AT_location[DW_OP_reg0]
    2484              ;*******************************************************************************
    2485              ;* FUNCTION NAME: xQueueReceive                                                *
    2486              ;*                                                                             *
    2487              ;*   Function Uses Regs : AC0,AC0,T0,AR0,XAR0,AR1,XAR1,AR2,AR3,XAR3,SP,CARRY,  *
    2488              ;*                        TC1,M40,SATA,SATD,RDM,FRCT,SMUL                      *
    2489              ;*   Stack Frame        : Compact (No Frame Pointer, w/ debug)                 *
    2490              ;*   Total Frame Size   : 16 words                                             *
    2491              ;*                        (1 return address/alignment)                         *
    2492              ;*                        (15 local values)                                    *
    2493              ;*   Min System Stack   : 1 word                                               *
    2494              ;*******************************************************************************
    2495 00062c       _xQueueReceive:
    2496                      .dwcfi  cfa_offset, 1
    2497                      .dwcfi  save_reg_to_mem, 91, -1
    2498 00062c 4EF1          AADD #-15, SP
    2499                      .dwcfi  cfa_offset, 16
    2500              $C$DW$229       .dwtag  DW_TAG_variable, DW_AT_name("xQueue")
    2501                      .dwattr $C$DW$229, DW_AT_TI_symbol_name("_xQueue")
    2502                      .dwattr $C$DW$229, DW_AT_type(*$C$DW$T$27)
    2503                      .dwattr $C$DW$229, DW_AT_location[DW_OP_bregx 0x24 0]
    2504              $C$DW$230       .dwtag  DW_TAG_variable, DW_AT_name("pvBuffer")
    2505                      .dwattr $C$DW$230, DW_AT_TI_symbol_name("_pvBuffer")
    2506                      .dwattr $C$DW$230, DW_AT_type(*$C$DW$T$76)
    2507                      .dwattr $C$DW$230, DW_AT_location[DW_OP_bregx 0x24 2]
    2508              $C$DW$231       .dwtag  DW_TAG_variable, DW_AT_name("xTicksToWait")
    2509                      .dwattr $C$DW$231, DW_AT_TI_symbol_name("_xTicksToWait")
    2510                      .dwattr $C$DW$231, DW_AT_type(*$C$DW$T$44)
    2511                      .dwattr $C$DW$231, DW_AT_location[DW_OP_bregx 0x24 4]
    2512              $C$DW$232       .dwtag  DW_TAG_variable, DW_AT_name("xEntryTimeSet")
    2513                      .dwattr $C$DW$232, DW_AT_TI_symbol_name("_xEntryTimeSet")
    2514                      .dwattr $C$DW$232, DW_AT_type(*$C$DW$T$49)
    2515                      .dwattr $C$DW$232, DW_AT_location[DW_OP_bregx 0x24 6]
    2516              $C$DW$233       .dwtag  DW_TAG_variable, DW_AT_name("xTimeOut")
    2517                      .dwattr $C$DW$233, DW_AT_TI_symbol_name("_xTimeOut")
    2518                      .dwattr $C$DW$233, DW_AT_type(*$C$DW$T$92)
    2519                      .dwattr $C$DW$233, DW_AT_location[DW_OP_bregx 0x24 8]
    2520              $C$DW$234       .dwtag  DW_TAG_variable, DW_AT_name("pxQueue")
    2521                      .dwattr $C$DW$234, DW_AT_TI_symbol_name("_pxQueue")
    2522                      .dwattr $C$DW$234, DW_AT_type(*$C$DW$T$69)
    2523                      .dwattr $C$DW$234, DW_AT_location[DW_OP_bregx 0x24 12]
    2524 00062e EB08          MOV AC0, dbl(*SP(#4)) ; |1274| 
         000630 08   
    2525 000631 EB04          MOV XAR1, dbl(*SP(#2))
         000633 95   
    2526 000634 EB00          MOV XAR0, dbl(*SP(#0))
         000636 85   
    2527                      .dwpsn  file "../FreeRTOS/Source/queue.c",line 1275,column 12,is_stmt
    2528 000637 E60C          MOV #0, *SP(#6) ; |1275| 
         000639 00   
    2529                      .dwpsn  file "../FreeRTOS/Source/queue.c",line 1277,column 17,is_stmt
    2530 00063a ED00          MOV dbl(*SP(#0)), XAR3
TMS320C55x Assembler PC v4.4.1 Tue Sep 18 04:49:51 2018

Tools Copyright (c) 1996-2012 Texas Instruments Incorporated
queue.asm                                                            PAGE   53

         00063c BF   
    2531 00063d EB18          MOV XAR3, dbl(*SP(#12))
         00063f B5   
    2532                      .dwpsn  file "../FreeRTOS/Source/queue.c",line 1280,column 2,is_stmt
    2533 000640 90B0          MOV XAR3, AC0
    2534 000642 6290          BCC $C$L93,AC0 != #0 ; |1280| 
    2535                                                      ; branchcc occurs ; |1280| 
    2536 000644 20     nop
    2537 000645 46B3   bset INTM
    2538 000647       $C$L92:    
    2539 000647       $C$DW$L$_xQueueReceive$3$B:
    2540 000647 4A7E          B $C$L92  ; |1280| 
    2541                                                      ; branch occurs ; |1280| 
    2542 000649       $C$DW$L$_xQueueReceive$3$E:
    2543 000649       $C$L93:    
    2544                      .dwpsn  file "../FreeRTOS/Source/queue.c",line 1284,column 2,is_stmt
    2545 000649 ED04          MOV dbl(*SP(#2)), XAR3
         00064b BF   
    2546 00064c 90B0          MOV XAR3, AC0
    2547 00064e 3C0A          MOV #0, AR2
    2548              
    2549 000650 6590          BCC $C$L94,AC0 != #0 ; |1284| 
    2550 000652 3D09  ||      MOV #0, AR1
    2551              
    2552                                                      ; branchcc occurs ; |1284| 
    2553 000654 ED18          MOV dbl(*SP(#12)), XAR3
         000656 BF   
    2554 000657 AB6D          MOV *AR3(#30), AR3 ; |1284| 
         000659 001E 
    2555 00065b 610B          BCC $C$L94,AR3 == #0 ; |1284| 
    2556                                                      ; branchcc occurs ; |1284| 
    2557 00065d 3C1A          MOV #1, AR2
    2558 00065f       $C$L94:    
    2559 00065f 611A          BCC $C$L95,AR2 != #0 ; |1284| 
    2560                                                      ; branchcc occurs ; |1284| 
    2561 000661 3C19          MOV #1, AR1
    2562 000663       $C$L95:    
    2563 000663 6299          BCC $C$L97,AR1 != #0 ; |1284| 
    2564                                                      ; branchcc occurs ; |1284| 
    2565 000665 20     nop
    2566 000666 46B3   bset INTM
    2567 000668       $C$L96:    
    2568 000668       $C$DW$L$_xQueueReceive$11$B:
    2569 000668 4A7E          B $C$L96  ; |1284| 
    2570                                                      ; branch occurs ; |1284| 
    2571 00066a       $C$DW$L$_xQueueReceive$11$E:
    2572 00066a       $C$L97:    
    2573 00066a       $C$DW$L$_xQueueReceive$12$B:
    2574                      .dwpsn  file "../FreeRTOS/Source/queue.c",line 1299,column 3,is_stmt
    2575 00066a 20     nop
    2576 00066b 46B3   bset INTM
    2577 00066d F731          ADD #1, *(#_usCriticalNesting) ; |1299| 
         00066f 0001 
         000671 0000 
         000673 00!  
TMS320C55x Assembler PC v4.4.1 Tue Sep 18 04:49:51 2018

Tools Copyright (c) 1996-2012 Texas Instruments Incorporated
queue.asm                                                            PAGE   54

    2578 000674 20            NOP
    2579 000675 20            NOP
    2580              
    2581              $C$DW$235       .dwtag  DW_TAG_lexical_block, DW_AT_low_pc(0x00), DW_AT_high_pc(0x00)
    2582              $C$DW$236       .dwtag  DW_TAG_variable, DW_AT_name("uxMessagesWaiting")
    2583                      .dwattr $C$DW$236, DW_AT_TI_symbol_name("_uxMessagesWaiting")
    2584                      .dwattr $C$DW$236, DW_AT_type(*$C$DW$T$56)
    2585                      .dwattr $C$DW$236, DW_AT_location[DW_OP_bregx 0x24 14]
    2586                      .dwpsn  file "../FreeRTOS/Source/queue.c",line 1301,column 22,is_stmt
    2587 000676 ED18          MOV dbl(*SP(#12)), XAR3
         000678 BF   
    2588 000679 A96D          MOV *AR3(#28), AR1 ; |1301| 
         00067b 001C 
    2589 00067d C91C          MOV AR1, *SP(#14) ; |1301| 
    2590                      .dwpsn  file "../FreeRTOS/Source/queue.c",line 1305,column 4,is_stmt
    2591 00067f 0409          BCC $C$L102,AR1 == #0 ; |1305| 
         000681 5B   
    2592                                                      ; branchcc occurs ; |1305| 
    2593 000682       $C$DW$L$_xQueueReceive$12$E:
    2594                      .dwpsn  file "../FreeRTOS/Source/queue.c",line 1308,column 5,is_stmt
    2595 000682 ED18          MOV dbl(*SP(#12)), XAR0
         000684 8F   
    2596 000685 ED04          MOV dbl(*SP(#2)), XAR1
         000687 9F   
    2597              $C$DW$237       .dwtag  DW_TAG_TI_branch
    2598                      .dwattr $C$DW$237, DW_AT_low_pc(0x00)
    2599                      .dwattr $C$DW$237, DW_AT_name("_prvCopyDataFromQueue")
    2600                      .dwattr $C$DW$237, DW_AT_TI_call
    2601 000688 0808          CALL #_prvCopyDataFromQueue ; |1308| 
         00068a 65   
    2602                                                      ; call occurs [#_prvCopyDataFromQueue] ; |1308| 
    2603                      .dwpsn  file "../FreeRTOS/Source/queue.c",line 1310,column 5,is_stmt
    2604 00068b ED18          MOV dbl(*SP(#12)), XAR3
         00068d BF   
    2605 00068e A91C          MOV *SP(#14), AR1 ; |1310| 
    2606 000690 4219          SUB #1, AR1 ; |1310| 
    2607 000692 C96D          MOV AR1, *AR3(#28) ; |1310| 
         000694 001C 
    2608 000696 20            NOP
    2609 000697 20            NOP
    2610                      .dwpsn  file "../FreeRTOS/Source/queue.c",line 1315,column 5,is_stmt
    2611 000698 ED18          MOV dbl(*SP(#12)), XAR3
         00069a BF   
    2612 00069b A96D          MOV *AR3(#8), AR1 ; |1315| 
         00069d 0008 
    2613 00069f 6219          BCC $C$L98,AR1 != #0 ; |1315| 
    2614                                                      ; branchcc occurs ; |1315| 
    2615 0006a1 3C19          MOV #1, AR1
    2616 0006a3 4A02          B $C$L99  ; |1315| 
    2617                                                      ; branch occurs ; |1315| 
    2618 0006a5       $C$L98:    
    2619 0006a5 3C09          MOV #0, AR1
    2620 0006a7       $C$L99:    
    2621 0006a7 0419          BCC $C$L100,AR1 != #0 ; |1315| 
         0006a9 12   
TMS320C55x Assembler PC v4.4.1 Tue Sep 18 04:49:51 2018

Tools Copyright (c) 1996-2012 Texas Instruments Incorporated
queue.asm                                                            PAGE   55

    2622                                                      ; branchcc occurs ; |1315| 
    2623                      .dwpsn  file "../FreeRTOS/Source/queue.c",line 1317,column 6,is_stmt
    2624 0006aa ED18          MOV dbl(*SP(#12)), XAR0
         0006ac 8F   
    2625 0006ad 1408          AADD #8, AR0 ; |1317| 
         0006af 84   
    2626              $C$DW$238       .dwtag  DW_TAG_TI_branch
    2627                      .dwattr $C$DW$238, DW_AT_low_pc(0x00)
    2628                      .dwattr $C$DW$238, DW_AT_name("_xTaskRemoveFromEventList")
    2629                      .dwattr $C$DW$238, DW_AT_TI_call
    2630 0006b0 6C00          CALL #_xTaskRemoveFromEventList ; |1317| 
         0006b2 0000!
    2631                                                      ; call occurs [#_xTaskRemoveFromEventList] ; |1317| 
    2632 0006b4 6304          BCC $C$L100,T0 == #0 ; |1317| 
    2633                                                      ; branchcc occurs ; |1317| 
    2634                      .dwpsn  file "../FreeRTOS/Source/queue.c",line 1319,column 7,is_stmt
    2635              $C$DW$239       .dwtag  DW_TAG_TI_branch
    2636                      .dwattr $C$DW$239, DW_AT_low_pc(0x00)
    2637                      .dwattr $C$DW$239, DW_AT_name("_vPortYield")
    2638                      .dwattr $C$DW$239, DW_AT_TI_call
    2639 0006b6 6C00          CALL #_vPortYield ; |1319| 
         0006b8 0000!
    2640                                                      ; call occurs [#_vPortYield] ; |1319| 
    2641                      .dwpsn  file "../FreeRTOS/Source/queue.c",line 1320,column 6,is_stmt
    2642 0006ba 4A00          B $C$L100 ; |1320| 
    2643                                                      ; branch occurs ; |1320| 
    2644 0006bc       $C$L100:    
    2645                      .dwpsn  file "../FreeRTOS/Source/queue.c",line 1331,column 5,is_stmt
    2646 0006bc A931          MOV *(#_usCriticalNesting), AR1 ; |1331| 
         0006be 0000 
         0006c0 00!  
    2647 0006c1 0409          BCC $C$L101,AR1 == #0 ; |1331| 
         0006c3 14   
    2648                                                      ; branchcc occurs ; |1331| 
    2649 0006c4 F731          SUB #1, *(#_usCriticalNesting) ; |1331| 
         0006c6 FFFF 
         0006c8 0000 
         0006ca 00!  
    2650 0006cb 20            NOP
    2651 0006cc 20            NOP
    2652 0006cd 20            NOP
    2653 0006ce A931          MOV *(#_usCriticalNesting), AR1 ; |1331| 
         0006d0 0000 
         0006d2 00!  
    2654 0006d3 6199          BCC $C$L101,AR1 != #0 ; |1331| 
    2655                                                      ; branchcc occurs ; |1331| 
    2656 0006d5 20     nop
    2657 0006d6 46B2   bclr INTM
    2658 0006d8       $C$L101:    
    2659                      .dwpsn  file "../FreeRTOS/Source/queue.c",line 1332,column 5,is_stmt
    2660 0006d8 3C14          MOV #1, T0
    2661 0006da 0600          B $C$L112 ; |1332| 
         0006dc FA   
    2662                                                      ; branch occurs ; |1332| 
    2663 0006dd       $C$L102:    
TMS320C55x Assembler PC v4.4.1 Tue Sep 18 04:49:51 2018

Tools Copyright (c) 1996-2012 Texas Instruments Incorporated
queue.asm                                                            PAGE   56

    2664 0006dd       $C$DW$L$_xQueueReceive$25$B:
    2665                      .dwpsn  file "../FreeRTOS/Source/queue.c",line 1336,column 5,is_stmt
    2666 0006dd ED08          MOV dbl(*SP(#4)), AC0 ; |1336| 
         0006df 08   
    2667 0006e0 0410          BCC $C$L104,AC0 != #0 ; |1336| 
         0006e2 21   
    2668                                                      ; branchcc occurs ; |1336| 
    2669 0006e3       $C$DW$L$_xQueueReceive$25$E:
    2670                      .dwpsn  file "../FreeRTOS/Source/queue.c",line 1340,column 6,is_stmt
    2671 0006e3 A931          MOV *(#_usCriticalNesting), AR1 ; |1340| 
         0006e5 0000 
         0006e7 00!  
    2672 0006e8 0409          BCC $C$L103,AR1 == #0 ; |1340| 
         0006ea 14   
    2673                                                      ; branchcc occurs ; |1340| 
    2674 0006eb F731          SUB #1, *(#_usCriticalNesting) ; |1340| 
         0006ed FFFF 
         0006ef 0000 
         0006f1 00!  
    2675 0006f2 20            NOP
    2676 0006f3 20            NOP
    2677 0006f4 20            NOP
    2678 0006f5 A931          MOV *(#_usCriticalNesting), AR1 ; |1340| 
         0006f7 0000 
         0006f9 00!  
    2679 0006fa 6199          BCC $C$L103,AR1 != #0 ; |1340| 
    2680                                                      ; branchcc occurs ; |1340| 
    2681 0006fc 20     nop
    2682 0006fd 46B2   bclr INTM
    2683 0006ff       $C$L103:    
    2684                      .dwpsn  file "../FreeRTOS/Source/queue.c",line 1342,column 6,is_stmt
    2685 0006ff 3C04          MOV #0, T0
    2686 000701 0600          B $C$L112 ; |1342| 
         000703 D3   
    2687                                                      ; branch occurs ; |1342| 
    2688 000704       $C$L104:    
    2689 000704       $C$DW$L$_xQueueReceive$31$B:
    2690                      .dwpsn  file "../FreeRTOS/Source/queue.c",line 1344,column 10,is_stmt
    2691 000704 A90C          MOV *SP(#6), AR1 ; |1344| 
    2692 000706 6519          BCC $C$L105,AR1 != #0 ; |1344| 
    2693                                                      ; branchcc occurs ; |1344| 
    2694 000708       $C$DW$L$_xQueueReceive$31$E:
    2695 000708       $C$DW$L$_xQueueReceive$32$B:
    2696                      .dwpsn  file "../FreeRTOS/Source/queue.c",line 1348,column 6,is_stmt
    2697 000708 EC10          AMAR *SP(#8), XAR0
         00070a 8E   
    2698              $C$DW$240       .dwtag  DW_TAG_TI_branch
    2699                      .dwattr $C$DW$240, DW_AT_low_pc(0x00)
    2700                      .dwattr $C$DW$240, DW_AT_name("_vTaskInternalSetTimeOutState")
    2701                      .dwattr $C$DW$240, DW_AT_TI_call
    2702 00070b 6C00          CALL #_vTaskInternalSetTimeOutState ; |1348| 
         00070d 0000!
    2703                                                      ; call occurs [#_vTaskInternalSetTimeOutState] ; |1348| 
    2704                      .dwpsn  file "../FreeRTOS/Source/queue.c",line 1349,column 6,is_stmt
    2705 00070f E60C          MOV #1, *SP(#6) ; |1349| 
TMS320C55x Assembler PC v4.4.1 Tue Sep 18 04:49:51 2018

Tools Copyright (c) 1996-2012 Texas Instruments Incorporated
queue.asm                                                            PAGE   57

         000711 01   
    2706                      .dwpsn  file "../FreeRTOS/Source/queue.c",line 1350,column 5,is_stmt
    2707              $C$DW$L$_xQueueReceive$32$E:
    2708              $C$L105:    
    2709              $C$DW$L$_xQueueReceive$33$B:
    2710                      .dwendtag $C$DW$235
    2711              
    2712                      .dwpsn  file "../FreeRTOS/Source/queue.c",line 1358,column 3,is_stmt
    2713 000712 A931          MOV *(#_usCriticalNesting), AR1 ; |1358| 
         000714 0000 
         000716 00!  
    2714 000717 0409          BCC $C$L106,AR1 == #0 ; |1358| 
         000719 14   
    2715                                                      ; branchcc occurs ; |1358| 
    2716 00071a       $C$DW$L$_xQueueReceive$33$E:
    2717 00071a       $C$DW$L$_xQueueReceive$34$B:
    2718 00071a F731          SUB #1, *(#_usCriticalNesting) ; |1358| 
         00071c FFFF 
         00071e 0000 
         000720 00!  
    2719 000721 20            NOP
    2720 000722 20            NOP
    2721 000723 20            NOP
    2722 000724 A931          MOV *(#_usCriticalNesting), AR1 ; |1358| 
         000726 0000 
         000728 00!  
    2723 000729 6199          BCC $C$L106,AR1 != #0 ; |1358| 
    2724                                                      ; branchcc occurs ; |1358| 
    2725 00072b       $C$DW$L$_xQueueReceive$34$E:
    2726 00072b       $C$DW$L$_xQueueReceive$35$B:
    2727 00072b 20     nop
    2728 00072c 46B2   bclr INTM
    2729 00072e       $C$DW$L$_xQueueReceive$35$E:
    2730 00072e       $C$L106:    
    2731 00072e       $C$DW$L$_xQueueReceive$36$B:
    2732                      .dwpsn  file "../FreeRTOS/Source/queue.c",line 1363,column 3,is_stmt
    2733              $C$DW$241       .dwtag  DW_TAG_TI_branch
    2734                      .dwattr $C$DW$241, DW_AT_low_pc(0x00)
    2735                      .dwattr $C$DW$241, DW_AT_name("_vTaskSuspendAll")
    2736                      .dwattr $C$DW$241, DW_AT_TI_call
    2737 00072e 6C00          CALL #_vTaskSuspendAll ; |1363| 
         000730 0000!
    2738                                                      ; call occurs [#_vTaskSuspendAll] ; |1363| 
    2739                      .dwpsn  file "../FreeRTOS/Source/queue.c",line 1364,column 3,is_stmt
    2740 000732 20     nop
    2741 000733 46B3   bset INTM
    2742 000735 F731          ADD #1, *(#_usCriticalNesting) ; |1364| 
         000737 0001 
         000739 0000 
         00073b 00!  
    2743 00073c 20            NOP
    2744 00073d 20            NOP
    2745 00073e ED18          MOV dbl(*SP(#12)), XAR3
         000740 BF   
    2746 000741 F06D          CMP *AR3(#31) == #-1, TC1 ; |1364| 
TMS320C55x Assembler PC v4.4.1 Tue Sep 18 04:49:51 2018

Tools Copyright (c) 1996-2012 Texas Instruments Incorporated
queue.asm                                                            PAGE   58

         000743 FFFF 
         000745 001F 
    2747 000747 62F4          BCC $C$L107,!TC1 ; |1364| 
    2748                                                      ; branchcc occurs ; |1364| 
    2749 000749       $C$DW$L$_xQueueReceive$36$E:
    2750 000749       $C$DW$L$_xQueueReceive$37$B:
    2751 000749 E66D          MOV #0, *AR3(#31) ; |1364| 
         00074b 0000 
         00074d 1F   
    2752 00074e       $C$DW$L$_xQueueReceive$37$E:
    2753 00074e       $C$L107:    
    2754 00074e       $C$DW$L$_xQueueReceive$38$B:
    2755 00074e ED18          MOV dbl(*SP(#12)), XAR3
         000750 BF   
    2756 000751 F06D          CMP *AR3(#32) == #-1, TC1 ; |1364| 
         000753 FFFF 
         000755 0020 
    2757 000757 62F4          BCC $C$L108,!TC1 ; |1364| 
    2758                                                      ; branchcc occurs ; |1364| 
    2759 000759       $C$DW$L$_xQueueReceive$38$E:
    2760 000759       $C$DW$L$_xQueueReceive$39$B:
    2761 000759 E66D          MOV #0, *AR3(#32) ; |1364| 
         00075b 0000 
         00075d 20   
    2762 00075e       $C$DW$L$_xQueueReceive$39$E:
    2763 00075e       $C$L108:    
    2764 00075e       $C$DW$L$_xQueueReceive$40$B:
    2765 00075e A931          MOV *(#_usCriticalNesting), AR1 ; |1364| 
         000760 0000 
         000762 00!  
    2766 000763 0409          BCC $C$L109,AR1 == #0 ; |1364| 
         000765 14   
    2767                                                      ; branchcc occurs ; |1364| 
    2768 000766       $C$DW$L$_xQueueReceive$40$E:
    2769 000766       $C$DW$L$_xQueueReceive$41$B:
    2770 000766 F731          SUB #1, *(#_usCriticalNesting) ; |1364| 
         000768 FFFF 
         00076a 0000 
         00076c 00!  
    2771 00076d 20            NOP
    2772 00076e 20            NOP
    2773 00076f 20            NOP
    2774 000770 A931          MOV *(#_usCriticalNesting), AR1 ; |1364| 
         000772 0000 
         000774 00!  
    2775 000775 6199          BCC $C$L109,AR1 != #0 ; |1364| 
    2776                                                      ; branchcc occurs ; |1364| 
    2777 000777       $C$DW$L$_xQueueReceive$41$E:
    2778 000777       $C$DW$L$_xQueueReceive$42$B:
    2779 000777 20     nop
    2780 000778 46B2   bclr INTM
    2781 00077a       $C$DW$L$_xQueueReceive$42$E:
    2782 00077a       $C$L109:    
    2783 00077a       $C$DW$L$_xQueueReceive$43$B:
    2784                      .dwpsn  file "../FreeRTOS/Source/queue.c",line 1367,column 3,is_stmt
TMS320C55x Assembler PC v4.4.1 Tue Sep 18 04:49:51 2018

Tools Copyright (c) 1996-2012 Texas Instruments Incorporated
queue.asm                                                            PAGE   59

    2785 00077a EC10          AMAR *SP(#8), XAR0
         00077c 8E   
    2786 00077d EC08          AMAR *SP(#4), XAR1
         00077f 9E   
    2787              $C$DW$242       .dwtag  DW_TAG_TI_branch
    2788                      .dwattr $C$DW$242, DW_AT_low_pc(0x00)
    2789                      .dwattr $C$DW$242, DW_AT_name("_xTaskCheckForTimeOut")
    2790                      .dwattr $C$DW$242, DW_AT_TI_call
    2791 000780 6C00          CALL #_xTaskCheckForTimeOut ; |1367| 
         000782 0000!
    2792                                                      ; call occurs [#_xTaskCheckForTimeOut] ; |1367| 
    2793 000784 0414          BCC $C$L111,T0 != #0 ; |1367| 
         000786 38   
    2794                                                      ; branchcc occurs ; |1367| 
    2795 000787       $C$DW$L$_xQueueReceive$43$E:
    2796 000787       $C$DW$L$_xQueueReceive$44$B:
    2797                      .dwpsn  file "../FreeRTOS/Source/queue.c",line 1371,column 4,is_stmt
    2798 000787 ED18          MOV dbl(*SP(#12)), XAR0
         000789 8F   
    2799              $C$DW$243       .dwtag  DW_TAG_TI_branch
    2800                      .dwattr $C$DW$243, DW_AT_low_pc(0x00)
    2801                      .dwattr $C$DW$243, DW_AT_name("_prvIsQueueEmpty")
    2802                      .dwattr $C$DW$243, DW_AT_TI_call
    2803 00078a 0808          CALL #_prvIsQueueEmpty ; |1371| 
         00078c 9F   
    2804                                                      ; call occurs [#_prvIsQueueEmpty] ; |1371| 
    2805 00078d 0404          BCC $C$L110,T0 == #0 ; |1371| 
         00078f 22   
    2806                                                      ; branchcc occurs ; |1371| 
    2807 000790       $C$DW$L$_xQueueReceive$44$E:
    2808 000790       $C$DW$L$_xQueueReceive$45$B:
    2809                      .dwpsn  file "../FreeRTOS/Source/queue.c",line 1374,column 5,is_stmt
    2810 000790 ED18          MOV dbl(*SP(#12)), XAR0
         000792 8F   
    2811              
    2812                      AADD #18, AR0 ; |1374| 
    2813 000793 8E08  ||      MOV dbl(*SP(#4)), AC0 ; |1374| 
         000795 8D1C 
         000797 0812 
    2814              
    2815              $C$DW$244       .dwtag  DW_TAG_TI_branch
    2816                      .dwattr $C$DW$244, DW_AT_low_pc(0x00)
    2817                      .dwattr $C$DW$244, DW_AT_name("_vTaskPlaceOnEventList")
    2818                      .dwattr $C$DW$244, DW_AT_TI_call
    2819 000799 6C00          CALL #_vTaskPlaceOnEventList ; |1374| 
         00079b 0000!
    2820                                                      ; call occurs [#_vTaskPlaceOnEventList] ; |1374| 
    2821                      .dwpsn  file "../FreeRTOS/Source/queue.c",line 1375,column 5,is_stmt
    2822 00079d ED18          MOV dbl(*SP(#12)), XAR0
         00079f 8F   
    2823              $C$DW$245       .dwtag  DW_TAG_TI_branch
    2824                      .dwattr $C$DW$245, DW_AT_low_pc(0x00)
    2825                      .dwattr $C$DW$245, DW_AT_name("_prvUnlockQueue")
    2826                      .dwattr $C$DW$245, DW_AT_TI_call
    2827 0007a0 0807          CALL #_prvUnlockQueue ; |1375| 
TMS320C55x Assembler PC v4.4.1 Tue Sep 18 04:49:51 2018

Tools Copyright (c) 1996-2012 Texas Instruments Incorporated
queue.asm                                                            PAGE   60

         0007a2 A5   
    2828                                                      ; call occurs [#_prvUnlockQueue] ; |1375| 
    2829                      .dwpsn  file "../FreeRTOS/Source/queue.c",line 1376,column 5,is_stmt
    2830              $C$DW$246       .dwtag  DW_TAG_TI_branch
    2831                      .dwattr $C$DW$246, DW_AT_low_pc(0x00)
    2832                      .dwattr $C$DW$246, DW_AT_name("_xTaskResumeAll")
    2833                      .dwattr $C$DW$246, DW_AT_TI_call
    2834 0007a3 6C00          CALL #_xTaskResumeAll ; |1376| 
         0007a5 0000!
    2835                                                      ; call occurs [#_xTaskResumeAll] ; |1376| 
    2836 0007a7 6D14          BCC $C$L97,T0 != #0 ; |1376| 
         0007a9 FEBF 
    2837                                                      ; branchcc occurs ; |1376| 
    2838 0007ab       $C$DW$L$_xQueueReceive$45$E:
    2839 0007ab       $C$DW$L$_xQueueReceive$46$B:
    2840                      .dwpsn  file "../FreeRTOS/Source/queue.c",line 1378,column 6,is_stmt
    2841              $C$DW$247       .dwtag  DW_TAG_TI_branch
    2842                      .dwattr $C$DW$247, DW_AT_low_pc(0x00)
    2843                      .dwattr $C$DW$247, DW_AT_name("_vPortYield")
    2844                      .dwattr $C$DW$247, DW_AT_TI_call
    2845 0007ab 6C00          CALL #_vPortYield ; |1378| 
         0007ad 0000!
    2846                                                      ; call occurs [#_vPortYield] ; |1378| 
    2847                      .dwpsn  file "../FreeRTOS/Source/queue.c",line 1379,column 5,is_stmt
    2848 0007af 06FE          B $C$L97  ; |1379| 
         0007b1 B8   
    2849                                                      ; branch occurs ; |1379| 
    2850 0007b2       $C$DW$L$_xQueueReceive$46$E:
    2851 0007b2       $C$L110:    
    2852 0007b2       $C$DW$L$_xQueueReceive$48$B:
    2853                      .dwpsn  file "../FreeRTOS/Source/queue.c",line 1389,column 5,is_stmt
    2854 0007b2 ED18          MOV dbl(*SP(#12)), XAR0
         0007b4 8F   
    2855              $C$DW$248       .dwtag  DW_TAG_TI_branch
    2856                      .dwattr $C$DW$248, DW_AT_low_pc(0x00)
    2857                      .dwattr $C$DW$248, DW_AT_name("_prvUnlockQueue")
    2858                      .dwattr $C$DW$248, DW_AT_TI_call
    2859 0007b5 0807          CALL #_prvUnlockQueue ; |1389| 
         0007b7 90   
    2860                                                      ; call occurs [#_prvUnlockQueue] ; |1389| 
    2861                      .dwpsn  file "../FreeRTOS/Source/queue.c",line 1390,column 5,is_stmt
    2862              $C$DW$249       .dwtag  DW_TAG_TI_branch
    2863                      .dwattr $C$DW$249, DW_AT_low_pc(0x00)
    2864                      .dwattr $C$DW$249, DW_AT_name("_xTaskResumeAll")
    2865                      .dwattr $C$DW$249, DW_AT_TI_call
    2866 0007b8 6C00          CALL #_xTaskResumeAll ; |1390| 
         0007ba 0000!
    2867                                                      ; call occurs [#_xTaskResumeAll] ; |1390| 
    2868                      .dwpsn  file "../FreeRTOS/Source/queue.c",line 1392,column 3,is_stmt
    2869 0007bc 06FE          B $C$L97  ; |1392| 
         0007be AB   
    2870                                                      ; branch occurs ; |1392| 
    2871 0007bf       $C$DW$L$_xQueueReceive$48$E:
    2872 0007bf       $C$L111:    
    2873 0007bf       $C$DW$L$_xQueueReceive$49$B:
TMS320C55x Assembler PC v4.4.1 Tue Sep 18 04:49:51 2018

Tools Copyright (c) 1996-2012 Texas Instruments Incorporated
queue.asm                                                            PAGE   61

    2874                      .dwpsn  file "../FreeRTOS/Source/queue.c",line 1397,column 4,is_stmt
    2875 0007bf ED18          MOV dbl(*SP(#12)), XAR0
         0007c1 8F   
    2876              $C$DW$250       .dwtag  DW_TAG_TI_branch
    2877                      .dwattr $C$DW$250, DW_AT_low_pc(0x00)
    2878                      .dwattr $C$DW$250, DW_AT_name("_prvUnlockQueue")
    2879                      .dwattr $C$DW$250, DW_AT_TI_call
    2880 0007c2 0807          CALL #_prvUnlockQueue ; |1397| 
         0007c4 83   
    2881                                                      ; call occurs [#_prvUnlockQueue] ; |1397| 
    2882                      .dwpsn  file "../FreeRTOS/Source/queue.c",line 1398,column 4,is_stmt
    2883              $C$DW$251       .dwtag  DW_TAG_TI_branch
    2884                      .dwattr $C$DW$251, DW_AT_low_pc(0x00)
    2885                      .dwattr $C$DW$251, DW_AT_name("_xTaskResumeAll")
    2886                      .dwattr $C$DW$251, DW_AT_TI_call
    2887 0007c5 6C00          CALL #_xTaskResumeAll ; |1398| 
         0007c7 0000!
    2888                                                      ; call occurs [#_xTaskResumeAll] ; |1398| 
    2889                      .dwpsn  file "../FreeRTOS/Source/queue.c",line 1400,column 4,is_stmt
    2890 0007c9 ED18          MOV dbl(*SP(#12)), XAR0
         0007cb 8F   
    2891              $C$DW$252       .dwtag  DW_TAG_TI_branch
    2892                      .dwattr $C$DW$252, DW_AT_low_pc(0x00)
    2893                      .dwattr $C$DW$252, DW_AT_name("_prvIsQueueEmpty")
    2894                      .dwattr $C$DW$252, DW_AT_TI_call
    2895 0007cc 0808          CALL #_prvIsQueueEmpty ; |1400| 
         0007ce 5D   
    2896                                                      ; call occurs [#_prvIsQueueEmpty] ; |1400| 
    2897 0007cf 6D04          BCC $C$L97,T0 == #0 ; |1400| 
         0007d1 FE97 
    2898                                                      ; branchcc occurs ; |1400| 
    2899 0007d3       $C$DW$L$_xQueueReceive$49$E:
    2900                      .dwpsn  file "../FreeRTOS/Source/queue.c",line 1403,column 5,is_stmt
    2901 0007d3 3C04          MOV #0, T0
    2902 0007d5 4A00          B $C$L112 ; |1403| 
    2903                                                      ; branch occurs ; |1403| 
    2904 0007d7       $C$L112:    
    2905                      .dwpsn  file "../FreeRTOS/Source/queue.c",line 1411,column 1,is_stmt
    2906 0007d7 4E0F          AADD #15, SP
    2907                      .dwcfi  cfa_offset, 1
    2908              $C$DW$253       .dwtag  DW_TAG_TI_branch
    2909                      .dwattr $C$DW$253, DW_AT_low_pc(0x00)
    2910                      .dwattr $C$DW$253, DW_AT_TI_return
    2911 0007d9 4804          RET
    2912                                                      ; return occurs
    2913              
    2914              $C$DW$254       .dwtag  DW_TAG_TI_loop
    2915                      .dwattr $C$DW$254, DW_AT_name("F:\eZdsp_DBG\eZDSP_5535_Files\ccsws2\test\Debug\queue.asm:$C$L97:1:153
    2916                      .dwattr $C$DW$254, DW_AT_TI_begin_file("../FreeRTOS/Source/queue.c")
    2917                      .dwattr $C$DW$254, DW_AT_TI_begin_line(0x511)
    2918                      .dwattr $C$DW$254, DW_AT_TI_end_line(0x582)
    2919              $C$DW$255       .dwtag  DW_TAG_TI_loop_range
    2920                      .dwattr $C$DW$255, DW_AT_low_pc($C$DW$L$_xQueueReceive$12$B)
    2921                      .dwattr $C$DW$255, DW_AT_high_pc($C$DW$L$_xQueueReceive$12$E)
    2922              $C$DW$256       .dwtag  DW_TAG_TI_loop_range
TMS320C55x Assembler PC v4.4.1 Tue Sep 18 04:49:51 2018

Tools Copyright (c) 1996-2012 Texas Instruments Incorporated
queue.asm                                                            PAGE   62

    2923                      .dwattr $C$DW$256, DW_AT_low_pc($C$DW$L$_xQueueReceive$25$B)
    2924                      .dwattr $C$DW$256, DW_AT_high_pc($C$DW$L$_xQueueReceive$25$E)
    2925              $C$DW$257       .dwtag  DW_TAG_TI_loop_range
    2926                      .dwattr $C$DW$257, DW_AT_low_pc($C$DW$L$_xQueueReceive$31$B)
    2927                      .dwattr $C$DW$257, DW_AT_high_pc($C$DW$L$_xQueueReceive$31$E)
    2928              $C$DW$258       .dwtag  DW_TAG_TI_loop_range
    2929                      .dwattr $C$DW$258, DW_AT_low_pc($C$DW$L$_xQueueReceive$32$B)
    2930                      .dwattr $C$DW$258, DW_AT_high_pc($C$DW$L$_xQueueReceive$32$E)
    2931              $C$DW$259       .dwtag  DW_TAG_TI_loop_range
    2932                      .dwattr $C$DW$259, DW_AT_low_pc($C$DW$L$_xQueueReceive$33$B)
    2933                      .dwattr $C$DW$259, DW_AT_high_pc($C$DW$L$_xQueueReceive$33$E)
    2934              $C$DW$260       .dwtag  DW_TAG_TI_loop_range
    2935                      .dwattr $C$DW$260, DW_AT_low_pc($C$DW$L$_xQueueReceive$34$B)
    2936                      .dwattr $C$DW$260, DW_AT_high_pc($C$DW$L$_xQueueReceive$34$E)
    2937              $C$DW$261       .dwtag  DW_TAG_TI_loop_range
    2938                      .dwattr $C$DW$261, DW_AT_low_pc($C$DW$L$_xQueueReceive$35$B)
    2939                      .dwattr $C$DW$261, DW_AT_high_pc($C$DW$L$_xQueueReceive$35$E)
    2940              $C$DW$262       .dwtag  DW_TAG_TI_loop_range
    2941                      .dwattr $C$DW$262, DW_AT_low_pc($C$DW$L$_xQueueReceive$36$B)
    2942                      .dwattr $C$DW$262, DW_AT_high_pc($C$DW$L$_xQueueReceive$36$E)
    2943              $C$DW$263       .dwtag  DW_TAG_TI_loop_range
    2944                      .dwattr $C$DW$263, DW_AT_low_pc($C$DW$L$_xQueueReceive$37$B)
    2945                      .dwattr $C$DW$263, DW_AT_high_pc($C$DW$L$_xQueueReceive$37$E)
    2946              $C$DW$264       .dwtag  DW_TAG_TI_loop_range
    2947                      .dwattr $C$DW$264, DW_AT_low_pc($C$DW$L$_xQueueReceive$38$B)
    2948                      .dwattr $C$DW$264, DW_AT_high_pc($C$DW$L$_xQueueReceive$38$E)
    2949              $C$DW$265       .dwtag  DW_TAG_TI_loop_range
    2950                      .dwattr $C$DW$265, DW_AT_low_pc($C$DW$L$_xQueueReceive$39$B)
    2951                      .dwattr $C$DW$265, DW_AT_high_pc($C$DW$L$_xQueueReceive$39$E)
    2952              $C$DW$266       .dwtag  DW_TAG_TI_loop_range
    2953                      .dwattr $C$DW$266, DW_AT_low_pc($C$DW$L$_xQueueReceive$40$B)
    2954                      .dwattr $C$DW$266, DW_AT_high_pc($C$DW$L$_xQueueReceive$40$E)
    2955              $C$DW$267       .dwtag  DW_TAG_TI_loop_range
    2956                      .dwattr $C$DW$267, DW_AT_low_pc($C$DW$L$_xQueueReceive$41$B)
    2957                      .dwattr $C$DW$267, DW_AT_high_pc($C$DW$L$_xQueueReceive$41$E)
    2958              $C$DW$268       .dwtag  DW_TAG_TI_loop_range
    2959                      .dwattr $C$DW$268, DW_AT_low_pc($C$DW$L$_xQueueReceive$42$B)
    2960                      .dwattr $C$DW$268, DW_AT_high_pc($C$DW$L$_xQueueReceive$42$E)
    2961              $C$DW$269       .dwtag  DW_TAG_TI_loop_range
    2962                      .dwattr $C$DW$269, DW_AT_low_pc($C$DW$L$_xQueueReceive$43$B)
    2963                      .dwattr $C$DW$269, DW_AT_high_pc($C$DW$L$_xQueueReceive$43$E)
    2964              $C$DW$270       .dwtag  DW_TAG_TI_loop_range
    2965                      .dwattr $C$DW$270, DW_AT_low_pc($C$DW$L$_xQueueReceive$44$B)
    2966                      .dwattr $C$DW$270, DW_AT_high_pc($C$DW$L$_xQueueReceive$44$E)
    2967              $C$DW$271       .dwtag  DW_TAG_TI_loop_range
    2968                      .dwattr $C$DW$271, DW_AT_low_pc($C$DW$L$_xQueueReceive$49$B)
    2969                      .dwattr $C$DW$271, DW_AT_high_pc($C$DW$L$_xQueueReceive$49$E)
    2970              $C$DW$272       .dwtag  DW_TAG_TI_loop_range
    2971                      .dwattr $C$DW$272, DW_AT_low_pc($C$DW$L$_xQueueReceive$48$B)
    2972                      .dwattr $C$DW$272, DW_AT_high_pc($C$DW$L$_xQueueReceive$48$E)
    2973              $C$DW$273       .dwtag  DW_TAG_TI_loop_range
    2974                      .dwattr $C$DW$273, DW_AT_low_pc($C$DW$L$_xQueueReceive$46$B)
    2975                      .dwattr $C$DW$273, DW_AT_high_pc($C$DW$L$_xQueueReceive$46$E)
    2976              $C$DW$274       .dwtag  DW_TAG_TI_loop_range
    2977                      .dwattr $C$DW$274, DW_AT_low_pc($C$DW$L$_xQueueReceive$45$B)
TMS320C55x Assembler PC v4.4.1 Tue Sep 18 04:49:51 2018

Tools Copyright (c) 1996-2012 Texas Instruments Incorporated
queue.asm                                                            PAGE   63

    2978                      .dwattr $C$DW$274, DW_AT_high_pc($C$DW$L$_xQueueReceive$45$E)
    2979                      .dwendtag $C$DW$254
    2980              
    2981              
    2982              $C$DW$275       .dwtag  DW_TAG_TI_loop
    2983                      .dwattr $C$DW$275, DW_AT_name("F:\eZdsp_DBG\eZDSP_5535_Files\ccsws2\test\Debug\queue.asm:$C$L96:1:153
    2984                      .dwattr $C$DW$275, DW_AT_TI_begin_file("../FreeRTOS/Source/queue.c")
    2985                      .dwattr $C$DW$275, DW_AT_TI_begin_line(0x504)
    2986                      .dwattr $C$DW$275, DW_AT_TI_end_line(0x504)
    2987              $C$DW$276       .dwtag  DW_TAG_TI_loop_range
    2988                      .dwattr $C$DW$276, DW_AT_low_pc($C$DW$L$_xQueueReceive$11$B)
    2989                      .dwattr $C$DW$276, DW_AT_high_pc($C$DW$L$_xQueueReceive$11$E)
    2990                      .dwendtag $C$DW$275
    2991              
    2992              
    2993              $C$DW$277       .dwtag  DW_TAG_TI_loop
    2994                      .dwattr $C$DW$277, DW_AT_name("F:\eZdsp_DBG\eZDSP_5535_Files\ccsws2\test\Debug\queue.asm:$C$L92:1:153
    2995                      .dwattr $C$DW$277, DW_AT_TI_begin_file("../FreeRTOS/Source/queue.c")
    2996                      .dwattr $C$DW$277, DW_AT_TI_begin_line(0x500)
    2997                      .dwattr $C$DW$277, DW_AT_TI_end_line(0x500)
    2998              $C$DW$278       .dwtag  DW_TAG_TI_loop_range
    2999                      .dwattr $C$DW$278, DW_AT_low_pc($C$DW$L$_xQueueReceive$3$B)
    3000                      .dwattr $C$DW$278, DW_AT_high_pc($C$DW$L$_xQueueReceive$3$E)
    3001                      .dwendtag $C$DW$277
    3002              
    3003                      .dwattr $C$DW$225, DW_AT_TI_end_file("../FreeRTOS/Source/queue.c")
    3004                      .dwattr $C$DW$225, DW_AT_TI_end_line(0x583)
    3005                      .dwattr $C$DW$225, DW_AT_TI_end_column(0x01)
    3006                      .dwendentry
    3007                      .dwendtag $C$DW$225
    3008              
    3009 0007db               .sect   ".text"
    3010                      .align 4
    3011                      .global _xQueueSemaphoreTake
    3012              
    3013              $C$DW$279       .dwtag  DW_TAG_subprogram, DW_AT_name("xQueueSemaphoreTake")
    3014                      .dwattr $C$DW$279, DW_AT_low_pc(_xQueueSemaphoreTake)
    3015                      .dwattr $C$DW$279, DW_AT_high_pc(0x00)
    3016                      .dwattr $C$DW$279, DW_AT_TI_symbol_name("_xQueueSemaphoreTake")
    3017                      .dwattr $C$DW$279, DW_AT_external
    3018                      .dwattr $C$DW$279, DW_AT_type(*$C$DW$T$49)
    3019                      .dwattr $C$DW$279, DW_AT_TI_begin_file("../FreeRTOS/Source/queue.c")
    3020                      .dwattr $C$DW$279, DW_AT_TI_begin_line(0x586)
    3021                      .dwattr $C$DW$279, DW_AT_TI_begin_column(0x0c)
    3022                      .dwattr $C$DW$279, DW_AT_TI_max_frame_size(0x10)
    3023                      .dwpsn  file "../FreeRTOS/Source/queue.c",line 1415,column 1,is_stmt,address _xQueueSemaphoreTake
    3024              
    3025                      .dwfde $C$DW$CIE, _xQueueSemaphoreTake
    3026              $C$DW$280       .dwtag  DW_TAG_formal_parameter, DW_AT_name("xQueue")
    3027                      .dwattr $C$DW$280, DW_AT_TI_symbol_name("_xQueue")
    3028                      .dwattr $C$DW$280, DW_AT_type(*$C$DW$T$27)
    3029                      .dwattr $C$DW$280, DW_AT_location[DW_OP_reg17]
    3030              $C$DW$281       .dwtag  DW_TAG_formal_parameter, DW_AT_name("xTicksToWait")
    3031                      .dwattr $C$DW$281, DW_AT_TI_symbol_name("_xTicksToWait")
    3032                      .dwattr $C$DW$281, DW_AT_type(*$C$DW$T$44)
TMS320C55x Assembler PC v4.4.1 Tue Sep 18 04:49:51 2018

Tools Copyright (c) 1996-2012 Texas Instruments Incorporated
queue.asm                                                            PAGE   64

    3033                      .dwattr $C$DW$281, DW_AT_location[DW_OP_reg0]
    3034              ;*******************************************************************************
    3035              ;* FUNCTION NAME: xQueueSemaphoreTake                                          *
    3036              ;*                                                                             *
    3037              ;*   Function Uses Regs : AC0,AC0,T0,AR0,XAR0,AR1,XAR1,AR2,AR3,XAR3,SP,CARRY,  *
    3038              ;*                        TC1,M40,SATA,SATD,RDM,FRCT,SMUL                      *
    3039              ;*   Stack Frame        : Compact (No Frame Pointer, w/ debug)                 *
    3040              ;*   Total Frame Size   : 16 words                                             *
    3041              ;*                        (2 return address/alignment)                         *
    3042              ;*                        (14 local values)                                    *
    3043              ;*   Min System Stack   : 1 word                                               *
    3044              ;*******************************************************************************
    3045 0007dc       _xQueueSemaphoreTake:
    3046                      .dwcfi  cfa_offset, 1
    3047                      .dwcfi  save_reg_to_mem, 91, -1
    3048 0007dc 4EF1          AADD #-15, SP
    3049                      .dwcfi  cfa_offset, 16
    3050              $C$DW$282       .dwtag  DW_TAG_variable, DW_AT_name("xQueue")
    3051                      .dwattr $C$DW$282, DW_AT_TI_symbol_name("_xQueue")
    3052                      .dwattr $C$DW$282, DW_AT_type(*$C$DW$T$27)
    3053                      .dwattr $C$DW$282, DW_AT_location[DW_OP_bregx 0x24 0]
    3054              $C$DW$283       .dwtag  DW_TAG_variable, DW_AT_name("xTicksToWait")
    3055                      .dwattr $C$DW$283, DW_AT_TI_symbol_name("_xTicksToWait")
    3056                      .dwattr $C$DW$283, DW_AT_type(*$C$DW$T$44)
    3057                      .dwattr $C$DW$283, DW_AT_location[DW_OP_bregx 0x24 2]
    3058              $C$DW$284       .dwtag  DW_TAG_variable, DW_AT_name("xEntryTimeSet")
    3059                      .dwattr $C$DW$284, DW_AT_TI_symbol_name("_xEntryTimeSet")
    3060                      .dwattr $C$DW$284, DW_AT_type(*$C$DW$T$49)
    3061                      .dwattr $C$DW$284, DW_AT_location[DW_OP_bregx 0x24 4]
    3062              $C$DW$285       .dwtag  DW_TAG_variable, DW_AT_name("xTimeOut")
    3063                      .dwattr $C$DW$285, DW_AT_TI_symbol_name("_xTimeOut")
    3064                      .dwattr $C$DW$285, DW_AT_type(*$C$DW$T$92)
    3065                      .dwattr $C$DW$285, DW_AT_location[DW_OP_bregx 0x24 6]
    3066              $C$DW$286       .dwtag  DW_TAG_variable, DW_AT_name("pxQueue")
    3067                      .dwattr $C$DW$286, DW_AT_TI_symbol_name("_pxQueue")
    3068                      .dwattr $C$DW$286, DW_AT_type(*$C$DW$T$69)
    3069                      .dwattr $C$DW$286, DW_AT_location[DW_OP_bregx 0x24 10]
    3070              $C$DW$287       .dwtag  DW_TAG_variable, DW_AT_name("xInheritanceOccurred")
    3071                      .dwattr $C$DW$287, DW_AT_TI_symbol_name("_xInheritanceOccurred")
    3072                      .dwattr $C$DW$287, DW_AT_type(*$C$DW$T$49)
    3073                      .dwattr $C$DW$287, DW_AT_location[DW_OP_bregx 0x24 12]
    3074 0007de EB04          MOV AC0, dbl(*SP(#2)) ; |1415| 
         0007e0 08   
    3075 0007e1 EB00          MOV XAR0, dbl(*SP(#0))
         0007e3 85   
    3076                      .dwpsn  file "../FreeRTOS/Source/queue.c",line 1416,column 12,is_stmt
    3077 0007e4 E608          MOV #0, *SP(#4) ; |1416| 
         0007e6 00   
    3078                      .dwpsn  file "../FreeRTOS/Source/queue.c",line 1418,column 17,is_stmt
    3079 0007e7 ED00          MOV dbl(*SP(#0)), XAR3
         0007e9 BF   
    3080 0007ea EB14          MOV XAR3, dbl(*SP(#10))
         0007ec B5   
    3081                      .dwpsn  file "../FreeRTOS/Source/queue.c",line 1421,column 13,is_stmt
    3082 0007ed E618          MOV #0, *SP(#12) ; |1421| 
TMS320C55x Assembler PC v4.4.1 Tue Sep 18 04:49:51 2018

Tools Copyright (c) 1996-2012 Texas Instruments Incorporated
queue.asm                                                            PAGE   65

         0007ef 00   
    3083                      .dwpsn  file "../FreeRTOS/Source/queue.c",line 1425,column 2,is_stmt
    3084 0007f0 ED14          MOV dbl(*SP(#10)), XAR3
         0007f2 BF   
    3085 0007f3 90B0          MOV XAR3, AC0
    3086 0007f5 6290          BCC $C$L114,AC0 != #0 ; |1425| 
    3087                                                      ; branchcc occurs ; |1425| 
    3088 0007f7 20     nop
    3089 0007f8 46B3   bset INTM
    3090 0007fa       $C$L113:    
    3091 0007fa       $C$DW$L$_xQueueSemaphoreTake$3$B:
    3092 0007fa 4A7E          B $C$L113 ; |1425| 
    3093                                                      ; branch occurs ; |1425| 
    3094 0007fc       $C$DW$L$_xQueueSemaphoreTake$3$E:
    3095 0007fc       $C$L114:    
    3096                      .dwpsn  file "../FreeRTOS/Source/queue.c",line 1429,column 2,is_stmt
    3097 0007fc AA6D          MOV *AR3(#30), AR2 ; |1429| 
         0007fe 001E 
    3098 000800 3C09          MOV #0, AR1
    3099 000802 611A          BCC $C$L115,AR2 != #0 ; |1429| 
    3100                                                      ; branchcc occurs ; |1429| 
    3101 000804 3C19          MOV #1, AR1
    3102 000806       $C$L115:    
    3103 000806 6299          BCC $C$L117,AR1 != #0 ; |1429| 
    3104                                                      ; branchcc occurs ; |1429| 
    3105 000808 20     nop
    3106 000809 46B3   bset INTM
    3107 00080b       $C$L116:    
    3108 00080b       $C$DW$L$_xQueueSemaphoreTake$8$B:
    3109 00080b 4A7E          B $C$L116 ; |1429| 
    3110                                                      ; branch occurs ; |1429| 
    3111 00080d       $C$DW$L$_xQueueSemaphoreTake$8$E:
    3112 00080d       $C$L117:    
    3113 00080d       $C$DW$L$_xQueueSemaphoreTake$9$B:
    3114                      .dwpsn  file "../FreeRTOS/Source/queue.c",line 1444,column 3,is_stmt
    3115 00080d 20     nop
    3116 00080e 46B3   bset INTM
    3117 000810 F731          ADD #1, *(#_usCriticalNesting) ; |1444| 
         000812 0001 
         000814 0000 
         000816 00!  
    3118 000817 20            NOP
    3119 000818 20            NOP
    3120              
    3121              $C$DW$288       .dwtag  DW_TAG_lexical_block, DW_AT_low_pc(0x00), DW_AT_high_pc(0x00)
    3122              $C$DW$289       .dwtag  DW_TAG_variable, DW_AT_name("uxSemaphoreCount")
    3123                      .dwattr $C$DW$289, DW_AT_TI_symbol_name("_uxSemaphoreCount")
    3124                      .dwattr $C$DW$289, DW_AT_type(*$C$DW$T$56)
    3125                      .dwattr $C$DW$289, DW_AT_location[DW_OP_bregx 0x24 13]
    3126                      .dwpsn  file "../FreeRTOS/Source/queue.c",line 1448,column 22,is_stmt
    3127 000819 ED14          MOV dbl(*SP(#10)), XAR3
         00081b BF   
    3128 00081c A96D          MOV *AR3(#28), AR1 ; |1448| 
         00081e 001C 
    3129 000820 C91A          MOV AR1, *SP(#13) ; |1448| 
TMS320C55x Assembler PC v4.4.1 Tue Sep 18 04:49:51 2018

Tools Copyright (c) 1996-2012 Texas Instruments Incorporated
queue.asm                                                            PAGE   66

    3130                      .dwpsn  file "../FreeRTOS/Source/queue.c",line 1452,column 4,is_stmt
    3131 000822 0409          BCC $C$L123,AR1 == #0 ; |1452| 
         000824 62   
    3132                                                      ; branchcc occurs ; |1452| 
    3133 000825       $C$DW$L$_xQueueSemaphoreTake$9$E:
    3134                      .dwpsn  file "../FreeRTOS/Source/queue.c",line 1458,column 5,is_stmt
    3135 000825 ED14          MOV dbl(*SP(#10)), XAR3
         000827 BF   
    3136 000828 4219          SUB #1, AR1 ; |1458| 
    3137 00082a C96D          MOV AR1, *AR3(#28) ; |1458| 
         00082c 001C 
    3138                      .dwpsn  file "../FreeRTOS/Source/queue.c",line 1462,column 6,is_stmt
    3139 00082e ED14          MOV dbl(*SP(#10)), XAR3
         000830 BF   
    3140 000831 ED61          MOV dbl(*AR3), XAR3
         000833 BF   
    3141 000834 90B0          MOV XAR3, AC0
    3142 000836 6510          BCC $C$L118,AC0 != #0 ; |1462| 
    3143                                                      ; branchcc occurs ; |1462| 
    3144                      .dwpsn  file "../FreeRTOS/Source/queue.c",line 1466,column 7,is_stmt
    3145              $C$DW$290       .dwtag  DW_TAG_TI_branch
    3146                      .dwattr $C$DW$290, DW_AT_low_pc(0x00)
    3147                      .dwattr $C$DW$290, DW_AT_name("_pvTaskIncrementMutexHeldCount")
    3148                      .dwattr $C$DW$290, DW_AT_TI_call
    3149 000838 6C00          CALL #_pvTaskIncrementMutexHeldCount ; |1466| 
         00083a 0000!
    3150                                                      ; call occurs [#_pvTaskIncrementMutexHeldCount] ; |1466| 
    3151 00083c ED14          MOV dbl(*SP(#10)), XAR3
         00083e BF   
    3152 00083f EB79          MOV XAR0, dbl(*AR3(short(#4)))
         000841 85   
    3153                      .dwpsn  file "../FreeRTOS/Source/queue.c",line 1467,column 6,is_stmt
    3154 000842       $C$L118:    
    3155                      .dwpsn  file "../FreeRTOS/Source/queue.c",line 1477,column 5,is_stmt
    3156 000842 ED14          MOV dbl(*SP(#10)), XAR3
         000844 BF   
    3157 000845 A96D          MOV *AR3(#8), AR1 ; |1477| 
         000847 0008 
    3158 000849 6219          BCC $C$L119,AR1 != #0 ; |1477| 
    3159                                                      ; branchcc occurs ; |1477| 
    3160 00084b 3C19          MOV #1, AR1
    3161 00084d 4A02          B $C$L120 ; |1477| 
    3162                                                      ; branch occurs ; |1477| 
    3163 00084f       $C$L119:    
    3164 00084f 3C09          MOV #0, AR1
    3165 000851       $C$L120:    
    3166 000851 0419          BCC $C$L121,AR1 != #0 ; |1477| 
         000853 12   
    3167                                                      ; branchcc occurs ; |1477| 
    3168                      .dwpsn  file "../FreeRTOS/Source/queue.c",line 1479,column 6,is_stmt
    3169 000854 ED14          MOV dbl(*SP(#10)), XAR0
         000856 8F   
    3170 000857 1408          AADD #8, AR0 ; |1479| 
         000859 84   
    3171              $C$DW$291       .dwtag  DW_TAG_TI_branch
TMS320C55x Assembler PC v4.4.1 Tue Sep 18 04:49:51 2018

Tools Copyright (c) 1996-2012 Texas Instruments Incorporated
queue.asm                                                            PAGE   67

    3172                      .dwattr $C$DW$291, DW_AT_low_pc(0x00)
    3173                      .dwattr $C$DW$291, DW_AT_name("_xTaskRemoveFromEventList")
    3174                      .dwattr $C$DW$291, DW_AT_TI_call
    3175 00085a 6C00          CALL #_xTaskRemoveFromEventList ; |1479| 
         00085c 0000!
    3176                                                      ; call occurs [#_xTaskRemoveFromEventList] ; |1479| 
    3177 00085e 6304          BCC $C$L121,T0 == #0 ; |1479| 
    3178                                                      ; branchcc occurs ; |1479| 
    3179                      .dwpsn  file "../FreeRTOS/Source/queue.c",line 1481,column 7,is_stmt
    3180              $C$DW$292       .dwtag  DW_TAG_TI_branch
    3181                      .dwattr $C$DW$292, DW_AT_low_pc(0x00)
    3182                      .dwattr $C$DW$292, DW_AT_name("_vPortYield")
    3183                      .dwattr $C$DW$292, DW_AT_TI_call
    3184 000860 6C00          CALL #_vPortYield ; |1481| 
         000862 0000!
    3185                                                      ; call occurs [#_vPortYield] ; |1481| 
    3186                      .dwpsn  file "../FreeRTOS/Source/queue.c",line 1482,column 6,is_stmt
    3187 000864 4A00          B $C$L121 ; |1482| 
    3188                                                      ; branch occurs ; |1482| 
    3189 000866       $C$L121:    
    3190                      .dwpsn  file "../FreeRTOS/Source/queue.c",line 1493,column 5,is_stmt
    3191 000866 A931          MOV *(#_usCriticalNesting), AR1 ; |1493| 
         000868 0000 
         00086a 00!  
    3192 00086b 0409          BCC $C$L122,AR1 == #0 ; |1493| 
         00086d 14   
    3193                                                      ; branchcc occurs ; |1493| 
    3194 00086e F731          SUB #1, *(#_usCriticalNesting) ; |1493| 
         000870 FFFF 
         000872 0000 
         000874 00!  
    3195 000875 20            NOP
    3196 000876 20            NOP
    3197 000877 20            NOP
    3198 000878 A931          MOV *(#_usCriticalNesting), AR1 ; |1493| 
         00087a 0000 
         00087c 00!  
    3199 00087d 6199          BCC $C$L122,AR1 != #0 ; |1493| 
    3200                                                      ; branchcc occurs ; |1493| 
    3201 00087f 20     nop
    3202 000880 46B2   bclr INTM
    3203 000882       $C$L122:    
    3204                      .dwpsn  file "../FreeRTOS/Source/queue.c",line 1494,column 5,is_stmt
    3205 000882 3C14          MOV #1, T0
    3206 000884 0601          B $C$L138 ; |1494| 
         000886 83   
    3207                                                      ; branch occurs ; |1494| 
    3208 000887       $C$L123:    
    3209 000887       $C$DW$L$_xQueueSemaphoreTake$24$B:
    3210                      .dwpsn  file "../FreeRTOS/Source/queue.c",line 1498,column 5,is_stmt
    3211 000887 ED04          MOV dbl(*SP(#2)), AC0 ; |1498| 
         000889 08   
    3212 00088a 0410          BCC $C$L128,AC0 != #0 ; |1498| 
         00088c 30   
    3213                                                      ; branchcc occurs ; |1498| 
TMS320C55x Assembler PC v4.4.1 Tue Sep 18 04:49:51 2018

Tools Copyright (c) 1996-2012 Texas Instruments Incorporated
queue.asm                                                            PAGE   68

    3214 00088d       $C$DW$L$_xQueueSemaphoreTake$24$E:
    3215                      .dwpsn  file "../FreeRTOS/Source/queue.c",line 1505,column 7,is_stmt
    3216 00088d AA18          MOV *SP(#12), AR2 ; |1505| 
    3217 00088f 3C09          MOV #0, AR1
    3218 000891 611A          BCC $C$L124,AR2 != #0 ; |1505| 
    3219                                                      ; branchcc occurs ; |1505| 
    3220 000893 3C19          MOV #1, AR1
    3221 000895       $C$L124:    
    3222 000895 6299          BCC $C$L126,AR1 != #0 ; |1505| 
    3223                                                      ; branchcc occurs ; |1505| 
    3224 000897 20     nop
    3225 000898 46B3   bset INTM
    3226 00089a       $C$L125:    
    3227 00089a       $C$DW$L$_xQueueSemaphoreTake$29$B:
    3228 00089a 4A7E          B $C$L125 ; |1505| 
    3229                                                      ; branch occurs ; |1505| 
    3230 00089c       $C$DW$L$_xQueueSemaphoreTake$29$E:
    3231 00089c       $C$L126:    
    3232                      .dwpsn  file "../FreeRTOS/Source/queue.c",line 1511,column 6,is_stmt
    3233 00089c A931          MOV *(#_usCriticalNesting), AR1 ; |1511| 
         00089e 0000 
         0008a0 00!  
    3234 0008a1 0409          BCC $C$L127,AR1 == #0 ; |1511| 
         0008a3 14   
    3235                                                      ; branchcc occurs ; |1511| 
    3236 0008a4 F731          SUB #1, *(#_usCriticalNesting) ; |1511| 
         0008a6 FFFF 
         0008a8 0000 
         0008aa 00!  
    3237 0008ab 20            NOP
    3238 0008ac 20            NOP
    3239 0008ad 20            NOP
    3240 0008ae A931          MOV *(#_usCriticalNesting), AR1 ; |1511| 
         0008b0 0000 
         0008b2 00!  
    3241 0008b3 6199          BCC $C$L127,AR1 != #0 ; |1511| 
    3242                                                      ; branchcc occurs ; |1511| 
    3243 0008b5 20     nop
    3244 0008b6 46B2   bclr INTM
    3245 0008b8       $C$L127:    
    3246                      .dwpsn  file "../FreeRTOS/Source/queue.c",line 1513,column 6,is_stmt
    3247 0008b8 3C04          MOV #0, T0
    3248 0008ba 0601          B $C$L138 ; |1513| 
         0008bc 4D   
    3249                                                      ; branch occurs ; |1513| 
    3250 0008bd       $C$L128:    
    3251 0008bd       $C$DW$L$_xQueueSemaphoreTake$35$B:
    3252                      .dwpsn  file "../FreeRTOS/Source/queue.c",line 1515,column 10,is_stmt
    3253 0008bd A908          MOV *SP(#4), AR1 ; |1515| 
    3254 0008bf 6519          BCC $C$L129,AR1 != #0 ; |1515| 
    3255                                                      ; branchcc occurs ; |1515| 
    3256 0008c1       $C$DW$L$_xQueueSemaphoreTake$35$E:
    3257 0008c1       $C$DW$L$_xQueueSemaphoreTake$36$B:
    3258                      .dwpsn  file "../FreeRTOS/Source/queue.c",line 1519,column 6,is_stmt
    3259 0008c1 EC0C          AMAR *SP(#6), XAR0
TMS320C55x Assembler PC v4.4.1 Tue Sep 18 04:49:51 2018

Tools Copyright (c) 1996-2012 Texas Instruments Incorporated
queue.asm                                                            PAGE   69

         0008c3 8E   
    3260              $C$DW$293       .dwtag  DW_TAG_TI_branch
    3261                      .dwattr $C$DW$293, DW_AT_low_pc(0x00)
    3262                      .dwattr $C$DW$293, DW_AT_name("_vTaskInternalSetTimeOutState")
    3263                      .dwattr $C$DW$293, DW_AT_TI_call
    3264 0008c4 6C00          CALL #_vTaskInternalSetTimeOutState ; |1519| 
         0008c6 0000!
    3265                                                      ; call occurs [#_vTaskInternalSetTimeOutState] ; |1519| 
    3266                      .dwpsn  file "../FreeRTOS/Source/queue.c",line 1520,column 6,is_stmt
    3267 0008c8 E608          MOV #1, *SP(#4) ; |1520| 
         0008ca 01   
    3268                      .dwpsn  file "../FreeRTOS/Source/queue.c",line 1521,column 5,is_stmt
    3269              $C$DW$L$_xQueueSemaphoreTake$36$E:
    3270              $C$L129:    
    3271              $C$DW$L$_xQueueSemaphoreTake$37$B:
    3272                      .dwendtag $C$DW$288
    3273              
    3274                      .dwpsn  file "../FreeRTOS/Source/queue.c",line 1529,column 3,is_stmt
    3275 0008cb A931          MOV *(#_usCriticalNesting), AR1 ; |1529| 
         0008cd 0000 
         0008cf 00!  
    3276 0008d0 0409          BCC $C$L130,AR1 == #0 ; |1529| 
         0008d2 14   
    3277                                                      ; branchcc occurs ; |1529| 
    3278 0008d3       $C$DW$L$_xQueueSemaphoreTake$37$E:
    3279 0008d3       $C$DW$L$_xQueueSemaphoreTake$38$B:
    3280 0008d3 F731          SUB #1, *(#_usCriticalNesting) ; |1529| 
         0008d5 FFFF 
         0008d7 0000 
         0008d9 00!  
    3281 0008da 20            NOP
    3282 0008db 20            NOP
    3283 0008dc 20            NOP
    3284 0008dd A931          MOV *(#_usCriticalNesting), AR1 ; |1529| 
         0008df 0000 
         0008e1 00!  
    3285 0008e2 6199          BCC $C$L130,AR1 != #0 ; |1529| 
    3286                                                      ; branchcc occurs ; |1529| 
    3287 0008e4       $C$DW$L$_xQueueSemaphoreTake$38$E:
    3288 0008e4       $C$DW$L$_xQueueSemaphoreTake$39$B:
    3289 0008e4 20     nop
    3290 0008e5 46B2   bclr INTM
    3291 0008e7       $C$DW$L$_xQueueSemaphoreTake$39$E:
    3292 0008e7       $C$L130:    
    3293 0008e7       $C$DW$L$_xQueueSemaphoreTake$40$B:
    3294                      .dwpsn  file "../FreeRTOS/Source/queue.c",line 1534,column 3,is_stmt
    3295              $C$DW$294       .dwtag  DW_TAG_TI_branch
    3296                      .dwattr $C$DW$294, DW_AT_low_pc(0x00)
    3297                      .dwattr $C$DW$294, DW_AT_name("_vTaskSuspendAll")
    3298                      .dwattr $C$DW$294, DW_AT_TI_call
    3299 0008e7 6C00          CALL #_vTaskSuspendAll ; |1534| 
         0008e9 0000!
    3300                                                      ; call occurs [#_vTaskSuspendAll] ; |1534| 
    3301                      .dwpsn  file "../FreeRTOS/Source/queue.c",line 1535,column 3,is_stmt
    3302 0008eb 20     nop
TMS320C55x Assembler PC v4.4.1 Tue Sep 18 04:49:51 2018

Tools Copyright (c) 1996-2012 Texas Instruments Incorporated
queue.asm                                                            PAGE   70

    3303 0008ec 46B3   bset INTM
    3304 0008ee F731          ADD #1, *(#_usCriticalNesting) ; |1535| 
         0008f0 0001 
         0008f2 0000 
         0008f4 00!  
    3305 0008f5 20            NOP
    3306 0008f6 20            NOP
    3307 0008f7 ED14          MOV dbl(*SP(#10)), XAR3
         0008f9 BF   
    3308 0008fa F06D          CMP *AR3(#31) == #-1, TC1 ; |1535| 
         0008fc FFFF 
         0008fe 001F 
    3309 000900 62F4          BCC $C$L131,!TC1 ; |1535| 
    3310                                                      ; branchcc occurs ; |1535| 
    3311 000902       $C$DW$L$_xQueueSemaphoreTake$40$E:
    3312 000902       $C$DW$L$_xQueueSemaphoreTake$41$B:
    3313 000902 E66D          MOV #0, *AR3(#31) ; |1535| 
         000904 0000 
         000906 1F   
    3314 000907       $C$DW$L$_xQueueSemaphoreTake$41$E:
    3315 000907       $C$L131:    
    3316 000907       $C$DW$L$_xQueueSemaphoreTake$42$B:
    3317 000907 ED14          MOV dbl(*SP(#10)), XAR3
         000909 BF   
    3318 00090a F06D          CMP *AR3(#32) == #-1, TC1 ; |1535| 
         00090c FFFF 
         00090e 0020 
    3319 000910 62F4          BCC $C$L132,!TC1 ; |1535| 
    3320                                                      ; branchcc occurs ; |1535| 
    3321 000912       $C$DW$L$_xQueueSemaphoreTake$42$E:
    3322 000912       $C$DW$L$_xQueueSemaphoreTake$43$B:
    3323 000912 E66D          MOV #0, *AR3(#32) ; |1535| 
         000914 0000 
         000916 20   
    3324 000917       $C$DW$L$_xQueueSemaphoreTake$43$E:
    3325 000917       $C$L132:    
    3326 000917       $C$DW$L$_xQueueSemaphoreTake$44$B:
    3327 000917 A931          MOV *(#_usCriticalNesting), AR1 ; |1535| 
         000919 0000 
         00091b 00!  
    3328 00091c 0409          BCC $C$L133,AR1 == #0 ; |1535| 
         00091e 14   
    3329                                                      ; branchcc occurs ; |1535| 
    3330 00091f       $C$DW$L$_xQueueSemaphoreTake$44$E:
    3331 00091f       $C$DW$L$_xQueueSemaphoreTake$45$B:
    3332 00091f F731          SUB #1, *(#_usCriticalNesting) ; |1535| 
         000921 FFFF 
         000923 0000 
         000925 00!  
    3333 000926 20            NOP
    3334 000927 20            NOP
    3335 000928 20            NOP
    3336 000929 A931          MOV *(#_usCriticalNesting), AR1 ; |1535| 
         00092b 0000 
         00092d 00!  
TMS320C55x Assembler PC v4.4.1 Tue Sep 18 04:49:51 2018

Tools Copyright (c) 1996-2012 Texas Instruments Incorporated
queue.asm                                                            PAGE   71

    3337 00092e 6199          BCC $C$L133,AR1 != #0 ; |1535| 
    3338                                                      ; branchcc occurs ; |1535| 
    3339 000930       $C$DW$L$_xQueueSemaphoreTake$45$E:
    3340 000930       $C$DW$L$_xQueueSemaphoreTake$46$B:
    3341 000930 20     nop
    3342 000931 46B2   bclr INTM
    3343 000933       $C$DW$L$_xQueueSemaphoreTake$46$E:
    3344 000933       $C$L133:    
    3345 000933       $C$DW$L$_xQueueSemaphoreTake$47$B:
    3346                      .dwpsn  file "../FreeRTOS/Source/queue.c",line 1538,column 3,is_stmt
    3347 000933 EC0C          AMAR *SP(#6), XAR0
         000935 8E   
    3348 000936 EC04          AMAR *SP(#2), XAR1
         000938 9E   
    3349              $C$DW$295       .dwtag  DW_TAG_TI_branch
    3350                      .dwattr $C$DW$295, DW_AT_low_pc(0x00)
    3351                      .dwattr $C$DW$295, DW_AT_name("_xTaskCheckForTimeOut")
    3352                      .dwattr $C$DW$295, DW_AT_TI_call
    3353 000939 6C00          CALL #_xTaskCheckForTimeOut ; |1538| 
         00093b 0000!
    3354                                                      ; call occurs [#_xTaskCheckForTimeOut] ; |1538| 
    3355 00093d 0414          BCC $C$L136,T0 != #0 ; |1538| 
         00093f 75   
    3356                                                      ; branchcc occurs ; |1538| 
    3357 000940       $C$DW$L$_xQueueSemaphoreTake$47$E:
    3358 000940       $C$DW$L$_xQueueSemaphoreTake$48$B:
    3359                      .dwpsn  file "../FreeRTOS/Source/queue.c",line 1544,column 4,is_stmt
    3360 000940 ED14          MOV dbl(*SP(#10)), XAR0
         000942 8F   
    3361              $C$DW$296       .dwtag  DW_TAG_TI_branch
    3362                      .dwattr $C$DW$296, DW_AT_low_pc(0x00)
    3363                      .dwattr $C$DW$296, DW_AT_name("_prvIsQueueEmpty")
    3364                      .dwattr $C$DW$296, DW_AT_TI_call
    3365 000943 0806          CALL #_prvIsQueueEmpty ; |1544| 
         000945 E6   
    3366                                                      ; call occurs [#_prvIsQueueEmpty] ; |1544| 
    3367 000946 0404          BCC $C$L135,T0 == #0 ; |1544| 
         000948 5F   
    3368                                                      ; branchcc occurs ; |1544| 
    3369 000949       $C$DW$L$_xQueueSemaphoreTake$48$E:
    3370 000949       $C$DW$L$_xQueueSemaphoreTake$49$B:
    3371                      .dwpsn  file "../FreeRTOS/Source/queue.c",line 1550,column 6,is_stmt
    3372 000949 ED14          MOV dbl(*SP(#10)), XAR3
         00094b BF   
    3373 00094c ED61          MOV dbl(*AR3), XAR3
         00094e BF   
    3374 00094f 90B0          MOV XAR3, AC0
    3375 000951 0410          BCC $C$L134,AC0 != #0 ; |1550| 
         000953 32   
    3376                                                      ; branchcc occurs ; |1550| 
    3377 000954       $C$DW$L$_xQueueSemaphoreTake$49$E:
    3378 000954       $C$DW$L$_xQueueSemaphoreTake$50$B:
    3379                      .dwpsn  file "../FreeRTOS/Source/queue.c",line 1552,column 7,is_stmt
    3380 000954 20     nop
    3381 000955 46B3   bset INTM
TMS320C55x Assembler PC v4.4.1 Tue Sep 18 04:49:51 2018

Tools Copyright (c) 1996-2012 Texas Instruments Incorporated
queue.asm                                                            PAGE   72

    3382 000957 F731          ADD #1, *(#_usCriticalNesting) ; |1552| 
         000959 0001 
         00095b 0000 
         00095d 00!  
    3383                      .dwpsn  file "../FreeRTOS/Source/queue.c",line 1554,column 8,is_stmt
    3384 00095e ED14          MOV dbl(*SP(#10)), XAR3
         000960 BF   
    3385 000961 ED79          MOV dbl(*AR3(short(#4))), XAR0
         000963 8F   
    3386              $C$DW$297       .dwtag  DW_TAG_TI_branch
    3387                      .dwattr $C$DW$297, DW_AT_low_pc(0x00)
    3388                      .dwattr $C$DW$297, DW_AT_name("_xTaskPriorityInherit")
    3389                      .dwattr $C$DW$297, DW_AT_TI_call
    3390 000964 6C00          CALL #_xTaskPriorityInherit ; |1554| 
         000966 0000!
    3391                                                      ; call occurs [#_xTaskPriorityInherit] ; |1554| 
    3392 000968 C418          MOV T0, *SP(#12) ; |1554| 
    3393                      .dwpsn  file "../FreeRTOS/Source/queue.c",line 1556,column 7,is_stmt
    3394 00096a A931          MOV *(#_usCriticalNesting), AR1 ; |1556| 
         00096c 0000 
         00096e 00!  
    3395 00096f 0409          BCC $C$L134,AR1 == #0 ; |1556| 
         000971 14   
    3396                                                      ; branchcc occurs ; |1556| 
    3397 000972       $C$DW$L$_xQueueSemaphoreTake$50$E:
    3398 000972       $C$DW$L$_xQueueSemaphoreTake$51$B:
    3399 000972 F731          SUB #1, *(#_usCriticalNesting) ; |1556| 
         000974 FFFF 
         000976 0000 
         000978 00!  
    3400 000979 20            NOP
    3401 00097a 20            NOP
    3402 00097b 20            NOP
    3403 00097c A931          MOV *(#_usCriticalNesting), AR1 ; |1556| 
         00097e 0000 
         000980 00!  
    3404 000981 6199          BCC $C$L134,AR1 != #0 ; |1556| 
    3405                                                      ; branchcc occurs ; |1556| 
    3406 000983       $C$DW$L$_xQueueSemaphoreTake$51$E:
    3407 000983       $C$DW$L$_xQueueSemaphoreTake$52$B:
    3408 000983 20     nop
    3409 000984 46B2   bclr INTM
    3410                      .dwpsn  file "../FreeRTOS/Source/queue.c",line 1557,column 6,is_stmt
    3411 000986       $C$DW$L$_xQueueSemaphoreTake$52$E:
    3412 000986       $C$L134:    
    3413 000986       $C$DW$L$_xQueueSemaphoreTake$53$B:
    3414                      .dwpsn  file "../FreeRTOS/Source/queue.c",line 1565,column 5,is_stmt
    3415 000986 ED14          MOV dbl(*SP(#10)), XAR0
         000988 8F   
    3416              
    3417                      AADD #18, AR0 ; |1565| 
    3418 000989 8E04  ||      MOV dbl(*SP(#2)), AC0 ; |1565| 
         00098b 8D1C 
         00098d 0812 
    3419              
TMS320C55x Assembler PC v4.4.1 Tue Sep 18 04:49:51 2018

Tools Copyright (c) 1996-2012 Texas Instruments Incorporated
queue.asm                                                            PAGE   73

    3420              $C$DW$298       .dwtag  DW_TAG_TI_branch
    3421                      .dwattr $C$DW$298, DW_AT_low_pc(0x00)
    3422                      .dwattr $C$DW$298, DW_AT_name("_vTaskPlaceOnEventList")
    3423                      .dwattr $C$DW$298, DW_AT_TI_call
    3424 00098f 6C00          CALL #_vTaskPlaceOnEventList ; |1565| 
         000991 0000!
    3425                                                      ; call occurs [#_vTaskPlaceOnEventList] ; |1565| 
    3426                      .dwpsn  file "../FreeRTOS/Source/queue.c",line 1566,column 5,is_stmt
    3427 000993 ED14          MOV dbl(*SP(#10)), XAR0
         000995 8F   
    3428              $C$DW$299       .dwtag  DW_TAG_TI_branch
    3429                      .dwattr $C$DW$299, DW_AT_low_pc(0x00)
    3430                      .dwattr $C$DW$299, DW_AT_name("_prvUnlockQueue")
    3431                      .dwattr $C$DW$299, DW_AT_TI_call
    3432 000996 0805          CALL #_prvUnlockQueue ; |1566| 
         000998 AF   
    3433                                                      ; call occurs [#_prvUnlockQueue] ; |1566| 
    3434                      .dwpsn  file "../FreeRTOS/Source/queue.c",line 1567,column 5,is_stmt
    3435              $C$DW$300       .dwtag  DW_TAG_TI_branch
    3436                      .dwattr $C$DW$300, DW_AT_low_pc(0x00)
    3437                      .dwattr $C$DW$300, DW_AT_name("_xTaskResumeAll")
    3438                      .dwattr $C$DW$300, DW_AT_TI_call
    3439 000999 6C00          CALL #_xTaskResumeAll ; |1567| 
         00099b 0000!
    3440                                                      ; call occurs [#_xTaskResumeAll] ; |1567| 
    3441 00099d 6D14          BCC $C$L117,T0 != #0 ; |1567| 
         00099f FE6C 
    3442                                                      ; branchcc occurs ; |1567| 
    3443 0009a1       $C$DW$L$_xQueueSemaphoreTake$53$E:
    3444 0009a1       $C$DW$L$_xQueueSemaphoreTake$54$B:
    3445                      .dwpsn  file "../FreeRTOS/Source/queue.c",line 1569,column 6,is_stmt
    3446              $C$DW$301       .dwtag  DW_TAG_TI_branch
    3447                      .dwattr $C$DW$301, DW_AT_low_pc(0x00)
    3448                      .dwattr $C$DW$301, DW_AT_name("_vPortYield")
    3449                      .dwattr $C$DW$301, DW_AT_TI_call
    3450 0009a1 6C00          CALL #_vPortYield ; |1569| 
         0009a3 0000!
    3451                                                      ; call occurs [#_vPortYield] ; |1569| 
    3452                      .dwpsn  file "../FreeRTOS/Source/queue.c",line 1570,column 5,is_stmt
    3453 0009a5 06FE          B $C$L117 ; |1570| 
         0009a7 65   
    3454                                                      ; branch occurs ; |1570| 
    3455 0009a8       $C$DW$L$_xQueueSemaphoreTake$54$E:
    3456 0009a8       $C$L135:    
    3457 0009a8       $C$DW$L$_xQueueSemaphoreTake$56$B:
    3458                      .dwpsn  file "../FreeRTOS/Source/queue.c",line 1580,column 5,is_stmt
    3459 0009a8 ED14          MOV dbl(*SP(#10)), XAR0
         0009aa 8F   
    3460              $C$DW$302       .dwtag  DW_TAG_TI_branch
    3461                      .dwattr $C$DW$302, DW_AT_low_pc(0x00)
    3462                      .dwattr $C$DW$302, DW_AT_name("_prvUnlockQueue")
    3463                      .dwattr $C$DW$302, DW_AT_TI_call
    3464 0009ab 0805          CALL #_prvUnlockQueue ; |1580| 
         0009ad 9A   
    3465                                                      ; call occurs [#_prvUnlockQueue] ; |1580| 
TMS320C55x Assembler PC v4.4.1 Tue Sep 18 04:49:51 2018

Tools Copyright (c) 1996-2012 Texas Instruments Incorporated
queue.asm                                                            PAGE   74

    3466                      .dwpsn  file "../FreeRTOS/Source/queue.c",line 1581,column 5,is_stmt
    3467              $C$DW$303       .dwtag  DW_TAG_TI_branch
    3468                      .dwattr $C$DW$303, DW_AT_low_pc(0x00)
    3469                      .dwattr $C$DW$303, DW_AT_name("_xTaskResumeAll")
    3470                      .dwattr $C$DW$303, DW_AT_TI_call
    3471 0009ae 6C00          CALL #_xTaskResumeAll ; |1581| 
         0009b0 0000!
    3472                                                      ; call occurs [#_xTaskResumeAll] ; |1581| 
    3473                      .dwpsn  file "../FreeRTOS/Source/queue.c",line 1583,column 3,is_stmt
    3474 0009b2 06FE          B $C$L117 ; |1583| 
         0009b4 58   
    3475                                                      ; branch occurs ; |1583| 
    3476 0009b5       $C$DW$L$_xQueueSemaphoreTake$56$E:
    3477 0009b5       $C$L136:    
    3478 0009b5       $C$DW$L$_xQueueSemaphoreTake$57$B:
    3479                      .dwpsn  file "../FreeRTOS/Source/queue.c",line 1587,column 4,is_stmt
    3480 0009b5 ED14          MOV dbl(*SP(#10)), XAR0
         0009b7 8F   
    3481              $C$DW$304       .dwtag  DW_TAG_TI_branch
    3482                      .dwattr $C$DW$304, DW_AT_low_pc(0x00)
    3483                      .dwattr $C$DW$304, DW_AT_name("_prvUnlockQueue")
    3484                      .dwattr $C$DW$304, DW_AT_TI_call
    3485 0009b8 0805          CALL #_prvUnlockQueue ; |1587| 
         0009ba 8D   
    3486                                                      ; call occurs [#_prvUnlockQueue] ; |1587| 
    3487                      .dwpsn  file "../FreeRTOS/Source/queue.c",line 1588,column 4,is_stmt
    3488              $C$DW$305       .dwtag  DW_TAG_TI_branch
    3489                      .dwattr $C$DW$305, DW_AT_low_pc(0x00)
    3490                      .dwattr $C$DW$305, DW_AT_name("_xTaskResumeAll")
    3491                      .dwattr $C$DW$305, DW_AT_TI_call
    3492 0009bb 6C00          CALL #_xTaskResumeAll ; |1588| 
         0009bd 0000!
    3493                                                      ; call occurs [#_xTaskResumeAll] ; |1588| 
    3494                      .dwpsn  file "../FreeRTOS/Source/queue.c",line 1594,column 4,is_stmt
    3495 0009bf ED14          MOV dbl(*SP(#10)), XAR0
         0009c1 8F   
    3496              $C$DW$306       .dwtag  DW_TAG_TI_branch
    3497                      .dwattr $C$DW$306, DW_AT_low_pc(0x00)
    3498                      .dwattr $C$DW$306, DW_AT_name("_prvIsQueueEmpty")
    3499                      .dwattr $C$DW$306, DW_AT_TI_call
    3500 0009c2 0806          CALL #_prvIsQueueEmpty ; |1594| 
         0009c4 67   
    3501                                                      ; call occurs [#_prvIsQueueEmpty] ; |1594| 
    3502 0009c5 6D04          BCC $C$L117,T0 == #0 ; |1594| 
         0009c7 FE44 
    3503                                                      ; branchcc occurs ; |1594| 
    3504 0009c9       $C$DW$L$_xQueueSemaphoreTake$57$E:
    3505                      .dwpsn  file "../FreeRTOS/Source/queue.c",line 1601,column 6,is_stmt
    3506 0009c9 A918          MOV *SP(#12), AR1 ; |1601| 
    3507 0009cb 0409          BCC $C$L137,AR1 == #0 ; |1601| 
         0009cd 38   
    3508                                                      ; branchcc occurs ; |1601| 
    3509                      .dwpsn  file "../FreeRTOS/Source/queue.c",line 1603,column 7,is_stmt
    3510 0009ce 20     nop
    3511 0009cf 46B3   bset INTM
TMS320C55x Assembler PC v4.4.1 Tue Sep 18 04:49:51 2018

Tools Copyright (c) 1996-2012 Texas Instruments Incorporated
queue.asm                                                            PAGE   75

    3512 0009d1 F731          ADD #1, *(#_usCriticalNesting) ; |1603| 
         0009d3 0001 
         0009d5 0000 
         0009d7 00!  
    3513              
    3514              $C$DW$307       .dwtag  DW_TAG_lexical_block, DW_AT_low_pc(0x00), DW_AT_high_pc(0x00)
    3515              $C$DW$308       .dwtag  DW_TAG_variable, DW_AT_name("uxHighestWaitingPriority")
    3516                      .dwattr $C$DW$308, DW_AT_TI_symbol_name("_uxHighestWaitingPriority")
    3517                      .dwattr $C$DW$308, DW_AT_type(*$C$DW$T$32)
    3518                      .dwattr $C$DW$308, DW_AT_location[DW_OP_bregx 0x24 13]
    3519                      .dwpsn  file "../FreeRTOS/Source/queue.c",line 1612,column 8,is_stmt
    3520 0009d8 ED14          MOV dbl(*SP(#10)), XAR0
         0009da 8F   
    3521              $C$DW$309       .dwtag  DW_TAG_TI_branch
    3522                      .dwattr $C$DW$309, DW_AT_low_pc(0x00)
    3523                      .dwattr $C$DW$309, DW_AT_name("_prvGetDisinheritPriorityAfterTimeout")
    3524                      .dwattr $C$DW$309, DW_AT_TI_call
    3525 0009db 0803          CALL #_prvGetDisinheritPriorityAfterTimeout ; |1612| 
         0009dd F6   
    3526                                                      ; call occurs [#_prvGetDisinheritPriorityAfterTimeout] ; |1612| 
    3527 0009de C41A          MOV T0, *SP(#13) ; |1612| 
    3528                      .dwpsn  file "../FreeRTOS/Source/queue.c",line 1613,column 8,is_stmt
    3529 0009e0 ED14          MOV dbl(*SP(#10)), XAR3
         0009e2 BF   
    3530 0009e3 ED79          MOV dbl(*AR3(short(#4))), XAR0
         0009e5 8F   
    3531              $C$DW$310       .dwtag  DW_TAG_TI_branch
    3532                      .dwattr $C$DW$310, DW_AT_low_pc(0x00)
    3533                      .dwattr $C$DW$310, DW_AT_name("_vTaskPriorityDisinheritAfterTimeout")
    3534                      .dwattr $C$DW$310, DW_AT_TI_call
    3535 0009e6 6C00          CALL #_vTaskPriorityDisinheritAfterTimeout ; |1613| 
         0009e8 0000!
    3536                                                      ; call occurs [#_vTaskPriorityDisinheritAfterTimeout] ; |1613| 
    3537                      .dwendtag $C$DW$307
    3538              
    3539                      .dwpsn  file "../FreeRTOS/Source/queue.c",line 1615,column 7,is_stmt
    3540 0009ea A931          MOV *(#_usCriticalNesting), AR1 ; |1615| 
         0009ec 0000 
         0009ee 00!  
    3541 0009ef 0409          BCC $C$L137,AR1 == #0 ; |1615| 
         0009f1 14   
    3542                                                      ; branchcc occurs ; |1615| 
    3543 0009f2 F731          SUB #1, *(#_usCriticalNesting) ; |1615| 
         0009f4 FFFF 
         0009f6 0000 
         0009f8 00!  
    3544 0009f9 20            NOP
    3545 0009fa 20            NOP
    3546 0009fb 20            NOP
    3547 0009fc A931          MOV *(#_usCriticalNesting), AR1 ; |1615| 
         0009fe 0000 
         000a00 00!  
    3548 000a01 6199          BCC $C$L137,AR1 != #0 ; |1615| 
    3549                                                      ; branchcc occurs ; |1615| 
    3550 000a03 20     nop
TMS320C55x Assembler PC v4.4.1 Tue Sep 18 04:49:51 2018

Tools Copyright (c) 1996-2012 Texas Instruments Incorporated
queue.asm                                                            PAGE   76

    3551 000a04 46B2   bclr INTM
    3552 000a06       $C$L137:    
    3553                      .dwpsn  file "../FreeRTOS/Source/queue.c",line 1621,column 5,is_stmt
    3554 000a06 3C04          MOV #0, T0
    3555 000a08 4A00          B $C$L138 ; |1621| 
    3556                                                      ; branch occurs ; |1621| 
    3557 000a0a       $C$L138:    
    3558                      .dwpsn  file "../FreeRTOS/Source/queue.c",line 1629,column 1,is_stmt
    3559 000a0a 4E0F          AADD #15, SP
    3560                      .dwcfi  cfa_offset, 1
    3561              $C$DW$311       .dwtag  DW_TAG_TI_branch
    3562                      .dwattr $C$DW$311, DW_AT_low_pc(0x00)
    3563                      .dwattr $C$DW$311, DW_AT_TI_return
    3564 000a0c 4804          RET
    3565                                                      ; return occurs
    3566              
    3567              $C$DW$312       .dwtag  DW_TAG_TI_loop
    3568                      .dwattr $C$DW$312, DW_AT_name("F:\eZdsp_DBG\eZDSP_5535_Files\ccsws2\test\Debug\queue.asm:$C$L125:1:15
    3569                      .dwattr $C$DW$312, DW_AT_TI_begin_file("../FreeRTOS/Source/queue.c")
    3570                      .dwattr $C$DW$312, DW_AT_TI_begin_line(0x5e1)
    3571                      .dwattr $C$DW$312, DW_AT_TI_end_line(0x5e1)
    3572              $C$DW$313       .dwtag  DW_TAG_TI_loop_range
    3573                      .dwattr $C$DW$313, DW_AT_low_pc($C$DW$L$_xQueueSemaphoreTake$29$B)
    3574                      .dwattr $C$DW$313, DW_AT_high_pc($C$DW$L$_xQueueSemaphoreTake$29$E)
    3575                      .dwendtag $C$DW$312
    3576              
    3577              
    3578              $C$DW$314       .dwtag  DW_TAG_TI_loop
    3579                      .dwattr $C$DW$314, DW_AT_name("F:\eZdsp_DBG\eZDSP_5535_Files\ccsws2\test\Debug\queue.asm:$C$L117:1:15
    3580                      .dwattr $C$DW$314, DW_AT_TI_begin_file("../FreeRTOS/Source/queue.c")
    3581                      .dwattr $C$DW$314, DW_AT_TI_begin_line(0x5a2)
    3582                      .dwattr $C$DW$314, DW_AT_TI_end_line(0x65c)
    3583              $C$DW$315       .dwtag  DW_TAG_TI_loop_range
    3584                      .dwattr $C$DW$315, DW_AT_low_pc($C$DW$L$_xQueueSemaphoreTake$9$B)
    3585                      .dwattr $C$DW$315, DW_AT_high_pc($C$DW$L$_xQueueSemaphoreTake$9$E)
    3586              $C$DW$316       .dwtag  DW_TAG_TI_loop_range
    3587                      .dwattr $C$DW$316, DW_AT_low_pc($C$DW$L$_xQueueSemaphoreTake$24$B)
    3588                      .dwattr $C$DW$316, DW_AT_high_pc($C$DW$L$_xQueueSemaphoreTake$24$E)
    3589              $C$DW$317       .dwtag  DW_TAG_TI_loop_range
    3590                      .dwattr $C$DW$317, DW_AT_low_pc($C$DW$L$_xQueueSemaphoreTake$35$B)
    3591                      .dwattr $C$DW$317, DW_AT_high_pc($C$DW$L$_xQueueSemaphoreTake$35$E)
    3592              $C$DW$318       .dwtag  DW_TAG_TI_loop_range
    3593                      .dwattr $C$DW$318, DW_AT_low_pc($C$DW$L$_xQueueSemaphoreTake$36$B)
    3594                      .dwattr $C$DW$318, DW_AT_high_pc($C$DW$L$_xQueueSemaphoreTake$36$E)
    3595              $C$DW$319       .dwtag  DW_TAG_TI_loop_range
    3596                      .dwattr $C$DW$319, DW_AT_low_pc($C$DW$L$_xQueueSemaphoreTake$37$B)
    3597                      .dwattr $C$DW$319, DW_AT_high_pc($C$DW$L$_xQueueSemaphoreTake$37$E)
    3598              $C$DW$320       .dwtag  DW_TAG_TI_loop_range
    3599                      .dwattr $C$DW$320, DW_AT_low_pc($C$DW$L$_xQueueSemaphoreTake$38$B)
    3600                      .dwattr $C$DW$320, DW_AT_high_pc($C$DW$L$_xQueueSemaphoreTake$38$E)
    3601              $C$DW$321       .dwtag  DW_TAG_TI_loop_range
    3602                      .dwattr $C$DW$321, DW_AT_low_pc($C$DW$L$_xQueueSemaphoreTake$39$B)
    3603                      .dwattr $C$DW$321, DW_AT_high_pc($C$DW$L$_xQueueSemaphoreTake$39$E)
    3604              $C$DW$322       .dwtag  DW_TAG_TI_loop_range
    3605                      .dwattr $C$DW$322, DW_AT_low_pc($C$DW$L$_xQueueSemaphoreTake$40$B)
TMS320C55x Assembler PC v4.4.1 Tue Sep 18 04:49:51 2018

Tools Copyright (c) 1996-2012 Texas Instruments Incorporated
queue.asm                                                            PAGE   77

    3606                      .dwattr $C$DW$322, DW_AT_high_pc($C$DW$L$_xQueueSemaphoreTake$40$E)
    3607              $C$DW$323       .dwtag  DW_TAG_TI_loop_range
    3608                      .dwattr $C$DW$323, DW_AT_low_pc($C$DW$L$_xQueueSemaphoreTake$41$B)
    3609                      .dwattr $C$DW$323, DW_AT_high_pc($C$DW$L$_xQueueSemaphoreTake$41$E)
    3610              $C$DW$324       .dwtag  DW_TAG_TI_loop_range
    3611                      .dwattr $C$DW$324, DW_AT_low_pc($C$DW$L$_xQueueSemaphoreTake$42$B)
    3612                      .dwattr $C$DW$324, DW_AT_high_pc($C$DW$L$_xQueueSemaphoreTake$42$E)
    3613              $C$DW$325       .dwtag  DW_TAG_TI_loop_range
    3614                      .dwattr $C$DW$325, DW_AT_low_pc($C$DW$L$_xQueueSemaphoreTake$43$B)
    3615                      .dwattr $C$DW$325, DW_AT_high_pc($C$DW$L$_xQueueSemaphoreTake$43$E)
    3616              $C$DW$326       .dwtag  DW_TAG_TI_loop_range
    3617                      .dwattr $C$DW$326, DW_AT_low_pc($C$DW$L$_xQueueSemaphoreTake$44$B)
    3618                      .dwattr $C$DW$326, DW_AT_high_pc($C$DW$L$_xQueueSemaphoreTake$44$E)
    3619              $C$DW$327       .dwtag  DW_TAG_TI_loop_range
    3620                      .dwattr $C$DW$327, DW_AT_low_pc($C$DW$L$_xQueueSemaphoreTake$45$B)
    3621                      .dwattr $C$DW$327, DW_AT_high_pc($C$DW$L$_xQueueSemaphoreTake$45$E)
    3622              $C$DW$328       .dwtag  DW_TAG_TI_loop_range
    3623                      .dwattr $C$DW$328, DW_AT_low_pc($C$DW$L$_xQueueSemaphoreTake$46$B)
    3624                      .dwattr $C$DW$328, DW_AT_high_pc($C$DW$L$_xQueueSemaphoreTake$46$E)
    3625              $C$DW$329       .dwtag  DW_TAG_TI_loop_range
    3626                      .dwattr $C$DW$329, DW_AT_low_pc($C$DW$L$_xQueueSemaphoreTake$47$B)
    3627                      .dwattr $C$DW$329, DW_AT_high_pc($C$DW$L$_xQueueSemaphoreTake$47$E)
    3628              $C$DW$330       .dwtag  DW_TAG_TI_loop_range
    3629                      .dwattr $C$DW$330, DW_AT_low_pc($C$DW$L$_xQueueSemaphoreTake$48$B)
    3630                      .dwattr $C$DW$330, DW_AT_high_pc($C$DW$L$_xQueueSemaphoreTake$48$E)
    3631              $C$DW$331       .dwtag  DW_TAG_TI_loop_range
    3632                      .dwattr $C$DW$331, DW_AT_low_pc($C$DW$L$_xQueueSemaphoreTake$49$B)
    3633                      .dwattr $C$DW$331, DW_AT_high_pc($C$DW$L$_xQueueSemaphoreTake$49$E)
    3634              $C$DW$332       .dwtag  DW_TAG_TI_loop_range
    3635                      .dwattr $C$DW$332, DW_AT_low_pc($C$DW$L$_xQueueSemaphoreTake$50$B)
    3636                      .dwattr $C$DW$332, DW_AT_high_pc($C$DW$L$_xQueueSemaphoreTake$50$E)
    3637              $C$DW$333       .dwtag  DW_TAG_TI_loop_range
    3638                      .dwattr $C$DW$333, DW_AT_low_pc($C$DW$L$_xQueueSemaphoreTake$51$B)
    3639                      .dwattr $C$DW$333, DW_AT_high_pc($C$DW$L$_xQueueSemaphoreTake$51$E)
    3640              $C$DW$334       .dwtag  DW_TAG_TI_loop_range
    3641                      .dwattr $C$DW$334, DW_AT_low_pc($C$DW$L$_xQueueSemaphoreTake$52$B)
    3642                      .dwattr $C$DW$334, DW_AT_high_pc($C$DW$L$_xQueueSemaphoreTake$52$E)
    3643              $C$DW$335       .dwtag  DW_TAG_TI_loop_range
    3644                      .dwattr $C$DW$335, DW_AT_low_pc($C$DW$L$_xQueueSemaphoreTake$57$B)
    3645                      .dwattr $C$DW$335, DW_AT_high_pc($C$DW$L$_xQueueSemaphoreTake$57$E)
    3646              $C$DW$336       .dwtag  DW_TAG_TI_loop_range
    3647                      .dwattr $C$DW$336, DW_AT_low_pc($C$DW$L$_xQueueSemaphoreTake$56$B)
    3648                      .dwattr $C$DW$336, DW_AT_high_pc($C$DW$L$_xQueueSemaphoreTake$56$E)
    3649              $C$DW$337       .dwtag  DW_TAG_TI_loop_range
    3650                      .dwattr $C$DW$337, DW_AT_low_pc($C$DW$L$_xQueueSemaphoreTake$54$B)
    3651                      .dwattr $C$DW$337, DW_AT_high_pc($C$DW$L$_xQueueSemaphoreTake$54$E)
    3652              $C$DW$338       .dwtag  DW_TAG_TI_loop_range
    3653                      .dwattr $C$DW$338, DW_AT_low_pc($C$DW$L$_xQueueSemaphoreTake$53$B)
    3654                      .dwattr $C$DW$338, DW_AT_high_pc($C$DW$L$_xQueueSemaphoreTake$53$E)
    3655                      .dwendtag $C$DW$314
    3656              
    3657              
    3658              $C$DW$339       .dwtag  DW_TAG_TI_loop
    3659                      .dwattr $C$DW$339, DW_AT_name("F:\eZdsp_DBG\eZDSP_5535_Files\ccsws2\test\Debug\queue.asm:$C$L116:1:15
    3660                      .dwattr $C$DW$339, DW_AT_TI_begin_file("../FreeRTOS/Source/queue.c")
TMS320C55x Assembler PC v4.4.1 Tue Sep 18 04:49:51 2018

Tools Copyright (c) 1996-2012 Texas Instruments Incorporated
queue.asm                                                            PAGE   78

    3661                      .dwattr $C$DW$339, DW_AT_TI_begin_line(0x595)
    3662                      .dwattr $C$DW$339, DW_AT_TI_end_line(0x595)
    3663              $C$DW$340       .dwtag  DW_TAG_TI_loop_range
    3664                      .dwattr $C$DW$340, DW_AT_low_pc($C$DW$L$_xQueueSemaphoreTake$8$B)
    3665                      .dwattr $C$DW$340, DW_AT_high_pc($C$DW$L$_xQueueSemaphoreTake$8$E)
    3666                      .dwendtag $C$DW$339
    3667              
    3668              
    3669              $C$DW$341       .dwtag  DW_TAG_TI_loop
    3670                      .dwattr $C$DW$341, DW_AT_name("F:\eZdsp_DBG\eZDSP_5535_Files\ccsws2\test\Debug\queue.asm:$C$L113:1:15
    3671                      .dwattr $C$DW$341, DW_AT_TI_begin_file("../FreeRTOS/Source/queue.c")
    3672                      .dwattr $C$DW$341, DW_AT_TI_begin_line(0x591)
    3673                      .dwattr $C$DW$341, DW_AT_TI_end_line(0x591)
    3674              $C$DW$342       .dwtag  DW_TAG_TI_loop_range
    3675                      .dwattr $C$DW$342, DW_AT_low_pc($C$DW$L$_xQueueSemaphoreTake$3$B)
    3676                      .dwattr $C$DW$342, DW_AT_high_pc($C$DW$L$_xQueueSemaphoreTake$3$E)
    3677                      .dwendtag $C$DW$341
    3678              
    3679                      .dwattr $C$DW$279, DW_AT_TI_end_file("../FreeRTOS/Source/queue.c")
    3680                      .dwattr $C$DW$279, DW_AT_TI_end_line(0x65d)
    3681                      .dwattr $C$DW$279, DW_AT_TI_end_column(0x01)
    3682                      .dwendentry
    3683                      .dwendtag $C$DW$279
    3684              
    3685 000a0e               .sect   ".text"
    3686                      .align 4
    3687                      .global _xQueuePeek
    3688              
    3689              $C$DW$343       .dwtag  DW_TAG_subprogram, DW_AT_name("xQueuePeek")
    3690                      .dwattr $C$DW$343, DW_AT_low_pc(_xQueuePeek)
    3691                      .dwattr $C$DW$343, DW_AT_high_pc(0x00)
    3692                      .dwattr $C$DW$343, DW_AT_TI_symbol_name("_xQueuePeek")
    3693                      .dwattr $C$DW$343, DW_AT_external
    3694                      .dwattr $C$DW$343, DW_AT_type(*$C$DW$T$49)
    3695                      .dwattr $C$DW$343, DW_AT_TI_begin_file("../FreeRTOS/Source/queue.c")
    3696                      .dwattr $C$DW$343, DW_AT_TI_begin_line(0x660)
    3697                      .dwattr $C$DW$343, DW_AT_TI_begin_column(0x0c)
    3698                      .dwattr $C$DW$343, DW_AT_TI_max_frame_size(0x12)
    3699                      .dwpsn  file "../FreeRTOS/Source/queue.c",line 1633,column 1,is_stmt,address _xQueuePeek
    3700              
    3701                      .dwfde $C$DW$CIE, _xQueuePeek
    3702              $C$DW$344       .dwtag  DW_TAG_formal_parameter, DW_AT_name("xQueue")
    3703                      .dwattr $C$DW$344, DW_AT_TI_symbol_name("_xQueue")
    3704                      .dwattr $C$DW$344, DW_AT_type(*$C$DW$T$27)
    3705                      .dwattr $C$DW$344, DW_AT_location[DW_OP_reg17]
    3706              $C$DW$345       .dwtag  DW_TAG_formal_parameter, DW_AT_name("pvBuffer")
    3707                      .dwattr $C$DW$345, DW_AT_TI_symbol_name("_pvBuffer")
    3708                      .dwattr $C$DW$345, DW_AT_type(*$C$DW$T$76)
    3709                      .dwattr $C$DW$345, DW_AT_location[DW_OP_reg19]
    3710              $C$DW$346       .dwtag  DW_TAG_formal_parameter, DW_AT_name("xTicksToWait")
    3711                      .dwattr $C$DW$346, DW_AT_TI_symbol_name("_xTicksToWait")
    3712                      .dwattr $C$DW$346, DW_AT_type(*$C$DW$T$44)
    3713                      .dwattr $C$DW$346, DW_AT_location[DW_OP_reg0]
    3714              ;*******************************************************************************
    3715              ;* FUNCTION NAME: xQueuePeek                                                   *
TMS320C55x Assembler PC v4.4.1 Tue Sep 18 04:49:51 2018

Tools Copyright (c) 1996-2012 Texas Instruments Incorporated
queue.asm                                                            PAGE   79

    3716              ;*                                                                             *
    3717              ;*   Function Uses Regs : AC0,AC0,T0,AR0,XAR0,AR1,XAR1,AR2,XAR2,AR3,XAR3,SP,   *
    3718              ;*                        CARRY,TC1,M40,SATA,SATD,RDM,FRCT,SMUL                *
    3719              ;*   Stack Frame        : Compact (No Frame Pointer, w/ debug)                 *
    3720              ;*   Total Frame Size   : 18 words                                             *
    3721              ;*                        (1 return address/alignment)                         *
    3722              ;*                        (17 local values)                                    *
    3723              ;*   Min System Stack   : 1 word                                               *
    3724              ;*******************************************************************************
    3725 000a10       _xQueuePeek:
    3726                      .dwcfi  cfa_offset, 1
    3727                      .dwcfi  save_reg_to_mem, 91, -1
    3728 000a10 4EEF          AADD #-17, SP
    3729                      .dwcfi  cfa_offset, 18
    3730              $C$DW$347       .dwtag  DW_TAG_variable, DW_AT_name("xQueue")
    3731                      .dwattr $C$DW$347, DW_AT_TI_symbol_name("_xQueue")
    3732                      .dwattr $C$DW$347, DW_AT_type(*$C$DW$T$27)
    3733                      .dwattr $C$DW$347, DW_AT_location[DW_OP_bregx 0x24 0]
    3734              $C$DW$348       .dwtag  DW_TAG_variable, DW_AT_name("pvBuffer")
    3735                      .dwattr $C$DW$348, DW_AT_TI_symbol_name("_pvBuffer")
    3736                      .dwattr $C$DW$348, DW_AT_type(*$C$DW$T$76)
    3737                      .dwattr $C$DW$348, DW_AT_location[DW_OP_bregx 0x24 2]
    3738              $C$DW$349       .dwtag  DW_TAG_variable, DW_AT_name("xTicksToWait")
    3739                      .dwattr $C$DW$349, DW_AT_TI_symbol_name("_xTicksToWait")
    3740                      .dwattr $C$DW$349, DW_AT_type(*$C$DW$T$44)
    3741                      .dwattr $C$DW$349, DW_AT_location[DW_OP_bregx 0x24 4]
    3742              $C$DW$350       .dwtag  DW_TAG_variable, DW_AT_name("xEntryTimeSet")
    3743                      .dwattr $C$DW$350, DW_AT_TI_symbol_name("_xEntryTimeSet")
    3744                      .dwattr $C$DW$350, DW_AT_type(*$C$DW$T$49)
    3745                      .dwattr $C$DW$350, DW_AT_location[DW_OP_bregx 0x24 6]
    3746              $C$DW$351       .dwtag  DW_TAG_variable, DW_AT_name("xTimeOut")
    3747                      .dwattr $C$DW$351, DW_AT_TI_symbol_name("_xTimeOut")
    3748                      .dwattr $C$DW$351, DW_AT_type(*$C$DW$T$92)
    3749                      .dwattr $C$DW$351, DW_AT_location[DW_OP_bregx 0x24 8]
    3750              $C$DW$352       .dwtag  DW_TAG_variable, DW_AT_name("pcOriginalReadPosition")
    3751                      .dwattr $C$DW$352, DW_AT_TI_symbol_name("_pcOriginalReadPosition")
    3752                      .dwattr $C$DW$352, DW_AT_type(*$C$DW$T$30)
    3753                      .dwattr $C$DW$352, DW_AT_location[DW_OP_bregx 0x24 12]
    3754              $C$DW$353       .dwtag  DW_TAG_variable, DW_AT_name("pxQueue")
    3755                      .dwattr $C$DW$353, DW_AT_TI_symbol_name("_pxQueue")
    3756                      .dwattr $C$DW$353, DW_AT_type(*$C$DW$T$69)
    3757                      .dwattr $C$DW$353, DW_AT_location[DW_OP_bregx 0x24 14]
    3758 000a12 EB08          MOV AC0, dbl(*SP(#4)) ; |1633| 
         000a14 08   
    3759 000a15 EB04          MOV XAR1, dbl(*SP(#2))
         000a17 95   
    3760 000a18 EB00          MOV XAR0, dbl(*SP(#0))
         000a1a 85   
    3761                      .dwpsn  file "../FreeRTOS/Source/queue.c",line 1634,column 12,is_stmt
    3762 000a1b E60C          MOV #0, *SP(#6) ; |1634| 
         000a1d 00   
    3763                      .dwpsn  file "../FreeRTOS/Source/queue.c",line 1637,column 17,is_stmt
    3764 000a1e ED00          MOV dbl(*SP(#0)), XAR3
         000a20 BF   
    3765 000a21 EB1C          MOV XAR3, dbl(*SP(#14))
TMS320C55x Assembler PC v4.4.1 Tue Sep 18 04:49:51 2018

Tools Copyright (c) 1996-2012 Texas Instruments Incorporated
queue.asm                                                            PAGE   80

         000a23 B5   
    3766                      .dwpsn  file "../FreeRTOS/Source/queue.c",line 1640,column 2,is_stmt
    3767 000a24 90B0          MOV XAR3, AC0
    3768 000a26 6290          BCC $C$L140,AC0 != #0 ; |1640| 
    3769                                                      ; branchcc occurs ; |1640| 
    3770 000a28 20     nop
    3771 000a29 46B3   bset INTM
    3772 000a2b       $C$L139:    
    3773 000a2b       $C$DW$L$_xQueuePeek$3$B:
    3774 000a2b 4A7E          B $C$L139 ; |1640| 
    3775                                                      ; branch occurs ; |1640| 
    3776 000a2d       $C$DW$L$_xQueuePeek$3$E:
    3777 000a2d       $C$L140:    
    3778                      .dwpsn  file "../FreeRTOS/Source/queue.c",line 1644,column 2,is_stmt
    3779 000a2d ED04          MOV dbl(*SP(#2)), XAR3
         000a2f BF   
    3780 000a30 90B0          MOV XAR3, AC0
    3781 000a32 3C0A          MOV #0, AR2
    3782              
    3783 000a34 6590          BCC $C$L141,AC0 != #0 ; |1644| 
    3784 000a36 3D09  ||      MOV #0, AR1
    3785              
    3786                                                      ; branchcc occurs ; |1644| 
    3787 000a38 ED1C          MOV dbl(*SP(#14)), XAR3
         000a3a BF   
    3788 000a3b AB6D          MOV *AR3(#30), AR3 ; |1644| 
         000a3d 001E 
    3789 000a3f 610B          BCC $C$L141,AR3 == #0 ; |1644| 
    3790                                                      ; branchcc occurs ; |1644| 
    3791 000a41 3C1A          MOV #1, AR2
    3792 000a43       $C$L141:    
    3793 000a43 611A          BCC $C$L142,AR2 != #0 ; |1644| 
    3794                                                      ; branchcc occurs ; |1644| 
    3795 000a45 3C19          MOV #1, AR1
    3796 000a47       $C$L142:    
    3797 000a47 6299          BCC $C$L144,AR1 != #0 ; |1644| 
    3798                                                      ; branchcc occurs ; |1644| 
    3799 000a49 20     nop
    3800 000a4a 46B3   bset INTM
    3801 000a4c       $C$L143:    
    3802 000a4c       $C$DW$L$_xQueuePeek$11$B:
    3803 000a4c 4A7E          B $C$L143 ; |1644| 
    3804                                                      ; branch occurs ; |1644| 
    3805 000a4e       $C$DW$L$_xQueuePeek$11$E:
    3806 000a4e       $C$L144:    
    3807 000a4e       $C$DW$L$_xQueuePeek$12$B:
    3808                      .dwpsn  file "../FreeRTOS/Source/queue.c",line 1659,column 3,is_stmt
    3809 000a4e 20     nop
    3810 000a4f 46B3   bset INTM
    3811 000a51 F731          ADD #1, *(#_usCriticalNesting) ; |1659| 
         000a53 0001 
         000a55 0000 
         000a57 00!  
    3812 000a58 20            NOP
    3813 000a59 20            NOP
TMS320C55x Assembler PC v4.4.1 Tue Sep 18 04:49:51 2018

Tools Copyright (c) 1996-2012 Texas Instruments Incorporated
queue.asm                                                            PAGE   81

    3814              
    3815              $C$DW$354       .dwtag  DW_TAG_lexical_block, DW_AT_low_pc(0x00), DW_AT_high_pc(0x00)
    3816              $C$DW$355       .dwtag  DW_TAG_variable, DW_AT_name("uxMessagesWaiting")
    3817                      .dwattr $C$DW$355, DW_AT_TI_symbol_name("_uxMessagesWaiting")
    3818                      .dwattr $C$DW$355, DW_AT_type(*$C$DW$T$56)
    3819                      .dwattr $C$DW$355, DW_AT_location[DW_OP_bregx 0x24 16]
    3820                      .dwpsn  file "../FreeRTOS/Source/queue.c",line 1661,column 22,is_stmt
    3821 000a5a ED1C          MOV dbl(*SP(#14)), XAR3
         000a5c BF   
    3822 000a5d A96D          MOV *AR3(#28), AR1 ; |1661| 
         000a5f 001C 
    3823 000a61 C920          MOV AR1, *SP(#16) ; |1661| 
    3824                      .dwpsn  file "../FreeRTOS/Source/queue.c",line 1665,column 4,is_stmt
    3825 000a63 0409          BCC $C$L149,AR1 == #0 ; |1665| 
         000a65 60   
    3826                                                      ; branchcc occurs ; |1665| 
    3827 000a66       $C$DW$L$_xQueuePeek$12$E:
    3828                      .dwpsn  file "../FreeRTOS/Source/queue.c",line 1670,column 5,is_stmt
    3829 000a66 ED1C          MOV dbl(*SP(#14)), XAR3
         000a68 BF   
    3830 000a69 ED7D          MOV dbl(*AR3(short(#6))), XAR3
         000a6b BF   
    3831 000a6c EB18          MOV XAR3, dbl(*SP(#12))
         000a6e B5   
    3832                      .dwpsn  file "../FreeRTOS/Source/queue.c",line 1672,column 5,is_stmt
    3833 000a6f ED1C          MOV dbl(*SP(#14)), XAR0
         000a71 8F   
    3834 000a72 ED04          MOV dbl(*SP(#2)), XAR1
         000a74 9F   
    3835              $C$DW$356       .dwtag  DW_TAG_TI_branch
    3836                      .dwattr $C$DW$356, DW_AT_low_pc(0x00)
    3837                      .dwattr $C$DW$356, DW_AT_name("_prvCopyDataFromQueue")
    3838                      .dwattr $C$DW$356, DW_AT_TI_call
    3839 000a75 0804          CALL #_prvCopyDataFromQueue ; |1672| 
         000a77 78   
    3840                                                      ; call occurs [#_prvCopyDataFromQueue] ; |1672| 
    3841                      .dwpsn  file "../FreeRTOS/Source/queue.c",line 1676,column 5,is_stmt
    3842 000a78 ED1C          MOV dbl(*SP(#14)), XAR3
         000a7a BF   
    3843 000a7b ED18          MOV dbl(*SP(#12)), XAR2
         000a7d AF   
    3844 000a7e EB7D          MOV XAR2, dbl(*AR3(short(#6)))
         000a80 A5   
    3845                      .dwpsn  file "../FreeRTOS/Source/queue.c",line 1680,column 5,is_stmt
    3846 000a81 ED1C          MOV dbl(*SP(#14)), XAR3
         000a83 BF   
    3847 000a84 A96D          MOV *AR3(#18), AR1 ; |1680| 
         000a86 0012 
    3848 000a88 6219          BCC $C$L145,AR1 != #0 ; |1680| 
    3849                                                      ; branchcc occurs ; |1680| 
    3850 000a8a 3C19          MOV #1, AR1
    3851 000a8c 4A02          B $C$L146 ; |1680| 
    3852                                                      ; branch occurs ; |1680| 
    3853 000a8e       $C$L145:    
    3854 000a8e 3C09          MOV #0, AR1
TMS320C55x Assembler PC v4.4.1 Tue Sep 18 04:49:51 2018

Tools Copyright (c) 1996-2012 Texas Instruments Incorporated
queue.asm                                                            PAGE   82

    3855 000a90       $C$L146:    
    3856 000a90 0419          BCC $C$L147,AR1 != #0 ; |1680| 
         000a92 12   
    3857                                                      ; branchcc occurs ; |1680| 
    3858                      .dwpsn  file "../FreeRTOS/Source/queue.c",line 1682,column 6,is_stmt
    3859 000a93 ED1C          MOV dbl(*SP(#14)), XAR0
         000a95 8F   
    3860 000a96 1412          AADD #18, AR0 ; |1682| 
         000a98 84   
    3861              $C$DW$357       .dwtag  DW_TAG_TI_branch
    3862                      .dwattr $C$DW$357, DW_AT_low_pc(0x00)
    3863                      .dwattr $C$DW$357, DW_AT_name("_xTaskRemoveFromEventList")
    3864                      .dwattr $C$DW$357, DW_AT_TI_call
    3865 000a99 6C00          CALL #_xTaskRemoveFromEventList ; |1682| 
         000a9b 0000!
    3866                                                      ; call occurs [#_xTaskRemoveFromEventList] ; |1682| 
    3867 000a9d 6304          BCC $C$L147,T0 == #0 ; |1682| 
    3868                                                      ; branchcc occurs ; |1682| 
    3869                      .dwpsn  file "../FreeRTOS/Source/queue.c",line 1685,column 7,is_stmt
    3870              $C$DW$358       .dwtag  DW_TAG_TI_branch
    3871                      .dwattr $C$DW$358, DW_AT_low_pc(0x00)
    3872                      .dwattr $C$DW$358, DW_AT_name("_vPortYield")
    3873                      .dwattr $C$DW$358, DW_AT_TI_call
    3874 000a9f 6C00          CALL #_vPortYield ; |1685| 
         000aa1 0000!
    3875                                                      ; call occurs [#_vPortYield] ; |1685| 
    3876                      .dwpsn  file "../FreeRTOS/Source/queue.c",line 1686,column 6,is_stmt
    3877 000aa3 4A00          B $C$L147 ; |1686| 
    3878                                                      ; branch occurs ; |1686| 
    3879 000aa5       $C$L147:    
    3880                      .dwpsn  file "../FreeRTOS/Source/queue.c",line 1697,column 5,is_stmt
    3881 000aa5 A931          MOV *(#_usCriticalNesting), AR1 ; |1697| 
         000aa7 0000 
         000aa9 00!  
    3882 000aaa 0409          BCC $C$L148,AR1 == #0 ; |1697| 
         000aac 14   
    3883                                                      ; branchcc occurs ; |1697| 
    3884 000aad F731          SUB #1, *(#_usCriticalNesting) ; |1697| 
         000aaf FFFF 
         000ab1 0000 
         000ab3 00!  
    3885 000ab4 20            NOP
    3886 000ab5 20            NOP
    3887 000ab6 20            NOP
    3888 000ab7 A931          MOV *(#_usCriticalNesting), AR1 ; |1697| 
         000ab9 0000 
         000abb 00!  
    3889 000abc 6199          BCC $C$L148,AR1 != #0 ; |1697| 
    3890                                                      ; branchcc occurs ; |1697| 
    3891 000abe 20     nop
    3892 000abf 46B2   bclr INTM
    3893 000ac1       $C$L148:    
    3894                      .dwpsn  file "../FreeRTOS/Source/queue.c",line 1698,column 5,is_stmt
    3895 000ac1 3C14          MOV #1, T0
    3896 000ac3 0600          B $C$L159 ; |1698| 
TMS320C55x Assembler PC v4.4.1 Tue Sep 18 04:49:51 2018

Tools Copyright (c) 1996-2012 Texas Instruments Incorporated
queue.asm                                                            PAGE   83

         000ac5 FA   
    3897                                                      ; branch occurs ; |1698| 
    3898 000ac6       $C$L149:    
    3899 000ac6       $C$DW$L$_xQueuePeek$25$B:
    3900                      .dwpsn  file "../FreeRTOS/Source/queue.c",line 1702,column 5,is_stmt
    3901 000ac6 ED08          MOV dbl(*SP(#4)), AC0 ; |1702| 
         000ac8 08   
    3902 000ac9 0410          BCC $C$L151,AC0 != #0 ; |1702| 
         000acb 21   
    3903                                                      ; branchcc occurs ; |1702| 
    3904 000acc       $C$DW$L$_xQueuePeek$25$E:
    3905                      .dwpsn  file "../FreeRTOS/Source/queue.c",line 1706,column 6,is_stmt
    3906 000acc A931          MOV *(#_usCriticalNesting), AR1 ; |1706| 
         000ace 0000 
         000ad0 00!  
    3907 000ad1 0409          BCC $C$L150,AR1 == #0 ; |1706| 
         000ad3 14   
    3908                                                      ; branchcc occurs ; |1706| 
    3909 000ad4 F731          SUB #1, *(#_usCriticalNesting) ; |1706| 
         000ad6 FFFF 
         000ad8 0000 
         000ada 00!  
    3910 000adb 20            NOP
    3911 000adc 20            NOP
    3912 000add 20            NOP
    3913 000ade A931          MOV *(#_usCriticalNesting), AR1 ; |1706| 
         000ae0 0000 
         000ae2 00!  
    3914 000ae3 6199          BCC $C$L150,AR1 != #0 ; |1706| 
    3915                                                      ; branchcc occurs ; |1706| 
    3916 000ae5 20     nop
    3917 000ae6 46B2   bclr INTM
    3918 000ae8       $C$L150:    
    3919                      .dwpsn  file "../FreeRTOS/Source/queue.c",line 1708,column 6,is_stmt
    3920 000ae8 3C04          MOV #0, T0
    3921 000aea 0600          B $C$L159 ; |1708| 
         000aec D3   
    3922                                                      ; branch occurs ; |1708| 
    3923 000aed       $C$L151:    
    3924 000aed       $C$DW$L$_xQueuePeek$31$B:
    3925                      .dwpsn  file "../FreeRTOS/Source/queue.c",line 1710,column 10,is_stmt
    3926 000aed A90C          MOV *SP(#6), AR1 ; |1710| 
    3927 000aef 6519          BCC $C$L152,AR1 != #0 ; |1710| 
    3928                                                      ; branchcc occurs ; |1710| 
    3929 000af1       $C$DW$L$_xQueuePeek$31$E:
    3930 000af1       $C$DW$L$_xQueuePeek$32$B:
    3931                      .dwpsn  file "../FreeRTOS/Source/queue.c",line 1715,column 6,is_stmt
    3932 000af1 EC10          AMAR *SP(#8), XAR0
         000af3 8E   
    3933              $C$DW$359       .dwtag  DW_TAG_TI_branch
    3934                      .dwattr $C$DW$359, DW_AT_low_pc(0x00)
    3935                      .dwattr $C$DW$359, DW_AT_name("_vTaskInternalSetTimeOutState")
    3936                      .dwattr $C$DW$359, DW_AT_TI_call
    3937 000af4 6C00          CALL #_vTaskInternalSetTimeOutState ; |1715| 
         000af6 0000!
TMS320C55x Assembler PC v4.4.1 Tue Sep 18 04:49:51 2018

Tools Copyright (c) 1996-2012 Texas Instruments Incorporated
queue.asm                                                            PAGE   84

    3938                                                      ; call occurs [#_vTaskInternalSetTimeOutState] ; |1715| 
    3939                      .dwpsn  file "../FreeRTOS/Source/queue.c",line 1716,column 6,is_stmt
    3940 000af8 E60C          MOV #1, *SP(#6) ; |1716| 
         000afa 01   
    3941                      .dwpsn  file "../FreeRTOS/Source/queue.c",line 1717,column 5,is_stmt
    3942              $C$DW$L$_xQueuePeek$32$E:
    3943              $C$L152:    
    3944              $C$DW$L$_xQueuePeek$33$B:
    3945                      .dwendtag $C$DW$354
    3946              
    3947                      .dwpsn  file "../FreeRTOS/Source/queue.c",line 1725,column 3,is_stmt
    3948 000afb A931          MOV *(#_usCriticalNesting), AR1 ; |1725| 
         000afd 0000 
         000aff 00!  
    3949 000b00 0409          BCC $C$L153,AR1 == #0 ; |1725| 
         000b02 14   
    3950                                                      ; branchcc occurs ; |1725| 
    3951 000b03       $C$DW$L$_xQueuePeek$33$E:
    3952 000b03       $C$DW$L$_xQueuePeek$34$B:
    3953 000b03 F731          SUB #1, *(#_usCriticalNesting) ; |1725| 
         000b05 FFFF 
         000b07 0000 
         000b09 00!  
    3954 000b0a 20            NOP
    3955 000b0b 20            NOP
    3956 000b0c 20            NOP
    3957 000b0d A931          MOV *(#_usCriticalNesting), AR1 ; |1725| 
         000b0f 0000 
         000b11 00!  
    3958 000b12 6199          BCC $C$L153,AR1 != #0 ; |1725| 
    3959                                                      ; branchcc occurs ; |1725| 
    3960 000b14       $C$DW$L$_xQueuePeek$34$E:
    3961 000b14       $C$DW$L$_xQueuePeek$35$B:
    3962 000b14 20     nop
    3963 000b15 46B2   bclr INTM
    3964 000b17       $C$DW$L$_xQueuePeek$35$E:
    3965 000b17       $C$L153:    
    3966 000b17       $C$DW$L$_xQueuePeek$36$B:
    3967                      .dwpsn  file "../FreeRTOS/Source/queue.c",line 1730,column 3,is_stmt
    3968              $C$DW$360       .dwtag  DW_TAG_TI_branch
    3969                      .dwattr $C$DW$360, DW_AT_low_pc(0x00)
    3970                      .dwattr $C$DW$360, DW_AT_name("_vTaskSuspendAll")
    3971                      .dwattr $C$DW$360, DW_AT_TI_call
    3972 000b17 6C00          CALL #_vTaskSuspendAll ; |1730| 
         000b19 0000!
    3973                                                      ; call occurs [#_vTaskSuspendAll] ; |1730| 
    3974                      .dwpsn  file "../FreeRTOS/Source/queue.c",line 1731,column 3,is_stmt
    3975 000b1b 20     nop
    3976 000b1c 46B3   bset INTM
    3977 000b1e F731          ADD #1, *(#_usCriticalNesting) ; |1731| 
         000b20 0001 
         000b22 0000 
         000b24 00!  
    3978 000b25 20            NOP
    3979 000b26 20            NOP
TMS320C55x Assembler PC v4.4.1 Tue Sep 18 04:49:51 2018

Tools Copyright (c) 1996-2012 Texas Instruments Incorporated
queue.asm                                                            PAGE   85

    3980 000b27 ED1C          MOV dbl(*SP(#14)), XAR3
         000b29 BF   
    3981 000b2a F06D          CMP *AR3(#31) == #-1, TC1 ; |1731| 
         000b2c FFFF 
         000b2e 001F 
    3982 000b30 62F4          BCC $C$L154,!TC1 ; |1731| 
    3983                                                      ; branchcc occurs ; |1731| 
    3984 000b32       $C$DW$L$_xQueuePeek$36$E:
    3985 000b32       $C$DW$L$_xQueuePeek$37$B:
    3986 000b32 E66D          MOV #0, *AR3(#31) ; |1731| 
         000b34 0000 
         000b36 1F   
    3987 000b37       $C$DW$L$_xQueuePeek$37$E:
    3988 000b37       $C$L154:    
    3989 000b37       $C$DW$L$_xQueuePeek$38$B:
    3990 000b37 ED1C          MOV dbl(*SP(#14)), XAR3
         000b39 BF   
    3991 000b3a F06D          CMP *AR3(#32) == #-1, TC1 ; |1731| 
         000b3c FFFF 
         000b3e 0020 
    3992 000b40 62F4          BCC $C$L155,!TC1 ; |1731| 
    3993                                                      ; branchcc occurs ; |1731| 
    3994 000b42       $C$DW$L$_xQueuePeek$38$E:
    3995 000b42       $C$DW$L$_xQueuePeek$39$B:
    3996 000b42 E66D          MOV #0, *AR3(#32) ; |1731| 
         000b44 0000 
         000b46 20   
    3997 000b47       $C$DW$L$_xQueuePeek$39$E:
    3998 000b47       $C$L155:    
    3999 000b47       $C$DW$L$_xQueuePeek$40$B:
    4000 000b47 A931          MOV *(#_usCriticalNesting), AR1 ; |1731| 
         000b49 0000 
         000b4b 00!  
    4001 000b4c 0409          BCC $C$L156,AR1 == #0 ; |1731| 
         000b4e 14   
    4002                                                      ; branchcc occurs ; |1731| 
    4003 000b4f       $C$DW$L$_xQueuePeek$40$E:
    4004 000b4f       $C$DW$L$_xQueuePeek$41$B:
    4005 000b4f F731          SUB #1, *(#_usCriticalNesting) ; |1731| 
         000b51 FFFF 
         000b53 0000 
         000b55 00!  
    4006 000b56 20            NOP
    4007 000b57 20            NOP
    4008 000b58 20            NOP
    4009 000b59 A931          MOV *(#_usCriticalNesting), AR1 ; |1731| 
         000b5b 0000 
         000b5d 00!  
    4010 000b5e 6199          BCC $C$L156,AR1 != #0 ; |1731| 
    4011                                                      ; branchcc occurs ; |1731| 
    4012 000b60       $C$DW$L$_xQueuePeek$41$E:
    4013 000b60       $C$DW$L$_xQueuePeek$42$B:
    4014 000b60 20     nop
    4015 000b61 46B2   bclr INTM
    4016 000b63       $C$DW$L$_xQueuePeek$42$E:
TMS320C55x Assembler PC v4.4.1 Tue Sep 18 04:49:51 2018

Tools Copyright (c) 1996-2012 Texas Instruments Incorporated
queue.asm                                                            PAGE   86

    4017 000b63       $C$L156:    
    4018 000b63       $C$DW$L$_xQueuePeek$43$B:
    4019                      .dwpsn  file "../FreeRTOS/Source/queue.c",line 1734,column 3,is_stmt
    4020 000b63 EC10          AMAR *SP(#8), XAR0
         000b65 8E   
    4021 000b66 EC08          AMAR *SP(#4), XAR1
         000b68 9E   
    4022              $C$DW$361       .dwtag  DW_TAG_TI_branch
    4023                      .dwattr $C$DW$361, DW_AT_low_pc(0x00)
    4024                      .dwattr $C$DW$361, DW_AT_name("_xTaskCheckForTimeOut")
    4025                      .dwattr $C$DW$361, DW_AT_TI_call
    4026 000b69 6C00          CALL #_xTaskCheckForTimeOut ; |1734| 
         000b6b 0000!
    4027                                                      ; call occurs [#_xTaskCheckForTimeOut] ; |1734| 
    4028 000b6d 0414          BCC $C$L158,T0 != #0 ; |1734| 
         000b6f 38   
    4029                                                      ; branchcc occurs ; |1734| 
    4030 000b70       $C$DW$L$_xQueuePeek$43$E:
    4031 000b70       $C$DW$L$_xQueuePeek$44$B:
    4032                      .dwpsn  file "../FreeRTOS/Source/queue.c",line 1738,column 4,is_stmt
    4033 000b70 ED1C          MOV dbl(*SP(#14)), XAR0
         000b72 8F   
    4034              $C$DW$362       .dwtag  DW_TAG_TI_branch
    4035                      .dwattr $C$DW$362, DW_AT_low_pc(0x00)
    4036                      .dwattr $C$DW$362, DW_AT_name("_prvIsQueueEmpty")
    4037                      .dwattr $C$DW$362, DW_AT_TI_call
    4038 000b73 0804          CALL #_prvIsQueueEmpty ; |1738| 
         000b75 B6   
    4039                                                      ; call occurs [#_prvIsQueueEmpty] ; |1738| 
    4040 000b76 0404          BCC $C$L157,T0 == #0 ; |1738| 
         000b78 22   
    4041                                                      ; branchcc occurs ; |1738| 
    4042 000b79       $C$DW$L$_xQueuePeek$44$E:
    4043 000b79       $C$DW$L$_xQueuePeek$45$B:
    4044                      .dwpsn  file "../FreeRTOS/Source/queue.c",line 1741,column 5,is_stmt
    4045 000b79 ED1C          MOV dbl(*SP(#14)), XAR0
         000b7b 8F   
    4046              
    4047                      AADD #18, AR0 ; |1741| 
    4048 000b7c 8E08  ||      MOV dbl(*SP(#4)), AC0 ; |1741| 
         000b7e 8D1C 
         000b80 0812 
    4049              
    4050              $C$DW$363       .dwtag  DW_TAG_TI_branch
    4051                      .dwattr $C$DW$363, DW_AT_low_pc(0x00)
    4052                      .dwattr $C$DW$363, DW_AT_name("_vTaskPlaceOnEventList")
    4053                      .dwattr $C$DW$363, DW_AT_TI_call
    4054 000b82 6C00          CALL #_vTaskPlaceOnEventList ; |1741| 
         000b84 0000!
    4055                                                      ; call occurs [#_vTaskPlaceOnEventList] ; |1741| 
    4056                      .dwpsn  file "../FreeRTOS/Source/queue.c",line 1742,column 5,is_stmt
    4057 000b86 ED1C          MOV dbl(*SP(#14)), XAR0
         000b88 8F   
    4058              $C$DW$364       .dwtag  DW_TAG_TI_branch
    4059                      .dwattr $C$DW$364, DW_AT_low_pc(0x00)
TMS320C55x Assembler PC v4.4.1 Tue Sep 18 04:49:51 2018

Tools Copyright (c) 1996-2012 Texas Instruments Incorporated
queue.asm                                                            PAGE   87

    4060                      .dwattr $C$DW$364, DW_AT_name("_prvUnlockQueue")
    4061                      .dwattr $C$DW$364, DW_AT_TI_call
    4062 000b89 0803          CALL #_prvUnlockQueue ; |1742| 
         000b8b BC   
    4063                                                      ; call occurs [#_prvUnlockQueue] ; |1742| 
    4064                      .dwpsn  file "../FreeRTOS/Source/queue.c",line 1743,column 5,is_stmt
    4065              $C$DW$365       .dwtag  DW_TAG_TI_branch
    4066                      .dwattr $C$DW$365, DW_AT_low_pc(0x00)
    4067                      .dwattr $C$DW$365, DW_AT_name("_xTaskResumeAll")
    4068                      .dwattr $C$DW$365, DW_AT_TI_call
    4069 000b8c 6C00          CALL #_xTaskResumeAll ; |1743| 
         000b8e 0000!
    4070                                                      ; call occurs [#_xTaskResumeAll] ; |1743| 
    4071 000b90 6D14          BCC $C$L144,T0 != #0 ; |1743| 
         000b92 FEBA 
    4072                                                      ; branchcc occurs ; |1743| 
    4073 000b94       $C$DW$L$_xQueuePeek$45$E:
    4074 000b94       $C$DW$L$_xQueuePeek$46$B:
    4075                      .dwpsn  file "../FreeRTOS/Source/queue.c",line 1745,column 6,is_stmt
    4076              $C$DW$366       .dwtag  DW_TAG_TI_branch
    4077                      .dwattr $C$DW$366, DW_AT_low_pc(0x00)
    4078                      .dwattr $C$DW$366, DW_AT_name("_vPortYield")
    4079                      .dwattr $C$DW$366, DW_AT_TI_call
    4080 000b94 6C00          CALL #_vPortYield ; |1745| 
         000b96 0000!
    4081                                                      ; call occurs [#_vPortYield] ; |1745| 
    4082                      .dwpsn  file "../FreeRTOS/Source/queue.c",line 1746,column 5,is_stmt
    4083 000b98 06FE          B $C$L144 ; |1746| 
         000b9a B3   
    4084                                                      ; branch occurs ; |1746| 
    4085 000b9b       $C$DW$L$_xQueuePeek$46$E:
    4086 000b9b       $C$L157:    
    4087 000b9b       $C$DW$L$_xQueuePeek$48$B:
    4088                      .dwpsn  file "../FreeRTOS/Source/queue.c",line 1756,column 5,is_stmt
    4089 000b9b ED1C          MOV dbl(*SP(#14)), XAR0
         000b9d 8F   
    4090              $C$DW$367       .dwtag  DW_TAG_TI_branch
    4091                      .dwattr $C$DW$367, DW_AT_low_pc(0x00)
    4092                      .dwattr $C$DW$367, DW_AT_name("_prvUnlockQueue")
    4093                      .dwattr $C$DW$367, DW_AT_TI_call
    4094 000b9e 0803          CALL #_prvUnlockQueue ; |1756| 
         000ba0 A7   
    4095                                                      ; call occurs [#_prvUnlockQueue] ; |1756| 
    4096                      .dwpsn  file "../FreeRTOS/Source/queue.c",line 1757,column 5,is_stmt
    4097              $C$DW$368       .dwtag  DW_TAG_TI_branch
    4098                      .dwattr $C$DW$368, DW_AT_low_pc(0x00)
    4099                      .dwattr $C$DW$368, DW_AT_name("_xTaskResumeAll")
    4100                      .dwattr $C$DW$368, DW_AT_TI_call
    4101 000ba1 6C00          CALL #_xTaskResumeAll ; |1757| 
         000ba3 0000!
    4102                                                      ; call occurs [#_xTaskResumeAll] ; |1757| 
    4103                      .dwpsn  file "../FreeRTOS/Source/queue.c",line 1759,column 3,is_stmt
    4104 000ba5 06FE          B $C$L144 ; |1759| 
         000ba7 A6   
    4105                                                      ; branch occurs ; |1759| 
TMS320C55x Assembler PC v4.4.1 Tue Sep 18 04:49:51 2018

Tools Copyright (c) 1996-2012 Texas Instruments Incorporated
queue.asm                                                            PAGE   88

    4106 000ba8       $C$DW$L$_xQueuePeek$48$E:
    4107 000ba8       $C$L158:    
    4108 000ba8       $C$DW$L$_xQueuePeek$49$B:
    4109                      .dwpsn  file "../FreeRTOS/Source/queue.c",line 1764,column 4,is_stmt
    4110 000ba8 ED1C          MOV dbl(*SP(#14)), XAR0
         000baa 8F   
    4111              $C$DW$369       .dwtag  DW_TAG_TI_branch
    4112                      .dwattr $C$DW$369, DW_AT_low_pc(0x00)
    4113                      .dwattr $C$DW$369, DW_AT_name("_prvUnlockQueue")
    4114                      .dwattr $C$DW$369, DW_AT_TI_call
    4115 000bab 0803          CALL #_prvUnlockQueue ; |1764| 
         000bad 9A   
    4116                                                      ; call occurs [#_prvUnlockQueue] ; |1764| 
    4117                      .dwpsn  file "../FreeRTOS/Source/queue.c",line 1765,column 4,is_stmt
    4118              $C$DW$370       .dwtag  DW_TAG_TI_branch
    4119                      .dwattr $C$DW$370, DW_AT_low_pc(0x00)
    4120                      .dwattr $C$DW$370, DW_AT_name("_xTaskResumeAll")
    4121                      .dwattr $C$DW$370, DW_AT_TI_call
    4122 000bae 6C00          CALL #_xTaskResumeAll ; |1765| 
         000bb0 0000!
    4123                                                      ; call occurs [#_xTaskResumeAll] ; |1765| 
    4124                      .dwpsn  file "../FreeRTOS/Source/queue.c",line 1767,column 4,is_stmt
    4125 000bb2 ED1C          MOV dbl(*SP(#14)), XAR0
         000bb4 8F   
    4126              $C$DW$371       .dwtag  DW_TAG_TI_branch
    4127                      .dwattr $C$DW$371, DW_AT_low_pc(0x00)
    4128                      .dwattr $C$DW$371, DW_AT_name("_prvIsQueueEmpty")
    4129                      .dwattr $C$DW$371, DW_AT_TI_call
    4130 000bb5 0804          CALL #_prvIsQueueEmpty ; |1767| 
         000bb7 74   
    4131                                                      ; call occurs [#_prvIsQueueEmpty] ; |1767| 
    4132 000bb8 6D04          BCC $C$L144,T0 == #0 ; |1767| 
         000bba FE92 
    4133                                                      ; branchcc occurs ; |1767| 
    4134 000bbc       $C$DW$L$_xQueuePeek$49$E:
    4135                      .dwpsn  file "../FreeRTOS/Source/queue.c",line 1770,column 5,is_stmt
    4136 000bbc 3C04          MOV #0, T0
    4137 000bbe 4A00          B $C$L159 ; |1770| 
    4138                                                      ; branch occurs ; |1770| 
    4139 000bc0       $C$L159:    
    4140                      .dwpsn  file "../FreeRTOS/Source/queue.c",line 1778,column 1,is_stmt
    4141 000bc0 4E11          AADD #17, SP
    4142                      .dwcfi  cfa_offset, 1
    4143              $C$DW$372       .dwtag  DW_TAG_TI_branch
    4144                      .dwattr $C$DW$372, DW_AT_low_pc(0x00)
    4145                      .dwattr $C$DW$372, DW_AT_TI_return
    4146 000bc2 4804          RET
    4147                                                      ; return occurs
    4148              
    4149              $C$DW$373       .dwtag  DW_TAG_TI_loop
    4150                      .dwattr $C$DW$373, DW_AT_name("F:\eZdsp_DBG\eZDSP_5535_Files\ccsws2\test\Debug\queue.asm:$C$L144:1:15
    4151                      .dwattr $C$DW$373, DW_AT_TI_begin_file("../FreeRTOS/Source/queue.c")
    4152                      .dwattr $C$DW$373, DW_AT_TI_begin_line(0x679)
    4153                      .dwattr $C$DW$373, DW_AT_TI_end_line(0x6f1)
    4154              $C$DW$374       .dwtag  DW_TAG_TI_loop_range
TMS320C55x Assembler PC v4.4.1 Tue Sep 18 04:49:51 2018

Tools Copyright (c) 1996-2012 Texas Instruments Incorporated
queue.asm                                                            PAGE   89

    4155                      .dwattr $C$DW$374, DW_AT_low_pc($C$DW$L$_xQueuePeek$12$B)
    4156                      .dwattr $C$DW$374, DW_AT_high_pc($C$DW$L$_xQueuePeek$12$E)
    4157              $C$DW$375       .dwtag  DW_TAG_TI_loop_range
    4158                      .dwattr $C$DW$375, DW_AT_low_pc($C$DW$L$_xQueuePeek$25$B)
    4159                      .dwattr $C$DW$375, DW_AT_high_pc($C$DW$L$_xQueuePeek$25$E)
    4160              $C$DW$376       .dwtag  DW_TAG_TI_loop_range
    4161                      .dwattr $C$DW$376, DW_AT_low_pc($C$DW$L$_xQueuePeek$31$B)
    4162                      .dwattr $C$DW$376, DW_AT_high_pc($C$DW$L$_xQueuePeek$31$E)
    4163              $C$DW$377       .dwtag  DW_TAG_TI_loop_range
    4164                      .dwattr $C$DW$377, DW_AT_low_pc($C$DW$L$_xQueuePeek$32$B)
    4165                      .dwattr $C$DW$377, DW_AT_high_pc($C$DW$L$_xQueuePeek$32$E)
    4166              $C$DW$378       .dwtag  DW_TAG_TI_loop_range
    4167                      .dwattr $C$DW$378, DW_AT_low_pc($C$DW$L$_xQueuePeek$33$B)
    4168                      .dwattr $C$DW$378, DW_AT_high_pc($C$DW$L$_xQueuePeek$33$E)
    4169              $C$DW$379       .dwtag  DW_TAG_TI_loop_range
    4170                      .dwattr $C$DW$379, DW_AT_low_pc($C$DW$L$_xQueuePeek$34$B)
    4171                      .dwattr $C$DW$379, DW_AT_high_pc($C$DW$L$_xQueuePeek$34$E)
    4172              $C$DW$380       .dwtag  DW_TAG_TI_loop_range
    4173                      .dwattr $C$DW$380, DW_AT_low_pc($C$DW$L$_xQueuePeek$35$B)
    4174                      .dwattr $C$DW$380, DW_AT_high_pc($C$DW$L$_xQueuePeek$35$E)
    4175              $C$DW$381       .dwtag  DW_TAG_TI_loop_range
    4176                      .dwattr $C$DW$381, DW_AT_low_pc($C$DW$L$_xQueuePeek$36$B)
    4177                      .dwattr $C$DW$381, DW_AT_high_pc($C$DW$L$_xQueuePeek$36$E)
    4178              $C$DW$382       .dwtag  DW_TAG_TI_loop_range
    4179                      .dwattr $C$DW$382, DW_AT_low_pc($C$DW$L$_xQueuePeek$37$B)
    4180                      .dwattr $C$DW$382, DW_AT_high_pc($C$DW$L$_xQueuePeek$37$E)
    4181              $C$DW$383       .dwtag  DW_TAG_TI_loop_range
    4182                      .dwattr $C$DW$383, DW_AT_low_pc($C$DW$L$_xQueuePeek$38$B)
    4183                      .dwattr $C$DW$383, DW_AT_high_pc($C$DW$L$_xQueuePeek$38$E)
    4184              $C$DW$384       .dwtag  DW_TAG_TI_loop_range
    4185                      .dwattr $C$DW$384, DW_AT_low_pc($C$DW$L$_xQueuePeek$39$B)
    4186                      .dwattr $C$DW$384, DW_AT_high_pc($C$DW$L$_xQueuePeek$39$E)
    4187              $C$DW$385       .dwtag  DW_TAG_TI_loop_range
    4188                      .dwattr $C$DW$385, DW_AT_low_pc($C$DW$L$_xQueuePeek$40$B)
    4189                      .dwattr $C$DW$385, DW_AT_high_pc($C$DW$L$_xQueuePeek$40$E)
    4190              $C$DW$386       .dwtag  DW_TAG_TI_loop_range
    4191                      .dwattr $C$DW$386, DW_AT_low_pc($C$DW$L$_xQueuePeek$41$B)
    4192                      .dwattr $C$DW$386, DW_AT_high_pc($C$DW$L$_xQueuePeek$41$E)
    4193              $C$DW$387       .dwtag  DW_TAG_TI_loop_range
    4194                      .dwattr $C$DW$387, DW_AT_low_pc($C$DW$L$_xQueuePeek$42$B)
    4195                      .dwattr $C$DW$387, DW_AT_high_pc($C$DW$L$_xQueuePeek$42$E)
    4196              $C$DW$388       .dwtag  DW_TAG_TI_loop_range
    4197                      .dwattr $C$DW$388, DW_AT_low_pc($C$DW$L$_xQueuePeek$43$B)
    4198                      .dwattr $C$DW$388, DW_AT_high_pc($C$DW$L$_xQueuePeek$43$E)
    4199              $C$DW$389       .dwtag  DW_TAG_TI_loop_range
    4200                      .dwattr $C$DW$389, DW_AT_low_pc($C$DW$L$_xQueuePeek$44$B)
    4201                      .dwattr $C$DW$389, DW_AT_high_pc($C$DW$L$_xQueuePeek$44$E)
    4202              $C$DW$390       .dwtag  DW_TAG_TI_loop_range
    4203                      .dwattr $C$DW$390, DW_AT_low_pc($C$DW$L$_xQueuePeek$49$B)
    4204                      .dwattr $C$DW$390, DW_AT_high_pc($C$DW$L$_xQueuePeek$49$E)
    4205              $C$DW$391       .dwtag  DW_TAG_TI_loop_range
    4206                      .dwattr $C$DW$391, DW_AT_low_pc($C$DW$L$_xQueuePeek$48$B)
    4207                      .dwattr $C$DW$391, DW_AT_high_pc($C$DW$L$_xQueuePeek$48$E)
    4208              $C$DW$392       .dwtag  DW_TAG_TI_loop_range
    4209                      .dwattr $C$DW$392, DW_AT_low_pc($C$DW$L$_xQueuePeek$46$B)
TMS320C55x Assembler PC v4.4.1 Tue Sep 18 04:49:51 2018

Tools Copyright (c) 1996-2012 Texas Instruments Incorporated
queue.asm                                                            PAGE   90

    4210                      .dwattr $C$DW$392, DW_AT_high_pc($C$DW$L$_xQueuePeek$46$E)
    4211              $C$DW$393       .dwtag  DW_TAG_TI_loop_range
    4212                      .dwattr $C$DW$393, DW_AT_low_pc($C$DW$L$_xQueuePeek$45$B)
    4213                      .dwattr $C$DW$393, DW_AT_high_pc($C$DW$L$_xQueuePeek$45$E)
    4214                      .dwendtag $C$DW$373
    4215              
    4216              
    4217              $C$DW$394       .dwtag  DW_TAG_TI_loop
    4218                      .dwattr $C$DW$394, DW_AT_name("F:\eZdsp_DBG\eZDSP_5535_Files\ccsws2\test\Debug\queue.asm:$C$L143:1:15
    4219                      .dwattr $C$DW$394, DW_AT_TI_begin_file("../FreeRTOS/Source/queue.c")
    4220                      .dwattr $C$DW$394, DW_AT_TI_begin_line(0x66c)
    4221                      .dwattr $C$DW$394, DW_AT_TI_end_line(0x66c)
    4222              $C$DW$395       .dwtag  DW_TAG_TI_loop_range
    4223                      .dwattr $C$DW$395, DW_AT_low_pc($C$DW$L$_xQueuePeek$11$B)
    4224                      .dwattr $C$DW$395, DW_AT_high_pc($C$DW$L$_xQueuePeek$11$E)
    4225                      .dwendtag $C$DW$394
    4226              
    4227              
    4228              $C$DW$396       .dwtag  DW_TAG_TI_loop
    4229                      .dwattr $C$DW$396, DW_AT_name("F:\eZdsp_DBG\eZDSP_5535_Files\ccsws2\test\Debug\queue.asm:$C$L139:1:15
    4230                      .dwattr $C$DW$396, DW_AT_TI_begin_file("../FreeRTOS/Source/queue.c")
    4231                      .dwattr $C$DW$396, DW_AT_TI_begin_line(0x668)
    4232                      .dwattr $C$DW$396, DW_AT_TI_end_line(0x668)
    4233              $C$DW$397       .dwtag  DW_TAG_TI_loop_range
    4234                      .dwattr $C$DW$397, DW_AT_low_pc($C$DW$L$_xQueuePeek$3$B)
    4235                      .dwattr $C$DW$397, DW_AT_high_pc($C$DW$L$_xQueuePeek$3$E)
    4236                      .dwendtag $C$DW$396
    4237              
    4238                      .dwattr $C$DW$343, DW_AT_TI_end_file("../FreeRTOS/Source/queue.c")
    4239                      .dwattr $C$DW$343, DW_AT_TI_end_line(0x6f2)
    4240                      .dwattr $C$DW$343, DW_AT_TI_end_column(0x01)
    4241                      .dwendentry
    4242                      .dwendtag $C$DW$343
    4243              
    4244 000bc4               .sect   ".text"
    4245                      .align 4
    4246                      .global _xQueueReceiveFromISR
    4247              
    4248              $C$DW$398       .dwtag  DW_TAG_subprogram, DW_AT_name("xQueueReceiveFromISR")
    4249                      .dwattr $C$DW$398, DW_AT_low_pc(_xQueueReceiveFromISR)
    4250                      .dwattr $C$DW$398, DW_AT_high_pc(0x00)
    4251                      .dwattr $C$DW$398, DW_AT_TI_symbol_name("_xQueueReceiveFromISR")
    4252                      .dwattr $C$DW$398, DW_AT_external
    4253                      .dwattr $C$DW$398, DW_AT_type(*$C$DW$T$49)
    4254                      .dwattr $C$DW$398, DW_AT_TI_begin_file("../FreeRTOS/Source/queue.c")
    4255                      .dwattr $C$DW$398, DW_AT_TI_begin_line(0x6f5)
    4256                      .dwattr $C$DW$398, DW_AT_TI_begin_column(0x0c)
    4257                      .dwattr $C$DW$398, DW_AT_TI_max_frame_size(0x0e)
    4258                      .dwpsn  file "../FreeRTOS/Source/queue.c",line 1782,column 1,is_stmt,address _xQueueReceiveFromISR
    4259              
    4260                      .dwfde $C$DW$CIE, _xQueueReceiveFromISR
    4261              $C$DW$399       .dwtag  DW_TAG_formal_parameter, DW_AT_name("xQueue")
    4262                      .dwattr $C$DW$399, DW_AT_TI_symbol_name("_xQueue")
    4263                      .dwattr $C$DW$399, DW_AT_type(*$C$DW$T$27)
    4264                      .dwattr $C$DW$399, DW_AT_location[DW_OP_reg17]
TMS320C55x Assembler PC v4.4.1 Tue Sep 18 04:49:51 2018

Tools Copyright (c) 1996-2012 Texas Instruments Incorporated
queue.asm                                                            PAGE   91

    4265              $C$DW$400       .dwtag  DW_TAG_formal_parameter, DW_AT_name("pvBuffer")
    4266                      .dwattr $C$DW$400, DW_AT_TI_symbol_name("_pvBuffer")
    4267                      .dwattr $C$DW$400, DW_AT_type(*$C$DW$T$76)
    4268                      .dwattr $C$DW$400, DW_AT_location[DW_OP_reg19]
    4269              $C$DW$401       .dwtag  DW_TAG_formal_parameter, DW_AT_name("pxHigherPriorityTaskWoken")
    4270                      .dwattr $C$DW$401, DW_AT_TI_symbol_name("_pxHigherPriorityTaskWoken")
    4271                      .dwattr $C$DW$401, DW_AT_type(*$C$DW$T$132)
    4272                      .dwattr $C$DW$401, DW_AT_location[DW_OP_reg21]
    4273              ;*******************************************************************************
    4274              ;* FUNCTION NAME: xQueueReceiveFromISR                                         *
    4275              ;*                                                                             *
    4276              ;*   Function Uses Regs : AC0,AC0,T0,AR0,XAR0,AR1,XAR1,AR2,XAR2,AR3,XAR3,SP,   *
    4277              ;*                        CARRY,TC1,M40,SATA,SATD,RDM,FRCT,SMUL                *
    4278              ;*   Stack Frame        : Compact (No Frame Pointer, w/ debug)                 *
    4279              ;*   Total Frame Size   : 14 words                                             *
    4280              ;*                        (2 return address/alignment)                         *
    4281              ;*                        (12 local values)                                    *
    4282              ;*   Min System Stack   : 1 word                                               *
    4283              ;*******************************************************************************
    4284 000bc4       _xQueueReceiveFromISR:
    4285                      .dwcfi  cfa_offset, 1
    4286                      .dwcfi  save_reg_to_mem, 91, -1
    4287 000bc4 4EF3          AADD #-13, SP
    4288                      .dwcfi  cfa_offset, 14
    4289              $C$DW$402       .dwtag  DW_TAG_variable, DW_AT_name("xQueue")
    4290                      .dwattr $C$DW$402, DW_AT_TI_symbol_name("_xQueue")
    4291                      .dwattr $C$DW$402, DW_AT_type(*$C$DW$T$27)
    4292                      .dwattr $C$DW$402, DW_AT_location[DW_OP_bregx 0x24 0]
    4293              $C$DW$403       .dwtag  DW_TAG_variable, DW_AT_name("pvBuffer")
    4294                      .dwattr $C$DW$403, DW_AT_TI_symbol_name("_pvBuffer")
    4295                      .dwattr $C$DW$403, DW_AT_type(*$C$DW$T$76)
    4296                      .dwattr $C$DW$403, DW_AT_location[DW_OP_bregx 0x24 2]
    4297              $C$DW$404       .dwtag  DW_TAG_variable, DW_AT_name("pxHigherPriorityTaskWoken")
    4298                      .dwattr $C$DW$404, DW_AT_TI_symbol_name("_pxHigherPriorityTaskWoken")
    4299                      .dwattr $C$DW$404, DW_AT_type(*$C$DW$T$132)
    4300                      .dwattr $C$DW$404, DW_AT_location[DW_OP_bregx 0x24 4]
    4301              $C$DW$405       .dwtag  DW_TAG_variable, DW_AT_name("xReturn")
    4302                      .dwattr $C$DW$405, DW_AT_TI_symbol_name("_xReturn")
    4303                      .dwattr $C$DW$405, DW_AT_type(*$C$DW$T$49)
    4304                      .dwattr $C$DW$405, DW_AT_location[DW_OP_bregx 0x24 6]
    4305              $C$DW$406       .dwtag  DW_TAG_variable, DW_AT_name("uxSavedInterruptStatus")
    4306                      .dwattr $C$DW$406, DW_AT_TI_symbol_name("_uxSavedInterruptStatus")
    4307                      .dwattr $C$DW$406, DW_AT_type(*$C$DW$T$32)
    4308                      .dwattr $C$DW$406, DW_AT_location[DW_OP_bregx 0x24 7]
    4309              $C$DW$407       .dwtag  DW_TAG_variable, DW_AT_name("pxQueue")
    4310                      .dwattr $C$DW$407, DW_AT_TI_symbol_name("_pxQueue")
    4311                      .dwattr $C$DW$407, DW_AT_type(*$C$DW$T$69)
    4312                      .dwattr $C$DW$407, DW_AT_location[DW_OP_bregx 0x24 8]
    4313 000bc6 EB08          MOV XAR2, dbl(*SP(#4))
         000bc8 A5   
    4314 000bc9 EB04          MOV XAR1, dbl(*SP(#2))
         000bcb 95   
    4315 000bcc EB00          MOV XAR0, dbl(*SP(#0))
         000bce 85   
    4316                      .dwpsn  file "../FreeRTOS/Source/queue.c",line 1785,column 17,is_stmt
TMS320C55x Assembler PC v4.4.1 Tue Sep 18 04:49:51 2018

Tools Copyright (c) 1996-2012 Texas Instruments Incorporated
queue.asm                                                            PAGE   92

    4317 000bcf ED00          MOV dbl(*SP(#0)), XAR3
         000bd1 BF   
    4318 000bd2 EB10          MOV XAR3, dbl(*SP(#8))
         000bd4 B5   
    4319                      .dwpsn  file "../FreeRTOS/Source/queue.c",line 1787,column 2,is_stmt
    4320 000bd5 90B0          MOV XAR3, AC0
    4321 000bd7 6290          BCC $C$L161,AC0 != #0 ; |1787| 
    4322                                                      ; branchcc occurs ; |1787| 
    4323 000bd9 20     nop
    4324 000bda 46B3   bset INTM
    4325 000bdc       $C$L160:    
    4326 000bdc       $C$DW$L$_xQueueReceiveFromISR$3$B:
    4327 000bdc 4A7E          B $C$L160 ; |1787| 
    4328                                                      ; branch occurs ; |1787| 
    4329 000bde       $C$DW$L$_xQueueReceiveFromISR$3$E:
    4330 000bde       $C$L161:    
    4331                      .dwpsn  file "../FreeRTOS/Source/queue.c",line 1788,column 2,is_stmt
    4332 000bde ED04          MOV dbl(*SP(#2)), XAR3
         000be0 BF   
    4333 000be1 90B0          MOV XAR3, AC0
    4334 000be3 3C0A          MOV #0, AR2
    4335              
    4336 000be5 6590          BCC $C$L162,AC0 != #0 ; |1788| 
    4337 000be7 3D09  ||      MOV #0, AR1
    4338              
    4339                                                      ; branchcc occurs ; |1788| 
    4340 000be9 ED10          MOV dbl(*SP(#8)), XAR3
         000beb BF   
    4341 000bec AB6D          MOV *AR3(#30), AR3 ; |1788| 
         000bee 001E 
    4342 000bf0 610B          BCC $C$L162,AR3 == #0 ; |1788| 
    4343                                                      ; branchcc occurs ; |1788| 
    4344 000bf2 3C1A          MOV #1, AR2
    4345 000bf4       $C$L162:    
    4346 000bf4 611A          BCC $C$L163,AR2 != #0 ; |1788| 
    4347                                                      ; branchcc occurs ; |1788| 
    4348 000bf6 3C19          MOV #1, AR1
    4349 000bf8       $C$L163:    
    4350 000bf8 6299          BCC $C$L165,AR1 != #0 ; |1788| 
    4351                                                      ; branchcc occurs ; |1788| 
    4352 000bfa 20     nop
    4353 000bfb 46B3   bset INTM
    4354 000bfd       $C$L164:    
    4355 000bfd       $C$DW$L$_xQueueReceiveFromISR$11$B:
    4356 000bfd 4A7E          B $C$L164 ; |1788| 
    4357                                                      ; branch occurs ; |1788| 
    4358 000bff       $C$DW$L$_xQueueReceiveFromISR$11$E:
    4359 000bff       $C$L165:    
    4360                      .dwpsn  file "../FreeRTOS/Source/queue.c",line 1806,column 2,is_stmt
    4361 000bff E60E          MOV #0, *SP(#7) ; |1806| 
         000c01 00   
    4362              
    4363              $C$DW$408       .dwtag  DW_TAG_lexical_block, DW_AT_low_pc(0x00), DW_AT_high_pc(0x00)
    4364              $C$DW$409       .dwtag  DW_TAG_variable, DW_AT_name("uxMessagesWaiting")
    4365                      .dwattr $C$DW$409, DW_AT_TI_symbol_name("_uxMessagesWaiting")
TMS320C55x Assembler PC v4.4.1 Tue Sep 18 04:49:51 2018

Tools Copyright (c) 1996-2012 Texas Instruments Incorporated
queue.asm                                                            PAGE   93

    4366                      .dwattr $C$DW$409, DW_AT_type(*$C$DW$T$56)
    4367                      .dwattr $C$DW$409, DW_AT_location[DW_OP_bregx 0x24 10]
    4368                      .dwpsn  file "../FreeRTOS/Source/queue.c",line 1808,column 21,is_stmt
    4369 000c02 ED10          MOV dbl(*SP(#8)), XAR3
         000c04 BF   
    4370 000c05 A96D          MOV *AR3(#28), AR1 ; |1808| 
         000c07 001C 
    4371 000c09 C914          MOV AR1, *SP(#10) ; |1808| 
    4372                      .dwpsn  file "../FreeRTOS/Source/queue.c",line 1811,column 3,is_stmt
    4373 000c0b 0409          BCC $C$L170,AR1 == #0 ; |1811| 
         000c0d 60   
    4374                                                      ; branchcc occurs ; |1811| 
    4375              
    4376              $C$DW$410       .dwtag  DW_TAG_lexical_block, DW_AT_low_pc(0x00), DW_AT_high_pc(0x00)
    4377              $C$DW$411       .dwtag  DW_TAG_variable, DW_AT_name("cRxLock")
    4378                      .dwattr $C$DW$411, DW_AT_TI_symbol_name("_cRxLock")
    4379                      .dwattr $C$DW$411, DW_AT_type(*$C$DW$T$109)
    4380                      .dwattr $C$DW$411, DW_AT_location[DW_OP_bregx 0x24 11]
    4381                      .dwpsn  file "../FreeRTOS/Source/queue.c",line 1813,column 17,is_stmt
    4382 000c0e ED10          MOV dbl(*SP(#8)), XAR3
         000c10 BF   
    4383 000c11 A96D          MOV *AR3(#31), AR1 ; |1813| 
         000c13 001F 
    4384 000c15 C916          MOV AR1, *SP(#11) ; |1813| 
    4385                      .dwpsn  file "../FreeRTOS/Source/queue.c",line 1817,column 4,is_stmt
    4386 000c17 ED10          MOV dbl(*SP(#8)), XAR0
         000c19 8F   
    4387 000c1a ED04          MOV dbl(*SP(#2)), XAR1
         000c1c 9F   
    4388              $C$DW$412       .dwtag  DW_TAG_TI_branch
    4389                      .dwattr $C$DW$412, DW_AT_low_pc(0x00)
    4390                      .dwattr $C$DW$412, DW_AT_name("_prvCopyDataFromQueue")
    4391                      .dwattr $C$DW$412, DW_AT_TI_call
    4392 000c1d 0802          CALL #_prvCopyDataFromQueue ; |1817| 
         000c1f D0   
    4393                                                      ; call occurs [#_prvCopyDataFromQueue] ; |1817| 
    4394                      .dwpsn  file "../FreeRTOS/Source/queue.c",line 1818,column 4,is_stmt
    4395 000c20 ED10          MOV dbl(*SP(#8)), XAR3
         000c22 BF   
    4396 000c23 A914          MOV *SP(#10), AR1 ; |1818| 
    4397 000c25 4219          SUB #1, AR1 ; |1818| 
    4398 000c27 C96D          MOV AR1, *AR3(#28) ; |1818| 
         000c29 001C 
    4399                      .dwpsn  file "../FreeRTOS/Source/queue.c",line 1824,column 4,is_stmt
    4400 000c2b F016          CMP *SP(#11) == #-1, TC1 ; |1824| 
         000c2d FFFF 
    4401 000c2f 0474          BCC $C$L168,!TC1 ; |1824| 
         000c31 2C   
    4402                                                      ; branchcc occurs ; |1824| 
    4403                      .dwpsn  file "../FreeRTOS/Source/queue.c",line 1826,column 5,is_stmt
    4404 000c32 ED10          MOV dbl(*SP(#8)), XAR3
         000c34 BF   
    4405 000c35 A96D          MOV *AR3(#8), AR1 ; |1826| 
         000c37 0008 
    4406 000c39 6219          BCC $C$L166,AR1 != #0 ; |1826| 
TMS320C55x Assembler PC v4.4.1 Tue Sep 18 04:49:51 2018

Tools Copyright (c) 1996-2012 Texas Instruments Incorporated
queue.asm                                                            PAGE   94

    4407                                                      ; branchcc occurs ; |1826| 
    4408 000c3b 3C19          MOV #1, AR1
    4409 000c3d 4A02          B $C$L167 ; |1826| 
    4410                                                      ; branch occurs ; |1826| 
    4411 000c3f       $C$L166:    
    4412 000c3f 3C09          MOV #0, AR1
    4413 000c41       $C$L167:    
    4414 000c41 0419          BCC $C$L169,AR1 != #0 ; |1826| 
         000c43 25   
    4415                                                      ; branchcc occurs ; |1826| 
    4416                      .dwpsn  file "../FreeRTOS/Source/queue.c",line 1828,column 6,is_stmt
    4417 000c44 ED10          MOV dbl(*SP(#8)), XAR0
         000c46 8F   
    4418 000c47 1408          AADD #8, AR0 ; |1828| 
         000c49 84   
    4419              $C$DW$413       .dwtag  DW_TAG_TI_branch
    4420                      .dwattr $C$DW$413, DW_AT_low_pc(0x00)
    4421                      .dwattr $C$DW$413, DW_AT_name("_xTaskRemoveFromEventList")
    4422                      .dwattr $C$DW$413, DW_AT_TI_call
    4423 000c4a 6C00          CALL #_xTaskRemoveFromEventList ; |1828| 
         000c4c 0000!
    4424                                                      ; call occurs [#_xTaskRemoveFromEventList] ; |1828| 
    4425 000c4e 0404          BCC $C$L169,T0 == #0 ; |1828| 
         000c50 18   
    4426                                                      ; branchcc occurs ; |1828| 
    4427                      .dwpsn  file "../FreeRTOS/Source/queue.c",line 1832,column 7,is_stmt
    4428 000c51 ED08          MOV dbl(*SP(#4)), XAR3
         000c53 BF   
    4429 000c54 90B0          MOV XAR3, AC0
    4430 000c56 0400          BCC $C$L169,AC0 == #0 ; |1832| 
         000c58 10   
    4431                                                      ; branchcc occurs ; |1832| 
    4432                      .dwpsn  file "../FreeRTOS/Source/queue.c",line 1834,column 8,is_stmt
    4433 000c59 E661          MOV #1, *AR3 ; |1834| 
         000c5b 01   
    4434                      .dwpsn  file "../FreeRTOS/Source/queue.c",line 1835,column 7,is_stmt
    4435 000c5c 4A0B          B $C$L169 ; |1835| 
    4436                                                      ; branch occurs ; |1835| 
    4437 000c5e       $C$L168:    
    4438                      .dwpsn  file "../FreeRTOS/Source/queue.c",line 1855,column 5,is_stmt
    4439 000c5e ED10          MOV dbl(*SP(#8)), XAR3
         000c60 BF   
    4440 000c61 A916          MOV *SP(#11), AR1 ; |1855| 
    4441 000c63 4019          ADD #1, AR1 ; |1855| 
    4442 000c65 C96D          MOV AR1, *AR3(#31) ; |1855| 
         000c67 001F 
    4443 000c69       $C$L169:    
    4444                      .dwpsn  file "../FreeRTOS/Source/queue.c",line 1858,column 4,is_stmt
    4445 000c69 E60C          MOV #1, *SP(#6) ; |1858| 
         000c6b 01   
    4446                      .dwendtag $C$DW$410
    4447              
    4448                      .dwpsn  file "../FreeRTOS/Source/queue.c",line 1859,column 3,is_stmt
    4449 000c6c 4A03          B $C$L171 ; |1859| 
    4450                                                      ; branch occurs ; |1859| 
TMS320C55x Assembler PC v4.4.1 Tue Sep 18 04:49:51 2018

Tools Copyright (c) 1996-2012 Texas Instruments Incorporated
queue.asm                                                            PAGE   95

    4451 000c6e       $C$L170:    
    4452                      .dwpsn  file "../FreeRTOS/Source/queue.c",line 1862,column 4,is_stmt
    4453 000c6e E60C          MOV #0, *SP(#6) ; |1862| 
         000c70 00   
    4454              $C$L171:    
    4455                      .dwendtag $C$DW$408
    4456              
    4457                      .dwpsn  file "../FreeRTOS/Source/queue.c",line 1866,column 2,is_stmt
    4458                      .dwpsn  file "../FreeRTOS/Source/queue.c",line 1868,column 2,is_stmt
    4459 000c71 A40C          MOV *SP(#6), T0 ; |1868| 
    4460                      .dwpsn  file "../FreeRTOS/Source/queue.c",line 1869,column 1,is_stmt
    4461 000c73 4E0D          AADD #13, SP
    4462                      .dwcfi  cfa_offset, 1
    4463              $C$DW$414       .dwtag  DW_TAG_TI_branch
    4464                      .dwattr $C$DW$414, DW_AT_low_pc(0x00)
    4465                      .dwattr $C$DW$414, DW_AT_TI_return
    4466 000c75 4804          RET
    4467                                                      ; return occurs
    4468              
    4469              $C$DW$415       .dwtag  DW_TAG_TI_loop
    4470                      .dwattr $C$DW$415, DW_AT_name("F:\eZdsp_DBG\eZDSP_5535_Files\ccsws2\test\Debug\queue.asm:$C$L164:1:15
    4471                      .dwattr $C$DW$415, DW_AT_TI_begin_file("../FreeRTOS/Source/queue.c")
    4472                      .dwattr $C$DW$415, DW_AT_TI_begin_line(0x6fc)
    4473                      .dwattr $C$DW$415, DW_AT_TI_end_line(0x6fc)
    4474              $C$DW$416       .dwtag  DW_TAG_TI_loop_range
    4475                      .dwattr $C$DW$416, DW_AT_low_pc($C$DW$L$_xQueueReceiveFromISR$11$B)
    4476                      .dwattr $C$DW$416, DW_AT_high_pc($C$DW$L$_xQueueReceiveFromISR$11$E)
    4477                      .dwendtag $C$DW$415
    4478              
    4479              
    4480              $C$DW$417       .dwtag  DW_TAG_TI_loop
    4481                      .dwattr $C$DW$417, DW_AT_name("F:\eZdsp_DBG\eZDSP_5535_Files\ccsws2\test\Debug\queue.asm:$C$L160:1:15
    4482                      .dwattr $C$DW$417, DW_AT_TI_begin_file("../FreeRTOS/Source/queue.c")
    4483                      .dwattr $C$DW$417, DW_AT_TI_begin_line(0x6fb)
    4484                      .dwattr $C$DW$417, DW_AT_TI_end_line(0x6fb)
    4485              $C$DW$418       .dwtag  DW_TAG_TI_loop_range
    4486                      .dwattr $C$DW$418, DW_AT_low_pc($C$DW$L$_xQueueReceiveFromISR$3$B)
    4487                      .dwattr $C$DW$418, DW_AT_high_pc($C$DW$L$_xQueueReceiveFromISR$3$E)
    4488                      .dwendtag $C$DW$417
    4489              
    4490                      .dwattr $C$DW$398, DW_AT_TI_end_file("../FreeRTOS/Source/queue.c")
    4491                      .dwattr $C$DW$398, DW_AT_TI_end_line(0x74d)
    4492                      .dwattr $C$DW$398, DW_AT_TI_end_column(0x01)
    4493                      .dwendentry
    4494                      .dwendtag $C$DW$398
    4495              
    4496 000c77               .sect   ".text"
    4497                      .align 4
    4498                      .global _xQueuePeekFromISR
    4499              
    4500              $C$DW$419       .dwtag  DW_TAG_subprogram, DW_AT_name("xQueuePeekFromISR")
    4501                      .dwattr $C$DW$419, DW_AT_low_pc(_xQueuePeekFromISR)
    4502                      .dwattr $C$DW$419, DW_AT_high_pc(0x00)
    4503                      .dwattr $C$DW$419, DW_AT_TI_symbol_name("_xQueuePeekFromISR")
    4504                      .dwattr $C$DW$419, DW_AT_external
TMS320C55x Assembler PC v4.4.1 Tue Sep 18 04:49:51 2018

Tools Copyright (c) 1996-2012 Texas Instruments Incorporated
queue.asm                                                            PAGE   96

    4505                      .dwattr $C$DW$419, DW_AT_type(*$C$DW$T$49)
    4506                      .dwattr $C$DW$419, DW_AT_TI_begin_file("../FreeRTOS/Source/queue.c")
    4507                      .dwattr $C$DW$419, DW_AT_TI_begin_line(0x750)
    4508                      .dwattr $C$DW$419, DW_AT_TI_begin_column(0x0c)
    4509                      .dwattr $C$DW$419, DW_AT_TI_max_frame_size(0x0c)
    4510                      .dwpsn  file "../FreeRTOS/Source/queue.c",line 1873,column 1,is_stmt,address _xQueuePeekFromISR
    4511              
    4512                      .dwfde $C$DW$CIE, _xQueuePeekFromISR
    4513              $C$DW$420       .dwtag  DW_TAG_formal_parameter, DW_AT_name("xQueue")
    4514                      .dwattr $C$DW$420, DW_AT_TI_symbol_name("_xQueue")
    4515                      .dwattr $C$DW$420, DW_AT_type(*$C$DW$T$27)
    4516                      .dwattr $C$DW$420, DW_AT_location[DW_OP_reg17]
    4517              $C$DW$421       .dwtag  DW_TAG_formal_parameter, DW_AT_name("pvBuffer")
    4518                      .dwattr $C$DW$421, DW_AT_TI_symbol_name("_pvBuffer")
    4519                      .dwattr $C$DW$421, DW_AT_type(*$C$DW$T$76)
    4520                      .dwattr $C$DW$421, DW_AT_location[DW_OP_reg19]
    4521              ;*******************************************************************************
    4522              ;* FUNCTION NAME: xQueuePeekFromISR                                            *
    4523              ;*                                                                             *
    4524              ;*   Function Uses Regs : AC0,AC0,T0,AR0,XAR0,AR1,XAR1,AR2,XAR2,AR3,XAR3,SP,   *
    4525              ;*                        M40,SATA,SATD,RDM,FRCT,SMUL                          *
    4526              ;*   Stack Frame        : Compact (No Frame Pointer, w/ debug)                 *
    4527              ;*   Total Frame Size   : 12 words                                             *
    4528              ;*                        (2 return address/alignment)                         *
    4529              ;*                        (10 local values)                                    *
    4530              ;*   Min System Stack   : 1 word                                               *
    4531              ;*******************************************************************************
    4532 000c78       _xQueuePeekFromISR:
    4533                      .dwcfi  cfa_offset, 1
    4534                      .dwcfi  save_reg_to_mem, 91, -1
    4535 000c78 4EF5          AADD #-11, SP
    4536                      .dwcfi  cfa_offset, 12
    4537              $C$DW$422       .dwtag  DW_TAG_variable, DW_AT_name("xQueue")
    4538                      .dwattr $C$DW$422, DW_AT_TI_symbol_name("_xQueue")
    4539                      .dwattr $C$DW$422, DW_AT_type(*$C$DW$T$27)
    4540                      .dwattr $C$DW$422, DW_AT_location[DW_OP_bregx 0x24 0]
    4541              $C$DW$423       .dwtag  DW_TAG_variable, DW_AT_name("pvBuffer")
    4542                      .dwattr $C$DW$423, DW_AT_TI_symbol_name("_pvBuffer")
    4543                      .dwattr $C$DW$423, DW_AT_type(*$C$DW$T$76)
    4544                      .dwattr $C$DW$423, DW_AT_location[DW_OP_bregx 0x24 2]
    4545              $C$DW$424       .dwtag  DW_TAG_variable, DW_AT_name("xReturn")
    4546                      .dwattr $C$DW$424, DW_AT_TI_symbol_name("_xReturn")
    4547                      .dwattr $C$DW$424, DW_AT_type(*$C$DW$T$49)
    4548                      .dwattr $C$DW$424, DW_AT_location[DW_OP_bregx 0x24 4]
    4549              $C$DW$425       .dwtag  DW_TAG_variable, DW_AT_name("uxSavedInterruptStatus")
    4550                      .dwattr $C$DW$425, DW_AT_TI_symbol_name("_uxSavedInterruptStatus")
    4551                      .dwattr $C$DW$425, DW_AT_type(*$C$DW$T$32)
    4552                      .dwattr $C$DW$425, DW_AT_location[DW_OP_bregx 0x24 5]
    4553              $C$DW$426       .dwtag  DW_TAG_variable, DW_AT_name("pcOriginalReadPosition")
    4554                      .dwattr $C$DW$426, DW_AT_TI_symbol_name("_pcOriginalReadPosition")
    4555                      .dwattr $C$DW$426, DW_AT_type(*$C$DW$T$30)
    4556                      .dwattr $C$DW$426, DW_AT_location[DW_OP_bregx 0x24 6]
    4557              $C$DW$427       .dwtag  DW_TAG_variable, DW_AT_name("pxQueue")
    4558                      .dwattr $C$DW$427, DW_AT_TI_symbol_name("_pxQueue")
    4559                      .dwattr $C$DW$427, DW_AT_type(*$C$DW$T$69)
TMS320C55x Assembler PC v4.4.1 Tue Sep 18 04:49:51 2018

Tools Copyright (c) 1996-2012 Texas Instruments Incorporated
queue.asm                                                            PAGE   97

    4560                      .dwattr $C$DW$427, DW_AT_location[DW_OP_bregx 0x24 8]
    4561 000c7a EB04          MOV XAR1, dbl(*SP(#2))
         000c7c 95   
    4562 000c7d EB00          MOV XAR0, dbl(*SP(#0))
         000c7f 85   
    4563                      .dwpsn  file "../FreeRTOS/Source/queue.c",line 1877,column 17,is_stmt
    4564 000c80 ED00          MOV dbl(*SP(#0)), XAR3
         000c82 BF   
    4565 000c83 EB10          MOV XAR3, dbl(*SP(#8))
         000c85 B5   
    4566                      .dwpsn  file "../FreeRTOS/Source/queue.c",line 1879,column 2,is_stmt
    4567 000c86 90B0          MOV XAR3, AC0
    4568 000c88 6290          BCC $C$L173,AC0 != #0 ; |1879| 
    4569                                                      ; branchcc occurs ; |1879| 
    4570 000c8a 20     nop
    4571 000c8b 46B3   bset INTM
    4572 000c8d       $C$L172:    
    4573 000c8d       $C$DW$L$_xQueuePeekFromISR$3$B:
    4574 000c8d 4A7E          B $C$L172 ; |1879| 
    4575                                                      ; branch occurs ; |1879| 
    4576 000c8f       $C$DW$L$_xQueuePeekFromISR$3$E:
    4577 000c8f       $C$L173:    
    4578                      .dwpsn  file "../FreeRTOS/Source/queue.c",line 1880,column 2,is_stmt
    4579 000c8f ED04          MOV dbl(*SP(#2)), XAR3
         000c91 BF   
    4580 000c92 90B0          MOV XAR3, AC0
    4581 000c94 3C0A          MOV #0, AR2
    4582              
    4583 000c96 6590          BCC $C$L174,AC0 != #0 ; |1880| 
    4584 000c98 3D09  ||      MOV #0, AR1
    4585              
    4586                                                      ; branchcc occurs ; |1880| 
    4587 000c9a ED10          MOV dbl(*SP(#8)), XAR3
         000c9c BF   
    4588 000c9d AB6D          MOV *AR3(#30), AR3 ; |1880| 
         000c9f 001E 
    4589 000ca1 610B          BCC $C$L174,AR3 == #0 ; |1880| 
    4590                                                      ; branchcc occurs ; |1880| 
    4591 000ca3 3C1A          MOV #1, AR2
    4592 000ca5       $C$L174:    
    4593 000ca5 611A          BCC $C$L175,AR2 != #0 ; |1880| 
    4594                                                      ; branchcc occurs ; |1880| 
    4595 000ca7 3C19          MOV #1, AR1
    4596 000ca9       $C$L175:    
    4597 000ca9 6299          BCC $C$L177,AR1 != #0 ; |1880| 
    4598                                                      ; branchcc occurs ; |1880| 
    4599 000cab 20     nop
    4600 000cac 46B3   bset INTM
    4601 000cae       $C$L176:    
    4602 000cae       $C$DW$L$_xQueuePeekFromISR$11$B:
    4603 000cae 4A7E          B $C$L176 ; |1880| 
    4604                                                      ; branch occurs ; |1880| 
    4605 000cb0       $C$DW$L$_xQueuePeekFromISR$11$E:
    4606 000cb0       $C$L177:    
    4607                      .dwpsn  file "../FreeRTOS/Source/queue.c",line 1881,column 2,is_stmt
TMS320C55x Assembler PC v4.4.1 Tue Sep 18 04:49:51 2018

Tools Copyright (c) 1996-2012 Texas Instruments Incorporated
queue.asm                                                            PAGE   98

    4608 000cb0 ED10          MOV dbl(*SP(#8)), XAR3
         000cb2 BF   
    4609 000cb3 AA6D          MOV *AR3(#30), AR2 ; |1881| 
         000cb5 001E 
    4610 000cb7 3C09          MOV #0, AR1
    4611 000cb9 610A          BCC $C$L178,AR2 == #0 ; |1881| 
    4612                                                      ; branchcc occurs ; |1881| 
    4613 000cbb 3C19          MOV #1, AR1
    4614 000cbd       $C$L178:    
    4615 000cbd 6299          BCC $C$L180,AR1 != #0 ; |1881| 
    4616                                                      ; branchcc occurs ; |1881| 
    4617 000cbf 20     nop
    4618 000cc0 46B3   bset INTM
    4619 000cc2       $C$L179:    
    4620 000cc2       $C$DW$L$_xQueuePeekFromISR$16$B:
    4621 000cc2 4A7E          B $C$L179 ; |1881| 
    4622                                                      ; branch occurs ; |1881| 
    4623 000cc4       $C$DW$L$_xQueuePeekFromISR$16$E:
    4624 000cc4       $C$L180:    
    4625                      .dwpsn  file "../FreeRTOS/Source/queue.c",line 1899,column 2,is_stmt
    4626 000cc4 E60A          MOV #0, *SP(#5) ; |1899| 
         000cc6 00   
    4627                      .dwpsn  file "../FreeRTOS/Source/queue.c",line 1902,column 3,is_stmt
    4628 000cc7 ED10          MOV dbl(*SP(#8)), XAR3
         000cc9 BF   
    4629 000cca A96D          MOV *AR3(#28), AR1 ; |1902| 
         000ccc 001C 
    4630 000cce 0409          BCC $C$L181,AR1 == #0 ; |1902| 
         000cd0 1D   
    4631                                                      ; branchcc occurs ; |1902| 
    4632                      .dwpsn  file "../FreeRTOS/Source/queue.c",line 1908,column 4,is_stmt
    4633 000cd1 ED7D          MOV dbl(*AR3(short(#6))), XAR3
         000cd3 BF   
    4634 000cd4 EB0C          MOV XAR3, dbl(*SP(#6))
         000cd6 B5   
    4635                      .dwpsn  file "../FreeRTOS/Source/queue.c",line 1909,column 4,is_stmt
    4636 000cd7 ED10          MOV dbl(*SP(#8)), XAR0
         000cd9 8F   
    4637 000cda ED04          MOV dbl(*SP(#2)), XAR1
         000cdc 9F   
    4638              $C$DW$428       .dwtag  DW_TAG_TI_branch
    4639                      .dwattr $C$DW$428, DW_AT_low_pc(0x00)
    4640                      .dwattr $C$DW$428, DW_AT_name("_prvCopyDataFromQueue")
    4641                      .dwattr $C$DW$428, DW_AT_TI_call
    4642 000cdd 0802          CALL #_prvCopyDataFromQueue ; |1909| 
         000cdf 10   
    4643                                                      ; call occurs [#_prvCopyDataFromQueue] ; |1909| 
    4644                      .dwpsn  file "../FreeRTOS/Source/queue.c",line 1910,column 4,is_stmt
    4645 000ce0 ED10          MOV dbl(*SP(#8)), XAR3
         000ce2 BF   
    4646 000ce3 ED0C          MOV dbl(*SP(#6)), XAR2
         000ce5 AF   
    4647 000ce6 EB7D          MOV XAR2, dbl(*AR3(short(#6)))
         000ce8 A5   
    4648                      .dwpsn  file "../FreeRTOS/Source/queue.c",line 1912,column 4,is_stmt
TMS320C55x Assembler PC v4.4.1 Tue Sep 18 04:49:51 2018

Tools Copyright (c) 1996-2012 Texas Instruments Incorporated
queue.asm                                                            PAGE   99

    4649 000ce9 E608          MOV #1, *SP(#4) ; |1912| 
         000ceb 01   
    4650                      .dwpsn  file "../FreeRTOS/Source/queue.c",line 1913,column 3,is_stmt
    4651 000cec 4A03          B $C$L182 ; |1913| 
    4652                                                      ; branch occurs ; |1913| 
    4653 000cee       $C$L181:    
    4654                      .dwpsn  file "../FreeRTOS/Source/queue.c",line 1916,column 4,is_stmt
    4655 000cee E608          MOV #0, *SP(#4) ; |1916| 
         000cf0 00   
    4656 000cf1       $C$L182:    
    4657                      .dwpsn  file "../FreeRTOS/Source/queue.c",line 1920,column 2,is_stmt
    4658                      .dwpsn  file "../FreeRTOS/Source/queue.c",line 1922,column 2,is_stmt
    4659 000cf1 A408          MOV *SP(#4), T0 ; |1922| 
    4660                      .dwpsn  file "../FreeRTOS/Source/queue.c",line 1923,column 1,is_stmt
    4661 000cf3 4E0B          AADD #11, SP
    4662                      .dwcfi  cfa_offset, 1
    4663              $C$DW$429       .dwtag  DW_TAG_TI_branch
    4664                      .dwattr $C$DW$429, DW_AT_low_pc(0x00)
    4665                      .dwattr $C$DW$429, DW_AT_TI_return
    4666 000cf5 4804          RET
    4667                                                      ; return occurs
    4668              
    4669              $C$DW$430       .dwtag  DW_TAG_TI_loop
    4670                      .dwattr $C$DW$430, DW_AT_name("F:\eZdsp_DBG\eZDSP_5535_Files\ccsws2\test\Debug\queue.asm:$C$L179:1:15
    4671                      .dwattr $C$DW$430, DW_AT_TI_begin_file("../FreeRTOS/Source/queue.c")
    4672                      .dwattr $C$DW$430, DW_AT_TI_begin_line(0x759)
    4673                      .dwattr $C$DW$430, DW_AT_TI_end_line(0x759)
    4674              $C$DW$431       .dwtag  DW_TAG_TI_loop_range
    4675                      .dwattr $C$DW$431, DW_AT_low_pc($C$DW$L$_xQueuePeekFromISR$16$B)
    4676                      .dwattr $C$DW$431, DW_AT_high_pc($C$DW$L$_xQueuePeekFromISR$16$E)
    4677                      .dwendtag $C$DW$430
    4678              
    4679              
    4680              $C$DW$432       .dwtag  DW_TAG_TI_loop
    4681                      .dwattr $C$DW$432, DW_AT_name("F:\eZdsp_DBG\eZDSP_5535_Files\ccsws2\test\Debug\queue.asm:$C$L176:1:15
    4682                      .dwattr $C$DW$432, DW_AT_TI_begin_file("../FreeRTOS/Source/queue.c")
    4683                      .dwattr $C$DW$432, DW_AT_TI_begin_line(0x758)
    4684                      .dwattr $C$DW$432, DW_AT_TI_end_line(0x758)
    4685              $C$DW$433       .dwtag  DW_TAG_TI_loop_range
    4686                      .dwattr $C$DW$433, DW_AT_low_pc($C$DW$L$_xQueuePeekFromISR$11$B)
    4687                      .dwattr $C$DW$433, DW_AT_high_pc($C$DW$L$_xQueuePeekFromISR$11$E)
    4688                      .dwendtag $C$DW$432
    4689              
    4690              
    4691              $C$DW$434       .dwtag  DW_TAG_TI_loop
    4692                      .dwattr $C$DW$434, DW_AT_name("F:\eZdsp_DBG\eZDSP_5535_Files\ccsws2\test\Debug\queue.asm:$C$L172:1:15
    4693                      .dwattr $C$DW$434, DW_AT_TI_begin_file("../FreeRTOS/Source/queue.c")
    4694                      .dwattr $C$DW$434, DW_AT_TI_begin_line(0x757)
    4695                      .dwattr $C$DW$434, DW_AT_TI_end_line(0x757)
    4696              $C$DW$435       .dwtag  DW_TAG_TI_loop_range
    4697                      .dwattr $C$DW$435, DW_AT_low_pc($C$DW$L$_xQueuePeekFromISR$3$B)
    4698                      .dwattr $C$DW$435, DW_AT_high_pc($C$DW$L$_xQueuePeekFromISR$3$E)
    4699                      .dwendtag $C$DW$434
    4700              
    4701                      .dwattr $C$DW$419, DW_AT_TI_end_file("../FreeRTOS/Source/queue.c")
TMS320C55x Assembler PC v4.4.1 Tue Sep 18 04:49:51 2018

Tools Copyright (c) 1996-2012 Texas Instruments Incorporated
queue.asm                                                            PAGE  100

    4702                      .dwattr $C$DW$419, DW_AT_TI_end_line(0x783)
    4703                      .dwattr $C$DW$419, DW_AT_TI_end_column(0x01)
    4704                      .dwendentry
    4705                      .dwendtag $C$DW$419
    4706              
    4707 000cf7               .sect   ".text"
    4708                      .align 4
    4709                      .global _uxQueueMessagesWaiting
    4710              
    4711              $C$DW$436       .dwtag  DW_TAG_subprogram, DW_AT_name("uxQueueMessagesWaiting")
    4712                      .dwattr $C$DW$436, DW_AT_low_pc(_uxQueueMessagesWaiting)
    4713                      .dwattr $C$DW$436, DW_AT_high_pc(0x00)
    4714                      .dwattr $C$DW$436, DW_AT_TI_symbol_name("_uxQueueMessagesWaiting")
    4715                      .dwattr $C$DW$436, DW_AT_external
    4716                      .dwattr $C$DW$436, DW_AT_type(*$C$DW$T$32)
    4717                      .dwattr $C$DW$436, DW_AT_TI_begin_file("../FreeRTOS/Source/queue.c")
    4718                      .dwattr $C$DW$436, DW_AT_TI_begin_line(0x786)
    4719                      .dwattr $C$DW$436, DW_AT_TI_begin_column(0x0d)
    4720                      .dwattr $C$DW$436, DW_AT_TI_max_frame_size(0x04)
    4721                      .dwpsn  file "../FreeRTOS/Source/queue.c",line 1927,column 1,is_stmt,address _uxQueueMessagesWaiting
    4722              
    4723                      .dwfde $C$DW$CIE, _uxQueueMessagesWaiting
    4724              $C$DW$437       .dwtag  DW_TAG_formal_parameter, DW_AT_name("xQueue")
    4725                      .dwattr $C$DW$437, DW_AT_TI_symbol_name("_xQueue")
    4726                      .dwattr $C$DW$437, DW_AT_type(*$C$DW$T$55)
    4727                      .dwattr $C$DW$437, DW_AT_location[DW_OP_reg17]
    4728              ;*******************************************************************************
    4729              ;* FUNCTION NAME: uxQueueMessagesWaiting                                       *
    4730              ;*                                                                             *
    4731              ;*   Function Uses Regs : AC0,AC0,T0,AR0,XAR0,AR1,AR3,XAR3,SP,CARRY,M40,SATA,  *
    4732              ;*                        SATD,RDM,FRCT,SMUL                                   *
    4733              ;*   Stack Frame        : Compact (No Frame Pointer, w/ debug)                 *
    4734              ;*   Total Frame Size   : 4 words                                              *
    4735              ;*                        (1 return address/alignment)                         *
    4736              ;*                        (3 local values)                                     *
    4737              ;*   Min System Stack   : 1 word                                               *
    4738              ;*******************************************************************************
    4739 000cf8       _uxQueueMessagesWaiting:
    4740                      .dwcfi  cfa_offset, 1
    4741                      .dwcfi  save_reg_to_mem, 91, -1
    4742 000cf8 4EFD          AADD #-3, SP
    4743                      .dwcfi  cfa_offset, 4
    4744              $C$DW$438       .dwtag  DW_TAG_variable, DW_AT_name("xQueue")
    4745                      .dwattr $C$DW$438, DW_AT_TI_symbol_name("_xQueue")
    4746                      .dwattr $C$DW$438, DW_AT_type(*$C$DW$T$55)
    4747                      .dwattr $C$DW$438, DW_AT_location[DW_OP_bregx 0x24 0]
    4748              $C$DW$439       .dwtag  DW_TAG_variable, DW_AT_name("uxReturn")
    4749                      .dwattr $C$DW$439, DW_AT_TI_symbol_name("_uxReturn")
    4750                      .dwattr $C$DW$439, DW_AT_type(*$C$DW$T$32)
    4751                      .dwattr $C$DW$439, DW_AT_location[DW_OP_bregx 0x24 2]
    4752 000cfa EB00          MOV XAR0, dbl(*SP(#0))
         000cfc 85   
    4753                      .dwpsn  file "../FreeRTOS/Source/queue.c",line 1930,column 2,is_stmt
    4754 000cfd ED00          MOV dbl(*SP(#0)), XAR3
         000cff BF   
TMS320C55x Assembler PC v4.4.1 Tue Sep 18 04:49:51 2018

Tools Copyright (c) 1996-2012 Texas Instruments Incorporated
queue.asm                                                            PAGE  101

    4755 000d00 90B0          MOV XAR3, AC0
    4756 000d02 6290          BCC $C$L184,AC0 != #0 ; |1930| 
    4757                                                      ; branchcc occurs ; |1930| 
    4758 000d04 20     nop
    4759 000d05 46B3   bset INTM
    4760 000d07       $C$L183:    
    4761 000d07       $C$DW$L$_uxQueueMessagesWaiting$3$B:
    4762 000d07 4A7E          B $C$L183 ; |1930| 
    4763                                                      ; branch occurs ; |1930| 
    4764 000d09       $C$DW$L$_uxQueueMessagesWaiting$3$E:
    4765 000d09       $C$L184:    
    4766                      .dwpsn  file "../FreeRTOS/Source/queue.c",line 1932,column 2,is_stmt
    4767 000d09 20     nop
    4768 000d0a 46B3   bset INTM
    4769 000d0c F731          ADD #1, *(#_usCriticalNesting) ; |1932| 
         000d0e 0001 
         000d10 0000 
         000d12 00!  
    4770 000d13 20            NOP
    4771 000d14 20            NOP
    4772 000d15 20            NOP
    4773                      .dwpsn  file "../FreeRTOS/Source/queue.c",line 1934,column 3,is_stmt
    4774 000d16 A96D          MOV *AR3(#28), AR1 ; |1934| 
         000d18 001C 
    4775 000d1a C904          MOV AR1, *SP(#2) ; |1934| 
    4776                      .dwpsn  file "../FreeRTOS/Source/queue.c",line 1936,column 2,is_stmt
    4777 000d1c A931          MOV *(#_usCriticalNesting), AR1 ; |1936| 
         000d1e 0000 
         000d20 00!  
    4778 000d21 0409          BCC $C$L185,AR1 == #0 ; |1936| 
         000d23 14   
    4779                                                      ; branchcc occurs ; |1936| 
    4780 000d24 F731          SUB #1, *(#_usCriticalNesting) ; |1936| 
         000d26 FFFF 
         000d28 0000 
         000d2a 00!  
    4781 000d2b 20            NOP
    4782 000d2c 20            NOP
    4783 000d2d 20            NOP
    4784 000d2e A931          MOV *(#_usCriticalNesting), AR1 ; |1936| 
         000d30 0000 
         000d32 00!  
    4785 000d33 6199          BCC $C$L185,AR1 != #0 ; |1936| 
    4786                                                      ; branchcc occurs ; |1936| 
    4787 000d35 20     nop
    4788 000d36 46B2   bclr INTM
    4789 000d38       $C$L185:    
    4790                      .dwpsn  file "../FreeRTOS/Source/queue.c",line 1938,column 2,is_stmt
    4791 000d38 A404          MOV *SP(#2), T0 ; |1938| 
    4792                      .dwpsn  file "../FreeRTOS/Source/queue.c",line 1939,column 1,is_stmt
    4793 000d3a 4E03          AADD #3, SP
    4794                      .dwcfi  cfa_offset, 1
    4795              $C$DW$440       .dwtag  DW_TAG_TI_branch
    4796                      .dwattr $C$DW$440, DW_AT_low_pc(0x00)
    4797                      .dwattr $C$DW$440, DW_AT_TI_return
TMS320C55x Assembler PC v4.4.1 Tue Sep 18 04:49:51 2018

Tools Copyright (c) 1996-2012 Texas Instruments Incorporated
queue.asm                                                            PAGE  102

    4798 000d3c 4804          RET
    4799                                                      ; return occurs
    4800              
    4801              $C$DW$441       .dwtag  DW_TAG_TI_loop
    4802                      .dwattr $C$DW$441, DW_AT_name("F:\eZdsp_DBG\eZDSP_5535_Files\ccsws2\test\Debug\queue.asm:$C$L183:1:15
    4803                      .dwattr $C$DW$441, DW_AT_TI_begin_file("../FreeRTOS/Source/queue.c")
    4804                      .dwattr $C$DW$441, DW_AT_TI_begin_line(0x78a)
    4805                      .dwattr $C$DW$441, DW_AT_TI_end_line(0x78a)
    4806              $C$DW$442       .dwtag  DW_TAG_TI_loop_range
    4807                      .dwattr $C$DW$442, DW_AT_low_pc($C$DW$L$_uxQueueMessagesWaiting$3$B)
    4808                      .dwattr $C$DW$442, DW_AT_high_pc($C$DW$L$_uxQueueMessagesWaiting$3$E)
    4809                      .dwendtag $C$DW$441
    4810              
    4811                      .dwattr $C$DW$436, DW_AT_TI_end_file("../FreeRTOS/Source/queue.c")
    4812                      .dwattr $C$DW$436, DW_AT_TI_end_line(0x793)
    4813                      .dwattr $C$DW$436, DW_AT_TI_end_column(0x01)
    4814                      .dwendentry
    4815                      .dwendtag $C$DW$436
    4816              
    4817 000d3e               .sect   ".text"
    4818                      .align 4
    4819                      .global _uxQueueSpacesAvailable
    4820              
    4821              $C$DW$443       .dwtag  DW_TAG_subprogram, DW_AT_name("uxQueueSpacesAvailable")
    4822                      .dwattr $C$DW$443, DW_AT_low_pc(_uxQueueSpacesAvailable)
    4823                      .dwattr $C$DW$443, DW_AT_high_pc(0x00)
    4824                      .dwattr $C$DW$443, DW_AT_TI_symbol_name("_uxQueueSpacesAvailable")
    4825                      .dwattr $C$DW$443, DW_AT_external
    4826                      .dwattr $C$DW$443, DW_AT_type(*$C$DW$T$32)
    4827                      .dwattr $C$DW$443, DW_AT_TI_begin_file("../FreeRTOS/Source/queue.c")
    4828                      .dwattr $C$DW$443, DW_AT_TI_begin_line(0x796)
    4829                      .dwattr $C$DW$443, DW_AT_TI_begin_column(0x0d)
    4830                      .dwattr $C$DW$443, DW_AT_TI_max_frame_size(0x08)
    4831                      .dwpsn  file "../FreeRTOS/Source/queue.c",line 1943,column 1,is_stmt,address _uxQueueSpacesAvailable
    4832              
    4833                      .dwfde $C$DW$CIE, _uxQueueSpacesAvailable
    4834              $C$DW$444       .dwtag  DW_TAG_formal_parameter, DW_AT_name("xQueue")
    4835                      .dwattr $C$DW$444, DW_AT_TI_symbol_name("_xQueue")
    4836                      .dwattr $C$DW$444, DW_AT_type(*$C$DW$T$55)
    4837                      .dwattr $C$DW$444, DW_AT_location[DW_OP_reg17]
    4838              ;*******************************************************************************
    4839              ;* FUNCTION NAME: uxQueueSpacesAvailable                                       *
    4840              ;*                                                                             *
    4841              ;*   Function Uses Regs : AC0,AC0,T0,AR0,XAR0,AR1,AR2,XAR2,AR3,XAR3,SP,CARRY,  *
    4842              ;*                        M40,SATA,SATD,RDM,FRCT,SMUL                          *
    4843              ;*   Stack Frame        : Compact (No Frame Pointer, w/ debug)                 *
    4844              ;*   Total Frame Size   : 8 words                                              *
    4845              ;*                        (2 return address/alignment)                         *
    4846              ;*                        (6 local values)                                     *
    4847              ;*   Min System Stack   : 1 word                                               *
    4848              ;*******************************************************************************
    4849 000d40       _uxQueueSpacesAvailable:
    4850                      .dwcfi  cfa_offset, 1
    4851                      .dwcfi  save_reg_to_mem, 91, -1
    4852 000d40 4EF9          AADD #-7, SP
TMS320C55x Assembler PC v4.4.1 Tue Sep 18 04:49:51 2018

Tools Copyright (c) 1996-2012 Texas Instruments Incorporated
queue.asm                                                            PAGE  103

    4853                      .dwcfi  cfa_offset, 8
    4854              $C$DW$445       .dwtag  DW_TAG_variable, DW_AT_name("xQueue")
    4855                      .dwattr $C$DW$445, DW_AT_TI_symbol_name("_xQueue")
    4856                      .dwattr $C$DW$445, DW_AT_type(*$C$DW$T$55)
    4857                      .dwattr $C$DW$445, DW_AT_location[DW_OP_bregx 0x24 0]
    4858              $C$DW$446       .dwtag  DW_TAG_variable, DW_AT_name("uxReturn")
    4859                      .dwattr $C$DW$446, DW_AT_TI_symbol_name("_uxReturn")
    4860                      .dwattr $C$DW$446, DW_AT_type(*$C$DW$T$32)
    4861                      .dwattr $C$DW$446, DW_AT_location[DW_OP_bregx 0x24 2]
    4862              $C$DW$447       .dwtag  DW_TAG_variable, DW_AT_name("pxQueue")
    4863                      .dwattr $C$DW$447, DW_AT_TI_symbol_name("_pxQueue")
    4864                      .dwattr $C$DW$447, DW_AT_type(*$C$DW$T$69)
    4865                      .dwattr $C$DW$447, DW_AT_location[DW_OP_bregx 0x24 4]
    4866 000d42 EB00          MOV XAR0, dbl(*SP(#0))
         000d44 85   
    4867                      .dwpsn  file "../FreeRTOS/Source/queue.c",line 1945,column 17,is_stmt
    4868 000d45 ED00          MOV dbl(*SP(#0)), XAR3
         000d47 BF   
    4869 000d48 EB08          MOV XAR3, dbl(*SP(#4))
         000d4a B5   
    4870                      .dwpsn  file "../FreeRTOS/Source/queue.c",line 1947,column 2,is_stmt
    4871 000d4b 90B0          MOV XAR3, AC0
    4872 000d4d 6290          BCC $C$L187,AC0 != #0 ; |1947| 
    4873                                                      ; branchcc occurs ; |1947| 
    4874 000d4f 20     nop
    4875 000d50 46B3   bset INTM
    4876 000d52       $C$L186:    
    4877 000d52       $C$DW$L$_uxQueueSpacesAvailable$3$B:
    4878 000d52 4A7E          B $C$L186 ; |1947| 
    4879                                                      ; branch occurs ; |1947| 
    4880 000d54       $C$DW$L$_uxQueueSpacesAvailable$3$E:
    4881 000d54       $C$L187:    
    4882                      .dwpsn  file "../FreeRTOS/Source/queue.c",line 1949,column 2,is_stmt
    4883 000d54 20     nop
    4884 000d55 46B3   bset INTM
    4885 000d57 F731          ADD #1, *(#_usCriticalNesting) ; |1949| 
         000d59 0001 
         000d5b 0000 
         000d5d 00!  
    4886 000d5e 20            NOP
    4887                      .dwpsn  file "../FreeRTOS/Source/queue.c",line 1951,column 3,is_stmt
    4888 000d5f ED08          MOV dbl(*SP(#4)), XAR2
         000d61 AF   
    4889 000d62 A04D          MOV *AR2(#29), AC0 ; |1951| 
         000d64 001D 
    4890 000d66 DF6D          SUB uns(*AR3(#28)), AC0, AC0 ; |1951| 
         000d68 0F00 
         000d6a 1C   
    4891 000d6b C004          MOV AC0, *SP(#2) ; |1951| 
    4892                      .dwpsn  file "../FreeRTOS/Source/queue.c",line 1953,column 2,is_stmt
    4893 000d6d A931          MOV *(#_usCriticalNesting), AR1 ; |1953| 
         000d6f 0000 
         000d71 00!  
    4894 000d72 0409          BCC $C$L188,AR1 == #0 ; |1953| 
         000d74 14   
TMS320C55x Assembler PC v4.4.1 Tue Sep 18 04:49:51 2018

Tools Copyright (c) 1996-2012 Texas Instruments Incorporated
queue.asm                                                            PAGE  104

    4895                                                      ; branchcc occurs ; |1953| 
    4896 000d75 F731          SUB #1, *(#_usCriticalNesting) ; |1953| 
         000d77 FFFF 
         000d79 0000 
         000d7b 00!  
    4897 000d7c 20            NOP
    4898 000d7d 20            NOP
    4899 000d7e 20            NOP
    4900 000d7f A931          MOV *(#_usCriticalNesting), AR1 ; |1953| 
         000d81 0000 
         000d83 00!  
    4901 000d84 6199          BCC $C$L188,AR1 != #0 ; |1953| 
    4902                                                      ; branchcc occurs ; |1953| 
    4903 000d86 20     nop
    4904 000d87 46B2   bclr INTM
    4905 000d89       $C$L188:    
    4906                      .dwpsn  file "../FreeRTOS/Source/queue.c",line 1955,column 2,is_stmt
    4907 000d89 2204          MOV AC0, T0
    4908                      .dwpsn  file "../FreeRTOS/Source/queue.c",line 1956,column 1,is_stmt
    4909 000d8b 4E07          AADD #7, SP
    4910                      .dwcfi  cfa_offset, 1
    4911              $C$DW$448       .dwtag  DW_TAG_TI_branch
    4912                      .dwattr $C$DW$448, DW_AT_low_pc(0x00)
    4913                      .dwattr $C$DW$448, DW_AT_TI_return
    4914 000d8d 4804          RET
    4915                                                      ; return occurs
    4916              
    4917              $C$DW$449       .dwtag  DW_TAG_TI_loop
    4918                      .dwattr $C$DW$449, DW_AT_name("F:\eZdsp_DBG\eZDSP_5535_Files\ccsws2\test\Debug\queue.asm:$C$L186:1:15
    4919                      .dwattr $C$DW$449, DW_AT_TI_begin_file("../FreeRTOS/Source/queue.c")
    4920                      .dwattr $C$DW$449, DW_AT_TI_begin_line(0x79b)
    4921                      .dwattr $C$DW$449, DW_AT_TI_end_line(0x79b)
    4922              $C$DW$450       .dwtag  DW_TAG_TI_loop_range
    4923                      .dwattr $C$DW$450, DW_AT_low_pc($C$DW$L$_uxQueueSpacesAvailable$3$B)
    4924                      .dwattr $C$DW$450, DW_AT_high_pc($C$DW$L$_uxQueueSpacesAvailable$3$E)
    4925                      .dwendtag $C$DW$449
    4926              
    4927                      .dwattr $C$DW$443, DW_AT_TI_end_file("../FreeRTOS/Source/queue.c")
    4928                      .dwattr $C$DW$443, DW_AT_TI_end_line(0x7a4)
    4929                      .dwattr $C$DW$443, DW_AT_TI_end_column(0x01)
    4930                      .dwendentry
    4931                      .dwendtag $C$DW$443
    4932              
    4933 000d8f               .sect   ".text"
    4934                      .align 4
    4935                      .global _uxQueueMessagesWaitingFromISR
    4936              
    4937              $C$DW$451       .dwtag  DW_TAG_subprogram, DW_AT_name("uxQueueMessagesWaitingFromISR")
    4938                      .dwattr $C$DW$451, DW_AT_low_pc(_uxQueueMessagesWaitingFromISR)
    4939                      .dwattr $C$DW$451, DW_AT_high_pc(0x00)
    4940                      .dwattr $C$DW$451, DW_AT_TI_symbol_name("_uxQueueMessagesWaitingFromISR")
    4941                      .dwattr $C$DW$451, DW_AT_external
    4942                      .dwattr $C$DW$451, DW_AT_type(*$C$DW$T$32)
    4943                      .dwattr $C$DW$451, DW_AT_TI_begin_file("../FreeRTOS/Source/queue.c")
    4944                      .dwattr $C$DW$451, DW_AT_TI_begin_line(0x7a7)
TMS320C55x Assembler PC v4.4.1 Tue Sep 18 04:49:51 2018

Tools Copyright (c) 1996-2012 Texas Instruments Incorporated
queue.asm                                                            PAGE  105

    4945                      .dwattr $C$DW$451, DW_AT_TI_begin_column(0x0d)
    4946                      .dwattr $C$DW$451, DW_AT_TI_max_frame_size(0x08)
    4947                      .dwpsn  file "../FreeRTOS/Source/queue.c",line 1960,column 1,is_stmt,address _uxQueueMessagesWaitingF
    4948              
    4949                      .dwfde $C$DW$CIE, _uxQueueMessagesWaitingFromISR
    4950              $C$DW$452       .dwtag  DW_TAG_formal_parameter, DW_AT_name("xQueue")
    4951                      .dwattr $C$DW$452, DW_AT_TI_symbol_name("_xQueue")
    4952                      .dwattr $C$DW$452, DW_AT_type(*$C$DW$T$55)
    4953                      .dwattr $C$DW$452, DW_AT_location[DW_OP_reg17]
    4954              ;*******************************************************************************
    4955              ;* FUNCTION NAME: uxQueueMessagesWaitingFromISR                                *
    4956              ;*                                                                             *
    4957              ;*   Function Uses Regs : AC0,AC0,T0,AR0,XAR0,AR1,AR3,XAR3,SP,M40,SATA,SATD,   *
    4958              ;*                        RDM,FRCT,SMUL                                        *
    4959              ;*   Stack Frame        : Compact (No Frame Pointer, w/ debug)                 *
    4960              ;*   Total Frame Size   : 8 words                                              *
    4961              ;*                        (2 return address/alignment)                         *
    4962              ;*                        (6 local values)                                     *
    4963              ;*   Min System Stack   : 1 word                                               *
    4964              ;*******************************************************************************
    4965 000d90       _uxQueueMessagesWaitingFromISR:
    4966                      .dwcfi  cfa_offset, 1
    4967                      .dwcfi  save_reg_to_mem, 91, -1
    4968 000d90 4EF9          AADD #-7, SP
    4969                      .dwcfi  cfa_offset, 8
    4970              $C$DW$453       .dwtag  DW_TAG_variable, DW_AT_name("xQueue")
    4971                      .dwattr $C$DW$453, DW_AT_TI_symbol_name("_xQueue")
    4972                      .dwattr $C$DW$453, DW_AT_type(*$C$DW$T$55)
    4973                      .dwattr $C$DW$453, DW_AT_location[DW_OP_bregx 0x24 0]
    4974              $C$DW$454       .dwtag  DW_TAG_variable, DW_AT_name("uxReturn")
    4975                      .dwattr $C$DW$454, DW_AT_TI_symbol_name("_uxReturn")
    4976                      .dwattr $C$DW$454, DW_AT_type(*$C$DW$T$32)
    4977                      .dwattr $C$DW$454, DW_AT_location[DW_OP_bregx 0x24 2]
    4978              $C$DW$455       .dwtag  DW_TAG_variable, DW_AT_name("pxQueue")
    4979                      .dwattr $C$DW$455, DW_AT_TI_symbol_name("_pxQueue")
    4980                      .dwattr $C$DW$455, DW_AT_type(*$C$DW$T$69)
    4981                      .dwattr $C$DW$455, DW_AT_location[DW_OP_bregx 0x24 4]
    4982 000d92 EB00          MOV XAR0, dbl(*SP(#0))
         000d94 85   
    4983                      .dwpsn  file "../FreeRTOS/Source/queue.c",line 1962,column 17,is_stmt
    4984 000d95 ED00          MOV dbl(*SP(#0)), XAR3
         000d97 BF   
    4985 000d98 EB08          MOV XAR3, dbl(*SP(#4))
         000d9a B5   
    4986                      .dwpsn  file "../FreeRTOS/Source/queue.c",line 1964,column 2,is_stmt
    4987 000d9b 90B0          MOV XAR3, AC0
    4988 000d9d 6290          BCC $C$L190,AC0 != #0 ; |1964| 
    4989                                                      ; branchcc occurs ; |1964| 
    4990 000d9f 20     nop
    4991 000da0 46B3   bset INTM
    4992 000da2       $C$L189:    
    4993 000da2       $C$DW$L$_uxQueueMessagesWaitingFromISR$3$B:
    4994 000da2 4A7E          B $C$L189 ; |1964| 
    4995                                                      ; branch occurs ; |1964| 
    4996 000da4       $C$DW$L$_uxQueueMessagesWaitingFromISR$3$E:
TMS320C55x Assembler PC v4.4.1 Tue Sep 18 04:49:51 2018

Tools Copyright (c) 1996-2012 Texas Instruments Incorporated
queue.asm                                                            PAGE  106

    4997 000da4       $C$L190:    
    4998                      .dwpsn  file "../FreeRTOS/Source/queue.c",line 1965,column 2,is_stmt
    4999 000da4 A96D          MOV *AR3(#28), AR1 ; |1965| 
         000da6 001C 
    5000 000da8 C904          MOV AR1, *SP(#2) ; |1965| 
    5001                      .dwpsn  file "../FreeRTOS/Source/queue.c",line 1967,column 2,is_stmt
    5002 000daa 2294          MOV AR1, T0
    5003                      .dwpsn  file "../FreeRTOS/Source/queue.c",line 1968,column 1,is_stmt
    5004 000dac 4E07          AADD #7, SP
    5005                      .dwcfi  cfa_offset, 1
    5006              $C$DW$456       .dwtag  DW_TAG_TI_branch
    5007                      .dwattr $C$DW$456, DW_AT_low_pc(0x00)
    5008                      .dwattr $C$DW$456, DW_AT_TI_return
    5009 000dae 4804          RET
    5010                                                      ; return occurs
    5011              
    5012              $C$DW$457       .dwtag  DW_TAG_TI_loop
    5013                      .dwattr $C$DW$457, DW_AT_name("F:\eZdsp_DBG\eZDSP_5535_Files\ccsws2\test\Debug\queue.asm:$C$L189:1:15
    5014                      .dwattr $C$DW$457, DW_AT_TI_begin_file("../FreeRTOS/Source/queue.c")
    5015                      .dwattr $C$DW$457, DW_AT_TI_begin_line(0x7ac)
    5016                      .dwattr $C$DW$457, DW_AT_TI_end_line(0x7ac)
    5017              $C$DW$458       .dwtag  DW_TAG_TI_loop_range
    5018                      .dwattr $C$DW$458, DW_AT_low_pc($C$DW$L$_uxQueueMessagesWaitingFromISR$3$B)
    5019                      .dwattr $C$DW$458, DW_AT_high_pc($C$DW$L$_uxQueueMessagesWaitingFromISR$3$E)
    5020                      .dwendtag $C$DW$457
    5021              
    5022                      .dwattr $C$DW$451, DW_AT_TI_end_file("../FreeRTOS/Source/queue.c")
    5023                      .dwattr $C$DW$451, DW_AT_TI_end_line(0x7b0)
    5024                      .dwattr $C$DW$451, DW_AT_TI_end_column(0x01)
    5025                      .dwendentry
    5026                      .dwendtag $C$DW$451
    5027              
    5028 000db0               .sect   ".text"
    5029                      .align 4
    5030                      .global _vQueueDelete
    5031              
    5032              $C$DW$459       .dwtag  DW_TAG_subprogram, DW_AT_name("vQueueDelete")
    5033                      .dwattr $C$DW$459, DW_AT_low_pc(_vQueueDelete)
    5034                      .dwattr $C$DW$459, DW_AT_high_pc(0x00)
    5035                      .dwattr $C$DW$459, DW_AT_TI_symbol_name("_vQueueDelete")
    5036                      .dwattr $C$DW$459, DW_AT_external
    5037                      .dwattr $C$DW$459, DW_AT_TI_begin_file("../FreeRTOS/Source/queue.c")
    5038                      .dwattr $C$DW$459, DW_AT_TI_begin_line(0x7b3)
    5039                      .dwattr $C$DW$459, DW_AT_TI_begin_column(0x06)
    5040                      .dwattr $C$DW$459, DW_AT_TI_max_frame_size(0x06)
    5041                      .dwpsn  file "../FreeRTOS/Source/queue.c",line 1972,column 1,is_stmt,address _vQueueDelete
    5042              
    5043                      .dwfde $C$DW$CIE, _vQueueDelete
    5044              $C$DW$460       .dwtag  DW_TAG_formal_parameter, DW_AT_name("xQueue")
    5045                      .dwattr $C$DW$460, DW_AT_TI_symbol_name("_xQueue")
    5046                      .dwattr $C$DW$460, DW_AT_type(*$C$DW$T$27)
    5047                      .dwattr $C$DW$460, DW_AT_location[DW_OP_reg17]
    5048              ;*******************************************************************************
    5049              ;* FUNCTION NAME: vQueueDelete                                                 *
    5050              ;*                                                                             *
TMS320C55x Assembler PC v4.4.1 Tue Sep 18 04:49:51 2018

Tools Copyright (c) 1996-2012 Texas Instruments Incorporated
queue.asm                                                            PAGE  107

    5051              ;*   Function Uses Regs : AC0,AC0,AR0,XAR0,AR3,XAR3,SP,M40,SATA,SATD,RDM,FRCT, *
    5052              ;*                        SMUL                                                 *
    5053              ;*   Stack Frame        : Compact (No Frame Pointer, w/ debug)                 *
    5054              ;*   Total Frame Size   : 6 words                                              *
    5055              ;*                        (2 return address/alignment)                         *
    5056              ;*                        (4 local values)                                     *
    5057              ;*   Min System Stack   : 1 word                                               *
    5058              ;*******************************************************************************
    5059 000db0       _vQueueDelete:
    5060                      .dwcfi  cfa_offset, 1
    5061                      .dwcfi  save_reg_to_mem, 91, -1
    5062 000db0 4EFB          AADD #-5, SP
    5063                      .dwcfi  cfa_offset, 6
    5064              $C$DW$461       .dwtag  DW_TAG_variable, DW_AT_name("xQueue")
    5065                      .dwattr $C$DW$461, DW_AT_TI_symbol_name("_xQueue")
    5066                      .dwattr $C$DW$461, DW_AT_type(*$C$DW$T$27)
    5067                      .dwattr $C$DW$461, DW_AT_location[DW_OP_bregx 0x24 0]
    5068              $C$DW$462       .dwtag  DW_TAG_variable, DW_AT_name("pxQueue")
    5069                      .dwattr $C$DW$462, DW_AT_TI_symbol_name("_pxQueue")
    5070                      .dwattr $C$DW$462, DW_AT_type(*$C$DW$T$69)
    5071                      .dwattr $C$DW$462, DW_AT_location[DW_OP_bregx 0x24 2]
    5072 000db2 EB00          MOV XAR0, dbl(*SP(#0))
         000db4 85   
    5073                      .dwpsn  file "../FreeRTOS/Source/queue.c",line 1973,column 17,is_stmt
    5074 000db5 ED00          MOV dbl(*SP(#0)), XAR3
         000db7 BF   
    5075 000db8 EB04          MOV XAR3, dbl(*SP(#2))
         000dba B5   
    5076                      .dwpsn  file "../FreeRTOS/Source/queue.c",line 1975,column 2,is_stmt
    5077 000dbb 90B0          MOV XAR3, AC0
    5078 000dbd 6290          BCC $C$L192,AC0 != #0 ; |1975| 
    5079                                                      ; branchcc occurs ; |1975| 
    5080 000dbf 20     nop
    5081 000dc0 46B3   bset INTM
    5082 000dc2       $C$L191:    
    5083 000dc2       $C$DW$L$_vQueueDelete$3$B:
    5084 000dc2 4A7E          B $C$L191 ; |1975| 
    5085                                                      ; branch occurs ; |1975| 
    5086 000dc4       $C$DW$L$_vQueueDelete$3$E:
    5087 000dc4       $C$L192:    
    5088                      .dwpsn  file "../FreeRTOS/Source/queue.c",line 1980,column 3,is_stmt
    5089              $C$DW$463       .dwtag  DW_TAG_TI_branch
    5090                      .dwattr $C$DW$463, DW_AT_low_pc(0x00)
    5091                      .dwattr $C$DW$463, DW_AT_name("_vQueueUnregisterQueue")
    5092                      .dwattr $C$DW$463, DW_AT_TI_call
    5093 000dc4 0804          CALL #_vQueueUnregisterQueue ; |1980| 
         000dc6 09   
    5094                                                      ; call occurs [#_vQueueUnregisterQueue] ; |1980| 
    5095                      .dwpsn  file "../FreeRTOS/Source/queue.c",line 1988,column 3,is_stmt
    5096 000dc7 ED04          MOV dbl(*SP(#2)), XAR0
         000dc9 8F   
    5097              $C$DW$464       .dwtag  DW_TAG_TI_branch
    5098                      .dwattr $C$DW$464, DW_AT_low_pc(0x00)
    5099                      .dwattr $C$DW$464, DW_AT_name("_vPortFree")
    5100                      .dwattr $C$DW$464, DW_AT_TI_call
TMS320C55x Assembler PC v4.4.1 Tue Sep 18 04:49:51 2018

Tools Copyright (c) 1996-2012 Texas Instruments Incorporated
queue.asm                                                            PAGE  108

    5101 000dca 6C00          CALL #_vPortFree ; |1988| 
         000dcc 0000!
    5102                                                      ; call occurs [#_vPortFree] ; |1988| 
    5103                      .dwpsn  file "../FreeRTOS/Source/queue.c",line 2010,column 1,is_stmt
    5104 000dce 4E05          AADD #5, SP
    5105                      .dwcfi  cfa_offset, 1
    5106              $C$DW$465       .dwtag  DW_TAG_TI_branch
    5107                      .dwattr $C$DW$465, DW_AT_low_pc(0x00)
    5108                      .dwattr $C$DW$465, DW_AT_TI_return
    5109 000dd0 4804          RET
    5110                                                      ; return occurs
    5111              
    5112              $C$DW$466       .dwtag  DW_TAG_TI_loop
    5113                      .dwattr $C$DW$466, DW_AT_name("F:\eZdsp_DBG\eZDSP_5535_Files\ccsws2\test\Debug\queue.asm:$C$L191:1:15
    5114                      .dwattr $C$DW$466, DW_AT_TI_begin_file("../FreeRTOS/Source/queue.c")
    5115                      .dwattr $C$DW$466, DW_AT_TI_begin_line(0x7b7)
    5116                      .dwattr $C$DW$466, DW_AT_TI_end_line(0x7b7)
    5117              $C$DW$467       .dwtag  DW_TAG_TI_loop_range
    5118                      .dwattr $C$DW$467, DW_AT_low_pc($C$DW$L$_vQueueDelete$3$B)
    5119                      .dwattr $C$DW$467, DW_AT_high_pc($C$DW$L$_vQueueDelete$3$E)
    5120                      .dwendtag $C$DW$466
    5121              
    5122                      .dwattr $C$DW$459, DW_AT_TI_end_file("../FreeRTOS/Source/queue.c")
    5123                      .dwattr $C$DW$459, DW_AT_TI_end_line(0x7da)
    5124                      .dwattr $C$DW$459, DW_AT_TI_end_column(0x01)
    5125                      .dwendentry
    5126                      .dwendtag $C$DW$459
    5127              
    5128 000dd2               .sect   ".text"
    5129                      .align 4
    5130              
    5131              $C$DW$468       .dwtag  DW_TAG_subprogram, DW_AT_name("prvGetDisinheritPriorityAfterTimeout")
    5132                      .dwattr $C$DW$468, DW_AT_low_pc(_prvGetDisinheritPriorityAfterTimeout)
    5133                      .dwattr $C$DW$468, DW_AT_high_pc(0x00)
    5134                      .dwattr $C$DW$468, DW_AT_TI_symbol_name("_prvGetDisinheritPriorityAfterTimeout")
    5135                      .dwattr $C$DW$468, DW_AT_type(*$C$DW$T$32)
    5136                      .dwattr $C$DW$468, DW_AT_TI_begin_file("../FreeRTOS/Source/queue.c")
    5137                      .dwattr $C$DW$468, DW_AT_TI_begin_line(0x7fd)
    5138                      .dwattr $C$DW$468, DW_AT_TI_begin_column(0x15)
    5139                      .dwattr $C$DW$468, DW_AT_TI_max_frame_size(0x04)
    5140                      .dwpsn  file "../FreeRTOS/Source/queue.c",line 2046,column 2,is_stmt,address _prvGetDisinheritPriorit
    5141              
    5142                      .dwfde $C$DW$CIE, _prvGetDisinheritPriorityAfterTimeout
    5143              $C$DW$469       .dwtag  DW_TAG_formal_parameter, DW_AT_name("pxQueue")
    5144                      .dwattr $C$DW$469, DW_AT_TI_symbol_name("_pxQueue")
    5145                      .dwattr $C$DW$469, DW_AT_type(*$C$DW$T$67)
    5146                      .dwattr $C$DW$469, DW_AT_location[DW_OP_reg17]
    5147              ;*******************************************************************************
    5148              ;* FUNCTION NAME: prvGetDisinheritPriorityAfterTimeout                         *
    5149              ;*                                                                             *
    5150              ;*   Function Uses Regs : AC0,T0,AR0,XAR0,AR1,AR3,XAR3,SP,CARRY,M40,SATA,SATD, *
    5151              ;*                        RDM,FRCT,SMUL                                        *
    5152              ;*   Stack Frame        : Compact (No Frame Pointer, w/ debug)                 *
    5153              ;*   Total Frame Size   : 4 words                                              *
    5154              ;*                        (1 return address/alignment)                         *
TMS320C55x Assembler PC v4.4.1 Tue Sep 18 04:49:51 2018

Tools Copyright (c) 1996-2012 Texas Instruments Incorporated
queue.asm                                                            PAGE  109

    5155              ;*                        (3 local values)                                     *
    5156              ;*   Min System Stack   : 1 word                                               *
    5157              ;*******************************************************************************
    5158 000dd4       _prvGetDisinheritPriorityAfterTimeout:
    5159                      .dwcfi  cfa_offset, 1
    5160                      .dwcfi  save_reg_to_mem, 91, -1
    5161 000dd4 4EFD          AADD #-3, SP
    5162                      .dwcfi  cfa_offset, 4
    5163              $C$DW$470       .dwtag  DW_TAG_variable, DW_AT_name("pxQueue")
    5164                      .dwattr $C$DW$470, DW_AT_TI_symbol_name("_pxQueue")
    5165                      .dwattr $C$DW$470, DW_AT_type(*$C$DW$T$67)
    5166                      .dwattr $C$DW$470, DW_AT_location[DW_OP_bregx 0x24 0]
    5167              $C$DW$471       .dwtag  DW_TAG_variable, DW_AT_name("uxHighestPriorityOfWaitingTasks")
    5168                      .dwattr $C$DW$471, DW_AT_TI_symbol_name("_uxHighestPriorityOfWaitingTasks")
    5169                      .dwattr $C$DW$471, DW_AT_type(*$C$DW$T$32)
    5170                      .dwattr $C$DW$471, DW_AT_location[DW_OP_bregx 0x24 2]
    5171 000dd6 EB00          MOV XAR0, dbl(*SP(#0))
         000dd8 85   
    5172                      .dwpsn  file "../FreeRTOS/Source/queue.c",line 2055,column 3,is_stmt
    5173 000dd9 ED00          MOV dbl(*SP(#0)), XAR3
         000ddb BF   
    5174 000ddc A96D          MOV *AR3(#18), AR1 ; |2055| 
         000dde 0012 
    5175 000de0 6709          BCC $C$L193,AR1 == #0 ; |2055| 
    5176                                                      ; branchcc occurs ; |2055| 
    5177                      .dwpsn  file "../FreeRTOS/Source/queue.c",line 2057,column 4,is_stmt
    5178 000de2 ED6D          MOV dbl(*AR3(#24)), XAR3
         000de4 BF00 
         000de6 18   
    5179 000de7 3C50          MOV #5, AC0
    5180 000de9 DF73          SUB uns(*AR3(short(#1))), AC0, AC0 ; |2057| 
         000deb 0F   
    5181 000dec C004          MOV AC0, *SP(#2) ; |2057| 
    5182                      .dwpsn  file "../FreeRTOS/Source/queue.c",line 2058,column 3,is_stmt
    5183 000dee 4A03          B $C$L194 ; |2058| 
    5184                                                      ; branch occurs ; |2058| 
    5185 000df0       $C$L193:    
    5186                      .dwpsn  file "../FreeRTOS/Source/queue.c",line 2061,column 4,is_stmt
    5187 000df0 E604          MOV #0, *SP(#2) ; |2061| 
         000df2 00   
    5188 000df3       $C$L194:    
    5189                      .dwpsn  file "../FreeRTOS/Source/queue.c",line 2064,column 3,is_stmt
    5190 000df3 A404          MOV *SP(#2), T0 ; |2064| 
    5191                      .dwpsn  file "../FreeRTOS/Source/queue.c",line 2065,column 2,is_stmt
    5192 000df5 4E03          AADD #3, SP
    5193                      .dwcfi  cfa_offset, 1
    5194              $C$DW$472       .dwtag  DW_TAG_TI_branch
    5195                      .dwattr $C$DW$472, DW_AT_low_pc(0x00)
    5196                      .dwattr $C$DW$472, DW_AT_TI_return
    5197 000df7 4804          RET
    5198                                                      ; return occurs
    5199                      .dwattr $C$DW$468, DW_AT_TI_end_file("../FreeRTOS/Source/queue.c")
    5200                      .dwattr $C$DW$468, DW_AT_TI_end_line(0x811)
    5201                      .dwattr $C$DW$468, DW_AT_TI_end_column(0x02)
    5202                      .dwendentry
TMS320C55x Assembler PC v4.4.1 Tue Sep 18 04:49:51 2018

Tools Copyright (c) 1996-2012 Texas Instruments Incorporated
queue.asm                                                            PAGE  110

    5203                      .dwendtag $C$DW$468
    5204              
    5205 000df9               .sect   ".text"
    5206                      .align 4
    5207              
    5208              $C$DW$473       .dwtag  DW_TAG_subprogram, DW_AT_name("prvCopyDataToQueue")
    5209                      .dwattr $C$DW$473, DW_AT_low_pc(_prvCopyDataToQueue)
    5210                      .dwattr $C$DW$473, DW_AT_high_pc(0x00)
    5211                      .dwattr $C$DW$473, DW_AT_TI_symbol_name("_prvCopyDataToQueue")
    5212                      .dwattr $C$DW$473, DW_AT_type(*$C$DW$T$49)
    5213                      .dwattr $C$DW$473, DW_AT_TI_begin_file("../FreeRTOS/Source/queue.c")
    5214                      .dwattr $C$DW$473, DW_AT_TI_begin_line(0x816)
    5215                      .dwattr $C$DW$473, DW_AT_TI_begin_column(0x13)
    5216                      .dwattr $C$DW$473, DW_AT_TI_max_frame_size(0x08)
    5217                      .dwpsn  file "../FreeRTOS/Source/queue.c",line 2071,column 1,is_stmt,address _prvCopyDataToQueue
    5218              
    5219                      .dwfde $C$DW$CIE, _prvCopyDataToQueue
    5220              $C$DW$474       .dwtag  DW_TAG_formal_parameter, DW_AT_name("pxQueue")
    5221                      .dwattr $C$DW$474, DW_AT_TI_symbol_name("_pxQueue")
    5222                      .dwattr $C$DW$474, DW_AT_type(*$C$DW$T$69)
    5223                      .dwattr $C$DW$474, DW_AT_location[DW_OP_reg17]
    5224              $C$DW$475       .dwtag  DW_TAG_formal_parameter, DW_AT_name("pvItemToQueue")
    5225                      .dwattr $C$DW$475, DW_AT_TI_symbol_name("_pvItemToQueue")
    5226                      .dwattr $C$DW$475, DW_AT_type(*$C$DW$T$71)
    5227                      .dwattr $C$DW$475, DW_AT_location[DW_OP_reg19]
    5228              $C$DW$476       .dwtag  DW_TAG_formal_parameter, DW_AT_name("xPosition")
    5229                      .dwattr $C$DW$476, DW_AT_TI_symbol_name("_xPosition")
    5230                      .dwattr $C$DW$476, DW_AT_type(*$C$DW$T$110)
    5231                      .dwattr $C$DW$476, DW_AT_location[DW_OP_reg12]
    5232              ;*******************************************************************************
    5233              ;* FUNCTION NAME: prvCopyDataToQueue                                           *
    5234              ;*                                                                             *
    5235              ;*   Function Uses Regs : AC0,AC0,AC1,AC1,T0,AR0,XAR0,AR1,XAR1,AR2,XAR2,AR3,   *
    5236              ;*                        XAR3,SP,CARRY,TC1,M40,SATA,SATD,RDM,FRCT,SMUL        *
    5237              ;*   Stack Frame        : Compact (No Frame Pointer, w/ debug)                 *
    5238              ;*   Total Frame Size   : 8 words                                              *
    5239              ;*                        (1 return address/alignment)                         *
    5240              ;*                        (7 local values)                                     *
    5241              ;*   Min System Stack   : 1 word                                               *
    5242              ;*******************************************************************************
    5243 000dfc       _prvCopyDataToQueue:
    5244                      .dwcfi  cfa_offset, 1
    5245                      .dwcfi  save_reg_to_mem, 91, -1
    5246 000dfc 4EF9          AADD #-7, SP
    5247                      .dwcfi  cfa_offset, 8
    5248              $C$DW$477       .dwtag  DW_TAG_variable, DW_AT_name("pxQueue")
    5249                      .dwattr $C$DW$477, DW_AT_TI_symbol_name("_pxQueue")
    5250                      .dwattr $C$DW$477, DW_AT_type(*$C$DW$T$69)
    5251                      .dwattr $C$DW$477, DW_AT_location[DW_OP_bregx 0x24 0]
    5252              $C$DW$478       .dwtag  DW_TAG_variable, DW_AT_name("pvItemToQueue")
    5253                      .dwattr $C$DW$478, DW_AT_TI_symbol_name("_pvItemToQueue")
    5254                      .dwattr $C$DW$478, DW_AT_type(*$C$DW$T$71)
    5255                      .dwattr $C$DW$478, DW_AT_location[DW_OP_bregx 0x24 2]
    5256              $C$DW$479       .dwtag  DW_TAG_variable, DW_AT_name("xPosition")
    5257                      .dwattr $C$DW$479, DW_AT_TI_symbol_name("_xPosition")
TMS320C55x Assembler PC v4.4.1 Tue Sep 18 04:49:51 2018

Tools Copyright (c) 1996-2012 Texas Instruments Incorporated
queue.asm                                                            PAGE  111

    5258                      .dwattr $C$DW$479, DW_AT_type(*$C$DW$T$110)
    5259                      .dwattr $C$DW$479, DW_AT_location[DW_OP_bregx 0x24 4]
    5260              $C$DW$480       .dwtag  DW_TAG_variable, DW_AT_name("xReturn")
    5261                      .dwattr $C$DW$480, DW_AT_TI_symbol_name("_xReturn")
    5262                      .dwattr $C$DW$480, DW_AT_type(*$C$DW$T$49)
    5263                      .dwattr $C$DW$480, DW_AT_location[DW_OP_bregx 0x24 5]
    5264              $C$DW$481       .dwtag  DW_TAG_variable, DW_AT_name("uxMessagesWaiting")
    5265                      .dwattr $C$DW$481, DW_AT_TI_symbol_name("_uxMessagesWaiting")
    5266                      .dwattr $C$DW$481, DW_AT_type(*$C$DW$T$32)
    5267                      .dwattr $C$DW$481, DW_AT_location[DW_OP_bregx 0x24 6]
    5268 000dfe C408          MOV T0, *SP(#4) ; |2071| 
    5269 000e00 EB04          MOV XAR1, dbl(*SP(#2))
         000e02 95   
    5270 000e03 EB00          MOV XAR0, dbl(*SP(#0))
         000e05 85   
    5271                      .dwpsn  file "../FreeRTOS/Source/queue.c",line 2072,column 12,is_stmt
    5272 000e06 E60A          MOV #0, *SP(#5) ; |2072| 
         000e08 00   
    5273                      .dwpsn  file "../FreeRTOS/Source/queue.c",line 2077,column 2,is_stmt
    5274 000e09 ED00          MOV dbl(*SP(#0)), XAR3
         000e0b BF   
    5275 000e0c A96D          MOV *AR3(#28), AR1 ; |2077| 
         000e0e 001C 
    5276 000e10 C90C          MOV AR1, *SP(#6) ; |2077| 
    5277                      .dwpsn  file "../FreeRTOS/Source/queue.c",line 2079,column 2,is_stmt
    5278 000e12 ED00          MOV dbl(*SP(#0)), XAR3
         000e14 BF   
    5279 000e15 A96D          MOV *AR3(#30), AR1 ; |2079| 
         000e17 001E 
    5280 000e19 0419          BCC $C$L195,AR1 != #0 ; |2079| 
         000e1b 20   
    5281                                                      ; branchcc occurs ; |2079| 
    5282                      .dwpsn  file "../FreeRTOS/Source/queue.c",line 2083,column 4,is_stmt
    5283 000e1c ED61          MOV dbl(*AR3), XAR3
         000e1e BF   
    5284 000e1f 90B0          MOV XAR3, AC0
    5285 000e21 6D10          BCC $C$L198,AC0 != #0 ; |2083| 
         000e23 00B9 
    5286                                                      ; branchcc occurs ; |2083| 
    5287                      .dwpsn  file "../FreeRTOS/Source/queue.c",line 2086,column 5,is_stmt
    5288 000e25 ED00          MOV dbl(*SP(#0)), XAR3
         000e27 BF   
    5289 000e28 ED79          MOV dbl(*AR3(short(#4))), XAR0
         000e2a 8F   
    5290              $C$DW$482       .dwtag  DW_TAG_TI_branch
    5291                      .dwattr $C$DW$482, DW_AT_low_pc(0x00)
    5292                      .dwattr $C$DW$482, DW_AT_name("_xTaskPriorityDisinherit")
    5293                      .dwattr $C$DW$482, DW_AT_TI_call
    5294 000e2b 6C00          CALL #_xTaskPriorityDisinherit ; |2086| 
         000e2d 0000!
    5295                                                      ; call occurs [#_xTaskPriorityDisinherit] ; |2086| 
    5296 000e2f C40A          MOV T0, *SP(#5) ; |2086| 
    5297                      .dwpsn  file "../FreeRTOS/Source/queue.c",line 2087,column 5,is_stmt
    5298 000e31 ED00          MOV dbl(*SP(#0)), XAR3
         000e33 BF   
TMS320C55x Assembler PC v4.4.1 Tue Sep 18 04:49:51 2018

Tools Copyright (c) 1996-2012 Texas Instruments Incorporated
queue.asm                                                            PAGE  112

    5299 000e34 3C00          MOV #0, AC0 ; |2087| 
    5300 000e36 EB79          MOV AC0, dbl(*AR3(short(#4)))
         000e38 08   
    5301                      .dwpsn  file "../FreeRTOS/Source/queue.c",line 2088,column 4,is_stmt
    5302 000e39 0600          B $C$L198 ; |2088| 
         000e3b A2   
    5303                                                      ; branch occurs ; |2088| 
    5304 000e3c       $C$L195:    
    5305                      .dwpsn  file "../FreeRTOS/Source/queue.c",line 2096,column 7,is_stmt
    5306 000e3c A908          MOV *SP(#4), AR1 ; |2096| 
    5307 000e3e 0419          BCC $C$L196,AR1 != #0 ; |2096| 
         000e40 43   
    5308                                                      ; branchcc occurs ; |2096| 
    5309                      .dwpsn  file "../FreeRTOS/Source/queue.c",line 2098,column 3,is_stmt
    5310 000e41 ED75          MOV dbl(*AR3(short(#2))), XAR0
         000e43 8F   
    5311 000e44 A46D          MOV *AR3(#30), T0 ; |2098| 
         000e46 001E 
    5312 000e48 ED04          MOV dbl(*SP(#2)), XAR1
         000e4a 9F   
    5313              $C$DW$483       .dwtag  DW_TAG_TI_branch
    5314                      .dwattr $C$DW$483, DW_AT_low_pc(0x00)
    5315                      .dwattr $C$DW$483, DW_AT_name("_memcpy")
    5316                      .dwattr $C$DW$483, DW_AT_TI_call
    5317 000e4b 6C00          CALL #_memcpy ; |2098| 
         000e4d 0000!
    5318                                                      ; call occurs [#_memcpy] ; |2098| 
    5319                      .dwpsn  file "../FreeRTOS/Source/queue.c",line 2099,column 3,is_stmt
    5320 000e4f ED00          MOV dbl(*SP(#0)), XAR3
         000e51 BF   
    5321 000e52 ED00          MOV dbl(*SP(#0)), XAR2
         000e54 AF   
    5322 000e55 A96D          MOV *AR3(#30), AR1 ; |2099| 
         000e57 001E 
    5323 000e59 ED55          MOV dbl(*AR2(short(#2))), XAR3
         000e5b BF   
    5324              
    5325 000e5c 8E55          MOV XAR3, dbl(*AR2(short(#2)))
         000e5e BB10 
         000e60 B590 
    5326              ||      AADD AR1, AR3 ; |2099| 
    5327              
    5328                      .dwpsn  file "../FreeRTOS/Source/queue.c",line 2100,column 3,is_stmt
    5329 000e62 ED00          MOV dbl(*SP(#0)), XAR3
         000e64 BF   
    5330 000e65 ED79          MOV dbl(*AR3(short(#4))), XAR3
         000e67 BF   
    5331 000e68 90B0          MOV XAR3, AC0
    5332 000e6a ED00          MOV dbl(*SP(#0)), XAR3
         000e6c BF   
    5333 000e6d ED75          MOV dbl(*AR3(short(#2))), XAR3
         000e6f BF   
    5334 000e70 90B1          MOV XAR3, AC1
    5335 000e72 1214          CMPU AC1 < AC0, TC1 ; |2100| 
         000e74 04   
TMS320C55x Assembler PC v4.4.1 Tue Sep 18 04:49:51 2018

Tools Copyright (c) 1996-2012 Texas Instruments Incorporated
queue.asm                                                            PAGE  113

    5336 000e75 0464          BCC $C$L198,TC1 ; |2100| 
         000e77 66   
    5337                                                      ; branchcc occurs ; |2100| 
    5338                      .dwpsn  file "../FreeRTOS/Source/queue.c",line 2102,column 4,is_stmt
    5339 000e78 ED00          MOV dbl(*SP(#0)), XAR3
         000e7a BF   
    5340 000e7b ED61          MOV dbl(*AR3), XAR2
         000e7d AF   
    5341 000e7e EB75          MOV XAR2, dbl(*AR3(short(#2)))
         000e80 A5   
    5342                      .dwpsn  file "../FreeRTOS/Source/queue.c",line 2103,column 3,is_stmt
    5343 000e81 0600          B $C$L198 ; |2103| 
         000e83 5A   
    5344                                                      ; branch occurs ; |2103| 
    5345 000e84       $C$L196:    
    5346                      .dwpsn  file "../FreeRTOS/Source/queue.c",line 2111,column 3,is_stmt
    5347 000e84 ED7D          MOV dbl(*AR3(short(#6))), XAR0
         000e86 8F   
    5348 000e87 A46D          MOV *AR3(#30), T0 ; |2111| 
         000e89 001E 
    5349 000e8b ED04          MOV dbl(*SP(#2)), XAR1
         000e8d 9F   
    5350              $C$DW$484       .dwtag  DW_TAG_TI_branch
    5351                      .dwattr $C$DW$484, DW_AT_low_pc(0x00)
    5352                      .dwattr $C$DW$484, DW_AT_name("_memcpy")
    5353                      .dwattr $C$DW$484, DW_AT_TI_call
    5354 000e8e 6C00          CALL #_memcpy ; |2111| 
         000e90 0000!
    5355                                                      ; call occurs [#_memcpy] ; |2111| 
    5356                      .dwpsn  file "../FreeRTOS/Source/queue.c",line 2112,column 3,is_stmt
    5357 000e92 ED00          MOV dbl(*SP(#0)), XAR3
         000e94 BF   
    5358 000e95 ED00          MOV dbl(*SP(#0)), XAR2
         000e97 AF   
    5359 000e98 A96D          MOV *AR3(#30), AR1 ; |2112| 
         000e9a 001E 
    5360 000e9c ED5D          MOV dbl(*AR2(short(#6))), XAR3
         000e9e BF   
    5361              
    5362 000e9f 8E5D          MOV XAR3, dbl(*AR2(short(#6)))
         000ea1 BB12 
         000ea3 B590 
    5363              ||      ASUB AR1, AR3 ; |2112| 
    5364              
    5365                      .dwpsn  file "../FreeRTOS/Source/queue.c",line 2113,column 3,is_stmt
    5366 000ea5 ED00          MOV dbl(*SP(#0)), XAR3
         000ea7 BF   
    5367 000ea8 ED61          MOV dbl(*AR3), XAR3
         000eaa BF   
    5368 000eab 90B0          MOV XAR3, AC0
    5369 000ead ED00          MOV dbl(*SP(#0)), XAR3
         000eaf BF   
    5370 000eb0 ED7D          MOV dbl(*AR3(short(#6))), XAR3
         000eb2 BF   
    5371 000eb3 90B1          MOV XAR3, AC1
TMS320C55x Assembler PC v4.4.1 Tue Sep 18 04:49:51 2018

Tools Copyright (c) 1996-2012 Texas Instruments Incorporated
queue.asm                                                            PAGE  114

    5372 000eb5 1218          CMPU AC1 >= AC0, TC1 ; |2113| 
         000eb7 04   
    5373 000eb8 0464          BCC $C$L197,TC1 ; |2113| 
         000eba 13   
    5374                                                      ; branchcc occurs ; |2113| 
    5375                      .dwpsn  file "../FreeRTOS/Source/queue.c",line 2115,column 4,is_stmt
    5376 000ebb ED00          MOV dbl(*SP(#0)), XAR3
         000ebd BF   
    5377 000ebe ED00          MOV dbl(*SP(#0)), XAR2
         000ec0 AF   
    5378 000ec1 A96D          MOV *AR3(#30), AR1 ; |2115| 
         000ec3 001E 
    5379 000ec5 ED79          MOV dbl(*AR3(short(#4))), XAR3
         000ec7 BF   
    5380              
    5381 000ec8 8E5D          MOV XAR3, dbl(*AR2(short(#6)))
         000eca BB12 
         000ecc B590 
    5382              ||      ASUB AR1, AR3 ; |2115| 
    5383              
    5384                      .dwpsn  file "../FreeRTOS/Source/queue.c",line 2116,column 3,is_stmt
    5385 000ece       $C$L197:    
    5386                      .dwpsn  file "../FreeRTOS/Source/queue.c",line 2122,column 3,is_stmt
    5387 000ece F008          CMP *SP(#4) == #2, TC1 ; |2122| 
         000ed0 0002 
    5388 000ed2 6574          BCC $C$L198,!TC1 ; |2122| 
    5389                                                      ; branchcc occurs ; |2122| 
    5390                      .dwpsn  file "../FreeRTOS/Source/queue.c",line 2124,column 4,is_stmt
    5391 000ed4 A90C          MOV *SP(#6), AR1 ; |2124| 
    5392 000ed6 6309          BCC $C$L198,AR1 == #0 ; |2124| 
    5393                                                      ; branchcc occurs ; |2124| 
    5394                      .dwpsn  file "../FreeRTOS/Source/queue.c",line 2130,column 5,is_stmt
    5395 000ed8 F70C          SUB #1, *SP(#6) ; |2130| 
         000eda FFFF 
    5396                      .dwpsn  file "../FreeRTOS/Source/queue.c",line 2131,column 4,is_stmt
    5397 000edc 4A00          B $C$L198 ; |2131| 
    5398                                                      ; branch occurs ; |2131| 
    5399 000ede       $C$L198:    
    5400                      .dwpsn  file "../FreeRTOS/Source/queue.c",line 2143,column 2,is_stmt
    5401 000ede ED00          MOV dbl(*SP(#0)), XAR3
         000ee0 BF   
    5402 000ee1 A90C          MOV *SP(#6), AR1 ; |2143| 
    5403 000ee3 4019          ADD #1, AR1 ; |2143| 
    5404 000ee5 C96D          MOV AR1, *AR3(#28) ; |2143| 
         000ee7 001C 
    5405                      .dwpsn  file "../FreeRTOS/Source/queue.c",line 2145,column 2,is_stmt
    5406 000ee9 A40A          MOV *SP(#5), T0 ; |2145| 
    5407                      .dwpsn  file "../FreeRTOS/Source/queue.c",line 2146,column 1,is_stmt
    5408 000eeb 4E07          AADD #7, SP
    5409                      .dwcfi  cfa_offset, 1
    5410              $C$DW$485       .dwtag  DW_TAG_TI_branch
    5411                      .dwattr $C$DW$485, DW_AT_low_pc(0x00)
    5412                      .dwattr $C$DW$485, DW_AT_TI_return
    5413 000eed 4804          RET
    5414                                                      ; return occurs
TMS320C55x Assembler PC v4.4.1 Tue Sep 18 04:49:51 2018

Tools Copyright (c) 1996-2012 Texas Instruments Incorporated
queue.asm                                                            PAGE  115

    5415                      .dwattr $C$DW$473, DW_AT_TI_end_file("../FreeRTOS/Source/queue.c")
    5416                      .dwattr $C$DW$473, DW_AT_TI_end_line(0x862)
    5417                      .dwattr $C$DW$473, DW_AT_TI_end_column(0x01)
    5418                      .dwendentry
    5419                      .dwendtag $C$DW$473
    5420              
    5421 000eef               .sect   ".text"
    5422                      .align 4
    5423              
    5424              $C$DW$486       .dwtag  DW_TAG_subprogram, DW_AT_name("prvCopyDataFromQueue")
    5425                      .dwattr $C$DW$486, DW_AT_low_pc(_prvCopyDataFromQueue)
    5426                      .dwattr $C$DW$486, DW_AT_high_pc(0x00)
    5427                      .dwattr $C$DW$486, DW_AT_TI_symbol_name("_prvCopyDataFromQueue")
    5428                      .dwattr $C$DW$486, DW_AT_TI_begin_file("../FreeRTOS/Source/queue.c")
    5429                      .dwattr $C$DW$486, DW_AT_TI_begin_line(0x865)
    5430                      .dwattr $C$DW$486, DW_AT_TI_begin_column(0x0d)
    5431                      .dwattr $C$DW$486, DW_AT_TI_max_frame_size(0x06)
    5432                      .dwpsn  file "../FreeRTOS/Source/queue.c",line 2150,column 1,is_stmt,address _prvCopyDataFromQueue
    5433              
    5434                      .dwfde $C$DW$CIE, _prvCopyDataFromQueue
    5435              $C$DW$487       .dwtag  DW_TAG_formal_parameter, DW_AT_name("pxQueue")
    5436                      .dwattr $C$DW$487, DW_AT_TI_symbol_name("_pxQueue")
    5437                      .dwattr $C$DW$487, DW_AT_type(*$C$DW$T$69)
    5438                      .dwattr $C$DW$487, DW_AT_location[DW_OP_reg17]
    5439              $C$DW$488       .dwtag  DW_TAG_formal_parameter, DW_AT_name("pvBuffer")
    5440                      .dwattr $C$DW$488, DW_AT_TI_symbol_name("_pvBuffer")
    5441                      .dwattr $C$DW$488, DW_AT_type(*$C$DW$T$76)
    5442                      .dwattr $C$DW$488, DW_AT_location[DW_OP_reg19]
    5443              ;*******************************************************************************
    5444              ;* FUNCTION NAME: prvCopyDataFromQueue                                         *
    5445              ;*                                                                             *
    5446              ;*   Function Uses Regs : AC0,AC0,AC1,AC1,T0,AR0,XAR0,AR1,XAR1,AR2,XAR2,AR3,   *
    5447              ;*                        XAR3,SP,TC1,M40,SATA,SATD,RDM,FRCT,SMUL              *
    5448              ;*   Stack Frame        : Compact (No Frame Pointer, w/ debug)                 *
    5449              ;*   Total Frame Size   : 6 words                                              *
    5450              ;*                        (2 return address/alignment)                         *
    5451              ;*                        (4 local values)                                     *
    5452              ;*   Min System Stack   : 1 word                                               *
    5453              ;*******************************************************************************
    5454 000ef0       _prvCopyDataFromQueue:
    5455                      .dwcfi  cfa_offset, 1
    5456                      .dwcfi  save_reg_to_mem, 91, -1
    5457 000ef0 4EFB          AADD #-5, SP
    5458                      .dwcfi  cfa_offset, 6
    5459              $C$DW$489       .dwtag  DW_TAG_variable, DW_AT_name("pxQueue")
    5460                      .dwattr $C$DW$489, DW_AT_TI_symbol_name("_pxQueue")
    5461                      .dwattr $C$DW$489, DW_AT_type(*$C$DW$T$69)
    5462                      .dwattr $C$DW$489, DW_AT_location[DW_OP_bregx 0x24 0]
    5463              $C$DW$490       .dwtag  DW_TAG_variable, DW_AT_name("pvBuffer")
    5464                      .dwattr $C$DW$490, DW_AT_TI_symbol_name("_pvBuffer")
    5465                      .dwattr $C$DW$490, DW_AT_type(*$C$DW$T$76)
    5466                      .dwattr $C$DW$490, DW_AT_location[DW_OP_bregx 0x24 2]
    5467 000ef2 EB04          MOV XAR1, dbl(*SP(#2))
         000ef4 95   
    5468 000ef5 EB00          MOV XAR0, dbl(*SP(#0))
TMS320C55x Assembler PC v4.4.1 Tue Sep 18 04:49:51 2018

Tools Copyright (c) 1996-2012 Texas Instruments Incorporated
queue.asm                                                            PAGE  116

         000ef7 85   
    5469                      .dwpsn  file "../FreeRTOS/Source/queue.c",line 2151,column 2,is_stmt
    5470 000ef8 ED00          MOV dbl(*SP(#0)), XAR3
         000efa BF   
    5471 000efb A96D          MOV *AR3(#30), AR1 ; |2151| 
         000efd 001E 
    5472 000eff 0409          BCC $C$L200,AR1 == #0 ; |2151| 
         000f01 3F   
    5473                                                      ; branchcc occurs ; |2151| 
    5474                      .dwpsn  file "../FreeRTOS/Source/queue.c",line 2153,column 3,is_stmt
    5475 000f02 ED00          MOV dbl(*SP(#0)), XAR2
         000f04 AF   
    5476 000f05 A96D          MOV *AR3(#30), AR1 ; |2153| 
         000f07 001E 
    5477 000f09 ED5D          MOV dbl(*AR2(short(#6))), XAR3
         000f0b BF   
    5478              
    5479 000f0c 8E5D          MOV XAR3, dbl(*AR2(short(#6)))
         000f0e BB10 
         000f10 B590 
    5480              ||      AADD AR1, AR3 ; |2153| 
    5481              
    5482                      .dwpsn  file "../FreeRTOS/Source/queue.c",line 2154,column 3,is_stmt
    5483 000f12 ED00          MOV dbl(*SP(#0)), XAR3
         000f14 BF   
    5484 000f15 ED79          MOV dbl(*AR3(short(#4))), XAR3
         000f17 BF   
    5485 000f18 90B0          MOV XAR3, AC0
    5486 000f1a ED00          MOV dbl(*SP(#0)), XAR3
         000f1c BF   
    5487 000f1d ED7D          MOV dbl(*AR3(short(#6))), XAR3
         000f1f BF   
    5488 000f20 90B1          MOV XAR3, AC1
    5489 000f22 1214          CMPU AC1 < AC0, TC1 ; |2154| 
         000f24 04   
    5490 000f25 64E4          BCC $C$L199,TC1 ; |2154| 
    5491                                                      ; branchcc occurs ; |2154| 
    5492                      .dwpsn  file "../FreeRTOS/Source/queue.c",line 2156,column 4,is_stmt
    5493 000f27 ED00          MOV dbl(*SP(#0)), XAR3
         000f29 BF   
    5494 000f2a ED61          MOV dbl(*AR3), XAR2
         000f2c AF   
    5495 000f2d EB7D          MOV XAR2, dbl(*AR3(short(#6)))
         000f2f A5   
    5496                      .dwpsn  file "../FreeRTOS/Source/queue.c",line 2157,column 3,is_stmt
    5497 000f30       $C$L199:    
    5498                      .dwpsn  file "../FreeRTOS/Source/queue.c",line 2162,column 3,is_stmt
    5499 000f30 ED00          MOV dbl(*SP(#0)), XAR3
         000f32 BF   
    5500 000f33 ED04          MOV dbl(*SP(#2)), XAR0
         000f35 8F   
    5501 000f36 ED7D          MOV dbl(*AR3(short(#6))), XAR1
         000f38 9F   
    5502 000f39 A46D          MOV *AR3(#30), T0 ; |2162| 
         000f3b 001E 
TMS320C55x Assembler PC v4.4.1 Tue Sep 18 04:49:51 2018

Tools Copyright (c) 1996-2012 Texas Instruments Incorporated
queue.asm                                                            PAGE  117

    5503              $C$DW$491       .dwtag  DW_TAG_TI_branch
    5504                      .dwattr $C$DW$491, DW_AT_low_pc(0x00)
    5505                      .dwattr $C$DW$491, DW_AT_name("_memcpy")
    5506                      .dwattr $C$DW$491, DW_AT_TI_call
    5507 000f3d 6C00          CALL #_memcpy ; |2162| 
         000f3f 0000!
    5508                                                      ; call occurs [#_memcpy] ; |2162| 
    5509                      .dwpsn  file "../FreeRTOS/Source/queue.c",line 2164,column 1,is_stmt
    5510 000f41       $C$L200:    
    5511 000f41 4E05          AADD #5, SP
    5512                      .dwcfi  cfa_offset, 1
    5513              $C$DW$492       .dwtag  DW_TAG_TI_branch
    5514                      .dwattr $C$DW$492, DW_AT_low_pc(0x00)
    5515                      .dwattr $C$DW$492, DW_AT_TI_return
    5516 000f43 4804          RET
    5517                                                      ; return occurs
    5518                      .dwattr $C$DW$486, DW_AT_TI_end_file("../FreeRTOS/Source/queue.c")
    5519                      .dwattr $C$DW$486, DW_AT_TI_end_line(0x874)
    5520                      .dwattr $C$DW$486, DW_AT_TI_end_column(0x01)
    5521                      .dwendentry
    5522                      .dwendtag $C$DW$486
    5523              
    5524 000f45               .sect   ".text"
    5525                      .align 4
    5526              
    5527              $C$DW$493       .dwtag  DW_TAG_subprogram, DW_AT_name("prvUnlockQueue")
    5528                      .dwattr $C$DW$493, DW_AT_low_pc(_prvUnlockQueue)
    5529                      .dwattr $C$DW$493, DW_AT_high_pc(0x00)
    5530                      .dwattr $C$DW$493, DW_AT_TI_symbol_name("_prvUnlockQueue")
    5531                      .dwattr $C$DW$493, DW_AT_TI_begin_file("../FreeRTOS/Source/queue.c")
    5532                      .dwattr $C$DW$493, DW_AT_TI_begin_line(0x877)
    5533                      .dwattr $C$DW$493, DW_AT_TI_begin_column(0x0d)
    5534                      .dwattr $C$DW$493, DW_AT_TI_max_frame_size(0x04)
    5535                      .dwpsn  file "../FreeRTOS/Source/queue.c",line 2168,column 1,is_stmt,address _prvUnlockQueue
    5536              
    5537                      .dwfde $C$DW$CIE, _prvUnlockQueue
    5538              $C$DW$494       .dwtag  DW_TAG_formal_parameter, DW_AT_name("pxQueue")
    5539                      .dwattr $C$DW$494, DW_AT_TI_symbol_name("_pxQueue")
    5540                      .dwattr $C$DW$494, DW_AT_type(*$C$DW$T$69)
    5541                      .dwattr $C$DW$494, DW_AT_location[DW_OP_reg17]
    5542              ;*******************************************************************************
    5543              ;* FUNCTION NAME: prvUnlockQueue                                               *
    5544              ;*                                                                             *
    5545              ;*   Function Uses Regs : T0,AR0,XAR0,AR1,AR3,XAR3,SP,CARRY,M40,SATA,SATD,RDM, *
    5546              ;*                        FRCT,SMUL                                            *
    5547              ;*   Stack Frame        : Compact (No Frame Pointer, w/ debug)                 *
    5548              ;*   Total Frame Size   : 4 words                                              *
    5549              ;*                        (1 return address/alignment)                         *
    5550              ;*                        (3 local values)                                     *
    5551              ;*   Min System Stack   : 1 word                                               *
    5552              ;*******************************************************************************
    5553 000f48       _prvUnlockQueue:
    5554                      .dwcfi  cfa_offset, 1
    5555                      .dwcfi  save_reg_to_mem, 91, -1
    5556 000f48 4EFD          AADD #-3, SP
TMS320C55x Assembler PC v4.4.1 Tue Sep 18 04:49:51 2018

Tools Copyright (c) 1996-2012 Texas Instruments Incorporated
queue.asm                                                            PAGE  118

    5557                      .dwcfi  cfa_offset, 4
    5558              $C$DW$495       .dwtag  DW_TAG_variable, DW_AT_name("pxQueue")
    5559                      .dwattr $C$DW$495, DW_AT_TI_symbol_name("_pxQueue")
    5560                      .dwattr $C$DW$495, DW_AT_type(*$C$DW$T$69)
    5561                      .dwattr $C$DW$495, DW_AT_location[DW_OP_bregx 0x24 0]
    5562 000f4a EB00          MOV XAR0, dbl(*SP(#0))
         000f4c 85   
    5563                      .dwpsn  file "../FreeRTOS/Source/queue.c",line 2175,column 2,is_stmt
    5564 000f4d 20     nop
    5565 000f4e 46B3   bset INTM
    5566 000f50 F731          ADD #1, *(#_usCriticalNesting) ; |2175| 
         000f52 0001 
         000f54 0000 
         000f56 00!  
    5567 000f57 20            NOP
    5568 000f58 20            NOP
    5569              
    5570              $C$DW$496       .dwtag  DW_TAG_lexical_block, DW_AT_low_pc(0x00), DW_AT_high_pc(0x00)
    5571              $C$DW$497       .dwtag  DW_TAG_variable, DW_AT_name("cTxLock")
    5572                      .dwattr $C$DW$497, DW_AT_TI_symbol_name("_cTxLock")
    5573                      .dwattr $C$DW$497, DW_AT_type(*$C$DW$T$29)
    5574                      .dwattr $C$DW$497, DW_AT_location[DW_OP_bregx 0x24 2]
    5575                      .dwpsn  file "../FreeRTOS/Source/queue.c",line 2177,column 10,is_stmt
    5576 000f59 ED00          MOV dbl(*SP(#0)), XAR3
         000f5b BF   
    5577 000f5c A96D          MOV *AR3(#32), AR1 ; |2177| 
         000f5e 0020 
    5578 000f60 C904          MOV AR1, *SP(#2) ; |2177| 
    5579                      .dwpsn  file "../FreeRTOS/Source/queue.c",line 2180,column 10,is_stmt
    5580 000f62 0439          BCC $C$L205,AR1 <= #0 ; |2180| 
         000f64 2D   
    5581                                                      ; branchcc occurs ; |2180| 
    5582 000f65       $C$L201:    
    5583 000f65       $C$DW$L$_prvUnlockQueue$2$B:
    5584                      .dwpsn  file "../FreeRTOS/Source/queue.c",line 2228,column 5,is_stmt
    5585 000f65 ED00          MOV dbl(*SP(#0)), XAR3
         000f67 BF   
    5586 000f68 A96D          MOV *AR3(#18), AR1 ; |2228| 
         000f6a 0012 
    5587 000f6c 6219          BCC $C$L202,AR1 != #0 ; |2228| 
    5588                                                      ; branchcc occurs ; |2228| 
    5589 000f6e       $C$DW$L$_prvUnlockQueue$2$E:
    5590 000f6e       $C$DW$L$_prvUnlockQueue$3$B:
    5591 000f6e 3C19          MOV #1, AR1
    5592 000f70 4A02          B $C$L203 ; |2228| 
    5593                                                      ; branch occurs ; |2228| 
    5594 000f72       $C$DW$L$_prvUnlockQueue$3$E:
    5595 000f72       $C$L202:    
    5596 000f72       $C$DW$L$_prvUnlockQueue$4$B:
    5597 000f72 3C09          MOV #0, AR1
    5598 000f74       $C$DW$L$_prvUnlockQueue$4$E:
    5599 000f74       $C$L203:    
    5600 000f74       $C$DW$L$_prvUnlockQueue$5$B:
    5601 000f74 0419          BCC $C$L205,AR1 != #0 ; |2228| 
         000f76 1B   
TMS320C55x Assembler PC v4.4.1 Tue Sep 18 04:49:51 2018

Tools Copyright (c) 1996-2012 Texas Instruments Incorporated
queue.asm                                                            PAGE  119

    5602                                                      ; branchcc occurs ; |2228| 
    5603 000f77       $C$DW$L$_prvUnlockQueue$5$E:
    5604 000f77       $C$DW$L$_prvUnlockQueue$6$B:
    5605                      .dwpsn  file "../FreeRTOS/Source/queue.c",line 2230,column 6,is_stmt
    5606 000f77 ED00          MOV dbl(*SP(#0)), XAR0
         000f79 8F   
    5607 000f7a 1412          AADD #18, AR0 ; |2230| 
         000f7c 84   
    5608              $C$DW$498       .dwtag  DW_TAG_TI_branch
    5609                      .dwattr $C$DW$498, DW_AT_low_pc(0x00)
    5610                      .dwattr $C$DW$498, DW_AT_name("_xTaskRemoveFromEventList")
    5611                      .dwattr $C$DW$498, DW_AT_TI_call
    5612 000f7d 6C00          CALL #_xTaskRemoveFromEventList ; |2230| 
         000f7f 0000!
    5613                                                      ; call occurs [#_xTaskRemoveFromEventList] ; |2230| 
    5614 000f81 6304          BCC $C$L204,T0 == #0 ; |2230| 
    5615                                                      ; branchcc occurs ; |2230| 
    5616 000f83       $C$DW$L$_prvUnlockQueue$6$E:
    5617 000f83       $C$DW$L$_prvUnlockQueue$7$B:
    5618                      .dwpsn  file "../FreeRTOS/Source/queue.c",line 2234,column 7,is_stmt
    5619              $C$DW$499       .dwtag  DW_TAG_TI_branch
    5620                      .dwattr $C$DW$499, DW_AT_low_pc(0x00)
    5621                      .dwattr $C$DW$499, DW_AT_name("_vTaskMissedYield")
    5622                      .dwattr $C$DW$499, DW_AT_TI_call
    5623 000f83 6C00          CALL #_vTaskMissedYield ; |2234| 
         000f85 0000!
    5624                                                      ; call occurs [#_vTaskMissedYield] ; |2234| 
    5625                      .dwpsn  file "../FreeRTOS/Source/queue.c",line 2235,column 6,is_stmt
    5626 000f87 4A00          B $C$L204 ; |2235| 
    5627                                                      ; branch occurs ; |2235| 
    5628 000f89       $C$DW$L$_prvUnlockQueue$7$E:
    5629 000f89       $C$L204:    
    5630 000f89       $C$DW$L$_prvUnlockQueue$9$B:
    5631                      .dwpsn  file "../FreeRTOS/Source/queue.c",line 2248,column 4,is_stmt
    5632 000f89 F704          SUB #1, *SP(#2) ; |2248| 
         000f8b FFFF 
    5633                      .dwpsn  file "../FreeRTOS/Source/queue.c",line 2180,column 10,is_stmt
    5634 000f8d A904          MOV *SP(#2), AR1 ; |2180| 
    5635 000f8f 0449          BCC $C$L201,AR1 > #0 ; |2180| 
         000f91 D3   
    5636                                                      ; branchcc occurs ; |2180| 
    5637 000f92       $C$DW$L$_prvUnlockQueue$9$E:
    5638 000f92       $C$L205:    
    5639                      .dwpsn  file "../FreeRTOS/Source/queue.c",line 2251,column 3,is_stmt
    5640 000f92 ED00          MOV dbl(*SP(#0)), XAR3
         000f94 BF   
    5641 000f95 E66D          MOV #-1, *AR3(#32) ; |2251| 
         000f97 FF00 
         000f99 20   
    5642 000f9a 20            NOP
    5643 000f9b 20            NOP
    5644 000f9c 20            NOP
    5645                      .dwendtag $C$DW$496
    5646              
    5647                      .dwpsn  file "../FreeRTOS/Source/queue.c",line 2253,column 2,is_stmt
TMS320C55x Assembler PC v4.4.1 Tue Sep 18 04:49:51 2018

Tools Copyright (c) 1996-2012 Texas Instruments Incorporated
queue.asm                                                            PAGE  120

    5648 000f9d A931          MOV *(#_usCriticalNesting), AR1 ; |2253| 
         000f9f 0000 
         000fa1 00!  
    5649 000fa2 0409          BCC $C$L206,AR1 == #0 ; |2253| 
         000fa4 14   
    5650                                                      ; branchcc occurs ; |2253| 
    5651 000fa5 F731          SUB #1, *(#_usCriticalNesting) ; |2253| 
         000fa7 FFFF 
         000fa9 0000 
         000fab 00!  
    5652 000fac 20            NOP
    5653 000fad 20            NOP
    5654 000fae 20            NOP
    5655 000faf A931          MOV *(#_usCriticalNesting), AR1 ; |2253| 
         000fb1 0000 
         000fb3 00!  
    5656 000fb4 6199          BCC $C$L206,AR1 != #0 ; |2253| 
    5657                                                      ; branchcc occurs ; |2253| 
    5658 000fb6 20     nop
    5659 000fb7 46B2   bclr INTM
    5660 000fb9       $C$L206:    
    5661                      .dwpsn  file "../FreeRTOS/Source/queue.c",line 2256,column 2,is_stmt
    5662 000fb9 20     nop
    5663 000fba 46B3   bset INTM
    5664 000fbc F731          ADD #1, *(#_usCriticalNesting) ; |2256| 
         000fbe 0001 
         000fc0 0000 
         000fc2 00!  
    5665 000fc3 20            NOP
    5666 000fc4 20            NOP
    5667              
    5668              $C$DW$500       .dwtag  DW_TAG_lexical_block, DW_AT_low_pc(0x00), DW_AT_high_pc(0x00)
    5669              $C$DW$501       .dwtag  DW_TAG_variable, DW_AT_name("cRxLock")
    5670                      .dwattr $C$DW$501, DW_AT_TI_symbol_name("_cRxLock")
    5671                      .dwattr $C$DW$501, DW_AT_type(*$C$DW$T$29)
    5672                      .dwattr $C$DW$501, DW_AT_location[DW_OP_bregx 0x24 2]
    5673                      .dwpsn  file "../FreeRTOS/Source/queue.c",line 2258,column 10,is_stmt
    5674 000fc5 ED00          MOV dbl(*SP(#0)), XAR3
         000fc7 BF   
    5675 000fc8 A96D          MOV *AR3(#31), AR1 ; |2258| 
         000fca 001F 
    5676 000fcc C904          MOV AR1, *SP(#2) ; |2258| 
    5677                      .dwpsn  file "../FreeRTOS/Source/queue.c",line 2260,column 10,is_stmt
    5678 000fce 0439          BCC $C$L212,AR1 <= #0 ; |2260| 
         000fd0 2D   
    5679                                                      ; branchcc occurs ; |2260| 
    5680 000fd1       $C$L207:    
    5681 000fd1       $C$DW$L$_prvUnlockQueue$14$B:
    5682                      .dwpsn  file "../FreeRTOS/Source/queue.c",line 2262,column 4,is_stmt
    5683 000fd1 ED00          MOV dbl(*SP(#0)), XAR3
         000fd3 BF   
    5684 000fd4 A96D          MOV *AR3(#8), AR1 ; |2262| 
         000fd6 0008 
    5685 000fd8 6219          BCC $C$L208,AR1 != #0 ; |2262| 
    5686                                                      ; branchcc occurs ; |2262| 
TMS320C55x Assembler PC v4.4.1 Tue Sep 18 04:49:51 2018

Tools Copyright (c) 1996-2012 Texas Instruments Incorporated
queue.asm                                                            PAGE  121

    5687 000fda       $C$DW$L$_prvUnlockQueue$14$E:
    5688 000fda       $C$DW$L$_prvUnlockQueue$15$B:
    5689 000fda 3C19          MOV #1, AR1
    5690 000fdc 4A02          B $C$L209 ; |2262| 
    5691                                                      ; branch occurs ; |2262| 
    5692 000fde       $C$DW$L$_prvUnlockQueue$15$E:
    5693 000fde       $C$L208:    
    5694 000fde       $C$DW$L$_prvUnlockQueue$16$B:
    5695 000fde 3C09          MOV #0, AR1
    5696 000fe0       $C$DW$L$_prvUnlockQueue$16$E:
    5697 000fe0       $C$L209:    
    5698 000fe0       $C$DW$L$_prvUnlockQueue$17$B:
    5699 000fe0 0419          BCC $C$L212,AR1 != #0 ; |2262| 
         000fe2 1B   
    5700                                                      ; branchcc occurs ; |2262| 
    5701 000fe3       $C$DW$L$_prvUnlockQueue$17$E:
    5702 000fe3       $C$DW$L$_prvUnlockQueue$18$B:
    5703                      .dwpsn  file "../FreeRTOS/Source/queue.c",line 2264,column 5,is_stmt
    5704 000fe3 ED00          MOV dbl(*SP(#0)), XAR0
         000fe5 8F   
    5705 000fe6 1408          AADD #8, AR0 ; |2264| 
         000fe8 84   
    5706              $C$DW$502       .dwtag  DW_TAG_TI_branch
    5707                      .dwattr $C$DW$502, DW_AT_low_pc(0x00)
    5708                      .dwattr $C$DW$502, DW_AT_name("_xTaskRemoveFromEventList")
    5709                      .dwattr $C$DW$502, DW_AT_TI_call
    5710 000fe9 6C00          CALL #_xTaskRemoveFromEventList ; |2264| 
         000feb 0000!
    5711                                                      ; call occurs [#_xTaskRemoveFromEventList] ; |2264| 
    5712 000fed 6204          BCC $C$L210,T0 == #0 ; |2264| 
    5713                                                      ; branchcc occurs ; |2264| 
    5714 000fef       $C$DW$L$_prvUnlockQueue$18$E:
    5715 000fef       $C$DW$L$_prvUnlockQueue$19$B:
    5716                      .dwpsn  file "../FreeRTOS/Source/queue.c",line 2266,column 6,is_stmt
    5717              $C$DW$503       .dwtag  DW_TAG_TI_branch
    5718                      .dwattr $C$DW$503, DW_AT_low_pc(0x00)
    5719                      .dwattr $C$DW$503, DW_AT_name("_vTaskMissedYield")
    5720                      .dwattr $C$DW$503, DW_AT_TI_call
    5721 000fef 6C00          CALL #_vTaskMissedYield ; |2266| 
         000ff1 0000!
    5722                                                      ; call occurs [#_vTaskMissedYield] ; |2266| 
    5723                      .dwpsn  file "../FreeRTOS/Source/queue.c",line 2267,column 5,is_stmt
    5724 000ff3       $C$DW$L$_prvUnlockQueue$19$E:
    5725 000ff3       $C$L210:    
    5726 000ff3       $C$DW$L$_prvUnlockQueue$20$B:
    5727                      .dwpsn  file "../FreeRTOS/Source/queue.c",line 2273,column 5,is_stmt
    5728 000ff3 F704          SUB #1, *SP(#2) ; |2273| 
         000ff5 FFFF 
    5729                      .dwpsn  file "../FreeRTOS/Source/queue.c",line 2274,column 4,is_stmt
    5730 000ff7 4A00          B $C$L211 ; |2274| 
    5731                                                      ; branch occurs ; |2274| 
    5732 000ff9       $C$DW$L$_prvUnlockQueue$20$E:
    5733 000ff9       $C$L211:    
    5734 000ff9       $C$DW$L$_prvUnlockQueue$22$B:
    5735                      .dwpsn  file "../FreeRTOS/Source/queue.c",line 2260,column 10,is_stmt
TMS320C55x Assembler PC v4.4.1 Tue Sep 18 04:49:51 2018

Tools Copyright (c) 1996-2012 Texas Instruments Incorporated
queue.asm                                                            PAGE  122

    5736 000ff9 A904          MOV *SP(#2), AR1 ; |2260| 
    5737 000ffb 0449          BCC $C$L207,AR1 > #0 ; |2260| 
         000ffd D3   
    5738                                                      ; branchcc occurs ; |2260| 
    5739 000ffe       $C$DW$L$_prvUnlockQueue$22$E:
    5740 000ffe       $C$L212:    
    5741                      .dwpsn  file "../FreeRTOS/Source/queue.c",line 2281,column 3,is_stmt
    5742 000ffe ED00          MOV dbl(*SP(#0)), XAR3
         001000 BF   
    5743 001001 E66D          MOV #-1, *AR3(#31) ; |2281| 
         001003 FF00 
         001005 1F   
    5744 001006 20            NOP
    5745 001007 20            NOP
    5746 001008 20            NOP
    5747                      .dwendtag $C$DW$500
    5748              
    5749                      .dwpsn  file "../FreeRTOS/Source/queue.c",line 2283,column 2,is_stmt
    5750 001009 A931          MOV *(#_usCriticalNesting), AR1 ; |2283| 
         00100b 0000 
         00100d 00!  
    5751 00100e 0409          BCC $C$L213,AR1 == #0 ; |2283| 
         001010 14   
    5752                                                      ; branchcc occurs ; |2283| 
    5753 001011 F731          SUB #1, *(#_usCriticalNesting) ; |2283| 
         001013 FFFF 
         001015 0000 
         001017 00!  
    5754 001018 20            NOP
    5755 001019 20            NOP
    5756 00101a 20            NOP
    5757 00101b A931          MOV *(#_usCriticalNesting), AR1 ; |2283| 
         00101d 0000 
         00101f 00!  
    5758 001020 6199          BCC $C$L213,AR1 != #0 ; |2283| 
    5759                                                      ; branchcc occurs ; |2283| 
    5760 001022 20     nop
    5761 001023 46B2   bclr INTM
    5762                      .dwpsn  file "../FreeRTOS/Source/queue.c",line 2284,column 1,is_stmt
    5763 001025       $C$L213:    
    5764 001025 4E03          AADD #3, SP
    5765                      .dwcfi  cfa_offset, 1
    5766              $C$DW$504       .dwtag  DW_TAG_TI_branch
    5767                      .dwattr $C$DW$504, DW_AT_low_pc(0x00)
    5768                      .dwattr $C$DW$504, DW_AT_TI_return
    5769 001027 4804          RET
    5770                                                      ; return occurs
    5771              
    5772              $C$DW$505       .dwtag  DW_TAG_TI_loop
    5773                      .dwattr $C$DW$505, DW_AT_name("F:\eZdsp_DBG\eZDSP_5535_Files\ccsws2\test\Debug\queue.asm:$C$L207:1:15
    5774                      .dwattr $C$DW$505, DW_AT_TI_begin_file("../FreeRTOS/Source/queue.c")
    5775                      .dwattr $C$DW$505, DW_AT_TI_begin_line(0x8d4)
    5776                      .dwattr $C$DW$505, DW_AT_TI_end_line(0x8e7)
    5777              $C$DW$506       .dwtag  DW_TAG_TI_loop_range
    5778                      .dwattr $C$DW$506, DW_AT_low_pc($C$DW$L$_prvUnlockQueue$14$B)
TMS320C55x Assembler PC v4.4.1 Tue Sep 18 04:49:51 2018

Tools Copyright (c) 1996-2012 Texas Instruments Incorporated
queue.asm                                                            PAGE  123

    5779                      .dwattr $C$DW$506, DW_AT_high_pc($C$DW$L$_prvUnlockQueue$14$E)
    5780              $C$DW$507       .dwtag  DW_TAG_TI_loop_range
    5781                      .dwattr $C$DW$507, DW_AT_low_pc($C$DW$L$_prvUnlockQueue$15$B)
    5782                      .dwattr $C$DW$507, DW_AT_high_pc($C$DW$L$_prvUnlockQueue$15$E)
    5783              $C$DW$508       .dwtag  DW_TAG_TI_loop_range
    5784                      .dwattr $C$DW$508, DW_AT_low_pc($C$DW$L$_prvUnlockQueue$16$B)
    5785                      .dwattr $C$DW$508, DW_AT_high_pc($C$DW$L$_prvUnlockQueue$16$E)
    5786              $C$DW$509       .dwtag  DW_TAG_TI_loop_range
    5787                      .dwattr $C$DW$509, DW_AT_low_pc($C$DW$L$_prvUnlockQueue$17$B)
    5788                      .dwattr $C$DW$509, DW_AT_high_pc($C$DW$L$_prvUnlockQueue$17$E)
    5789              $C$DW$510       .dwtag  DW_TAG_TI_loop_range
    5790                      .dwattr $C$DW$510, DW_AT_low_pc($C$DW$L$_prvUnlockQueue$18$B)
    5791                      .dwattr $C$DW$510, DW_AT_high_pc($C$DW$L$_prvUnlockQueue$18$E)
    5792              $C$DW$511       .dwtag  DW_TAG_TI_loop_range
    5793                      .dwattr $C$DW$511, DW_AT_low_pc($C$DW$L$_prvUnlockQueue$19$B)
    5794                      .dwattr $C$DW$511, DW_AT_high_pc($C$DW$L$_prvUnlockQueue$19$E)
    5795              $C$DW$512       .dwtag  DW_TAG_TI_loop_range
    5796                      .dwattr $C$DW$512, DW_AT_low_pc($C$DW$L$_prvUnlockQueue$20$B)
    5797                      .dwattr $C$DW$512, DW_AT_high_pc($C$DW$L$_prvUnlockQueue$20$E)
    5798              $C$DW$513       .dwtag  DW_TAG_TI_loop_range
    5799                      .dwattr $C$DW$513, DW_AT_low_pc($C$DW$L$_prvUnlockQueue$22$B)
    5800                      .dwattr $C$DW$513, DW_AT_high_pc($C$DW$L$_prvUnlockQueue$22$E)
    5801                      .dwendtag $C$DW$505
    5802              
    5803              
    5804              $C$DW$514       .dwtag  DW_TAG_TI_loop
    5805                      .dwattr $C$DW$514, DW_AT_name("F:\eZdsp_DBG\eZDSP_5535_Files\ccsws2\test\Debug\queue.asm:$C$L201:1:15
    5806                      .dwattr $C$DW$514, DW_AT_TI_begin_file("../FreeRTOS/Source/queue.c")
    5807                      .dwattr $C$DW$514, DW_AT_TI_begin_line(0x884)
    5808                      .dwattr $C$DW$514, DW_AT_TI_end_line(0x8c9)
    5809              $C$DW$515       .dwtag  DW_TAG_TI_loop_range
    5810                      .dwattr $C$DW$515, DW_AT_low_pc($C$DW$L$_prvUnlockQueue$2$B)
    5811                      .dwattr $C$DW$515, DW_AT_high_pc($C$DW$L$_prvUnlockQueue$2$E)
    5812              $C$DW$516       .dwtag  DW_TAG_TI_loop_range
    5813                      .dwattr $C$DW$516, DW_AT_low_pc($C$DW$L$_prvUnlockQueue$3$B)
    5814                      .dwattr $C$DW$516, DW_AT_high_pc($C$DW$L$_prvUnlockQueue$3$E)
    5815              $C$DW$517       .dwtag  DW_TAG_TI_loop_range
    5816                      .dwattr $C$DW$517, DW_AT_low_pc($C$DW$L$_prvUnlockQueue$4$B)
    5817                      .dwattr $C$DW$517, DW_AT_high_pc($C$DW$L$_prvUnlockQueue$4$E)
    5818              $C$DW$518       .dwtag  DW_TAG_TI_loop_range
    5819                      .dwattr $C$DW$518, DW_AT_low_pc($C$DW$L$_prvUnlockQueue$5$B)
    5820                      .dwattr $C$DW$518, DW_AT_high_pc($C$DW$L$_prvUnlockQueue$5$E)
    5821              $C$DW$519       .dwtag  DW_TAG_TI_loop_range
    5822                      .dwattr $C$DW$519, DW_AT_low_pc($C$DW$L$_prvUnlockQueue$6$B)
    5823                      .dwattr $C$DW$519, DW_AT_high_pc($C$DW$L$_prvUnlockQueue$6$E)
    5824              $C$DW$520       .dwtag  DW_TAG_TI_loop_range
    5825                      .dwattr $C$DW$520, DW_AT_low_pc($C$DW$L$_prvUnlockQueue$7$B)
    5826                      .dwattr $C$DW$520, DW_AT_high_pc($C$DW$L$_prvUnlockQueue$7$E)
    5827              $C$DW$521       .dwtag  DW_TAG_TI_loop_range
    5828                      .dwattr $C$DW$521, DW_AT_low_pc($C$DW$L$_prvUnlockQueue$9$B)
    5829                      .dwattr $C$DW$521, DW_AT_high_pc($C$DW$L$_prvUnlockQueue$9$E)
    5830                      .dwendtag $C$DW$514
    5831              
    5832                      .dwattr $C$DW$493, DW_AT_TI_end_file("../FreeRTOS/Source/queue.c")
    5833                      .dwattr $C$DW$493, DW_AT_TI_end_line(0x8ec)
TMS320C55x Assembler PC v4.4.1 Tue Sep 18 04:49:51 2018

Tools Copyright (c) 1996-2012 Texas Instruments Incorporated
queue.asm                                                            PAGE  124

    5834                      .dwattr $C$DW$493, DW_AT_TI_end_column(0x01)
    5835                      .dwendentry
    5836                      .dwendtag $C$DW$493
    5837              
    5838 001029               .sect   ".text"
    5839                      .align 4
    5840              
    5841              $C$DW$522       .dwtag  DW_TAG_subprogram, DW_AT_name("prvIsQueueEmpty")
    5842                      .dwattr $C$DW$522, DW_AT_low_pc(_prvIsQueueEmpty)
    5843                      .dwattr $C$DW$522, DW_AT_high_pc(0x00)
    5844                      .dwattr $C$DW$522, DW_AT_TI_symbol_name("_prvIsQueueEmpty")
    5845                      .dwattr $C$DW$522, DW_AT_type(*$C$DW$T$49)
    5846                      .dwattr $C$DW$522, DW_AT_TI_begin_file("../FreeRTOS/Source/queue.c")
    5847                      .dwattr $C$DW$522, DW_AT_TI_begin_line(0x8ef)
    5848                      .dwattr $C$DW$522, DW_AT_TI_begin_column(0x13)
    5849                      .dwattr $C$DW$522, DW_AT_TI_max_frame_size(0x04)
    5850                      .dwpsn  file "../FreeRTOS/Source/queue.c",line 2288,column 1,is_stmt,address _prvIsQueueEmpty
    5851              
    5852                      .dwfde $C$DW$CIE, _prvIsQueueEmpty
    5853              $C$DW$523       .dwtag  DW_TAG_formal_parameter, DW_AT_name("pxQueue")
    5854                      .dwattr $C$DW$523, DW_AT_TI_symbol_name("_pxQueue")
    5855                      .dwattr $C$DW$523, DW_AT_type(*$C$DW$T$66)
    5856                      .dwattr $C$DW$523, DW_AT_location[DW_OP_reg17]
    5857              ;*******************************************************************************
    5858              ;* FUNCTION NAME: prvIsQueueEmpty                                              *
    5859              ;*                                                                             *
    5860              ;*   Function Uses Regs : T0,AR0,XAR0,AR1,AR3,XAR3,SP,CARRY,M40,SATA,SATD,RDM, *
    5861              ;*                        FRCT,SMUL                                            *
    5862              ;*   Stack Frame        : Compact (No Frame Pointer, w/ debug)                 *
    5863              ;*   Total Frame Size   : 4 words                                              *
    5864              ;*                        (1 return address/alignment)                         *
    5865              ;*                        (3 local values)                                     *
    5866              ;*   Min System Stack   : 1 word                                               *
    5867              ;*******************************************************************************
    5868 00102c       _prvIsQueueEmpty:
    5869                      .dwcfi  cfa_offset, 1
    5870                      .dwcfi  save_reg_to_mem, 91, -1
    5871 00102c 4EFD          AADD #-3, SP
    5872                      .dwcfi  cfa_offset, 4
    5873              $C$DW$524       .dwtag  DW_TAG_variable, DW_AT_name("pxQueue")
    5874                      .dwattr $C$DW$524, DW_AT_TI_symbol_name("_pxQueue")
    5875                      .dwattr $C$DW$524, DW_AT_type(*$C$DW$T$66)
    5876                      .dwattr $C$DW$524, DW_AT_location[DW_OP_bregx 0x24 0]
    5877              $C$DW$525       .dwtag  DW_TAG_variable, DW_AT_name("xReturn")
    5878                      .dwattr $C$DW$525, DW_AT_TI_symbol_name("_xReturn")
    5879                      .dwattr $C$DW$525, DW_AT_type(*$C$DW$T$49)
    5880                      .dwattr $C$DW$525, DW_AT_location[DW_OP_bregx 0x24 2]
    5881 00102e EB00          MOV XAR0, dbl(*SP(#0))
         001030 85   
    5882                      .dwpsn  file "../FreeRTOS/Source/queue.c",line 2291,column 2,is_stmt
    5883 001031 20     nop
    5884 001032 46B3   bset INTM
    5885 001034 F731          ADD #1, *(#_usCriticalNesting) ; |2291| 
         001036 0001 
         001038 0000 
TMS320C55x Assembler PC v4.4.1 Tue Sep 18 04:49:51 2018

Tools Copyright (c) 1996-2012 Texas Instruments Incorporated
queue.asm                                                            PAGE  125

         00103a 00!  
    5886 00103b 20            NOP
    5887 00103c 20            NOP
    5888                      .dwpsn  file "../FreeRTOS/Source/queue.c",line 2293,column 3,is_stmt
    5889 00103d ED00          MOV dbl(*SP(#0)), XAR3
         00103f BF   
    5890 001040 A96D          MOV *AR3(#28), AR1 ; |2293| 
         001042 001C 
    5891 001044 6299          BCC $C$L214,AR1 != #0 ; |2293| 
    5892                                                      ; branchcc occurs ; |2293| 
    5893                      .dwpsn  file "../FreeRTOS/Source/queue.c",line 2295,column 4,is_stmt
    5894 001046 E604          MOV #1, *SP(#2) ; |2295| 
         001048 01   
    5895                      .dwpsn  file "../FreeRTOS/Source/queue.c",line 2296,column 3,is_stmt
    5896 001049 4A03          B $C$L215 ; |2296| 
    5897                                                      ; branch occurs ; |2296| 
    5898 00104b       $C$L214:    
    5899                      .dwpsn  file "../FreeRTOS/Source/queue.c",line 2299,column 4,is_stmt
    5900 00104b E604          MOV #0, *SP(#2) ; |2299| 
         00104d 00   
    5901 00104e       $C$L215:    
    5902                      .dwpsn  file "../FreeRTOS/Source/queue.c",line 2302,column 2,is_stmt
    5903 00104e A931          MOV *(#_usCriticalNesting), AR1 ; |2302| 
         001050 0000 
         001052 00!  
    5904 001053 0409          BCC $C$L216,AR1 == #0 ; |2302| 
         001055 14   
    5905                                                      ; branchcc occurs ; |2302| 
    5906 001056 F731          SUB #1, *(#_usCriticalNesting) ; |2302| 
         001058 FFFF 
         00105a 0000 
         00105c 00!  
    5907 00105d 20            NOP
    5908 00105e 20            NOP
    5909 00105f 20            NOP
    5910 001060 A931          MOV *(#_usCriticalNesting), AR1 ; |2302| 
         001062 0000 
         001064 00!  
    5911 001065 6199          BCC $C$L216,AR1 != #0 ; |2302| 
    5912                                                      ; branchcc occurs ; |2302| 
    5913 001067 20     nop
    5914 001068 46B2   bclr INTM
    5915 00106a       $C$L216:    
    5916                      .dwpsn  file "../FreeRTOS/Source/queue.c",line 2304,column 2,is_stmt
    5917 00106a A404          MOV *SP(#2), T0 ; |2304| 
    5918                      .dwpsn  file "../FreeRTOS/Source/queue.c",line 2305,column 1,is_stmt
    5919 00106c 4E03          AADD #3, SP
    5920                      .dwcfi  cfa_offset, 1
    5921              $C$DW$526       .dwtag  DW_TAG_TI_branch
    5922                      .dwattr $C$DW$526, DW_AT_low_pc(0x00)
    5923                      .dwattr $C$DW$526, DW_AT_TI_return
    5924 00106e 4804          RET
    5925                                                      ; return occurs
    5926                      .dwattr $C$DW$522, DW_AT_TI_end_file("../FreeRTOS/Source/queue.c")
    5927                      .dwattr $C$DW$522, DW_AT_TI_end_line(0x901)
TMS320C55x Assembler PC v4.4.1 Tue Sep 18 04:49:51 2018

Tools Copyright (c) 1996-2012 Texas Instruments Incorporated
queue.asm                                                            PAGE  126

    5928                      .dwattr $C$DW$522, DW_AT_TI_end_column(0x01)
    5929                      .dwendentry
    5930                      .dwendtag $C$DW$522
    5931              
    5932 001070               .sect   ".text"
    5933                      .align 4
    5934                      .global _xQueueIsQueueEmptyFromISR
    5935              
    5936              $C$DW$527       .dwtag  DW_TAG_subprogram, DW_AT_name("xQueueIsQueueEmptyFromISR")
    5937                      .dwattr $C$DW$527, DW_AT_low_pc(_xQueueIsQueueEmptyFromISR)
    5938                      .dwattr $C$DW$527, DW_AT_high_pc(0x00)
    5939                      .dwattr $C$DW$527, DW_AT_TI_symbol_name("_xQueueIsQueueEmptyFromISR")
    5940                      .dwattr $C$DW$527, DW_AT_external
    5941                      .dwattr $C$DW$527, DW_AT_type(*$C$DW$T$49)
    5942                      .dwattr $C$DW$527, DW_AT_TI_begin_file("../FreeRTOS/Source/queue.c")
    5943                      .dwattr $C$DW$527, DW_AT_TI_begin_line(0x904)
    5944                      .dwattr $C$DW$527, DW_AT_TI_begin_column(0x0c)
    5945                      .dwattr $C$DW$527, DW_AT_TI_max_frame_size(0x08)
    5946                      .dwpsn  file "../FreeRTOS/Source/queue.c",line 2309,column 1,is_stmt,address _xQueueIsQueueEmptyFromI
    5947              
    5948                      .dwfde $C$DW$CIE, _xQueueIsQueueEmptyFromISR
    5949              $C$DW$528       .dwtag  DW_TAG_formal_parameter, DW_AT_name("xQueue")
    5950                      .dwattr $C$DW$528, DW_AT_TI_symbol_name("_xQueue")
    5951                      .dwattr $C$DW$528, DW_AT_type(*$C$DW$T$55)
    5952                      .dwattr $C$DW$528, DW_AT_location[DW_OP_reg17]
    5953              ;*******************************************************************************
    5954              ;* FUNCTION NAME: xQueueIsQueueEmptyFromISR                                    *
    5955              ;*                                                                             *
    5956              ;*   Function Uses Regs : AC0,AC0,T0,AR0,XAR0,AR1,AR3,XAR3,SP,M40,SATA,SATD,   *
    5957              ;*                        RDM,FRCT,SMUL                                        *
    5958              ;*   Stack Frame        : Compact (No Frame Pointer, w/ debug)                 *
    5959              ;*   Total Frame Size   : 8 words                                              *
    5960              ;*                        (2 return address/alignment)                         *
    5961              ;*                        (6 local values)                                     *
    5962              ;*   Min System Stack   : 1 word                                               *
    5963              ;*******************************************************************************
    5964 001070       _xQueueIsQueueEmptyFromISR:
    5965                      .dwcfi  cfa_offset, 1
    5966                      .dwcfi  save_reg_to_mem, 91, -1
    5967 001070 4EF9          AADD #-7, SP
    5968                      .dwcfi  cfa_offset, 8
    5969              $C$DW$529       .dwtag  DW_TAG_variable, DW_AT_name("xQueue")
    5970                      .dwattr $C$DW$529, DW_AT_TI_symbol_name("_xQueue")
    5971                      .dwattr $C$DW$529, DW_AT_type(*$C$DW$T$55)
    5972                      .dwattr $C$DW$529, DW_AT_location[DW_OP_bregx 0x24 0]
    5973              $C$DW$530       .dwtag  DW_TAG_variable, DW_AT_name("xReturn")
    5974                      .dwattr $C$DW$530, DW_AT_TI_symbol_name("_xReturn")
    5975                      .dwattr $C$DW$530, DW_AT_type(*$C$DW$T$49)
    5976                      .dwattr $C$DW$530, DW_AT_location[DW_OP_bregx 0x24 2]
    5977              $C$DW$531       .dwtag  DW_TAG_variable, DW_AT_name("pxQueue")
    5978                      .dwattr $C$DW$531, DW_AT_TI_symbol_name("_pxQueue")
    5979                      .dwattr $C$DW$531, DW_AT_type(*$C$DW$T$69)
    5980                      .dwattr $C$DW$531, DW_AT_location[DW_OP_bregx 0x24 4]
    5981 001072 EB00          MOV XAR0, dbl(*SP(#0))
         001074 85   
TMS320C55x Assembler PC v4.4.1 Tue Sep 18 04:49:51 2018

Tools Copyright (c) 1996-2012 Texas Instruments Incorporated
queue.asm                                                            PAGE  127

    5982                      .dwpsn  file "../FreeRTOS/Source/queue.c",line 2311,column 17,is_stmt
    5983 001075 ED00          MOV dbl(*SP(#0)), XAR3
         001077 BF   
    5984 001078 EB08          MOV XAR3, dbl(*SP(#4))
         00107a B5   
    5985                      .dwpsn  file "../FreeRTOS/Source/queue.c",line 2313,column 2,is_stmt
    5986 00107b 90B0          MOV XAR3, AC0
    5987 00107d 6290          BCC $C$L218,AC0 != #0 ; |2313| 
    5988                                                      ; branchcc occurs ; |2313| 
    5989 00107f 20     nop
    5990 001080 46B3   bset INTM
    5991 001082       $C$L217:    
    5992 001082       $C$DW$L$_xQueueIsQueueEmptyFromISR$3$B:
    5993 001082 4A7E          B $C$L217 ; |2313| 
    5994                                                      ; branch occurs ; |2313| 
    5995 001084       $C$DW$L$_xQueueIsQueueEmptyFromISR$3$E:
    5996 001084       $C$L218:    
    5997                      .dwpsn  file "../FreeRTOS/Source/queue.c",line 2314,column 2,is_stmt
    5998 001084 A96D          MOV *AR3(#28), AR1 ; |2314| 
         001086 001C 
    5999 001088 6299          BCC $C$L219,AR1 != #0 ; |2314| 
    6000                                                      ; branchcc occurs ; |2314| 
    6001                      .dwpsn  file "../FreeRTOS/Source/queue.c",line 2316,column 3,is_stmt
    6002 00108a E604          MOV #1, *SP(#2) ; |2316| 
         00108c 01   
    6003                      .dwpsn  file "../FreeRTOS/Source/queue.c",line 2317,column 2,is_stmt
    6004 00108d 4A03          B $C$L220 ; |2317| 
    6005                                                      ; branch occurs ; |2317| 
    6006 00108f       $C$L219:    
    6007                      .dwpsn  file "../FreeRTOS/Source/queue.c",line 2320,column 3,is_stmt
    6008 00108f E604          MOV #0, *SP(#2) ; |2320| 
         001091 00   
    6009 001092       $C$L220:    
    6010                      .dwpsn  file "../FreeRTOS/Source/queue.c",line 2323,column 2,is_stmt
    6011 001092 A404          MOV *SP(#2), T0 ; |2323| 
    6012                      .dwpsn  file "../FreeRTOS/Source/queue.c",line 2324,column 1,is_stmt
    6013 001094 4E07          AADD #7, SP
    6014                      .dwcfi  cfa_offset, 1
    6015              $C$DW$532       .dwtag  DW_TAG_TI_branch
    6016                      .dwattr $C$DW$532, DW_AT_low_pc(0x00)
    6017                      .dwattr $C$DW$532, DW_AT_TI_return
    6018 001096 4804          RET
    6019                                                      ; return occurs
    6020              
    6021              $C$DW$533       .dwtag  DW_TAG_TI_loop
    6022                      .dwattr $C$DW$533, DW_AT_name("F:\eZdsp_DBG\eZDSP_5535_Files\ccsws2\test\Debug\queue.asm:$C$L217:1:15
    6023                      .dwattr $C$DW$533, DW_AT_TI_begin_file("../FreeRTOS/Source/queue.c")
    6024                      .dwattr $C$DW$533, DW_AT_TI_begin_line(0x909)
    6025                      .dwattr $C$DW$533, DW_AT_TI_end_line(0x909)
    6026              $C$DW$534       .dwtag  DW_TAG_TI_loop_range
    6027                      .dwattr $C$DW$534, DW_AT_low_pc($C$DW$L$_xQueueIsQueueEmptyFromISR$3$B)
    6028                      .dwattr $C$DW$534, DW_AT_high_pc($C$DW$L$_xQueueIsQueueEmptyFromISR$3$E)
    6029                      .dwendtag $C$DW$533
    6030              
    6031                      .dwattr $C$DW$527, DW_AT_TI_end_file("../FreeRTOS/Source/queue.c")
TMS320C55x Assembler PC v4.4.1 Tue Sep 18 04:49:51 2018

Tools Copyright (c) 1996-2012 Texas Instruments Incorporated
queue.asm                                                            PAGE  128

    6032                      .dwattr $C$DW$527, DW_AT_TI_end_line(0x914)
    6033                      .dwattr $C$DW$527, DW_AT_TI_end_column(0x01)
    6034                      .dwendentry
    6035                      .dwendtag $C$DW$527
    6036              
    6037 001098               .sect   ".text"
    6038                      .align 4
    6039              
    6040              $C$DW$535       .dwtag  DW_TAG_subprogram, DW_AT_name("prvIsQueueFull")
    6041                      .dwattr $C$DW$535, DW_AT_low_pc(_prvIsQueueFull)
    6042                      .dwattr $C$DW$535, DW_AT_high_pc(0x00)
    6043                      .dwattr $C$DW$535, DW_AT_TI_symbol_name("_prvIsQueueFull")
    6044                      .dwattr $C$DW$535, DW_AT_type(*$C$DW$T$49)
    6045                      .dwattr $C$DW$535, DW_AT_TI_begin_file("../FreeRTOS/Source/queue.c")
    6046                      .dwattr $C$DW$535, DW_AT_TI_begin_line(0x917)
    6047                      .dwattr $C$DW$535, DW_AT_TI_begin_column(0x13)
    6048                      .dwattr $C$DW$535, DW_AT_TI_max_frame_size(0x04)
    6049                      .dwpsn  file "../FreeRTOS/Source/queue.c",line 2328,column 1,is_stmt,address _prvIsQueueFull
    6050              
    6051                      .dwfde $C$DW$CIE, _prvIsQueueFull
    6052              $C$DW$536       .dwtag  DW_TAG_formal_parameter, DW_AT_name("pxQueue")
    6053                      .dwattr $C$DW$536, DW_AT_TI_symbol_name("_pxQueue")
    6054                      .dwattr $C$DW$536, DW_AT_type(*$C$DW$T$66)
    6055                      .dwattr $C$DW$536, DW_AT_location[DW_OP_reg17]
    6056              ;*******************************************************************************
    6057              ;* FUNCTION NAME: prvIsQueueFull                                               *
    6058              ;*                                                                             *
    6059              ;*   Function Uses Regs : T0,AR0,XAR0,AR1,AR2,AR3,XAR3,SP,CARRY,TC1,M40,SATA,  *
    6060              ;*                        SATD,RDM,FRCT,SMUL                                   *
    6061              ;*   Stack Frame        : Compact (No Frame Pointer, w/ debug)                 *
    6062              ;*   Total Frame Size   : 4 words                                              *
    6063              ;*                        (1 return address/alignment)                         *
    6064              ;*                        (3 local values)                                     *
    6065              ;*   Min System Stack   : 1 word                                               *
    6066              ;*******************************************************************************
    6067 001098       _prvIsQueueFull:
    6068                      .dwcfi  cfa_offset, 1
    6069                      .dwcfi  save_reg_to_mem, 91, -1
    6070 001098 4EFD          AADD #-3, SP
    6071                      .dwcfi  cfa_offset, 4
    6072              $C$DW$537       .dwtag  DW_TAG_variable, DW_AT_name("pxQueue")
    6073                      .dwattr $C$DW$537, DW_AT_TI_symbol_name("_pxQueue")
    6074                      .dwattr $C$DW$537, DW_AT_type(*$C$DW$T$66)
    6075                      .dwattr $C$DW$537, DW_AT_location[DW_OP_bregx 0x24 0]
    6076              $C$DW$538       .dwtag  DW_TAG_variable, DW_AT_name("xReturn")
    6077                      .dwattr $C$DW$538, DW_AT_TI_symbol_name("_xReturn")
    6078                      .dwattr $C$DW$538, DW_AT_type(*$C$DW$T$49)
    6079                      .dwattr $C$DW$538, DW_AT_location[DW_OP_bregx 0x24 2]
    6080 00109a EB00          MOV XAR0, dbl(*SP(#0))
         00109c 85   
    6081                      .dwpsn  file "../FreeRTOS/Source/queue.c",line 2331,column 2,is_stmt
    6082 00109d 20     nop
    6083 00109e 46B3   bset INTM
    6084 0010a0 F731          ADD #1, *(#_usCriticalNesting) ; |2331| 
         0010a2 0001 
TMS320C55x Assembler PC v4.4.1 Tue Sep 18 04:49:51 2018

Tools Copyright (c) 1996-2012 Texas Instruments Incorporated
queue.asm                                                            PAGE  129

         0010a4 0000 
         0010a6 00!  
    6085 0010a7 20            NOP
    6086                      .dwpsn  file "../FreeRTOS/Source/queue.c",line 2333,column 3,is_stmt
    6087 0010a8 ED00          MOV dbl(*SP(#0)), XAR3
         0010aa BF   
    6088 0010ab A96D          MOV *AR3(#29), AR1 ; |2333| 
         0010ad 001D 
    6089 0010af AA6D          MOV *AR3(#28), AR2 ; |2333| 
         0010b1 001C 
    6090 0010b3 12AC          CMPU AR2 != AR1, TC1 ; |2333| 
         0010b5 94   
    6091 0010b6 62E4          BCC $C$L221,TC1 ; |2333| 
    6092                                                      ; branchcc occurs ; |2333| 
    6093                      .dwpsn  file "../FreeRTOS/Source/queue.c",line 2335,column 4,is_stmt
    6094 0010b8 E604          MOV #1, *SP(#2) ; |2335| 
         0010ba 01   
    6095                      .dwpsn  file "../FreeRTOS/Source/queue.c",line 2336,column 3,is_stmt
    6096 0010bb 4A03          B $C$L222 ; |2336| 
    6097                                                      ; branch occurs ; |2336| 
    6098 0010bd       $C$L221:    
    6099                      .dwpsn  file "../FreeRTOS/Source/queue.c",line 2339,column 4,is_stmt
    6100 0010bd E604          MOV #0, *SP(#2) ; |2339| 
         0010bf 00   
    6101 0010c0       $C$L222:    
    6102                      .dwpsn  file "../FreeRTOS/Source/queue.c",line 2342,column 2,is_stmt
    6103 0010c0 A931          MOV *(#_usCriticalNesting), AR1 ; |2342| 
         0010c2 0000 
         0010c4 00!  
    6104 0010c5 0409          BCC $C$L223,AR1 == #0 ; |2342| 
         0010c7 14   
    6105                                                      ; branchcc occurs ; |2342| 
    6106 0010c8 F731          SUB #1, *(#_usCriticalNesting) ; |2342| 
         0010ca FFFF 
         0010cc 0000 
         0010ce 00!  
    6107 0010cf 20            NOP
    6108 0010d0 20            NOP
    6109 0010d1 20            NOP
    6110 0010d2 A931          MOV *(#_usCriticalNesting), AR1 ; |2342| 
         0010d4 0000 
         0010d6 00!  
    6111 0010d7 6199          BCC $C$L223,AR1 != #0 ; |2342| 
    6112                                                      ; branchcc occurs ; |2342| 
    6113 0010d9 20     nop
    6114 0010da 46B2   bclr INTM
    6115 0010dc       $C$L223:    
    6116                      .dwpsn  file "../FreeRTOS/Source/queue.c",line 2344,column 2,is_stmt
    6117 0010dc A404          MOV *SP(#2), T0 ; |2344| 
    6118                      .dwpsn  file "../FreeRTOS/Source/queue.c",line 2345,column 1,is_stmt
    6119 0010de 4E03          AADD #3, SP
    6120                      .dwcfi  cfa_offset, 1
    6121              $C$DW$539       .dwtag  DW_TAG_TI_branch
    6122                      .dwattr $C$DW$539, DW_AT_low_pc(0x00)
    6123                      .dwattr $C$DW$539, DW_AT_TI_return
TMS320C55x Assembler PC v4.4.1 Tue Sep 18 04:49:51 2018

Tools Copyright (c) 1996-2012 Texas Instruments Incorporated
queue.asm                                                            PAGE  130

    6124 0010e0 4804          RET
    6125                                                      ; return occurs
    6126                      .dwattr $C$DW$535, DW_AT_TI_end_file("../FreeRTOS/Source/queue.c")
    6127                      .dwattr $C$DW$535, DW_AT_TI_end_line(0x929)
    6128                      .dwattr $C$DW$535, DW_AT_TI_end_column(0x01)
    6129                      .dwendentry
    6130                      .dwendtag $C$DW$535
    6131              
    6132 0010e2               .sect   ".text"
    6133                      .align 4
    6134                      .global _xQueueIsQueueFullFromISR
    6135              
    6136              $C$DW$540       .dwtag  DW_TAG_subprogram, DW_AT_name("xQueueIsQueueFullFromISR")
    6137                      .dwattr $C$DW$540, DW_AT_low_pc(_xQueueIsQueueFullFromISR)
    6138                      .dwattr $C$DW$540, DW_AT_high_pc(0x00)
    6139                      .dwattr $C$DW$540, DW_AT_TI_symbol_name("_xQueueIsQueueFullFromISR")
    6140                      .dwattr $C$DW$540, DW_AT_external
    6141                      .dwattr $C$DW$540, DW_AT_type(*$C$DW$T$49)
    6142                      .dwattr $C$DW$540, DW_AT_TI_begin_file("../FreeRTOS/Source/queue.c")
    6143                      .dwattr $C$DW$540, DW_AT_TI_begin_line(0x92c)
    6144                      .dwattr $C$DW$540, DW_AT_TI_begin_column(0x0c)
    6145                      .dwattr $C$DW$540, DW_AT_TI_max_frame_size(0x08)
    6146                      .dwpsn  file "../FreeRTOS/Source/queue.c",line 2349,column 1,is_stmt,address _xQueueIsQueueFullFromIS
    6147              
    6148                      .dwfde $C$DW$CIE, _xQueueIsQueueFullFromISR
    6149              $C$DW$541       .dwtag  DW_TAG_formal_parameter, DW_AT_name("xQueue")
    6150                      .dwattr $C$DW$541, DW_AT_TI_symbol_name("_xQueue")
    6151                      .dwattr $C$DW$541, DW_AT_type(*$C$DW$T$55)
    6152                      .dwattr $C$DW$541, DW_AT_location[DW_OP_reg17]
    6153              ;*******************************************************************************
    6154              ;* FUNCTION NAME: xQueueIsQueueFullFromISR                                     *
    6155              ;*                                                                             *
    6156              ;*   Function Uses Regs : AC0,AC0,T0,AR0,XAR0,AR1,AR2,AR3,XAR3,SP,TC1,M40,SATA,*
    6157              ;*                        SATD,RDM,FRCT,SMUL                                   *
    6158              ;*   Stack Frame        : Compact (No Frame Pointer, w/ debug)                 *
    6159              ;*   Total Frame Size   : 8 words                                              *
    6160              ;*                        (2 return address/alignment)                         *
    6161              ;*                        (6 local values)                                     *
    6162              ;*   Min System Stack   : 1 word                                               *
    6163              ;*******************************************************************************
    6164 0010e4       _xQueueIsQueueFullFromISR:
    6165                      .dwcfi  cfa_offset, 1
    6166                      .dwcfi  save_reg_to_mem, 91, -1
    6167 0010e4 4EF9          AADD #-7, SP
    6168                      .dwcfi  cfa_offset, 8
    6169              $C$DW$542       .dwtag  DW_TAG_variable, DW_AT_name("xQueue")
    6170                      .dwattr $C$DW$542, DW_AT_TI_symbol_name("_xQueue")
    6171                      .dwattr $C$DW$542, DW_AT_type(*$C$DW$T$55)
    6172                      .dwattr $C$DW$542, DW_AT_location[DW_OP_bregx 0x24 0]
    6173              $C$DW$543       .dwtag  DW_TAG_variable, DW_AT_name("xReturn")
    6174                      .dwattr $C$DW$543, DW_AT_TI_symbol_name("_xReturn")
    6175                      .dwattr $C$DW$543, DW_AT_type(*$C$DW$T$49)
    6176                      .dwattr $C$DW$543, DW_AT_location[DW_OP_bregx 0x24 2]
    6177              $C$DW$544       .dwtag  DW_TAG_variable, DW_AT_name("pxQueue")
    6178                      .dwattr $C$DW$544, DW_AT_TI_symbol_name("_pxQueue")
TMS320C55x Assembler PC v4.4.1 Tue Sep 18 04:49:51 2018

Tools Copyright (c) 1996-2012 Texas Instruments Incorporated
queue.asm                                                            PAGE  131

    6179                      .dwattr $C$DW$544, DW_AT_type(*$C$DW$T$69)
    6180                      .dwattr $C$DW$544, DW_AT_location[DW_OP_bregx 0x24 4]
    6181 0010e6 EB00          MOV XAR0, dbl(*SP(#0))
         0010e8 85   
    6182                      .dwpsn  file "../FreeRTOS/Source/queue.c",line 2351,column 17,is_stmt
    6183 0010e9 ED00          MOV dbl(*SP(#0)), XAR3
         0010eb BF   
    6184 0010ec EB08          MOV XAR3, dbl(*SP(#4))
         0010ee B5   
    6185                      .dwpsn  file "../FreeRTOS/Source/queue.c",line 2353,column 2,is_stmt
    6186 0010ef 90B0          MOV XAR3, AC0
    6187 0010f1 6290          BCC $C$L225,AC0 != #0 ; |2353| 
    6188                                                      ; branchcc occurs ; |2353| 
    6189 0010f3 20     nop
    6190 0010f4 46B3   bset INTM
    6191 0010f6       $C$L224:    
    6192 0010f6       $C$DW$L$_xQueueIsQueueFullFromISR$3$B:
    6193 0010f6 4A7E          B $C$L224 ; |2353| 
    6194                                                      ; branch occurs ; |2353| 
    6195 0010f8       $C$DW$L$_xQueueIsQueueFullFromISR$3$E:
    6196 0010f8       $C$L225:    
    6197                      .dwpsn  file "../FreeRTOS/Source/queue.c",line 2354,column 2,is_stmt
    6198 0010f8 A96D          MOV *AR3(#29), AR1 ; |2354| 
         0010fa 001D 
    6199 0010fc AA6D          MOV *AR3(#28), AR2 ; |2354| 
         0010fe 001C 
    6200 001100 12AC          CMPU AR2 != AR1, TC1 ; |2354| 
         001102 94   
    6201 001103 62E4          BCC $C$L226,TC1 ; |2354| 
    6202                                                      ; branchcc occurs ; |2354| 
    6203                      .dwpsn  file "../FreeRTOS/Source/queue.c",line 2356,column 3,is_stmt
    6204 001105 E604          MOV #1, *SP(#2) ; |2356| 
         001107 01   
    6205                      .dwpsn  file "../FreeRTOS/Source/queue.c",line 2357,column 2,is_stmt
    6206 001108 4A03          B $C$L227 ; |2357| 
    6207                                                      ; branch occurs ; |2357| 
    6208 00110a       $C$L226:    
    6209                      .dwpsn  file "../FreeRTOS/Source/queue.c",line 2360,column 3,is_stmt
    6210 00110a E604          MOV #0, *SP(#2) ; |2360| 
         00110c 00   
    6211 00110d       $C$L227:    
    6212                      .dwpsn  file "../FreeRTOS/Source/queue.c",line 2363,column 2,is_stmt
    6213 00110d A404          MOV *SP(#2), T0 ; |2363| 
    6214                      .dwpsn  file "../FreeRTOS/Source/queue.c",line 2364,column 1,is_stmt
    6215 00110f 4E07          AADD #7, SP
    6216                      .dwcfi  cfa_offset, 1
    6217              $C$DW$545       .dwtag  DW_TAG_TI_branch
    6218                      .dwattr $C$DW$545, DW_AT_low_pc(0x00)
    6219                      .dwattr $C$DW$545, DW_AT_TI_return
    6220 001111 4804          RET
    6221                                                      ; return occurs
    6222              
    6223              $C$DW$546       .dwtag  DW_TAG_TI_loop
    6224                      .dwattr $C$DW$546, DW_AT_name("F:\eZdsp_DBG\eZDSP_5535_Files\ccsws2\test\Debug\queue.asm:$C$L224:1:15
    6225                      .dwattr $C$DW$546, DW_AT_TI_begin_file("../FreeRTOS/Source/queue.c")
TMS320C55x Assembler PC v4.4.1 Tue Sep 18 04:49:51 2018

Tools Copyright (c) 1996-2012 Texas Instruments Incorporated
queue.asm                                                            PAGE  132

    6226                      .dwattr $C$DW$546, DW_AT_TI_begin_line(0x931)
    6227                      .dwattr $C$DW$546, DW_AT_TI_end_line(0x931)
    6228              $C$DW$547       .dwtag  DW_TAG_TI_loop_range
    6229                      .dwattr $C$DW$547, DW_AT_low_pc($C$DW$L$_xQueueIsQueueFullFromISR$3$B)
    6230                      .dwattr $C$DW$547, DW_AT_high_pc($C$DW$L$_xQueueIsQueueFullFromISR$3$E)
    6231                      .dwendtag $C$DW$546
    6232              
    6233                      .dwattr $C$DW$540, DW_AT_TI_end_file("../FreeRTOS/Source/queue.c")
    6234                      .dwattr $C$DW$540, DW_AT_TI_end_line(0x93c)
    6235                      .dwattr $C$DW$540, DW_AT_TI_end_column(0x01)
    6236                      .dwendentry
    6237                      .dwendtag $C$DW$540
    6238              
    6239 001113               .sect   ".text"
    6240                      .align 4
    6241                      .global _vQueueAddToRegistry
    6242              
    6243              $C$DW$548       .dwtag  DW_TAG_subprogram, DW_AT_name("vQueueAddToRegistry")
    6244                      .dwattr $C$DW$548, DW_AT_low_pc(_vQueueAddToRegistry)
    6245                      .dwattr $C$DW$548, DW_AT_high_pc(0x00)
    6246                      .dwattr $C$DW$548, DW_AT_TI_symbol_name("_vQueueAddToRegistry")
    6247                      .dwattr $C$DW$548, DW_AT_external
    6248                      .dwattr $C$DW$548, DW_AT_TI_begin_file("../FreeRTOS/Source/queue.c")
    6249                      .dwattr $C$DW$548, DW_AT_TI_begin_line(0xa54)
    6250                      .dwattr $C$DW$548, DW_AT_TI_begin_column(0x07)
    6251                      .dwattr $C$DW$548, DW_AT_TI_max_frame_size(0x06)
    6252                      .dwpsn  file "../FreeRTOS/Source/queue.c",line 2645,column 2,is_stmt,address _vQueueAddToRegistry
    6253              
    6254                      .dwfde $C$DW$CIE, _vQueueAddToRegistry
    6255              $C$DW$549       .dwtag  DW_TAG_formal_parameter, DW_AT_name("xQueue")
    6256                      .dwattr $C$DW$549, DW_AT_TI_symbol_name("_xQueue")
    6257                      .dwattr $C$DW$549, DW_AT_type(*$C$DW$T$27)
    6258                      .dwattr $C$DW$549, DW_AT_location[DW_OP_reg17]
    6259              $C$DW$550       .dwtag  DW_TAG_formal_parameter, DW_AT_name("pcQueueName")
    6260                      .dwattr $C$DW$550, DW_AT_TI_symbol_name("_pcQueueName")
    6261                      .dwattr $C$DW$550, DW_AT_type(*$C$DW$T$25)
    6262                      .dwattr $C$DW$550, DW_AT_location[DW_OP_reg19]
    6263              ;*******************************************************************************
    6264              ;* FUNCTION NAME: vQueueAddToRegistry                                          *
    6265              ;*                                                                             *
    6266              ;*   Function Uses Regs : AC0,AC0,T0,AR0,XAR0,AR1,XAR1,AR2,XAR2,AR3,XAR3,SP,   *
    6267              ;*                        CARRY,TC1,M40,SATA,SATD,RDM,FRCT,SMUL                *
    6268              ;*   Stack Frame        : Compact (No Frame Pointer, w/ debug)                 *
    6269              ;*   Total Frame Size   : 6 words                                              *
    6270              ;*                        (1 return address/alignment)                         *
    6271              ;*                        (5 local values)                                     *
    6272              ;*   Min System Stack   : 1 word                                               *
    6273              ;*******************************************************************************
    6274 001114       _vQueueAddToRegistry:
    6275                      .dwcfi  cfa_offset, 1
    6276                      .dwcfi  save_reg_to_mem, 91, -1
    6277 001114 4EFB          AADD #-5, SP
    6278                      .dwcfi  cfa_offset, 6
    6279              $C$DW$551       .dwtag  DW_TAG_variable, DW_AT_name("xQueue")
    6280                      .dwattr $C$DW$551, DW_AT_TI_symbol_name("_xQueue")
TMS320C55x Assembler PC v4.4.1 Tue Sep 18 04:49:51 2018

Tools Copyright (c) 1996-2012 Texas Instruments Incorporated
queue.asm                                                            PAGE  133

    6281                      .dwattr $C$DW$551, DW_AT_type(*$C$DW$T$27)
    6282                      .dwattr $C$DW$551, DW_AT_location[DW_OP_bregx 0x24 0]
    6283              $C$DW$552       .dwtag  DW_TAG_variable, DW_AT_name("pcQueueName")
    6284                      .dwattr $C$DW$552, DW_AT_TI_symbol_name("_pcQueueName")
    6285                      .dwattr $C$DW$552, DW_AT_type(*$C$DW$T$25)
    6286                      .dwattr $C$DW$552, DW_AT_location[DW_OP_bregx 0x24 2]
    6287              $C$DW$553       .dwtag  DW_TAG_variable, DW_AT_name("ux")
    6288                      .dwattr $C$DW$553, DW_AT_TI_symbol_name("_ux")
    6289                      .dwattr $C$DW$553, DW_AT_type(*$C$DW$T$32)
    6290                      .dwattr $C$DW$553, DW_AT_location[DW_OP_bregx 0x24 4]
    6291 001116 EB04          MOV XAR1, dbl(*SP(#2))
         001118 95   
    6292 001119 EB00          MOV XAR0, dbl(*SP(#0))
         00111b 85   
    6293                      .dwpsn  file "../FreeRTOS/Source/queue.c",line 2650,column 8,is_stmt
    6294 00111c E608          MOV #0, *SP(#4) ; |2650| 
         00111e 00   
    6295                      .dwpsn  file "../FreeRTOS/Source/queue.c",line 2650,column 33,is_stmt
    6296              
    6297 00111f A908          MOV *SP(#4), AR1 ; |2650| 
    6298 001121 3D8A  ||      MOV #8, AR2
    6299              
    6300 001123 1298          CMPU AR1 >= AR2, TC1 ; |2650| 
         001125 A4   
    6301 001126 0464          BCC $C$L230,TC1 ; |2650| 
         001128 46   
    6302                                                      ; branchcc occurs ; |2650| 
    6303 001129       $C$L228:    
    6304 001129       $C$DW$L$_vQueueAddToRegistry$2$B:
    6305                      .dwpsn  file "../FreeRTOS/Source/queue.c",line 2652,column 4,is_stmt
    6306 001129 F908          MOV *SP(#4) << #2, AC0 ; |2652| 
         00112b 0208 
    6307 00112d 2204          MOV AC0, T0 ; |2652| 
    6308 00112f EC31          AMOV #_xQueueRegistry, XAR3 ; |2652| 
         001131 BE00 
         001133 0000-
    6309 001135 ED6B          MOV dbl(*AR3(T0)), XAR3
         001137 BF   
    6310 001138 90B0          MOV XAR3, AC0
    6311 00113a 0410          BCC $C$L229,AC0 != #0 ; |2652| 
         00113c 26   
    6312                                                      ; branchcc occurs ; |2652| 
    6313 00113d       $C$DW$L$_vQueueAddToRegistry$2$E:
    6314                      .dwpsn  file "../FreeRTOS/Source/queue.c",line 2655,column 5,is_stmt
    6315 00113d F908          MOV *SP(#4) << #2, AC0 ; |2655| 
         00113f 0208 
    6316 001141 2204          MOV AC0, T0 ; |2655| 
    6317 001143 ED04          MOV dbl(*SP(#2)), XAR2
         001145 AF   
    6318 001146 EC31          AMOV #_xQueueRegistry, XAR3 ; |2655| 
         001148 BE00 
         00114a 0000-
    6319 00114c EB6B          MOV XAR2, dbl(*AR3(T0))
         00114e A5   
    6320                      .dwpsn  file "../FreeRTOS/Source/queue.c",line 2656,column 5,is_stmt
TMS320C55x Assembler PC v4.4.1 Tue Sep 18 04:49:51 2018

Tools Copyright (c) 1996-2012 Texas Instruments Incorporated
queue.asm                                                            PAGE  134

    6321 00114f F908          MOV *SP(#4) << #2, AC0 ; |2656| 
         001151 0208 
    6322 001153 2204          MOV AC0, T0 ; |2656| 
    6323 001155 EC31          AMOV #(_xQueueRegistry+2), XAR3 ; |2656| 
         001157 BE00 
         001159 0002-
    6324 00115b ED00          MOV dbl(*SP(#0)), XAR2
         00115d AF   
    6325 00115e EB6B          MOV XAR2, dbl(*AR3(T0))
         001160 A5   
    6326                      .dwpsn  file "../FreeRTOS/Source/queue.c",line 2659,column 5,is_stmt
    6327 001161 4A0C          B $C$L230 ; |2659| 
    6328                                                      ; branch occurs ; |2659| 
    6329 001163       $C$L229:    
    6330 001163       $C$DW$L$_vQueueAddToRegistry$5$B:
    6331                      .dwpsn  file "../FreeRTOS/Source/queue.c",line 2650,column 81,is_stmt
    6332 001163 F708          ADD #1, *SP(#4) ; |2650| 
         001165 0001 
    6333                      .dwpsn  file "../FreeRTOS/Source/queue.c",line 2650,column 33,is_stmt
    6334 001167 A908          MOV *SP(#4), AR1 ; |2650| 
    6335 001169 1294          CMPU AR1 < AR2, TC1 ; |2650| 
         00116b A4   
    6336 00116c 0464          BCC $C$L228,TC1 ; |2650| 
         00116e BA   
    6337                                                      ; branchcc occurs ; |2650| 
    6338 00116f       $C$DW$L$_vQueueAddToRegistry$5$E:
    6339                      .dwpsn  file "../FreeRTOS/Source/queue.c",line 2666,column 2,is_stmt
    6340 00116f       $C$L230:    
    6341 00116f 4E05          AADD #5, SP
    6342                      .dwcfi  cfa_offset, 1
    6343              $C$DW$554       .dwtag  DW_TAG_TI_branch
    6344                      .dwattr $C$DW$554, DW_AT_low_pc(0x00)
    6345                      .dwattr $C$DW$554, DW_AT_TI_return
    6346 001171 4804          RET
    6347                                                      ; return occurs
    6348              
    6349              $C$DW$555       .dwtag  DW_TAG_TI_loop
    6350                      .dwattr $C$DW$555, DW_AT_name("F:\eZdsp_DBG\eZDSP_5535_Files\ccsws2\test\Debug\queue.asm:$C$L228:1:15
    6351                      .dwattr $C$DW$555, DW_AT_TI_begin_file("../FreeRTOS/Source/queue.c")
    6352                      .dwattr $C$DW$555, DW_AT_TI_begin_line(0xa5a)
    6353                      .dwattr $C$DW$555, DW_AT_TI_end_line(0xa69)
    6354              $C$DW$556       .dwtag  DW_TAG_TI_loop_range
    6355                      .dwattr $C$DW$556, DW_AT_low_pc($C$DW$L$_vQueueAddToRegistry$2$B)
    6356                      .dwattr $C$DW$556, DW_AT_high_pc($C$DW$L$_vQueueAddToRegistry$2$E)
    6357              $C$DW$557       .dwtag  DW_TAG_TI_loop_range
    6358                      .dwattr $C$DW$557, DW_AT_low_pc($C$DW$L$_vQueueAddToRegistry$5$B)
    6359                      .dwattr $C$DW$557, DW_AT_high_pc($C$DW$L$_vQueueAddToRegistry$5$E)
    6360                      .dwendtag $C$DW$555
    6361              
    6362                      .dwattr $C$DW$548, DW_AT_TI_end_file("../FreeRTOS/Source/queue.c")
    6363                      .dwattr $C$DW$548, DW_AT_TI_end_line(0xa6a)
    6364                      .dwattr $C$DW$548, DW_AT_TI_end_column(0x02)
    6365                      .dwendentry
    6366                      .dwendtag $C$DW$548
    6367              
TMS320C55x Assembler PC v4.4.1 Tue Sep 18 04:49:51 2018

Tools Copyright (c) 1996-2012 Texas Instruments Incorporated
queue.asm                                                            PAGE  135

    6368 001173               .sect   ".text"
    6369                      .align 4
    6370                      .global _pcQueueGetName
    6371              
    6372              $C$DW$558       .dwtag  DW_TAG_subprogram, DW_AT_name("pcQueueGetName")
    6373                      .dwattr $C$DW$558, DW_AT_low_pc(_pcQueueGetName)
    6374                      .dwattr $C$DW$558, DW_AT_high_pc(0x00)
    6375                      .dwattr $C$DW$558, DW_AT_TI_symbol_name("_pcQueueGetName")
    6376                      .dwattr $C$DW$558, DW_AT_external
    6377                      .dwattr $C$DW$558, DW_AT_type(*$C$DW$T$25)
    6378                      .dwattr $C$DW$558, DW_AT_TI_begin_file("../FreeRTOS/Source/queue.c")
    6379                      .dwattr $C$DW$558, DW_AT_TI_begin_line(0xa71)
    6380                      .dwattr $C$DW$558, DW_AT_TI_begin_column(0x0e)
    6381                      .dwattr $C$DW$558, DW_AT_TI_max_frame_size(0x08)
    6382                      .dwpsn  file "../FreeRTOS/Source/queue.c",line 2674,column 2,is_stmt,address _pcQueueGetName
    6383              
    6384                      .dwfde $C$DW$CIE, _pcQueueGetName
    6385              $C$DW$559       .dwtag  DW_TAG_formal_parameter, DW_AT_name("xQueue")
    6386                      .dwattr $C$DW$559, DW_AT_TI_symbol_name("_xQueue")
    6387                      .dwattr $C$DW$559, DW_AT_type(*$C$DW$T$27)
    6388                      .dwattr $C$DW$559, DW_AT_location[DW_OP_reg17]
    6389              ;*******************************************************************************
    6390              ;* FUNCTION NAME: pcQueueGetName                                               *
    6391              ;*                                                                             *
    6392              ;*   Function Uses Regs : AC0,AC0,AC1,AC1,T0,AR0,XAR0,AR1,AR2,AR3,XAR3,SP,     *
    6393              ;*                        CARRY,TC1,M40,SATA,SATD,RDM,FRCT,SMUL                *
    6394              ;*   Stack Frame        : Compact (No Frame Pointer, w/ debug)                 *
    6395              ;*   Total Frame Size   : 8 words                                              *
    6396              ;*                        (2 return address/alignment)                         *
    6397              ;*                        (6 local values)                                     *
    6398              ;*   Min System Stack   : 1 word                                               *
    6399              ;*******************************************************************************
    6400 001174       _pcQueueGetName:
    6401                      .dwcfi  cfa_offset, 1
    6402                      .dwcfi  save_reg_to_mem, 91, -1
    6403 001174 4EF9          AADD #-7, SP
    6404                      .dwcfi  cfa_offset, 8
    6405              $C$DW$560       .dwtag  DW_TAG_variable, DW_AT_name("xQueue")
    6406                      .dwattr $C$DW$560, DW_AT_TI_symbol_name("_xQueue")
    6407                      .dwattr $C$DW$560, DW_AT_type(*$C$DW$T$27)
    6408                      .dwattr $C$DW$560, DW_AT_location[DW_OP_bregx 0x24 0]
    6409              $C$DW$561       .dwtag  DW_TAG_variable, DW_AT_name("ux")
    6410                      .dwattr $C$DW$561, DW_AT_TI_symbol_name("_ux")
    6411                      .dwattr $C$DW$561, DW_AT_type(*$C$DW$T$32)
    6412                      .dwattr $C$DW$561, DW_AT_location[DW_OP_bregx 0x24 2]
    6413              $C$DW$562       .dwtag  DW_TAG_variable, DW_AT_name("pcReturn")
    6414                      .dwattr $C$DW$562, DW_AT_TI_symbol_name("_pcReturn")
    6415                      .dwattr $C$DW$562, DW_AT_type(*$C$DW$T$25)
    6416                      .dwattr $C$DW$562, DW_AT_location[DW_OP_bregx 0x24 4]
    6417 001176 EB00          MOV XAR0, dbl(*SP(#0))
         001178 85   
    6418                      .dwpsn  file "../FreeRTOS/Source/queue.c",line 2676,column 14,is_stmt
    6419 001179 3C00          MOV #0, AC0 ; |2676| 
    6420 00117b EB08          MOV AC0, dbl(*SP(#4))
         00117d 08   
TMS320C55x Assembler PC v4.4.1 Tue Sep 18 04:49:51 2018

Tools Copyright (c) 1996-2012 Texas Instruments Incorporated
queue.asm                                                            PAGE  136

    6421                      .dwpsn  file "../FreeRTOS/Source/queue.c",line 2680,column 8,is_stmt
    6422 00117e E604          MOV #0, *SP(#2) ; |2680| 
         001180 00   
    6423                      .dwpsn  file "../FreeRTOS/Source/queue.c",line 2680,column 33,is_stmt
    6424              
    6425 001181 A904          MOV *SP(#2), AR1 ; |2680| 
    6426 001183 3D8A  ||      MOV #8, AR2
    6427              
    6428 001185 1298          CMPU AR1 >= AR2, TC1 ; |2680| 
         001187 A4   
    6429 001188 0464          BCC $C$L233,TC1 ; |2680| 
         00118a 3C   
    6430                                                      ; branchcc occurs ; |2680| 
    6431 00118b       $C$L231:    
    6432 00118b       $C$DW$L$_pcQueueGetName$2$B:
    6433                      .dwpsn  file "../FreeRTOS/Source/queue.c",line 2682,column 4,is_stmt
    6434 00118b F904          MOV *SP(#2) << #2, AC0 ; |2682| 
         00118d 0208 
    6435 00118f 2204          MOV AC0, T0 ; |2682| 
    6436 001191 EC31          AMOV #(_xQueueRegistry+2), XAR3 ; |2682| 
         001193 BE00 
         001195 0002-
    6437 001197 ED6B          MOV dbl(*AR3(T0)), XAR3
         001199 BF   
    6438 00119a 90B1          MOV XAR3, AC1
    6439 00119c ED00          MOV dbl(*SP(#0)), XAR3
         00119e BF   
    6440 00119f 90B0          MOV XAR3, AC0
    6441 0011a1 121C          CMPU AC1 != AC0, TC1 ; |2682| 
         0011a3 04   
    6442 0011a4 0464          BCC $C$L232,TC1 ; |2682| 
         0011a6 14   
    6443                                                      ; branchcc occurs ; |2682| 
    6444 0011a7       $C$DW$L$_pcQueueGetName$2$E:
    6445                      .dwpsn  file "../FreeRTOS/Source/queue.c",line 2684,column 5,is_stmt
    6446 0011a7 F904          MOV *SP(#2) << #2, AC0 ; |2684| 
         0011a9 0208 
    6447 0011ab 2204          MOV AC0, T0 ; |2684| 
    6448 0011ad EC31          AMOV #_xQueueRegistry, XAR3 ; |2684| 
         0011af BE00 
         0011b1 0000-
    6449 0011b3 ED6B          MOV dbl(*AR3(T0)), XAR3
         0011b5 BF   
    6450 0011b6 EB08          MOV XAR3, dbl(*SP(#4))
         0011b8 B5   
    6451                      .dwpsn  file "../FreeRTOS/Source/queue.c",line 2685,column 5,is_stmt
    6452 0011b9 4A0C          B $C$L233 ; |2685| 
    6453                                                      ; branch occurs ; |2685| 
    6454 0011bb       $C$L232:    
    6455 0011bb       $C$DW$L$_pcQueueGetName$5$B:
    6456                      .dwpsn  file "../FreeRTOS/Source/queue.c",line 2680,column 81,is_stmt
    6457 0011bb F704          ADD #1, *SP(#2) ; |2680| 
         0011bd 0001 
    6458                      .dwpsn  file "../FreeRTOS/Source/queue.c",line 2680,column 33,is_stmt
    6459 0011bf A904          MOV *SP(#2), AR1 ; |2680| 
TMS320C55x Assembler PC v4.4.1 Tue Sep 18 04:49:51 2018

Tools Copyright (c) 1996-2012 Texas Instruments Incorporated
queue.asm                                                            PAGE  137

    6460 0011c1 1294          CMPU AR1 < AR2, TC1 ; |2680| 
         0011c3 A4   
    6461 0011c4 0464          BCC $C$L231,TC1 ; |2680| 
         0011c6 C4   
    6462                                                      ; branchcc occurs ; |2680| 
    6463 0011c7       $C$DW$L$_pcQueueGetName$5$E:
    6464 0011c7       $C$L233:    
    6465                      .dwpsn  file "../FreeRTOS/Source/queue.c",line 2693,column 3,is_stmt
    6466 0011c7 ED08          MOV dbl(*SP(#4)), XAR0
         0011c9 8F   
    6467                      .dwpsn  file "../FreeRTOS/Source/queue.c",line 2694,column 2,is_stmt
    6468 0011ca 4E07          AADD #7, SP
    6469                      .dwcfi  cfa_offset, 1
    6470              $C$DW$563       .dwtag  DW_TAG_TI_branch
    6471                      .dwattr $C$DW$563, DW_AT_low_pc(0x00)
    6472                      .dwattr $C$DW$563, DW_AT_TI_return
    6473 0011cc 4804          RET
    6474                                                      ; return occurs
    6475              
    6476              $C$DW$564       .dwtag  DW_TAG_TI_loop
    6477                      .dwattr $C$DW$564, DW_AT_name("F:\eZdsp_DBG\eZDSP_5535_Files\ccsws2\test\Debug\queue.asm:$C$L231:1:15
    6478                      .dwattr $C$DW$564, DW_AT_TI_begin_file("../FreeRTOS/Source/queue.c")
    6479                      .dwattr $C$DW$564, DW_AT_TI_begin_line(0xa78)
    6480                      .dwattr $C$DW$564, DW_AT_TI_end_line(0xa83)
    6481              $C$DW$565       .dwtag  DW_TAG_TI_loop_range
    6482                      .dwattr $C$DW$565, DW_AT_low_pc($C$DW$L$_pcQueueGetName$2$B)
    6483                      .dwattr $C$DW$565, DW_AT_high_pc($C$DW$L$_pcQueueGetName$2$E)
    6484              $C$DW$566       .dwtag  DW_TAG_TI_loop_range
    6485                      .dwattr $C$DW$566, DW_AT_low_pc($C$DW$L$_pcQueueGetName$5$B)
    6486                      .dwattr $C$DW$566, DW_AT_high_pc($C$DW$L$_pcQueueGetName$5$E)
    6487                      .dwendtag $C$DW$564
    6488              
    6489                      .dwattr $C$DW$558, DW_AT_TI_end_file("../FreeRTOS/Source/queue.c")
    6490                      .dwattr $C$DW$558, DW_AT_TI_end_line(0xa86)
    6491                      .dwattr $C$DW$558, DW_AT_TI_end_column(0x02)
    6492                      .dwendentry
    6493                      .dwendtag $C$DW$558
    6494              
    6495 0011ce               .sect   ".text"
    6496                      .align 4
    6497                      .global _vQueueUnregisterQueue
    6498              
    6499              $C$DW$567       .dwtag  DW_TAG_subprogram, DW_AT_name("vQueueUnregisterQueue")
    6500                      .dwattr $C$DW$567, DW_AT_low_pc(_vQueueUnregisterQueue)
    6501                      .dwattr $C$DW$567, DW_AT_high_pc(0x00)
    6502                      .dwattr $C$DW$567, DW_AT_TI_symbol_name("_vQueueUnregisterQueue")
    6503                      .dwattr $C$DW$567, DW_AT_external
    6504                      .dwattr $C$DW$567, DW_AT_TI_begin_file("../FreeRTOS/Source/queue.c")
    6505                      .dwattr $C$DW$567, DW_AT_TI_begin_line(0xa8d)
    6506                      .dwattr $C$DW$567, DW_AT_TI_begin_column(0x07)
    6507                      .dwattr $C$DW$567, DW_AT_TI_max_frame_size(0x04)
    6508                      .dwpsn  file "../FreeRTOS/Source/queue.c",line 2702,column 2,is_stmt,address _vQueueUnregisterQueue
    6509              
    6510                      .dwfde $C$DW$CIE, _vQueueUnregisterQueue
    6511              $C$DW$568       .dwtag  DW_TAG_formal_parameter, DW_AT_name("xQueue")
TMS320C55x Assembler PC v4.4.1 Tue Sep 18 04:49:51 2018

Tools Copyright (c) 1996-2012 Texas Instruments Incorporated
queue.asm                                                            PAGE  138

    6512                      .dwattr $C$DW$568, DW_AT_TI_symbol_name("_xQueue")
    6513                      .dwattr $C$DW$568, DW_AT_type(*$C$DW$T$27)
    6514                      .dwattr $C$DW$568, DW_AT_location[DW_OP_reg17]
    6515              ;*******************************************************************************
    6516              ;* FUNCTION NAME: vQueueUnregisterQueue                                        *
    6517              ;*                                                                             *
    6518              ;*   Function Uses Regs : AC0,AC0,AC1,AC1,T0,AR0,XAR0,AR1,AR2,AR3,XAR3,SP,     *
    6519              ;*                        CARRY,TC1,M40,SATA,SATD,RDM,FRCT,SMUL                *
    6520              ;*   Stack Frame        : Compact (No Frame Pointer, w/ debug)                 *
    6521              ;*   Total Frame Size   : 4 words                                              *
    6522              ;*                        (1 return address/alignment)                         *
    6523              ;*                        (3 local values)                                     *
    6524              ;*   Min System Stack   : 1 word                                               *
    6525              ;*******************************************************************************
    6526 0011d0       _vQueueUnregisterQueue:
    6527                      .dwcfi  cfa_offset, 1
    6528                      .dwcfi  save_reg_to_mem, 91, -1
    6529 0011d0 4EFD          AADD #-3, SP
    6530                      .dwcfi  cfa_offset, 4
    6531              $C$DW$569       .dwtag  DW_TAG_variable, DW_AT_name("xQueue")
    6532                      .dwattr $C$DW$569, DW_AT_TI_symbol_name("_xQueue")
    6533                      .dwattr $C$DW$569, DW_AT_type(*$C$DW$T$27)
    6534                      .dwattr $C$DW$569, DW_AT_location[DW_OP_bregx 0x24 0]
    6535              $C$DW$570       .dwtag  DW_TAG_variable, DW_AT_name("ux")
    6536                      .dwattr $C$DW$570, DW_AT_TI_symbol_name("_ux")
    6537                      .dwattr $C$DW$570, DW_AT_type(*$C$DW$T$32)
    6538                      .dwattr $C$DW$570, DW_AT_location[DW_OP_bregx 0x24 2]
    6539 0011d2 EB00          MOV XAR0, dbl(*SP(#0))
         0011d4 85   
    6540                      .dwpsn  file "../FreeRTOS/Source/queue.c",line 2707,column 8,is_stmt
    6541 0011d5 E604          MOV #0, *SP(#2) ; |2707| 
         0011d7 00   
    6542                      .dwpsn  file "../FreeRTOS/Source/queue.c",line 2707,column 33,is_stmt
    6543              
    6544 0011d8 A904          MOV *SP(#2), AR1 ; |2707| 
    6545 0011da 3D8A  ||      MOV #8, AR2
    6546              
    6547 0011dc 1298          CMPU AR1 >= AR2, TC1 ; |2707| 
         0011de A4   
    6548 0011df 0464          BCC $C$L236,TC1 ; |2707| 
         0011e1 4A   
    6549                                                      ; branchcc occurs ; |2707| 
    6550 0011e2       $C$L234:    
    6551 0011e2       $C$DW$L$_vQueueUnregisterQueue$2$B:
    6552                      .dwpsn  file "../FreeRTOS/Source/queue.c",line 2709,column 4,is_stmt
    6553 0011e2 F904          MOV *SP(#2) << #2, AC0 ; |2709| 
         0011e4 0208 
    6554 0011e6 2204          MOV AC0, T0 ; |2709| 
    6555 0011e8 EC31          AMOV #(_xQueueRegistry+2), XAR3 ; |2709| 
         0011ea BE00 
         0011ec 0002-
    6556 0011ee ED6B          MOV dbl(*AR3(T0)), XAR3
         0011f0 BF   
    6557 0011f1 90B1          MOV XAR3, AC1
    6558 0011f3 ED00          MOV dbl(*SP(#0)), XAR3
TMS320C55x Assembler PC v4.4.1 Tue Sep 18 04:49:51 2018

Tools Copyright (c) 1996-2012 Texas Instruments Incorporated
queue.asm                                                            PAGE  139

         0011f5 BF   
    6559 0011f6 90B0          MOV XAR3, AC0
    6560 0011f8 121C          CMPU AC1 != AC0, TC1 ; |2709| 
         0011fa 04   
    6561 0011fb 0464          BCC $C$L235,TC1 ; |2709| 
         0011fd 22   
    6562                                                      ; branchcc occurs ; |2709| 
    6563 0011fe       $C$DW$L$_vQueueUnregisterQueue$2$E:
    6564                      .dwpsn  file "../FreeRTOS/Source/queue.c",line 2712,column 5,is_stmt
    6565 0011fe F904          MOV *SP(#2) << #2, AC0 ; |2712| 
         001200 0208 
    6566 001202 2204          MOV AC0, T0 ; |2712| 
    6567 001204 3C01          MOV #0, AC1 ; |2712| 
    6568 001206 EC31          AMOV #_xQueueRegistry, XAR3 ; |2712| 
         001208 BE00 
         00120a 0000-
    6569 00120c EB6B          MOV AC1, dbl(*AR3(T0))
         00120e 18   
    6570                      .dwpsn  file "../FreeRTOS/Source/queue.c",line 2717,column 5,is_stmt
    6571 00120f F904          MOV *SP(#2) << #2, AC0 ; |2717| 
         001211 0208 
    6572 001213 2204          MOV AC0, T0 ; |2717| 
    6573 001215 EC31          AMOV #(_xQueueRegistry+2), XAR3 ; |2717| 
         001217 BE00 
         001219 0002-
    6574 00121b EB6B          MOV AC1, dbl(*AR3(T0))
         00121d 18   
    6575                      .dwpsn  file "../FreeRTOS/Source/queue.c",line 2718,column 5,is_stmt
    6576 00121e 4A0C          B $C$L236 ; |2718| 
    6577                                                      ; branch occurs ; |2718| 
    6578 001220       $C$L235:    
    6579 001220       $C$DW$L$_vQueueUnregisterQueue$5$B:
    6580                      .dwpsn  file "../FreeRTOS/Source/queue.c",line 2707,column 81,is_stmt
    6581 001220 F704          ADD #1, *SP(#2) ; |2707| 
         001222 0001 
    6582                      .dwpsn  file "../FreeRTOS/Source/queue.c",line 2707,column 33,is_stmt
    6583 001224 A904          MOV *SP(#2), AR1 ; |2707| 
    6584 001226 1294          CMPU AR1 < AR2, TC1 ; |2707| 
         001228 A4   
    6585 001229 0464          BCC $C$L234,TC1 ; |2707| 
         00122b B6   
    6586                                                      ; branchcc occurs ; |2707| 
    6587 00122c       $C$DW$L$_vQueueUnregisterQueue$5$E:
    6588                      .dwpsn  file "../FreeRTOS/Source/queue.c",line 2726,column 2,is_stmt
    6589 00122c       $C$L236:    
    6590 00122c 4E03          AADD #3, SP
    6591                      .dwcfi  cfa_offset, 1
    6592              $C$DW$571       .dwtag  DW_TAG_TI_branch
    6593                      .dwattr $C$DW$571, DW_AT_low_pc(0x00)
    6594                      .dwattr $C$DW$571, DW_AT_TI_return
    6595 00122e 4804          RET
    6596                                                      ; return occurs
    6597              
    6598              $C$DW$572       .dwtag  DW_TAG_TI_loop
    6599                      .dwattr $C$DW$572, DW_AT_name("F:\eZdsp_DBG\eZDSP_5535_Files\ccsws2\test\Debug\queue.asm:$C$L234:1:15
TMS320C55x Assembler PC v4.4.1 Tue Sep 18 04:49:51 2018

Tools Copyright (c) 1996-2012 Texas Instruments Incorporated
queue.asm                                                            PAGE  140

    6600                      .dwattr $C$DW$572, DW_AT_TI_begin_file("../FreeRTOS/Source/queue.c")
    6601                      .dwattr $C$DW$572, DW_AT_TI_begin_line(0xa93)
    6602                      .dwattr $C$DW$572, DW_AT_TI_end_line(0xaa4)
    6603              $C$DW$573       .dwtag  DW_TAG_TI_loop_range
    6604                      .dwattr $C$DW$573, DW_AT_low_pc($C$DW$L$_vQueueUnregisterQueue$2$B)
    6605                      .dwattr $C$DW$573, DW_AT_high_pc($C$DW$L$_vQueueUnregisterQueue$2$E)
    6606              $C$DW$574       .dwtag  DW_TAG_TI_loop_range
    6607                      .dwattr $C$DW$574, DW_AT_low_pc($C$DW$L$_vQueueUnregisterQueue$5$B)
    6608                      .dwattr $C$DW$574, DW_AT_high_pc($C$DW$L$_vQueueUnregisterQueue$5$E)
    6609                      .dwendtag $C$DW$572
    6610              
    6611                      .dwattr $C$DW$567, DW_AT_TI_end_file("../FreeRTOS/Source/queue.c")
    6612                      .dwattr $C$DW$567, DW_AT_TI_end_line(0xaa6)
    6613                      .dwattr $C$DW$567, DW_AT_TI_end_column(0x02)
    6614                      .dwendentry
    6615                      .dwendtag $C$DW$567
    6616              
    6617              ;******************************************************************************
    6618              ;* UNDEFINED EXTERNAL REFERENCES                                              *
    6619              ;******************************************************************************
    6620                      .global _vPortYield
    6621                      .global _pvPortMalloc
    6622                      .global _vPortFree
    6623                      .global _vListInitialise
    6624                      .global _vTaskSuspendAll
    6625                      .global _xTaskResumeAll
    6626                      .global _vTaskPlaceOnEventList
    6627                      .global _xTaskRemoveFromEventList
    6628                      .global _xTaskGetCurrentTaskHandle
    6629                      .global _xTaskCheckForTimeOut
    6630                      .global _vTaskMissedYield
    6631                      .global _xTaskPriorityInherit
    6632                      .global _xTaskPriorityDisinherit
    6633                      .global _vTaskPriorityDisinheritAfterTimeout
    6634                      .global _pvTaskIncrementMutexHeldCount
    6635                      .global _vTaskInternalSetTimeOutState
    6636                      .global _usCriticalNesting
    6637                      .global _memcpy
    6638              
    6639              ;*******************************************************************************
    6640              ;* TYPE INFORMATION                                                            *
    6641              ;*******************************************************************************
    6642              
    6643              $C$DW$T$22      .dwtag  DW_TAG_union_type
    6644                      .dwattr $C$DW$T$22, DW_AT_byte_size(0x04)
    6645              $C$DW$575       .dwtag  DW_TAG_member
    6646                      .dwattr $C$DW$575, DW_AT_type(*$C$DW$T$20)
    6647                      .dwattr $C$DW$575, DW_AT_name("xQueue")
    6648                      .dwattr $C$DW$575, DW_AT_TI_symbol_name("_xQueue")
    6649                      .dwattr $C$DW$575, DW_AT_data_member_location[DW_OP_plus_uconst 0x0]
    6650                      .dwattr $C$DW$575, DW_AT_accessibility(DW_ACCESS_public)
    6651              $C$DW$576       .dwtag  DW_TAG_member
    6652                      .dwattr $C$DW$576, DW_AT_type(*$C$DW$T$21)
    6653                      .dwattr $C$DW$576, DW_AT_name("xSemaphore")
    6654                      .dwattr $C$DW$576, DW_AT_TI_symbol_name("_xSemaphore")
TMS320C55x Assembler PC v4.4.1 Tue Sep 18 04:49:51 2018

Tools Copyright (c) 1996-2012 Texas Instruments Incorporated
queue.asm                                                            PAGE  141

    6655                      .dwattr $C$DW$576, DW_AT_data_member_location[DW_OP_plus_uconst 0x0]
    6656                      .dwattr $C$DW$576, DW_AT_accessibility(DW_ACCESS_public)
    6657                      .dwendtag $C$DW$T$22
    6658              
    6659              
    6660              $C$DW$T$28      .dwtag  DW_TAG_structure_type
    6661                      .dwattr $C$DW$T$28, DW_AT_name("QUEUE_REGISTRY_ITEM")
    6662                      .dwattr $C$DW$T$28, DW_AT_byte_size(0x04)
    6663              $C$DW$577       .dwtag  DW_TAG_member
    6664                      .dwattr $C$DW$577, DW_AT_type(*$C$DW$T$25)
    6665                      .dwattr $C$DW$577, DW_AT_name("pcQueueName")
    6666                      .dwattr $C$DW$577, DW_AT_TI_symbol_name("_pcQueueName")
    6667                      .dwattr $C$DW$577, DW_AT_data_member_location[DW_OP_plus_uconst 0x0]
    6668                      .dwattr $C$DW$577, DW_AT_accessibility(DW_ACCESS_public)
    6669              $C$DW$578       .dwtag  DW_TAG_member
    6670                      .dwattr $C$DW$578, DW_AT_type(*$C$DW$T$27)
    6671                      .dwattr $C$DW$578, DW_AT_name("xHandle")
    6672                      .dwattr $C$DW$578, DW_AT_TI_symbol_name("_xHandle")
    6673                      .dwattr $C$DW$578, DW_AT_data_member_location[DW_OP_plus_uconst 0x2]
    6674                      .dwattr $C$DW$578, DW_AT_accessibility(DW_ACCESS_public)
    6675                      .dwendtag $C$DW$T$28
    6676              
    6677              $C$DW$T$51      .dwtag  DW_TAG_typedef, DW_AT_name("xQueueRegistryItem")
    6678                      .dwattr $C$DW$T$51, DW_AT_type(*$C$DW$T$28)
    6679                      .dwattr $C$DW$T$51, DW_AT_language(DW_LANG_C)
    6680              $C$DW$T$52      .dwtag  DW_TAG_typedef, DW_AT_name("QueueRegistryItem_t")
    6681                      .dwattr $C$DW$T$52, DW_AT_type(*$C$DW$T$51)
    6682                      .dwattr $C$DW$T$52, DW_AT_language(DW_LANG_C)
    6683              
    6684              $C$DW$T$53      .dwtag  DW_TAG_array_type
    6685                      .dwattr $C$DW$T$53, DW_AT_type(*$C$DW$T$52)
    6686                      .dwattr $C$DW$T$53, DW_AT_language(DW_LANG_C)
    6687                      .dwattr $C$DW$T$53, DW_AT_byte_size(0x20)
    6688              $C$DW$579       .dwtag  DW_TAG_subrange_type
    6689                      .dwattr $C$DW$579, DW_AT_upper_bound(0x07)
    6690                      .dwendtag $C$DW$T$53
    6691              
    6692              
    6693              $C$DW$T$35      .dwtag  DW_TAG_structure_type
    6694                      .dwattr $C$DW$T$35, DW_AT_name("QueueDefinition")
    6695                      .dwattr $C$DW$T$35, DW_AT_byte_size(0x22)
    6696              $C$DW$580       .dwtag  DW_TAG_member
    6697                      .dwattr $C$DW$580, DW_AT_type(*$C$DW$T$30)
    6698                      .dwattr $C$DW$580, DW_AT_name("pcHead")
    6699                      .dwattr $C$DW$580, DW_AT_TI_symbol_name("_pcHead")
    6700                      .dwattr $C$DW$580, DW_AT_data_member_location[DW_OP_plus_uconst 0x0]
    6701                      .dwattr $C$DW$580, DW_AT_accessibility(DW_ACCESS_public)
    6702              $C$DW$581       .dwtag  DW_TAG_member
    6703                      .dwattr $C$DW$581, DW_AT_type(*$C$DW$T$30)
    6704                      .dwattr $C$DW$581, DW_AT_name("pcWriteTo")
    6705                      .dwattr $C$DW$581, DW_AT_TI_symbol_name("_pcWriteTo")
    6706                      .dwattr $C$DW$581, DW_AT_data_member_location[DW_OP_plus_uconst 0x2]
    6707                      .dwattr $C$DW$581, DW_AT_accessibility(DW_ACCESS_public)
    6708              $C$DW$582       .dwtag  DW_TAG_member
    6709                      .dwattr $C$DW$582, DW_AT_type(*$C$DW$T$22)
TMS320C55x Assembler PC v4.4.1 Tue Sep 18 04:49:51 2018

Tools Copyright (c) 1996-2012 Texas Instruments Incorporated
queue.asm                                                            PAGE  142

    6710                      .dwattr $C$DW$582, DW_AT_name("u")
    6711                      .dwattr $C$DW$582, DW_AT_TI_symbol_name("_u")
    6712                      .dwattr $C$DW$582, DW_AT_data_member_location[DW_OP_plus_uconst 0x4]
    6713                      .dwattr $C$DW$582, DW_AT_accessibility(DW_ACCESS_public)
    6714              $C$DW$583       .dwtag  DW_TAG_member
    6715                      .dwattr $C$DW$583, DW_AT_type(*$C$DW$T$31)
    6716                      .dwattr $C$DW$583, DW_AT_name("xTasksWaitingToSend")
    6717                      .dwattr $C$DW$583, DW_AT_TI_symbol_name("_xTasksWaitingToSend")
    6718                      .dwattr $C$DW$583, DW_AT_data_member_location[DW_OP_plus_uconst 0x8]
    6719                      .dwattr $C$DW$583, DW_AT_accessibility(DW_ACCESS_public)
    6720              $C$DW$584       .dwtag  DW_TAG_member
    6721                      .dwattr $C$DW$584, DW_AT_type(*$C$DW$T$31)
    6722                      .dwattr $C$DW$584, DW_AT_name("xTasksWaitingToReceive")
    6723                      .dwattr $C$DW$584, DW_AT_TI_symbol_name("_xTasksWaitingToReceive")
    6724                      .dwattr $C$DW$584, DW_AT_data_member_location[DW_OP_plus_uconst 0x12]
    6725                      .dwattr $C$DW$584, DW_AT_accessibility(DW_ACCESS_public)
    6726              $C$DW$585       .dwtag  DW_TAG_member
    6727                      .dwattr $C$DW$585, DW_AT_type(*$C$DW$T$33)
    6728                      .dwattr $C$DW$585, DW_AT_name("uxMessagesWaiting")
    6729                      .dwattr $C$DW$585, DW_AT_TI_symbol_name("_uxMessagesWaiting")
    6730                      .dwattr $C$DW$585, DW_AT_data_member_location[DW_OP_plus_uconst 0x1c]
    6731                      .dwattr $C$DW$585, DW_AT_accessibility(DW_ACCESS_public)
    6732              $C$DW$586       .dwtag  DW_TAG_member
    6733                      .dwattr $C$DW$586, DW_AT_type(*$C$DW$T$32)
    6734                      .dwattr $C$DW$586, DW_AT_name("uxLength")
    6735                      .dwattr $C$DW$586, DW_AT_TI_symbol_name("_uxLength")
    6736                      .dwattr $C$DW$586, DW_AT_data_member_location[DW_OP_plus_uconst 0x1d]
    6737                      .dwattr $C$DW$586, DW_AT_accessibility(DW_ACCESS_public)
    6738              $C$DW$587       .dwtag  DW_TAG_member
    6739                      .dwattr $C$DW$587, DW_AT_type(*$C$DW$T$32)
    6740                      .dwattr $C$DW$587, DW_AT_name("uxItemSize")
    6741                      .dwattr $C$DW$587, DW_AT_TI_symbol_name("_uxItemSize")
    6742                      .dwattr $C$DW$587, DW_AT_data_member_location[DW_OP_plus_uconst 0x1e]
    6743                      .dwattr $C$DW$587, DW_AT_accessibility(DW_ACCESS_public)
    6744              $C$DW$588       .dwtag  DW_TAG_member
    6745                      .dwattr $C$DW$588, DW_AT_type(*$C$DW$T$34)
    6746                      .dwattr $C$DW$588, DW_AT_name("cRxLock")
    6747                      .dwattr $C$DW$588, DW_AT_TI_symbol_name("_cRxLock")
    6748                      .dwattr $C$DW$588, DW_AT_data_member_location[DW_OP_plus_uconst 0x1f]
    6749                      .dwattr $C$DW$588, DW_AT_accessibility(DW_ACCESS_public)
    6750              $C$DW$589       .dwtag  DW_TAG_member
    6751                      .dwattr $C$DW$589, DW_AT_type(*$C$DW$T$34)
    6752                      .dwattr $C$DW$589, DW_AT_name("cTxLock")
    6753                      .dwattr $C$DW$589, DW_AT_TI_symbol_name("_cTxLock")
    6754                      .dwattr $C$DW$589, DW_AT_data_member_location[DW_OP_plus_uconst 0x20]
    6755                      .dwattr $C$DW$589, DW_AT_accessibility(DW_ACCESS_public)
    6756                      .dwendtag $C$DW$T$35
    6757              
    6758              $C$DW$T$26      .dwtag  DW_TAG_pointer_type
    6759                      .dwattr $C$DW$T$26, DW_AT_type(*$C$DW$T$35)
    6760                      .dwattr $C$DW$T$26, DW_AT_address_class(0x17)
    6761              $C$DW$T$27      .dwtag  DW_TAG_typedef, DW_AT_name("QueueHandle_t")
    6762                      .dwattr $C$DW$T$27, DW_AT_type(*$C$DW$T$26)
    6763                      .dwattr $C$DW$T$27, DW_AT_language(DW_LANG_C)
    6764              $C$DW$590       .dwtag  DW_TAG_TI_far_type
TMS320C55x Assembler PC v4.4.1 Tue Sep 18 04:49:51 2018

Tools Copyright (c) 1996-2012 Texas Instruments Incorporated
queue.asm                                                            PAGE  143

    6765                      .dwattr $C$DW$590, DW_AT_type(*$C$DW$T$27)
    6766              $C$DW$T$55      .dwtag  DW_TAG_const_type
    6767                      .dwattr $C$DW$T$55, DW_AT_type(*$C$DW$590)
    6768              $C$DW$T$63      .dwtag  DW_TAG_typedef, DW_AT_name("xQUEUE")
    6769                      .dwattr $C$DW$T$63, DW_AT_type(*$C$DW$T$35)
    6770                      .dwattr $C$DW$T$63, DW_AT_language(DW_LANG_C)
    6771              $C$DW$T$64      .dwtag  DW_TAG_typedef, DW_AT_name("Queue_t")
    6772                      .dwattr $C$DW$T$64, DW_AT_type(*$C$DW$T$63)
    6773                      .dwattr $C$DW$T$64, DW_AT_language(DW_LANG_C)
    6774              $C$DW$591       .dwtag  DW_TAG_TI_far_type
    6775                      .dwattr $C$DW$591, DW_AT_type(*$C$DW$T$64)
    6776              $C$DW$T$65      .dwtag  DW_TAG_const_type
    6777                      .dwattr $C$DW$T$65, DW_AT_type(*$C$DW$591)
    6778              $C$DW$T$66      .dwtag  DW_TAG_pointer_type
    6779                      .dwattr $C$DW$T$66, DW_AT_type(*$C$DW$T$65)
    6780                      .dwattr $C$DW$T$66, DW_AT_address_class(0x17)
    6781              $C$DW$592       .dwtag  DW_TAG_TI_far_type
    6782                      .dwattr $C$DW$592, DW_AT_type(*$C$DW$T$66)
    6783              $C$DW$T$67      .dwtag  DW_TAG_const_type
    6784                      .dwattr $C$DW$T$67, DW_AT_type(*$C$DW$592)
    6785              $C$DW$T$68      .dwtag  DW_TAG_pointer_type
    6786                      .dwattr $C$DW$T$68, DW_AT_type(*$C$DW$T$64)
    6787                      .dwattr $C$DW$T$68, DW_AT_address_class(0x17)
    6788              $C$DW$593       .dwtag  DW_TAG_TI_far_type
    6789                      .dwattr $C$DW$593, DW_AT_type(*$C$DW$T$68)
    6790              $C$DW$T$69      .dwtag  DW_TAG_const_type
    6791                      .dwattr $C$DW$T$69, DW_AT_type(*$C$DW$593)
    6792              
    6793              $C$DW$T$36      .dwtag  DW_TAG_structure_type
    6794                      .dwattr $C$DW$T$36, DW_AT_name("QueuePointers")
    6795                      .dwattr $C$DW$T$36, DW_AT_byte_size(0x04)
    6796              $C$DW$594       .dwtag  DW_TAG_member
    6797                      .dwattr $C$DW$594, DW_AT_type(*$C$DW$T$30)
    6798                      .dwattr $C$DW$594, DW_AT_name("pcTail")
    6799                      .dwattr $C$DW$594, DW_AT_TI_symbol_name("_pcTail")
    6800                      .dwattr $C$DW$594, DW_AT_data_member_location[DW_OP_plus_uconst 0x0]
    6801                      .dwattr $C$DW$594, DW_AT_accessibility(DW_ACCESS_public)
    6802              $C$DW$595       .dwtag  DW_TAG_member
    6803                      .dwattr $C$DW$595, DW_AT_type(*$C$DW$T$30)
    6804                      .dwattr $C$DW$595, DW_AT_name("pcReadFrom")
    6805                      .dwattr $C$DW$595, DW_AT_TI_symbol_name("_pcReadFrom")
    6806                      .dwattr $C$DW$595, DW_AT_data_member_location[DW_OP_plus_uconst 0x2]
    6807                      .dwattr $C$DW$595, DW_AT_accessibility(DW_ACCESS_public)
    6808                      .dwendtag $C$DW$T$36
    6809              
    6810              $C$DW$T$20      .dwtag  DW_TAG_typedef, DW_AT_name("QueuePointers_t")
    6811                      .dwattr $C$DW$T$20, DW_AT_type(*$C$DW$T$36)
    6812                      .dwattr $C$DW$T$20, DW_AT_language(DW_LANG_C)
    6813              
    6814              $C$DW$T$39      .dwtag  DW_TAG_structure_type
    6815                      .dwattr $C$DW$T$39, DW_AT_name("SemaphoreData")
    6816                      .dwattr $C$DW$T$39, DW_AT_byte_size(0x04)
    6817              $C$DW$596       .dwtag  DW_TAG_member
    6818                      .dwattr $C$DW$596, DW_AT_type(*$C$DW$T$38)
    6819                      .dwattr $C$DW$596, DW_AT_name("xMutexHolder")
TMS320C55x Assembler PC v4.4.1 Tue Sep 18 04:49:51 2018

Tools Copyright (c) 1996-2012 Texas Instruments Incorporated
queue.asm                                                            PAGE  144

    6820                      .dwattr $C$DW$596, DW_AT_TI_symbol_name("_xMutexHolder")
    6821                      .dwattr $C$DW$596, DW_AT_data_member_location[DW_OP_plus_uconst 0x0]
    6822                      .dwattr $C$DW$596, DW_AT_accessibility(DW_ACCESS_public)
    6823              $C$DW$597       .dwtag  DW_TAG_member
    6824                      .dwattr $C$DW$597, DW_AT_type(*$C$DW$T$32)
    6825                      .dwattr $C$DW$597, DW_AT_name("uxRecursiveCallCount")
    6826                      .dwattr $C$DW$597, DW_AT_TI_symbol_name("_uxRecursiveCallCount")
    6827                      .dwattr $C$DW$597, DW_AT_data_member_location[DW_OP_plus_uconst 0x2]
    6828                      .dwattr $C$DW$597, DW_AT_accessibility(DW_ACCESS_public)
    6829                      .dwendtag $C$DW$T$39
    6830              
    6831              $C$DW$T$21      .dwtag  DW_TAG_typedef, DW_AT_name("SemaphoreData_t")
    6832                      .dwattr $C$DW$T$21, DW_AT_type(*$C$DW$T$39)
    6833                      .dwattr $C$DW$T$21, DW_AT_language(DW_LANG_C)
    6834              $C$DW$T$3       .dwtag  DW_TAG_pointer_type
    6835                      .dwattr $C$DW$T$3, DW_AT_address_class(0x17)
    6836              $C$DW$598       .dwtag  DW_TAG_TI_far_type
    6837                      .dwattr $C$DW$598, DW_AT_type(*$C$DW$T$3)
    6838              $C$DW$T$76      .dwtag  DW_TAG_const_type
    6839                      .dwattr $C$DW$T$76, DW_AT_type(*$C$DW$598)
    6840              $C$DW$599       .dwtag  DW_TAG_TI_far_type
    6841              $C$DW$T$70      .dwtag  DW_TAG_const_type
    6842                      .dwattr $C$DW$T$70, DW_AT_type(*$C$DW$599)
    6843              $C$DW$T$71      .dwtag  DW_TAG_pointer_type
    6844                      .dwattr $C$DW$T$71, DW_AT_type(*$C$DW$T$70)
    6845                      .dwattr $C$DW$T$71, DW_AT_address_class(0x17)
    6846              $C$DW$600       .dwtag  DW_TAG_TI_far_type
    6847                      .dwattr $C$DW$600, DW_AT_type(*$C$DW$T$71)
    6848              $C$DW$T$77      .dwtag  DW_TAG_const_type
    6849                      .dwattr $C$DW$T$77, DW_AT_type(*$C$DW$600)
    6850              $C$DW$T$4       .dwtag  DW_TAG_base_type
    6851                      .dwattr $C$DW$T$4, DW_AT_encoding(DW_ATE_boolean)
    6852                      .dwattr $C$DW$T$4, DW_AT_name("bool")
    6853                      .dwattr $C$DW$T$4, DW_AT_byte_size(0x01)
    6854              $C$DW$T$5       .dwtag  DW_TAG_base_type
    6855                      .dwattr $C$DW$T$5, DW_AT_encoding(DW_ATE_signed_char)
    6856                      .dwattr $C$DW$T$5, DW_AT_name("signed char")
    6857                      .dwattr $C$DW$T$5, DW_AT_byte_size(0x01)
    6858              $C$DW$T$29      .dwtag  DW_TAG_typedef, DW_AT_name("int8_t")
    6859                      .dwattr $C$DW$T$29, DW_AT_type(*$C$DW$T$5)
    6860                      .dwattr $C$DW$T$29, DW_AT_language(DW_LANG_C)
    6861              $C$DW$T$30      .dwtag  DW_TAG_pointer_type
    6862                      .dwattr $C$DW$T$30, DW_AT_type(*$C$DW$T$29)
    6863                      .dwattr $C$DW$T$30, DW_AT_address_class(0x17)
    6864              $C$DW$601       .dwtag  DW_TAG_TI_far_type
    6865                      .dwattr $C$DW$601, DW_AT_type(*$C$DW$T$29)
    6866              $C$DW$T$34      .dwtag  DW_TAG_volatile_type
    6867                      .dwattr $C$DW$T$34, DW_AT_type(*$C$DW$601)
    6868              $C$DW$602       .dwtag  DW_TAG_TI_far_type
    6869                      .dwattr $C$DW$602, DW_AT_type(*$C$DW$T$29)
    6870              $C$DW$T$109     .dwtag  DW_TAG_const_type
    6871                      .dwattr $C$DW$T$109, DW_AT_type(*$C$DW$602)
    6872              $C$DW$T$6       .dwtag  DW_TAG_base_type
    6873                      .dwattr $C$DW$T$6, DW_AT_encoding(DW_ATE_unsigned_char)
    6874                      .dwattr $C$DW$T$6, DW_AT_name("unsigned char")
TMS320C55x Assembler PC v4.4.1 Tue Sep 18 04:49:51 2018

Tools Copyright (c) 1996-2012 Texas Instruments Incorporated
queue.asm                                                            PAGE  145

    6875                      .dwattr $C$DW$T$6, DW_AT_byte_size(0x01)
    6876              $C$DW$T$57      .dwtag  DW_TAG_typedef, DW_AT_name("uint8_t")
    6877                      .dwattr $C$DW$T$57, DW_AT_type(*$C$DW$T$6)
    6878                      .dwattr $C$DW$T$57, DW_AT_language(DW_LANG_C)
    6879              $C$DW$T$97      .dwtag  DW_TAG_pointer_type
    6880                      .dwattr $C$DW$T$97, DW_AT_type(*$C$DW$T$57)
    6881                      .dwattr $C$DW$T$97, DW_AT_address_class(0x17)
    6882              $C$DW$603       .dwtag  DW_TAG_TI_far_type
    6883                      .dwattr $C$DW$603, DW_AT_type(*$C$DW$T$57)
    6884              $C$DW$T$58      .dwtag  DW_TAG_const_type
    6885                      .dwattr $C$DW$T$58, DW_AT_type(*$C$DW$603)
    6886              $C$DW$T$7       .dwtag  DW_TAG_base_type
    6887                      .dwattr $C$DW$T$7, DW_AT_encoding(DW_ATE_signed_char)
    6888                      .dwattr $C$DW$T$7, DW_AT_name("wchar_t")
    6889                      .dwattr $C$DW$T$7, DW_AT_byte_size(0x01)
    6890              $C$DW$T$8       .dwtag  DW_TAG_base_type
    6891                      .dwattr $C$DW$T$8, DW_AT_encoding(DW_ATE_signed)
    6892                      .dwattr $C$DW$T$8, DW_AT_name("short")
    6893                      .dwattr $C$DW$T$8, DW_AT_byte_size(0x01)
    6894              $C$DW$T$49      .dwtag  DW_TAG_typedef, DW_AT_name("BaseType_t")
    6895                      .dwattr $C$DW$T$49, DW_AT_type(*$C$DW$T$8)
    6896                      .dwattr $C$DW$T$49, DW_AT_language(DW_LANG_C)
    6897              $C$DW$604       .dwtag  DW_TAG_TI_far_type
    6898                      .dwattr $C$DW$604, DW_AT_type(*$C$DW$T$49)
    6899              $C$DW$T$110     .dwtag  DW_TAG_const_type
    6900                      .dwattr $C$DW$T$110, DW_AT_type(*$C$DW$604)
    6901              $C$DW$T$131     .dwtag  DW_TAG_pointer_type
    6902                      .dwattr $C$DW$T$131, DW_AT_type(*$C$DW$T$49)
    6903                      .dwattr $C$DW$T$131, DW_AT_address_class(0x17)
    6904              $C$DW$605       .dwtag  DW_TAG_TI_far_type
    6905                      .dwattr $C$DW$605, DW_AT_type(*$C$DW$T$131)
    6906              $C$DW$T$132     .dwtag  DW_TAG_const_type
    6907                      .dwattr $C$DW$T$132, DW_AT_type(*$C$DW$605)
    6908              $C$DW$T$9       .dwtag  DW_TAG_base_type
    6909                      .dwattr $C$DW$T$9, DW_AT_encoding(DW_ATE_unsigned)
    6910                      .dwattr $C$DW$T$9, DW_AT_name("unsigned short")
    6911                      .dwattr $C$DW$T$9, DW_AT_byte_size(0x01)
    6912              $C$DW$T$32      .dwtag  DW_TAG_typedef, DW_AT_name("UBaseType_t")
    6913                      .dwattr $C$DW$T$32, DW_AT_type(*$C$DW$T$9)
    6914                      .dwattr $C$DW$T$32, DW_AT_language(DW_LANG_C)
    6915              $C$DW$606       .dwtag  DW_TAG_TI_far_type
    6916                      .dwattr $C$DW$606, DW_AT_type(*$C$DW$T$32)
    6917              $C$DW$T$33      .dwtag  DW_TAG_volatile_type
    6918                      .dwattr $C$DW$T$33, DW_AT_type(*$C$DW$606)
    6919              $C$DW$607       .dwtag  DW_TAG_TI_far_type
    6920                      .dwattr $C$DW$607, DW_AT_type(*$C$DW$T$32)
    6921              $C$DW$T$56      .dwtag  DW_TAG_const_type
    6922                      .dwattr $C$DW$T$56, DW_AT_type(*$C$DW$607)
    6923              $C$DW$T$10      .dwtag  DW_TAG_base_type
    6924                      .dwattr $C$DW$T$10, DW_AT_encoding(DW_ATE_signed)
    6925                      .dwattr $C$DW$T$10, DW_AT_name("int")
    6926                      .dwattr $C$DW$T$10, DW_AT_byte_size(0x01)
    6927              $C$DW$T$11      .dwtag  DW_TAG_base_type
    6928                      .dwattr $C$DW$T$11, DW_AT_encoding(DW_ATE_unsigned)
    6929                      .dwattr $C$DW$T$11, DW_AT_name("unsigned int")
TMS320C55x Assembler PC v4.4.1 Tue Sep 18 04:49:51 2018

Tools Copyright (c) 1996-2012 Texas Instruments Incorporated
queue.asm                                                            PAGE  146

    6930                      .dwattr $C$DW$T$11, DW_AT_byte_size(0x01)
    6931              $C$DW$608       .dwtag  DW_TAG_TI_far_type
    6932                      .dwattr $C$DW$608, DW_AT_type(*$C$DW$T$11)
    6933              $C$DW$T$147     .dwtag  DW_TAG_volatile_type
    6934                      .dwattr $C$DW$T$147, DW_AT_type(*$C$DW$608)
    6935              $C$DW$T$72      .dwtag  DW_TAG_typedef, DW_AT_name("size_t")
    6936                      .dwattr $C$DW$T$72, DW_AT_type(*$C$DW$T$11)
    6937                      .dwattr $C$DW$T$72, DW_AT_language(DW_LANG_C)
    6938              $C$DW$T$12      .dwtag  DW_TAG_base_type
    6939                      .dwattr $C$DW$T$12, DW_AT_encoding(DW_ATE_signed)
    6940                      .dwattr $C$DW$T$12, DW_AT_name("long")
    6941                      .dwattr $C$DW$T$12, DW_AT_byte_size(0x02)
    6942              $C$DW$T$13      .dwtag  DW_TAG_base_type
    6943                      .dwattr $C$DW$T$13, DW_AT_encoding(DW_ATE_unsigned)
    6944                      .dwattr $C$DW$T$13, DW_AT_name("unsigned long")
    6945                      .dwattr $C$DW$T$13, DW_AT_byte_size(0x02)
    6946              $C$DW$T$44      .dwtag  DW_TAG_typedef, DW_AT_name("TickType_t")
    6947                      .dwattr $C$DW$T$44, DW_AT_type(*$C$DW$T$13)
    6948                      .dwattr $C$DW$T$44, DW_AT_language(DW_LANG_C)
    6949              $C$DW$609       .dwtag  DW_TAG_TI_far_type
    6950                      .dwattr $C$DW$609, DW_AT_type(*$C$DW$T$44)
    6951              $C$DW$T$86      .dwtag  DW_TAG_const_type
    6952                      .dwattr $C$DW$T$86, DW_AT_type(*$C$DW$609)
    6953              $C$DW$T$118     .dwtag  DW_TAG_pointer_type
    6954                      .dwattr $C$DW$T$118, DW_AT_type(*$C$DW$T$44)
    6955                      .dwattr $C$DW$T$118, DW_AT_address_class(0x17)
    6956              $C$DW$610       .dwtag  DW_TAG_TI_far_type
    6957                      .dwattr $C$DW$610, DW_AT_type(*$C$DW$T$118)
    6958              $C$DW$T$119     .dwtag  DW_TAG_const_type
    6959                      .dwattr $C$DW$T$119, DW_AT_type(*$C$DW$610)
    6960              $C$DW$T$14      .dwtag  DW_TAG_base_type
    6961                      .dwattr $C$DW$T$14, DW_AT_encoding(DW_ATE_signed)
    6962                      .dwattr $C$DW$T$14, DW_AT_name("long long")
    6963                      .dwattr $C$DW$T$14, DW_AT_byte_size(0x04)
    6964                      .dwattr $C$DW$T$14, DW_AT_bit_size(0x28)
    6965                      .dwattr $C$DW$T$14, DW_AT_bit_offset(0x18)
    6966              $C$DW$T$15      .dwtag  DW_TAG_base_type
    6967                      .dwattr $C$DW$T$15, DW_AT_encoding(DW_ATE_unsigned)
    6968                      .dwattr $C$DW$T$15, DW_AT_name("unsigned long long")
    6969                      .dwattr $C$DW$T$15, DW_AT_byte_size(0x04)
    6970                      .dwattr $C$DW$T$15, DW_AT_bit_size(0x28)
    6971                      .dwattr $C$DW$T$15, DW_AT_bit_offset(0x18)
    6972              $C$DW$T$16      .dwtag  DW_TAG_base_type
    6973                      .dwattr $C$DW$T$16, DW_AT_encoding(DW_ATE_float)
    6974                      .dwattr $C$DW$T$16, DW_AT_name("float")
    6975                      .dwattr $C$DW$T$16, DW_AT_byte_size(0x02)
    6976              $C$DW$T$17      .dwtag  DW_TAG_base_type
    6977                      .dwattr $C$DW$T$17, DW_AT_encoding(DW_ATE_float)
    6978                      .dwattr $C$DW$T$17, DW_AT_name("double")
    6979                      .dwattr $C$DW$T$17, DW_AT_byte_size(0x02)
    6980              $C$DW$T$18      .dwtag  DW_TAG_base_type
    6981                      .dwattr $C$DW$T$18, DW_AT_encoding(DW_ATE_float)
    6982                      .dwattr $C$DW$T$18, DW_AT_name("long double")
    6983                      .dwattr $C$DW$T$18, DW_AT_byte_size(0x02)
    6984              $C$DW$T$23      .dwtag  DW_TAG_base_type
TMS320C55x Assembler PC v4.4.1 Tue Sep 18 04:49:51 2018

Tools Copyright (c) 1996-2012 Texas Instruments Incorporated
queue.asm                                                            PAGE  147

    6985                      .dwattr $C$DW$T$23, DW_AT_encoding(DW_ATE_signed_char)
    6986                      .dwattr $C$DW$T$23, DW_AT_name("signed char")
    6987                      .dwattr $C$DW$T$23, DW_AT_byte_size(0x01)
    6988              $C$DW$611       .dwtag  DW_TAG_TI_far_type
    6989                      .dwattr $C$DW$611, DW_AT_type(*$C$DW$T$23)
    6990              $C$DW$T$24      .dwtag  DW_TAG_const_type
    6991                      .dwattr $C$DW$T$24, DW_AT_type(*$C$DW$611)
    6992              $C$DW$T$25      .dwtag  DW_TAG_pointer_type
    6993                      .dwattr $C$DW$T$25, DW_AT_type(*$C$DW$T$24)
    6994                      .dwattr $C$DW$T$25, DW_AT_address_class(0x17)
    6995              
    6996              $C$DW$T$19      .dwtag  DW_TAG_structure_type
    6997                      .dwattr $C$DW$T$19, DW_AT_name("tskTaskControlBlock")
    6998                      .dwattr $C$DW$T$19, DW_AT_declaration
    6999                      .dwendtag $C$DW$T$19
    7000              
    7001              $C$DW$T$37      .dwtag  DW_TAG_pointer_type
    7002                      .dwattr $C$DW$T$37, DW_AT_type(*$C$DW$T$19)
    7003                      .dwattr $C$DW$T$37, DW_AT_address_class(0x17)
    7004              $C$DW$T$38      .dwtag  DW_TAG_typedef, DW_AT_name("TaskHandle_t")
    7005                      .dwattr $C$DW$T$38, DW_AT_type(*$C$DW$T$37)
    7006                      .dwattr $C$DW$T$38, DW_AT_language(DW_LANG_C)
    7007              $C$DW$612       .dwtag  DW_TAG_TI_far_type
    7008                      .dwattr $C$DW$612, DW_AT_type(*$C$DW$T$38)
    7009              $C$DW$T$89      .dwtag  DW_TAG_const_type
    7010                      .dwattr $C$DW$T$89, DW_AT_type(*$C$DW$612)
    7011              
    7012              $C$DW$T$43      .dwtag  DW_TAG_structure_type
    7013                      .dwattr $C$DW$T$43, DW_AT_name("xLIST")
    7014                      .dwattr $C$DW$T$43, DW_AT_byte_size(0x0a)
    7015              $C$DW$613       .dwtag  DW_TAG_member
    7016                      .dwattr $C$DW$613, DW_AT_type(*$C$DW$T$33)
    7017                      .dwattr $C$DW$613, DW_AT_name("uxNumberOfItems")
    7018                      .dwattr $C$DW$613, DW_AT_TI_symbol_name("_uxNumberOfItems")
    7019                      .dwattr $C$DW$613, DW_AT_data_member_location[DW_OP_plus_uconst 0x0]
    7020                      .dwattr $C$DW$613, DW_AT_accessibility(DW_ACCESS_public)
    7021              $C$DW$614       .dwtag  DW_TAG_member
    7022                      .dwattr $C$DW$614, DW_AT_type(*$C$DW$T$41)
    7023                      .dwattr $C$DW$614, DW_AT_name("pxIndex")
    7024                      .dwattr $C$DW$614, DW_AT_TI_symbol_name("_pxIndex")
    7025                      .dwattr $C$DW$614, DW_AT_data_member_location[DW_OP_plus_uconst 0x2]
    7026                      .dwattr $C$DW$614, DW_AT_accessibility(DW_ACCESS_public)
    7027              $C$DW$615       .dwtag  DW_TAG_member
    7028                      .dwattr $C$DW$615, DW_AT_type(*$C$DW$T$42)
    7029                      .dwattr $C$DW$615, DW_AT_name("xListEnd")
    7030                      .dwattr $C$DW$615, DW_AT_TI_symbol_name("_xListEnd")
    7031                      .dwattr $C$DW$615, DW_AT_data_member_location[DW_OP_plus_uconst 0x4]
    7032                      .dwattr $C$DW$615, DW_AT_accessibility(DW_ACCESS_public)
    7033                      .dwendtag $C$DW$T$43
    7034              
    7035              $C$DW$T$31      .dwtag  DW_TAG_typedef, DW_AT_name("List_t")
    7036                      .dwattr $C$DW$T$31, DW_AT_type(*$C$DW$T$43)
    7037                      .dwattr $C$DW$T$31, DW_AT_language(DW_LANG_C)
    7038              $C$DW$616       .dwtag  DW_TAG_TI_far_type
    7039                      .dwattr $C$DW$616, DW_AT_type(*$C$DW$T$31)
TMS320C55x Assembler PC v4.4.1 Tue Sep 18 04:49:51 2018

Tools Copyright (c) 1996-2012 Texas Instruments Incorporated
queue.asm                                                            PAGE  148

    7040              $C$DW$T$113     .dwtag  DW_TAG_const_type
    7041                      .dwattr $C$DW$T$113, DW_AT_type(*$C$DW$616)
    7042              $C$DW$T$114     .dwtag  DW_TAG_pointer_type
    7043                      .dwattr $C$DW$T$114, DW_AT_type(*$C$DW$T$113)
    7044                      .dwattr $C$DW$T$114, DW_AT_address_class(0x17)
    7045              $C$DW$617       .dwtag  DW_TAG_TI_far_type
    7046                      .dwattr $C$DW$617, DW_AT_type(*$C$DW$T$114)
    7047              $C$DW$T$115     .dwtag  DW_TAG_const_type
    7048                      .dwattr $C$DW$T$115, DW_AT_type(*$C$DW$617)
    7049              $C$DW$T$82      .dwtag  DW_TAG_pointer_type
    7050                      .dwattr $C$DW$T$82, DW_AT_type(*$C$DW$T$31)
    7051                      .dwattr $C$DW$T$82, DW_AT_address_class(0x17)
    7052              $C$DW$618       .dwtag  DW_TAG_TI_far_type
    7053                      .dwattr $C$DW$618, DW_AT_type(*$C$DW$T$82)
    7054              $C$DW$T$83      .dwtag  DW_TAG_const_type
    7055                      .dwattr $C$DW$T$83, DW_AT_type(*$C$DW$618)
    7056              $C$DW$T$46      .dwtag  DW_TAG_pointer_type
    7057                      .dwattr $C$DW$T$46, DW_AT_type(*$C$DW$T$43)
    7058                      .dwattr $C$DW$T$46, DW_AT_address_class(0x17)
    7059              
    7060              $C$DW$T$47      .dwtag  DW_TAG_structure_type
    7061                      .dwattr $C$DW$T$47, DW_AT_name("xLIST_ITEM")
    7062                      .dwattr $C$DW$T$47, DW_AT_byte_size(0x0a)
    7063              $C$DW$619       .dwtag  DW_TAG_member
    7064                      .dwattr $C$DW$619, DW_AT_type(*$C$DW$T$44)
    7065                      .dwattr $C$DW$619, DW_AT_name("xItemValue")
    7066                      .dwattr $C$DW$619, DW_AT_TI_symbol_name("_xItemValue")
    7067                      .dwattr $C$DW$619, DW_AT_data_member_location[DW_OP_plus_uconst 0x0]
    7068                      .dwattr $C$DW$619, DW_AT_accessibility(DW_ACCESS_public)
    7069              $C$DW$620       .dwtag  DW_TAG_member
    7070                      .dwattr $C$DW$620, DW_AT_type(*$C$DW$T$45)
    7071                      .dwattr $C$DW$620, DW_AT_name("pxNext")
    7072                      .dwattr $C$DW$620, DW_AT_TI_symbol_name("_pxNext")
    7073                      .dwattr $C$DW$620, DW_AT_data_member_location[DW_OP_plus_uconst 0x2]
    7074                      .dwattr $C$DW$620, DW_AT_accessibility(DW_ACCESS_public)
    7075              $C$DW$621       .dwtag  DW_TAG_member
    7076                      .dwattr $C$DW$621, DW_AT_type(*$C$DW$T$45)
    7077                      .dwattr $C$DW$621, DW_AT_name("pxPrevious")
    7078                      .dwattr $C$DW$621, DW_AT_TI_symbol_name("_pxPrevious")
    7079                      .dwattr $C$DW$621, DW_AT_data_member_location[DW_OP_plus_uconst 0x4]
    7080                      .dwattr $C$DW$621, DW_AT_accessibility(DW_ACCESS_public)
    7081              $C$DW$622       .dwtag  DW_TAG_member
    7082                      .dwattr $C$DW$622, DW_AT_type(*$C$DW$T$3)
    7083                      .dwattr $C$DW$622, DW_AT_name("pvOwner")
    7084                      .dwattr $C$DW$622, DW_AT_TI_symbol_name("_pvOwner")
    7085                      .dwattr $C$DW$622, DW_AT_data_member_location[DW_OP_plus_uconst 0x6]
    7086                      .dwattr $C$DW$622, DW_AT_accessibility(DW_ACCESS_public)
    7087              $C$DW$623       .dwtag  DW_TAG_member
    7088                      .dwattr $C$DW$623, DW_AT_type(*$C$DW$T$46)
    7089                      .dwattr $C$DW$623, DW_AT_name("pvContainer")
    7090                      .dwattr $C$DW$623, DW_AT_TI_symbol_name("_pvContainer")
    7091                      .dwattr $C$DW$623, DW_AT_data_member_location[DW_OP_plus_uconst 0x8]
    7092                      .dwattr $C$DW$623, DW_AT_accessibility(DW_ACCESS_public)
    7093                      .dwendtag $C$DW$T$47
    7094              
TMS320C55x Assembler PC v4.4.1 Tue Sep 18 04:49:51 2018

Tools Copyright (c) 1996-2012 Texas Instruments Incorporated
queue.asm                                                            PAGE  149

    7095              $C$DW$T$40      .dwtag  DW_TAG_typedef, DW_AT_name("ListItem_t")
    7096                      .dwattr $C$DW$T$40, DW_AT_type(*$C$DW$T$47)
    7097                      .dwattr $C$DW$T$40, DW_AT_language(DW_LANG_C)
    7098              $C$DW$T$41      .dwtag  DW_TAG_pointer_type
    7099                      .dwattr $C$DW$T$41, DW_AT_type(*$C$DW$T$40)
    7100                      .dwattr $C$DW$T$41, DW_AT_address_class(0x17)
    7101              $C$DW$T$45      .dwtag  DW_TAG_pointer_type
    7102                      .dwattr $C$DW$T$45, DW_AT_type(*$C$DW$T$47)
    7103                      .dwattr $C$DW$T$45, DW_AT_address_class(0x17)
    7104              
    7105              $C$DW$T$48      .dwtag  DW_TAG_structure_type
    7106                      .dwattr $C$DW$T$48, DW_AT_name("xMINI_LIST_ITEM")
    7107                      .dwattr $C$DW$T$48, DW_AT_byte_size(0x06)
    7108              $C$DW$624       .dwtag  DW_TAG_member
    7109                      .dwattr $C$DW$624, DW_AT_type(*$C$DW$T$44)
    7110                      .dwattr $C$DW$624, DW_AT_name("xItemValue")
    7111                      .dwattr $C$DW$624, DW_AT_TI_symbol_name("_xItemValue")
    7112                      .dwattr $C$DW$624, DW_AT_data_member_location[DW_OP_plus_uconst 0x0]
    7113                      .dwattr $C$DW$624, DW_AT_accessibility(DW_ACCESS_public)
    7114              $C$DW$625       .dwtag  DW_TAG_member
    7115                      .dwattr $C$DW$625, DW_AT_type(*$C$DW$T$45)
    7116                      .dwattr $C$DW$625, DW_AT_name("pxNext")
    7117                      .dwattr $C$DW$625, DW_AT_TI_symbol_name("_pxNext")
    7118                      .dwattr $C$DW$625, DW_AT_data_member_location[DW_OP_plus_uconst 0x2]
    7119                      .dwattr $C$DW$625, DW_AT_accessibility(DW_ACCESS_public)
    7120              $C$DW$626       .dwtag  DW_TAG_member
    7121                      .dwattr $C$DW$626, DW_AT_type(*$C$DW$T$45)
    7122                      .dwattr $C$DW$626, DW_AT_name("pxPrevious")
    7123                      .dwattr $C$DW$626, DW_AT_TI_symbol_name("_pxPrevious")
    7124                      .dwattr $C$DW$626, DW_AT_data_member_location[DW_OP_plus_uconst 0x4]
    7125                      .dwattr $C$DW$626, DW_AT_accessibility(DW_ACCESS_public)
    7126                      .dwendtag $C$DW$T$48
    7127              
    7128              $C$DW$T$42      .dwtag  DW_TAG_typedef, DW_AT_name("MiniListItem_t")
    7129                      .dwattr $C$DW$T$42, DW_AT_type(*$C$DW$T$48)
    7130                      .dwattr $C$DW$T$42, DW_AT_language(DW_LANG_C)
    7131              
    7132              $C$DW$T$50      .dwtag  DW_TAG_structure_type
    7133                      .dwattr $C$DW$T$50, DW_AT_name("xTIME_OUT")
    7134                      .dwattr $C$DW$T$50, DW_AT_byte_size(0x04)
    7135              $C$DW$627       .dwtag  DW_TAG_member
    7136                      .dwattr $C$DW$627, DW_AT_type(*$C$DW$T$49)
    7137                      .dwattr $C$DW$627, DW_AT_name("xOverflowCount")
    7138                      .dwattr $C$DW$627, DW_AT_TI_symbol_name("_xOverflowCount")
    7139                      .dwattr $C$DW$627, DW_AT_data_member_location[DW_OP_plus_uconst 0x0]
    7140                      .dwattr $C$DW$627, DW_AT_accessibility(DW_ACCESS_public)
    7141              $C$DW$628       .dwtag  DW_TAG_member
    7142                      .dwattr $C$DW$628, DW_AT_type(*$C$DW$T$44)
    7143                      .dwattr $C$DW$628, DW_AT_name("xTimeOnEntering")
    7144                      .dwattr $C$DW$628, DW_AT_TI_symbol_name("_xTimeOnEntering")
    7145                      .dwattr $C$DW$628, DW_AT_data_member_location[DW_OP_plus_uconst 0x2]
    7146                      .dwattr $C$DW$628, DW_AT_accessibility(DW_ACCESS_public)
    7147                      .dwendtag $C$DW$T$50
    7148              
    7149              $C$DW$T$92      .dwtag  DW_TAG_typedef, DW_AT_name("TimeOut_t")
TMS320C55x Assembler PC v4.4.1 Tue Sep 18 04:49:51 2018

Tools Copyright (c) 1996-2012 Texas Instruments Incorporated
queue.asm                                                            PAGE  150

    7150                      .dwattr $C$DW$T$92, DW_AT_type(*$C$DW$T$50)
    7151                      .dwattr $C$DW$T$92, DW_AT_language(DW_LANG_C)
    7152              $C$DW$T$93      .dwtag  DW_TAG_pointer_type
    7153                      .dwattr $C$DW$T$93, DW_AT_type(*$C$DW$T$92)
    7154                      .dwattr $C$DW$T$93, DW_AT_address_class(0x17)
    7155              $C$DW$629       .dwtag  DW_TAG_TI_far_type
    7156                      .dwattr $C$DW$629, DW_AT_type(*$C$DW$T$93)
    7157              $C$DW$T$94      .dwtag  DW_TAG_const_type
    7158                      .dwattr $C$DW$T$94, DW_AT_type(*$C$DW$629)
    7159                      .dwattr $C$DW$CU, DW_AT_language(DW_LANG_C)
    7160              
    7161              ;***************************************************************
    7162              ;* DWARF CIE ENTRIES                                           *
    7163              ;***************************************************************
    7164              
    7165              $C$DW$CIE       .dwcie 91
    7166                      .dwcfi  cfa_register, 36
    7167                      .dwcfi  cfa_offset, 0
    7168                      .dwcfi  undefined, 0
    7169                      .dwcfi  undefined, 1
    7170                      .dwcfi  undefined, 2
    7171                      .dwcfi  undefined, 3
    7172                      .dwcfi  undefined, 4
    7173                      .dwcfi  undefined, 5
    7174                      .dwcfi  undefined, 6
    7175                      .dwcfi  undefined, 7
    7176                      .dwcfi  undefined, 8
    7177                      .dwcfi  undefined, 9
    7178                      .dwcfi  undefined, 10
    7179                      .dwcfi  undefined, 11
    7180                      .dwcfi  undefined, 12
    7181                      .dwcfi  undefined, 13
    7182                      .dwcfi  same_value, 14
    7183                      .dwcfi  same_value, 15
    7184                      .dwcfi  undefined, 16
    7185                      .dwcfi  undefined, 17
    7186                      .dwcfi  undefined, 18
    7187                      .dwcfi  undefined, 19
    7188                      .dwcfi  undefined, 20
    7189                      .dwcfi  undefined, 21
    7190                      .dwcfi  undefined, 22
    7191                      .dwcfi  undefined, 23
    7192                      .dwcfi  undefined, 24
    7193                      .dwcfi  undefined, 25
    7194                      .dwcfi  same_value, 26
    7195                      .dwcfi  same_value, 27
    7196                      .dwcfi  same_value, 28
    7197                      .dwcfi  same_value, 29
    7198                      .dwcfi  same_value, 30
    7199                      .dwcfi  same_value, 31
    7200                      .dwcfi  undefined, 32
    7201                      .dwcfi  undefined, 33
    7202                      .dwcfi  undefined, 34
    7203                      .dwcfi  undefined, 35
    7204                      .dwcfi  undefined, 36
TMS320C55x Assembler PC v4.4.1 Tue Sep 18 04:49:51 2018

Tools Copyright (c) 1996-2012 Texas Instruments Incorporated
queue.asm                                                            PAGE  151

    7205                      .dwcfi  undefined, 37
    7206                      .dwcfi  undefined, 38
    7207                      .dwcfi  undefined, 39
    7208                      .dwcfi  undefined, 40
    7209                      .dwcfi  undefined, 41
    7210                      .dwcfi  undefined, 42
    7211                      .dwcfi  undefined, 43
    7212                      .dwcfi  undefined, 44
    7213                      .dwcfi  undefined, 45
    7214                      .dwcfi  undefined, 46
    7215                      .dwcfi  undefined, 47
    7216                      .dwcfi  undefined, 48
    7217                      .dwcfi  undefined, 49
    7218                      .dwcfi  undefined, 50
    7219                      .dwcfi  undefined, 51
    7220                      .dwcfi  undefined, 52
    7221                      .dwcfi  undefined, 53
    7222                      .dwcfi  undefined, 54
    7223                      .dwcfi  undefined, 55
    7224                      .dwcfi  undefined, 56
    7225                      .dwcfi  undefined, 57
    7226                      .dwcfi  undefined, 58
    7227                      .dwcfi  undefined, 59
    7228                      .dwcfi  undefined, 60
    7229                      .dwcfi  undefined, 61
    7230                      .dwcfi  undefined, 62
    7231                      .dwcfi  undefined, 63
    7232                      .dwcfi  undefined, 64
    7233                      .dwcfi  undefined, 65
    7234                      .dwcfi  undefined, 66
    7235                      .dwcfi  undefined, 67
    7236                      .dwcfi  undefined, 68
    7237                      .dwcfi  undefined, 69
    7238                      .dwcfi  undefined, 70
    7239                      .dwcfi  undefined, 71
    7240                      .dwcfi  undefined, 72
    7241                      .dwcfi  undefined, 73
    7242                      .dwcfi  undefined, 74
    7243                      .dwcfi  undefined, 75
    7244                      .dwcfi  undefined, 76
    7245                      .dwcfi  undefined, 77
    7246                      .dwcfi  undefined, 78
    7247                      .dwcfi  undefined, 79
    7248                      .dwcfi  undefined, 80
    7249                      .dwcfi  undefined, 81
    7250                      .dwcfi  undefined, 82
    7251                      .dwcfi  undefined, 83
    7252                      .dwcfi  undefined, 84
    7253                      .dwcfi  undefined, 85
    7254                      .dwcfi  undefined, 86
    7255                      .dwcfi  undefined, 87
    7256                      .dwcfi  undefined, 88
    7257                      .dwcfi  undefined, 89
    7258                      .dwcfi  undefined, 90
    7259                      .dwcfi  undefined, 91
TMS320C55x Assembler PC v4.4.1 Tue Sep 18 04:49:51 2018

Tools Copyright (c) 1996-2012 Texas Instruments Incorporated
queue.asm                                                            PAGE  152

    7260                      .dwendentry
    7261              
    7262              ;***************************************************************
    7263              ;* DWARF REGISTER MAP                                          *
    7264              ;***************************************************************
    7265              
    7266              $C$DW$630       .dwtag  DW_TAG_TI_assign_register, DW_AT_name("AC0")
    7267                      .dwattr $C$DW$630, DW_AT_location[DW_OP_reg0]
    7268              $C$DW$631       .dwtag  DW_TAG_TI_assign_register, DW_AT_name("AC0")
    7269                      .dwattr $C$DW$631, DW_AT_location[DW_OP_reg1]
    7270              $C$DW$632       .dwtag  DW_TAG_TI_assign_register, DW_AT_name("AC0_G")
    7271                      .dwattr $C$DW$632, DW_AT_location[DW_OP_reg2]
    7272              $C$DW$633       .dwtag  DW_TAG_TI_assign_register, DW_AT_name("AC1")
    7273                      .dwattr $C$DW$633, DW_AT_location[DW_OP_reg3]
    7274              $C$DW$634       .dwtag  DW_TAG_TI_assign_register, DW_AT_name("AC1")
    7275                      .dwattr $C$DW$634, DW_AT_location[DW_OP_reg4]
    7276              $C$DW$635       .dwtag  DW_TAG_TI_assign_register, DW_AT_name("AC1_G")
    7277                      .dwattr $C$DW$635, DW_AT_location[DW_OP_reg5]
    7278              $C$DW$636       .dwtag  DW_TAG_TI_assign_register, DW_AT_name("AC2")
    7279                      .dwattr $C$DW$636, DW_AT_location[DW_OP_reg6]
    7280              $C$DW$637       .dwtag  DW_TAG_TI_assign_register, DW_AT_name("AC2")
    7281                      .dwattr $C$DW$637, DW_AT_location[DW_OP_reg7]
    7282              $C$DW$638       .dwtag  DW_TAG_TI_assign_register, DW_AT_name("AC2_G")
    7283                      .dwattr $C$DW$638, DW_AT_location[DW_OP_reg8]
    7284              $C$DW$639       .dwtag  DW_TAG_TI_assign_register, DW_AT_name("AC3")
    7285                      .dwattr $C$DW$639, DW_AT_location[DW_OP_reg9]
    7286              $C$DW$640       .dwtag  DW_TAG_TI_assign_register, DW_AT_name("AC3")
    7287                      .dwattr $C$DW$640, DW_AT_location[DW_OP_reg10]
    7288              $C$DW$641       .dwtag  DW_TAG_TI_assign_register, DW_AT_name("AC3_G")
    7289                      .dwattr $C$DW$641, DW_AT_location[DW_OP_reg11]
    7290              $C$DW$642       .dwtag  DW_TAG_TI_assign_register, DW_AT_name("T0")
    7291                      .dwattr $C$DW$642, DW_AT_location[DW_OP_reg12]
    7292              $C$DW$643       .dwtag  DW_TAG_TI_assign_register, DW_AT_name("T1")
    7293                      .dwattr $C$DW$643, DW_AT_location[DW_OP_reg13]
    7294              $C$DW$644       .dwtag  DW_TAG_TI_assign_register, DW_AT_name("T2")
    7295                      .dwattr $C$DW$644, DW_AT_location[DW_OP_reg14]
    7296              $C$DW$645       .dwtag  DW_TAG_TI_assign_register, DW_AT_name("T3")
    7297                      .dwattr $C$DW$645, DW_AT_location[DW_OP_reg15]
    7298              $C$DW$646       .dwtag  DW_TAG_TI_assign_register, DW_AT_name("AR0")
    7299                      .dwattr $C$DW$646, DW_AT_location[DW_OP_reg16]
    7300              $C$DW$647       .dwtag  DW_TAG_TI_assign_register, DW_AT_name("XAR0")
    7301                      .dwattr $C$DW$647, DW_AT_location[DW_OP_reg17]
    7302              $C$DW$648       .dwtag  DW_TAG_TI_assign_register, DW_AT_name("AR1")
    7303                      .dwattr $C$DW$648, DW_AT_location[DW_OP_reg18]
    7304              $C$DW$649       .dwtag  DW_TAG_TI_assign_register, DW_AT_name("XAR1")
    7305                      .dwattr $C$DW$649, DW_AT_location[DW_OP_reg19]
    7306              $C$DW$650       .dwtag  DW_TAG_TI_assign_register, DW_AT_name("AR2")
    7307                      .dwattr $C$DW$650, DW_AT_location[DW_OP_reg20]
    7308              $C$DW$651       .dwtag  DW_TAG_TI_assign_register, DW_AT_name("XAR2")
    7309                      .dwattr $C$DW$651, DW_AT_location[DW_OP_reg21]
    7310              $C$DW$652       .dwtag  DW_TAG_TI_assign_register, DW_AT_name("AR3")
    7311                      .dwattr $C$DW$652, DW_AT_location[DW_OP_reg22]
    7312              $C$DW$653       .dwtag  DW_TAG_TI_assign_register, DW_AT_name("XAR3")
    7313                      .dwattr $C$DW$653, DW_AT_location[DW_OP_reg23]
    7314              $C$DW$654       .dwtag  DW_TAG_TI_assign_register, DW_AT_name("AR4")
TMS320C55x Assembler PC v4.4.1 Tue Sep 18 04:49:51 2018

Tools Copyright (c) 1996-2012 Texas Instruments Incorporated
queue.asm                                                            PAGE  153

    7315                      .dwattr $C$DW$654, DW_AT_location[DW_OP_reg24]
    7316              $C$DW$655       .dwtag  DW_TAG_TI_assign_register, DW_AT_name("XAR4")
    7317                      .dwattr $C$DW$655, DW_AT_location[DW_OP_reg25]
    7318              $C$DW$656       .dwtag  DW_TAG_TI_assign_register, DW_AT_name("AR5")
    7319                      .dwattr $C$DW$656, DW_AT_location[DW_OP_reg26]
    7320              $C$DW$657       .dwtag  DW_TAG_TI_assign_register, DW_AT_name("XAR5")
    7321                      .dwattr $C$DW$657, DW_AT_location[DW_OP_reg27]
    7322              $C$DW$658       .dwtag  DW_TAG_TI_assign_register, DW_AT_name("AR6")
    7323                      .dwattr $C$DW$658, DW_AT_location[DW_OP_reg28]
    7324              $C$DW$659       .dwtag  DW_TAG_TI_assign_register, DW_AT_name("XAR6")
    7325                      .dwattr $C$DW$659, DW_AT_location[DW_OP_reg29]
    7326              $C$DW$660       .dwtag  DW_TAG_TI_assign_register, DW_AT_name("AR7")
    7327                      .dwattr $C$DW$660, DW_AT_location[DW_OP_reg30]
    7328              $C$DW$661       .dwtag  DW_TAG_TI_assign_register, DW_AT_name("XAR7")
    7329                      .dwattr $C$DW$661, DW_AT_location[DW_OP_reg31]
    7330              $C$DW$662       .dwtag  DW_TAG_TI_assign_register, DW_AT_name("FP")
    7331                      .dwattr $C$DW$662, DW_AT_location[DW_OP_regx 0x20]
    7332              $C$DW$663       .dwtag  DW_TAG_TI_assign_register, DW_AT_name("XFP")
    7333                      .dwattr $C$DW$663, DW_AT_location[DW_OP_regx 0x21]
    7334              $C$DW$664       .dwtag  DW_TAG_TI_assign_register, DW_AT_name("PC")
    7335                      .dwattr $C$DW$664, DW_AT_location[DW_OP_regx 0x22]
    7336              $C$DW$665       .dwtag  DW_TAG_TI_assign_register, DW_AT_name("SP")
    7337                      .dwattr $C$DW$665, DW_AT_location[DW_OP_regx 0x23]
    7338              $C$DW$666       .dwtag  DW_TAG_TI_assign_register, DW_AT_name("XSP")
    7339                      .dwattr $C$DW$666, DW_AT_location[DW_OP_regx 0x24]
    7340              $C$DW$667       .dwtag  DW_TAG_TI_assign_register, DW_AT_name("BKC")
    7341                      .dwattr $C$DW$667, DW_AT_location[DW_OP_regx 0x25]
    7342              $C$DW$668       .dwtag  DW_TAG_TI_assign_register, DW_AT_name("BK03")
    7343                      .dwattr $C$DW$668, DW_AT_location[DW_OP_regx 0x26]
    7344              $C$DW$669       .dwtag  DW_TAG_TI_assign_register, DW_AT_name("BK47")
    7345                      .dwattr $C$DW$669, DW_AT_location[DW_OP_regx 0x27]
    7346              $C$DW$670       .dwtag  DW_TAG_TI_assign_register, DW_AT_name("ST0")
    7347                      .dwattr $C$DW$670, DW_AT_location[DW_OP_regx 0x28]
    7348              $C$DW$671       .dwtag  DW_TAG_TI_assign_register, DW_AT_name("ST1")
    7349                      .dwattr $C$DW$671, DW_AT_location[DW_OP_regx 0x29]
    7350              $C$DW$672       .dwtag  DW_TAG_TI_assign_register, DW_AT_name("ST2")
    7351                      .dwattr $C$DW$672, DW_AT_location[DW_OP_regx 0x2a]
    7352              $C$DW$673       .dwtag  DW_TAG_TI_assign_register, DW_AT_name("ST3")
    7353                      .dwattr $C$DW$673, DW_AT_location[DW_OP_regx 0x2b]
    7354              $C$DW$674       .dwtag  DW_TAG_TI_assign_register, DW_AT_name("MDP")
    7355                      .dwattr $C$DW$674, DW_AT_location[DW_OP_regx 0x2c]
    7356              $C$DW$675       .dwtag  DW_TAG_TI_assign_register, DW_AT_name("MDP05")
    7357                      .dwattr $C$DW$675, DW_AT_location[DW_OP_regx 0x2d]
    7358              $C$DW$676       .dwtag  DW_TAG_TI_assign_register, DW_AT_name("MDP67")
    7359                      .dwattr $C$DW$676, DW_AT_location[DW_OP_regx 0x2e]
    7360              $C$DW$677       .dwtag  DW_TAG_TI_assign_register, DW_AT_name("BRC0")
    7361                      .dwattr $C$DW$677, DW_AT_location[DW_OP_regx 0x2f]
    7362              $C$DW$678       .dwtag  DW_TAG_TI_assign_register, DW_AT_name("RSA0")
    7363                      .dwattr $C$DW$678, DW_AT_location[DW_OP_regx 0x30]
    7364              $C$DW$679       .dwtag  DW_TAG_TI_assign_register, DW_AT_name("RSA0_H")
    7365                      .dwattr $C$DW$679, DW_AT_location[DW_OP_regx 0x31]
    7366              $C$DW$680       .dwtag  DW_TAG_TI_assign_register, DW_AT_name("REA0")
    7367                      .dwattr $C$DW$680, DW_AT_location[DW_OP_regx 0x32]
    7368              $C$DW$681       .dwtag  DW_TAG_TI_assign_register, DW_AT_name("REA0_H")
    7369                      .dwattr $C$DW$681, DW_AT_location[DW_OP_regx 0x33]
TMS320C55x Assembler PC v4.4.1 Tue Sep 18 04:49:51 2018

Tools Copyright (c) 1996-2012 Texas Instruments Incorporated
queue.asm                                                            PAGE  154

    7370              $C$DW$682       .dwtag  DW_TAG_TI_assign_register, DW_AT_name("BRS1")
    7371                      .dwattr $C$DW$682, DW_AT_location[DW_OP_regx 0x34]
    7372              $C$DW$683       .dwtag  DW_TAG_TI_assign_register, DW_AT_name("BRC1")
    7373                      .dwattr $C$DW$683, DW_AT_location[DW_OP_regx 0x35]
    7374              $C$DW$684       .dwtag  DW_TAG_TI_assign_register, DW_AT_name("RSA1")
    7375                      .dwattr $C$DW$684, DW_AT_location[DW_OP_regx 0x36]
    7376              $C$DW$685       .dwtag  DW_TAG_TI_assign_register, DW_AT_name("RSA1_H")
    7377                      .dwattr $C$DW$685, DW_AT_location[DW_OP_regx 0x37]
    7378              $C$DW$686       .dwtag  DW_TAG_TI_assign_register, DW_AT_name("REA1")
    7379                      .dwattr $C$DW$686, DW_AT_location[DW_OP_regx 0x38]
    7380              $C$DW$687       .dwtag  DW_TAG_TI_assign_register, DW_AT_name("REA1_H")
    7381                      .dwattr $C$DW$687, DW_AT_location[DW_OP_regx 0x39]
    7382              $C$DW$688       .dwtag  DW_TAG_TI_assign_register, DW_AT_name("CSR")
    7383                      .dwattr $C$DW$688, DW_AT_location[DW_OP_regx 0x3a]
    7384              $C$DW$689       .dwtag  DW_TAG_TI_assign_register, DW_AT_name("RPTC")
    7385                      .dwattr $C$DW$689, DW_AT_location[DW_OP_regx 0x3b]
    7386              $C$DW$690       .dwtag  DW_TAG_TI_assign_register, DW_AT_name("CDP")
    7387                      .dwattr $C$DW$690, DW_AT_location[DW_OP_regx 0x3c]
    7388              $C$DW$691       .dwtag  DW_TAG_TI_assign_register, DW_AT_name("XCDP")
    7389                      .dwattr $C$DW$691, DW_AT_location[DW_OP_regx 0x3d]
    7390              $C$DW$692       .dwtag  DW_TAG_TI_assign_register, DW_AT_name("TRN0")
    7391                      .dwattr $C$DW$692, DW_AT_location[DW_OP_regx 0x3e]
    7392              $C$DW$693       .dwtag  DW_TAG_TI_assign_register, DW_AT_name("TRN1")
    7393                      .dwattr $C$DW$693, DW_AT_location[DW_OP_regx 0x3f]
    7394              $C$DW$694       .dwtag  DW_TAG_TI_assign_register, DW_AT_name("BSA01")
    7395                      .dwattr $C$DW$694, DW_AT_location[DW_OP_regx 0x40]
    7396              $C$DW$695       .dwtag  DW_TAG_TI_assign_register, DW_AT_name("BSA23")
    7397                      .dwattr $C$DW$695, DW_AT_location[DW_OP_regx 0x41]
    7398              $C$DW$696       .dwtag  DW_TAG_TI_assign_register, DW_AT_name("BSA45")
    7399                      .dwattr $C$DW$696, DW_AT_location[DW_OP_regx 0x42]
    7400              $C$DW$697       .dwtag  DW_TAG_TI_assign_register, DW_AT_name("BSA67")
    7401                      .dwattr $C$DW$697, DW_AT_location[DW_OP_regx 0x43]
    7402              $C$DW$698       .dwtag  DW_TAG_TI_assign_register, DW_AT_name("BSAC")
    7403                      .dwattr $C$DW$698, DW_AT_location[DW_OP_regx 0x44]
    7404              $C$DW$699       .dwtag  DW_TAG_TI_assign_register, DW_AT_name("CARRY")
    7405                      .dwattr $C$DW$699, DW_AT_location[DW_OP_regx 0x45]
    7406              $C$DW$700       .dwtag  DW_TAG_TI_assign_register, DW_AT_name("TC1")
    7407                      .dwattr $C$DW$700, DW_AT_location[DW_OP_regx 0x46]
    7408              $C$DW$701       .dwtag  DW_TAG_TI_assign_register, DW_AT_name("TC2")
    7409                      .dwattr $C$DW$701, DW_AT_location[DW_OP_regx 0x47]
    7410              $C$DW$702       .dwtag  DW_TAG_TI_assign_register, DW_AT_name("M40")
    7411                      .dwattr $C$DW$702, DW_AT_location[DW_OP_regx 0x48]
    7412              $C$DW$703       .dwtag  DW_TAG_TI_assign_register, DW_AT_name("SXMD")
    7413                      .dwattr $C$DW$703, DW_AT_location[DW_OP_regx 0x49]
    7414              $C$DW$704       .dwtag  DW_TAG_TI_assign_register, DW_AT_name("ARMS")
    7415                      .dwattr $C$DW$704, DW_AT_location[DW_OP_regx 0x4a]
    7416              $C$DW$705       .dwtag  DW_TAG_TI_assign_register, DW_AT_name("C54CM")
    7417                      .dwattr $C$DW$705, DW_AT_location[DW_OP_regx 0x4b]
    7418              $C$DW$706       .dwtag  DW_TAG_TI_assign_register, DW_AT_name("SATA")
    7419                      .dwattr $C$DW$706, DW_AT_location[DW_OP_regx 0x4c]
    7420              $C$DW$707       .dwtag  DW_TAG_TI_assign_register, DW_AT_name("SATD")
    7421                      .dwattr $C$DW$707, DW_AT_location[DW_OP_regx 0x4d]
    7422              $C$DW$708       .dwtag  DW_TAG_TI_assign_register, DW_AT_name("RDM")
    7423                      .dwattr $C$DW$708, DW_AT_location[DW_OP_regx 0x4e]
    7424              $C$DW$709       .dwtag  DW_TAG_TI_assign_register, DW_AT_name("FRCT")
TMS320C55x Assembler PC v4.4.1 Tue Sep 18 04:49:51 2018

Tools Copyright (c) 1996-2012 Texas Instruments Incorporated
queue.asm                                                            PAGE  155

    7425                      .dwattr $C$DW$709, DW_AT_location[DW_OP_regx 0x4f]
    7426              $C$DW$710       .dwtag  DW_TAG_TI_assign_register, DW_AT_name("SMUL")
    7427                      .dwattr $C$DW$710, DW_AT_location[DW_OP_regx 0x50]
    7428              $C$DW$711       .dwtag  DW_TAG_TI_assign_register, DW_AT_name("INTM")
    7429                      .dwattr $C$DW$711, DW_AT_location[DW_OP_regx 0x51]
    7430              $C$DW$712       .dwtag  DW_TAG_TI_assign_register, DW_AT_name("AR0LC")
    7431                      .dwattr $C$DW$712, DW_AT_location[DW_OP_regx 0x52]
    7432              $C$DW$713       .dwtag  DW_TAG_TI_assign_register, DW_AT_name("AR1LC")
    7433                      .dwattr $C$DW$713, DW_AT_location[DW_OP_regx 0x53]
    7434              $C$DW$714       .dwtag  DW_TAG_TI_assign_register, DW_AT_name("AR2LC")
    7435                      .dwattr $C$DW$714, DW_AT_location[DW_OP_regx 0x54]
    7436              $C$DW$715       .dwtag  DW_TAG_TI_assign_register, DW_AT_name("AR3LC")
    7437                      .dwattr $C$DW$715, DW_AT_location[DW_OP_regx 0x55]
    7438              $C$DW$716       .dwtag  DW_TAG_TI_assign_register, DW_AT_name("AR4LC")
    7439                      .dwattr $C$DW$716, DW_AT_location[DW_OP_regx 0x56]
    7440              $C$DW$717       .dwtag  DW_TAG_TI_assign_register, DW_AT_name("AR5LC")
    7441                      .dwattr $C$DW$717, DW_AT_location[DW_OP_regx 0x57]
    7442              $C$DW$718       .dwtag  DW_TAG_TI_assign_register, DW_AT_name("AR6LC")
    7443                      .dwattr $C$DW$718, DW_AT_location[DW_OP_regx 0x58]
    7444              $C$DW$719       .dwtag  DW_TAG_TI_assign_register, DW_AT_name("AR7LC")
    7445                      .dwattr $C$DW$719, DW_AT_location[DW_OP_regx 0x59]
    7446              $C$DW$720       .dwtag  DW_TAG_TI_assign_register, DW_AT_name("CDPLC")
    7447                      .dwattr $C$DW$720, DW_AT_location[DW_OP_regx 0x5a]
    7448              $C$DW$721       .dwtag  DW_TAG_TI_assign_register, DW_AT_name("CIE_RETA")
    7449                      .dwattr $C$DW$721, DW_AT_location[DW_OP_regx 0x5b]
    7450                      .dwendtag $C$DW$CU
    7451              
    7451              
    7451              

No Assembly Errors, No Assembly Warnings
