TMS320C55x Assembler PC v4.4.1 Sat Sep 15 01:52:39 2018

Tools Copyright (c) 1996-2012 Texas Instruments Incorporated
queue.asm                                                            PAGE    1

    8448              ; Temporary Registers Used: None
       1              ;*******************************************************************************
       2              ;* TMS320C55x C/C++ Codegen                                          PC v4.4.1 *
       3              ;* Date/Time created: Sat Sep 15 01:52:36 2018                                 *
       4              ;*******************************************************************************
       5                      .compiler_opts --hll_source=on --mem_model:code=flat --mem_model:data=large --object_format=coff --si
       6                      .mmregs
       7                      .cpl_on
       8                      .arms_on
       9                      .c54cm_off
      10                      .asg AR6, FP
      11                      .asg XAR6, XFP
      12                      .asg DPH, MDP
      13                      .model call=c55_std
      14                      .model mem=large
      15                      .noremark 5002  ; code respects overwrite rules
      16              ;*******************************************************************************
      17              ;* GLOBAL FILE PARAMETERS                                                      *
      18              ;*                                                                             *
      19              ;*   Architecture       : TMS320C55x                                           *
      20              ;*   Optimizing for     : Speed                                                *
      21              ;*   Memory             : Large Model (23-Bit Data Pointers)                   *
      22              ;*   Calls              : Normal Library ASM calls                             *
      23              ;*   Debug Info         : Standard TI Debug Information                        *
      24              ;*******************************************************************************
      25              
      26              $C$DW$CU        .dwtag  DW_TAG_compile_unit
      27                      .dwattr $C$DW$CU, DW_AT_name("../FreeRTOS/Source/queue.c")
      28                      .dwattr $C$DW$CU, DW_AT_producer("TMS320C55x C/C++ Codegen PC v4.4.1 Copyright (c) 1996-2012 Texas In
      29                      .dwattr $C$DW$CU, DW_AT_TI_version(0x01)
      30                      .dwattr $C$DW$CU, DW_AT_comp_dir("F:\eZdsp_DBG\eZDSP_5535_Files\ccsws2\test\Debug")
      31              
      32              $C$DW$1 .dwtag  DW_TAG_subprogram, DW_AT_name("memcpy")
      33                      .dwattr $C$DW$1, DW_AT_TI_symbol_name("_memcpy")
      34                      .dwattr $C$DW$1, DW_AT_type(*$C$DW$T$3)
      35                      .dwattr $C$DW$1, DW_AT_declaration
      36                      .dwattr $C$DW$1, DW_AT_external
      37              $C$DW$2 .dwtag  DW_TAG_formal_parameter
      38                      .dwattr $C$DW$2, DW_AT_type(*$C$DW$T$3)
      39              $C$DW$3 .dwtag  DW_TAG_formal_parameter
      40                      .dwattr $C$DW$3, DW_AT_type(*$C$DW$T$71)
      41              $C$DW$4 .dwtag  DW_TAG_formal_parameter
      42                      .dwattr $C$DW$4, DW_AT_type(*$C$DW$T$72)
      43                      .dwendtag $C$DW$1
      44              
      45              
      46              $C$DW$5 .dwtag  DW_TAG_subprogram, DW_AT_name("vPortYield")
      47                      .dwattr $C$DW$5, DW_AT_TI_symbol_name("_vPortYield")
      48                      .dwattr $C$DW$5, DW_AT_declaration
      49                      .dwattr $C$DW$5, DW_AT_external
      50              
      51              $C$DW$6 .dwtag  DW_TAG_subprogram, DW_AT_name("pvPortMalloc")
      52                      .dwattr $C$DW$6, DW_AT_TI_symbol_name("_pvPortMalloc")
      53                      .dwattr $C$DW$6, DW_AT_type(*$C$DW$T$3)
      54                      .dwattr $C$DW$6, DW_AT_declaration
TMS320C55x Assembler PC v4.4.1 Sat Sep 15 01:52:39 2018

Tools Copyright (c) 1996-2012 Texas Instruments Incorporated
queue.asm                                                            PAGE    2

      55                      .dwattr $C$DW$6, DW_AT_external
      56              $C$DW$7 .dwtag  DW_TAG_formal_parameter
      57                      .dwattr $C$DW$7, DW_AT_type(*$C$DW$T$72)
      58                      .dwendtag $C$DW$6
      59              
      60              
      61              $C$DW$8 .dwtag  DW_TAG_subprogram, DW_AT_name("vPortFree")
      62                      .dwattr $C$DW$8, DW_AT_TI_symbol_name("_vPortFree")
      63                      .dwattr $C$DW$8, DW_AT_declaration
      64                      .dwattr $C$DW$8, DW_AT_external
      65              $C$DW$9 .dwtag  DW_TAG_formal_parameter
      66                      .dwattr $C$DW$9, DW_AT_type(*$C$DW$T$3)
      67                      .dwendtag $C$DW$8
      68              
      69              
      70              $C$DW$10        .dwtag  DW_TAG_subprogram, DW_AT_name("vListInitialise")
      71                      .dwattr $C$DW$10, DW_AT_TI_symbol_name("_vListInitialise")
      72                      .dwattr $C$DW$10, DW_AT_declaration
      73                      .dwattr $C$DW$10, DW_AT_external
      74              $C$DW$11        .dwtag  DW_TAG_formal_parameter
      75                      .dwattr $C$DW$11, DW_AT_type(*$C$DW$T$83)
      76                      .dwendtag $C$DW$10
      77              
      78              
      79              $C$DW$12        .dwtag  DW_TAG_subprogram, DW_AT_name("vTaskSuspendAll")
      80                      .dwattr $C$DW$12, DW_AT_TI_symbol_name("_vTaskSuspendAll")
      81                      .dwattr $C$DW$12, DW_AT_declaration
      82                      .dwattr $C$DW$12, DW_AT_external
      83              
      84              $C$DW$13        .dwtag  DW_TAG_subprogram, DW_AT_name("xTaskResumeAll")
      85                      .dwattr $C$DW$13, DW_AT_TI_symbol_name("_xTaskResumeAll")
      86                      .dwattr $C$DW$13, DW_AT_type(*$C$DW$T$49)
      87                      .dwattr $C$DW$13, DW_AT_declaration
      88                      .dwattr $C$DW$13, DW_AT_external
      89              
      90              $C$DW$14        .dwtag  DW_TAG_subprogram, DW_AT_name("vTaskPlaceOnEventList")
      91                      .dwattr $C$DW$14, DW_AT_TI_symbol_name("_vTaskPlaceOnEventList")
      92                      .dwattr $C$DW$14, DW_AT_declaration
      93                      .dwattr $C$DW$14, DW_AT_external
      94              $C$DW$15        .dwtag  DW_TAG_formal_parameter
      95                      .dwattr $C$DW$15, DW_AT_type(*$C$DW$T$83)
      96              $C$DW$16        .dwtag  DW_TAG_formal_parameter
      97                      .dwattr $C$DW$16, DW_AT_type(*$C$DW$T$86)
      98                      .dwendtag $C$DW$14
      99              
     100              
     101              $C$DW$17        .dwtag  DW_TAG_subprogram, DW_AT_name("xTaskRemoveFromEventList")
     102                      .dwattr $C$DW$17, DW_AT_TI_symbol_name("_xTaskRemoveFromEventList")
     103                      .dwattr $C$DW$17, DW_AT_type(*$C$DW$T$49)
     104                      .dwattr $C$DW$17, DW_AT_declaration
     105                      .dwattr $C$DW$17, DW_AT_external
     106              $C$DW$18        .dwtag  DW_TAG_formal_parameter
     107                      .dwattr $C$DW$18, DW_AT_type(*$C$DW$T$117)
     108                      .dwendtag $C$DW$17
     109              
TMS320C55x Assembler PC v4.4.1 Sat Sep 15 01:52:39 2018

Tools Copyright (c) 1996-2012 Texas Instruments Incorporated
queue.asm                                                            PAGE    3

     110              
     111              $C$DW$19        .dwtag  DW_TAG_subprogram, DW_AT_name("xTaskGetCurrentTaskHandle")
     112                      .dwattr $C$DW$19, DW_AT_TI_symbol_name("_xTaskGetCurrentTaskHandle")
     113                      .dwattr $C$DW$19, DW_AT_type(*$C$DW$T$38)
     114                      .dwattr $C$DW$19, DW_AT_declaration
     115                      .dwattr $C$DW$19, DW_AT_external
     116              
     117              $C$DW$20        .dwtag  DW_TAG_subprogram, DW_AT_name("xTaskCheckForTimeOut")
     118                      .dwattr $C$DW$20, DW_AT_TI_symbol_name("_xTaskCheckForTimeOut")
     119                      .dwattr $C$DW$20, DW_AT_type(*$C$DW$T$49)
     120                      .dwattr $C$DW$20, DW_AT_declaration
     121                      .dwattr $C$DW$20, DW_AT_external
     122              $C$DW$21        .dwtag  DW_TAG_formal_parameter
     123                      .dwattr $C$DW$21, DW_AT_type(*$C$DW$T$94)
     124              $C$DW$22        .dwtag  DW_TAG_formal_parameter
     125                      .dwattr $C$DW$22, DW_AT_type(*$C$DW$T$121)
     126                      .dwendtag $C$DW$20
     127              
     128              
     129              $C$DW$23        .dwtag  DW_TAG_subprogram, DW_AT_name("vTaskMissedYield")
     130                      .dwattr $C$DW$23, DW_AT_TI_symbol_name("_vTaskMissedYield")
     131                      .dwattr $C$DW$23, DW_AT_declaration
     132                      .dwattr $C$DW$23, DW_AT_external
     133              
     134              $C$DW$24        .dwtag  DW_TAG_subprogram, DW_AT_name("xTaskGetSchedulerState")
     135                      .dwattr $C$DW$24, DW_AT_TI_symbol_name("_xTaskGetSchedulerState")
     136                      .dwattr $C$DW$24, DW_AT_type(*$C$DW$T$49)
     137                      .dwattr $C$DW$24, DW_AT_declaration
     138                      .dwattr $C$DW$24, DW_AT_external
     139              
     140              $C$DW$25        .dwtag  DW_TAG_subprogram, DW_AT_name("xTaskPriorityInherit")
     141                      .dwattr $C$DW$25, DW_AT_TI_symbol_name("_xTaskPriorityInherit")
     142                      .dwattr $C$DW$25, DW_AT_type(*$C$DW$T$49)
     143                      .dwattr $C$DW$25, DW_AT_declaration
     144                      .dwattr $C$DW$25, DW_AT_external
     145              $C$DW$26        .dwtag  DW_TAG_formal_parameter
     146                      .dwattr $C$DW$26, DW_AT_type(*$C$DW$T$89)
     147                      .dwendtag $C$DW$25
     148              
     149              
     150              $C$DW$27        .dwtag  DW_TAG_subprogram, DW_AT_name("xTaskPriorityDisinherit")
     151                      .dwattr $C$DW$27, DW_AT_TI_symbol_name("_xTaskPriorityDisinherit")
     152                      .dwattr $C$DW$27, DW_AT_type(*$C$DW$T$49)
     153                      .dwattr $C$DW$27, DW_AT_declaration
     154                      .dwattr $C$DW$27, DW_AT_external
     155              $C$DW$28        .dwtag  DW_TAG_formal_parameter
     156                      .dwattr $C$DW$28, DW_AT_type(*$C$DW$T$89)
     157                      .dwendtag $C$DW$27
     158              
     159              
     160              $C$DW$29        .dwtag  DW_TAG_subprogram, DW_AT_name("vTaskPriorityDisinheritAfterTimeout")
     161                      .dwattr $C$DW$29, DW_AT_TI_symbol_name("_vTaskPriorityDisinheritAfterTimeout")
     162                      .dwattr $C$DW$29, DW_AT_declaration
     163                      .dwattr $C$DW$29, DW_AT_external
     164              $C$DW$30        .dwtag  DW_TAG_formal_parameter
TMS320C55x Assembler PC v4.4.1 Sat Sep 15 01:52:39 2018

Tools Copyright (c) 1996-2012 Texas Instruments Incorporated
queue.asm                                                            PAGE    4

     165                      .dwattr $C$DW$30, DW_AT_type(*$C$DW$T$89)
     166              $C$DW$31        .dwtag  DW_TAG_formal_parameter
     167                      .dwattr $C$DW$31, DW_AT_type(*$C$DW$T$32)
     168                      .dwendtag $C$DW$29
     169              
     170              
     171              $C$DW$32        .dwtag  DW_TAG_subprogram, DW_AT_name("pvTaskIncrementMutexHeldCount")
     172                      .dwattr $C$DW$32, DW_AT_TI_symbol_name("_pvTaskIncrementMutexHeldCount")
     173                      .dwattr $C$DW$32, DW_AT_type(*$C$DW$T$38)
     174                      .dwattr $C$DW$32, DW_AT_declaration
     175                      .dwattr $C$DW$32, DW_AT_external
     176              
     177              $C$DW$33        .dwtag  DW_TAG_subprogram, DW_AT_name("vTaskInternalSetTimeOutState")
     178                      .dwattr $C$DW$33, DW_AT_TI_symbol_name("_vTaskInternalSetTimeOutState")
     179                      .dwattr $C$DW$33, DW_AT_declaration
     180                      .dwattr $C$DW$33, DW_AT_external
     181              $C$DW$34        .dwtag  DW_TAG_formal_parameter
     182                      .dwattr $C$DW$34, DW_AT_type(*$C$DW$T$94)
     183                      .dwendtag $C$DW$33
     184              
     185              
     186              $C$DW$35        .dwtag  DW_TAG_subprogram, DW_AT_name("vCoRoutineAddToDelayedList")
     187                      .dwattr $C$DW$35, DW_AT_TI_symbol_name("_vCoRoutineAddToDelayedList")
     188                      .dwattr $C$DW$35, DW_AT_declaration
     189                      .dwattr $C$DW$35, DW_AT_external
     190              $C$DW$36        .dwtag  DW_TAG_formal_parameter
     191                      .dwattr $C$DW$36, DW_AT_type(*$C$DW$T$44)
     192              $C$DW$37        .dwtag  DW_TAG_formal_parameter
     193                      .dwattr $C$DW$37, DW_AT_type(*$C$DW$T$82)
     194                      .dwendtag $C$DW$35
     195              
     196              
     197              $C$DW$38        .dwtag  DW_TAG_subprogram, DW_AT_name("xCoRoutineRemoveFromEventList")
     198                      .dwattr $C$DW$38, DW_AT_TI_symbol_name("_xCoRoutineRemoveFromEventList")
     199                      .dwattr $C$DW$38, DW_AT_type(*$C$DW$T$49)
     200                      .dwattr $C$DW$38, DW_AT_declaration
     201                      .dwattr $C$DW$38, DW_AT_external
     202              $C$DW$39        .dwtag  DW_TAG_formal_parameter
     203                      .dwattr $C$DW$39, DW_AT_type(*$C$DW$T$116)
     204                      .dwendtag $C$DW$38
     205              
     206                      .global _xQueueRegistry
     207 000000               .bss    _xQueueRegistry,32,0,2
     208              $C$DW$40        .dwtag  DW_TAG_variable, DW_AT_name("xQueueRegistry")
     209                      .dwattr $C$DW$40, DW_AT_TI_symbol_name("_xQueueRegistry")
     210                      .dwattr $C$DW$40, DW_AT_location[DW_OP_addr _xQueueRegistry]
     211                      .dwattr $C$DW$40, DW_AT_type(*$C$DW$T$53)
     212                      .dwattr $C$DW$40, DW_AT_external
     213              $C$DW$41        .dwtag  DW_TAG_variable, DW_AT_name("usCriticalNesting")
     214                      .dwattr $C$DW$41, DW_AT_TI_symbol_name("_usCriticalNesting")
     215                      .dwattr $C$DW$41, DW_AT_type(*$C$DW$T$155)
     216                      .dwattr $C$DW$41, DW_AT_declaration
     217                      .dwattr $C$DW$41, DW_AT_external
     218              ;       F:\ti\ccs8p1\ccsv8\tools\compiler\alt-install-ti-cgt-c55x_4.4.1\bin\acp55.exe -@f:\\AppData\\Local\\T
     219 000000               .sect   ".text"
TMS320C55x Assembler PC v4.4.1 Sat Sep 15 01:52:39 2018

Tools Copyright (c) 1996-2012 Texas Instruments Incorporated
queue.asm                                                            PAGE    5

     220                      .align 4
     221                      .global _xQueueGenericReset
     222              
     223              $C$DW$42        .dwtag  DW_TAG_subprogram, DW_AT_name("xQueueGenericReset")
     224                      .dwattr $C$DW$42, DW_AT_low_pc(_xQueueGenericReset)
     225                      .dwattr $C$DW$42, DW_AT_high_pc(0x00)
     226                      .dwattr $C$DW$42, DW_AT_TI_symbol_name("_xQueueGenericReset")
     227                      .dwattr $C$DW$42, DW_AT_external
     228                      .dwattr $C$DW$42, DW_AT_type(*$C$DW$T$49)
     229                      .dwattr $C$DW$42, DW_AT_TI_begin_file("../FreeRTOS/Source/queue.c")
     230                      .dwattr $C$DW$42, DW_AT_TI_begin_line(0xff)
     231                      .dwattr $C$DW$42, DW_AT_TI_begin_column(0x0c)
     232                      .dwattr $C$DW$42, DW_AT_TI_max_frame_size(0x08)
     233                      .dwpsn  file "../FreeRTOS/Source/queue.c",line 256,column 1,is_stmt,address _xQueueGenericReset
     234              
     235                      .dwfde $C$DW$CIE, _xQueueGenericReset
     236              $C$DW$43        .dwtag  DW_TAG_formal_parameter, DW_AT_name("xQueue")
     237                      .dwattr $C$DW$43, DW_AT_TI_symbol_name("_xQueue")
     238                      .dwattr $C$DW$43, DW_AT_type(*$C$DW$T$27)
     239                      .dwattr $C$DW$43, DW_AT_location[DW_OP_reg17]
     240              $C$DW$44        .dwtag  DW_TAG_formal_parameter, DW_AT_name("xNewQueue")
     241                      .dwattr $C$DW$44, DW_AT_TI_symbol_name("_xNewQueue")
     242                      .dwattr $C$DW$44, DW_AT_type(*$C$DW$T$49)
     243                      .dwattr $C$DW$44, DW_AT_location[DW_OP_reg12]
     244              ;*******************************************************************************
     245              ;* FUNCTION NAME: xQueueGenericReset                                           *
     246              ;*                                                                             *
     247              ;*   Function Uses Regs : AC0,AC0,T0,T1,AR0,XAR0,AR1,AR2,XAR2,AR3,XAR3,SP,     *
     248              ;*                        CARRY,M40,SATA,SATD,RDM,FRCT,SMUL                    *
     249              ;*   Stack Frame        : Compact (No Frame Pointer, w/ debug)                 *
     250              ;*   Total Frame Size   : 8 words                                              *
     251              ;*                        (2 return address/alignment)                         *
     252              ;*                        (6 local values)                                     *
     253              ;*   Min System Stack   : 1 word                                               *
     254              ;*******************************************************************************
     255 000000       _xQueueGenericReset:
     256                      .dwcfi  cfa_offset, 1
     257                      .dwcfi  save_reg_to_mem, 91, -1
     258 000000 4EF9          AADD #-7, SP
     259                      .dwcfi  cfa_offset, 8
     260              $C$DW$45        .dwtag  DW_TAG_variable, DW_AT_name("xQueue")
     261                      .dwattr $C$DW$45, DW_AT_TI_symbol_name("_xQueue")
     262                      .dwattr $C$DW$45, DW_AT_type(*$C$DW$T$27)
     263                      .dwattr $C$DW$45, DW_AT_location[DW_OP_bregx 0x24 0]
     264              $C$DW$46        .dwtag  DW_TAG_variable, DW_AT_name("xNewQueue")
     265                      .dwattr $C$DW$46, DW_AT_TI_symbol_name("_xNewQueue")
     266                      .dwattr $C$DW$46, DW_AT_type(*$C$DW$T$49)
     267                      .dwattr $C$DW$46, DW_AT_location[DW_OP_bregx 0x24 2]
     268              $C$DW$47        .dwtag  DW_TAG_variable, DW_AT_name("pxQueue")
     269                      .dwattr $C$DW$47, DW_AT_TI_symbol_name("_pxQueue")
     270                      .dwattr $C$DW$47, DW_AT_type(*$C$DW$T$69)
     271                      .dwattr $C$DW$47, DW_AT_location[DW_OP_bregx 0x24 4]
     272 000002 C404          MOV T0, *SP(#2) ; |256| 
     273 000004 EB00          MOV XAR0, dbl(*SP(#0))
         000006 85   
TMS320C55x Assembler PC v4.4.1 Sat Sep 15 01:52:39 2018

Tools Copyright (c) 1996-2012 Texas Instruments Incorporated
queue.asm                                                            PAGE    6

     274                      .dwpsn  file "../FreeRTOS/Source/queue.c",line 257,column 17,is_stmt
     275 000007 ED00          MOV dbl(*SP(#0)), XAR3
         000009 BF   
     276 00000a EB08          MOV XAR3, dbl(*SP(#4))
         00000c B5   
     277                      .dwpsn  file "../FreeRTOS/Source/queue.c",line 259,column 2,is_stmt
     278 00000d 90B0          MOV XAR3, AC0
     279 00000f 6290          BCC $C$L2,AC0 != #0 ; |259| 
     280                                                      ; branchcc occurs ; |259| 
     281 000011 20     nop
     282 000012 46B3   bset INTM
     283 000014       $C$L1:    
     284 000014       $C$DW$L$_xQueueGenericReset$3$B:
     285 000014 4A7E          B $C$L1   ; |259| 
     286                                                      ; branch occurs ; |259| 
     287 000016       $C$DW$L$_xQueueGenericReset$3$E:
     288 000016       $C$L2:    
     289                      .dwpsn  file "../FreeRTOS/Source/queue.c",line 261,column 2,is_stmt
     290 000016 20     nop
     291 000017 46B3   bset INTM
     292 000019 F731          ADD #1, *(#_usCriticalNesting) ; |261| 
         00001b 0001 
         00001d 0000 
         00001f 00!  
     293                      .dwpsn  file "../FreeRTOS/Source/queue.c",line 263,column 3,is_stmt
     294 000020 ED08          MOV dbl(*SP(#4)), XAR2
         000022 AF   
     295 000023 A54D          MOV *AR2(#30), T1 ; |263| 
         000025 001E 
     296 000027 D36D          MPYM *AR3(#29), T1, AC0 ; |263| 
         000029 0500 
         00002b 1D   
     297 00002c 2209          MOV AC0, AR1 ; |263| 
     298 00002e ED61          MOV dbl(*AR3), XAR3
         000030 BF   
     299              
     300 000031 8E59          MOV XAR3, dbl(*AR2(short(#4)))
         000033 BB10 
         000035 B590 
     301              ||      AADD AR1, AR3 ; |263| 
     302              
     303                      .dwpsn  file "../FreeRTOS/Source/queue.c",line 264,column 3,is_stmt
     304 000037 ED08          MOV dbl(*SP(#4)), XAR3
         000039 BF   
     305 00003a E66D          MOV #0, *AR3(#28) ; |264| 
         00003c 0000 
         00003e 1C   
     306                      .dwpsn  file "../FreeRTOS/Source/queue.c",line 265,column 3,is_stmt
     307 00003f ED08          MOV dbl(*SP(#4)), XAR3
         000041 BF   
     308 000042 ED61          MOV dbl(*AR3), XAR2
         000044 AF   
     309 000045 EB75          MOV XAR2, dbl(*AR3(short(#2)))
         000047 A5   
     310                      .dwpsn  file "../FreeRTOS/Source/queue.c",line 266,column 3,is_stmt
TMS320C55x Assembler PC v4.4.1 Sat Sep 15 01:52:39 2018

Tools Copyright (c) 1996-2012 Texas Instruments Incorporated
queue.asm                                                            PAGE    7

     311 000048 ED08          MOV dbl(*SP(#4)), XAR2
         00004a AF   
     312 00004b ED08          MOV dbl(*SP(#4)), XAR3
         00004d BF   
     313 00004e A54D          MOV *AR2(#29), T1 ; |266| 
         000050 001D 
     314 000052 4215          SUB #1, T1 ; |266| 
     315 000054 D36D          MPYM *AR3(#30), T1, AC0 ; |266| 
         000056 0500 
         000058 1E   
     316 000059 2209          MOV AC0, AR1 ; |266| 
     317 00005b ED61          MOV dbl(*AR3), XAR3
         00005d BF   
     318              
     319 00005e 8E5D          MOV XAR3, dbl(*AR2(short(#6)))
         000060 BB10 
         000062 B590 
     320              ||      AADD AR1, AR3 ; |266| 
     321              
     322                      .dwpsn  file "../FreeRTOS/Source/queue.c",line 267,column 3,is_stmt
     323 000064 ED08          MOV dbl(*SP(#4)), XAR3
         000066 BF   
     324 000067 E66D          MOV #-1, *AR3(#31) ; |267| 
         000069 FF00 
         00006b 1F   
     325                      .dwpsn  file "../FreeRTOS/Source/queue.c",line 268,column 3,is_stmt
     326 00006c ED08          MOV dbl(*SP(#4)), XAR3
         00006e BF   
     327 00006f E66D          MOV #-1, *AR3(#32) ; |268| 
         000071 FF00 
         000073 20   
     328                      .dwpsn  file "../FreeRTOS/Source/queue.c",line 270,column 3,is_stmt
     329 000074 A904          MOV *SP(#2), AR1 ; |270| 
     330 000076 0419          BCC $C$L5,AR1 != #0 ; |270| 
         000078 25   
     331                                                      ; branchcc occurs ; |270| 
     332                      .dwpsn  file "../FreeRTOS/Source/queue.c",line 277,column 4,is_stmt
     333 000079 ED08          MOV dbl(*SP(#4)), XAR3
         00007b BF   
     334 00007c A96D          MOV *AR3(#8), AR1 ; |277| 
         00007e 0008 
     335 000080 6219          BCC $C$L3,AR1 != #0 ; |277| 
     336                                                      ; branchcc occurs ; |277| 
     337 000082 3C19          MOV #1, AR1
     338 000084 4A02          B $C$L4   ; |277| 
     339                                                      ; branch occurs ; |277| 
     340 000086       $C$L3:    
     341 000086 3C09          MOV #0, AR1
     342 000088       $C$L4:    
     343 000088 0419          BCC $C$L6,AR1 != #0 ; |277| 
         00008a 27   
     344                                                      ; branchcc occurs ; |277| 
     345                      .dwpsn  file "../FreeRTOS/Source/queue.c",line 279,column 5,is_stmt
     346 00008b ED08          MOV dbl(*SP(#4)), XAR0
         00008d 8F   
TMS320C55x Assembler PC v4.4.1 Sat Sep 15 01:52:39 2018

Tools Copyright (c) 1996-2012 Texas Instruments Incorporated
queue.asm                                                            PAGE    8

     347 00008e 1408          AADD #8, AR0 ; |279| 
         000090 84   
     348              $C$DW$48        .dwtag  DW_TAG_TI_branch
     349                      .dwattr $C$DW$48, DW_AT_low_pc(0x00)
     350                      .dwattr $C$DW$48, DW_AT_name("_xTaskRemoveFromEventList")
     351                      .dwattr $C$DW$48, DW_AT_TI_call
     352 000091 6C00          CALL #_xTaskRemoveFromEventList ; |279| 
         000093 0000!
     353                                                      ; call occurs [#_xTaskRemoveFromEventList] ; |279| 
     354 000095 0404          BCC $C$L6,T0 == #0 ; |279| 
         000097 1A   
     355                                                      ; branchcc occurs ; |279| 
     356                      .dwpsn  file "../FreeRTOS/Source/queue.c",line 281,column 6,is_stmt
     357              $C$DW$49        .dwtag  DW_TAG_TI_branch
     358                      .dwattr $C$DW$49, DW_AT_low_pc(0x00)
     359                      .dwattr $C$DW$49, DW_AT_name("_vPortYield")
     360                      .dwattr $C$DW$49, DW_AT_TI_call
     361 000098 6C00          CALL #_vPortYield ; |281| 
         00009a 0000!
     362                                                      ; call occurs [#_vPortYield] ; |281| 
     363                      .dwpsn  file "../FreeRTOS/Source/queue.c",line 282,column 5,is_stmt
     364 00009c 4A14          B $C$L6   ; |282| 
     365                                                      ; branch occurs ; |282| 
     366 00009e       $C$L5:    
     367                      .dwpsn  file "../FreeRTOS/Source/queue.c",line 296,column 4,is_stmt
     368 00009e ED08          MOV dbl(*SP(#4)), XAR0
         0000a0 8F   
     369 0000a1 1408          AADD #8, AR0 ; |296| 
         0000a3 84   
     370              $C$DW$50        .dwtag  DW_TAG_TI_branch
     371                      .dwattr $C$DW$50, DW_AT_low_pc(0x00)
     372                      .dwattr $C$DW$50, DW_AT_name("_vListInitialise")
     373                      .dwattr $C$DW$50, DW_AT_TI_call
     374 0000a4 6C00          CALL #_vListInitialise ; |296| 
         0000a6 0000!
     375                                                      ; call occurs [#_vListInitialise] ; |296| 
     376                      .dwpsn  file "../FreeRTOS/Source/queue.c",line 297,column 4,is_stmt
     377 0000a8 ED08          MOV dbl(*SP(#4)), XAR0
         0000aa 8F   
     378 0000ab 1412          AADD #18, AR0 ; |297| 
         0000ad 84   
     379              $C$DW$51        .dwtag  DW_TAG_TI_branch
     380                      .dwattr $C$DW$51, DW_AT_low_pc(0x00)
     381                      .dwattr $C$DW$51, DW_AT_name("_vListInitialise")
     382                      .dwattr $C$DW$51, DW_AT_TI_call
     383 0000ae 6C00          CALL #_vListInitialise ; |297| 
         0000b0 0000!
     384                                                      ; call occurs [#_vListInitialise] ; |297| 
     385 0000b2       $C$L6:    
     386                      .dwpsn  file "../FreeRTOS/Source/queue.c",line 300,column 2,is_stmt
     387 0000b2 A931          MOV *(#_usCriticalNesting), AR1 ; |300| 
         0000b4 0000 
         0000b6 00!  
     388 0000b7 0409          BCC $C$L7,AR1 == #0 ; |300| 
         0000b9 14   
TMS320C55x Assembler PC v4.4.1 Sat Sep 15 01:52:39 2018

Tools Copyright (c) 1996-2012 Texas Instruments Incorporated
queue.asm                                                            PAGE    9

     389                                                      ; branchcc occurs ; |300| 
     390 0000ba F731          SUB #1, *(#_usCriticalNesting) ; |300| 
         0000bc FFFF 
         0000be 0000 
         0000c0 00!  
     391 0000c1 20            NOP
     392 0000c2 20            NOP
     393 0000c3 20            NOP
     394 0000c4 A931          MOV *(#_usCriticalNesting), AR1 ; |300| 
         0000c6 0000 
         0000c8 00!  
     395 0000c9 6199          BCC $C$L7,AR1 != #0 ; |300| 
     396                                                      ; branchcc occurs ; |300| 
     397 0000cb 20     nop
     398 0000cc 46B2   bclr INTM
     399 0000ce       $C$L7:    
     400                      .dwpsn  file "../FreeRTOS/Source/queue.c",line 304,column 2,is_stmt
     401 0000ce 3C14          MOV #1, T0
     402                      .dwpsn  file "../FreeRTOS/Source/queue.c",line 305,column 1,is_stmt
     403 0000d0 4E07          AADD #7, SP
     404                      .dwcfi  cfa_offset, 1
     405              $C$DW$52        .dwtag  DW_TAG_TI_branch
     406                      .dwattr $C$DW$52, DW_AT_low_pc(0x00)
     407                      .dwattr $C$DW$52, DW_AT_TI_return
     408 0000d2 4804          RET
     409                                                      ; return occurs
     410              
     411              $C$DW$53        .dwtag  DW_TAG_TI_loop
     412                      .dwattr $C$DW$53, DW_AT_name("F:\eZdsp_DBG\eZDSP_5535_Files\ccsws2\test\Debug\queue.asm:$C$L1:1:15370
     413                      .dwattr $C$DW$53, DW_AT_TI_begin_file("../FreeRTOS/Source/queue.c")
     414                      .dwattr $C$DW$53, DW_AT_TI_begin_line(0x103)
     415                      .dwattr $C$DW$53, DW_AT_TI_end_line(0x103)
     416              $C$DW$54        .dwtag  DW_TAG_TI_loop_range
     417                      .dwattr $C$DW$54, DW_AT_low_pc($C$DW$L$_xQueueGenericReset$3$B)
     418                      .dwattr $C$DW$54, DW_AT_high_pc($C$DW$L$_xQueueGenericReset$3$E)
     419                      .dwendtag $C$DW$53
     420              
     421                      .dwattr $C$DW$42, DW_AT_TI_end_file("../FreeRTOS/Source/queue.c")
     422                      .dwattr $C$DW$42, DW_AT_TI_end_line(0x131)
     423                      .dwattr $C$DW$42, DW_AT_TI_end_column(0x01)
     424                      .dwendentry
     425                      .dwendtag $C$DW$42
     426              
     427 0000d4               .sect   ".text"
     428                      .align 4
     429                      .global _xQueueGenericCreate
     430              
     431              $C$DW$55        .dwtag  DW_TAG_subprogram, DW_AT_name("xQueueGenericCreate")
     432                      .dwattr $C$DW$55, DW_AT_low_pc(_xQueueGenericCreate)
     433                      .dwattr $C$DW$55, DW_AT_high_pc(0x00)
     434                      .dwattr $C$DW$55, DW_AT_TI_symbol_name("_xQueueGenericCreate")
     435                      .dwattr $C$DW$55, DW_AT_external
     436                      .dwattr $C$DW$55, DW_AT_type(*$C$DW$T$27)
     437                      .dwattr $C$DW$55, DW_AT_TI_begin_file("../FreeRTOS/Source/queue.c")
     438                      .dwattr $C$DW$55, DW_AT_TI_begin_line(0x170)
TMS320C55x Assembler PC v4.4.1 Sat Sep 15 01:52:39 2018

Tools Copyright (c) 1996-2012 Texas Instruments Incorporated
queue.asm                                                            PAGE   10

     439                      .dwattr $C$DW$55, DW_AT_TI_begin_column(0x10)
     440                      .dwattr $C$DW$55, DW_AT_TI_max_frame_size(0x0c)
     441                      .dwpsn  file "../FreeRTOS/Source/queue.c",line 369,column 2,is_stmt,address _xQueueGenericCreate
     442              
     443                      .dwfde $C$DW$CIE, _xQueueGenericCreate
     444              $C$DW$56        .dwtag  DW_TAG_formal_parameter, DW_AT_name("uxQueueLength")
     445                      .dwattr $C$DW$56, DW_AT_TI_symbol_name("_uxQueueLength")
     446                      .dwattr $C$DW$56, DW_AT_type(*$C$DW$T$56)
     447                      .dwattr $C$DW$56, DW_AT_location[DW_OP_reg12]
     448              $C$DW$57        .dwtag  DW_TAG_formal_parameter, DW_AT_name("uxItemSize")
     449                      .dwattr $C$DW$57, DW_AT_TI_symbol_name("_uxItemSize")
     450                      .dwattr $C$DW$57, DW_AT_type(*$C$DW$T$56)
     451                      .dwattr $C$DW$57, DW_AT_location[DW_OP_reg13]
     452              $C$DW$58        .dwtag  DW_TAG_formal_parameter, DW_AT_name("ucQueueType")
     453                      .dwattr $C$DW$58, DW_AT_TI_symbol_name("_ucQueueType")
     454                      .dwattr $C$DW$58, DW_AT_type(*$C$DW$T$58)
     455                      .dwattr $C$DW$58, DW_AT_location[DW_OP_reg16]
     456              ;*******************************************************************************
     457              ;* FUNCTION NAME: xQueueGenericCreate                                          *
     458              ;*                                                                             *
     459              ;*   Function Uses Regs : AC0,AC0,T0,T1,AR0,XAR0,AR1,AR2,XAR2,AR3,XAR3,SP,     *
     460              ;*                        CARRY,M40,SATA,SATD,RDM,FRCT,SMUL                    *
     461              ;*   Stack Frame        : Compact (No Frame Pointer, w/ debug)                 *
     462              ;*   Total Frame Size   : 12 words                                             *
     463              ;*                        (2 return address/alignment)                         *
     464              ;*                        (10 local values)                                    *
     465              ;*   Min System Stack   : 1 word                                               *
     466              ;*******************************************************************************
     467 0000d4       _xQueueGenericCreate:
     468                      .dwcfi  cfa_offset, 1
     469                      .dwcfi  save_reg_to_mem, 91, -1
     470 0000d4 4EF5          AADD #-11, SP
     471                      .dwcfi  cfa_offset, 12
     472              $C$DW$59        .dwtag  DW_TAG_variable, DW_AT_name("uxQueueLength")
     473                      .dwattr $C$DW$59, DW_AT_TI_symbol_name("_uxQueueLength")
     474                      .dwattr $C$DW$59, DW_AT_type(*$C$DW$T$56)
     475                      .dwattr $C$DW$59, DW_AT_location[DW_OP_bregx 0x24 0]
     476              $C$DW$60        .dwtag  DW_TAG_variable, DW_AT_name("uxItemSize")
     477                      .dwattr $C$DW$60, DW_AT_TI_symbol_name("_uxItemSize")
     478                      .dwattr $C$DW$60, DW_AT_type(*$C$DW$T$56)
     479                      .dwattr $C$DW$60, DW_AT_location[DW_OP_bregx 0x24 1]
     480              $C$DW$61        .dwtag  DW_TAG_variable, DW_AT_name("ucQueueType")
     481                      .dwattr $C$DW$61, DW_AT_TI_symbol_name("_ucQueueType")
     482                      .dwattr $C$DW$61, DW_AT_type(*$C$DW$T$58)
     483                      .dwattr $C$DW$61, DW_AT_location[DW_OP_bregx 0x24 2]
     484              $C$DW$62        .dwtag  DW_TAG_variable, DW_AT_name("pxNewQueue")
     485                      .dwattr $C$DW$62, DW_AT_TI_symbol_name("_pxNewQueue")
     486                      .dwattr $C$DW$62, DW_AT_type(*$C$DW$T$68)
     487                      .dwattr $C$DW$62, DW_AT_location[DW_OP_bregx 0x24 4]
     488              $C$DW$63        .dwtag  DW_TAG_variable, DW_AT_name("xQueueSizeInBytes")
     489                      .dwattr $C$DW$63, DW_AT_TI_symbol_name("_xQueueSizeInBytes")
     490                      .dwattr $C$DW$63, DW_AT_type(*$C$DW$T$72)
     491                      .dwattr $C$DW$63, DW_AT_location[DW_OP_bregx 0x24 6]
     492              $C$DW$64        .dwtag  DW_TAG_variable, DW_AT_name("pucQueueStorage")
     493                      .dwattr $C$DW$64, DW_AT_TI_symbol_name("_pucQueueStorage")
TMS320C55x Assembler PC v4.4.1 Sat Sep 15 01:52:39 2018

Tools Copyright (c) 1996-2012 Texas Instruments Incorporated
queue.asm                                                            PAGE   11

     494                      .dwattr $C$DW$64, DW_AT_type(*$C$DW$T$99)
     495                      .dwattr $C$DW$64, DW_AT_location[DW_OP_bregx 0x24 8]
     496 0000d6 C804          MOV AR0, *SP(#2) ; |369| 
     497 0000d8 C502          MOV T1, *SP(#1) ; |369| 
     498 0000da C400          MOV T0, *SP(#0) ; |369| 
     499                      .dwpsn  file "../FreeRTOS/Source/queue.c",line 374,column 3,is_stmt
     500 0000dc 224A          MOV T0, AR2
     501              
     502 0000de 610A          BCC $C$L8,AR2 == #0 ; |374| 
     503 0000e0 3D09  ||      MOV #0, AR1
     504              
     505                                                      ; branchcc occurs ; |374| 
     506 0000e2 3C19          MOV #1, AR1
     507 0000e4       $C$L8:    
     508 0000e4 6299          BCC $C$L10,AR1 != #0 ; |374| 
     509                                                      ; branchcc occurs ; |374| 
     510 0000e6 20     nop
     511 0000e7 46B3   bset INTM
     512 0000e9       $C$L9:    
     513 0000e9       $C$DW$L$_xQueueGenericCreate$5$B:
     514 0000e9 4A7E          B $C$L9   ; |374| 
     515                                                      ; branch occurs ; |374| 
     516 0000eb       $C$DW$L$_xQueueGenericCreate$5$E:
     517 0000eb       $C$L10:    
     518                      .dwpsn  file "../FreeRTOS/Source/queue.c",line 376,column 3,is_stmt
     519 0000eb A902          MOV *SP(#1), AR1 ; |376| 
     520 0000ed 6299          BCC $C$L11,AR1 != #0 ; |376| 
     521                                                      ; branchcc occurs ; |376| 
     522                      .dwpsn  file "../FreeRTOS/Source/queue.c",line 379,column 4,is_stmt
     523 0000ef E60C          MOV #0, *SP(#6) ; |379| 
         0000f1 00   
     524                      .dwpsn  file "../FreeRTOS/Source/queue.c",line 380,column 3,is_stmt
     525 0000f2 4A07          B $C$L12  ; |380| 
     526                                                      ; branch occurs ; |380| 
     527 0000f4       $C$L11:    
     528                      .dwpsn  file "../FreeRTOS/Source/queue.c",line 385,column 4,is_stmt
     529 0000f4 2295          MOV AR1, T1
     530 0000f6 D300          MPYM *SP(#0), T1, AC0 ; |385| 
         0000f8 05   
     531 0000f9 C00C          MOV AC0, *SP(#6) ; |385| 
     532 0000fb       $C$L12:    
     533                      .dwpsn  file "../FreeRTOS/Source/queue.c",line 397,column 3,is_stmt
     534 0000fb A90C          MOV *SP(#6), AR1 ; |397| 
     535 0000fd 7B00          ADD #34, AR1, T0 ; |397| 
         0000ff 2249 
     536              $C$DW$65        .dwtag  DW_TAG_TI_branch
     537                      .dwattr $C$DW$65, DW_AT_low_pc(0x00)
     538                      .dwattr $C$DW$65, DW_AT_name("_pvPortMalloc")
     539                      .dwattr $C$DW$65, DW_AT_TI_call
     540 000101 6C00          CALL #_pvPortMalloc ; |397| 
         000103 0000!
     541                                                      ; call occurs [#_pvPortMalloc] ; |397| 
     542 000105 EB08          MOV XAR0, dbl(*SP(#4))
         000107 85   
     543                      .dwpsn  file "../FreeRTOS/Source/queue.c",line 399,column 3,is_stmt
TMS320C55x Assembler PC v4.4.1 Sat Sep 15 01:52:39 2018

Tools Copyright (c) 1996-2012 Texas Instruments Incorporated
queue.asm                                                            PAGE   12

     544 000108 ED08          MOV dbl(*SP(#4)), XAR3
         00010a BF   
     545 00010b 90B0          MOV XAR3, AC0
     546 00010d 0400          BCC $C$L13,AC0 == #0 ; |399| 
         00010f 18   
     547                                                      ; branchcc occurs ; |399| 
     548                      .dwpsn  file "../FreeRTOS/Source/queue.c",line 403,column 4,is_stmt
     549 000110 EB10          MOV XAR3, dbl(*SP(#8))
         000112 B5   
     550                      .dwpsn  file "../FreeRTOS/Source/queue.c",line 404,column 4,is_stmt
     551              
     552 000113 8E10          MOV XAR3, dbl(*SP(#8))
         000115 BB14 
         000117 B522 
     553              ||      AADD #34, AR3 ; |404| 
     554              
     555                      .dwpsn  file "../FreeRTOS/Source/queue.c",line 415,column 4,is_stmt
     556 000119 A400          MOV *SP(#0), T0 ; |415| 
     557 00011b A502          MOV *SP(#1), T1 ; |415| 
     558 00011d ED10          MOV dbl(*SP(#8)), XAR0
         00011f 8F   
     559 000120 A904          MOV *SP(#2), AR1 ; |415| 
     560 000122 ED08          MOV dbl(*SP(#4)), XAR2
         000124 AF   
     561              $C$DW$66        .dwtag  DW_TAG_TI_branch
     562                      .dwattr $C$DW$66, DW_AT_low_pc(0x00)
     563                      .dwattr $C$DW$66, DW_AT_name("_prvInitialiseNewQueue")
     564                      .dwattr $C$DW$66, DW_AT_TI_call
     565 000125 0800          CALL #_prvInitialiseNewQueue ; |415| 
         000127 08   
     566                                                      ; call occurs [#_prvInitialiseNewQueue] ; |415| 
     567                      .dwpsn  file "../FreeRTOS/Source/queue.c",line 416,column 3,is_stmt
     568 000128       $C$L13:    
     569                      .dwpsn  file "../FreeRTOS/Source/queue.c",line 423,column 3,is_stmt
     570 000128 ED08          MOV dbl(*SP(#4)), XAR0
         00012a 8F   
     571                      .dwpsn  file "../FreeRTOS/Source/queue.c",line 424,column 2,is_stmt
     572 00012b 4E0B          AADD #11, SP
     573                      .dwcfi  cfa_offset, 1
     574              $C$DW$67        .dwtag  DW_TAG_TI_branch
     575                      .dwattr $C$DW$67, DW_AT_low_pc(0x00)
     576                      .dwattr $C$DW$67, DW_AT_TI_return
     577 00012d 4804          RET
     578                                                      ; return occurs
     579              
     580              $C$DW$68        .dwtag  DW_TAG_TI_loop
     581                      .dwattr $C$DW$68, DW_AT_name("F:\eZdsp_DBG\eZDSP_5535_Files\ccsws2\test\Debug\queue.asm:$C$L9:1:15370
     582                      .dwattr $C$DW$68, DW_AT_TI_begin_file("../FreeRTOS/Source/queue.c")
     583                      .dwattr $C$DW$68, DW_AT_TI_begin_line(0x176)
     584                      .dwattr $C$DW$68, DW_AT_TI_end_line(0x176)
     585              $C$DW$69        .dwtag  DW_TAG_TI_loop_range
     586                      .dwattr $C$DW$69, DW_AT_low_pc($C$DW$L$_xQueueGenericCreate$5$B)
     587                      .dwattr $C$DW$69, DW_AT_high_pc($C$DW$L$_xQueueGenericCreate$5$E)
     588                      .dwendtag $C$DW$68
     589              
TMS320C55x Assembler PC v4.4.1 Sat Sep 15 01:52:39 2018

Tools Copyright (c) 1996-2012 Texas Instruments Incorporated
queue.asm                                                            PAGE   13

     590                      .dwattr $C$DW$55, DW_AT_TI_end_file("../FreeRTOS/Source/queue.c")
     591                      .dwattr $C$DW$55, DW_AT_TI_end_line(0x1a8)
     592                      .dwattr $C$DW$55, DW_AT_TI_end_column(0x02)
     593                      .dwendentry
     594                      .dwendtag $C$DW$55
     595              
     596 00012f               .sect   ".text"
     597                      .align 4
     598              
     599              $C$DW$70        .dwtag  DW_TAG_subprogram, DW_AT_name("prvInitialiseNewQueue")
     600                      .dwattr $C$DW$70, DW_AT_low_pc(_prvInitialiseNewQueue)
     601                      .dwattr $C$DW$70, DW_AT_high_pc(0x00)
     602                      .dwattr $C$DW$70, DW_AT_TI_symbol_name("_prvInitialiseNewQueue")
     603                      .dwattr $C$DW$70, DW_AT_TI_begin_file("../FreeRTOS/Source/queue.c")
     604                      .dwattr $C$DW$70, DW_AT_TI_begin_line(0x1ad)
     605                      .dwattr $C$DW$70, DW_AT_TI_begin_column(0x0d)
     606                      .dwattr $C$DW$70, DW_AT_TI_max_frame_size(0x0a)
     607                      .dwpsn  file "../FreeRTOS/Source/queue.c",line 430,column 1,is_stmt,address _prvInitialiseNewQueue
     608              
     609                      .dwfde $C$DW$CIE, _prvInitialiseNewQueue
     610              $C$DW$71        .dwtag  DW_TAG_formal_parameter, DW_AT_name("uxQueueLength")
     611                      .dwattr $C$DW$71, DW_AT_TI_symbol_name("_uxQueueLength")
     612                      .dwattr $C$DW$71, DW_AT_type(*$C$DW$T$56)
     613                      .dwattr $C$DW$71, DW_AT_location[DW_OP_reg12]
     614              $C$DW$72        .dwtag  DW_TAG_formal_parameter, DW_AT_name("uxItemSize")
     615                      .dwattr $C$DW$72, DW_AT_TI_symbol_name("_uxItemSize")
     616                      .dwattr $C$DW$72, DW_AT_type(*$C$DW$T$56)
     617                      .dwattr $C$DW$72, DW_AT_location[DW_OP_reg13]
     618              $C$DW$73        .dwtag  DW_TAG_formal_parameter, DW_AT_name("pucQueueStorage")
     619                      .dwattr $C$DW$73, DW_AT_TI_symbol_name("_pucQueueStorage")
     620                      .dwattr $C$DW$73, DW_AT_type(*$C$DW$T$99)
     621                      .dwattr $C$DW$73, DW_AT_location[DW_OP_reg17]
     622              $C$DW$74        .dwtag  DW_TAG_formal_parameter, DW_AT_name("ucQueueType")
     623                      .dwattr $C$DW$74, DW_AT_TI_symbol_name("_ucQueueType")
     624                      .dwattr $C$DW$74, DW_AT_type(*$C$DW$T$58)
     625                      .dwattr $C$DW$74, DW_AT_location[DW_OP_reg18]
     626              $C$DW$75        .dwtag  DW_TAG_formal_parameter, DW_AT_name("pxNewQueue")
     627                      .dwattr $C$DW$75, DW_AT_TI_symbol_name("_pxNewQueue")
     628                      .dwattr $C$DW$75, DW_AT_type(*$C$DW$T$68)
     629                      .dwattr $C$DW$75, DW_AT_location[DW_OP_reg21]
     630              ;*******************************************************************************
     631              ;* FUNCTION NAME: prvInitialiseNewQueue                                        *
     632              ;*                                                                             *
     633              ;*   Function Uses Regs : T0,T1,AR0,XAR0,AR1,AR2,XAR2,AR3,XAR3,SP,M40,SATA,    *
     634              ;*                        SATD,RDM,FRCT,SMUL                                   *
     635              ;*   Stack Frame        : Compact (No Frame Pointer, w/ debug)                 *
     636              ;*   Total Frame Size   : 10 words                                             *
     637              ;*                        (2 return address/alignment)                         *
     638              ;*                        (8 local values)                                     *
     639              ;*   Min System Stack   : 1 word                                               *
     640              ;*******************************************************************************
     641 000130       _prvInitialiseNewQueue:
     642                      .dwcfi  cfa_offset, 1
     643                      .dwcfi  save_reg_to_mem, 91, -1
     644 000130 4EF7          AADD #-9, SP
TMS320C55x Assembler PC v4.4.1 Sat Sep 15 01:52:39 2018

Tools Copyright (c) 1996-2012 Texas Instruments Incorporated
queue.asm                                                            PAGE   14

     645                      .dwcfi  cfa_offset, 10
     646              $C$DW$76        .dwtag  DW_TAG_variable, DW_AT_name("uxQueueLength")
     647                      .dwattr $C$DW$76, DW_AT_TI_symbol_name("_uxQueueLength")
     648                      .dwattr $C$DW$76, DW_AT_type(*$C$DW$T$56)
     649                      .dwattr $C$DW$76, DW_AT_location[DW_OP_bregx 0x24 0]
     650              $C$DW$77        .dwtag  DW_TAG_variable, DW_AT_name("uxItemSize")
     651                      .dwattr $C$DW$77, DW_AT_TI_symbol_name("_uxItemSize")
     652                      .dwattr $C$DW$77, DW_AT_type(*$C$DW$T$56)
     653                      .dwattr $C$DW$77, DW_AT_location[DW_OP_bregx 0x24 1]
     654              $C$DW$78        .dwtag  DW_TAG_variable, DW_AT_name("pucQueueStorage")
     655                      .dwattr $C$DW$78, DW_AT_TI_symbol_name("_pucQueueStorage")
     656                      .dwattr $C$DW$78, DW_AT_type(*$C$DW$T$99)
     657                      .dwattr $C$DW$78, DW_AT_location[DW_OP_bregx 0x24 2]
     658              $C$DW$79        .dwtag  DW_TAG_variable, DW_AT_name("ucQueueType")
     659                      .dwattr $C$DW$79, DW_AT_TI_symbol_name("_ucQueueType")
     660                      .dwattr $C$DW$79, DW_AT_type(*$C$DW$T$58)
     661                      .dwattr $C$DW$79, DW_AT_location[DW_OP_bregx 0x24 4]
     662              $C$DW$80        .dwtag  DW_TAG_variable, DW_AT_name("pxNewQueue")
     663                      .dwattr $C$DW$80, DW_AT_TI_symbol_name("_pxNewQueue")
     664                      .dwattr $C$DW$80, DW_AT_type(*$C$DW$T$68)
     665                      .dwattr $C$DW$80, DW_AT_location[DW_OP_bregx 0x24 6]
     666 000132 EB0C          MOV XAR2, dbl(*SP(#6))
         000134 A5   
     667 000135 C908          MOV AR1, *SP(#4) ; |430| 
     668 000137 EB04          MOV XAR0, dbl(*SP(#2))
         000139 85   
     669 00013a C502          MOV T1, *SP(#1) ; |430| 
     670 00013c C400          MOV T0, *SP(#0) ; |430| 
     671                      .dwpsn  file "../FreeRTOS/Source/queue.c",line 433,column 2,is_stmt
     672                      .dwpsn  file "../FreeRTOS/Source/queue.c",line 435,column 2,is_stmt
     673 00013e A902          MOV *SP(#1), AR1 ; |435| 
     674 000140 6599          BCC $C$L14,AR1 != #0 ; |435| 
     675                                                      ; branchcc occurs ; |435| 
     676                      .dwpsn  file "../FreeRTOS/Source/queue.c",line 441,column 3,is_stmt
     677 000142 ED0C          MOV dbl(*SP(#6)), XAR2
         000144 AF   
     678 000145 ED0C          MOV dbl(*SP(#6)), XAR3
         000147 BF   
     679 000148 EB41          MOV XAR3, dbl(*AR2)
         00014a B5   
     680                      .dwpsn  file "../FreeRTOS/Source/queue.c",line 442,column 2,is_stmt
     681 00014b 4A09          B $C$L15  ; |442| 
     682                                                      ; branch occurs ; |442| 
     683 00014d       $C$L14:    
     684                      .dwpsn  file "../FreeRTOS/Source/queue.c",line 446,column 3,is_stmt
     685 00014d ED0C          MOV dbl(*SP(#6)), XAR2
         00014f AF   
     686 000150 ED04          MOV dbl(*SP(#2)), XAR3
         000152 BF   
     687 000153 EB41          MOV XAR3, dbl(*AR2)
         000155 B5   
     688 000156       $C$L15:    
     689                      .dwpsn  file "../FreeRTOS/Source/queue.c",line 451,column 2,is_stmt
     690 000156 ED0C          MOV dbl(*SP(#6)), XAR3
         000158 BF   
TMS320C55x Assembler PC v4.4.1 Sat Sep 15 01:52:39 2018

Tools Copyright (c) 1996-2012 Texas Instruments Incorporated
queue.asm                                                            PAGE   15

     691 000159 A900          MOV *SP(#0), AR1 ; |451| 
     692 00015b C96D          MOV AR1, *AR3(#29) ; |451| 
         00015d 001D 
     693                      .dwpsn  file "../FreeRTOS/Source/queue.c",line 452,column 2,is_stmt
     694 00015f ED0C          MOV dbl(*SP(#6)), XAR3
         000161 BF   
     695 000162 A902          MOV *SP(#1), AR1 ; |452| 
     696 000164 C96D          MOV AR1, *AR3(#30) ; |452| 
         000166 001E 
     697                      .dwpsn  file "../FreeRTOS/Source/queue.c",line 453,column 2,is_stmt
     698 000168 3C14          MOV #1, T0
     699 00016a ED0C          MOV dbl(*SP(#6)), XAR0
         00016c 8F   
     700              $C$DW$81        .dwtag  DW_TAG_TI_branch
     701                      .dwattr $C$DW$81, DW_AT_low_pc(0x00)
     702                      .dwattr $C$DW$81, DW_AT_name("_xQueueGenericReset")
     703                      .dwattr $C$DW$81, DW_AT_TI_call
     704 00016d 08FE          CALL #_xQueueGenericReset ; |453| 
         00016f 90   
     705                                                      ; call occurs [#_xQueueGenericReset] ; |453| 
     706                      .dwpsn  file "../FreeRTOS/Source/queue.c",line 468,column 1,is_stmt
     707 000170 4E09          AADD #9, SP
     708                      .dwcfi  cfa_offset, 1
     709              $C$DW$82        .dwtag  DW_TAG_TI_branch
     710                      .dwattr $C$DW$82, DW_AT_low_pc(0x00)
     711                      .dwattr $C$DW$82, DW_AT_TI_return
     712 000172 4804          RET
     713                                                      ; return occurs
     714                      .dwattr $C$DW$70, DW_AT_TI_end_file("../FreeRTOS/Source/queue.c")
     715                      .dwattr $C$DW$70, DW_AT_TI_end_line(0x1d4)
     716                      .dwattr $C$DW$70, DW_AT_TI_end_column(0x01)
     717                      .dwendentry
     718                      .dwendtag $C$DW$70
     719              
     720 000174               .sect   ".text"
     721                      .align 4
     722              
     723              $C$DW$83        .dwtag  DW_TAG_subprogram, DW_AT_name("prvInitialiseMutex")
     724                      .dwattr $C$DW$83, DW_AT_low_pc(_prvInitialiseMutex)
     725                      .dwattr $C$DW$83, DW_AT_high_pc(0x00)
     726                      .dwattr $C$DW$83, DW_AT_TI_symbol_name("_prvInitialiseMutex")
     727                      .dwattr $C$DW$83, DW_AT_TI_begin_file("../FreeRTOS/Source/queue.c")
     728                      .dwattr $C$DW$83, DW_AT_TI_begin_line(0x1d9)
     729                      .dwattr $C$DW$83, DW_AT_TI_begin_column(0x0e)
     730                      .dwattr $C$DW$83, DW_AT_TI_max_frame_size(0x04)
     731                      .dwpsn  file "../FreeRTOS/Source/queue.c",line 474,column 2,is_stmt,address _prvInitialiseMutex
     732              
     733                      .dwfde $C$DW$CIE, _prvInitialiseMutex
     734              $C$DW$84        .dwtag  DW_TAG_formal_parameter, DW_AT_name("pxNewQueue")
     735                      .dwattr $C$DW$84, DW_AT_TI_symbol_name("_pxNewQueue")
     736                      .dwattr $C$DW$84, DW_AT_type(*$C$DW$T$68)
     737                      .dwattr $C$DW$84, DW_AT_location[DW_OP_reg17]
     738              ;*******************************************************************************
     739              ;* FUNCTION NAME: prvInitialiseMutex                                           *
     740              ;*                                                                             *
TMS320C55x Assembler PC v4.4.1 Sat Sep 15 01:52:39 2018

Tools Copyright (c) 1996-2012 Texas Instruments Incorporated
queue.asm                                                            PAGE   16

     741              ;*   Function Uses Regs : AC0,AC0,T0,AR0,XAR0,AR1,XAR1,AR3,XAR3,SP,M40,SATA,   *
     742              ;*                        SATD,RDM,FRCT,SMUL                                   *
     743              ;*   Stack Frame        : Compact (No Frame Pointer, w/ debug)                 *
     744              ;*   Total Frame Size   : 4 words                                              *
     745              ;*                        (2 return address/alignment)                         *
     746              ;*                        (2 local values)                                     *
     747              ;*   Min System Stack   : 1 word                                               *
     748              ;*******************************************************************************
     749 000174       _prvInitialiseMutex:
     750                      .dwcfi  cfa_offset, 1
     751                      .dwcfi  save_reg_to_mem, 91, -1
     752 000174 4EFD          AADD #-3, SP
     753                      .dwcfi  cfa_offset, 4
     754              $C$DW$85        .dwtag  DW_TAG_variable, DW_AT_name("pxNewQueue")
     755                      .dwattr $C$DW$85, DW_AT_TI_symbol_name("_pxNewQueue")
     756                      .dwattr $C$DW$85, DW_AT_type(*$C$DW$T$68)
     757                      .dwattr $C$DW$85, DW_AT_location[DW_OP_bregx 0x24 0]
     758 000176 EB00          MOV XAR0, dbl(*SP(#0))
         000178 85   
     759                      .dwpsn  file "../FreeRTOS/Source/queue.c",line 475,column 3,is_stmt
     760 000179 ED00          MOV dbl(*SP(#0)), XAR3
         00017b BF   
     761 00017c 90B0          MOV XAR3, AC0
     762 00017e 0400          BCC $C$L16,AC0 == #0 ; |475| 
         000180 21   
     763                                                      ; branchcc occurs ; |475| 
     764                      .dwpsn  file "../FreeRTOS/Source/queue.c",line 481,column 4,is_stmt
     765 000181 3C00          MOV #0, AC0 ; |481| 
     766 000183 EB79          MOV AC0, dbl(*AR3(short(#4)))
         000185 08   
     767                      .dwpsn  file "../FreeRTOS/Source/queue.c",line 482,column 4,is_stmt
     768 000186 ED00          MOV dbl(*SP(#0)), XAR3
         000188 BF   
     769 000189 EB61          MOV AC0, dbl(*AR3)
         00018b 08   
     770                      .dwpsn  file "../FreeRTOS/Source/queue.c",line 485,column 4,is_stmt
     771 00018c ED00          MOV dbl(*SP(#0)), XAR3
         00018e BF   
     772 00018f E67D          MOV #0, *AR3(short(#6)) ; |485| 
         000191 00   
     773                      .dwpsn  file "../FreeRTOS/Source/queue.c",line 490,column 4,is_stmt
     774 000192 EC31          AMOV #0, XAR1 ; |490| 
         000194 9E00 
         000196 0000 
     775 000198 ED00          MOV dbl(*SP(#0)), XAR0
         00019a 8F   
     776              $C$DW$86        .dwtag  DW_TAG_TI_branch
     777                      .dwattr $C$DW$86, DW_AT_low_pc(0x00)
     778                      .dwattr $C$DW$86, DW_AT_name("_xQueueGenericSend")
     779                      .dwattr $C$DW$86, DW_AT_TI_call
     780              
     781 00019b 0801          CALL #_xQueueGenericSend ; |490| 
         00019d 1C   
     782 00019e 3D04  ||      MOV #0, T0
     783              
TMS320C55x Assembler PC v4.4.1 Sat Sep 15 01:52:39 2018

Tools Copyright (c) 1996-2012 Texas Instruments Incorporated
queue.asm                                                            PAGE   17

     784                                                      ; call occurs [#_xQueueGenericSend] ; |490| 
     785                      .dwpsn  file "../FreeRTOS/Source/queue.c",line 491,column 3,is_stmt
     786 0001a0 4A00          B $C$L16  ; |491| 
     787                                                      ; branch occurs ; |491| 
     788 0001a2       $C$L16:    
     789 0001a2 4E03          AADD #3, SP
     790                      .dwcfi  cfa_offset, 1
     791              $C$DW$87        .dwtag  DW_TAG_TI_branch
     792                      .dwattr $C$DW$87, DW_AT_low_pc(0x00)
     793                      .dwattr $C$DW$87, DW_AT_TI_return
     794 0001a4 4804          RET
     795                                                      ; return occurs
     796                      .dwattr $C$DW$83, DW_AT_TI_end_file("../FreeRTOS/Source/queue.c")
     797                      .dwattr $C$DW$83, DW_AT_TI_end_line(0x1f0)
     798                      .dwattr $C$DW$83, DW_AT_TI_end_column(0x02)
     799                      .dwendentry
     800                      .dwendtag $C$DW$83
     801              
     802 0001a6               .sect   ".text"
     803                      .align 4
     804                      .global _xQueueCreateMutex
     805              
     806              $C$DW$88        .dwtag  DW_TAG_subprogram, DW_AT_name("xQueueCreateMutex")
     807                      .dwattr $C$DW$88, DW_AT_low_pc(_xQueueCreateMutex)
     808                      .dwattr $C$DW$88, DW_AT_high_pc(0x00)
     809                      .dwattr $C$DW$88, DW_AT_TI_symbol_name("_xQueueCreateMutex")
     810                      .dwattr $C$DW$88, DW_AT_external
     811                      .dwattr $C$DW$88, DW_AT_type(*$C$DW$T$27)
     812                      .dwattr $C$DW$88, DW_AT_TI_begin_file("../FreeRTOS/Source/queue.c")
     813                      .dwattr $C$DW$88, DW_AT_TI_begin_line(0x1f7)
     814                      .dwattr $C$DW$88, DW_AT_TI_begin_column(0x10)
     815                      .dwattr $C$DW$88, DW_AT_TI_max_frame_size(0x08)
     816                      .dwpsn  file "../FreeRTOS/Source/queue.c",line 504,column 2,is_stmt,address _xQueueCreateMutex
     817              
     818                      .dwfde $C$DW$CIE, _xQueueCreateMutex
     819              $C$DW$89        .dwtag  DW_TAG_formal_parameter, DW_AT_name("ucQueueType")
     820                      .dwattr $C$DW$89, DW_AT_TI_symbol_name("_ucQueueType")
     821                      .dwattr $C$DW$89, DW_AT_type(*$C$DW$T$58)
     822                      .dwattr $C$DW$89, DW_AT_location[DW_OP_reg12]
     823              ;*******************************************************************************
     824              ;* FUNCTION NAME: xQueueCreateMutex                                            *
     825              ;*                                                                             *
     826              ;*   Function Uses Regs : T0,T1,AR0,XAR0,SP,M40,SATA,SATD,RDM,FRCT,SMUL        *
     827              ;*   Stack Frame        : Compact (No Frame Pointer, w/ debug)                 *
     828              ;*   Total Frame Size   : 8 words                                              *
     829              ;*                        (2 return address/alignment)                         *
     830              ;*                        (6 local values)                                     *
     831              ;*   Min System Stack   : 1 word                                               *
     832              ;*******************************************************************************
     833 0001a8       _xQueueCreateMutex:
     834                      .dwcfi  cfa_offset, 1
     835                      .dwcfi  save_reg_to_mem, 91, -1
     836 0001a8 4EF9          AADD #-7, SP
     837                      .dwcfi  cfa_offset, 8
     838              $C$DW$90        .dwtag  DW_TAG_variable, DW_AT_name("ucQueueType")
TMS320C55x Assembler PC v4.4.1 Sat Sep 15 01:52:39 2018

Tools Copyright (c) 1996-2012 Texas Instruments Incorporated
queue.asm                                                            PAGE   18

     839                      .dwattr $C$DW$90, DW_AT_TI_symbol_name("_ucQueueType")
     840                      .dwattr $C$DW$90, DW_AT_type(*$C$DW$T$58)
     841                      .dwattr $C$DW$90, DW_AT_location[DW_OP_bregx 0x24 0]
     842              $C$DW$91        .dwtag  DW_TAG_variable, DW_AT_name("xNewQueue")
     843                      .dwattr $C$DW$91, DW_AT_TI_symbol_name("_xNewQueue")
     844                      .dwattr $C$DW$91, DW_AT_type(*$C$DW$T$27)
     845                      .dwattr $C$DW$91, DW_AT_location[DW_OP_bregx 0x24 2]
     846              $C$DW$92        .dwtag  DW_TAG_variable, DW_AT_name("uxMutexLength")
     847                      .dwattr $C$DW$92, DW_AT_TI_symbol_name("_uxMutexLength")
     848                      .dwattr $C$DW$92, DW_AT_type(*$C$DW$T$56)
     849                      .dwattr $C$DW$92, DW_AT_location[DW_OP_bregx 0x24 4]
     850              $C$DW$93        .dwtag  DW_TAG_variable, DW_AT_name("uxMutexSize")
     851                      .dwattr $C$DW$93, DW_AT_TI_symbol_name("_uxMutexSize")
     852                      .dwattr $C$DW$93, DW_AT_type(*$C$DW$T$56)
     853                      .dwattr $C$DW$93, DW_AT_location[DW_OP_bregx 0x24 5]
     854 0001aa C400          MOV T0, *SP(#0) ; |504| 
     855                      .dwpsn  file "../FreeRTOS/Source/queue.c",line 506,column 20,is_stmt
     856 0001ac E608          MOV #1, *SP(#4) ; |506| 
         0001ae 01   
     857                      .dwpsn  file "../FreeRTOS/Source/queue.c",line 506,column 55,is_stmt
     858 0001af E60A          MOV #0, *SP(#5) ; |506| 
         0001b1 00   
     859                      .dwpsn  file "../FreeRTOS/Source/queue.c",line 508,column 3,is_stmt
     860 0001b2 A50A          MOV *SP(#5), T1 ; |508| 
     861 0001b4 A800          MOV *SP(#0), AR0 ; |508| 
     862 0001b6 A408          MOV *SP(#4), T0 ; |508| 
     863              $C$DW$94        .dwtag  DW_TAG_TI_branch
     864                      .dwattr $C$DW$94, DW_AT_low_pc(0x00)
     865                      .dwattr $C$DW$94, DW_AT_name("_xQueueGenericCreate")
     866                      .dwattr $C$DW$94, DW_AT_TI_call
     867 0001b8 08FF          CALL #_xQueueGenericCreate ; |508| 
         0001ba 19   
     868                                                      ; call occurs [#_xQueueGenericCreate] ; |508| 
     869 0001bb EB04          MOV XAR0, dbl(*SP(#2))
         0001bd 85   
     870                      .dwpsn  file "../FreeRTOS/Source/queue.c",line 509,column 3,is_stmt
     871              $C$DW$95        .dwtag  DW_TAG_TI_branch
     872                      .dwattr $C$DW$95, DW_AT_low_pc(0x00)
     873                      .dwattr $C$DW$95, DW_AT_name("_prvInitialiseMutex")
     874                      .dwattr $C$DW$95, DW_AT_TI_call
     875 0001be 08FF          CALL #_prvInitialiseMutex ; |509| 
         0001c0 B3   
     876                                                      ; call occurs [#_prvInitialiseMutex] ; |509| 
     877                      .dwpsn  file "../FreeRTOS/Source/queue.c",line 511,column 3,is_stmt
     878 0001c1 ED04          MOV dbl(*SP(#2)), XAR0
         0001c3 8F   
     879                      .dwpsn  file "../FreeRTOS/Source/queue.c",line 512,column 2,is_stmt
     880 0001c4 4E07          AADD #7, SP
     881                      .dwcfi  cfa_offset, 1
     882              $C$DW$96        .dwtag  DW_TAG_TI_branch
     883                      .dwattr $C$DW$96, DW_AT_low_pc(0x00)
     884                      .dwattr $C$DW$96, DW_AT_TI_return
     885 0001c6 4804          RET
     886                                                      ; return occurs
     887                      .dwattr $C$DW$88, DW_AT_TI_end_file("../FreeRTOS/Source/queue.c")
TMS320C55x Assembler PC v4.4.1 Sat Sep 15 01:52:39 2018

Tools Copyright (c) 1996-2012 Texas Instruments Incorporated
queue.asm                                                            PAGE   19

     888                      .dwattr $C$DW$88, DW_AT_TI_end_line(0x200)
     889                      .dwattr $C$DW$88, DW_AT_TI_end_column(0x02)
     890                      .dwendentry
     891                      .dwendtag $C$DW$88
     892              
     893 0001c8               .sect   ".text"
     894                      .align 4
     895                      .global _xQueueGiveMutexRecursive
     896              
     897              $C$DW$97        .dwtag  DW_TAG_subprogram, DW_AT_name("xQueueGiveMutexRecursive")
     898                      .dwattr $C$DW$97, DW_AT_low_pc(_xQueueGiveMutexRecursive)
     899                      .dwattr $C$DW$97, DW_AT_high_pc(0x00)
     900                      .dwattr $C$DW$97, DW_AT_TI_symbol_name("_xQueueGiveMutexRecursive")
     901                      .dwattr $C$DW$97, DW_AT_external
     902                      .dwattr $C$DW$97, DW_AT_type(*$C$DW$T$49)
     903                      .dwattr $C$DW$97, DW_AT_TI_begin_file("../FreeRTOS/Source/queue.c")
     904                      .dwattr $C$DW$97, DW_AT_TI_begin_line(0x254)
     905                      .dwattr $C$DW$97, DW_AT_TI_begin_column(0x0d)
     906                      .dwattr $C$DW$97, DW_AT_TI_max_frame_size(0x08)
     907                      .dwpsn  file "../FreeRTOS/Source/queue.c",line 597,column 2,is_stmt,address _xQueueGiveMutexRecursive
     908              
     909                      .dwfde $C$DW$CIE, _xQueueGiveMutexRecursive
     910              $C$DW$98        .dwtag  DW_TAG_formal_parameter, DW_AT_name("xMutex")
     911                      .dwattr $C$DW$98, DW_AT_TI_symbol_name("_xMutex")
     912                      .dwattr $C$DW$98, DW_AT_type(*$C$DW$T$27)
     913                      .dwattr $C$DW$98, DW_AT_location[DW_OP_reg17]
     914              ;*******************************************************************************
     915              ;* FUNCTION NAME: xQueueGiveMutexRecursive                                     *
     916              ;*                                                                             *
     917              ;*   Function Uses Regs : AC0,AC0,AC1,AC1,T0,AR0,XAR0,AR1,XAR1,AR3,XAR3,SP,    *
     918              ;*                        CARRY,TC1,M40,SATA,SATD,RDM,FRCT,SMUL                *
     919              ;*   Stack Frame        : Compact (No Frame Pointer, w/ debug)                 *
     920              ;*   Total Frame Size   : 8 words                                              *
     921              ;*                        (2 return address/alignment)                         *
     922              ;*                        (6 local values)                                     *
     923              ;*   Min System Stack   : 1 word                                               *
     924              ;*******************************************************************************
     925 0001c8       _xQueueGiveMutexRecursive:
     926                      .dwcfi  cfa_offset, 1
     927                      .dwcfi  save_reg_to_mem, 91, -1
     928 0001c8 4EF9          AADD #-7, SP
     929                      .dwcfi  cfa_offset, 8
     930              $C$DW$99        .dwtag  DW_TAG_variable, DW_AT_name("xMutex")
     931                      .dwattr $C$DW$99, DW_AT_TI_symbol_name("_xMutex")
     932                      .dwattr $C$DW$99, DW_AT_type(*$C$DW$T$27)
     933                      .dwattr $C$DW$99, DW_AT_location[DW_OP_bregx 0x24 0]
     934              $C$DW$100       .dwtag  DW_TAG_variable, DW_AT_name("xReturn")
     935                      .dwattr $C$DW$100, DW_AT_TI_symbol_name("_xReturn")
     936                      .dwattr $C$DW$100, DW_AT_type(*$C$DW$T$49)
     937                      .dwattr $C$DW$100, DW_AT_location[DW_OP_bregx 0x24 2]
     938              $C$DW$101       .dwtag  DW_TAG_variable, DW_AT_name("pxMutex")
     939                      .dwattr $C$DW$101, DW_AT_TI_symbol_name("_pxMutex")
     940                      .dwattr $C$DW$101, DW_AT_type(*$C$DW$T$69)
     941                      .dwattr $C$DW$101, DW_AT_location[DW_OP_bregx 0x24 4]
     942 0001ca EB00          MOV XAR0, dbl(*SP(#0))
TMS320C55x Assembler PC v4.4.1 Sat Sep 15 01:52:39 2018

Tools Copyright (c) 1996-2012 Texas Instruments Incorporated
queue.asm                                                            PAGE   20

         0001cc 85   
     943                      .dwpsn  file "../FreeRTOS/Source/queue.c",line 599,column 18,is_stmt
     944 0001cd ED00          MOV dbl(*SP(#0)), XAR3
         0001cf BF   
     945 0001d0 EB08          MOV XAR3, dbl(*SP(#4))
         0001d2 B5   
     946                      .dwpsn  file "../FreeRTOS/Source/queue.c",line 601,column 3,is_stmt
     947 0001d3 90B0          MOV XAR3, AC0
     948 0001d5 6290          BCC $C$L18,AC0 != #0 ; |601| 
     949                                                      ; branchcc occurs ; |601| 
     950 0001d7 20     nop
     951 0001d8 46B3   bset INTM
     952 0001da       $C$L17:    
     953 0001da       $C$DW$L$_xQueueGiveMutexRecursive$3$B:
     954 0001da 4A7E          B $C$L17  ; |601| 
     955                                                      ; branch occurs ; |601| 
     956 0001dc       $C$DW$L$_xQueueGiveMutexRecursive$3$E:
     957 0001dc       $C$L18:    
     958                      .dwpsn  file "../FreeRTOS/Source/queue.c",line 609,column 3,is_stmt
     959              $C$DW$102       .dwtag  DW_TAG_TI_branch
     960                      .dwattr $C$DW$102, DW_AT_low_pc(0x00)
     961                      .dwattr $C$DW$102, DW_AT_name("_xTaskGetCurrentTaskHandle")
     962                      .dwattr $C$DW$102, DW_AT_TI_call
     963 0001dc 6C00          CALL #_xTaskGetCurrentTaskHandle ; |609| 
         0001de 0000!
     964                                                      ; call occurs [#_xTaskGetCurrentTaskHandle] ; |609| 
     965 0001e0 ED08          MOV dbl(*SP(#4)), XAR3
         0001e2 BF   
     966 0001e3 9081          MOV XAR0, AC1
     967 0001e5 ED79          MOV dbl(*AR3(short(#4))), XAR3
         0001e7 BF   
     968 0001e8 90B0          MOV XAR3, AC0
     969 0001ea 120C          CMPU AC0 != AC1, TC1 ; |609| 
         0001ec 14   
     970 0001ed 0464          BCC $C$L20,TC1 ; |609| 
         0001ef 24   
     971                                                      ; branchcc occurs ; |609| 
     972                      .dwpsn  file "../FreeRTOS/Source/queue.c",line 618,column 4,is_stmt
     973 0001f0 ED08          MOV dbl(*SP(#4)), XAR3
         0001f2 BF   
     974 0001f3 F77D          SUB #1, *AR3(short(#6)) ; |618| 
         0001f5 FFFF 
     975                      .dwpsn  file "../FreeRTOS/Source/queue.c",line 621,column 4,is_stmt
     976 0001f7 ED08          MOV dbl(*SP(#4)), XAR3
         0001f9 BF   
     977 0001fa A97D          MOV *AR3(short(#6)), AR1 ; |621| 
     978 0001fc 0419          BCC $C$L19,AR1 != #0 ; |621| 
         0001fe 10   
     979                                                      ; branchcc occurs ; |621| 
     980                      .dwpsn  file "../FreeRTOS/Source/queue.c",line 625,column 5,is_stmt
     981 0001ff ED08          MOV dbl(*SP(#4)), XAR0
         000201 8F   
     982 000202 EC31          AMOV #0, XAR1 ; |625| 
         000204 9E00 
         000206 0000 
TMS320C55x Assembler PC v4.4.1 Sat Sep 15 01:52:39 2018

Tools Copyright (c) 1996-2012 Texas Instruments Incorporated
queue.asm                                                            PAGE   21

     983 000208 3C00          MOV #0, AC0 ; |625| 
     984              $C$DW$103       .dwtag  DW_TAG_TI_branch
     985                      .dwattr $C$DW$103, DW_AT_low_pc(0x00)
     986                      .dwattr $C$DW$103, DW_AT_name("_xQueueGenericSend")
     987                      .dwattr $C$DW$103, DW_AT_TI_call
     988              
     989 00020a 0800          CALL #_xQueueGenericSend ; |625| 
         00020c AD   
     990 00020d 3D04  ||      MOV #0, T0
     991              
     992                                                      ; call occurs [#_xQueueGenericSend] ; |625| 
     993                      .dwpsn  file "../FreeRTOS/Source/queue.c",line 626,column 4,is_stmt
     994 00020f       $C$L19:    
     995                      .dwpsn  file "../FreeRTOS/Source/queue.c",line 632,column 4,is_stmt
     996 00020f E604          MOV #1, *SP(#2) ; |632| 
         000211 01   
     997                      .dwpsn  file "../FreeRTOS/Source/queue.c",line 633,column 3,is_stmt
     998 000212 4A03          B $C$L21  ; |633| 
     999                                                      ; branch occurs ; |633| 
    1000 000214       $C$L20:    
    1001                      .dwpsn  file "../FreeRTOS/Source/queue.c",line 638,column 4,is_stmt
    1002 000214 E604          MOV #0, *SP(#2) ; |638| 
         000216 00   
    1003 000217       $C$L21:    
    1004                      .dwpsn  file "../FreeRTOS/Source/queue.c",line 643,column 3,is_stmt
    1005 000217 A404          MOV *SP(#2), T0 ; |643| 
    1006                      .dwpsn  file "../FreeRTOS/Source/queue.c",line 644,column 2,is_stmt
    1007 000219 4E07          AADD #7, SP
    1008                      .dwcfi  cfa_offset, 1
    1009              $C$DW$104       .dwtag  DW_TAG_TI_branch
    1010                      .dwattr $C$DW$104, DW_AT_low_pc(0x00)
    1011                      .dwattr $C$DW$104, DW_AT_TI_return
    1012 00021b 4804          RET
    1013                                                      ; return occurs
    1014              
    1015              $C$DW$105       .dwtag  DW_TAG_TI_loop
    1016                      .dwattr $C$DW$105, DW_AT_name("F:\eZdsp_DBG\eZDSP_5535_Files\ccsws2\test\Debug\queue.asm:$C$L17:1:153
    1017                      .dwattr $C$DW$105, DW_AT_TI_begin_file("../FreeRTOS/Source/queue.c")
    1018                      .dwattr $C$DW$105, DW_AT_TI_begin_line(0x259)
    1019                      .dwattr $C$DW$105, DW_AT_TI_end_line(0x259)
    1020              $C$DW$106       .dwtag  DW_TAG_TI_loop_range
    1021                      .dwattr $C$DW$106, DW_AT_low_pc($C$DW$L$_xQueueGiveMutexRecursive$3$B)
    1022                      .dwattr $C$DW$106, DW_AT_high_pc($C$DW$L$_xQueueGiveMutexRecursive$3$E)
    1023                      .dwendtag $C$DW$105
    1024              
    1025                      .dwattr $C$DW$97, DW_AT_TI_end_file("../FreeRTOS/Source/queue.c")
    1026                      .dwattr $C$DW$97, DW_AT_TI_end_line(0x284)
    1027                      .dwattr $C$DW$97, DW_AT_TI_end_column(0x02)
    1028                      .dwendentry
    1029                      .dwendtag $C$DW$97
    1030              
    1031 00021d               .sect   ".text"
    1032                      .align 4
    1033                      .global _xQueueTakeMutexRecursive
    1034              
TMS320C55x Assembler PC v4.4.1 Sat Sep 15 01:52:39 2018

Tools Copyright (c) 1996-2012 Texas Instruments Incorporated
queue.asm                                                            PAGE   22

    1035              $C$DW$107       .dwtag  DW_TAG_subprogram, DW_AT_name("xQueueTakeMutexRecursive")
    1036                      .dwattr $C$DW$107, DW_AT_low_pc(_xQueueTakeMutexRecursive)
    1037                      .dwattr $C$DW$107, DW_AT_high_pc(0x00)
    1038                      .dwattr $C$DW$107, DW_AT_TI_symbol_name("_xQueueTakeMutexRecursive")
    1039                      .dwattr $C$DW$107, DW_AT_external
    1040                      .dwattr $C$DW$107, DW_AT_type(*$C$DW$T$49)
    1041                      .dwattr $C$DW$107, DW_AT_TI_begin_file("../FreeRTOS/Source/queue.c")
    1042                      .dwattr $C$DW$107, DW_AT_TI_begin_line(0x28b)
    1043                      .dwattr $C$DW$107, DW_AT_TI_begin_column(0x0d)
    1044                      .dwattr $C$DW$107, DW_AT_TI_max_frame_size(0x0a)
    1045                      .dwpsn  file "../FreeRTOS/Source/queue.c",line 652,column 2,is_stmt,address _xQueueTakeMutexRecursive
    1046              
    1047                      .dwfde $C$DW$CIE, _xQueueTakeMutexRecursive
    1048              $C$DW$108       .dwtag  DW_TAG_formal_parameter, DW_AT_name("xMutex")
    1049                      .dwattr $C$DW$108, DW_AT_TI_symbol_name("_xMutex")
    1050                      .dwattr $C$DW$108, DW_AT_type(*$C$DW$T$27)
    1051                      .dwattr $C$DW$108, DW_AT_location[DW_OP_reg17]
    1052              $C$DW$109       .dwtag  DW_TAG_formal_parameter, DW_AT_name("xTicksToWait")
    1053                      .dwattr $C$DW$109, DW_AT_TI_symbol_name("_xTicksToWait")
    1054                      .dwattr $C$DW$109, DW_AT_type(*$C$DW$T$44)
    1055                      .dwattr $C$DW$109, DW_AT_location[DW_OP_reg0]
    1056              ;*******************************************************************************
    1057              ;* FUNCTION NAME: xQueueTakeMutexRecursive                                     *
    1058              ;*                                                                             *
    1059              ;*   Function Uses Regs : AC0,AC0,AC1,AC1,T0,AR0,XAR0,AR1,AR3,XAR3,SP,CARRY,   *
    1060              ;*                        TC1,M40,SATA,SATD,RDM,FRCT,SMUL                      *
    1061              ;*   Stack Frame        : Compact (No Frame Pointer, w/ debug)                 *
    1062              ;*   Total Frame Size   : 10 words                                             *
    1063              ;*                        (2 return address/alignment)                         *
    1064              ;*                        (8 local values)                                     *
    1065              ;*   Min System Stack   : 1 word                                               *
    1066              ;*******************************************************************************
    1067 000220       _xQueueTakeMutexRecursive:
    1068                      .dwcfi  cfa_offset, 1
    1069                      .dwcfi  save_reg_to_mem, 91, -1
    1070 000220 4EF7          AADD #-9, SP
    1071                      .dwcfi  cfa_offset, 10
    1072              $C$DW$110       .dwtag  DW_TAG_variable, DW_AT_name("xMutex")
    1073                      .dwattr $C$DW$110, DW_AT_TI_symbol_name("_xMutex")
    1074                      .dwattr $C$DW$110, DW_AT_type(*$C$DW$T$27)
    1075                      .dwattr $C$DW$110, DW_AT_location[DW_OP_bregx 0x24 0]
    1076              $C$DW$111       .dwtag  DW_TAG_variable, DW_AT_name("xTicksToWait")
    1077                      .dwattr $C$DW$111, DW_AT_TI_symbol_name("_xTicksToWait")
    1078                      .dwattr $C$DW$111, DW_AT_type(*$C$DW$T$44)
    1079                      .dwattr $C$DW$111, DW_AT_location[DW_OP_bregx 0x24 2]
    1080              $C$DW$112       .dwtag  DW_TAG_variable, DW_AT_name("xReturn")
    1081                      .dwattr $C$DW$112, DW_AT_TI_symbol_name("_xReturn")
    1082                      .dwattr $C$DW$112, DW_AT_type(*$C$DW$T$49)
    1083                      .dwattr $C$DW$112, DW_AT_location[DW_OP_bregx 0x24 4]
    1084              $C$DW$113       .dwtag  DW_TAG_variable, DW_AT_name("pxMutex")
    1085                      .dwattr $C$DW$113, DW_AT_TI_symbol_name("_pxMutex")
    1086                      .dwattr $C$DW$113, DW_AT_type(*$C$DW$T$69)
    1087                      .dwattr $C$DW$113, DW_AT_location[DW_OP_bregx 0x24 6]
    1088 000222 EB04          MOV AC0, dbl(*SP(#2)) ; |652| 
         000224 08   
TMS320C55x Assembler PC v4.4.1 Sat Sep 15 01:52:39 2018

Tools Copyright (c) 1996-2012 Texas Instruments Incorporated
queue.asm                                                            PAGE   23

    1089 000225 EB00          MOV XAR0, dbl(*SP(#0))
         000227 85   
    1090                      .dwpsn  file "../FreeRTOS/Source/queue.c",line 654,column 18,is_stmt
    1091 000228 ED00          MOV dbl(*SP(#0)), XAR3
         00022a BF   
    1092 00022b EB0C          MOV XAR3, dbl(*SP(#6))
         00022d B5   
    1093                      .dwpsn  file "../FreeRTOS/Source/queue.c",line 656,column 3,is_stmt
    1094 00022e 90B0          MOV XAR3, AC0
    1095 000230 6290          BCC $C$L23,AC0 != #0 ; |656| 
    1096                                                      ; branchcc occurs ; |656| 
    1097 000232 20     nop
    1098 000233 46B3   bset INTM
    1099 000235       $C$L22:    
    1100 000235       $C$DW$L$_xQueueTakeMutexRecursive$3$B:
    1101 000235 4A7E          B $C$L22  ; |656| 
    1102                                                      ; branch occurs ; |656| 
    1103 000237       $C$DW$L$_xQueueTakeMutexRecursive$3$E:
    1104 000237       $C$L23:    
    1105                      .dwpsn  file "../FreeRTOS/Source/queue.c",line 663,column 3,is_stmt
    1106              $C$DW$114       .dwtag  DW_TAG_TI_branch
    1107                      .dwattr $C$DW$114, DW_AT_low_pc(0x00)
    1108                      .dwattr $C$DW$114, DW_AT_name("_xTaskGetCurrentTaskHandle")
    1109                      .dwattr $C$DW$114, DW_AT_TI_call
    1110 000237 6C00          CALL #_xTaskGetCurrentTaskHandle ; |663| 
         000239 0000!
    1111                                                      ; call occurs [#_xTaskGetCurrentTaskHandle] ; |663| 
    1112 00023b ED0C          MOV dbl(*SP(#6)), XAR3
         00023d BF   
    1113 00023e 9081          MOV XAR0, AC1
    1114 000240 ED79          MOV dbl(*AR3(short(#4))), XAR3
         000242 BF   
    1115 000243 90B0          MOV XAR3, AC0
    1116 000245 120C          CMPU AC0 != AC1, TC1 ; |663| 
         000247 14   
    1117 000248 6664          BCC $C$L24,TC1 ; |663| 
    1118                                                      ; branchcc occurs ; |663| 
    1119                      .dwpsn  file "../FreeRTOS/Source/queue.c",line 665,column 4,is_stmt
    1120 00024a ED0C          MOV dbl(*SP(#6)), XAR3
         00024c BF   
    1121 00024d F77D          ADD #1, *AR3(short(#6)) ; |665| 
         00024f 0001 
    1122                      .dwpsn  file "../FreeRTOS/Source/queue.c",line 666,column 4,is_stmt
    1123 000251 E608          MOV #1, *SP(#4) ; |666| 
         000253 01   
    1124                      .dwpsn  file "../FreeRTOS/Source/queue.c",line 667,column 3,is_stmt
    1125 000254 4A16          B $C$L25  ; |667| 
    1126                                                      ; branch occurs ; |667| 
    1127 000256       $C$L24:    
    1128                      .dwpsn  file "../FreeRTOS/Source/queue.c",line 670,column 4,is_stmt
    1129 000256 ED0C          MOV dbl(*SP(#6)), XAR0
         000258 8F   
    1130 000259 ED04          MOV dbl(*SP(#2)), AC0 ; |670| 
         00025b 08   
    1131              $C$DW$115       .dwtag  DW_TAG_TI_branch
TMS320C55x Assembler PC v4.4.1 Sat Sep 15 01:52:39 2018

Tools Copyright (c) 1996-2012 Texas Instruments Incorporated
queue.asm                                                            PAGE   24

    1132                      .dwattr $C$DW$115, DW_AT_low_pc(0x00)
    1133                      .dwattr $C$DW$115, DW_AT_name("_xQueueSemaphoreTake")
    1134                      .dwattr $C$DW$115, DW_AT_TI_call
    1135 00025c 0805          CALL #_xQueueSemaphoreTake ; |670| 
         00025e C5   
    1136                                                      ; call occurs [#_xQueueSemaphoreTake] ; |670| 
    1137 00025f C408          MOV T0, *SP(#4) ; |670| 
    1138                      .dwpsn  file "../FreeRTOS/Source/queue.c",line 675,column 4,is_stmt
    1139 000261 2249          MOV T0, AR1
    1140 000263 6389          BCC $C$L25,AR1 == #0 ; |675| 
    1141                                                      ; branchcc occurs ; |675| 
    1142                      .dwpsn  file "../FreeRTOS/Source/queue.c",line 677,column 5,is_stmt
    1143 000265 ED0C          MOV dbl(*SP(#6)), XAR3
         000267 BF   
    1144 000268 F77D          ADD #1, *AR3(short(#6)) ; |677| 
         00026a 0001 
    1145                      .dwpsn  file "../FreeRTOS/Source/queue.c",line 678,column 4,is_stmt
    1146 00026c       $C$L25:    
    1147                      .dwpsn  file "../FreeRTOS/Source/queue.c",line 685,column 3,is_stmt
    1148 00026c A408          MOV *SP(#4), T0 ; |685| 
    1149                      .dwpsn  file "../FreeRTOS/Source/queue.c",line 686,column 2,is_stmt
    1150 00026e 4E09          AADD #9, SP
    1151                      .dwcfi  cfa_offset, 1
    1152              $C$DW$116       .dwtag  DW_TAG_TI_branch
    1153                      .dwattr $C$DW$116, DW_AT_low_pc(0x00)
    1154                      .dwattr $C$DW$116, DW_AT_TI_return
    1155 000270 4804          RET
    1156                                                      ; return occurs
    1157              
    1158              $C$DW$117       .dwtag  DW_TAG_TI_loop
    1159                      .dwattr $C$DW$117, DW_AT_name("F:\eZdsp_DBG\eZDSP_5535_Files\ccsws2\test\Debug\queue.asm:$C$L22:1:153
    1160                      .dwattr $C$DW$117, DW_AT_TI_begin_file("../FreeRTOS/Source/queue.c")
    1161                      .dwattr $C$DW$117, DW_AT_TI_begin_line(0x290)
    1162                      .dwattr $C$DW$117, DW_AT_TI_end_line(0x290)
    1163              $C$DW$118       .dwtag  DW_TAG_TI_loop_range
    1164                      .dwattr $C$DW$118, DW_AT_low_pc($C$DW$L$_xQueueTakeMutexRecursive$3$B)
    1165                      .dwattr $C$DW$118, DW_AT_high_pc($C$DW$L$_xQueueTakeMutexRecursive$3$E)
    1166                      .dwendtag $C$DW$117
    1167              
    1168                      .dwattr $C$DW$107, DW_AT_TI_end_file("../FreeRTOS/Source/queue.c")
    1169                      .dwattr $C$DW$107, DW_AT_TI_end_line(0x2ae)
    1170                      .dwattr $C$DW$107, DW_AT_TI_end_column(0x02)
    1171                      .dwendentry
    1172                      .dwendtag $C$DW$107
    1173              
    1174 000272               .sect   ".text"
    1175                      .align 4
    1176                      .global _xQueueCreateCountingSemaphore
    1177              
    1178              $C$DW$119       .dwtag  DW_TAG_subprogram, DW_AT_name("xQueueCreateCountingSemaphore")
    1179                      .dwattr $C$DW$119, DW_AT_low_pc(_xQueueCreateCountingSemaphore)
    1180                      .dwattr $C$DW$119, DW_AT_high_pc(0x00)
    1181                      .dwattr $C$DW$119, DW_AT_TI_symbol_name("_xQueueCreateCountingSemaphore")
    1182                      .dwattr $C$DW$119, DW_AT_external
    1183                      .dwattr $C$DW$119, DW_AT_type(*$C$DW$T$27)
TMS320C55x Assembler PC v4.4.1 Sat Sep 15 01:52:39 2018

Tools Copyright (c) 1996-2012 Texas Instruments Incorporated
queue.asm                                                            PAGE   25

    1184                      .dwattr $C$DW$119, DW_AT_TI_begin_file("../FreeRTOS/Source/queue.c")
    1185                      .dwattr $C$DW$119, DW_AT_TI_begin_line(0x2d1)
    1186                      .dwattr $C$DW$119, DW_AT_TI_begin_column(0x10)
    1187                      .dwattr $C$DW$119, DW_AT_TI_max_frame_size(0x06)
    1188                      .dwpsn  file "../FreeRTOS/Source/queue.c",line 722,column 2,is_stmt,address _xQueueCreateCountingSema
    1189              
    1190                      .dwfde $C$DW$CIE, _xQueueCreateCountingSemaphore
    1191              $C$DW$120       .dwtag  DW_TAG_formal_parameter, DW_AT_name("uxMaxCount")
    1192                      .dwattr $C$DW$120, DW_AT_TI_symbol_name("_uxMaxCount")
    1193                      .dwattr $C$DW$120, DW_AT_type(*$C$DW$T$56)
    1194                      .dwattr $C$DW$120, DW_AT_location[DW_OP_reg12]
    1195              $C$DW$121       .dwtag  DW_TAG_formal_parameter, DW_AT_name("uxInitialCount")
    1196                      .dwattr $C$DW$121, DW_AT_TI_symbol_name("_uxInitialCount")
    1197                      .dwattr $C$DW$121, DW_AT_type(*$C$DW$T$56)
    1198                      .dwattr $C$DW$121, DW_AT_location[DW_OP_reg13]
    1199              ;*******************************************************************************
    1200              ;* FUNCTION NAME: xQueueCreateCountingSemaphore                                *
    1201              ;*                                                                             *
    1202              ;*   Function Uses Regs : AC0,AC0,T0,T1,AR0,XAR0,AR1,AR2,AR3,XAR3,SP,TC1,M40,  *
    1203              ;*                        SATA,SATD,RDM,FRCT,SMUL                              *
    1204              ;*   Stack Frame        : Compact (No Frame Pointer, w/ debug)                 *
    1205              ;*   Total Frame Size   : 6 words                                              *
    1206              ;*                        (2 return address/alignment)                         *
    1207              ;*                        (4 local values)                                     *
    1208              ;*   Min System Stack   : 1 word                                               *
    1209              ;*******************************************************************************
    1210 000274       _xQueueCreateCountingSemaphore:
    1211                      .dwcfi  cfa_offset, 1
    1212                      .dwcfi  save_reg_to_mem, 91, -1
    1213 000274 4EFB          AADD #-5, SP
    1214                      .dwcfi  cfa_offset, 6
    1215              $C$DW$122       .dwtag  DW_TAG_variable, DW_AT_name("uxMaxCount")
    1216                      .dwattr $C$DW$122, DW_AT_TI_symbol_name("_uxMaxCount")
    1217                      .dwattr $C$DW$122, DW_AT_type(*$C$DW$T$56)
    1218                      .dwattr $C$DW$122, DW_AT_location[DW_OP_bregx 0x24 0]
    1219              $C$DW$123       .dwtag  DW_TAG_variable, DW_AT_name("uxInitialCount")
    1220                      .dwattr $C$DW$123, DW_AT_TI_symbol_name("_uxInitialCount")
    1221                      .dwattr $C$DW$123, DW_AT_type(*$C$DW$T$56)
    1222                      .dwattr $C$DW$123, DW_AT_location[DW_OP_bregx 0x24 1]
    1223              $C$DW$124       .dwtag  DW_TAG_variable, DW_AT_name("xHandle")
    1224                      .dwattr $C$DW$124, DW_AT_TI_symbol_name("_xHandle")
    1225                      .dwattr $C$DW$124, DW_AT_type(*$C$DW$T$27)
    1226                      .dwattr $C$DW$124, DW_AT_location[DW_OP_bregx 0x24 2]
    1227 000276 C502          MOV T1, *SP(#1) ; |722| 
    1228 000278 C400          MOV T0, *SP(#0) ; |722| 
    1229                      .dwpsn  file "../FreeRTOS/Source/queue.c",line 725,column 3,is_stmt
    1230 00027a 224A          MOV T0, AR2
    1231              
    1232 00027c 610A          BCC $C$L26,AR2 == #0 ; |725| 
    1233 00027e 3D09  ||      MOV #0, AR1
    1234              
    1235                                                      ; branchcc occurs ; |725| 
    1236 000280 3C19          MOV #1, AR1
    1237 000282       $C$L26:    
    1238 000282 6299          BCC $C$L28,AR1 != #0 ; |725| 
TMS320C55x Assembler PC v4.4.1 Sat Sep 15 01:52:39 2018

Tools Copyright (c) 1996-2012 Texas Instruments Incorporated
queue.asm                                                            PAGE   26

    1239                                                      ; branchcc occurs ; |725| 
    1240 000284 20     nop
    1241 000285 46B3   bset INTM
    1242 000287       $C$L27:    
    1243 000287       $C$DW$L$_xQueueCreateCountingSemaphore$5$B:
    1244 000287 4A7E          B $C$L27  ; |725| 
    1245                                                      ; branch occurs ; |725| 
    1246 000289       $C$DW$L$_xQueueCreateCountingSemaphore$5$E:
    1247 000289       $C$L28:    
    1248                      .dwpsn  file "../FreeRTOS/Source/queue.c",line 726,column 3,is_stmt
    1249 000289 AB02          MOV *SP(#1), AR3 ; |726| 
    1250 00028b 12A4          CMPU AR3 > AR2, TC1 ; |726| 
         00028d B4   
    1251 00028e 3C09          MOV #0, AR1
    1252 000290 6164          BCC $C$L29,TC1 ; |726| 
    1253                                                      ; branchcc occurs ; |726| 
    1254 000292 3C19          MOV #1, AR1
    1255 000294       $C$L29:    
    1256 000294 6299          BCC $C$L31,AR1 != #0 ; |726| 
    1257                                                      ; branchcc occurs ; |726| 
    1258 000296 20     nop
    1259 000297 46B3   bset INTM
    1260 000299       $C$L30:    
    1261 000299       $C$DW$L$_xQueueCreateCountingSemaphore$10$B:
    1262 000299 4A7E          B $C$L30  ; |726| 
    1263                                                      ; branch occurs ; |726| 
    1264 00029b       $C$DW$L$_xQueueCreateCountingSemaphore$10$E:
    1265 00029b       $C$L31:    
    1266                      .dwpsn  file "../FreeRTOS/Source/queue.c",line 728,column 3,is_stmt
    1267 00029b 3C05          MOV #0, T1
    1268              $C$DW$125       .dwtag  DW_TAG_TI_branch
    1269                      .dwattr $C$DW$125, DW_AT_low_pc(0x00)
    1270                      .dwattr $C$DW$125, DW_AT_name("_xQueueGenericCreate")
    1271                      .dwattr $C$DW$125, DW_AT_TI_call
    1272              
    1273 00029d 08FE          CALL #_xQueueGenericCreate ; |728| 
         00029f 32   
    1274 0002a0 3D28  ||      MOV #2, AR0
    1275              
    1276                                                      ; call occurs [#_xQueueGenericCreate] ; |728| 
    1277 0002a2 EB04          MOV XAR0, dbl(*SP(#2))
         0002a4 85   
    1278                      .dwpsn  file "../FreeRTOS/Source/queue.c",line 730,column 3,is_stmt
    1279 0002a5 ED04          MOV dbl(*SP(#2)), XAR3
         0002a7 BF   
    1280 0002a8 90B0          MOV XAR3, AC0
    1281 0002aa 6300          BCC $C$L32,AC0 == #0 ; |730| 
    1282                                                      ; branchcc occurs ; |730| 
    1283                      .dwpsn  file "../FreeRTOS/Source/queue.c",line 732,column 4,is_stmt
    1284 0002ac A902          MOV *SP(#1), AR1 ; |732| 
    1285 0002ae C96D          MOV AR1, *AR3(#28) ; |732| 
         0002b0 001C 
    1286                      .dwpsn  file "../FreeRTOS/Source/queue.c",line 735,column 3,is_stmt
    1287 0002b2       $C$L32:    
    1288                      .dwpsn  file "../FreeRTOS/Source/queue.c",line 741,column 3,is_stmt
TMS320C55x Assembler PC v4.4.1 Sat Sep 15 01:52:39 2018

Tools Copyright (c) 1996-2012 Texas Instruments Incorporated
queue.asm                                                            PAGE   27

    1289 0002b2 ED04          MOV dbl(*SP(#2)), XAR0
         0002b4 8F   
    1290                      .dwpsn  file "../FreeRTOS/Source/queue.c",line 742,column 2,is_stmt
    1291 0002b5 4E05          AADD #5, SP
    1292                      .dwcfi  cfa_offset, 1
    1293              $C$DW$126       .dwtag  DW_TAG_TI_branch
    1294                      .dwattr $C$DW$126, DW_AT_low_pc(0x00)
    1295                      .dwattr $C$DW$126, DW_AT_TI_return
    1296 0002b7 4804          RET
    1297                                                      ; return occurs
    1298              
    1299              $C$DW$127       .dwtag  DW_TAG_TI_loop
    1300                      .dwattr $C$DW$127, DW_AT_name("F:\eZdsp_DBG\eZDSP_5535_Files\ccsws2\test\Debug\queue.asm:$C$L30:1:153
    1301                      .dwattr $C$DW$127, DW_AT_TI_begin_file("../FreeRTOS/Source/queue.c")
    1302                      .dwattr $C$DW$127, DW_AT_TI_begin_line(0x2d6)
    1303                      .dwattr $C$DW$127, DW_AT_TI_end_line(0x2d6)
    1304              $C$DW$128       .dwtag  DW_TAG_TI_loop_range
    1305                      .dwattr $C$DW$128, DW_AT_low_pc($C$DW$L$_xQueueCreateCountingSemaphore$10$B)
    1306                      .dwattr $C$DW$128, DW_AT_high_pc($C$DW$L$_xQueueCreateCountingSemaphore$10$E)
    1307                      .dwendtag $C$DW$127
    1308              
    1309              
    1310              $C$DW$129       .dwtag  DW_TAG_TI_loop
    1311                      .dwattr $C$DW$129, DW_AT_name("F:\eZdsp_DBG\eZDSP_5535_Files\ccsws2\test\Debug\queue.asm:$C$L27:1:153
    1312                      .dwattr $C$DW$129, DW_AT_TI_begin_file("../FreeRTOS/Source/queue.c")
    1313                      .dwattr $C$DW$129, DW_AT_TI_begin_line(0x2d5)
    1314                      .dwattr $C$DW$129, DW_AT_TI_end_line(0x2d5)
    1315              $C$DW$130       .dwtag  DW_TAG_TI_loop_range
    1316                      .dwattr $C$DW$130, DW_AT_low_pc($C$DW$L$_xQueueCreateCountingSemaphore$5$B)
    1317                      .dwattr $C$DW$130, DW_AT_high_pc($C$DW$L$_xQueueCreateCountingSemaphore$5$E)
    1318                      .dwendtag $C$DW$129
    1319              
    1320                      .dwattr $C$DW$119, DW_AT_TI_end_file("../FreeRTOS/Source/queue.c")
    1321                      .dwattr $C$DW$119, DW_AT_TI_end_line(0x2e6)
    1322                      .dwattr $C$DW$119, DW_AT_TI_end_column(0x02)
    1323                      .dwendentry
    1324                      .dwendtag $C$DW$119
    1325              
    1326 0002b9               .sect   ".text"
    1327                      .align 4
    1328                      .global _xQueueGenericSend
    1329              
    1330              $C$DW$131       .dwtag  DW_TAG_subprogram, DW_AT_name("xQueueGenericSend")
    1331                      .dwattr $C$DW$131, DW_AT_low_pc(_xQueueGenericSend)
    1332                      .dwattr $C$DW$131, DW_AT_high_pc(0x00)
    1333                      .dwattr $C$DW$131, DW_AT_TI_symbol_name("_xQueueGenericSend")
    1334                      .dwattr $C$DW$131, DW_AT_external
    1335                      .dwattr $C$DW$131, DW_AT_type(*$C$DW$T$49)
    1336                      .dwattr $C$DW$131, DW_AT_TI_begin_file("../FreeRTOS/Source/queue.c")
    1337                      .dwattr $C$DW$131, DW_AT_TI_begin_line(0x2eb)
    1338                      .dwattr $C$DW$131, DW_AT_TI_begin_column(0x0c)
    1339                      .dwattr $C$DW$131, DW_AT_TI_max_frame_size(0x14)
    1340                      .dwpsn  file "../FreeRTOS/Source/queue.c",line 748,column 1,is_stmt,address _xQueueGenericSend
    1341              
    1342                      .dwfde $C$DW$CIE, _xQueueGenericSend
TMS320C55x Assembler PC v4.4.1 Sat Sep 15 01:52:39 2018

Tools Copyright (c) 1996-2012 Texas Instruments Incorporated
queue.asm                                                            PAGE   28

    1343              $C$DW$132       .dwtag  DW_TAG_formal_parameter, DW_AT_name("xQueue")
    1344                      .dwattr $C$DW$132, DW_AT_TI_symbol_name("_xQueue")
    1345                      .dwattr $C$DW$132, DW_AT_type(*$C$DW$T$27)
    1346                      .dwattr $C$DW$132, DW_AT_location[DW_OP_reg17]
    1347              $C$DW$133       .dwtag  DW_TAG_formal_parameter, DW_AT_name("pvItemToQueue")
    1348                      .dwattr $C$DW$133, DW_AT_TI_symbol_name("_pvItemToQueue")
    1349                      .dwattr $C$DW$133, DW_AT_type(*$C$DW$T$77)
    1350                      .dwattr $C$DW$133, DW_AT_location[DW_OP_reg19]
    1351              $C$DW$134       .dwtag  DW_TAG_formal_parameter, DW_AT_name("xTicksToWait")
    1352                      .dwattr $C$DW$134, DW_AT_TI_symbol_name("_xTicksToWait")
    1353                      .dwattr $C$DW$134, DW_AT_type(*$C$DW$T$44)
    1354                      .dwattr $C$DW$134, DW_AT_location[DW_OP_reg0]
    1355              $C$DW$135       .dwtag  DW_TAG_formal_parameter, DW_AT_name("xCopyPosition")
    1356                      .dwattr $C$DW$135, DW_AT_TI_symbol_name("_xCopyPosition")
    1357                      .dwattr $C$DW$135, DW_AT_type(*$C$DW$T$112)
    1358                      .dwattr $C$DW$135, DW_AT_location[DW_OP_reg12]
    1359              ;*******************************************************************************
    1360              ;* FUNCTION NAME: xQueueGenericSend                                            *
    1361              ;*                                                                             *
    1362              ;*   Function Uses Regs : AC0,AC0,T0,T2,T3,AR0,XAR0,AR1,XAR1,AR2,AR3,XAR3,SP,  *
    1363              ;*                        CARRY,TC1,M40,SATA,SATD,RDM,FRCT,SMUL                *
    1364              ;*   Save On Entry Regs : T2,T3                                                *
    1365              ;*   Stack Frame        : Compact (No Frame Pointer, w/ debug)                 *
    1366              ;*   Total Frame Size   : 20 words                                             *
    1367              ;*                        (2 return address/alignment)                         *
    1368              ;*                        (16 local values)                                    *
    1369              ;*                        (2 register save area)                               *
    1370              ;*   Min System Stack   : 1 word                                               *
    1371              ;*******************************************************************************
    1372 0002bc       _xQueueGenericSend:
    1373                      .dwcfi  cfa_offset, 1
    1374                      .dwcfi  save_reg_to_mem, 91, -1
    1375 0002bc 5066          PSH T2
    1376                      .dwcfi  cfa_offset, 2
    1377                      .dwcfi  save_reg_to_mem, 14, -2
    1378 0002be 5076          PSH T3
    1379                      .dwcfi  cfa_offset, 3
    1380                      .dwcfi  save_reg_to_mem, 15, -3
    1381 0002c0 4EEF          AADD #-17, SP
    1382                      .dwcfi  cfa_offset, 20
    1383              $C$DW$136       .dwtag  DW_TAG_variable, DW_AT_name("xQueue")
    1384                      .dwattr $C$DW$136, DW_AT_TI_symbol_name("_xQueue")
    1385                      .dwattr $C$DW$136, DW_AT_type(*$C$DW$T$27)
    1386                      .dwattr $C$DW$136, DW_AT_location[DW_OP_bregx 0x24 0]
    1387              $C$DW$137       .dwtag  DW_TAG_variable, DW_AT_name("pvItemToQueue")
    1388                      .dwattr $C$DW$137, DW_AT_TI_symbol_name("_pvItemToQueue")
    1389                      .dwattr $C$DW$137, DW_AT_type(*$C$DW$T$77)
    1390                      .dwattr $C$DW$137, DW_AT_location[DW_OP_bregx 0x24 2]
    1391              $C$DW$138       .dwtag  DW_TAG_variable, DW_AT_name("xTicksToWait")
    1392                      .dwattr $C$DW$138, DW_AT_TI_symbol_name("_xTicksToWait")
    1393                      .dwattr $C$DW$138, DW_AT_type(*$C$DW$T$44)
    1394                      .dwattr $C$DW$138, DW_AT_location[DW_OP_bregx 0x24 4]
    1395              $C$DW$139       .dwtag  DW_TAG_variable, DW_AT_name("xCopyPosition")
    1396                      .dwattr $C$DW$139, DW_AT_TI_symbol_name("_xCopyPosition")
    1397                      .dwattr $C$DW$139, DW_AT_type(*$C$DW$T$112)
TMS320C55x Assembler PC v4.4.1 Sat Sep 15 01:52:39 2018

Tools Copyright (c) 1996-2012 Texas Instruments Incorporated
queue.asm                                                            PAGE   29

    1398                      .dwattr $C$DW$139, DW_AT_location[DW_OP_bregx 0x24 6]
    1399              $C$DW$140       .dwtag  DW_TAG_variable, DW_AT_name("xEntryTimeSet")
    1400                      .dwattr $C$DW$140, DW_AT_TI_symbol_name("_xEntryTimeSet")
    1401                      .dwattr $C$DW$140, DW_AT_type(*$C$DW$T$49)
    1402                      .dwattr $C$DW$140, DW_AT_location[DW_OP_bregx 0x24 7]
    1403              $C$DW$141       .dwtag  DW_TAG_variable, DW_AT_name("xYieldRequired")
    1404                      .dwattr $C$DW$141, DW_AT_TI_symbol_name("_xYieldRequired")
    1405                      .dwattr $C$DW$141, DW_AT_type(*$C$DW$T$49)
    1406                      .dwattr $C$DW$141, DW_AT_location[DW_OP_bregx 0x24 8]
    1407              $C$DW$142       .dwtag  DW_TAG_variable, DW_AT_name("xTimeOut")
    1408                      .dwattr $C$DW$142, DW_AT_TI_symbol_name("_xTimeOut")
    1409                      .dwattr $C$DW$142, DW_AT_type(*$C$DW$T$92)
    1410                      .dwattr $C$DW$142, DW_AT_location[DW_OP_bregx 0x24 10]
    1411              $C$DW$143       .dwtag  DW_TAG_variable, DW_AT_name("pxQueue")
    1412                      .dwattr $C$DW$143, DW_AT_TI_symbol_name("_pxQueue")
    1413                      .dwattr $C$DW$143, DW_AT_type(*$C$DW$T$69)
    1414                      .dwattr $C$DW$143, DW_AT_location[DW_OP_bregx 0x24 14]
    1415 0002c2 C40C          MOV T0, *SP(#6) ; |748| 
    1416 0002c4 EB08          MOV AC0, dbl(*SP(#4)) ; |748| 
         0002c6 08   
    1417 0002c7 EB04          MOV XAR1, dbl(*SP(#2))
         0002c9 95   
    1418 0002ca EB00          MOV XAR0, dbl(*SP(#0))
         0002cc 85   
    1419                      .dwpsn  file "../FreeRTOS/Source/queue.c",line 749,column 12,is_stmt
    1420 0002cd E60E          MOV #0, *SP(#7) ; |749| 
         0002cf 00   
    1421                      .dwpsn  file "../FreeRTOS/Source/queue.c",line 751,column 17,is_stmt
    1422 0002d0 ED00          MOV dbl(*SP(#0)), XAR3
         0002d2 BF   
    1423 0002d3 EB1C          MOV XAR3, dbl(*SP(#14))
         0002d5 B5   
    1424                      .dwpsn  file "../FreeRTOS/Source/queue.c",line 753,column 2,is_stmt
    1425 0002d6 90B0          MOV XAR3, AC0
    1426 0002d8 6290          BCC $C$L34,AC0 != #0 ; |753| 
    1427                                                      ; branchcc occurs ; |753| 
    1428 0002da 20     nop
    1429 0002db 46B3   bset INTM
    1430 0002dd       $C$L33:    
    1431 0002dd       $C$DW$L$_xQueueGenericSend$3$B:
    1432 0002dd 4A7E          B $C$L33  ; |753| 
    1433                                                      ; branch occurs ; |753| 
    1434 0002df       $C$DW$L$_xQueueGenericSend$3$E:
    1435 0002df       $C$L34:    
    1436                      .dwpsn  file "../FreeRTOS/Source/queue.c",line 754,column 2,is_stmt
    1437 0002df ED04          MOV dbl(*SP(#2)), XAR3
         0002e1 BF   
    1438 0002e2 90B0          MOV XAR3, AC0
    1439 0002e4 3C0A          MOV #0, AR2
    1440              
    1441 0002e6 6590          BCC $C$L35,AC0 != #0 ; |754| 
    1442 0002e8 3D09  ||      MOV #0, AR1
    1443              
    1444                                                      ; branchcc occurs ; |754| 
    1445 0002ea ED1C          MOV dbl(*SP(#14)), XAR3
TMS320C55x Assembler PC v4.4.1 Sat Sep 15 01:52:39 2018

Tools Copyright (c) 1996-2012 Texas Instruments Incorporated
queue.asm                                                            PAGE   30

         0002ec BF   
    1446 0002ed AB6D          MOV *AR3(#30), AR3 ; |754| 
         0002ef 001E 
    1447 0002f1 610B          BCC $C$L35,AR3 == #0 ; |754| 
    1448                                                      ; branchcc occurs ; |754| 
    1449 0002f3 3C1A          MOV #1, AR2
    1450 0002f5       $C$L35:    
    1451 0002f5 611A          BCC $C$L36,AR2 != #0 ; |754| 
    1452                                                      ; branchcc occurs ; |754| 
    1453 0002f7 3C19          MOV #1, AR1
    1454 0002f9       $C$L36:    
    1455 0002f9 6299          BCC $C$L38,AR1 != #0 ; |754| 
    1456                                                      ; branchcc occurs ; |754| 
    1457 0002fb 20     nop
    1458 0002fc 46B3   bset INTM
    1459 0002fe       $C$L37:    
    1460 0002fe       $C$DW$L$_xQueueGenericSend$11$B:
    1461 0002fe 4A7E          B $C$L37  ; |754| 
    1462                                                      ; branch occurs ; |754| 
    1463 000300       $C$DW$L$_xQueueGenericSend$11$E:
    1464 000300       $C$L38:    
    1465                      .dwpsn  file "../FreeRTOS/Source/queue.c",line 755,column 2,is_stmt
    1466 000300 F00C          CMP *SP(#6) == #2, TC1 ; |755| 
         000302 0002 
    1467 000304 3C0A          MOV #0, AR2
    1468              
    1469 000306 66F4          BCC $C$L39,!TC1 ; |755| 
    1470 000308 3D09  ||      MOV #0, AR1
    1471              
    1472                                                      ; branchcc occurs ; |755| 
    1473 00030a ED1C          MOV dbl(*SP(#14)), XAR3
         00030c BF   
    1474 00030d F06D          CMP *AR3(#29) == #1, TC1 ; |755| 
         00030f 0001 
         000311 001D 
    1475 000313 6164          BCC $C$L39,TC1 ; |755| 
    1476                                                      ; branchcc occurs ; |755| 
    1477 000315 3C1A          MOV #1, AR2
    1478 000317       $C$L39:    
    1479 000317 611A          BCC $C$L40,AR2 != #0 ; |755| 
    1480                                                      ; branchcc occurs ; |755| 
    1481 000319 3C19          MOV #1, AR1
    1482 00031b       $C$L40:    
    1483 00031b 6299          BCC $C$L42,AR1 != #0 ; |755| 
    1484                                                      ; branchcc occurs ; |755| 
    1485 00031d 20     nop
    1486 00031e 46B3   bset INTM
    1487 000320       $C$L41:    
    1488 000320       $C$DW$L$_xQueueGenericSend$19$B:
    1489 000320 4A7E          B $C$L41  ; |755| 
    1490                                                      ; branch occurs ; |755| 
    1491 000322       $C$DW$L$_xQueueGenericSend$19$E:
    1492 000322       $C$L42:    
    1493                      .dwpsn  file "../FreeRTOS/Source/queue.c",line 758,column 3,is_stmt
    1494              $C$DW$144       .dwtag  DW_TAG_TI_branch
TMS320C55x Assembler PC v4.4.1 Sat Sep 15 01:52:39 2018

Tools Copyright (c) 1996-2012 Texas Instruments Incorporated
queue.asm                                                            PAGE   31

    1495                      .dwattr $C$DW$144, DW_AT_low_pc(0x00)
    1496                      .dwattr $C$DW$144, DW_AT_name("_xTaskGetSchedulerState")
    1497                      .dwattr $C$DW$144, DW_AT_TI_call
    1498 000322 6C00          CALL #_xTaskGetSchedulerState ; |758| 
         000324 0000!
    1499                                                      ; call occurs [#_xTaskGetSchedulerState] ; |758| 
    1500 000326 3C07          MOV #0, T3
    1501              
    1502 000328 6394          BCC $C$L43,T0 != #0 ; |758| 
    1503 00032a 3D06  ||      MOV #0, T2
    1504              
    1505                                                      ; branchcc occurs ; |758| 
    1506 00032c ED08          MOV dbl(*SP(#4)), AC0 ; |758| 
         00032e 08   
    1507 00032f 6100          BCC $C$L43,AC0 == #0 ; |758| 
    1508                                                      ; branchcc occurs ; |758| 
    1509 000331 3C17          MOV #1, T3
    1510 000333       $C$L43:    
    1511 000333 6117          BCC $C$L44,T3 != #0 ; |758| 
    1512                                                      ; branchcc occurs ; |758| 
    1513 000335 3C16          MOV #1, T2
    1514 000337       $C$L44:    
    1515 000337 6296          BCC $C$L46,T2 != #0 ; |758| 
    1516                                                      ; branchcc occurs ; |758| 
    1517 000339 20     nop
    1518 00033a 46B3   bset INTM
    1519 00033c       $C$L45:    
    1520 00033c       $C$DW$L$_xQueueGenericSend$27$B:
    1521 00033c 4A7E          B $C$L45  ; |758| 
    1522                                                      ; branch occurs ; |758| 
    1523 00033e       $C$DW$L$_xQueueGenericSend$27$E:
    1524 00033e       $C$L46:    
    1525 00033e       $C$DW$L$_xQueueGenericSend$28$B:
    1526                      .dwpsn  file "../FreeRTOS/Source/queue.c",line 768,column 3,is_stmt
    1527 00033e 20     nop
    1528 00033f 46B3   bset INTM
    1529 000341 F731          ADD #1, *(#_usCriticalNesting) ; |768| 
         000343 0001 
         000345 0000 
         000347 00!  
    1530 000348 20            NOP
    1531                      .dwpsn  file "../FreeRTOS/Source/queue.c",line 774,column 4,is_stmt
    1532 000349 ED1C          MOV dbl(*SP(#14)), XAR3
         00034b BF   
    1533 00034c A96D          MOV *AR3(#29), AR1 ; |774| 
         00034e 001D 
    1534 000350 AA6D          MOV *AR3(#28), AR2 ; |774| 
         000352 001C 
    1535 000354 12A4          CMPU AR2 < AR1, TC1 ; |774| 
         000356 94   
    1536 000357 63E4          BCC $C$L47,TC1 ; |774| 
    1537                                                      ; branchcc occurs ; |774| 
    1538 000359       $C$DW$L$_xQueueGenericSend$28$E:
    1539 000359       $C$DW$L$_xQueueGenericSend$29$B:
    1540 000359 F00C          CMP *SP(#6) == #2, TC1 ; |774| 
TMS320C55x Assembler PC v4.4.1 Sat Sep 15 01:52:39 2018

Tools Copyright (c) 1996-2012 Texas Instruments Incorporated
queue.asm                                                            PAGE   32

         00035b 0002 
    1541 00035d 0474          BCC $C$L53,!TC1 ; |774| 
         00035f 5A   
    1542                                                      ; branchcc occurs ; |774| 
    1543 000360       $C$DW$L$_xQueueGenericSend$29$E:
    1544 000360       $C$L47:    
    1545                      .dwpsn  file "../FreeRTOS/Source/queue.c",line 840,column 6,is_stmt
    1546 000360 ED1C          MOV dbl(*SP(#14)), XAR0
         000362 8F   
    1547 000363 ED04          MOV dbl(*SP(#2)), XAR1
         000365 9F   
    1548 000366 A40C          MOV *SP(#6), T0 ; |840| 
    1549              $C$DW$145       .dwtag  DW_TAG_TI_branch
    1550                      .dwattr $C$DW$145, DW_AT_low_pc(0x00)
    1551                      .dwattr $C$DW$145, DW_AT_name("_prvCopyDataToQueue")
    1552                      .dwattr $C$DW$145, DW_AT_TI_call
    1553 000368 080B          CALL #_prvCopyDataToQueue ; |840| 
         00036a 21   
    1554                                                      ; call occurs [#_prvCopyDataToQueue] ; |840| 
    1555 00036b C410          MOV T0, *SP(#8) ; |840| 
    1556                      .dwpsn  file "../FreeRTOS/Source/queue.c",line 844,column 6,is_stmt
    1557 00036d ED1C          MOV dbl(*SP(#14)), XAR3
         00036f BF   
    1558 000370 A96D          MOV *AR3(#18), AR1 ; |844| 
         000372 0012 
    1559 000374 6219          BCC $C$L48,AR1 != #0 ; |844| 
    1560                                                      ; branchcc occurs ; |844| 
    1561 000376 3C19          MOV #1, AR1
    1562 000378 4A02          B $C$L49  ; |844| 
    1563                                                      ; branch occurs ; |844| 
    1564 00037a       $C$L48:    
    1565 00037a 3C09          MOV #0, AR1
    1566 00037c       $C$L49:    
    1567 00037c 0419          BCC $C$L50,AR1 != #0 ; |844| 
         00037e 12   
    1568                                                      ; branchcc occurs ; |844| 
    1569                      .dwpsn  file "../FreeRTOS/Source/queue.c",line 846,column 7,is_stmt
    1570 00037f ED1C          MOV dbl(*SP(#14)), XAR0
         000381 8F   
    1571 000382 1412          AADD #18, AR0 ; |846| 
         000384 84   
    1572              $C$DW$146       .dwtag  DW_TAG_TI_branch
    1573                      .dwattr $C$DW$146, DW_AT_low_pc(0x00)
    1574                      .dwattr $C$DW$146, DW_AT_name("_xTaskRemoveFromEventList")
    1575                      .dwattr $C$DW$146, DW_AT_TI_call
    1576 000385 6C00          CALL #_xTaskRemoveFromEventList ; |846| 
         000387 0000!
    1577                                                      ; call occurs [#_xTaskRemoveFromEventList] ; |846| 
    1578 000389 6704          BCC $C$L51,T0 == #0 ; |846| 
    1579                                                      ; branchcc occurs ; |846| 
    1580                      .dwpsn  file "../FreeRTOS/Source/queue.c",line 852,column 8,is_stmt
    1581              $C$DW$147       .dwtag  DW_TAG_TI_branch
    1582                      .dwattr $C$DW$147, DW_AT_low_pc(0x00)
    1583                      .dwattr $C$DW$147, DW_AT_name("_vPortYield")
    1584                      .dwattr $C$DW$147, DW_AT_TI_call
TMS320C55x Assembler PC v4.4.1 Sat Sep 15 01:52:39 2018

Tools Copyright (c) 1996-2012 Texas Instruments Incorporated
queue.asm                                                            PAGE   33

    1585 00038b 6C00          CALL #_vPortYield ; |852| 
         00038d 0000!
    1586                                                      ; call occurs [#_vPortYield] ; |852| 
    1587                      .dwpsn  file "../FreeRTOS/Source/queue.c",line 853,column 7,is_stmt
    1588 00038f 4A08          B $C$L51  ; |853| 
    1589                                                      ; branch occurs ; |853| 
    1590 000391       $C$L50:    
    1591                      .dwpsn  file "../FreeRTOS/Source/queue.c",line 859,column 11,is_stmt
    1592 000391 2249          MOV T0, AR1
    1593 000393 6209          BCC $C$L51,AR1 == #0 ; |859| 
    1594                                                      ; branchcc occurs ; |859| 
    1595                      .dwpsn  file "../FreeRTOS/Source/queue.c",line 865,column 7,is_stmt
    1596              $C$DW$148       .dwtag  DW_TAG_TI_branch
    1597                      .dwattr $C$DW$148, DW_AT_low_pc(0x00)
    1598                      .dwattr $C$DW$148, DW_AT_name("_vPortYield")
    1599                      .dwattr $C$DW$148, DW_AT_TI_call
    1600 000395 6C00          CALL #_vPortYield ; |865| 
         000397 0000!
    1601                                                      ; call occurs [#_vPortYield] ; |865| 
    1602                      .dwpsn  file "../FreeRTOS/Source/queue.c",line 866,column 6,is_stmt
    1603 000399       $C$L51:    
    1604                      .dwpsn  file "../FreeRTOS/Source/queue.c",line 874,column 5,is_stmt
    1605 000399 A931          MOV *(#_usCriticalNesting), AR1 ; |874| 
         00039b 0000 
         00039d 00!  
    1606 00039e 0409          BCC $C$L52,AR1 == #0 ; |874| 
         0003a0 14   
    1607                                                      ; branchcc occurs ; |874| 
    1608 0003a1 F731          SUB #1, *(#_usCriticalNesting) ; |874| 
         0003a3 FFFF 
         0003a5 0000 
         0003a7 00!  
    1609 0003a8 20            NOP
    1610 0003a9 20            NOP
    1611 0003aa 20            NOP
    1612 0003ab A931          MOV *(#_usCriticalNesting), AR1 ; |874| 
         0003ad 0000 
         0003af 00!  
    1613 0003b0 6199          BCC $C$L52,AR1 != #0 ; |874| 
    1614                                                      ; branchcc occurs ; |874| 
    1615 0003b2 20     nop
    1616 0003b3 46B2   bclr INTM
    1617 0003b5       $C$L52:    
    1618                      .dwpsn  file "../FreeRTOS/Source/queue.c",line 875,column 5,is_stmt
    1619              
    1620 0003b5 0600          B $C$L63  ; |875| 
         0003b7 F0   
    1621 0003b8 3D14  ||      MOV #1, T0
    1622              
    1623                                                      ; branch occurs ; |875| 
    1624 0003ba       $C$L53:    
    1625 0003ba       $C$DW$L$_xQueueGenericSend$44$B:
    1626                      .dwpsn  file "../FreeRTOS/Source/queue.c",line 879,column 5,is_stmt
    1627 0003ba ED08          MOV dbl(*SP(#4)), AC0 ; |879| 
         0003bc 08   
TMS320C55x Assembler PC v4.4.1 Sat Sep 15 01:52:39 2018

Tools Copyright (c) 1996-2012 Texas Instruments Incorporated
queue.asm                                                            PAGE   34

    1628 0003bd 0410          BCC $C$L55,AC0 != #0 ; |879| 
         0003bf 21   
    1629                                                      ; branchcc occurs ; |879| 
    1630 0003c0       $C$DW$L$_xQueueGenericSend$44$E:
    1631                      .dwpsn  file "../FreeRTOS/Source/queue.c",line 883,column 6,is_stmt
    1632 0003c0 A931          MOV *(#_usCriticalNesting), AR1 ; |883| 
         0003c2 0000 
         0003c4 00!  
    1633 0003c5 0409          BCC $C$L54,AR1 == #0 ; |883| 
         0003c7 14   
    1634                                                      ; branchcc occurs ; |883| 
    1635 0003c8 F731          SUB #1, *(#_usCriticalNesting) ; |883| 
         0003ca FFFF 
         0003cc 0000 
         0003ce 00!  
    1636 0003cf 20            NOP
    1637 0003d0 20            NOP
    1638 0003d1 20            NOP
    1639 0003d2 A931          MOV *(#_usCriticalNesting), AR1 ; |883| 
         0003d4 0000 
         0003d6 00!  
    1640 0003d7 6199          BCC $C$L54,AR1 != #0 ; |883| 
    1641                                                      ; branchcc occurs ; |883| 
    1642 0003d9 20     nop
    1643 0003da 46B2   bclr INTM
    1644 0003dc       $C$L54:    
    1645                      .dwpsn  file "../FreeRTOS/Source/queue.c",line 888,column 6,is_stmt
    1646              
    1647 0003dc 0600          B $C$L63  ; |888| 
         0003de C9   
    1648 0003df 3D04  ||      MOV #0, T0
    1649              
    1650                                                      ; branch occurs ; |888| 
    1651 0003e1       $C$L55:    
    1652 0003e1       $C$DW$L$_xQueueGenericSend$50$B:
    1653                      .dwpsn  file "../FreeRTOS/Source/queue.c",line 890,column 10,is_stmt
    1654 0003e1 A90E          MOV *SP(#7), AR1 ; |890| 
    1655 0003e3 6519          BCC $C$L56,AR1 != #0 ; |890| 
    1656                                                      ; branchcc occurs ; |890| 
    1657 0003e5       $C$DW$L$_xQueueGenericSend$50$E:
    1658 0003e5       $C$DW$L$_xQueueGenericSend$51$B:
    1659                      .dwpsn  file "../FreeRTOS/Source/queue.c",line 894,column 6,is_stmt
    1660 0003e5 EC14          AMAR *SP(#10), XAR0
         0003e7 8E   
    1661              $C$DW$149       .dwtag  DW_TAG_TI_branch
    1662                      .dwattr $C$DW$149, DW_AT_low_pc(0x00)
    1663                      .dwattr $C$DW$149, DW_AT_name("_vTaskInternalSetTimeOutState")
    1664                      .dwattr $C$DW$149, DW_AT_TI_call
    1665 0003e8 6C00          CALL #_vTaskInternalSetTimeOutState ; |894| 
         0003ea 0000!
    1666                                                      ; call occurs [#_vTaskInternalSetTimeOutState] ; |894| 
    1667                      .dwpsn  file "../FreeRTOS/Source/queue.c",line 895,column 6,is_stmt
    1668 0003ec E60E          MOV #1, *SP(#7) ; |895| 
         0003ee 01   
    1669                      .dwpsn  file "../FreeRTOS/Source/queue.c",line 896,column 5,is_stmt
TMS320C55x Assembler PC v4.4.1 Sat Sep 15 01:52:39 2018

Tools Copyright (c) 1996-2012 Texas Instruments Incorporated
queue.asm                                                            PAGE   35

    1670 0003ef       $C$DW$L$_xQueueGenericSend$51$E:
    1671 0003ef       $C$L56:    
    1672 0003ef       $C$DW$L$_xQueueGenericSend$52$B:
    1673                      .dwpsn  file "../FreeRTOS/Source/queue.c",line 904,column 3,is_stmt
    1674 0003ef A931          MOV *(#_usCriticalNesting), AR1 ; |904| 
         0003f1 0000 
         0003f3 00!  
    1675 0003f4 0409          BCC $C$L57,AR1 == #0 ; |904| 
         0003f6 14   
    1676                                                      ; branchcc occurs ; |904| 
    1677 0003f7       $C$DW$L$_xQueueGenericSend$52$E:
    1678 0003f7       $C$DW$L$_xQueueGenericSend$53$B:
    1679 0003f7 F731          SUB #1, *(#_usCriticalNesting) ; |904| 
         0003f9 FFFF 
         0003fb 0000 
         0003fd 00!  
    1680 0003fe 20            NOP
    1681 0003ff 20            NOP
    1682 000400 20            NOP
    1683 000401 A931          MOV *(#_usCriticalNesting), AR1 ; |904| 
         000403 0000 
         000405 00!  
    1684 000406 6199          BCC $C$L57,AR1 != #0 ; |904| 
    1685                                                      ; branchcc occurs ; |904| 
    1686 000408       $C$DW$L$_xQueueGenericSend$53$E:
    1687 000408       $C$DW$L$_xQueueGenericSend$54$B:
    1688 000408 20     nop
    1689 000409 46B2   bclr INTM
    1690 00040b       $C$DW$L$_xQueueGenericSend$54$E:
    1691 00040b       $C$L57:    
    1692 00040b       $C$DW$L$_xQueueGenericSend$55$B:
    1693                      .dwpsn  file "../FreeRTOS/Source/queue.c",line 909,column 3,is_stmt
    1694              $C$DW$150       .dwtag  DW_TAG_TI_branch
    1695                      .dwattr $C$DW$150, DW_AT_low_pc(0x00)
    1696                      .dwattr $C$DW$150, DW_AT_name("_vTaskSuspendAll")
    1697                      .dwattr $C$DW$150, DW_AT_TI_call
    1698 00040b 6C00          CALL #_vTaskSuspendAll ; |909| 
         00040d 0000!
    1699                                                      ; call occurs [#_vTaskSuspendAll] ; |909| 
    1700                      .dwpsn  file "../FreeRTOS/Source/queue.c",line 910,column 3,is_stmt
    1701 00040f 20     nop
    1702 000410 46B3   bset INTM
    1703 000412 F731          ADD #1, *(#_usCriticalNesting) ; |910| 
         000414 0001 
         000416 0000 
         000418 00!  
    1704 000419 20            NOP
    1705 00041a 20            NOP
    1706 00041b ED1C          MOV dbl(*SP(#14)), XAR3
         00041d BF   
    1707 00041e F06D          CMP *AR3(#31) == #-1, TC1 ; |910| 
         000420 FFFF 
         000422 001F 
    1708 000424 62F4          BCC $C$L58,!TC1 ; |910| 
    1709                                                      ; branchcc occurs ; |910| 
TMS320C55x Assembler PC v4.4.1 Sat Sep 15 01:52:39 2018

Tools Copyright (c) 1996-2012 Texas Instruments Incorporated
queue.asm                                                            PAGE   36

    1710 000426       $C$DW$L$_xQueueGenericSend$55$E:
    1711 000426       $C$DW$L$_xQueueGenericSend$56$B:
    1712 000426 E66D          MOV #0, *AR3(#31) ; |910| 
         000428 0000 
         00042a 1F   
    1713 00042b       $C$DW$L$_xQueueGenericSend$56$E:
    1714 00042b       $C$L58:    
    1715 00042b       $C$DW$L$_xQueueGenericSend$57$B:
    1716 00042b ED1C          MOV dbl(*SP(#14)), XAR3
         00042d BF   
    1717 00042e F06D          CMP *AR3(#32) == #-1, TC1 ; |910| 
         000430 FFFF 
         000432 0020 
    1718 000434 62F4          BCC $C$L59,!TC1 ; |910| 
    1719                                                      ; branchcc occurs ; |910| 
    1720 000436       $C$DW$L$_xQueueGenericSend$57$E:
    1721 000436       $C$DW$L$_xQueueGenericSend$58$B:
    1722 000436 E66D          MOV #0, *AR3(#32) ; |910| 
         000438 0000 
         00043a 20   
    1723 00043b       $C$DW$L$_xQueueGenericSend$58$E:
    1724 00043b       $C$L59:    
    1725 00043b       $C$DW$L$_xQueueGenericSend$59$B:
    1726 00043b A931          MOV *(#_usCriticalNesting), AR1 ; |910| 
         00043d 0000 
         00043f 00!  
    1727 000440 0409          BCC $C$L60,AR1 == #0 ; |910| 
         000442 14   
    1728                                                      ; branchcc occurs ; |910| 
    1729 000443       $C$DW$L$_xQueueGenericSend$59$E:
    1730 000443       $C$DW$L$_xQueueGenericSend$60$B:
    1731 000443 F731          SUB #1, *(#_usCriticalNesting) ; |910| 
         000445 FFFF 
         000447 0000 
         000449 00!  
    1732 00044a 20            NOP
    1733 00044b 20            NOP
    1734 00044c 20            NOP
    1735 00044d A931          MOV *(#_usCriticalNesting), AR1 ; |910| 
         00044f 0000 
         000451 00!  
    1736 000452 6199          BCC $C$L60,AR1 != #0 ; |910| 
    1737                                                      ; branchcc occurs ; |910| 
    1738 000454       $C$DW$L$_xQueueGenericSend$60$E:
    1739 000454       $C$DW$L$_xQueueGenericSend$61$B:
    1740 000454 20     nop
    1741 000455 46B2   bclr INTM
    1742 000457       $C$DW$L$_xQueueGenericSend$61$E:
    1743 000457       $C$L60:    
    1744 000457       $C$DW$L$_xQueueGenericSend$62$B:
    1745                      .dwpsn  file "../FreeRTOS/Source/queue.c",line 913,column 3,is_stmt
    1746 000457 EC14          AMAR *SP(#10), XAR0
         000459 8E   
    1747 00045a EC08          AMAR *SP(#4), XAR1
         00045c 9E   
TMS320C55x Assembler PC v4.4.1 Sat Sep 15 01:52:39 2018

Tools Copyright (c) 1996-2012 Texas Instruments Incorporated
queue.asm                                                            PAGE   37

    1748              $C$DW$151       .dwtag  DW_TAG_TI_branch
    1749                      .dwattr $C$DW$151, DW_AT_low_pc(0x00)
    1750                      .dwattr $C$DW$151, DW_AT_name("_xTaskCheckForTimeOut")
    1751                      .dwattr $C$DW$151, DW_AT_TI_call
    1752 00045d 6C00          CALL #_xTaskCheckForTimeOut ; |913| 
         00045f 0000!
    1753                                                      ; call occurs [#_xTaskCheckForTimeOut] ; |913| 
    1754 000461 0414          BCC $C$L62,T0 != #0 ; |913| 
         000463 38   
    1755                                                      ; branchcc occurs ; |913| 
    1756 000464       $C$DW$L$_xQueueGenericSend$62$E:
    1757 000464       $C$DW$L$_xQueueGenericSend$63$B:
    1758                      .dwpsn  file "../FreeRTOS/Source/queue.c",line 915,column 4,is_stmt
    1759 000464 ED1C          MOV dbl(*SP(#14)), XAR0
         000466 8F   
    1760              $C$DW$152       .dwtag  DW_TAG_TI_branch
    1761                      .dwattr $C$DW$152, DW_AT_low_pc(0x00)
    1762                      .dwattr $C$DW$152, DW_AT_name("_prvIsQueueFull")
    1763                      .dwattr $C$DW$152, DW_AT_TI_call
    1764 000467 080C          CALL #_prvIsQueueFull ; |915| 
         000469 BE   
    1765                                                      ; call occurs [#_prvIsQueueFull] ; |915| 
    1766 00046a 0404          BCC $C$L61,T0 == #0 ; |915| 
         00046c 22   
    1767                                                      ; branchcc occurs ; |915| 
    1768 00046d       $C$DW$L$_xQueueGenericSend$63$E:
    1769 00046d       $C$DW$L$_xQueueGenericSend$64$B:
    1770                      .dwpsn  file "../FreeRTOS/Source/queue.c",line 918,column 5,is_stmt
    1771 00046d ED1C          MOV dbl(*SP(#14)), XAR0
         00046f 8F   
    1772              
    1773                      AADD #8, AR0 ; |918| 
    1774 000470 8E08  ||      MOV dbl(*SP(#4)), AC0 ; |918| 
         000472 8D1C 
         000474 0808 
    1775              
    1776              $C$DW$153       .dwtag  DW_TAG_TI_branch
    1777                      .dwattr $C$DW$153, DW_AT_low_pc(0x00)
    1778                      .dwattr $C$DW$153, DW_AT_name("_vTaskPlaceOnEventList")
    1779                      .dwattr $C$DW$153, DW_AT_TI_call
    1780 000476 6C00          CALL #_vTaskPlaceOnEventList ; |918| 
         000478 0000!
    1781                                                      ; call occurs [#_vTaskPlaceOnEventList] ; |918| 
    1782                      .dwpsn  file "../FreeRTOS/Source/queue.c",line 925,column 5,is_stmt
    1783 00047a ED1C          MOV dbl(*SP(#14)), XAR0
         00047c 8F   
    1784              $C$DW$154       .dwtag  DW_TAG_TI_branch
    1785                      .dwattr $C$DW$154, DW_AT_low_pc(0x00)
    1786                      .dwattr $C$DW$154, DW_AT_name("_prvUnlockQueue")
    1787                      .dwattr $C$DW$154, DW_AT_TI_call
    1788 00047d 080B          CALL #_prvUnlockQueue ; |925| 
         00047f 58   
    1789                                                      ; call occurs [#_prvUnlockQueue] ; |925| 
    1790                      .dwpsn  file "../FreeRTOS/Source/queue.c",line 932,column 5,is_stmt
    1791              $C$DW$155       .dwtag  DW_TAG_TI_branch
TMS320C55x Assembler PC v4.4.1 Sat Sep 15 01:52:39 2018

Tools Copyright (c) 1996-2012 Texas Instruments Incorporated
queue.asm                                                            PAGE   38

    1792                      .dwattr $C$DW$155, DW_AT_low_pc(0x00)
    1793                      .dwattr $C$DW$155, DW_AT_name("_xTaskResumeAll")
    1794                      .dwattr $C$DW$155, DW_AT_TI_call
    1795 000480 6C00          CALL #_xTaskResumeAll ; |932| 
         000482 0000!
    1796                                                      ; call occurs [#_xTaskResumeAll] ; |932| 
    1797 000484 6D14          BCC $C$L46,T0 != #0 ; |932| 
         000486 FEB6 
    1798                                                      ; branchcc occurs ; |932| 
    1799 000488       $C$DW$L$_xQueueGenericSend$64$E:
    1800 000488       $C$DW$L$_xQueueGenericSend$65$B:
    1801                      .dwpsn  file "../FreeRTOS/Source/queue.c",line 934,column 6,is_stmt
    1802              $C$DW$156       .dwtag  DW_TAG_TI_branch
    1803                      .dwattr $C$DW$156, DW_AT_low_pc(0x00)
    1804                      .dwattr $C$DW$156, DW_AT_name("_vPortYield")
    1805                      .dwattr $C$DW$156, DW_AT_TI_call
    1806 000488 6C00          CALL #_vPortYield ; |934| 
         00048a 0000!
    1807                                                      ; call occurs [#_vPortYield] ; |934| 
    1808                      .dwpsn  file "../FreeRTOS/Source/queue.c",line 936,column 4,is_stmt
    1809 00048c 06FE          B $C$L46  ; |936| 
         00048e AF   
    1810                                                      ; branch occurs ; |936| 
    1811 00048f       $C$DW$L$_xQueueGenericSend$65$E:
    1812 00048f       $C$L61:    
    1813 00048f       $C$DW$L$_xQueueGenericSend$66$B:
    1814                      .dwpsn  file "../FreeRTOS/Source/queue.c",line 940,column 5,is_stmt
    1815 00048f ED1C          MOV dbl(*SP(#14)), XAR0
         000491 8F   
    1816              $C$DW$157       .dwtag  DW_TAG_TI_branch
    1817                      .dwattr $C$DW$157, DW_AT_low_pc(0x00)
    1818                      .dwattr $C$DW$157, DW_AT_name("_prvUnlockQueue")
    1819                      .dwattr $C$DW$157, DW_AT_TI_call
    1820 000492 080B          CALL #_prvUnlockQueue ; |940| 
         000494 43   
    1821                                                      ; call occurs [#_prvUnlockQueue] ; |940| 
    1822                      .dwpsn  file "../FreeRTOS/Source/queue.c",line 941,column 5,is_stmt
    1823              $C$DW$158       .dwtag  DW_TAG_TI_branch
    1824                      .dwattr $C$DW$158, DW_AT_low_pc(0x00)
    1825                      .dwattr $C$DW$158, DW_AT_name("_xTaskResumeAll")
    1826                      .dwattr $C$DW$158, DW_AT_TI_call
    1827 000495 6C00          CALL #_xTaskResumeAll ; |941| 
         000497 0000!
    1828                                                      ; call occurs [#_xTaskResumeAll] ; |941| 
    1829                      .dwpsn  file "../FreeRTOS/Source/queue.c",line 943,column 3,is_stmt
    1830 000499 06FE          B $C$L46  ; |943| 
         00049b A2   
    1831                                                      ; branch occurs ; |943| 
    1832 00049c       $C$DW$L$_xQueueGenericSend$66$E:
    1833 00049c       $C$L62:    
    1834                      .dwpsn  file "../FreeRTOS/Source/queue.c",line 947,column 4,is_stmt
    1835 00049c ED1C          MOV dbl(*SP(#14)), XAR0
         00049e 8F   
    1836              $C$DW$159       .dwtag  DW_TAG_TI_branch
    1837                      .dwattr $C$DW$159, DW_AT_low_pc(0x00)
TMS320C55x Assembler PC v4.4.1 Sat Sep 15 01:52:39 2018

Tools Copyright (c) 1996-2012 Texas Instruments Incorporated
queue.asm                                                            PAGE   39

    1838                      .dwattr $C$DW$159, DW_AT_name("_prvUnlockQueue")
    1839                      .dwattr $C$DW$159, DW_AT_TI_call
    1840 00049f 080B          CALL #_prvUnlockQueue ; |947| 
         0004a1 36   
    1841                                                      ; call occurs [#_prvUnlockQueue] ; |947| 
    1842                      .dwpsn  file "../FreeRTOS/Source/queue.c",line 948,column 4,is_stmt
    1843              $C$DW$160       .dwtag  DW_TAG_TI_branch
    1844                      .dwattr $C$DW$160, DW_AT_low_pc(0x00)
    1845                      .dwattr $C$DW$160, DW_AT_name("_xTaskResumeAll")
    1846                      .dwattr $C$DW$160, DW_AT_TI_call
    1847 0004a2 6C00          CALL #_xTaskResumeAll ; |948| 
         0004a4 0000!
    1848                                                      ; call occurs [#_xTaskResumeAll] ; |948| 
    1849                      .dwpsn  file "../FreeRTOS/Source/queue.c",line 951,column 4,is_stmt
    1850              
    1851 0004a6 4A00          B $C$L63  ; |951| 
    1852 0004a8 3D04  ||      MOV #0, T0
    1853              
    1854                                                      ; branch occurs ; |951| 
    1855 0004aa       $C$L63:    
    1856                      .dwpsn  file "../FreeRTOS/Source/queue.c",line 954,column 1,is_stmt
    1857 0004aa 4E11          AADD #17, SP
    1858                      .dwcfi  cfa_offset, 3
    1859 0004ac 5072          POP T3
    1860                      .dwcfi  restore_reg, 15
    1861                      .dwcfi  cfa_offset, 2
    1862 0004ae 5062          POP T2
    1863                      .dwcfi  restore_reg, 14
    1864                      .dwcfi  cfa_offset, 1
    1865              $C$DW$161       .dwtag  DW_TAG_TI_branch
    1866                      .dwattr $C$DW$161, DW_AT_low_pc(0x00)
    1867                      .dwattr $C$DW$161, DW_AT_TI_return
    1868 0004b0 4804          RET
    1869                                                      ; return occurs
    1870              
    1871              $C$DW$162       .dwtag  DW_TAG_TI_loop
    1872                      .dwattr $C$DW$162, DW_AT_name("F:\eZdsp_DBG\eZDSP_5535_Files\ccsws2\test\Debug\queue.asm:$C$L46:1:153
    1873                      .dwattr $C$DW$162, DW_AT_TI_begin_file("../FreeRTOS/Source/queue.c")
    1874                      .dwattr $C$DW$162, DW_AT_TI_begin_line(0x2fe)
    1875                      .dwattr $C$DW$162, DW_AT_TI_end_line(0x3b9)
    1876              $C$DW$163       .dwtag  DW_TAG_TI_loop_range
    1877                      .dwattr $C$DW$163, DW_AT_low_pc($C$DW$L$_xQueueGenericSend$28$B)
    1878                      .dwattr $C$DW$163, DW_AT_high_pc($C$DW$L$_xQueueGenericSend$28$E)
    1879              $C$DW$164       .dwtag  DW_TAG_TI_loop_range
    1880                      .dwattr $C$DW$164, DW_AT_low_pc($C$DW$L$_xQueueGenericSend$29$B)
    1881                      .dwattr $C$DW$164, DW_AT_high_pc($C$DW$L$_xQueueGenericSend$29$E)
    1882              $C$DW$165       .dwtag  DW_TAG_TI_loop_range
    1883                      .dwattr $C$DW$165, DW_AT_low_pc($C$DW$L$_xQueueGenericSend$44$B)
    1884                      .dwattr $C$DW$165, DW_AT_high_pc($C$DW$L$_xQueueGenericSend$44$E)
    1885              $C$DW$166       .dwtag  DW_TAG_TI_loop_range
    1886                      .dwattr $C$DW$166, DW_AT_low_pc($C$DW$L$_xQueueGenericSend$50$B)
    1887                      .dwattr $C$DW$166, DW_AT_high_pc($C$DW$L$_xQueueGenericSend$50$E)
    1888              $C$DW$167       .dwtag  DW_TAG_TI_loop_range
    1889                      .dwattr $C$DW$167, DW_AT_low_pc($C$DW$L$_xQueueGenericSend$51$B)
    1890                      .dwattr $C$DW$167, DW_AT_high_pc($C$DW$L$_xQueueGenericSend$51$E)
TMS320C55x Assembler PC v4.4.1 Sat Sep 15 01:52:39 2018

Tools Copyright (c) 1996-2012 Texas Instruments Incorporated
queue.asm                                                            PAGE   40

    1891              $C$DW$168       .dwtag  DW_TAG_TI_loop_range
    1892                      .dwattr $C$DW$168, DW_AT_low_pc($C$DW$L$_xQueueGenericSend$52$B)
    1893                      .dwattr $C$DW$168, DW_AT_high_pc($C$DW$L$_xQueueGenericSend$52$E)
    1894              $C$DW$169       .dwtag  DW_TAG_TI_loop_range
    1895                      .dwattr $C$DW$169, DW_AT_low_pc($C$DW$L$_xQueueGenericSend$53$B)
    1896                      .dwattr $C$DW$169, DW_AT_high_pc($C$DW$L$_xQueueGenericSend$53$E)
    1897              $C$DW$170       .dwtag  DW_TAG_TI_loop_range
    1898                      .dwattr $C$DW$170, DW_AT_low_pc($C$DW$L$_xQueueGenericSend$54$B)
    1899                      .dwattr $C$DW$170, DW_AT_high_pc($C$DW$L$_xQueueGenericSend$54$E)
    1900              $C$DW$171       .dwtag  DW_TAG_TI_loop_range
    1901                      .dwattr $C$DW$171, DW_AT_low_pc($C$DW$L$_xQueueGenericSend$55$B)
    1902                      .dwattr $C$DW$171, DW_AT_high_pc($C$DW$L$_xQueueGenericSend$55$E)
    1903              $C$DW$172       .dwtag  DW_TAG_TI_loop_range
    1904                      .dwattr $C$DW$172, DW_AT_low_pc($C$DW$L$_xQueueGenericSend$56$B)
    1905                      .dwattr $C$DW$172, DW_AT_high_pc($C$DW$L$_xQueueGenericSend$56$E)
    1906              $C$DW$173       .dwtag  DW_TAG_TI_loop_range
    1907                      .dwattr $C$DW$173, DW_AT_low_pc($C$DW$L$_xQueueGenericSend$57$B)
    1908                      .dwattr $C$DW$173, DW_AT_high_pc($C$DW$L$_xQueueGenericSend$57$E)
    1909              $C$DW$174       .dwtag  DW_TAG_TI_loop_range
    1910                      .dwattr $C$DW$174, DW_AT_low_pc($C$DW$L$_xQueueGenericSend$58$B)
    1911                      .dwattr $C$DW$174, DW_AT_high_pc($C$DW$L$_xQueueGenericSend$58$E)
    1912              $C$DW$175       .dwtag  DW_TAG_TI_loop_range
    1913                      .dwattr $C$DW$175, DW_AT_low_pc($C$DW$L$_xQueueGenericSend$59$B)
    1914                      .dwattr $C$DW$175, DW_AT_high_pc($C$DW$L$_xQueueGenericSend$59$E)
    1915              $C$DW$176       .dwtag  DW_TAG_TI_loop_range
    1916                      .dwattr $C$DW$176, DW_AT_low_pc($C$DW$L$_xQueueGenericSend$60$B)
    1917                      .dwattr $C$DW$176, DW_AT_high_pc($C$DW$L$_xQueueGenericSend$60$E)
    1918              $C$DW$177       .dwtag  DW_TAG_TI_loop_range
    1919                      .dwattr $C$DW$177, DW_AT_low_pc($C$DW$L$_xQueueGenericSend$61$B)
    1920                      .dwattr $C$DW$177, DW_AT_high_pc($C$DW$L$_xQueueGenericSend$61$E)
    1921              $C$DW$178       .dwtag  DW_TAG_TI_loop_range
    1922                      .dwattr $C$DW$178, DW_AT_low_pc($C$DW$L$_xQueueGenericSend$62$B)
    1923                      .dwattr $C$DW$178, DW_AT_high_pc($C$DW$L$_xQueueGenericSend$62$E)
    1924              $C$DW$179       .dwtag  DW_TAG_TI_loop_range
    1925                      .dwattr $C$DW$179, DW_AT_low_pc($C$DW$L$_xQueueGenericSend$63$B)
    1926                      .dwattr $C$DW$179, DW_AT_high_pc($C$DW$L$_xQueueGenericSend$63$E)
    1927              $C$DW$180       .dwtag  DW_TAG_TI_loop_range
    1928                      .dwattr $C$DW$180, DW_AT_low_pc($C$DW$L$_xQueueGenericSend$66$B)
    1929                      .dwattr $C$DW$180, DW_AT_high_pc($C$DW$L$_xQueueGenericSend$66$E)
    1930              $C$DW$181       .dwtag  DW_TAG_TI_loop_range
    1931                      .dwattr $C$DW$181, DW_AT_low_pc($C$DW$L$_xQueueGenericSend$65$B)
    1932                      .dwattr $C$DW$181, DW_AT_high_pc($C$DW$L$_xQueueGenericSend$65$E)
    1933              $C$DW$182       .dwtag  DW_TAG_TI_loop_range
    1934                      .dwattr $C$DW$182, DW_AT_low_pc($C$DW$L$_xQueueGenericSend$64$B)
    1935                      .dwattr $C$DW$182, DW_AT_high_pc($C$DW$L$_xQueueGenericSend$64$E)
    1936                      .dwendtag $C$DW$162
    1937              
    1938              
    1939              $C$DW$183       .dwtag  DW_TAG_TI_loop
    1940                      .dwattr $C$DW$183, DW_AT_name("F:\eZdsp_DBG\eZDSP_5535_Files\ccsws2\test\Debug\queue.asm:$C$L45:1:153
    1941                      .dwattr $C$DW$183, DW_AT_TI_begin_file("../FreeRTOS/Source/queue.c")
    1942                      .dwattr $C$DW$183, DW_AT_TI_begin_line(0x2f6)
    1943                      .dwattr $C$DW$183, DW_AT_TI_end_line(0x2f6)
    1944              $C$DW$184       .dwtag  DW_TAG_TI_loop_range
    1945                      .dwattr $C$DW$184, DW_AT_low_pc($C$DW$L$_xQueueGenericSend$27$B)
TMS320C55x Assembler PC v4.4.1 Sat Sep 15 01:52:39 2018

Tools Copyright (c) 1996-2012 Texas Instruments Incorporated
queue.asm                                                            PAGE   41

    1946                      .dwattr $C$DW$184, DW_AT_high_pc($C$DW$L$_xQueueGenericSend$27$E)
    1947                      .dwendtag $C$DW$183
    1948              
    1949              
    1950              $C$DW$185       .dwtag  DW_TAG_TI_loop
    1951                      .dwattr $C$DW$185, DW_AT_name("F:\eZdsp_DBG\eZDSP_5535_Files\ccsws2\test\Debug\queue.asm:$C$L41:1:153
    1952                      .dwattr $C$DW$185, DW_AT_TI_begin_file("../FreeRTOS/Source/queue.c")
    1953                      .dwattr $C$DW$185, DW_AT_TI_begin_line(0x2f3)
    1954                      .dwattr $C$DW$185, DW_AT_TI_end_line(0x2f3)
    1955              $C$DW$186       .dwtag  DW_TAG_TI_loop_range
    1956                      .dwattr $C$DW$186, DW_AT_low_pc($C$DW$L$_xQueueGenericSend$19$B)
    1957                      .dwattr $C$DW$186, DW_AT_high_pc($C$DW$L$_xQueueGenericSend$19$E)
    1958                      .dwendtag $C$DW$185
    1959              
    1960              
    1961              $C$DW$187       .dwtag  DW_TAG_TI_loop
    1962                      .dwattr $C$DW$187, DW_AT_name("F:\eZdsp_DBG\eZDSP_5535_Files\ccsws2\test\Debug\queue.asm:$C$L37:1:153
    1963                      .dwattr $C$DW$187, DW_AT_TI_begin_file("../FreeRTOS/Source/queue.c")
    1964                      .dwattr $C$DW$187, DW_AT_TI_begin_line(0x2f2)
    1965                      .dwattr $C$DW$187, DW_AT_TI_end_line(0x2f2)
    1966              $C$DW$188       .dwtag  DW_TAG_TI_loop_range
    1967                      .dwattr $C$DW$188, DW_AT_low_pc($C$DW$L$_xQueueGenericSend$11$B)
    1968                      .dwattr $C$DW$188, DW_AT_high_pc($C$DW$L$_xQueueGenericSend$11$E)
    1969                      .dwendtag $C$DW$187
    1970              
    1971              
    1972              $C$DW$189       .dwtag  DW_TAG_TI_loop
    1973                      .dwattr $C$DW$189, DW_AT_name("F:\eZdsp_DBG\eZDSP_5535_Files\ccsws2\test\Debug\queue.asm:$C$L33:1:153
    1974                      .dwattr $C$DW$189, DW_AT_TI_begin_file("../FreeRTOS/Source/queue.c")
    1975                      .dwattr $C$DW$189, DW_AT_TI_begin_line(0x2f1)
    1976                      .dwattr $C$DW$189, DW_AT_TI_end_line(0x2f1)
    1977              $C$DW$190       .dwtag  DW_TAG_TI_loop_range
    1978                      .dwattr $C$DW$190, DW_AT_low_pc($C$DW$L$_xQueueGenericSend$3$B)
    1979                      .dwattr $C$DW$190, DW_AT_high_pc($C$DW$L$_xQueueGenericSend$3$E)
    1980                      .dwendtag $C$DW$189
    1981              
    1982                      .dwattr $C$DW$131, DW_AT_TI_end_file("../FreeRTOS/Source/queue.c")
    1983                      .dwattr $C$DW$131, DW_AT_TI_end_line(0x3ba)
    1984                      .dwattr $C$DW$131, DW_AT_TI_end_column(0x01)
    1985                      .dwendentry
    1986                      .dwendtag $C$DW$131
    1987              
    1988 0004b2               .sect   ".text"
    1989                      .align 4
    1990                      .global _xQueueGenericSendFromISR
    1991              
    1992              $C$DW$191       .dwtag  DW_TAG_subprogram, DW_AT_name("xQueueGenericSendFromISR")
    1993                      .dwattr $C$DW$191, DW_AT_low_pc(_xQueueGenericSendFromISR)
    1994                      .dwattr $C$DW$191, DW_AT_high_pc(0x00)
    1995                      .dwattr $C$DW$191, DW_AT_TI_symbol_name("_xQueueGenericSendFromISR")
    1996                      .dwattr $C$DW$191, DW_AT_external
    1997                      .dwattr $C$DW$191, DW_AT_type(*$C$DW$T$49)
    1998                      .dwattr $C$DW$191, DW_AT_TI_begin_file("../FreeRTOS/Source/queue.c")
    1999                      .dwattr $C$DW$191, DW_AT_TI_begin_line(0x3bd)
    2000                      .dwattr $C$DW$191, DW_AT_TI_begin_column(0x0c)
TMS320C55x Assembler PC v4.4.1 Sat Sep 15 01:52:39 2018

Tools Copyright (c) 1996-2012 Texas Instruments Incorporated
queue.asm                                                            PAGE   42

    2001                      .dwattr $C$DW$191, DW_AT_TI_max_frame_size(0x0e)
    2002                      .dwpsn  file "../FreeRTOS/Source/queue.c",line 958,column 1,is_stmt,address _xQueueGenericSendFromISR
    2003              
    2004                      .dwfde $C$DW$CIE, _xQueueGenericSendFromISR
    2005              $C$DW$192       .dwtag  DW_TAG_formal_parameter, DW_AT_name("xQueue")
    2006                      .dwattr $C$DW$192, DW_AT_TI_symbol_name("_xQueue")
    2007                      .dwattr $C$DW$192, DW_AT_type(*$C$DW$T$27)
    2008                      .dwattr $C$DW$192, DW_AT_location[DW_OP_reg17]
    2009              $C$DW$193       .dwtag  DW_TAG_formal_parameter, DW_AT_name("pvItemToQueue")
    2010                      .dwattr $C$DW$193, DW_AT_TI_symbol_name("_pvItemToQueue")
    2011                      .dwattr $C$DW$193, DW_AT_type(*$C$DW$T$77)
    2012                      .dwattr $C$DW$193, DW_AT_location[DW_OP_reg19]
    2013              $C$DW$194       .dwtag  DW_TAG_formal_parameter, DW_AT_name("pxHigherPriorityTaskWoken")
    2014                      .dwattr $C$DW$194, DW_AT_TI_symbol_name("_pxHigherPriorityTaskWoken")
    2015                      .dwattr $C$DW$194, DW_AT_type(*$C$DW$T$136)
    2016                      .dwattr $C$DW$194, DW_AT_location[DW_OP_reg21]
    2017              $C$DW$195       .dwtag  DW_TAG_formal_parameter, DW_AT_name("xCopyPosition")
    2018                      .dwattr $C$DW$195, DW_AT_TI_symbol_name("_xCopyPosition")
    2019                      .dwattr $C$DW$195, DW_AT_type(*$C$DW$T$112)
    2020                      .dwattr $C$DW$195, DW_AT_location[DW_OP_reg12]
    2021              ;*******************************************************************************
    2022              ;* FUNCTION NAME: xQueueGenericSendFromISR                                     *
    2023              ;*                                                                             *
    2024              ;*   Function Uses Regs : AC0,AC0,T0,AR0,XAR0,AR1,XAR1,AR2,XAR2,AR3,XAR3,SP,   *
    2025              ;*                        CARRY,TC1,M40,SATA,SATD,RDM,FRCT,SMUL                *
    2026              ;*   Stack Frame        : Compact (No Frame Pointer, w/ debug)                 *
    2027              ;*   Total Frame Size   : 14 words                                             *
    2028              ;*                        (1 return address/alignment)                         *
    2029              ;*                        (13 local values)                                    *
    2030              ;*   Min System Stack   : 1 word                                               *
    2031              ;*******************************************************************************
    2032 0004b4       _xQueueGenericSendFromISR:
    2033                      .dwcfi  cfa_offset, 1
    2034                      .dwcfi  save_reg_to_mem, 91, -1
    2035 0004b4 4EF3          AADD #-13, SP
    2036                      .dwcfi  cfa_offset, 14
    2037              $C$DW$196       .dwtag  DW_TAG_variable, DW_AT_name("xQueue")
    2038                      .dwattr $C$DW$196, DW_AT_TI_symbol_name("_xQueue")
    2039                      .dwattr $C$DW$196, DW_AT_type(*$C$DW$T$27)
    2040                      .dwattr $C$DW$196, DW_AT_location[DW_OP_bregx 0x24 0]
    2041              $C$DW$197       .dwtag  DW_TAG_variable, DW_AT_name("pvItemToQueue")
    2042                      .dwattr $C$DW$197, DW_AT_TI_symbol_name("_pvItemToQueue")
    2043                      .dwattr $C$DW$197, DW_AT_type(*$C$DW$T$77)
    2044                      .dwattr $C$DW$197, DW_AT_location[DW_OP_bregx 0x24 2]
    2045              $C$DW$198       .dwtag  DW_TAG_variable, DW_AT_name("pxHigherPriorityTaskWoken")
    2046                      .dwattr $C$DW$198, DW_AT_TI_symbol_name("_pxHigherPriorityTaskWoken")
    2047                      .dwattr $C$DW$198, DW_AT_type(*$C$DW$T$136)
    2048                      .dwattr $C$DW$198, DW_AT_location[DW_OP_bregx 0x24 4]
    2049              $C$DW$199       .dwtag  DW_TAG_variable, DW_AT_name("xCopyPosition")
    2050                      .dwattr $C$DW$199, DW_AT_TI_symbol_name("_xCopyPosition")
    2051                      .dwattr $C$DW$199, DW_AT_type(*$C$DW$T$112)
    2052                      .dwattr $C$DW$199, DW_AT_location[DW_OP_bregx 0x24 6]
    2053              $C$DW$200       .dwtag  DW_TAG_variable, DW_AT_name("xReturn")
    2054                      .dwattr $C$DW$200, DW_AT_TI_symbol_name("_xReturn")
    2055                      .dwattr $C$DW$200, DW_AT_type(*$C$DW$T$49)
TMS320C55x Assembler PC v4.4.1 Sat Sep 15 01:52:39 2018

Tools Copyright (c) 1996-2012 Texas Instruments Incorporated
queue.asm                                                            PAGE   43

    2056                      .dwattr $C$DW$200, DW_AT_location[DW_OP_bregx 0x24 7]
    2057              $C$DW$201       .dwtag  DW_TAG_variable, DW_AT_name("uxSavedInterruptStatus")
    2058                      .dwattr $C$DW$201, DW_AT_TI_symbol_name("_uxSavedInterruptStatus")
    2059                      .dwattr $C$DW$201, DW_AT_type(*$C$DW$T$32)
    2060                      .dwattr $C$DW$201, DW_AT_location[DW_OP_bregx 0x24 8]
    2061              $C$DW$202       .dwtag  DW_TAG_variable, DW_AT_name("pxQueue")
    2062                      .dwattr $C$DW$202, DW_AT_TI_symbol_name("_pxQueue")
    2063                      .dwattr $C$DW$202, DW_AT_type(*$C$DW$T$69)
    2064                      .dwattr $C$DW$202, DW_AT_location[DW_OP_bregx 0x24 10]
    2065 0004b6 C40C          MOV T0, *SP(#6) ; |958| 
    2066 0004b8 EB08          MOV XAR2, dbl(*SP(#4))
         0004ba A5   
    2067 0004bb EB04          MOV XAR1, dbl(*SP(#2))
         0004bd 95   
    2068 0004be EB00          MOV XAR0, dbl(*SP(#0))
         0004c0 85   
    2069                      .dwpsn  file "../FreeRTOS/Source/queue.c",line 961,column 17,is_stmt
    2070 0004c1 ED00          MOV dbl(*SP(#0)), XAR3
         0004c3 BF   
    2071 0004c4 EB14          MOV XAR3, dbl(*SP(#10))
         0004c6 B5   
    2072                      .dwpsn  file "../FreeRTOS/Source/queue.c",line 963,column 2,is_stmt
    2073 0004c7 90B0          MOV XAR3, AC0
    2074 0004c9 6290          BCC $C$L65,AC0 != #0 ; |963| 
    2075                                                      ; branchcc occurs ; |963| 
    2076 0004cb 20     nop
    2077 0004cc 46B3   bset INTM
    2078 0004ce       $C$L64:    
    2079 0004ce       $C$DW$L$_xQueueGenericSendFromISR$3$B:
    2080 0004ce 4A7E          B $C$L64  ; |963| 
    2081                                                      ; branch occurs ; |963| 
    2082 0004d0       $C$DW$L$_xQueueGenericSendFromISR$3$E:
    2083 0004d0       $C$L65:    
    2084                      .dwpsn  file "../FreeRTOS/Source/queue.c",line 964,column 2,is_stmt
    2085 0004d0 ED04          MOV dbl(*SP(#2)), XAR3
         0004d2 BF   
    2086 0004d3 90B0          MOV XAR3, AC0
    2087 0004d5 3C0A          MOV #0, AR2
    2088              
    2089 0004d7 6590          BCC $C$L66,AC0 != #0 ; |964| 
    2090 0004d9 3D09  ||      MOV #0, AR1
    2091              
    2092                                                      ; branchcc occurs ; |964| 
    2093 0004db ED14          MOV dbl(*SP(#10)), XAR3
         0004dd BF   
    2094 0004de AB6D          MOV *AR3(#30), AR3 ; |964| 
         0004e0 001E 
    2095 0004e2 610B          BCC $C$L66,AR3 == #0 ; |964| 
    2096                                                      ; branchcc occurs ; |964| 
    2097 0004e4 3C1A          MOV #1, AR2
    2098 0004e6       $C$L66:    
    2099 0004e6 611A          BCC $C$L67,AR2 != #0 ; |964| 
    2100                                                      ; branchcc occurs ; |964| 
    2101 0004e8 3C19          MOV #1, AR1
    2102 0004ea       $C$L67:    
TMS320C55x Assembler PC v4.4.1 Sat Sep 15 01:52:39 2018

Tools Copyright (c) 1996-2012 Texas Instruments Incorporated
queue.asm                                                            PAGE   44

    2103 0004ea 6299          BCC $C$L69,AR1 != #0 ; |964| 
    2104                                                      ; branchcc occurs ; |964| 
    2105 0004ec 20     nop
    2106 0004ed 46B3   bset INTM
    2107 0004ef       $C$L68:    
    2108 0004ef       $C$DW$L$_xQueueGenericSendFromISR$11$B:
    2109 0004ef 4A7E          B $C$L68  ; |964| 
    2110                                                      ; branch occurs ; |964| 
    2111 0004f1       $C$DW$L$_xQueueGenericSendFromISR$11$E:
    2112 0004f1       $C$L69:    
    2113                      .dwpsn  file "../FreeRTOS/Source/queue.c",line 965,column 2,is_stmt
    2114 0004f1 F00C          CMP *SP(#6) == #2, TC1 ; |965| 
         0004f3 0002 
    2115 0004f5 3C0A          MOV #0, AR2
    2116              
    2117 0004f7 66F4          BCC $C$L70,!TC1 ; |965| 
    2118 0004f9 3D09  ||      MOV #0, AR1
    2119              
    2120                                                      ; branchcc occurs ; |965| 
    2121 0004fb ED14          MOV dbl(*SP(#10)), XAR3
         0004fd BF   
    2122 0004fe F06D          CMP *AR3(#29) == #1, TC1 ; |965| 
         000500 0001 
         000502 001D 
    2123 000504 6164          BCC $C$L70,TC1 ; |965| 
    2124                                                      ; branchcc occurs ; |965| 
    2125 000506 3C1A          MOV #1, AR2
    2126 000508       $C$L70:    
    2127 000508 611A          BCC $C$L71,AR2 != #0 ; |965| 
    2128                                                      ; branchcc occurs ; |965| 
    2129 00050a 3C19          MOV #1, AR1
    2130 00050c       $C$L71:    
    2131 00050c 6299          BCC $C$L73,AR1 != #0 ; |965| 
    2132                                                      ; branchcc occurs ; |965| 
    2133 00050e 20     nop
    2134 00050f 46B3   bset INTM
    2135 000511       $C$L72:    
    2136 000511       $C$DW$L$_xQueueGenericSendFromISR$19$B:
    2137 000511 4A7E          B $C$L72  ; |965| 
    2138                                                      ; branch occurs ; |965| 
    2139 000513       $C$DW$L$_xQueueGenericSendFromISR$19$E:
    2140 000513       $C$L73:    
    2141                      .dwpsn  file "../FreeRTOS/Source/queue.c",line 988,column 2,is_stmt
    2142 000513 E610          MOV #0, *SP(#8) ; |988| 
         000515 00   
    2143                      .dwpsn  file "../FreeRTOS/Source/queue.c",line 990,column 3,is_stmt
    2144 000516 ED14          MOV dbl(*SP(#10)), XAR3
         000518 BF   
    2145 000519 A96D          MOV *AR3(#29), AR1 ; |990| 
         00051b 001D 
    2146 00051d AA6D          MOV *AR3(#28), AR2 ; |990| 
         00051f 001C 
    2147 000521 12A4          CMPU AR2 < AR1, TC1 ; |990| 
         000523 94   
    2148 000524 63E4          BCC $C$L74,TC1 ; |990| 
TMS320C55x Assembler PC v4.4.1 Sat Sep 15 01:52:39 2018

Tools Copyright (c) 1996-2012 Texas Instruments Incorporated
queue.asm                                                            PAGE   45

    2149                                                      ; branchcc occurs ; |990| 
    2150 000526 F00C          CMP *SP(#6) == #2, TC1 ; |990| 
         000528 0002 
    2151 00052a 0474          BCC $C$L79,!TC1 ; |990| 
         00052c 54   
    2152                                                      ; branchcc occurs ; |990| 
    2153 00052d       $C$L74:    
    2154              
    2155              $C$DW$203       .dwtag  DW_TAG_lexical_block, DW_AT_low_pc(0x00), DW_AT_high_pc(0x00)
    2156              $C$DW$204       .dwtag  DW_TAG_variable, DW_AT_name("cTxLock")
    2157                      .dwattr $C$DW$204, DW_AT_TI_symbol_name("_cTxLock")
    2158                      .dwattr $C$DW$204, DW_AT_type(*$C$DW$T$111)
    2159                      .dwattr $C$DW$204, DW_AT_location[DW_OP_bregx 0x24 12]
    2160                      .dwpsn  file "../FreeRTOS/Source/queue.c",line 992,column 17,is_stmt
    2161 00052d A96D          MOV *AR3(#32), AR1 ; |992| 
         00052f 0020 
    2162 000531 C918          MOV AR1, *SP(#12) ; |992| 
    2163                      .dwpsn  file "../FreeRTOS/Source/queue.c",line 1001,column 4,is_stmt
    2164 000533 ED14          MOV dbl(*SP(#10)), XAR0
         000535 8F   
    2165 000536 A40C          MOV *SP(#6), T0 ; |1001| 
    2166 000538 ED04          MOV dbl(*SP(#2)), XAR1
         00053a 9F   
    2167              $C$DW$205       .dwtag  DW_TAG_TI_branch
    2168                      .dwattr $C$DW$205, DW_AT_low_pc(0x00)
    2169                      .dwattr $C$DW$205, DW_AT_name("_prvCopyDataToQueue")
    2170                      .dwattr $C$DW$205, DW_AT_TI_call
    2171 00053b 0809          CALL #_prvCopyDataToQueue ; |1001| 
         00053d 4E   
    2172                                                      ; call occurs [#_prvCopyDataToQueue] ; |1001| 
    2173                      .dwpsn  file "../FreeRTOS/Source/queue.c",line 1005,column 4,is_stmt
    2174 00053e F018          CMP *SP(#12) == #-1, TC1 ; |1005| 
         000540 FFFF 
    2175 000542 0474          BCC $C$L77,!TC1 ; |1005| 
         000544 2C   
    2176                                                      ; branchcc occurs ; |1005| 
    2177                      .dwpsn  file "../FreeRTOS/Source/queue.c",line 1060,column 6,is_stmt
    2178 000545 ED14          MOV dbl(*SP(#10)), XAR3
         000547 BF   
    2179 000548 A96D          MOV *AR3(#18), AR1 ; |1060| 
         00054a 0012 
    2180 00054c 6219          BCC $C$L75,AR1 != #0 ; |1060| 
    2181                                                      ; branchcc occurs ; |1060| 
    2182 00054e 3C19          MOV #1, AR1
    2183 000550 4A02          B $C$L76  ; |1060| 
    2184                                                      ; branch occurs ; |1060| 
    2185 000552       $C$L75:    
    2186 000552 3C09          MOV #0, AR1
    2187 000554       $C$L76:    
    2188 000554 0419          BCC $C$L78,AR1 != #0 ; |1060| 
         000556 25   
    2189                                                      ; branchcc occurs ; |1060| 
    2190                      .dwpsn  file "../FreeRTOS/Source/queue.c",line 1062,column 7,is_stmt
    2191 000557 ED14          MOV dbl(*SP(#10)), XAR0
         000559 8F   
TMS320C55x Assembler PC v4.4.1 Sat Sep 15 01:52:39 2018

Tools Copyright (c) 1996-2012 Texas Instruments Incorporated
queue.asm                                                            PAGE   46

    2192 00055a 1412          AADD #18, AR0 ; |1062| 
         00055c 84   
    2193              $C$DW$206       .dwtag  DW_TAG_TI_branch
    2194                      .dwattr $C$DW$206, DW_AT_low_pc(0x00)
    2195                      .dwattr $C$DW$206, DW_AT_name("_xTaskRemoveFromEventList")
    2196                      .dwattr $C$DW$206, DW_AT_TI_call
    2197 00055d 6C00          CALL #_xTaskRemoveFromEventList ; |1062| 
         00055f 0000!
    2198                                                      ; call occurs [#_xTaskRemoveFromEventList] ; |1062| 
    2199 000561 0404          BCC $C$L78,T0 == #0 ; |1062| 
         000563 18   
    2200                                                      ; branchcc occurs ; |1062| 
    2201                      .dwpsn  file "../FreeRTOS/Source/queue.c",line 1066,column 8,is_stmt
    2202 000564 ED08          MOV dbl(*SP(#4)), XAR3
         000566 BF   
    2203 000567 90B0          MOV XAR3, AC0
    2204 000569 0400          BCC $C$L78,AC0 == #0 ; |1066| 
         00056b 10   
    2205                                                      ; branchcc occurs ; |1066| 
    2206                      .dwpsn  file "../FreeRTOS/Source/queue.c",line 1068,column 9,is_stmt
    2207 00056c E661          MOV #1, *AR3 ; |1068| 
         00056e 01   
    2208                      .dwpsn  file "../FreeRTOS/Source/queue.c",line 1069,column 8,is_stmt
    2209 00056f 4A0B          B $C$L78  ; |1069| 
    2210                                                      ; branch occurs ; |1069| 
    2211 000571       $C$L77:    
    2212                      .dwpsn  file "../FreeRTOS/Source/queue.c",line 1091,column 5,is_stmt
    2213 000571 ED14          MOV dbl(*SP(#10)), XAR3
         000573 BF   
    2214 000574 A918          MOV *SP(#12), AR1 ; |1091| 
    2215 000576 4019          ADD #1, AR1 ; |1091| 
    2216 000578 C96D          MOV AR1, *AR3(#32) ; |1091| 
         00057a 0020 
    2217 00057c       $C$L78:    
    2218                      .dwpsn  file "../FreeRTOS/Source/queue.c",line 1094,column 4,is_stmt
    2219 00057c E60E          MOV #1, *SP(#7) ; |1094| 
         00057e 01   
    2220                      .dwendtag $C$DW$203
    2221              
    2222                      .dwpsn  file "../FreeRTOS/Source/queue.c",line 1095,column 3,is_stmt
    2223 00057f 4A03          B $C$L80  ; |1095| 
    2224                                                      ; branch occurs ; |1095| 
    2225 000581       $C$L79:    
    2226                      .dwpsn  file "../FreeRTOS/Source/queue.c",line 1099,column 4,is_stmt
    2227 000581 E60E          MOV #0, *SP(#7) ; |1099| 
         000583 00   
    2228 000584       $C$L80:    
    2229                      .dwpsn  file "../FreeRTOS/Source/queue.c",line 1102,column 2,is_stmt
    2230                      .dwpsn  file "../FreeRTOS/Source/queue.c",line 1104,column 2,is_stmt
    2231 000584 A40E          MOV *SP(#7), T0 ; |1104| 
    2232                      .dwpsn  file "../FreeRTOS/Source/queue.c",line 1105,column 1,is_stmt
    2233 000586 4E0D          AADD #13, SP
    2234                      .dwcfi  cfa_offset, 1
    2235              $C$DW$207       .dwtag  DW_TAG_TI_branch
    2236                      .dwattr $C$DW$207, DW_AT_low_pc(0x00)
TMS320C55x Assembler PC v4.4.1 Sat Sep 15 01:52:39 2018

Tools Copyright (c) 1996-2012 Texas Instruments Incorporated
queue.asm                                                            PAGE   47

    2237                      .dwattr $C$DW$207, DW_AT_TI_return
    2238 000588 4804          RET
    2239                                                      ; return occurs
    2240              
    2241              $C$DW$208       .dwtag  DW_TAG_TI_loop
    2242                      .dwattr $C$DW$208, DW_AT_name("F:\eZdsp_DBG\eZDSP_5535_Files\ccsws2\test\Debug\queue.asm:$C$L72:1:153
    2243                      .dwattr $C$DW$208, DW_AT_TI_begin_file("../FreeRTOS/Source/queue.c")
    2244                      .dwattr $C$DW$208, DW_AT_TI_begin_line(0x3c5)
    2245                      .dwattr $C$DW$208, DW_AT_TI_end_line(0x3c5)
    2246              $C$DW$209       .dwtag  DW_TAG_TI_loop_range
    2247                      .dwattr $C$DW$209, DW_AT_low_pc($C$DW$L$_xQueueGenericSendFromISR$19$B)
    2248                      .dwattr $C$DW$209, DW_AT_high_pc($C$DW$L$_xQueueGenericSendFromISR$19$E)
    2249                      .dwendtag $C$DW$208
    2250              
    2251              
    2252              $C$DW$210       .dwtag  DW_TAG_TI_loop
    2253                      .dwattr $C$DW$210, DW_AT_name("F:\eZdsp_DBG\eZDSP_5535_Files\ccsws2\test\Debug\queue.asm:$C$L68:1:153
    2254                      .dwattr $C$DW$210, DW_AT_TI_begin_file("../FreeRTOS/Source/queue.c")
    2255                      .dwattr $C$DW$210, DW_AT_TI_begin_line(0x3c4)
    2256                      .dwattr $C$DW$210, DW_AT_TI_end_line(0x3c4)
    2257              $C$DW$211       .dwtag  DW_TAG_TI_loop_range
    2258                      .dwattr $C$DW$211, DW_AT_low_pc($C$DW$L$_xQueueGenericSendFromISR$11$B)
    2259                      .dwattr $C$DW$211, DW_AT_high_pc($C$DW$L$_xQueueGenericSendFromISR$11$E)
    2260                      .dwendtag $C$DW$210
    2261              
    2262              
    2263              $C$DW$212       .dwtag  DW_TAG_TI_loop
    2264                      .dwattr $C$DW$212, DW_AT_name("F:\eZdsp_DBG\eZDSP_5535_Files\ccsws2\test\Debug\queue.asm:$C$L64:1:153
    2265                      .dwattr $C$DW$212, DW_AT_TI_begin_file("../FreeRTOS/Source/queue.c")
    2266                      .dwattr $C$DW$212, DW_AT_TI_begin_line(0x3c3)
    2267                      .dwattr $C$DW$212, DW_AT_TI_end_line(0x3c3)
    2268              $C$DW$213       .dwtag  DW_TAG_TI_loop_range
    2269                      .dwattr $C$DW$213, DW_AT_low_pc($C$DW$L$_xQueueGenericSendFromISR$3$B)
    2270                      .dwattr $C$DW$213, DW_AT_high_pc($C$DW$L$_xQueueGenericSendFromISR$3$E)
    2271                      .dwendtag $C$DW$212
    2272              
    2273                      .dwattr $C$DW$191, DW_AT_TI_end_file("../FreeRTOS/Source/queue.c")
    2274                      .dwattr $C$DW$191, DW_AT_TI_end_line(0x451)
    2275                      .dwattr $C$DW$191, DW_AT_TI_end_column(0x01)
    2276                      .dwendentry
    2277                      .dwendtag $C$DW$191
    2278              
    2279 00058a               .sect   ".text"
    2280                      .align 4
    2281                      .global _xQueueGiveFromISR
    2282              
    2283              $C$DW$214       .dwtag  DW_TAG_subprogram, DW_AT_name("xQueueGiveFromISR")
    2284                      .dwattr $C$DW$214, DW_AT_low_pc(_xQueueGiveFromISR)
    2285                      .dwattr $C$DW$214, DW_AT_high_pc(0x00)
    2286                      .dwattr $C$DW$214, DW_AT_TI_symbol_name("_xQueueGiveFromISR")
    2287                      .dwattr $C$DW$214, DW_AT_external
    2288                      .dwattr $C$DW$214, DW_AT_type(*$C$DW$T$49)
    2289                      .dwattr $C$DW$214, DW_AT_TI_begin_file("../FreeRTOS/Source/queue.c")
    2290                      .dwattr $C$DW$214, DW_AT_TI_begin_line(0x454)
    2291                      .dwattr $C$DW$214, DW_AT_TI_begin_column(0x0c)
TMS320C55x Assembler PC v4.4.1 Sat Sep 15 01:52:39 2018

Tools Copyright (c) 1996-2012 Texas Instruments Incorporated
queue.asm                                                            PAGE   48

    2292                      .dwattr $C$DW$214, DW_AT_TI_max_frame_size(0x0c)
    2293                      .dwpsn  file "../FreeRTOS/Source/queue.c",line 1109,column 1,is_stmt,address _xQueueGiveFromISR
    2294              
    2295                      .dwfde $C$DW$CIE, _xQueueGiveFromISR
    2296              $C$DW$215       .dwtag  DW_TAG_formal_parameter, DW_AT_name("xQueue")
    2297                      .dwattr $C$DW$215, DW_AT_TI_symbol_name("_xQueue")
    2298                      .dwattr $C$DW$215, DW_AT_type(*$C$DW$T$27)
    2299                      .dwattr $C$DW$215, DW_AT_location[DW_OP_reg17]
    2300              $C$DW$216       .dwtag  DW_TAG_formal_parameter, DW_AT_name("pxHigherPriorityTaskWoken")
    2301                      .dwattr $C$DW$216, DW_AT_TI_symbol_name("_pxHigherPriorityTaskWoken")
    2302                      .dwattr $C$DW$216, DW_AT_type(*$C$DW$T$136)
    2303                      .dwattr $C$DW$216, DW_AT_location[DW_OP_reg19]
    2304              ;*******************************************************************************
    2305              ;* FUNCTION NAME: xQueueGiveFromISR                                            *
    2306              ;*                                                                             *
    2307              ;*   Function Uses Regs : AC0,AC0,T0,AR0,XAR0,AR1,XAR1,AR2,AR3,XAR3,SP,CARRY,  *
    2308              ;*                        TC1,M40,SATA,SATD,RDM,FRCT,SMUL                      *
    2309              ;*   Stack Frame        : Compact (No Frame Pointer, w/ debug)                 *
    2310              ;*   Total Frame Size   : 12 words                                             *
    2311              ;*                        (2 return address/alignment)                         *
    2312              ;*                        (10 local values)                                    *
    2313              ;*   Min System Stack   : 1 word                                               *
    2314              ;*******************************************************************************
    2315 00058c       _xQueueGiveFromISR:
    2316                      .dwcfi  cfa_offset, 1
    2317                      .dwcfi  save_reg_to_mem, 91, -1
    2318 00058c 4EF5          AADD #-11, SP
    2319                      .dwcfi  cfa_offset, 12
    2320              $C$DW$217       .dwtag  DW_TAG_variable, DW_AT_name("xQueue")
    2321                      .dwattr $C$DW$217, DW_AT_TI_symbol_name("_xQueue")
    2322                      .dwattr $C$DW$217, DW_AT_type(*$C$DW$T$27)
    2323                      .dwattr $C$DW$217, DW_AT_location[DW_OP_bregx 0x24 0]
    2324              $C$DW$218       .dwtag  DW_TAG_variable, DW_AT_name("pxHigherPriorityTaskWoken")
    2325                      .dwattr $C$DW$218, DW_AT_TI_symbol_name("_pxHigherPriorityTaskWoken")
    2326                      .dwattr $C$DW$218, DW_AT_type(*$C$DW$T$136)
    2327                      .dwattr $C$DW$218, DW_AT_location[DW_OP_bregx 0x24 2]
    2328              $C$DW$219       .dwtag  DW_TAG_variable, DW_AT_name("xReturn")
    2329                      .dwattr $C$DW$219, DW_AT_TI_symbol_name("_xReturn")
    2330                      .dwattr $C$DW$219, DW_AT_type(*$C$DW$T$49)
    2331                      .dwattr $C$DW$219, DW_AT_location[DW_OP_bregx 0x24 4]
    2332              $C$DW$220       .dwtag  DW_TAG_variable, DW_AT_name("uxSavedInterruptStatus")
    2333                      .dwattr $C$DW$220, DW_AT_TI_symbol_name("_uxSavedInterruptStatus")
    2334                      .dwattr $C$DW$220, DW_AT_type(*$C$DW$T$32)
    2335                      .dwattr $C$DW$220, DW_AT_location[DW_OP_bregx 0x24 5]
    2336              $C$DW$221       .dwtag  DW_TAG_variable, DW_AT_name("pxQueue")
    2337                      .dwattr $C$DW$221, DW_AT_TI_symbol_name("_pxQueue")
    2338                      .dwattr $C$DW$221, DW_AT_type(*$C$DW$T$69)
    2339                      .dwattr $C$DW$221, DW_AT_location[DW_OP_bregx 0x24 6]
    2340 00058e EB04          MOV XAR1, dbl(*SP(#2))
         000590 95   
    2341 000591 EB00          MOV XAR0, dbl(*SP(#0))
         000593 85   
    2342                      .dwpsn  file "../FreeRTOS/Source/queue.c",line 1112,column 17,is_stmt
    2343 000594 ED00          MOV dbl(*SP(#0)), XAR3
         000596 BF   
TMS320C55x Assembler PC v4.4.1 Sat Sep 15 01:52:39 2018

Tools Copyright (c) 1996-2012 Texas Instruments Incorporated
queue.asm                                                            PAGE   49

    2344 000597 EB0C          MOV XAR3, dbl(*SP(#6))
         000599 B5   
    2345                      .dwpsn  file "../FreeRTOS/Source/queue.c",line 1120,column 2,is_stmt
    2346 00059a 90B0          MOV XAR3, AC0
    2347 00059c 6290          BCC $C$L82,AC0 != #0 ; |1120| 
    2348                                                      ; branchcc occurs ; |1120| 
    2349 00059e 20     nop
    2350 00059f 46B3   bset INTM
    2351 0005a1       $C$L81:    
    2352 0005a1       $C$DW$L$_xQueueGiveFromISR$3$B:
    2353 0005a1 4A7E          B $C$L81  ; |1120| 
    2354                                                      ; branch occurs ; |1120| 
    2355 0005a3       $C$DW$L$_xQueueGiveFromISR$3$E:
    2356 0005a3       $C$L82:    
    2357                      .dwpsn  file "../FreeRTOS/Source/queue.c",line 1124,column 2,is_stmt
    2358 0005a3 AA6D          MOV *AR3(#30), AR2 ; |1124| 
         0005a5 001E 
    2359 0005a7 3C09          MOV #0, AR1
    2360 0005a9 611A          BCC $C$L83,AR2 != #0 ; |1124| 
    2361                                                      ; branchcc occurs ; |1124| 
    2362 0005ab 3C19          MOV #1, AR1
    2363 0005ad       $C$L83:    
    2364 0005ad 6299          BCC $C$L85,AR1 != #0 ; |1124| 
    2365                                                      ; branchcc occurs ; |1124| 
    2366 0005af 20     nop
    2367 0005b0 46B3   bset INTM
    2368 0005b2       $C$L84:    
    2369 0005b2       $C$DW$L$_xQueueGiveFromISR$8$B:
    2370 0005b2 4A7E          B $C$L84  ; |1124| 
    2371                                                      ; branch occurs ; |1124| 
    2372 0005b4       $C$DW$L$_xQueueGiveFromISR$8$E:
    2373 0005b4       $C$L85:    
    2374                      .dwpsn  file "../FreeRTOS/Source/queue.c",line 1129,column 2,is_stmt
    2375 0005b4 ED61          MOV dbl(*AR3), XAR3
         0005b6 BF   
    2376 0005b7 90B0          MOV XAR3, AC0
    2377 0005b9 3C0A          MOV #0, AR2
    2378              
    2379 0005bb 6610          BCC $C$L86,AC0 != #0 ; |1129| 
    2380 0005bd 3D09  ||      MOV #0, AR1
    2381              
    2382                                                      ; branchcc occurs ; |1129| 
    2383 0005bf ED0C          MOV dbl(*SP(#6)), XAR3
         0005c1 BF   
    2384 0005c2 ED79          MOV dbl(*AR3(short(#4))), XAR3
         0005c4 BF   
    2385 0005c5 90B0          MOV XAR3, AC0
    2386 0005c7 6100          BCC $C$L86,AC0 == #0 ; |1129| 
    2387                                                      ; branchcc occurs ; |1129| 
    2388 0005c9 3C1A          MOV #1, AR2
    2389 0005cb       $C$L86:    
    2390 0005cb 611A          BCC $C$L87,AR2 != #0 ; |1129| 
    2391                                                      ; branchcc occurs ; |1129| 
    2392 0005cd 3C19          MOV #1, AR1
    2393 0005cf       $C$L87:    
TMS320C55x Assembler PC v4.4.1 Sat Sep 15 01:52:39 2018

Tools Copyright (c) 1996-2012 Texas Instruments Incorporated
queue.asm                                                            PAGE   50

    2394 0005cf 6299          BCC $C$L89,AR1 != #0 ; |1129| 
    2395                                                      ; branchcc occurs ; |1129| 
    2396 0005d1 20     nop
    2397 0005d2 46B3   bset INTM
    2398 0005d4       $C$L88:    
    2399 0005d4       $C$DW$L$_xQueueGiveFromISR$16$B:
    2400 0005d4 4A7E          B $C$L88  ; |1129| 
    2401                                                      ; branch occurs ; |1129| 
    2402 0005d6       $C$DW$L$_xQueueGiveFromISR$16$E:
    2403 0005d6       $C$L89:    
    2404                      .dwpsn  file "../FreeRTOS/Source/queue.c",line 1147,column 2,is_stmt
    2405 0005d6 E60A          MOV #0, *SP(#5) ; |1147| 
         0005d8 00   
    2406              
    2407              $C$DW$222       .dwtag  DW_TAG_lexical_block, DW_AT_low_pc(0x00), DW_AT_high_pc(0x00)
    2408              $C$DW$223       .dwtag  DW_TAG_variable, DW_AT_name("uxMessagesWaiting")
    2409                      .dwattr $C$DW$223, DW_AT_TI_symbol_name("_uxMessagesWaiting")
    2410                      .dwattr $C$DW$223, DW_AT_type(*$C$DW$T$56)
    2411                      .dwattr $C$DW$223, DW_AT_location[DW_OP_bregx 0x24 8]
    2412                      .dwpsn  file "../FreeRTOS/Source/queue.c",line 1149,column 21,is_stmt
    2413 0005d9 ED0C          MOV dbl(*SP(#6)), XAR3
         0005db BF   
    2414 0005dc A96D          MOV *AR3(#28), AR1 ; |1149| 
         0005de 001C 
    2415 0005e0 C910          MOV AR1, *SP(#8) ; |1149| 
    2416                      .dwpsn  file "../FreeRTOS/Source/queue.c",line 1154,column 3,is_stmt
    2417 0005e2 ED0C          MOV dbl(*SP(#6)), XAR3
         0005e4 BF   
    2418 0005e5 AA10          MOV *SP(#8), AR2 ; |1154| 
    2419 0005e7 A96D          MOV *AR3(#29), AR1 ; |1154| 
         0005e9 001D 
    2420 0005eb 12A8          CMPU AR2 >= AR1, TC1 ; |1154| 
         0005ed 94   
    2421 0005ee 0464          BCC $C$L94,TC1 ; |1154| 
         0005f0 54   
    2422                                                      ; branchcc occurs ; |1154| 
    2423              
    2424              $C$DW$224       .dwtag  DW_TAG_lexical_block, DW_AT_low_pc(0x00), DW_AT_high_pc(0x00)
    2425              $C$DW$225       .dwtag  DW_TAG_variable, DW_AT_name("cTxLock")
    2426                      .dwattr $C$DW$225, DW_AT_TI_symbol_name("_cTxLock")
    2427                      .dwattr $C$DW$225, DW_AT_type(*$C$DW$T$111)
    2428                      .dwattr $C$DW$225, DW_AT_location[DW_OP_bregx 0x24 9]
    2429                      .dwpsn  file "../FreeRTOS/Source/queue.c",line 1156,column 17,is_stmt
    2430 0005f1 A96D          MOV *AR3(#32), AR1 ; |1156| 
         0005f3 0020 
    2431 0005f5 C912          MOV AR1, *SP(#9) ; |1156| 
    2432                      .dwpsn  file "../FreeRTOS/Source/queue.c",line 1166,column 4,is_stmt
    2433 0005f7 ED0C          MOV dbl(*SP(#6)), XAR3
         0005f9 BF   
    2434 0005fa A910          MOV *SP(#8), AR1 ; |1166| 
    2435 0005fc 4019          ADD #1, AR1 ; |1166| 
    2436 0005fe C96D          MOV AR1, *AR3(#28) ; |1166| 
         000600 001C 
    2437                      .dwpsn  file "../FreeRTOS/Source/queue.c",line 1170,column 4,is_stmt
    2438 000602 F012          CMP *SP(#9) == #-1, TC1 ; |1170| 
TMS320C55x Assembler PC v4.4.1 Sat Sep 15 01:52:39 2018

Tools Copyright (c) 1996-2012 Texas Instruments Incorporated
queue.asm                                                            PAGE   51

         000604 FFFF 
    2439 000606 0474          BCC $C$L92,!TC1 ; |1170| 
         000608 2C   
    2440                                                      ; branchcc occurs ; |1170| 
    2441                      .dwpsn  file "../FreeRTOS/Source/queue.c",line 1225,column 6,is_stmt
    2442 000609 ED0C          MOV dbl(*SP(#6)), XAR3
         00060b BF   
    2443 00060c A96D          MOV *AR3(#18), AR1 ; |1225| 
         00060e 0012 
    2444 000610 6219          BCC $C$L90,AR1 != #0 ; |1225| 
    2445                                                      ; branchcc occurs ; |1225| 
    2446 000612 3C19          MOV #1, AR1
    2447 000614 4A02          B $C$L91  ; |1225| 
    2448                                                      ; branch occurs ; |1225| 
    2449 000616       $C$L90:    
    2450 000616 3C09          MOV #0, AR1
    2451 000618       $C$L91:    
    2452 000618 0419          BCC $C$L93,AR1 != #0 ; |1225| 
         00061a 25   
    2453                                                      ; branchcc occurs ; |1225| 
    2454                      .dwpsn  file "../FreeRTOS/Source/queue.c",line 1227,column 7,is_stmt
    2455 00061b ED0C          MOV dbl(*SP(#6)), XAR0
         00061d 8F   
    2456 00061e 1412          AADD #18, AR0 ; |1227| 
         000620 84   
    2457              $C$DW$226       .dwtag  DW_TAG_TI_branch
    2458                      .dwattr $C$DW$226, DW_AT_low_pc(0x00)
    2459                      .dwattr $C$DW$226, DW_AT_name("_xTaskRemoveFromEventList")
    2460                      .dwattr $C$DW$226, DW_AT_TI_call
    2461 000621 6C00          CALL #_xTaskRemoveFromEventList ; |1227| 
         000623 0000!
    2462                                                      ; call occurs [#_xTaskRemoveFromEventList] ; |1227| 
    2463 000625 0404          BCC $C$L93,T0 == #0 ; |1227| 
         000627 18   
    2464                                                      ; branchcc occurs ; |1227| 
    2465                      .dwpsn  file "../FreeRTOS/Source/queue.c",line 1231,column 8,is_stmt
    2466 000628 ED04          MOV dbl(*SP(#2)), XAR3
         00062a BF   
    2467 00062b 90B0          MOV XAR3, AC0
    2468 00062d 0400          BCC $C$L93,AC0 == #0 ; |1231| 
         00062f 10   
    2469                                                      ; branchcc occurs ; |1231| 
    2470                      .dwpsn  file "../FreeRTOS/Source/queue.c",line 1233,column 9,is_stmt
    2471 000630 E661          MOV #1, *AR3 ; |1233| 
         000632 01   
    2472                      .dwpsn  file "../FreeRTOS/Source/queue.c",line 1234,column 8,is_stmt
    2473 000633 4A0B          B $C$L93  ; |1234| 
    2474                                                      ; branch occurs ; |1234| 
    2475 000635       $C$L92:    
    2476                      .dwpsn  file "../FreeRTOS/Source/queue.c",line 1256,column 5,is_stmt
    2477 000635 ED0C          MOV dbl(*SP(#6)), XAR3
         000637 BF   
    2478 000638 A912          MOV *SP(#9), AR1 ; |1256| 
    2479 00063a 4019          ADD #1, AR1 ; |1256| 
    2480 00063c C96D          MOV AR1, *AR3(#32) ; |1256| 
TMS320C55x Assembler PC v4.4.1 Sat Sep 15 01:52:39 2018

Tools Copyright (c) 1996-2012 Texas Instruments Incorporated
queue.asm                                                            PAGE   52

         00063e 0020 
    2481 000640       $C$L93:    
    2482                      .dwpsn  file "../FreeRTOS/Source/queue.c",line 1259,column 4,is_stmt
    2483 000640 E608          MOV #1, *SP(#4) ; |1259| 
         000642 01   
    2484                      .dwendtag $C$DW$224
    2485              
    2486                      .dwpsn  file "../FreeRTOS/Source/queue.c",line 1260,column 3,is_stmt
    2487 000643 4A03          B $C$L95  ; |1260| 
    2488                                                      ; branch occurs ; |1260| 
    2489 000645       $C$L94:    
    2490                      .dwpsn  file "../FreeRTOS/Source/queue.c",line 1264,column 4,is_stmt
    2491 000645 E608          MOV #0, *SP(#4) ; |1264| 
         000647 00   
    2492              $C$L95:    
    2493                      .dwendtag $C$DW$222
    2494              
    2495                      .dwpsn  file "../FreeRTOS/Source/queue.c",line 1267,column 2,is_stmt
    2496                      .dwpsn  file "../FreeRTOS/Source/queue.c",line 1269,column 2,is_stmt
    2497 000648 A408          MOV *SP(#4), T0 ; |1269| 
    2498                      .dwpsn  file "../FreeRTOS/Source/queue.c",line 1270,column 1,is_stmt
    2499 00064a 4E0B          AADD #11, SP
    2500                      .dwcfi  cfa_offset, 1
    2501              $C$DW$227       .dwtag  DW_TAG_TI_branch
    2502                      .dwattr $C$DW$227, DW_AT_low_pc(0x00)
    2503                      .dwattr $C$DW$227, DW_AT_TI_return
    2504 00064c 4804          RET
    2505                                                      ; return occurs
    2506              
    2507              $C$DW$228       .dwtag  DW_TAG_TI_loop
    2508                      .dwattr $C$DW$228, DW_AT_name("F:\eZdsp_DBG\eZDSP_5535_Files\ccsws2\test\Debug\queue.asm:$C$L88:1:153
    2509                      .dwattr $C$DW$228, DW_AT_TI_begin_file("../FreeRTOS/Source/queue.c")
    2510                      .dwattr $C$DW$228, DW_AT_TI_begin_line(0x469)
    2511                      .dwattr $C$DW$228, DW_AT_TI_end_line(0x469)
    2512              $C$DW$229       .dwtag  DW_TAG_TI_loop_range
    2513                      .dwattr $C$DW$229, DW_AT_low_pc($C$DW$L$_xQueueGiveFromISR$16$B)
    2514                      .dwattr $C$DW$229, DW_AT_high_pc($C$DW$L$_xQueueGiveFromISR$16$E)
    2515                      .dwendtag $C$DW$228
    2516              
    2517              
    2518              $C$DW$230       .dwtag  DW_TAG_TI_loop
    2519                      .dwattr $C$DW$230, DW_AT_name("F:\eZdsp_DBG\eZDSP_5535_Files\ccsws2\test\Debug\queue.asm:$C$L84:1:153
    2520                      .dwattr $C$DW$230, DW_AT_TI_begin_file("../FreeRTOS/Source/queue.c")
    2521                      .dwattr $C$DW$230, DW_AT_TI_begin_line(0x464)
    2522                      .dwattr $C$DW$230, DW_AT_TI_end_line(0x464)
    2523              $C$DW$231       .dwtag  DW_TAG_TI_loop_range
    2524                      .dwattr $C$DW$231, DW_AT_low_pc($C$DW$L$_xQueueGiveFromISR$8$B)
    2525                      .dwattr $C$DW$231, DW_AT_high_pc($C$DW$L$_xQueueGiveFromISR$8$E)
    2526                      .dwendtag $C$DW$230
    2527              
    2528              
    2529              $C$DW$232       .dwtag  DW_TAG_TI_loop
    2530                      .dwattr $C$DW$232, DW_AT_name("F:\eZdsp_DBG\eZDSP_5535_Files\ccsws2\test\Debug\queue.asm:$C$L81:1:153
    2531                      .dwattr $C$DW$232, DW_AT_TI_begin_file("../FreeRTOS/Source/queue.c")
    2532                      .dwattr $C$DW$232, DW_AT_TI_begin_line(0x460)
TMS320C55x Assembler PC v4.4.1 Sat Sep 15 01:52:39 2018

Tools Copyright (c) 1996-2012 Texas Instruments Incorporated
queue.asm                                                            PAGE   53

    2533                      .dwattr $C$DW$232, DW_AT_TI_end_line(0x460)
    2534              $C$DW$233       .dwtag  DW_TAG_TI_loop_range
    2535                      .dwattr $C$DW$233, DW_AT_low_pc($C$DW$L$_xQueueGiveFromISR$3$B)
    2536                      .dwattr $C$DW$233, DW_AT_high_pc($C$DW$L$_xQueueGiveFromISR$3$E)
    2537                      .dwendtag $C$DW$232
    2538              
    2539                      .dwattr $C$DW$214, DW_AT_TI_end_file("../FreeRTOS/Source/queue.c")
    2540                      .dwattr $C$DW$214, DW_AT_TI_end_line(0x4f6)
    2541                      .dwattr $C$DW$214, DW_AT_TI_end_column(0x01)
    2542                      .dwendentry
    2543                      .dwendtag $C$DW$214
    2544              
    2545 00064e               .sect   ".text"
    2546                      .align 4
    2547                      .global _xQueueReceive
    2548              
    2549              $C$DW$234       .dwtag  DW_TAG_subprogram, DW_AT_name("xQueueReceive")
    2550                      .dwattr $C$DW$234, DW_AT_low_pc(_xQueueReceive)
    2551                      .dwattr $C$DW$234, DW_AT_high_pc(0x00)
    2552                      .dwattr $C$DW$234, DW_AT_TI_symbol_name("_xQueueReceive")
    2553                      .dwattr $C$DW$234, DW_AT_external
    2554                      .dwattr $C$DW$234, DW_AT_type(*$C$DW$T$49)
    2555                      .dwattr $C$DW$234, DW_AT_TI_begin_file("../FreeRTOS/Source/queue.c")
    2556                      .dwattr $C$DW$234, DW_AT_TI_begin_line(0x4f9)
    2557                      .dwattr $C$DW$234, DW_AT_TI_begin_column(0x0c)
    2558                      .dwattr $C$DW$234, DW_AT_TI_max_frame_size(0x12)
    2559                      .dwpsn  file "../FreeRTOS/Source/queue.c",line 1274,column 1,is_stmt,address _xQueueReceive
    2560              
    2561                      .dwfde $C$DW$CIE, _xQueueReceive
    2562              $C$DW$235       .dwtag  DW_TAG_formal_parameter, DW_AT_name("xQueue")
    2563                      .dwattr $C$DW$235, DW_AT_TI_symbol_name("_xQueue")
    2564                      .dwattr $C$DW$235, DW_AT_type(*$C$DW$T$27)
    2565                      .dwattr $C$DW$235, DW_AT_location[DW_OP_reg17]
    2566              $C$DW$236       .dwtag  DW_TAG_formal_parameter, DW_AT_name("pvBuffer")
    2567                      .dwattr $C$DW$236, DW_AT_TI_symbol_name("_pvBuffer")
    2568                      .dwattr $C$DW$236, DW_AT_type(*$C$DW$T$76)
    2569                      .dwattr $C$DW$236, DW_AT_location[DW_OP_reg19]
    2570              $C$DW$237       .dwtag  DW_TAG_formal_parameter, DW_AT_name("xTicksToWait")
    2571                      .dwattr $C$DW$237, DW_AT_TI_symbol_name("_xTicksToWait")
    2572                      .dwattr $C$DW$237, DW_AT_type(*$C$DW$T$44)
    2573                      .dwattr $C$DW$237, DW_AT_location[DW_OP_reg0]
    2574              ;*******************************************************************************
    2575              ;* FUNCTION NAME: xQueueReceive                                                *
    2576              ;*                                                                             *
    2577              ;*   Function Uses Regs : AC0,AC0,T0,T2,T3,AR0,XAR0,AR1,XAR1,AR2,AR3,XAR3,SP,  *
    2578              ;*                        CARRY,TC1,M40,SATA,SATD,RDM,FRCT,SMUL                *
    2579              ;*   Save On Entry Regs : T2,T3                                                *
    2580              ;*   Stack Frame        : Compact (No Frame Pointer, w/ debug)                 *
    2581              ;*   Total Frame Size   : 18 words                                             *
    2582              ;*                        (1 return address/alignment)                         *
    2583              ;*                        (15 local values)                                    *
    2584              ;*                        (2 register save area)                               *
    2585              ;*   Min System Stack   : 1 word                                               *
    2586              ;*******************************************************************************
    2587 000650       _xQueueReceive:
TMS320C55x Assembler PC v4.4.1 Sat Sep 15 01:52:39 2018

Tools Copyright (c) 1996-2012 Texas Instruments Incorporated
queue.asm                                                            PAGE   54

    2588                      .dwcfi  cfa_offset, 1
    2589                      .dwcfi  save_reg_to_mem, 91, -1
    2590 000650 5066          PSH T2
    2591                      .dwcfi  cfa_offset, 2
    2592                      .dwcfi  save_reg_to_mem, 14, -2
    2593 000652 5076          PSH T3
    2594                      .dwcfi  cfa_offset, 3
    2595                      .dwcfi  save_reg_to_mem, 15, -3
    2596 000654 4EF1          AADD #-15, SP
    2597                      .dwcfi  cfa_offset, 18
    2598              $C$DW$238       .dwtag  DW_TAG_variable, DW_AT_name("xQueue")
    2599                      .dwattr $C$DW$238, DW_AT_TI_symbol_name("_xQueue")
    2600                      .dwattr $C$DW$238, DW_AT_type(*$C$DW$T$27)
    2601                      .dwattr $C$DW$238, DW_AT_location[DW_OP_bregx 0x24 0]
    2602              $C$DW$239       .dwtag  DW_TAG_variable, DW_AT_name("pvBuffer")
    2603                      .dwattr $C$DW$239, DW_AT_TI_symbol_name("_pvBuffer")
    2604                      .dwattr $C$DW$239, DW_AT_type(*$C$DW$T$76)
    2605                      .dwattr $C$DW$239, DW_AT_location[DW_OP_bregx 0x24 2]
    2606              $C$DW$240       .dwtag  DW_TAG_variable, DW_AT_name("xTicksToWait")
    2607                      .dwattr $C$DW$240, DW_AT_TI_symbol_name("_xTicksToWait")
    2608                      .dwattr $C$DW$240, DW_AT_type(*$C$DW$T$44)
    2609                      .dwattr $C$DW$240, DW_AT_location[DW_OP_bregx 0x24 4]
    2610              $C$DW$241       .dwtag  DW_TAG_variable, DW_AT_name("xEntryTimeSet")
    2611                      .dwattr $C$DW$241, DW_AT_TI_symbol_name("_xEntryTimeSet")
    2612                      .dwattr $C$DW$241, DW_AT_type(*$C$DW$T$49)
    2613                      .dwattr $C$DW$241, DW_AT_location[DW_OP_bregx 0x24 6]
    2614              $C$DW$242       .dwtag  DW_TAG_variable, DW_AT_name("xTimeOut")
    2615                      .dwattr $C$DW$242, DW_AT_TI_symbol_name("_xTimeOut")
    2616                      .dwattr $C$DW$242, DW_AT_type(*$C$DW$T$92)
    2617                      .dwattr $C$DW$242, DW_AT_location[DW_OP_bregx 0x24 8]
    2618              $C$DW$243       .dwtag  DW_TAG_variable, DW_AT_name("pxQueue")
    2619                      .dwattr $C$DW$243, DW_AT_TI_symbol_name("_pxQueue")
    2620                      .dwattr $C$DW$243, DW_AT_type(*$C$DW$T$69)
    2621                      .dwattr $C$DW$243, DW_AT_location[DW_OP_bregx 0x24 12]
    2622 000656 EB08          MOV AC0, dbl(*SP(#4)) ; |1274| 
         000658 08   
    2623 000659 EB04          MOV XAR1, dbl(*SP(#2))
         00065b 95   
    2624 00065c EB00          MOV XAR0, dbl(*SP(#0))
         00065e 85   
    2625                      .dwpsn  file "../FreeRTOS/Source/queue.c",line 1275,column 12,is_stmt
    2626 00065f E60C          MOV #0, *SP(#6) ; |1275| 
         000661 00   
    2627                      .dwpsn  file "../FreeRTOS/Source/queue.c",line 1277,column 17,is_stmt
    2628 000662 ED00          MOV dbl(*SP(#0)), XAR3
         000664 BF   
    2629 000665 EB18          MOV XAR3, dbl(*SP(#12))
         000667 B5   
    2630                      .dwpsn  file "../FreeRTOS/Source/queue.c",line 1280,column 2,is_stmt
    2631 000668 90B0          MOV XAR3, AC0
    2632 00066a 6290          BCC $C$L97,AC0 != #0 ; |1280| 
    2633                                                      ; branchcc occurs ; |1280| 
    2634 00066c 20     nop
    2635 00066d 46B3   bset INTM
    2636 00066f       $C$L96:    
TMS320C55x Assembler PC v4.4.1 Sat Sep 15 01:52:39 2018

Tools Copyright (c) 1996-2012 Texas Instruments Incorporated
queue.asm                                                            PAGE   55

    2637 00066f       $C$DW$L$_xQueueReceive$3$B:
    2638 00066f 4A7E          B $C$L96  ; |1280| 
    2639                                                      ; branch occurs ; |1280| 
    2640 000671       $C$DW$L$_xQueueReceive$3$E:
    2641 000671       $C$L97:    
    2642                      .dwpsn  file "../FreeRTOS/Source/queue.c",line 1284,column 2,is_stmt
    2643 000671 ED04          MOV dbl(*SP(#2)), XAR3
         000673 BF   
    2644 000674 90B0          MOV XAR3, AC0
    2645 000676 3C0A          MOV #0, AR2
    2646              
    2647 000678 6590          BCC $C$L98,AC0 != #0 ; |1284| 
    2648 00067a 3D09  ||      MOV #0, AR1
    2649              
    2650                                                      ; branchcc occurs ; |1284| 
    2651 00067c ED18          MOV dbl(*SP(#12)), XAR3
         00067e BF   
    2652 00067f AB6D          MOV *AR3(#30), AR3 ; |1284| 
         000681 001E 
    2653 000683 610B          BCC $C$L98,AR3 == #0 ; |1284| 
    2654                                                      ; branchcc occurs ; |1284| 
    2655 000685 3C1A          MOV #1, AR2
    2656 000687       $C$L98:    
    2657 000687 611A          BCC $C$L99,AR2 != #0 ; |1284| 
    2658                                                      ; branchcc occurs ; |1284| 
    2659 000689 3C19          MOV #1, AR1
    2660 00068b       $C$L99:    
    2661 00068b 6299          BCC $C$L101,AR1 != #0 ; |1284| 
    2662                                                      ; branchcc occurs ; |1284| 
    2663 00068d 20     nop
    2664 00068e 46B3   bset INTM
    2665 000690       $C$L100:    
    2666 000690       $C$DW$L$_xQueueReceive$11$B:
    2667 000690 4A7E          B $C$L100 ; |1284| 
    2668                                                      ; branch occurs ; |1284| 
    2669 000692       $C$DW$L$_xQueueReceive$11$E:
    2670 000692       $C$L101:    
    2671                      .dwpsn  file "../FreeRTOS/Source/queue.c",line 1289,column 3,is_stmt
    2672              $C$DW$244       .dwtag  DW_TAG_TI_branch
    2673                      .dwattr $C$DW$244, DW_AT_low_pc(0x00)
    2674                      .dwattr $C$DW$244, DW_AT_name("_xTaskGetSchedulerState")
    2675                      .dwattr $C$DW$244, DW_AT_TI_call
    2676 000692 6C00          CALL #_xTaskGetSchedulerState ; |1289| 
         000694 0000!
    2677                                                      ; call occurs [#_xTaskGetSchedulerState] ; |1289| 
    2678 000696 3C07          MOV #0, T3
    2679              
    2680 000698 6394          BCC $C$L102,T0 != #0 ; |1289| 
    2681 00069a 3D06  ||      MOV #0, T2
    2682              
    2683                                                      ; branchcc occurs ; |1289| 
    2684 00069c ED08          MOV dbl(*SP(#4)), AC0 ; |1289| 
         00069e 08   
    2685 00069f 6100          BCC $C$L102,AC0 == #0 ; |1289| 
    2686                                                      ; branchcc occurs ; |1289| 
TMS320C55x Assembler PC v4.4.1 Sat Sep 15 01:52:39 2018

Tools Copyright (c) 1996-2012 Texas Instruments Incorporated
queue.asm                                                            PAGE   56

    2687 0006a1 3C17          MOV #1, T3
    2688 0006a3       $C$L102:    
    2689 0006a3 6117          BCC $C$L103,T3 != #0 ; |1289| 
    2690                                                      ; branchcc occurs ; |1289| 
    2691 0006a5 3C16          MOV #1, T2
    2692 0006a7       $C$L103:    
    2693 0006a7 6296          BCC $C$L105,T2 != #0 ; |1289| 
    2694                                                      ; branchcc occurs ; |1289| 
    2695 0006a9 20     nop
    2696 0006aa 46B3   bset INTM
    2697 0006ac       $C$L104:    
    2698 0006ac       $C$DW$L$_xQueueReceive$19$B:
    2699 0006ac 4A7E          B $C$L104 ; |1289| 
    2700                                                      ; branch occurs ; |1289| 
    2701 0006ae       $C$DW$L$_xQueueReceive$19$E:
    2702 0006ae       $C$L105:    
    2703 0006ae       $C$DW$L$_xQueueReceive$20$B:
    2704                      .dwpsn  file "../FreeRTOS/Source/queue.c",line 1299,column 3,is_stmt
    2705 0006ae 20     nop
    2706 0006af 46B3   bset INTM
    2707 0006b1 F731          ADD #1, *(#_usCriticalNesting) ; |1299| 
         0006b3 0001 
         0006b5 0000 
         0006b7 00!  
    2708 0006b8 20            NOP
    2709 0006b9 20            NOP
    2710              
    2711              $C$DW$245       .dwtag  DW_TAG_lexical_block, DW_AT_low_pc(0x00), DW_AT_high_pc(0x00)
    2712              $C$DW$246       .dwtag  DW_TAG_variable, DW_AT_name("uxMessagesWaiting")
    2713                      .dwattr $C$DW$246, DW_AT_TI_symbol_name("_uxMessagesWaiting")
    2714                      .dwattr $C$DW$246, DW_AT_type(*$C$DW$T$56)
    2715                      .dwattr $C$DW$246, DW_AT_location[DW_OP_bregx 0x24 14]
    2716                      .dwpsn  file "../FreeRTOS/Source/queue.c",line 1301,column 22,is_stmt
    2717 0006ba ED18          MOV dbl(*SP(#12)), XAR3
         0006bc BF   
    2718 0006bd A96D          MOV *AR3(#28), AR1 ; |1301| 
         0006bf 001C 
    2719 0006c1 C91C          MOV AR1, *SP(#14) ; |1301| 
    2720                      .dwpsn  file "../FreeRTOS/Source/queue.c",line 1305,column 4,is_stmt
    2721 0006c3 0409          BCC $C$L110,AR1 == #0 ; |1305| 
         0006c5 5B   
    2722                                                      ; branchcc occurs ; |1305| 
    2723 0006c6       $C$DW$L$_xQueueReceive$20$E:
    2724                      .dwpsn  file "../FreeRTOS/Source/queue.c",line 1308,column 5,is_stmt
    2725 0006c6 ED18          MOV dbl(*SP(#12)), XAR0
         0006c8 8F   
    2726 0006c9 ED04          MOV dbl(*SP(#2)), XAR1
         0006cb 9F   
    2727              $C$DW$247       .dwtag  DW_TAG_TI_branch
    2728                      .dwattr $C$DW$247, DW_AT_low_pc(0x00)
    2729                      .dwattr $C$DW$247, DW_AT_name("_prvCopyDataFromQueue")
    2730                      .dwattr $C$DW$247, DW_AT_TI_call
    2731 0006cc 0808          CALL #_prvCopyDataFromQueue ; |1308| 
         0006ce B1   
    2732                                                      ; call occurs [#_prvCopyDataFromQueue] ; |1308| 
TMS320C55x Assembler PC v4.4.1 Sat Sep 15 01:52:39 2018

Tools Copyright (c) 1996-2012 Texas Instruments Incorporated
queue.asm                                                            PAGE   57

    2733                      .dwpsn  file "../FreeRTOS/Source/queue.c",line 1310,column 5,is_stmt
    2734 0006cf ED18          MOV dbl(*SP(#12)), XAR3
         0006d1 BF   
    2735 0006d2 A91C          MOV *SP(#14), AR1 ; |1310| 
    2736 0006d4 4219          SUB #1, AR1 ; |1310| 
    2737 0006d6 C96D          MOV AR1, *AR3(#28) ; |1310| 
         0006d8 001C 
    2738 0006da 20            NOP
    2739 0006db 20            NOP
    2740                      .dwpsn  file "../FreeRTOS/Source/queue.c",line 1315,column 5,is_stmt
    2741 0006dc ED18          MOV dbl(*SP(#12)), XAR3
         0006de BF   
    2742 0006df A96D          MOV *AR3(#8), AR1 ; |1315| 
         0006e1 0008 
    2743 0006e3 6219          BCC $C$L106,AR1 != #0 ; |1315| 
    2744                                                      ; branchcc occurs ; |1315| 
    2745 0006e5 3C19          MOV #1, AR1
    2746 0006e7 4A02          B $C$L107 ; |1315| 
    2747                                                      ; branch occurs ; |1315| 
    2748 0006e9       $C$L106:    
    2749 0006e9 3C09          MOV #0, AR1
    2750 0006eb       $C$L107:    
    2751 0006eb 0419          BCC $C$L108,AR1 != #0 ; |1315| 
         0006ed 12   
    2752                                                      ; branchcc occurs ; |1315| 
    2753                      .dwpsn  file "../FreeRTOS/Source/queue.c",line 1317,column 6,is_stmt
    2754 0006ee ED18          MOV dbl(*SP(#12)), XAR0
         0006f0 8F   
    2755 0006f1 1408          AADD #8, AR0 ; |1317| 
         0006f3 84   
    2756              $C$DW$248       .dwtag  DW_TAG_TI_branch
    2757                      .dwattr $C$DW$248, DW_AT_low_pc(0x00)
    2758                      .dwattr $C$DW$248, DW_AT_name("_xTaskRemoveFromEventList")
    2759                      .dwattr $C$DW$248, DW_AT_TI_call
    2760 0006f4 6C00          CALL #_xTaskRemoveFromEventList ; |1317| 
         0006f6 0000!
    2761                                                      ; call occurs [#_xTaskRemoveFromEventList] ; |1317| 
    2762 0006f8 6304          BCC $C$L108,T0 == #0 ; |1317| 
    2763                                                      ; branchcc occurs ; |1317| 
    2764                      .dwpsn  file "../FreeRTOS/Source/queue.c",line 1319,column 7,is_stmt
    2765              $C$DW$249       .dwtag  DW_TAG_TI_branch
    2766                      .dwattr $C$DW$249, DW_AT_low_pc(0x00)
    2767                      .dwattr $C$DW$249, DW_AT_name("_vPortYield")
    2768                      .dwattr $C$DW$249, DW_AT_TI_call
    2769 0006fa 6C00          CALL #_vPortYield ; |1319| 
         0006fc 0000!
    2770                                                      ; call occurs [#_vPortYield] ; |1319| 
    2771                      .dwpsn  file "../FreeRTOS/Source/queue.c",line 1320,column 6,is_stmt
    2772 0006fe 4A00          B $C$L108 ; |1320| 
    2773                                                      ; branch occurs ; |1320| 
    2774 000700       $C$L108:    
    2775                      .dwpsn  file "../FreeRTOS/Source/queue.c",line 1331,column 5,is_stmt
    2776 000700 A931          MOV *(#_usCriticalNesting), AR1 ; |1331| 
         000702 0000 
         000704 00!  
TMS320C55x Assembler PC v4.4.1 Sat Sep 15 01:52:39 2018

Tools Copyright (c) 1996-2012 Texas Instruments Incorporated
queue.asm                                                            PAGE   58

    2777 000705 0409          BCC $C$L109,AR1 == #0 ; |1331| 
         000707 14   
    2778                                                      ; branchcc occurs ; |1331| 
    2779 000708 F731          SUB #1, *(#_usCriticalNesting) ; |1331| 
         00070a FFFF 
         00070c 0000 
         00070e 00!  
    2780 00070f 20            NOP
    2781 000710 20            NOP
    2782 000711 20            NOP
    2783 000712 A931          MOV *(#_usCriticalNesting), AR1 ; |1331| 
         000714 0000 
         000716 00!  
    2784 000717 6199          BCC $C$L109,AR1 != #0 ; |1331| 
    2785                                                      ; branchcc occurs ; |1331| 
    2786 000719 20     nop
    2787 00071a 46B2   bclr INTM
    2788 00071c       $C$L109:    
    2789                      .dwpsn  file "../FreeRTOS/Source/queue.c",line 1332,column 5,is_stmt
    2790              
    2791 00071c 0600          B $C$L120 ; |1332| 
         00071e FA   
    2792 00071f 3D14  ||      MOV #1, T0
    2793              
    2794                                                      ; branch occurs ; |1332| 
    2795 000721       $C$L110:    
    2796 000721       $C$DW$L$_xQueueReceive$33$B:
    2797                      .dwpsn  file "../FreeRTOS/Source/queue.c",line 1336,column 5,is_stmt
    2798 000721 ED08          MOV dbl(*SP(#4)), AC0 ; |1336| 
         000723 08   
    2799 000724 0410          BCC $C$L112,AC0 != #0 ; |1336| 
         000726 21   
    2800                                                      ; branchcc occurs ; |1336| 
    2801 000727       $C$DW$L$_xQueueReceive$33$E:
    2802                      .dwpsn  file "../FreeRTOS/Source/queue.c",line 1340,column 6,is_stmt
    2803 000727 A931          MOV *(#_usCriticalNesting), AR1 ; |1340| 
         000729 0000 
         00072b 00!  
    2804 00072c 0409          BCC $C$L111,AR1 == #0 ; |1340| 
         00072e 14   
    2805                                                      ; branchcc occurs ; |1340| 
    2806 00072f F731          SUB #1, *(#_usCriticalNesting) ; |1340| 
         000731 FFFF 
         000733 0000 
         000735 00!  
    2807 000736 20            NOP
    2808 000737 20            NOP
    2809 000738 20            NOP
    2810 000739 A931          MOV *(#_usCriticalNesting), AR1 ; |1340| 
         00073b 0000 
         00073d 00!  
    2811 00073e 6199          BCC $C$L111,AR1 != #0 ; |1340| 
    2812                                                      ; branchcc occurs ; |1340| 
    2813 000740 20     nop
    2814 000741 46B2   bclr INTM
TMS320C55x Assembler PC v4.4.1 Sat Sep 15 01:52:39 2018

Tools Copyright (c) 1996-2012 Texas Instruments Incorporated
queue.asm                                                            PAGE   59

    2815 000743       $C$L111:    
    2816                      .dwpsn  file "../FreeRTOS/Source/queue.c",line 1342,column 6,is_stmt
    2817              
    2818 000743 0600          B $C$L120 ; |1342| 
         000745 D3   
    2819 000746 3D04  ||      MOV #0, T0
    2820              
    2821                                                      ; branch occurs ; |1342| 
    2822 000748       $C$L112:    
    2823 000748       $C$DW$L$_xQueueReceive$39$B:
    2824                      .dwpsn  file "../FreeRTOS/Source/queue.c",line 1344,column 10,is_stmt
    2825 000748 A90C          MOV *SP(#6), AR1 ; |1344| 
    2826 00074a 6519          BCC $C$L113,AR1 != #0 ; |1344| 
    2827                                                      ; branchcc occurs ; |1344| 
    2828 00074c       $C$DW$L$_xQueueReceive$39$E:
    2829 00074c       $C$DW$L$_xQueueReceive$40$B:
    2830                      .dwpsn  file "../FreeRTOS/Source/queue.c",line 1348,column 6,is_stmt
    2831 00074c EC10          AMAR *SP(#8), XAR0
         00074e 8E   
    2832              $C$DW$250       .dwtag  DW_TAG_TI_branch
    2833                      .dwattr $C$DW$250, DW_AT_low_pc(0x00)
    2834                      .dwattr $C$DW$250, DW_AT_name("_vTaskInternalSetTimeOutState")
    2835                      .dwattr $C$DW$250, DW_AT_TI_call
    2836 00074f 6C00          CALL #_vTaskInternalSetTimeOutState ; |1348| 
         000751 0000!
    2837                                                      ; call occurs [#_vTaskInternalSetTimeOutState] ; |1348| 
    2838                      .dwpsn  file "../FreeRTOS/Source/queue.c",line 1349,column 6,is_stmt
    2839 000753 E60C          MOV #1, *SP(#6) ; |1349| 
         000755 01   
    2840                      .dwpsn  file "../FreeRTOS/Source/queue.c",line 1350,column 5,is_stmt
    2841              $C$DW$L$_xQueueReceive$40$E:
    2842              $C$L113:    
    2843              $C$DW$L$_xQueueReceive$41$B:
    2844                      .dwendtag $C$DW$245
    2845              
    2846                      .dwpsn  file "../FreeRTOS/Source/queue.c",line 1358,column 3,is_stmt
    2847 000756 A931          MOV *(#_usCriticalNesting), AR1 ; |1358| 
         000758 0000 
         00075a 00!  
    2848 00075b 0409          BCC $C$L114,AR1 == #0 ; |1358| 
         00075d 14   
    2849                                                      ; branchcc occurs ; |1358| 
    2850 00075e       $C$DW$L$_xQueueReceive$41$E:
    2851 00075e       $C$DW$L$_xQueueReceive$42$B:
    2852 00075e F731          SUB #1, *(#_usCriticalNesting) ; |1358| 
         000760 FFFF 
         000762 0000 
         000764 00!  
    2853 000765 20            NOP
    2854 000766 20            NOP
    2855 000767 20            NOP
    2856 000768 A931          MOV *(#_usCriticalNesting), AR1 ; |1358| 
         00076a 0000 
         00076c 00!  
    2857 00076d 6199          BCC $C$L114,AR1 != #0 ; |1358| 
TMS320C55x Assembler PC v4.4.1 Sat Sep 15 01:52:39 2018

Tools Copyright (c) 1996-2012 Texas Instruments Incorporated
queue.asm                                                            PAGE   60

    2858                                                      ; branchcc occurs ; |1358| 
    2859 00076f       $C$DW$L$_xQueueReceive$42$E:
    2860 00076f       $C$DW$L$_xQueueReceive$43$B:
    2861 00076f 20     nop
    2862 000770 46B2   bclr INTM
    2863 000772       $C$DW$L$_xQueueReceive$43$E:
    2864 000772       $C$L114:    
    2865 000772       $C$DW$L$_xQueueReceive$44$B:
    2866                      .dwpsn  file "../FreeRTOS/Source/queue.c",line 1363,column 3,is_stmt
    2867              $C$DW$251       .dwtag  DW_TAG_TI_branch
    2868                      .dwattr $C$DW$251, DW_AT_low_pc(0x00)
    2869                      .dwattr $C$DW$251, DW_AT_name("_vTaskSuspendAll")
    2870                      .dwattr $C$DW$251, DW_AT_TI_call
    2871 000772 6C00          CALL #_vTaskSuspendAll ; |1363| 
         000774 0000!
    2872                                                      ; call occurs [#_vTaskSuspendAll] ; |1363| 
    2873                      .dwpsn  file "../FreeRTOS/Source/queue.c",line 1364,column 3,is_stmt
    2874 000776 20     nop
    2875 000777 46B3   bset INTM
    2876 000779 F731          ADD #1, *(#_usCriticalNesting) ; |1364| 
         00077b 0001 
         00077d 0000 
         00077f 00!  
    2877 000780 20            NOP
    2878 000781 20            NOP
    2879 000782 ED18          MOV dbl(*SP(#12)), XAR3
         000784 BF   
    2880 000785 F06D          CMP *AR3(#31) == #-1, TC1 ; |1364| 
         000787 FFFF 
         000789 001F 
    2881 00078b 62F4          BCC $C$L115,!TC1 ; |1364| 
    2882                                                      ; branchcc occurs ; |1364| 
    2883 00078d       $C$DW$L$_xQueueReceive$44$E:
    2884 00078d       $C$DW$L$_xQueueReceive$45$B:
    2885 00078d E66D          MOV #0, *AR3(#31) ; |1364| 
         00078f 0000 
         000791 1F   
    2886 000792       $C$DW$L$_xQueueReceive$45$E:
    2887 000792       $C$L115:    
    2888 000792       $C$DW$L$_xQueueReceive$46$B:
    2889 000792 ED18          MOV dbl(*SP(#12)), XAR3
         000794 BF   
    2890 000795 F06D          CMP *AR3(#32) == #-1, TC1 ; |1364| 
         000797 FFFF 
         000799 0020 
    2891 00079b 62F4          BCC $C$L116,!TC1 ; |1364| 
    2892                                                      ; branchcc occurs ; |1364| 
    2893 00079d       $C$DW$L$_xQueueReceive$46$E:
    2894 00079d       $C$DW$L$_xQueueReceive$47$B:
    2895 00079d E66D          MOV #0, *AR3(#32) ; |1364| 
         00079f 0000 
         0007a1 20   
    2896 0007a2       $C$DW$L$_xQueueReceive$47$E:
    2897 0007a2       $C$L116:    
    2898 0007a2       $C$DW$L$_xQueueReceive$48$B:
TMS320C55x Assembler PC v4.4.1 Sat Sep 15 01:52:39 2018

Tools Copyright (c) 1996-2012 Texas Instruments Incorporated
queue.asm                                                            PAGE   61

    2899 0007a2 A931          MOV *(#_usCriticalNesting), AR1 ; |1364| 
         0007a4 0000 
         0007a6 00!  
    2900 0007a7 0409          BCC $C$L117,AR1 == #0 ; |1364| 
         0007a9 14   
    2901                                                      ; branchcc occurs ; |1364| 
    2902 0007aa       $C$DW$L$_xQueueReceive$48$E:
    2903 0007aa       $C$DW$L$_xQueueReceive$49$B:
    2904 0007aa F731          SUB #1, *(#_usCriticalNesting) ; |1364| 
         0007ac FFFF 
         0007ae 0000 
         0007b0 00!  
    2905 0007b1 20            NOP
    2906 0007b2 20            NOP
    2907 0007b3 20            NOP
    2908 0007b4 A931          MOV *(#_usCriticalNesting), AR1 ; |1364| 
         0007b6 0000 
         0007b8 00!  
    2909 0007b9 6199          BCC $C$L117,AR1 != #0 ; |1364| 
    2910                                                      ; branchcc occurs ; |1364| 
    2911 0007bb       $C$DW$L$_xQueueReceive$49$E:
    2912 0007bb       $C$DW$L$_xQueueReceive$50$B:
    2913 0007bb 20     nop
    2914 0007bc 46B2   bclr INTM
    2915 0007be       $C$DW$L$_xQueueReceive$50$E:
    2916 0007be       $C$L117:    
    2917 0007be       $C$DW$L$_xQueueReceive$51$B:
    2918                      .dwpsn  file "../FreeRTOS/Source/queue.c",line 1367,column 3,is_stmt
    2919 0007be EC10          AMAR *SP(#8), XAR0
         0007c0 8E   
    2920 0007c1 EC08          AMAR *SP(#4), XAR1
         0007c3 9E   
    2921              $C$DW$252       .dwtag  DW_TAG_TI_branch
    2922                      .dwattr $C$DW$252, DW_AT_low_pc(0x00)
    2923                      .dwattr $C$DW$252, DW_AT_name("_xTaskCheckForTimeOut")
    2924                      .dwattr $C$DW$252, DW_AT_TI_call
    2925 0007c4 6C00          CALL #_xTaskCheckForTimeOut ; |1367| 
         0007c6 0000!
    2926                                                      ; call occurs [#_xTaskCheckForTimeOut] ; |1367| 
    2927 0007c8 0414          BCC $C$L119,T0 != #0 ; |1367| 
         0007ca 38   
    2928                                                      ; branchcc occurs ; |1367| 
    2929 0007cb       $C$DW$L$_xQueueReceive$51$E:
    2930 0007cb       $C$DW$L$_xQueueReceive$52$B:
    2931                      .dwpsn  file "../FreeRTOS/Source/queue.c",line 1371,column 4,is_stmt
    2932 0007cb ED18          MOV dbl(*SP(#12)), XAR0
         0007cd 8F   
    2933              $C$DW$253       .dwtag  DW_TAG_TI_branch
    2934                      .dwattr $C$DW$253, DW_AT_low_pc(0x00)
    2935                      .dwattr $C$DW$253, DW_AT_name("_prvIsQueueEmpty")
    2936                      .dwattr $C$DW$253, DW_AT_TI_call
    2937 0007ce 0808          CALL #_prvIsQueueEmpty ; |1371| 
         0007d0 EB   
    2938                                                      ; call occurs [#_prvIsQueueEmpty] ; |1371| 
    2939 0007d1 0404          BCC $C$L118,T0 == #0 ; |1371| 
TMS320C55x Assembler PC v4.4.1 Sat Sep 15 01:52:39 2018

Tools Copyright (c) 1996-2012 Texas Instruments Incorporated
queue.asm                                                            PAGE   62

         0007d3 22   
    2940                                                      ; branchcc occurs ; |1371| 
    2941 0007d4       $C$DW$L$_xQueueReceive$52$E:
    2942 0007d4       $C$DW$L$_xQueueReceive$53$B:
    2943                      .dwpsn  file "../FreeRTOS/Source/queue.c",line 1374,column 5,is_stmt
    2944 0007d4 ED18          MOV dbl(*SP(#12)), XAR0
         0007d6 8F   
    2945              
    2946                      AADD #18, AR0 ; |1374| 
    2947 0007d7 8E08  ||      MOV dbl(*SP(#4)), AC0 ; |1374| 
         0007d9 8D1C 
         0007db 0812 
    2948              
    2949              $C$DW$254       .dwtag  DW_TAG_TI_branch
    2950                      .dwattr $C$DW$254, DW_AT_low_pc(0x00)
    2951                      .dwattr $C$DW$254, DW_AT_name("_vTaskPlaceOnEventList")
    2952                      .dwattr $C$DW$254, DW_AT_TI_call
    2953 0007dd 6C00          CALL #_vTaskPlaceOnEventList ; |1374| 
         0007df 0000!
    2954                                                      ; call occurs [#_vTaskPlaceOnEventList] ; |1374| 
    2955                      .dwpsn  file "../FreeRTOS/Source/queue.c",line 1375,column 5,is_stmt
    2956 0007e1 ED18          MOV dbl(*SP(#12)), XAR0
         0007e3 8F   
    2957              $C$DW$255       .dwtag  DW_TAG_TI_branch
    2958                      .dwattr $C$DW$255, DW_AT_low_pc(0x00)
    2959                      .dwattr $C$DW$255, DW_AT_name("_prvUnlockQueue")
    2960                      .dwattr $C$DW$255, DW_AT_TI_call
    2961 0007e4 0807          CALL #_prvUnlockQueue ; |1375| 
         0007e6 F1   
    2962                                                      ; call occurs [#_prvUnlockQueue] ; |1375| 
    2963                      .dwpsn  file "../FreeRTOS/Source/queue.c",line 1376,column 5,is_stmt
    2964              $C$DW$256       .dwtag  DW_TAG_TI_branch
    2965                      .dwattr $C$DW$256, DW_AT_low_pc(0x00)
    2966                      .dwattr $C$DW$256, DW_AT_name("_xTaskResumeAll")
    2967                      .dwattr $C$DW$256, DW_AT_TI_call
    2968 0007e7 6C00          CALL #_xTaskResumeAll ; |1376| 
         0007e9 0000!
    2969                                                      ; call occurs [#_xTaskResumeAll] ; |1376| 
    2970 0007eb 6D14          BCC $C$L105,T0 != #0 ; |1376| 
         0007ed FEBF 
    2971                                                      ; branchcc occurs ; |1376| 
    2972 0007ef       $C$DW$L$_xQueueReceive$53$E:
    2973 0007ef       $C$DW$L$_xQueueReceive$54$B:
    2974                      .dwpsn  file "../FreeRTOS/Source/queue.c",line 1378,column 6,is_stmt
    2975              $C$DW$257       .dwtag  DW_TAG_TI_branch
    2976                      .dwattr $C$DW$257, DW_AT_low_pc(0x00)
    2977                      .dwattr $C$DW$257, DW_AT_name("_vPortYield")
    2978                      .dwattr $C$DW$257, DW_AT_TI_call
    2979 0007ef 6C00          CALL #_vPortYield ; |1378| 
         0007f1 0000!
    2980                                                      ; call occurs [#_vPortYield] ; |1378| 
    2981                      .dwpsn  file "../FreeRTOS/Source/queue.c",line 1379,column 5,is_stmt
    2982 0007f3 06FE          B $C$L105 ; |1379| 
         0007f5 B8   
    2983                                                      ; branch occurs ; |1379| 
TMS320C55x Assembler PC v4.4.1 Sat Sep 15 01:52:39 2018

Tools Copyright (c) 1996-2012 Texas Instruments Incorporated
queue.asm                                                            PAGE   63

    2984 0007f6       $C$DW$L$_xQueueReceive$54$E:
    2985 0007f6       $C$L118:    
    2986 0007f6       $C$DW$L$_xQueueReceive$56$B:
    2987                      .dwpsn  file "../FreeRTOS/Source/queue.c",line 1389,column 5,is_stmt
    2988 0007f6 ED18          MOV dbl(*SP(#12)), XAR0
         0007f8 8F   
    2989              $C$DW$258       .dwtag  DW_TAG_TI_branch
    2990                      .dwattr $C$DW$258, DW_AT_low_pc(0x00)
    2991                      .dwattr $C$DW$258, DW_AT_name("_prvUnlockQueue")
    2992                      .dwattr $C$DW$258, DW_AT_TI_call
    2993 0007f9 0807          CALL #_prvUnlockQueue ; |1389| 
         0007fb DC   
    2994                                                      ; call occurs [#_prvUnlockQueue] ; |1389| 
    2995                      .dwpsn  file "../FreeRTOS/Source/queue.c",line 1390,column 5,is_stmt
    2996              $C$DW$259       .dwtag  DW_TAG_TI_branch
    2997                      .dwattr $C$DW$259, DW_AT_low_pc(0x00)
    2998                      .dwattr $C$DW$259, DW_AT_name("_xTaskResumeAll")
    2999                      .dwattr $C$DW$259, DW_AT_TI_call
    3000 0007fc 6C00          CALL #_xTaskResumeAll ; |1390| 
         0007fe 0000!
    3001                                                      ; call occurs [#_xTaskResumeAll] ; |1390| 
    3002                      .dwpsn  file "../FreeRTOS/Source/queue.c",line 1392,column 3,is_stmt
    3003 000800 06FE          B $C$L105 ; |1392| 
         000802 AB   
    3004                                                      ; branch occurs ; |1392| 
    3005 000803       $C$DW$L$_xQueueReceive$56$E:
    3006 000803       $C$L119:    
    3007 000803       $C$DW$L$_xQueueReceive$57$B:
    3008                      .dwpsn  file "../FreeRTOS/Source/queue.c",line 1397,column 4,is_stmt
    3009 000803 ED18          MOV dbl(*SP(#12)), XAR0
         000805 8F   
    3010              $C$DW$260       .dwtag  DW_TAG_TI_branch
    3011                      .dwattr $C$DW$260, DW_AT_low_pc(0x00)
    3012                      .dwattr $C$DW$260, DW_AT_name("_prvUnlockQueue")
    3013                      .dwattr $C$DW$260, DW_AT_TI_call
    3014 000806 0807          CALL #_prvUnlockQueue ; |1397| 
         000808 CF   
    3015                                                      ; call occurs [#_prvUnlockQueue] ; |1397| 
    3016                      .dwpsn  file "../FreeRTOS/Source/queue.c",line 1398,column 4,is_stmt
    3017              $C$DW$261       .dwtag  DW_TAG_TI_branch
    3018                      .dwattr $C$DW$261, DW_AT_low_pc(0x00)
    3019                      .dwattr $C$DW$261, DW_AT_name("_xTaskResumeAll")
    3020                      .dwattr $C$DW$261, DW_AT_TI_call
    3021 000809 6C00          CALL #_xTaskResumeAll ; |1398| 
         00080b 0000!
    3022                                                      ; call occurs [#_xTaskResumeAll] ; |1398| 
    3023                      .dwpsn  file "../FreeRTOS/Source/queue.c",line 1400,column 4,is_stmt
    3024 00080d ED18          MOV dbl(*SP(#12)), XAR0
         00080f 8F   
    3025              $C$DW$262       .dwtag  DW_TAG_TI_branch
    3026                      .dwattr $C$DW$262, DW_AT_low_pc(0x00)
    3027                      .dwattr $C$DW$262, DW_AT_name("_prvIsQueueEmpty")
    3028                      .dwattr $C$DW$262, DW_AT_TI_call
    3029 000810 0808          CALL #_prvIsQueueEmpty ; |1400| 
         000812 A9   
TMS320C55x Assembler PC v4.4.1 Sat Sep 15 01:52:39 2018

Tools Copyright (c) 1996-2012 Texas Instruments Incorporated
queue.asm                                                            PAGE   64

    3030                                                      ; call occurs [#_prvIsQueueEmpty] ; |1400| 
    3031 000813 6D04          BCC $C$L105,T0 == #0 ; |1400| 
         000815 FE97 
    3032                                                      ; branchcc occurs ; |1400| 
    3033 000817       $C$DW$L$_xQueueReceive$57$E:
    3034                      .dwpsn  file "../FreeRTOS/Source/queue.c",line 1403,column 5,is_stmt
    3035              
    3036 000817 4A00          B $C$L120 ; |1403| 
    3037 000819 3D04  ||      MOV #0, T0
    3038              
    3039                                                      ; branch occurs ; |1403| 
    3040 00081b       $C$L120:    
    3041                      .dwpsn  file "../FreeRTOS/Source/queue.c",line 1411,column 1,is_stmt
    3042 00081b 4E0F          AADD #15, SP
    3043                      .dwcfi  cfa_offset, 3
    3044 00081d 5072          POP T3
    3045                      .dwcfi  restore_reg, 15
    3046                      .dwcfi  cfa_offset, 2
    3047 00081f 5062          POP T2
    3048                      .dwcfi  restore_reg, 14
    3049                      .dwcfi  cfa_offset, 1
    3050              $C$DW$263       .dwtag  DW_TAG_TI_branch
    3051                      .dwattr $C$DW$263, DW_AT_low_pc(0x00)
    3052                      .dwattr $C$DW$263, DW_AT_TI_return
    3053 000821 4804          RET
    3054                                                      ; return occurs
    3055              
    3056              $C$DW$264       .dwtag  DW_TAG_TI_loop
    3057                      .dwattr $C$DW$264, DW_AT_name("F:\eZdsp_DBG\eZDSP_5535_Files\ccsws2\test\Debug\queue.asm:$C$L105:1:15
    3058                      .dwattr $C$DW$264, DW_AT_TI_begin_file("../FreeRTOS/Source/queue.c")
    3059                      .dwattr $C$DW$264, DW_AT_TI_begin_line(0x511)
    3060                      .dwattr $C$DW$264, DW_AT_TI_end_line(0x582)
    3061              $C$DW$265       .dwtag  DW_TAG_TI_loop_range
    3062                      .dwattr $C$DW$265, DW_AT_low_pc($C$DW$L$_xQueueReceive$20$B)
    3063                      .dwattr $C$DW$265, DW_AT_high_pc($C$DW$L$_xQueueReceive$20$E)
    3064              $C$DW$266       .dwtag  DW_TAG_TI_loop_range
    3065                      .dwattr $C$DW$266, DW_AT_low_pc($C$DW$L$_xQueueReceive$33$B)
    3066                      .dwattr $C$DW$266, DW_AT_high_pc($C$DW$L$_xQueueReceive$33$E)
    3067              $C$DW$267       .dwtag  DW_TAG_TI_loop_range
    3068                      .dwattr $C$DW$267, DW_AT_low_pc($C$DW$L$_xQueueReceive$39$B)
    3069                      .dwattr $C$DW$267, DW_AT_high_pc($C$DW$L$_xQueueReceive$39$E)
    3070              $C$DW$268       .dwtag  DW_TAG_TI_loop_range
    3071                      .dwattr $C$DW$268, DW_AT_low_pc($C$DW$L$_xQueueReceive$40$B)
    3072                      .dwattr $C$DW$268, DW_AT_high_pc($C$DW$L$_xQueueReceive$40$E)
    3073              $C$DW$269       .dwtag  DW_TAG_TI_loop_range
    3074                      .dwattr $C$DW$269, DW_AT_low_pc($C$DW$L$_xQueueReceive$41$B)
    3075                      .dwattr $C$DW$269, DW_AT_high_pc($C$DW$L$_xQueueReceive$41$E)
    3076              $C$DW$270       .dwtag  DW_TAG_TI_loop_range
    3077                      .dwattr $C$DW$270, DW_AT_low_pc($C$DW$L$_xQueueReceive$42$B)
    3078                      .dwattr $C$DW$270, DW_AT_high_pc($C$DW$L$_xQueueReceive$42$E)
    3079              $C$DW$271       .dwtag  DW_TAG_TI_loop_range
    3080                      .dwattr $C$DW$271, DW_AT_low_pc($C$DW$L$_xQueueReceive$43$B)
    3081                      .dwattr $C$DW$271, DW_AT_high_pc($C$DW$L$_xQueueReceive$43$E)
    3082              $C$DW$272       .dwtag  DW_TAG_TI_loop_range
    3083                      .dwattr $C$DW$272, DW_AT_low_pc($C$DW$L$_xQueueReceive$44$B)
TMS320C55x Assembler PC v4.4.1 Sat Sep 15 01:52:39 2018

Tools Copyright (c) 1996-2012 Texas Instruments Incorporated
queue.asm                                                            PAGE   65

    3084                      .dwattr $C$DW$272, DW_AT_high_pc($C$DW$L$_xQueueReceive$44$E)
    3085              $C$DW$273       .dwtag  DW_TAG_TI_loop_range
    3086                      .dwattr $C$DW$273, DW_AT_low_pc($C$DW$L$_xQueueReceive$45$B)
    3087                      .dwattr $C$DW$273, DW_AT_high_pc($C$DW$L$_xQueueReceive$45$E)
    3088              $C$DW$274       .dwtag  DW_TAG_TI_loop_range
    3089                      .dwattr $C$DW$274, DW_AT_low_pc($C$DW$L$_xQueueReceive$46$B)
    3090                      .dwattr $C$DW$274, DW_AT_high_pc($C$DW$L$_xQueueReceive$46$E)
    3091              $C$DW$275       .dwtag  DW_TAG_TI_loop_range
    3092                      .dwattr $C$DW$275, DW_AT_low_pc($C$DW$L$_xQueueReceive$47$B)
    3093                      .dwattr $C$DW$275, DW_AT_high_pc($C$DW$L$_xQueueReceive$47$E)
    3094              $C$DW$276       .dwtag  DW_TAG_TI_loop_range
    3095                      .dwattr $C$DW$276, DW_AT_low_pc($C$DW$L$_xQueueReceive$48$B)
    3096                      .dwattr $C$DW$276, DW_AT_high_pc($C$DW$L$_xQueueReceive$48$E)
    3097              $C$DW$277       .dwtag  DW_TAG_TI_loop_range
    3098                      .dwattr $C$DW$277, DW_AT_low_pc($C$DW$L$_xQueueReceive$49$B)
    3099                      .dwattr $C$DW$277, DW_AT_high_pc($C$DW$L$_xQueueReceive$49$E)
    3100              $C$DW$278       .dwtag  DW_TAG_TI_loop_range
    3101                      .dwattr $C$DW$278, DW_AT_low_pc($C$DW$L$_xQueueReceive$50$B)
    3102                      .dwattr $C$DW$278, DW_AT_high_pc($C$DW$L$_xQueueReceive$50$E)
    3103              $C$DW$279       .dwtag  DW_TAG_TI_loop_range
    3104                      .dwattr $C$DW$279, DW_AT_low_pc($C$DW$L$_xQueueReceive$51$B)
    3105                      .dwattr $C$DW$279, DW_AT_high_pc($C$DW$L$_xQueueReceive$51$E)
    3106              $C$DW$280       .dwtag  DW_TAG_TI_loop_range
    3107                      .dwattr $C$DW$280, DW_AT_low_pc($C$DW$L$_xQueueReceive$52$B)
    3108                      .dwattr $C$DW$280, DW_AT_high_pc($C$DW$L$_xQueueReceive$52$E)
    3109              $C$DW$281       .dwtag  DW_TAG_TI_loop_range
    3110                      .dwattr $C$DW$281, DW_AT_low_pc($C$DW$L$_xQueueReceive$57$B)
    3111                      .dwattr $C$DW$281, DW_AT_high_pc($C$DW$L$_xQueueReceive$57$E)
    3112              $C$DW$282       .dwtag  DW_TAG_TI_loop_range
    3113                      .dwattr $C$DW$282, DW_AT_low_pc($C$DW$L$_xQueueReceive$56$B)
    3114                      .dwattr $C$DW$282, DW_AT_high_pc($C$DW$L$_xQueueReceive$56$E)
    3115              $C$DW$283       .dwtag  DW_TAG_TI_loop_range
    3116                      .dwattr $C$DW$283, DW_AT_low_pc($C$DW$L$_xQueueReceive$54$B)
    3117                      .dwattr $C$DW$283, DW_AT_high_pc($C$DW$L$_xQueueReceive$54$E)
    3118              $C$DW$284       .dwtag  DW_TAG_TI_loop_range
    3119                      .dwattr $C$DW$284, DW_AT_low_pc($C$DW$L$_xQueueReceive$53$B)
    3120                      .dwattr $C$DW$284, DW_AT_high_pc($C$DW$L$_xQueueReceive$53$E)
    3121                      .dwendtag $C$DW$264
    3122              
    3123              
    3124              $C$DW$285       .dwtag  DW_TAG_TI_loop
    3125                      .dwattr $C$DW$285, DW_AT_name("F:\eZdsp_DBG\eZDSP_5535_Files\ccsws2\test\Debug\queue.asm:$C$L104:1:15
    3126                      .dwattr $C$DW$285, DW_AT_TI_begin_file("../FreeRTOS/Source/queue.c")
    3127                      .dwattr $C$DW$285, DW_AT_TI_begin_line(0x509)
    3128                      .dwattr $C$DW$285, DW_AT_TI_end_line(0x509)
    3129              $C$DW$286       .dwtag  DW_TAG_TI_loop_range
    3130                      .dwattr $C$DW$286, DW_AT_low_pc($C$DW$L$_xQueueReceive$19$B)
    3131                      .dwattr $C$DW$286, DW_AT_high_pc($C$DW$L$_xQueueReceive$19$E)
    3132                      .dwendtag $C$DW$285
    3133              
    3134              
    3135              $C$DW$287       .dwtag  DW_TAG_TI_loop
    3136                      .dwattr $C$DW$287, DW_AT_name("F:\eZdsp_DBG\eZDSP_5535_Files\ccsws2\test\Debug\queue.asm:$C$L100:1:15
    3137                      .dwattr $C$DW$287, DW_AT_TI_begin_file("../FreeRTOS/Source/queue.c")
    3138                      .dwattr $C$DW$287, DW_AT_TI_begin_line(0x504)
TMS320C55x Assembler PC v4.4.1 Sat Sep 15 01:52:39 2018

Tools Copyright (c) 1996-2012 Texas Instruments Incorporated
queue.asm                                                            PAGE   66

    3139                      .dwattr $C$DW$287, DW_AT_TI_end_line(0x504)
    3140              $C$DW$288       .dwtag  DW_TAG_TI_loop_range
    3141                      .dwattr $C$DW$288, DW_AT_low_pc($C$DW$L$_xQueueReceive$11$B)
    3142                      .dwattr $C$DW$288, DW_AT_high_pc($C$DW$L$_xQueueReceive$11$E)
    3143                      .dwendtag $C$DW$287
    3144              
    3145              
    3146              $C$DW$289       .dwtag  DW_TAG_TI_loop
    3147                      .dwattr $C$DW$289, DW_AT_name("F:\eZdsp_DBG\eZDSP_5535_Files\ccsws2\test\Debug\queue.asm:$C$L96:1:153
    3148                      .dwattr $C$DW$289, DW_AT_TI_begin_file("../FreeRTOS/Source/queue.c")
    3149                      .dwattr $C$DW$289, DW_AT_TI_begin_line(0x500)
    3150                      .dwattr $C$DW$289, DW_AT_TI_end_line(0x500)
    3151              $C$DW$290       .dwtag  DW_TAG_TI_loop_range
    3152                      .dwattr $C$DW$290, DW_AT_low_pc($C$DW$L$_xQueueReceive$3$B)
    3153                      .dwattr $C$DW$290, DW_AT_high_pc($C$DW$L$_xQueueReceive$3$E)
    3154                      .dwendtag $C$DW$289
    3155              
    3156                      .dwattr $C$DW$234, DW_AT_TI_end_file("../FreeRTOS/Source/queue.c")
    3157                      .dwattr $C$DW$234, DW_AT_TI_end_line(0x583)
    3158                      .dwattr $C$DW$234, DW_AT_TI_end_column(0x01)
    3159                      .dwendentry
    3160                      .dwendtag $C$DW$234
    3161              
    3162 000823               .sect   ".text"
    3163                      .align 4
    3164                      .global _xQueueSemaphoreTake
    3165              
    3166              $C$DW$291       .dwtag  DW_TAG_subprogram, DW_AT_name("xQueueSemaphoreTake")
    3167                      .dwattr $C$DW$291, DW_AT_low_pc(_xQueueSemaphoreTake)
    3168                      .dwattr $C$DW$291, DW_AT_high_pc(0x00)
    3169                      .dwattr $C$DW$291, DW_AT_TI_symbol_name("_xQueueSemaphoreTake")
    3170                      .dwattr $C$DW$291, DW_AT_external
    3171                      .dwattr $C$DW$291, DW_AT_type(*$C$DW$T$49)
    3172                      .dwattr $C$DW$291, DW_AT_TI_begin_file("../FreeRTOS/Source/queue.c")
    3173                      .dwattr $C$DW$291, DW_AT_TI_begin_line(0x586)
    3174                      .dwattr $C$DW$291, DW_AT_TI_begin_column(0x0c)
    3175                      .dwattr $C$DW$291, DW_AT_TI_max_frame_size(0x12)
    3176                      .dwpsn  file "../FreeRTOS/Source/queue.c",line 1415,column 1,is_stmt,address _xQueueSemaphoreTake
    3177              
    3178                      .dwfde $C$DW$CIE, _xQueueSemaphoreTake
    3179              $C$DW$292       .dwtag  DW_TAG_formal_parameter, DW_AT_name("xQueue")
    3180                      .dwattr $C$DW$292, DW_AT_TI_symbol_name("_xQueue")
    3181                      .dwattr $C$DW$292, DW_AT_type(*$C$DW$T$27)
    3182                      .dwattr $C$DW$292, DW_AT_location[DW_OP_reg17]
    3183              $C$DW$293       .dwtag  DW_TAG_formal_parameter, DW_AT_name("xTicksToWait")
    3184                      .dwattr $C$DW$293, DW_AT_TI_symbol_name("_xTicksToWait")
    3185                      .dwattr $C$DW$293, DW_AT_type(*$C$DW$T$44)
    3186                      .dwattr $C$DW$293, DW_AT_location[DW_OP_reg0]
    3187              ;*******************************************************************************
    3188              ;* FUNCTION NAME: xQueueSemaphoreTake                                          *
    3189              ;*                                                                             *
    3190              ;*   Function Uses Regs : AC0,AC0,T0,T2,T3,AR0,XAR0,AR1,XAR1,AR2,AR3,XAR3,SP,  *
    3191              ;*                        CARRY,TC1,M40,SATA,SATD,RDM,FRCT,SMUL                *
    3192              ;*   Save On Entry Regs : T2,T3                                                *
    3193              ;*   Stack Frame        : Compact (No Frame Pointer, w/ debug)                 *
TMS320C55x Assembler PC v4.4.1 Sat Sep 15 01:52:39 2018

Tools Copyright (c) 1996-2012 Texas Instruments Incorporated
queue.asm                                                            PAGE   67

    3194              ;*   Total Frame Size   : 18 words                                             *
    3195              ;*                        (2 return address/alignment)                         *
    3196              ;*                        (14 local values)                                    *
    3197              ;*                        (2 register save area)                               *
    3198              ;*   Min System Stack   : 1 word                                               *
    3199              ;*******************************************************************************
    3200 000824       _xQueueSemaphoreTake:
    3201                      .dwcfi  cfa_offset, 1
    3202                      .dwcfi  save_reg_to_mem, 91, -1
    3203 000824 5066          PSH T2
    3204                      .dwcfi  cfa_offset, 2
    3205                      .dwcfi  save_reg_to_mem, 14, -2
    3206 000826 5076          PSH T3
    3207                      .dwcfi  cfa_offset, 3
    3208                      .dwcfi  save_reg_to_mem, 15, -3
    3209 000828 4EF1          AADD #-15, SP
    3210                      .dwcfi  cfa_offset, 18
    3211              $C$DW$294       .dwtag  DW_TAG_variable, DW_AT_name("xQueue")
    3212                      .dwattr $C$DW$294, DW_AT_TI_symbol_name("_xQueue")
    3213                      .dwattr $C$DW$294, DW_AT_type(*$C$DW$T$27)
    3214                      .dwattr $C$DW$294, DW_AT_location[DW_OP_bregx 0x24 0]
    3215              $C$DW$295       .dwtag  DW_TAG_variable, DW_AT_name("xTicksToWait")
    3216                      .dwattr $C$DW$295, DW_AT_TI_symbol_name("_xTicksToWait")
    3217                      .dwattr $C$DW$295, DW_AT_type(*$C$DW$T$44)
    3218                      .dwattr $C$DW$295, DW_AT_location[DW_OP_bregx 0x24 2]
    3219              $C$DW$296       .dwtag  DW_TAG_variable, DW_AT_name("xEntryTimeSet")
    3220                      .dwattr $C$DW$296, DW_AT_TI_symbol_name("_xEntryTimeSet")
    3221                      .dwattr $C$DW$296, DW_AT_type(*$C$DW$T$49)
    3222                      .dwattr $C$DW$296, DW_AT_location[DW_OP_bregx 0x24 4]
    3223              $C$DW$297       .dwtag  DW_TAG_variable, DW_AT_name("xTimeOut")
    3224                      .dwattr $C$DW$297, DW_AT_TI_symbol_name("_xTimeOut")
    3225                      .dwattr $C$DW$297, DW_AT_type(*$C$DW$T$92)
    3226                      .dwattr $C$DW$297, DW_AT_location[DW_OP_bregx 0x24 6]
    3227              $C$DW$298       .dwtag  DW_TAG_variable, DW_AT_name("pxQueue")
    3228                      .dwattr $C$DW$298, DW_AT_TI_symbol_name("_pxQueue")
    3229                      .dwattr $C$DW$298, DW_AT_type(*$C$DW$T$69)
    3230                      .dwattr $C$DW$298, DW_AT_location[DW_OP_bregx 0x24 10]
    3231              $C$DW$299       .dwtag  DW_TAG_variable, DW_AT_name("xInheritanceOccurred")
    3232                      .dwattr $C$DW$299, DW_AT_TI_symbol_name("_xInheritanceOccurred")
    3233                      .dwattr $C$DW$299, DW_AT_type(*$C$DW$T$49)
    3234                      .dwattr $C$DW$299, DW_AT_location[DW_OP_bregx 0x24 12]
    3235 00082a EB04          MOV AC0, dbl(*SP(#2)) ; |1415| 
         00082c 08   
    3236 00082d EB00          MOV XAR0, dbl(*SP(#0))
         00082f 85   
    3237                      .dwpsn  file "../FreeRTOS/Source/queue.c",line 1416,column 12,is_stmt
    3238 000830 E608          MOV #0, *SP(#4) ; |1416| 
         000832 00   
    3239                      .dwpsn  file "../FreeRTOS/Source/queue.c",line 1418,column 17,is_stmt
    3240 000833 ED00          MOV dbl(*SP(#0)), XAR3
         000835 BF   
    3241 000836 EB14          MOV XAR3, dbl(*SP(#10))
         000838 B5   
    3242                      .dwpsn  file "../FreeRTOS/Source/queue.c",line 1421,column 13,is_stmt
    3243 000839 E618          MOV #0, *SP(#12) ; |1421| 
TMS320C55x Assembler PC v4.4.1 Sat Sep 15 01:52:39 2018

Tools Copyright (c) 1996-2012 Texas Instruments Incorporated
queue.asm                                                            PAGE   68

         00083b 00   
    3244                      .dwpsn  file "../FreeRTOS/Source/queue.c",line 1425,column 2,is_stmt
    3245 00083c ED14          MOV dbl(*SP(#10)), XAR3
         00083e BF   
    3246 00083f 90B0          MOV XAR3, AC0
    3247 000841 6290          BCC $C$L122,AC0 != #0 ; |1425| 
    3248                                                      ; branchcc occurs ; |1425| 
    3249 000843 20     nop
    3250 000844 46B3   bset INTM
    3251 000846       $C$L121:    
    3252 000846       $C$DW$L$_xQueueSemaphoreTake$3$B:
    3253 000846 4A7E          B $C$L121 ; |1425| 
    3254                                                      ; branch occurs ; |1425| 
    3255 000848       $C$DW$L$_xQueueSemaphoreTake$3$E:
    3256 000848       $C$L122:    
    3257                      .dwpsn  file "../FreeRTOS/Source/queue.c",line 1429,column 2,is_stmt
    3258 000848 AA6D          MOV *AR3(#30), AR2 ; |1429| 
         00084a 001E 
    3259 00084c 3C09          MOV #0, AR1
    3260 00084e 611A          BCC $C$L123,AR2 != #0 ; |1429| 
    3261                                                      ; branchcc occurs ; |1429| 
    3262 000850 3C19          MOV #1, AR1
    3263 000852       $C$L123:    
    3264 000852 6299          BCC $C$L125,AR1 != #0 ; |1429| 
    3265                                                      ; branchcc occurs ; |1429| 
    3266 000854 20     nop
    3267 000855 46B3   bset INTM
    3268 000857       $C$L124:    
    3269 000857       $C$DW$L$_xQueueSemaphoreTake$8$B:
    3270 000857 4A7E          B $C$L124 ; |1429| 
    3271                                                      ; branch occurs ; |1429| 
    3272 000859       $C$DW$L$_xQueueSemaphoreTake$8$E:
    3273 000859       $C$L125:    
    3274                      .dwpsn  file "../FreeRTOS/Source/queue.c",line 1434,column 3,is_stmt
    3275              $C$DW$300       .dwtag  DW_TAG_TI_branch
    3276                      .dwattr $C$DW$300, DW_AT_low_pc(0x00)
    3277                      .dwattr $C$DW$300, DW_AT_name("_xTaskGetSchedulerState")
    3278                      .dwattr $C$DW$300, DW_AT_TI_call
    3279 000859 6C00          CALL #_xTaskGetSchedulerState ; |1434| 
         00085b 0000!
    3280                                                      ; call occurs [#_xTaskGetSchedulerState] ; |1434| 
    3281 00085d 3C07          MOV #0, T3
    3282              
    3283 00085f 6394          BCC $C$L126,T0 != #0 ; |1434| 
    3284 000861 3D06  ||      MOV #0, T2
    3285              
    3286                                                      ; branchcc occurs ; |1434| 
    3287 000863 ED04          MOV dbl(*SP(#2)), AC0 ; |1434| 
         000865 08   
    3288 000866 6100          BCC $C$L126,AC0 == #0 ; |1434| 
    3289                                                      ; branchcc occurs ; |1434| 
    3290 000868 3C17          MOV #1, T3
    3291 00086a       $C$L126:    
    3292 00086a 6117          BCC $C$L127,T3 != #0 ; |1434| 
    3293                                                      ; branchcc occurs ; |1434| 
TMS320C55x Assembler PC v4.4.1 Sat Sep 15 01:52:39 2018

Tools Copyright (c) 1996-2012 Texas Instruments Incorporated
queue.asm                                                            PAGE   69

    3294 00086c 3C16          MOV #1, T2
    3295 00086e       $C$L127:    
    3296 00086e 6296          BCC $C$L129,T2 != #0 ; |1434| 
    3297                                                      ; branchcc occurs ; |1434| 
    3298 000870 20     nop
    3299 000871 46B3   bset INTM
    3300 000873       $C$L128:    
    3301 000873       $C$DW$L$_xQueueSemaphoreTake$16$B:
    3302 000873 4A7E          B $C$L128 ; |1434| 
    3303                                                      ; branch occurs ; |1434| 
    3304 000875       $C$DW$L$_xQueueSemaphoreTake$16$E:
    3305 000875       $C$L129:    
    3306 000875       $C$DW$L$_xQueueSemaphoreTake$17$B:
    3307                      .dwpsn  file "../FreeRTOS/Source/queue.c",line 1444,column 3,is_stmt
    3308 000875 20     nop
    3309 000876 46B3   bset INTM
    3310 000878 F731          ADD #1, *(#_usCriticalNesting) ; |1444| 
         00087a 0001 
         00087c 0000 
         00087e 00!  
    3311 00087f 20            NOP
    3312 000880 20            NOP
    3313              
    3314              $C$DW$301       .dwtag  DW_TAG_lexical_block, DW_AT_low_pc(0x00), DW_AT_high_pc(0x00)
    3315              $C$DW$302       .dwtag  DW_TAG_variable, DW_AT_name("uxSemaphoreCount")
    3316                      .dwattr $C$DW$302, DW_AT_TI_symbol_name("_uxSemaphoreCount")
    3317                      .dwattr $C$DW$302, DW_AT_type(*$C$DW$T$56)
    3318                      .dwattr $C$DW$302, DW_AT_location[DW_OP_bregx 0x24 13]
    3319                      .dwpsn  file "../FreeRTOS/Source/queue.c",line 1448,column 22,is_stmt
    3320 000881 ED14          MOV dbl(*SP(#10)), XAR3
         000883 BF   
    3321 000884 A96D          MOV *AR3(#28), AR1 ; |1448| 
         000886 001C 
    3322 000888 C91A          MOV AR1, *SP(#13) ; |1448| 
    3323                      .dwpsn  file "../FreeRTOS/Source/queue.c",line 1452,column 4,is_stmt
    3324 00088a 0409          BCC $C$L135,AR1 == #0 ; |1452| 
         00088c 62   
    3325                                                      ; branchcc occurs ; |1452| 
    3326 00088d       $C$DW$L$_xQueueSemaphoreTake$17$E:
    3327                      .dwpsn  file "../FreeRTOS/Source/queue.c",line 1458,column 5,is_stmt
    3328 00088d ED14          MOV dbl(*SP(#10)), XAR3
         00088f BF   
    3329 000890 4219          SUB #1, AR1 ; |1458| 
    3330 000892 C96D          MOV AR1, *AR3(#28) ; |1458| 
         000894 001C 
    3331                      .dwpsn  file "../FreeRTOS/Source/queue.c",line 1462,column 6,is_stmt
    3332 000896 ED14          MOV dbl(*SP(#10)), XAR3
         000898 BF   
    3333 000899 ED61          MOV dbl(*AR3), XAR3
         00089b BF   
    3334 00089c 90B0          MOV XAR3, AC0
    3335 00089e 6510          BCC $C$L130,AC0 != #0 ; |1462| 
    3336                                                      ; branchcc occurs ; |1462| 
    3337                      .dwpsn  file "../FreeRTOS/Source/queue.c",line 1466,column 7,is_stmt
    3338              $C$DW$303       .dwtag  DW_TAG_TI_branch
TMS320C55x Assembler PC v4.4.1 Sat Sep 15 01:52:39 2018

Tools Copyright (c) 1996-2012 Texas Instruments Incorporated
queue.asm                                                            PAGE   70

    3339                      .dwattr $C$DW$303, DW_AT_low_pc(0x00)
    3340                      .dwattr $C$DW$303, DW_AT_name("_pvTaskIncrementMutexHeldCount")
    3341                      .dwattr $C$DW$303, DW_AT_TI_call
    3342 0008a0 6C00          CALL #_pvTaskIncrementMutexHeldCount ; |1466| 
         0008a2 0000!
    3343                                                      ; call occurs [#_pvTaskIncrementMutexHeldCount] ; |1466| 
    3344 0008a4 ED14          MOV dbl(*SP(#10)), XAR3
         0008a6 BF   
    3345 0008a7 EB79          MOV XAR0, dbl(*AR3(short(#4)))
         0008a9 85   
    3346                      .dwpsn  file "../FreeRTOS/Source/queue.c",line 1467,column 6,is_stmt
    3347 0008aa       $C$L130:    
    3348                      .dwpsn  file "../FreeRTOS/Source/queue.c",line 1477,column 5,is_stmt
    3349 0008aa ED14          MOV dbl(*SP(#10)), XAR3
         0008ac BF   
    3350 0008ad A96D          MOV *AR3(#8), AR1 ; |1477| 
         0008af 0008 
    3351 0008b1 6219          BCC $C$L131,AR1 != #0 ; |1477| 
    3352                                                      ; branchcc occurs ; |1477| 
    3353 0008b3 3C19          MOV #1, AR1
    3354 0008b5 4A02          B $C$L132 ; |1477| 
    3355                                                      ; branch occurs ; |1477| 
    3356 0008b7       $C$L131:    
    3357 0008b7 3C09          MOV #0, AR1
    3358 0008b9       $C$L132:    
    3359 0008b9 0419          BCC $C$L133,AR1 != #0 ; |1477| 
         0008bb 12   
    3360                                                      ; branchcc occurs ; |1477| 
    3361                      .dwpsn  file "../FreeRTOS/Source/queue.c",line 1479,column 6,is_stmt
    3362 0008bc ED14          MOV dbl(*SP(#10)), XAR0
         0008be 8F   
    3363 0008bf 1408          AADD #8, AR0 ; |1479| 
         0008c1 84   
    3364              $C$DW$304       .dwtag  DW_TAG_TI_branch
    3365                      .dwattr $C$DW$304, DW_AT_low_pc(0x00)
    3366                      .dwattr $C$DW$304, DW_AT_name("_xTaskRemoveFromEventList")
    3367                      .dwattr $C$DW$304, DW_AT_TI_call
    3368 0008c2 6C00          CALL #_xTaskRemoveFromEventList ; |1479| 
         0008c4 0000!
    3369                                                      ; call occurs [#_xTaskRemoveFromEventList] ; |1479| 
    3370 0008c6 6304          BCC $C$L133,T0 == #0 ; |1479| 
    3371                                                      ; branchcc occurs ; |1479| 
    3372                      .dwpsn  file "../FreeRTOS/Source/queue.c",line 1481,column 7,is_stmt
    3373              $C$DW$305       .dwtag  DW_TAG_TI_branch
    3374                      .dwattr $C$DW$305, DW_AT_low_pc(0x00)
    3375                      .dwattr $C$DW$305, DW_AT_name("_vPortYield")
    3376                      .dwattr $C$DW$305, DW_AT_TI_call
    3377 0008c8 6C00          CALL #_vPortYield ; |1481| 
         0008ca 0000!
    3378                                                      ; call occurs [#_vPortYield] ; |1481| 
    3379                      .dwpsn  file "../FreeRTOS/Source/queue.c",line 1482,column 6,is_stmt
    3380 0008cc 4A00          B $C$L133 ; |1482| 
    3381                                                      ; branch occurs ; |1482| 
    3382 0008ce       $C$L133:    
    3383                      .dwpsn  file "../FreeRTOS/Source/queue.c",line 1493,column 5,is_stmt
TMS320C55x Assembler PC v4.4.1 Sat Sep 15 01:52:39 2018

Tools Copyright (c) 1996-2012 Texas Instruments Incorporated
queue.asm                                                            PAGE   71

    3384 0008ce A931          MOV *(#_usCriticalNesting), AR1 ; |1493| 
         0008d0 0000 
         0008d2 00!  
    3385 0008d3 0409          BCC $C$L134,AR1 == #0 ; |1493| 
         0008d5 14   
    3386                                                      ; branchcc occurs ; |1493| 
    3387 0008d6 F731          SUB #1, *(#_usCriticalNesting) ; |1493| 
         0008d8 FFFF 
         0008da 0000 
         0008dc 00!  
    3388 0008dd 20            NOP
    3389 0008de 20            NOP
    3390 0008df 20            NOP
    3391 0008e0 A931          MOV *(#_usCriticalNesting), AR1 ; |1493| 
         0008e2 0000 
         0008e4 00!  
    3392 0008e5 6199          BCC $C$L134,AR1 != #0 ; |1493| 
    3393                                                      ; branchcc occurs ; |1493| 
    3394 0008e7 20     nop
    3395 0008e8 46B2   bclr INTM
    3396 0008ea       $C$L134:    
    3397                      .dwpsn  file "../FreeRTOS/Source/queue.c",line 1494,column 5,is_stmt
    3398              
    3399 0008ea 0601          B $C$L150 ; |1494| 
         0008ec 83   
    3400 0008ed 3D14  ||      MOV #1, T0
    3401              
    3402                                                      ; branch occurs ; |1494| 
    3403 0008ef       $C$L135:    
    3404 0008ef       $C$DW$L$_xQueueSemaphoreTake$32$B:
    3405                      .dwpsn  file "../FreeRTOS/Source/queue.c",line 1498,column 5,is_stmt
    3406 0008ef ED04          MOV dbl(*SP(#2)), AC0 ; |1498| 
         0008f1 08   
    3407 0008f2 0410          BCC $C$L140,AC0 != #0 ; |1498| 
         0008f4 30   
    3408                                                      ; branchcc occurs ; |1498| 
    3409 0008f5       $C$DW$L$_xQueueSemaphoreTake$32$E:
    3410                      .dwpsn  file "../FreeRTOS/Source/queue.c",line 1505,column 7,is_stmt
    3411 0008f5 AA18          MOV *SP(#12), AR2 ; |1505| 
    3412 0008f7 3C09          MOV #0, AR1
    3413 0008f9 611A          BCC $C$L136,AR2 != #0 ; |1505| 
    3414                                                      ; branchcc occurs ; |1505| 
    3415 0008fb 3C19          MOV #1, AR1
    3416 0008fd       $C$L136:    
    3417 0008fd 6299          BCC $C$L138,AR1 != #0 ; |1505| 
    3418                                                      ; branchcc occurs ; |1505| 
    3419 0008ff 20     nop
    3420 000900 46B3   bset INTM
    3421 000902       $C$L137:    
    3422 000902       $C$DW$L$_xQueueSemaphoreTake$37$B:
    3423 000902 4A7E          B $C$L137 ; |1505| 
    3424                                                      ; branch occurs ; |1505| 
    3425 000904       $C$DW$L$_xQueueSemaphoreTake$37$E:
    3426 000904       $C$L138:    
    3427                      .dwpsn  file "../FreeRTOS/Source/queue.c",line 1511,column 6,is_stmt
TMS320C55x Assembler PC v4.4.1 Sat Sep 15 01:52:39 2018

Tools Copyright (c) 1996-2012 Texas Instruments Incorporated
queue.asm                                                            PAGE   72

    3428 000904 A931          MOV *(#_usCriticalNesting), AR1 ; |1511| 
         000906 0000 
         000908 00!  
    3429 000909 0409          BCC $C$L139,AR1 == #0 ; |1511| 
         00090b 14   
    3430                                                      ; branchcc occurs ; |1511| 
    3431 00090c F731          SUB #1, *(#_usCriticalNesting) ; |1511| 
         00090e FFFF 
         000910 0000 
         000912 00!  
    3432 000913 20            NOP
    3433 000914 20            NOP
    3434 000915 20            NOP
    3435 000916 A931          MOV *(#_usCriticalNesting), AR1 ; |1511| 
         000918 0000 
         00091a 00!  
    3436 00091b 6199          BCC $C$L139,AR1 != #0 ; |1511| 
    3437                                                      ; branchcc occurs ; |1511| 
    3438 00091d 20     nop
    3439 00091e 46B2   bclr INTM
    3440 000920       $C$L139:    
    3441                      .dwpsn  file "../FreeRTOS/Source/queue.c",line 1513,column 6,is_stmt
    3442              
    3443 000920 0601          B $C$L150 ; |1513| 
         000922 4D   
    3444 000923 3D04  ||      MOV #0, T0
    3445              
    3446                                                      ; branch occurs ; |1513| 
    3447 000925       $C$L140:    
    3448 000925       $C$DW$L$_xQueueSemaphoreTake$43$B:
    3449                      .dwpsn  file "../FreeRTOS/Source/queue.c",line 1515,column 10,is_stmt
    3450 000925 A908          MOV *SP(#4), AR1 ; |1515| 
    3451 000927 6519          BCC $C$L141,AR1 != #0 ; |1515| 
    3452                                                      ; branchcc occurs ; |1515| 
    3453 000929       $C$DW$L$_xQueueSemaphoreTake$43$E:
    3454 000929       $C$DW$L$_xQueueSemaphoreTake$44$B:
    3455                      .dwpsn  file "../FreeRTOS/Source/queue.c",line 1519,column 6,is_stmt
    3456 000929 EC0C          AMAR *SP(#6), XAR0
         00092b 8E   
    3457              $C$DW$306       .dwtag  DW_TAG_TI_branch
    3458                      .dwattr $C$DW$306, DW_AT_low_pc(0x00)
    3459                      .dwattr $C$DW$306, DW_AT_name("_vTaskInternalSetTimeOutState")
    3460                      .dwattr $C$DW$306, DW_AT_TI_call
    3461 00092c 6C00          CALL #_vTaskInternalSetTimeOutState ; |1519| 
         00092e 0000!
    3462                                                      ; call occurs [#_vTaskInternalSetTimeOutState] ; |1519| 
    3463                      .dwpsn  file "../FreeRTOS/Source/queue.c",line 1520,column 6,is_stmt
    3464 000930 E608          MOV #1, *SP(#4) ; |1520| 
         000932 01   
    3465                      .dwpsn  file "../FreeRTOS/Source/queue.c",line 1521,column 5,is_stmt
    3466              $C$DW$L$_xQueueSemaphoreTake$44$E:
    3467              $C$L141:    
    3468              $C$DW$L$_xQueueSemaphoreTake$45$B:
    3469                      .dwendtag $C$DW$301
    3470              
TMS320C55x Assembler PC v4.4.1 Sat Sep 15 01:52:39 2018

Tools Copyright (c) 1996-2012 Texas Instruments Incorporated
queue.asm                                                            PAGE   73

    3471                      .dwpsn  file "../FreeRTOS/Source/queue.c",line 1529,column 3,is_stmt
    3472 000933 A931          MOV *(#_usCriticalNesting), AR1 ; |1529| 
         000935 0000 
         000937 00!  
    3473 000938 0409          BCC $C$L142,AR1 == #0 ; |1529| 
         00093a 14   
    3474                                                      ; branchcc occurs ; |1529| 
    3475 00093b       $C$DW$L$_xQueueSemaphoreTake$45$E:
    3476 00093b       $C$DW$L$_xQueueSemaphoreTake$46$B:
    3477 00093b F731          SUB #1, *(#_usCriticalNesting) ; |1529| 
         00093d FFFF 
         00093f 0000 
         000941 00!  
    3478 000942 20            NOP
    3479 000943 20            NOP
    3480 000944 20            NOP
    3481 000945 A931          MOV *(#_usCriticalNesting), AR1 ; |1529| 
         000947 0000 
         000949 00!  
    3482 00094a 6199          BCC $C$L142,AR1 != #0 ; |1529| 
    3483                                                      ; branchcc occurs ; |1529| 
    3484 00094c       $C$DW$L$_xQueueSemaphoreTake$46$E:
    3485 00094c       $C$DW$L$_xQueueSemaphoreTake$47$B:
    3486 00094c 20     nop
    3487 00094d 46B2   bclr INTM
    3488 00094f       $C$DW$L$_xQueueSemaphoreTake$47$E:
    3489 00094f       $C$L142:    
    3490 00094f       $C$DW$L$_xQueueSemaphoreTake$48$B:
    3491                      .dwpsn  file "../FreeRTOS/Source/queue.c",line 1534,column 3,is_stmt
    3492              $C$DW$307       .dwtag  DW_TAG_TI_branch
    3493                      .dwattr $C$DW$307, DW_AT_low_pc(0x00)
    3494                      .dwattr $C$DW$307, DW_AT_name("_vTaskSuspendAll")
    3495                      .dwattr $C$DW$307, DW_AT_TI_call
    3496 00094f 6C00          CALL #_vTaskSuspendAll ; |1534| 
         000951 0000!
    3497                                                      ; call occurs [#_vTaskSuspendAll] ; |1534| 
    3498                      .dwpsn  file "../FreeRTOS/Source/queue.c",line 1535,column 3,is_stmt
    3499 000953 20     nop
    3500 000954 46B3   bset INTM
    3501 000956 F731          ADD #1, *(#_usCriticalNesting) ; |1535| 
         000958 0001 
         00095a 0000 
         00095c 00!  
    3502 00095d 20            NOP
    3503 00095e 20            NOP
    3504 00095f ED14          MOV dbl(*SP(#10)), XAR3
         000961 BF   
    3505 000962 F06D          CMP *AR3(#31) == #-1, TC1 ; |1535| 
         000964 FFFF 
         000966 001F 
    3506 000968 62F4          BCC $C$L143,!TC1 ; |1535| 
    3507                                                      ; branchcc occurs ; |1535| 
    3508 00096a       $C$DW$L$_xQueueSemaphoreTake$48$E:
    3509 00096a       $C$DW$L$_xQueueSemaphoreTake$49$B:
    3510 00096a E66D          MOV #0, *AR3(#31) ; |1535| 
TMS320C55x Assembler PC v4.4.1 Sat Sep 15 01:52:39 2018

Tools Copyright (c) 1996-2012 Texas Instruments Incorporated
queue.asm                                                            PAGE   74

         00096c 0000 
         00096e 1F   
    3511 00096f       $C$DW$L$_xQueueSemaphoreTake$49$E:
    3512 00096f       $C$L143:    
    3513 00096f       $C$DW$L$_xQueueSemaphoreTake$50$B:
    3514 00096f ED14          MOV dbl(*SP(#10)), XAR3
         000971 BF   
    3515 000972 F06D          CMP *AR3(#32) == #-1, TC1 ; |1535| 
         000974 FFFF 
         000976 0020 
    3516 000978 62F4          BCC $C$L144,!TC1 ; |1535| 
    3517                                                      ; branchcc occurs ; |1535| 
    3518 00097a       $C$DW$L$_xQueueSemaphoreTake$50$E:
    3519 00097a       $C$DW$L$_xQueueSemaphoreTake$51$B:
    3520 00097a E66D          MOV #0, *AR3(#32) ; |1535| 
         00097c 0000 
         00097e 20   
    3521 00097f       $C$DW$L$_xQueueSemaphoreTake$51$E:
    3522 00097f       $C$L144:    
    3523 00097f       $C$DW$L$_xQueueSemaphoreTake$52$B:
    3524 00097f A931          MOV *(#_usCriticalNesting), AR1 ; |1535| 
         000981 0000 
         000983 00!  
    3525 000984 0409          BCC $C$L145,AR1 == #0 ; |1535| 
         000986 14   
    3526                                                      ; branchcc occurs ; |1535| 
    3527 000987       $C$DW$L$_xQueueSemaphoreTake$52$E:
    3528 000987       $C$DW$L$_xQueueSemaphoreTake$53$B:
    3529 000987 F731          SUB #1, *(#_usCriticalNesting) ; |1535| 
         000989 FFFF 
         00098b 0000 
         00098d 00!  
    3530 00098e 20            NOP
    3531 00098f 20            NOP
    3532 000990 20            NOP
    3533 000991 A931          MOV *(#_usCriticalNesting), AR1 ; |1535| 
         000993 0000 
         000995 00!  
    3534 000996 6199          BCC $C$L145,AR1 != #0 ; |1535| 
    3535                                                      ; branchcc occurs ; |1535| 
    3536 000998       $C$DW$L$_xQueueSemaphoreTake$53$E:
    3537 000998       $C$DW$L$_xQueueSemaphoreTake$54$B:
    3538 000998 20     nop
    3539 000999 46B2   bclr INTM
    3540 00099b       $C$DW$L$_xQueueSemaphoreTake$54$E:
    3541 00099b       $C$L145:    
    3542 00099b       $C$DW$L$_xQueueSemaphoreTake$55$B:
    3543                      .dwpsn  file "../FreeRTOS/Source/queue.c",line 1538,column 3,is_stmt
    3544 00099b EC0C          AMAR *SP(#6), XAR0
         00099d 8E   
    3545 00099e EC04          AMAR *SP(#2), XAR1
         0009a0 9E   
    3546              $C$DW$308       .dwtag  DW_TAG_TI_branch
    3547                      .dwattr $C$DW$308, DW_AT_low_pc(0x00)
    3548                      .dwattr $C$DW$308, DW_AT_name("_xTaskCheckForTimeOut")
TMS320C55x Assembler PC v4.4.1 Sat Sep 15 01:52:39 2018

Tools Copyright (c) 1996-2012 Texas Instruments Incorporated
queue.asm                                                            PAGE   75

    3549                      .dwattr $C$DW$308, DW_AT_TI_call
    3550 0009a1 6C00          CALL #_xTaskCheckForTimeOut ; |1538| 
         0009a3 0000!
    3551                                                      ; call occurs [#_xTaskCheckForTimeOut] ; |1538| 
    3552 0009a5 0414          BCC $C$L148,T0 != #0 ; |1538| 
         0009a7 75   
    3553                                                      ; branchcc occurs ; |1538| 
    3554 0009a8       $C$DW$L$_xQueueSemaphoreTake$55$E:
    3555 0009a8       $C$DW$L$_xQueueSemaphoreTake$56$B:
    3556                      .dwpsn  file "../FreeRTOS/Source/queue.c",line 1544,column 4,is_stmt
    3557 0009a8 ED14          MOV dbl(*SP(#10)), XAR0
         0009aa 8F   
    3558              $C$DW$309       .dwtag  DW_TAG_TI_branch
    3559                      .dwattr $C$DW$309, DW_AT_low_pc(0x00)
    3560                      .dwattr $C$DW$309, DW_AT_name("_prvIsQueueEmpty")
    3561                      .dwattr $C$DW$309, DW_AT_TI_call
    3562 0009ab 0807          CALL #_prvIsQueueEmpty ; |1544| 
         0009ad 0E   
    3563                                                      ; call occurs [#_prvIsQueueEmpty] ; |1544| 
    3564 0009ae 0404          BCC $C$L147,T0 == #0 ; |1544| 
         0009b0 5F   
    3565                                                      ; branchcc occurs ; |1544| 
    3566 0009b1       $C$DW$L$_xQueueSemaphoreTake$56$E:
    3567 0009b1       $C$DW$L$_xQueueSemaphoreTake$57$B:
    3568                      .dwpsn  file "../FreeRTOS/Source/queue.c",line 1550,column 6,is_stmt
    3569 0009b1 ED14          MOV dbl(*SP(#10)), XAR3
         0009b3 BF   
    3570 0009b4 ED61          MOV dbl(*AR3), XAR3
         0009b6 BF   
    3571 0009b7 90B0          MOV XAR3, AC0
    3572 0009b9 0410          BCC $C$L146,AC0 != #0 ; |1550| 
         0009bb 32   
    3573                                                      ; branchcc occurs ; |1550| 
    3574 0009bc       $C$DW$L$_xQueueSemaphoreTake$57$E:
    3575 0009bc       $C$DW$L$_xQueueSemaphoreTake$58$B:
    3576                      .dwpsn  file "../FreeRTOS/Source/queue.c",line 1552,column 7,is_stmt
    3577 0009bc 20     nop
    3578 0009bd 46B3   bset INTM
    3579 0009bf F731          ADD #1, *(#_usCriticalNesting) ; |1552| 
         0009c1 0001 
         0009c3 0000 
         0009c5 00!  
    3580                      .dwpsn  file "../FreeRTOS/Source/queue.c",line 1554,column 8,is_stmt
    3581 0009c6 ED14          MOV dbl(*SP(#10)), XAR3
         0009c8 BF   
    3582 0009c9 ED79          MOV dbl(*AR3(short(#4))), XAR0
         0009cb 8F   
    3583              $C$DW$310       .dwtag  DW_TAG_TI_branch
    3584                      .dwattr $C$DW$310, DW_AT_low_pc(0x00)
    3585                      .dwattr $C$DW$310, DW_AT_name("_xTaskPriorityInherit")
    3586                      .dwattr $C$DW$310, DW_AT_TI_call
    3587 0009cc 6C00          CALL #_xTaskPriorityInherit ; |1554| 
         0009ce 0000!
    3588                                                      ; call occurs [#_xTaskPriorityInherit] ; |1554| 
    3589 0009d0 C418          MOV T0, *SP(#12) ; |1554| 
TMS320C55x Assembler PC v4.4.1 Sat Sep 15 01:52:39 2018

Tools Copyright (c) 1996-2012 Texas Instruments Incorporated
queue.asm                                                            PAGE   76

    3590                      .dwpsn  file "../FreeRTOS/Source/queue.c",line 1556,column 7,is_stmt
    3591 0009d2 A931          MOV *(#_usCriticalNesting), AR1 ; |1556| 
         0009d4 0000 
         0009d6 00!  
    3592 0009d7 0409          BCC $C$L146,AR1 == #0 ; |1556| 
         0009d9 14   
    3593                                                      ; branchcc occurs ; |1556| 
    3594 0009da       $C$DW$L$_xQueueSemaphoreTake$58$E:
    3595 0009da       $C$DW$L$_xQueueSemaphoreTake$59$B:
    3596 0009da F731          SUB #1, *(#_usCriticalNesting) ; |1556| 
         0009dc FFFF 
         0009de 0000 
         0009e0 00!  
    3597 0009e1 20            NOP
    3598 0009e2 20            NOP
    3599 0009e3 20            NOP
    3600 0009e4 A931          MOV *(#_usCriticalNesting), AR1 ; |1556| 
         0009e6 0000 
         0009e8 00!  
    3601 0009e9 6199          BCC $C$L146,AR1 != #0 ; |1556| 
    3602                                                      ; branchcc occurs ; |1556| 
    3603 0009eb       $C$DW$L$_xQueueSemaphoreTake$59$E:
    3604 0009eb       $C$DW$L$_xQueueSemaphoreTake$60$B:
    3605 0009eb 20     nop
    3606 0009ec 46B2   bclr INTM
    3607                      .dwpsn  file "../FreeRTOS/Source/queue.c",line 1557,column 6,is_stmt
    3608 0009ee       $C$DW$L$_xQueueSemaphoreTake$60$E:
    3609 0009ee       $C$L146:    
    3610 0009ee       $C$DW$L$_xQueueSemaphoreTake$61$B:
    3611                      .dwpsn  file "../FreeRTOS/Source/queue.c",line 1565,column 5,is_stmt
    3612 0009ee ED14          MOV dbl(*SP(#10)), XAR0
         0009f0 8F   
    3613              
    3614                      AADD #18, AR0 ; |1565| 
    3615 0009f1 8E04  ||      MOV dbl(*SP(#2)), AC0 ; |1565| 
         0009f3 8D1C 
         0009f5 0812 
    3616              
    3617              $C$DW$311       .dwtag  DW_TAG_TI_branch
    3618                      .dwattr $C$DW$311, DW_AT_low_pc(0x00)
    3619                      .dwattr $C$DW$311, DW_AT_name("_vTaskPlaceOnEventList")
    3620                      .dwattr $C$DW$311, DW_AT_TI_call
    3621 0009f7 6C00          CALL #_vTaskPlaceOnEventList ; |1565| 
         0009f9 0000!
    3622                                                      ; call occurs [#_vTaskPlaceOnEventList] ; |1565| 
    3623                      .dwpsn  file "../FreeRTOS/Source/queue.c",line 1566,column 5,is_stmt
    3624 0009fb ED14          MOV dbl(*SP(#10)), XAR0
         0009fd 8F   
    3625              $C$DW$312       .dwtag  DW_TAG_TI_branch
    3626                      .dwattr $C$DW$312, DW_AT_low_pc(0x00)
    3627                      .dwattr $C$DW$312, DW_AT_name("_prvUnlockQueue")
    3628                      .dwattr $C$DW$312, DW_AT_TI_call
    3629 0009fe 0805          CALL #_prvUnlockQueue ; |1566| 
         000a00 D7   
    3630                                                      ; call occurs [#_prvUnlockQueue] ; |1566| 
TMS320C55x Assembler PC v4.4.1 Sat Sep 15 01:52:39 2018

Tools Copyright (c) 1996-2012 Texas Instruments Incorporated
queue.asm                                                            PAGE   77

    3631                      .dwpsn  file "../FreeRTOS/Source/queue.c",line 1567,column 5,is_stmt
    3632              $C$DW$313       .dwtag  DW_TAG_TI_branch
    3633                      .dwattr $C$DW$313, DW_AT_low_pc(0x00)
    3634                      .dwattr $C$DW$313, DW_AT_name("_xTaskResumeAll")
    3635                      .dwattr $C$DW$313, DW_AT_TI_call
    3636 000a01 6C00          CALL #_xTaskResumeAll ; |1567| 
         000a03 0000!
    3637                                                      ; call occurs [#_xTaskResumeAll] ; |1567| 
    3638 000a05 6D14          BCC $C$L129,T0 != #0 ; |1567| 
         000a07 FE6C 
    3639                                                      ; branchcc occurs ; |1567| 
    3640 000a09       $C$DW$L$_xQueueSemaphoreTake$61$E:
    3641 000a09       $C$DW$L$_xQueueSemaphoreTake$62$B:
    3642                      .dwpsn  file "../FreeRTOS/Source/queue.c",line 1569,column 6,is_stmt
    3643              $C$DW$314       .dwtag  DW_TAG_TI_branch
    3644                      .dwattr $C$DW$314, DW_AT_low_pc(0x00)
    3645                      .dwattr $C$DW$314, DW_AT_name("_vPortYield")
    3646                      .dwattr $C$DW$314, DW_AT_TI_call
    3647 000a09 6C00          CALL #_vPortYield ; |1569| 
         000a0b 0000!
    3648                                                      ; call occurs [#_vPortYield] ; |1569| 
    3649                      .dwpsn  file "../FreeRTOS/Source/queue.c",line 1570,column 5,is_stmt
    3650 000a0d 06FE          B $C$L129 ; |1570| 
         000a0f 65   
    3651                                                      ; branch occurs ; |1570| 
    3652 000a10       $C$DW$L$_xQueueSemaphoreTake$62$E:
    3653 000a10       $C$L147:    
    3654 000a10       $C$DW$L$_xQueueSemaphoreTake$64$B:
    3655                      .dwpsn  file "../FreeRTOS/Source/queue.c",line 1580,column 5,is_stmt
    3656 000a10 ED14          MOV dbl(*SP(#10)), XAR0
         000a12 8F   
    3657              $C$DW$315       .dwtag  DW_TAG_TI_branch
    3658                      .dwattr $C$DW$315, DW_AT_low_pc(0x00)
    3659                      .dwattr $C$DW$315, DW_AT_name("_prvUnlockQueue")
    3660                      .dwattr $C$DW$315, DW_AT_TI_call
    3661 000a13 0805          CALL #_prvUnlockQueue ; |1580| 
         000a15 C2   
    3662                                                      ; call occurs [#_prvUnlockQueue] ; |1580| 
    3663                      .dwpsn  file "../FreeRTOS/Source/queue.c",line 1581,column 5,is_stmt
    3664              $C$DW$316       .dwtag  DW_TAG_TI_branch
    3665                      .dwattr $C$DW$316, DW_AT_low_pc(0x00)
    3666                      .dwattr $C$DW$316, DW_AT_name("_xTaskResumeAll")
    3667                      .dwattr $C$DW$316, DW_AT_TI_call
    3668 000a16 6C00          CALL #_xTaskResumeAll ; |1581| 
         000a18 0000!
    3669                                                      ; call occurs [#_xTaskResumeAll] ; |1581| 
    3670                      .dwpsn  file "../FreeRTOS/Source/queue.c",line 1583,column 3,is_stmt
    3671 000a1a 06FE          B $C$L129 ; |1583| 
         000a1c 58   
    3672                                                      ; branch occurs ; |1583| 
    3673 000a1d       $C$DW$L$_xQueueSemaphoreTake$64$E:
    3674 000a1d       $C$L148:    
    3675 000a1d       $C$DW$L$_xQueueSemaphoreTake$65$B:
    3676                      .dwpsn  file "../FreeRTOS/Source/queue.c",line 1587,column 4,is_stmt
    3677 000a1d ED14          MOV dbl(*SP(#10)), XAR0
TMS320C55x Assembler PC v4.4.1 Sat Sep 15 01:52:39 2018

Tools Copyright (c) 1996-2012 Texas Instruments Incorporated
queue.asm                                                            PAGE   78

         000a1f 8F   
    3678              $C$DW$317       .dwtag  DW_TAG_TI_branch
    3679                      .dwattr $C$DW$317, DW_AT_low_pc(0x00)
    3680                      .dwattr $C$DW$317, DW_AT_name("_prvUnlockQueue")
    3681                      .dwattr $C$DW$317, DW_AT_TI_call
    3682 000a20 0805          CALL #_prvUnlockQueue ; |1587| 
         000a22 B5   
    3683                                                      ; call occurs [#_prvUnlockQueue] ; |1587| 
    3684                      .dwpsn  file "../FreeRTOS/Source/queue.c",line 1588,column 4,is_stmt
    3685              $C$DW$318       .dwtag  DW_TAG_TI_branch
    3686                      .dwattr $C$DW$318, DW_AT_low_pc(0x00)
    3687                      .dwattr $C$DW$318, DW_AT_name("_xTaskResumeAll")
    3688                      .dwattr $C$DW$318, DW_AT_TI_call
    3689 000a23 6C00          CALL #_xTaskResumeAll ; |1588| 
         000a25 0000!
    3690                                                      ; call occurs [#_xTaskResumeAll] ; |1588| 
    3691                      .dwpsn  file "../FreeRTOS/Source/queue.c",line 1594,column 4,is_stmt
    3692 000a27 ED14          MOV dbl(*SP(#10)), XAR0
         000a29 8F   
    3693              $C$DW$319       .dwtag  DW_TAG_TI_branch
    3694                      .dwattr $C$DW$319, DW_AT_low_pc(0x00)
    3695                      .dwattr $C$DW$319, DW_AT_name("_prvIsQueueEmpty")
    3696                      .dwattr $C$DW$319, DW_AT_TI_call
    3697 000a2a 0806          CALL #_prvIsQueueEmpty ; |1594| 
         000a2c 8F   
    3698                                                      ; call occurs [#_prvIsQueueEmpty] ; |1594| 
    3699 000a2d 6D04          BCC $C$L129,T0 == #0 ; |1594| 
         000a2f FE44 
    3700                                                      ; branchcc occurs ; |1594| 
    3701 000a31       $C$DW$L$_xQueueSemaphoreTake$65$E:
    3702                      .dwpsn  file "../FreeRTOS/Source/queue.c",line 1601,column 6,is_stmt
    3703 000a31 A918          MOV *SP(#12), AR1 ; |1601| 
    3704 000a33 0409          BCC $C$L149,AR1 == #0 ; |1601| 
         000a35 38   
    3705                                                      ; branchcc occurs ; |1601| 
    3706                      .dwpsn  file "../FreeRTOS/Source/queue.c",line 1603,column 7,is_stmt
    3707 000a36 20     nop
    3708 000a37 46B3   bset INTM
    3709 000a39 F731          ADD #1, *(#_usCriticalNesting) ; |1603| 
         000a3b 0001 
         000a3d 0000 
         000a3f 00!  
    3710              
    3711              $C$DW$320       .dwtag  DW_TAG_lexical_block, DW_AT_low_pc(0x00), DW_AT_high_pc(0x00)
    3712              $C$DW$321       .dwtag  DW_TAG_variable, DW_AT_name("uxHighestWaitingPriority")
    3713                      .dwattr $C$DW$321, DW_AT_TI_symbol_name("_uxHighestWaitingPriority")
    3714                      .dwattr $C$DW$321, DW_AT_type(*$C$DW$T$32)
    3715                      .dwattr $C$DW$321, DW_AT_location[DW_OP_bregx 0x24 13]
    3716                      .dwpsn  file "../FreeRTOS/Source/queue.c",line 1612,column 8,is_stmt
    3717 000a40 ED14          MOV dbl(*SP(#10)), XAR0
         000a42 8F   
    3718              $C$DW$322       .dwtag  DW_TAG_TI_branch
    3719                      .dwattr $C$DW$322, DW_AT_low_pc(0x00)
    3720                      .dwattr $C$DW$322, DW_AT_name("_prvGetDisinheritPriorityAfterTimeout")
    3721                      .dwattr $C$DW$322, DW_AT_TI_call
TMS320C55x Assembler PC v4.4.1 Sat Sep 15 01:52:39 2018

Tools Copyright (c) 1996-2012 Texas Instruments Incorporated
queue.asm                                                            PAGE   79

    3722 000a43 0804          CALL #_prvGetDisinheritPriorityAfterTimeout ; |1612| 
         000a45 1E   
    3723                                                      ; call occurs [#_prvGetDisinheritPriorityAfterTimeout] ; |1612| 
    3724 000a46 C41A          MOV T0, *SP(#13) ; |1612| 
    3725                      .dwpsn  file "../FreeRTOS/Source/queue.c",line 1613,column 8,is_stmt
    3726 000a48 ED14          MOV dbl(*SP(#10)), XAR3
         000a4a BF   
    3727 000a4b ED79          MOV dbl(*AR3(short(#4))), XAR0
         000a4d 8F   
    3728              $C$DW$323       .dwtag  DW_TAG_TI_branch
    3729                      .dwattr $C$DW$323, DW_AT_low_pc(0x00)
    3730                      .dwattr $C$DW$323, DW_AT_name("_vTaskPriorityDisinheritAfterTimeout")
    3731                      .dwattr $C$DW$323, DW_AT_TI_call
    3732 000a4e 6C00          CALL #_vTaskPriorityDisinheritAfterTimeout ; |1613| 
         000a50 0000!
    3733                                                      ; call occurs [#_vTaskPriorityDisinheritAfterTimeout] ; |1613| 
    3734                      .dwendtag $C$DW$320
    3735              
    3736                      .dwpsn  file "../FreeRTOS/Source/queue.c",line 1615,column 7,is_stmt
    3737 000a52 A931          MOV *(#_usCriticalNesting), AR1 ; |1615| 
         000a54 0000 
         000a56 00!  
    3738 000a57 0409          BCC $C$L149,AR1 == #0 ; |1615| 
         000a59 14   
    3739                                                      ; branchcc occurs ; |1615| 
    3740 000a5a F731          SUB #1, *(#_usCriticalNesting) ; |1615| 
         000a5c FFFF 
         000a5e 0000 
         000a60 00!  
    3741 000a61 20            NOP
    3742 000a62 20            NOP
    3743 000a63 20            NOP
    3744 000a64 A931          MOV *(#_usCriticalNesting), AR1 ; |1615| 
         000a66 0000 
         000a68 00!  
    3745 000a69 6199          BCC $C$L149,AR1 != #0 ; |1615| 
    3746                                                      ; branchcc occurs ; |1615| 
    3747 000a6b 20     nop
    3748 000a6c 46B2   bclr INTM
    3749 000a6e       $C$L149:    
    3750                      .dwpsn  file "../FreeRTOS/Source/queue.c",line 1621,column 5,is_stmt
    3751              
    3752 000a6e 4A00          B $C$L150 ; |1621| 
    3753 000a70 3D04  ||      MOV #0, T0
    3754              
    3755                                                      ; branch occurs ; |1621| 
    3756 000a72       $C$L150:    
    3757                      .dwpsn  file "../FreeRTOS/Source/queue.c",line 1629,column 1,is_stmt
    3758 000a72 4E0F          AADD #15, SP
    3759                      .dwcfi  cfa_offset, 3
    3760 000a74 5072          POP T3
    3761                      .dwcfi  restore_reg, 15
    3762                      .dwcfi  cfa_offset, 2
    3763 000a76 5062          POP T2
    3764                      .dwcfi  restore_reg, 14
TMS320C55x Assembler PC v4.4.1 Sat Sep 15 01:52:39 2018

Tools Copyright (c) 1996-2012 Texas Instruments Incorporated
queue.asm                                                            PAGE   80

    3765                      .dwcfi  cfa_offset, 1
    3766              $C$DW$324       .dwtag  DW_TAG_TI_branch
    3767                      .dwattr $C$DW$324, DW_AT_low_pc(0x00)
    3768                      .dwattr $C$DW$324, DW_AT_TI_return
    3769 000a78 4804          RET
    3770                                                      ; return occurs
    3771              
    3772              $C$DW$325       .dwtag  DW_TAG_TI_loop
    3773                      .dwattr $C$DW$325, DW_AT_name("F:\eZdsp_DBG\eZDSP_5535_Files\ccsws2\test\Debug\queue.asm:$C$L137:1:15
    3774                      .dwattr $C$DW$325, DW_AT_TI_begin_file("../FreeRTOS/Source/queue.c")
    3775                      .dwattr $C$DW$325, DW_AT_TI_begin_line(0x5e1)
    3776                      .dwattr $C$DW$325, DW_AT_TI_end_line(0x5e1)
    3777              $C$DW$326       .dwtag  DW_TAG_TI_loop_range
    3778                      .dwattr $C$DW$326, DW_AT_low_pc($C$DW$L$_xQueueSemaphoreTake$37$B)
    3779                      .dwattr $C$DW$326, DW_AT_high_pc($C$DW$L$_xQueueSemaphoreTake$37$E)
    3780                      .dwendtag $C$DW$325
    3781              
    3782              
    3783              $C$DW$327       .dwtag  DW_TAG_TI_loop
    3784                      .dwattr $C$DW$327, DW_AT_name("F:\eZdsp_DBG\eZDSP_5535_Files\ccsws2\test\Debug\queue.asm:$C$L129:1:15
    3785                      .dwattr $C$DW$327, DW_AT_TI_begin_file("../FreeRTOS/Source/queue.c")
    3786                      .dwattr $C$DW$327, DW_AT_TI_begin_line(0x5a2)
    3787                      .dwattr $C$DW$327, DW_AT_TI_end_line(0x65c)
    3788              $C$DW$328       .dwtag  DW_TAG_TI_loop_range
    3789                      .dwattr $C$DW$328, DW_AT_low_pc($C$DW$L$_xQueueSemaphoreTake$17$B)
    3790                      .dwattr $C$DW$328, DW_AT_high_pc($C$DW$L$_xQueueSemaphoreTake$17$E)
    3791              $C$DW$329       .dwtag  DW_TAG_TI_loop_range
    3792                      .dwattr $C$DW$329, DW_AT_low_pc($C$DW$L$_xQueueSemaphoreTake$32$B)
    3793                      .dwattr $C$DW$329, DW_AT_high_pc($C$DW$L$_xQueueSemaphoreTake$32$E)
    3794              $C$DW$330       .dwtag  DW_TAG_TI_loop_range
    3795                      .dwattr $C$DW$330, DW_AT_low_pc($C$DW$L$_xQueueSemaphoreTake$43$B)
    3796                      .dwattr $C$DW$330, DW_AT_high_pc($C$DW$L$_xQueueSemaphoreTake$43$E)
    3797              $C$DW$331       .dwtag  DW_TAG_TI_loop_range
    3798                      .dwattr $C$DW$331, DW_AT_low_pc($C$DW$L$_xQueueSemaphoreTake$44$B)
    3799                      .dwattr $C$DW$331, DW_AT_high_pc($C$DW$L$_xQueueSemaphoreTake$44$E)
    3800              $C$DW$332       .dwtag  DW_TAG_TI_loop_range
    3801                      .dwattr $C$DW$332, DW_AT_low_pc($C$DW$L$_xQueueSemaphoreTake$45$B)
    3802                      .dwattr $C$DW$332, DW_AT_high_pc($C$DW$L$_xQueueSemaphoreTake$45$E)
    3803              $C$DW$333       .dwtag  DW_TAG_TI_loop_range
    3804                      .dwattr $C$DW$333, DW_AT_low_pc($C$DW$L$_xQueueSemaphoreTake$46$B)
    3805                      .dwattr $C$DW$333, DW_AT_high_pc($C$DW$L$_xQueueSemaphoreTake$46$E)
    3806              $C$DW$334       .dwtag  DW_TAG_TI_loop_range
    3807                      .dwattr $C$DW$334, DW_AT_low_pc($C$DW$L$_xQueueSemaphoreTake$47$B)
    3808                      .dwattr $C$DW$334, DW_AT_high_pc($C$DW$L$_xQueueSemaphoreTake$47$E)
    3809              $C$DW$335       .dwtag  DW_TAG_TI_loop_range
    3810                      .dwattr $C$DW$335, DW_AT_low_pc($C$DW$L$_xQueueSemaphoreTake$48$B)
    3811                      .dwattr $C$DW$335, DW_AT_high_pc($C$DW$L$_xQueueSemaphoreTake$48$E)
    3812              $C$DW$336       .dwtag  DW_TAG_TI_loop_range
    3813                      .dwattr $C$DW$336, DW_AT_low_pc($C$DW$L$_xQueueSemaphoreTake$49$B)
    3814                      .dwattr $C$DW$336, DW_AT_high_pc($C$DW$L$_xQueueSemaphoreTake$49$E)
    3815              $C$DW$337       .dwtag  DW_TAG_TI_loop_range
    3816                      .dwattr $C$DW$337, DW_AT_low_pc($C$DW$L$_xQueueSemaphoreTake$50$B)
    3817                      .dwattr $C$DW$337, DW_AT_high_pc($C$DW$L$_xQueueSemaphoreTake$50$E)
    3818              $C$DW$338       .dwtag  DW_TAG_TI_loop_range
    3819                      .dwattr $C$DW$338, DW_AT_low_pc($C$DW$L$_xQueueSemaphoreTake$51$B)
TMS320C55x Assembler PC v4.4.1 Sat Sep 15 01:52:39 2018

Tools Copyright (c) 1996-2012 Texas Instruments Incorporated
queue.asm                                                            PAGE   81

    3820                      .dwattr $C$DW$338, DW_AT_high_pc($C$DW$L$_xQueueSemaphoreTake$51$E)
    3821              $C$DW$339       .dwtag  DW_TAG_TI_loop_range
    3822                      .dwattr $C$DW$339, DW_AT_low_pc($C$DW$L$_xQueueSemaphoreTake$52$B)
    3823                      .dwattr $C$DW$339, DW_AT_high_pc($C$DW$L$_xQueueSemaphoreTake$52$E)
    3824              $C$DW$340       .dwtag  DW_TAG_TI_loop_range
    3825                      .dwattr $C$DW$340, DW_AT_low_pc($C$DW$L$_xQueueSemaphoreTake$53$B)
    3826                      .dwattr $C$DW$340, DW_AT_high_pc($C$DW$L$_xQueueSemaphoreTake$53$E)
    3827              $C$DW$341       .dwtag  DW_TAG_TI_loop_range
    3828                      .dwattr $C$DW$341, DW_AT_low_pc($C$DW$L$_xQueueSemaphoreTake$54$B)
    3829                      .dwattr $C$DW$341, DW_AT_high_pc($C$DW$L$_xQueueSemaphoreTake$54$E)
    3830              $C$DW$342       .dwtag  DW_TAG_TI_loop_range
    3831                      .dwattr $C$DW$342, DW_AT_low_pc($C$DW$L$_xQueueSemaphoreTake$55$B)
    3832                      .dwattr $C$DW$342, DW_AT_high_pc($C$DW$L$_xQueueSemaphoreTake$55$E)
    3833              $C$DW$343       .dwtag  DW_TAG_TI_loop_range
    3834                      .dwattr $C$DW$343, DW_AT_low_pc($C$DW$L$_xQueueSemaphoreTake$56$B)
    3835                      .dwattr $C$DW$343, DW_AT_high_pc($C$DW$L$_xQueueSemaphoreTake$56$E)
    3836              $C$DW$344       .dwtag  DW_TAG_TI_loop_range
    3837                      .dwattr $C$DW$344, DW_AT_low_pc($C$DW$L$_xQueueSemaphoreTake$57$B)
    3838                      .dwattr $C$DW$344, DW_AT_high_pc($C$DW$L$_xQueueSemaphoreTake$57$E)
    3839              $C$DW$345       .dwtag  DW_TAG_TI_loop_range
    3840                      .dwattr $C$DW$345, DW_AT_low_pc($C$DW$L$_xQueueSemaphoreTake$58$B)
    3841                      .dwattr $C$DW$345, DW_AT_high_pc($C$DW$L$_xQueueSemaphoreTake$58$E)
    3842              $C$DW$346       .dwtag  DW_TAG_TI_loop_range
    3843                      .dwattr $C$DW$346, DW_AT_low_pc($C$DW$L$_xQueueSemaphoreTake$59$B)
    3844                      .dwattr $C$DW$346, DW_AT_high_pc($C$DW$L$_xQueueSemaphoreTake$59$E)
    3845              $C$DW$347       .dwtag  DW_TAG_TI_loop_range
    3846                      .dwattr $C$DW$347, DW_AT_low_pc($C$DW$L$_xQueueSemaphoreTake$60$B)
    3847                      .dwattr $C$DW$347, DW_AT_high_pc($C$DW$L$_xQueueSemaphoreTake$60$E)
    3848              $C$DW$348       .dwtag  DW_TAG_TI_loop_range
    3849                      .dwattr $C$DW$348, DW_AT_low_pc($C$DW$L$_xQueueSemaphoreTake$65$B)
    3850                      .dwattr $C$DW$348, DW_AT_high_pc($C$DW$L$_xQueueSemaphoreTake$65$E)
    3851              $C$DW$349       .dwtag  DW_TAG_TI_loop_range
    3852                      .dwattr $C$DW$349, DW_AT_low_pc($C$DW$L$_xQueueSemaphoreTake$64$B)
    3853                      .dwattr $C$DW$349, DW_AT_high_pc($C$DW$L$_xQueueSemaphoreTake$64$E)
    3854              $C$DW$350       .dwtag  DW_TAG_TI_loop_range
    3855                      .dwattr $C$DW$350, DW_AT_low_pc($C$DW$L$_xQueueSemaphoreTake$62$B)
    3856                      .dwattr $C$DW$350, DW_AT_high_pc($C$DW$L$_xQueueSemaphoreTake$62$E)
    3857              $C$DW$351       .dwtag  DW_TAG_TI_loop_range
    3858                      .dwattr $C$DW$351, DW_AT_low_pc($C$DW$L$_xQueueSemaphoreTake$61$B)
    3859                      .dwattr $C$DW$351, DW_AT_high_pc($C$DW$L$_xQueueSemaphoreTake$61$E)
    3860                      .dwendtag $C$DW$327
    3861              
    3862              
    3863              $C$DW$352       .dwtag  DW_TAG_TI_loop
    3864                      .dwattr $C$DW$352, DW_AT_name("F:\eZdsp_DBG\eZDSP_5535_Files\ccsws2\test\Debug\queue.asm:$C$L128:1:15
    3865                      .dwattr $C$DW$352, DW_AT_TI_begin_file("../FreeRTOS/Source/queue.c")
    3866                      .dwattr $C$DW$352, DW_AT_TI_begin_line(0x59a)
    3867                      .dwattr $C$DW$352, DW_AT_TI_end_line(0x59a)
    3868              $C$DW$353       .dwtag  DW_TAG_TI_loop_range
    3869                      .dwattr $C$DW$353, DW_AT_low_pc($C$DW$L$_xQueueSemaphoreTake$16$B)
    3870                      .dwattr $C$DW$353, DW_AT_high_pc($C$DW$L$_xQueueSemaphoreTake$16$E)
    3871                      .dwendtag $C$DW$352
    3872              
    3873              
    3874              $C$DW$354       .dwtag  DW_TAG_TI_loop
TMS320C55x Assembler PC v4.4.1 Sat Sep 15 01:52:39 2018

Tools Copyright (c) 1996-2012 Texas Instruments Incorporated
queue.asm                                                            PAGE   82

    3875                      .dwattr $C$DW$354, DW_AT_name("F:\eZdsp_DBG\eZDSP_5535_Files\ccsws2\test\Debug\queue.asm:$C$L124:1:15
    3876                      .dwattr $C$DW$354, DW_AT_TI_begin_file("../FreeRTOS/Source/queue.c")
    3877                      .dwattr $C$DW$354, DW_AT_TI_begin_line(0x595)
    3878                      .dwattr $C$DW$354, DW_AT_TI_end_line(0x595)
    3879              $C$DW$355       .dwtag  DW_TAG_TI_loop_range
    3880                      .dwattr $C$DW$355, DW_AT_low_pc($C$DW$L$_xQueueSemaphoreTake$8$B)
    3881                      .dwattr $C$DW$355, DW_AT_high_pc($C$DW$L$_xQueueSemaphoreTake$8$E)
    3882                      .dwendtag $C$DW$354
    3883              
    3884              
    3885              $C$DW$356       .dwtag  DW_TAG_TI_loop
    3886                      .dwattr $C$DW$356, DW_AT_name("F:\eZdsp_DBG\eZDSP_5535_Files\ccsws2\test\Debug\queue.asm:$C$L121:1:15
    3887                      .dwattr $C$DW$356, DW_AT_TI_begin_file("../FreeRTOS/Source/queue.c")
    3888                      .dwattr $C$DW$356, DW_AT_TI_begin_line(0x591)
    3889                      .dwattr $C$DW$356, DW_AT_TI_end_line(0x591)
    3890              $C$DW$357       .dwtag  DW_TAG_TI_loop_range
    3891                      .dwattr $C$DW$357, DW_AT_low_pc($C$DW$L$_xQueueSemaphoreTake$3$B)
    3892                      .dwattr $C$DW$357, DW_AT_high_pc($C$DW$L$_xQueueSemaphoreTake$3$E)
    3893                      .dwendtag $C$DW$356
    3894              
    3895                      .dwattr $C$DW$291, DW_AT_TI_end_file("../FreeRTOS/Source/queue.c")
    3896                      .dwattr $C$DW$291, DW_AT_TI_end_line(0x65d)
    3897                      .dwattr $C$DW$291, DW_AT_TI_end_column(0x01)
    3898                      .dwendentry
    3899                      .dwendtag $C$DW$291
    3900              
    3901 000a7a               .sect   ".text"
    3902                      .align 4
    3903                      .global _xQueuePeek
    3904              
    3905              $C$DW$358       .dwtag  DW_TAG_subprogram, DW_AT_name("xQueuePeek")
    3906                      .dwattr $C$DW$358, DW_AT_low_pc(_xQueuePeek)
    3907                      .dwattr $C$DW$358, DW_AT_high_pc(0x00)
    3908                      .dwattr $C$DW$358, DW_AT_TI_symbol_name("_xQueuePeek")
    3909                      .dwattr $C$DW$358, DW_AT_external
    3910                      .dwattr $C$DW$358, DW_AT_type(*$C$DW$T$49)
    3911                      .dwattr $C$DW$358, DW_AT_TI_begin_file("../FreeRTOS/Source/queue.c")
    3912                      .dwattr $C$DW$358, DW_AT_TI_begin_line(0x660)
    3913                      .dwattr $C$DW$358, DW_AT_TI_begin_column(0x0c)
    3914                      .dwattr $C$DW$358, DW_AT_TI_max_frame_size(0x14)
    3915                      .dwpsn  file "../FreeRTOS/Source/queue.c",line 1633,column 1,is_stmt,address _xQueuePeek
    3916              
    3917                      .dwfde $C$DW$CIE, _xQueuePeek
    3918              $C$DW$359       .dwtag  DW_TAG_formal_parameter, DW_AT_name("xQueue")
    3919                      .dwattr $C$DW$359, DW_AT_TI_symbol_name("_xQueue")
    3920                      .dwattr $C$DW$359, DW_AT_type(*$C$DW$T$27)
    3921                      .dwattr $C$DW$359, DW_AT_location[DW_OP_reg17]
    3922              $C$DW$360       .dwtag  DW_TAG_formal_parameter, DW_AT_name("pvBuffer")
    3923                      .dwattr $C$DW$360, DW_AT_TI_symbol_name("_pvBuffer")
    3924                      .dwattr $C$DW$360, DW_AT_type(*$C$DW$T$76)
    3925                      .dwattr $C$DW$360, DW_AT_location[DW_OP_reg19]
    3926              $C$DW$361       .dwtag  DW_TAG_formal_parameter, DW_AT_name("xTicksToWait")
    3927                      .dwattr $C$DW$361, DW_AT_TI_symbol_name("_xTicksToWait")
    3928                      .dwattr $C$DW$361, DW_AT_type(*$C$DW$T$44)
    3929                      .dwattr $C$DW$361, DW_AT_location[DW_OP_reg0]
TMS320C55x Assembler PC v4.4.1 Sat Sep 15 01:52:39 2018

Tools Copyright (c) 1996-2012 Texas Instruments Incorporated
queue.asm                                                            PAGE   83

    3930              ;*******************************************************************************
    3931              ;* FUNCTION NAME: xQueuePeek                                                   *
    3932              ;*                                                                             *
    3933              ;*   Function Uses Regs : AC0,AC0,T0,T2,T3,AR0,XAR0,AR1,XAR1,AR2,XAR2,AR3,XAR3,*
    3934              ;*                        SP,CARRY,TC1,M40,SATA,SATD,RDM,FRCT,SMUL             *
    3935              ;*   Save On Entry Regs : T2,T3                                                *
    3936              ;*   Stack Frame        : Compact (No Frame Pointer, w/ debug)                 *
    3937              ;*   Total Frame Size   : 20 words                                             *
    3938              ;*                        (1 return address/alignment)                         *
    3939              ;*                        (17 local values)                                    *
    3940              ;*                        (2 register save area)                               *
    3941              ;*   Min System Stack   : 1 word                                               *
    3942              ;*******************************************************************************
    3943 000a7c       _xQueuePeek:
    3944                      .dwcfi  cfa_offset, 1
    3945                      .dwcfi  save_reg_to_mem, 91, -1
    3946 000a7c 5066          PSH T2
    3947                      .dwcfi  cfa_offset, 2
    3948                      .dwcfi  save_reg_to_mem, 14, -2
    3949 000a7e 5076          PSH T3
    3950                      .dwcfi  cfa_offset, 3
    3951                      .dwcfi  save_reg_to_mem, 15, -3
    3952 000a80 4EEF          AADD #-17, SP
    3953                      .dwcfi  cfa_offset, 20
    3954              $C$DW$362       .dwtag  DW_TAG_variable, DW_AT_name("xQueue")
    3955                      .dwattr $C$DW$362, DW_AT_TI_symbol_name("_xQueue")
    3956                      .dwattr $C$DW$362, DW_AT_type(*$C$DW$T$27)
    3957                      .dwattr $C$DW$362, DW_AT_location[DW_OP_bregx 0x24 0]
    3958              $C$DW$363       .dwtag  DW_TAG_variable, DW_AT_name("pvBuffer")
    3959                      .dwattr $C$DW$363, DW_AT_TI_symbol_name("_pvBuffer")
    3960                      .dwattr $C$DW$363, DW_AT_type(*$C$DW$T$76)
    3961                      .dwattr $C$DW$363, DW_AT_location[DW_OP_bregx 0x24 2]
    3962              $C$DW$364       .dwtag  DW_TAG_variable, DW_AT_name("xTicksToWait")
    3963                      .dwattr $C$DW$364, DW_AT_TI_symbol_name("_xTicksToWait")
    3964                      .dwattr $C$DW$364, DW_AT_type(*$C$DW$T$44)
    3965                      .dwattr $C$DW$364, DW_AT_location[DW_OP_bregx 0x24 4]
    3966              $C$DW$365       .dwtag  DW_TAG_variable, DW_AT_name("xEntryTimeSet")
    3967                      .dwattr $C$DW$365, DW_AT_TI_symbol_name("_xEntryTimeSet")
    3968                      .dwattr $C$DW$365, DW_AT_type(*$C$DW$T$49)
    3969                      .dwattr $C$DW$365, DW_AT_location[DW_OP_bregx 0x24 6]
    3970              $C$DW$366       .dwtag  DW_TAG_variable, DW_AT_name("xTimeOut")
    3971                      .dwattr $C$DW$366, DW_AT_TI_symbol_name("_xTimeOut")
    3972                      .dwattr $C$DW$366, DW_AT_type(*$C$DW$T$92)
    3973                      .dwattr $C$DW$366, DW_AT_location[DW_OP_bregx 0x24 8]
    3974              $C$DW$367       .dwtag  DW_TAG_variable, DW_AT_name("pcOriginalReadPosition")
    3975                      .dwattr $C$DW$367, DW_AT_TI_symbol_name("_pcOriginalReadPosition")
    3976                      .dwattr $C$DW$367, DW_AT_type(*$C$DW$T$30)
    3977                      .dwattr $C$DW$367, DW_AT_location[DW_OP_bregx 0x24 12]
    3978              $C$DW$368       .dwtag  DW_TAG_variable, DW_AT_name("pxQueue")
    3979                      .dwattr $C$DW$368, DW_AT_TI_symbol_name("_pxQueue")
    3980                      .dwattr $C$DW$368, DW_AT_type(*$C$DW$T$69)
    3981                      .dwattr $C$DW$368, DW_AT_location[DW_OP_bregx 0x24 14]
    3982 000a82 EB08          MOV AC0, dbl(*SP(#4)) ; |1633| 
         000a84 08   
    3983 000a85 EB04          MOV XAR1, dbl(*SP(#2))
TMS320C55x Assembler PC v4.4.1 Sat Sep 15 01:52:39 2018

Tools Copyright (c) 1996-2012 Texas Instruments Incorporated
queue.asm                                                            PAGE   84

         000a87 95   
    3984 000a88 EB00          MOV XAR0, dbl(*SP(#0))
         000a8a 85   
    3985                      .dwpsn  file "../FreeRTOS/Source/queue.c",line 1634,column 12,is_stmt
    3986 000a8b E60C          MOV #0, *SP(#6) ; |1634| 
         000a8d 00   
    3987                      .dwpsn  file "../FreeRTOS/Source/queue.c",line 1637,column 17,is_stmt
    3988 000a8e ED00          MOV dbl(*SP(#0)), XAR3
         000a90 BF   
    3989 000a91 EB1C          MOV XAR3, dbl(*SP(#14))
         000a93 B5   
    3990                      .dwpsn  file "../FreeRTOS/Source/queue.c",line 1640,column 2,is_stmt
    3991 000a94 90B0          MOV XAR3, AC0
    3992 000a96 6290          BCC $C$L152,AC0 != #0 ; |1640| 
    3993                                                      ; branchcc occurs ; |1640| 
    3994 000a98 20     nop
    3995 000a99 46B3   bset INTM
    3996 000a9b       $C$L151:    
    3997 000a9b       $C$DW$L$_xQueuePeek$3$B:
    3998 000a9b 4A7E          B $C$L151 ; |1640| 
    3999                                                      ; branch occurs ; |1640| 
    4000 000a9d       $C$DW$L$_xQueuePeek$3$E:
    4001 000a9d       $C$L152:    
    4002                      .dwpsn  file "../FreeRTOS/Source/queue.c",line 1644,column 2,is_stmt
    4003 000a9d ED04          MOV dbl(*SP(#2)), XAR3
         000a9f BF   
    4004 000aa0 90B0          MOV XAR3, AC0
    4005 000aa2 3C0A          MOV #0, AR2
    4006              
    4007 000aa4 6590          BCC $C$L153,AC0 != #0 ; |1644| 
    4008 000aa6 3D09  ||      MOV #0, AR1
    4009              
    4010                                                      ; branchcc occurs ; |1644| 
    4011 000aa8 ED1C          MOV dbl(*SP(#14)), XAR3
         000aaa BF   
    4012 000aab AB6D          MOV *AR3(#30), AR3 ; |1644| 
         000aad 001E 
    4013 000aaf 610B          BCC $C$L153,AR3 == #0 ; |1644| 
    4014                                                      ; branchcc occurs ; |1644| 
    4015 000ab1 3C1A          MOV #1, AR2
    4016 000ab3       $C$L153:    
    4017 000ab3 611A          BCC $C$L154,AR2 != #0 ; |1644| 
    4018                                                      ; branchcc occurs ; |1644| 
    4019 000ab5 3C19          MOV #1, AR1
    4020 000ab7       $C$L154:    
    4021 000ab7 6299          BCC $C$L156,AR1 != #0 ; |1644| 
    4022                                                      ; branchcc occurs ; |1644| 
    4023 000ab9 20     nop
    4024 000aba 46B3   bset INTM
    4025 000abc       $C$L155:    
    4026 000abc       $C$DW$L$_xQueuePeek$11$B:
    4027 000abc 4A7E          B $C$L155 ; |1644| 
    4028                                                      ; branch occurs ; |1644| 
    4029 000abe       $C$DW$L$_xQueuePeek$11$E:
    4030 000abe       $C$L156:    
TMS320C55x Assembler PC v4.4.1 Sat Sep 15 01:52:39 2018

Tools Copyright (c) 1996-2012 Texas Instruments Incorporated
queue.asm                                                            PAGE   85

    4031                      .dwpsn  file "../FreeRTOS/Source/queue.c",line 1649,column 3,is_stmt
    4032              $C$DW$369       .dwtag  DW_TAG_TI_branch
    4033                      .dwattr $C$DW$369, DW_AT_low_pc(0x00)
    4034                      .dwattr $C$DW$369, DW_AT_name("_xTaskGetSchedulerState")
    4035                      .dwattr $C$DW$369, DW_AT_TI_call
    4036 000abe 6C00          CALL #_xTaskGetSchedulerState ; |1649| 
         000ac0 0000!
    4037                                                      ; call occurs [#_xTaskGetSchedulerState] ; |1649| 
    4038 000ac2 3C07          MOV #0, T3
    4039              
    4040 000ac4 6394          BCC $C$L157,T0 != #0 ; |1649| 
    4041 000ac6 3D06  ||      MOV #0, T2
    4042              
    4043                                                      ; branchcc occurs ; |1649| 
    4044 000ac8 ED08          MOV dbl(*SP(#4)), AC0 ; |1649| 
         000aca 08   
    4045 000acb 6100          BCC $C$L157,AC0 == #0 ; |1649| 
    4046                                                      ; branchcc occurs ; |1649| 
    4047 000acd 3C17          MOV #1, T3
    4048 000acf       $C$L157:    
    4049 000acf 6117          BCC $C$L158,T3 != #0 ; |1649| 
    4050                                                      ; branchcc occurs ; |1649| 
    4051 000ad1 3C16          MOV #1, T2
    4052 000ad3       $C$L158:    
    4053 000ad3 6296          BCC $C$L160,T2 != #0 ; |1649| 
    4054                                                      ; branchcc occurs ; |1649| 
    4055 000ad5 20     nop
    4056 000ad6 46B3   bset INTM
    4057 000ad8       $C$L159:    
    4058 000ad8       $C$DW$L$_xQueuePeek$19$B:
    4059 000ad8 4A7E          B $C$L159 ; |1649| 
    4060                                                      ; branch occurs ; |1649| 
    4061 000ada       $C$DW$L$_xQueuePeek$19$E:
    4062 000ada       $C$L160:    
    4063 000ada       $C$DW$L$_xQueuePeek$20$B:
    4064                      .dwpsn  file "../FreeRTOS/Source/queue.c",line 1659,column 3,is_stmt
    4065 000ada 20     nop
    4066 000adb 46B3   bset INTM
    4067 000add F731          ADD #1, *(#_usCriticalNesting) ; |1659| 
         000adf 0001 
         000ae1 0000 
         000ae3 00!  
    4068 000ae4 20            NOP
    4069 000ae5 20            NOP
    4070              
    4071              $C$DW$370       .dwtag  DW_TAG_lexical_block, DW_AT_low_pc(0x00), DW_AT_high_pc(0x00)
    4072              $C$DW$371       .dwtag  DW_TAG_variable, DW_AT_name("uxMessagesWaiting")
    4073                      .dwattr $C$DW$371, DW_AT_TI_symbol_name("_uxMessagesWaiting")
    4074                      .dwattr $C$DW$371, DW_AT_type(*$C$DW$T$56)
    4075                      .dwattr $C$DW$371, DW_AT_location[DW_OP_bregx 0x24 16]
    4076                      .dwpsn  file "../FreeRTOS/Source/queue.c",line 1661,column 22,is_stmt
    4077 000ae6 ED1C          MOV dbl(*SP(#14)), XAR3
         000ae8 BF   
    4078 000ae9 A96D          MOV *AR3(#28), AR1 ; |1661| 
         000aeb 001C 
TMS320C55x Assembler PC v4.4.1 Sat Sep 15 01:52:39 2018

Tools Copyright (c) 1996-2012 Texas Instruments Incorporated
queue.asm                                                            PAGE   86

    4079 000aed C920          MOV AR1, *SP(#16) ; |1661| 
    4080                      .dwpsn  file "../FreeRTOS/Source/queue.c",line 1665,column 4,is_stmt
    4081 000aef 0409          BCC $C$L165,AR1 == #0 ; |1665| 
         000af1 60   
    4082                                                      ; branchcc occurs ; |1665| 
    4083 000af2       $C$DW$L$_xQueuePeek$20$E:
    4084                      .dwpsn  file "../FreeRTOS/Source/queue.c",line 1670,column 5,is_stmt
    4085 000af2 ED1C          MOV dbl(*SP(#14)), XAR3
         000af4 BF   
    4086 000af5 ED7D          MOV dbl(*AR3(short(#6))), XAR3
         000af7 BF   
    4087 000af8 EB18          MOV XAR3, dbl(*SP(#12))
         000afa B5   
    4088                      .dwpsn  file "../FreeRTOS/Source/queue.c",line 1672,column 5,is_stmt
    4089 000afb ED1C          MOV dbl(*SP(#14)), XAR0
         000afd 8F   
    4090 000afe ED04          MOV dbl(*SP(#2)), XAR1
         000b00 9F   
    4091              $C$DW$372       .dwtag  DW_TAG_TI_branch
    4092                      .dwattr $C$DW$372, DW_AT_low_pc(0x00)
    4093                      .dwattr $C$DW$372, DW_AT_name("_prvCopyDataFromQueue")
    4094                      .dwattr $C$DW$372, DW_AT_TI_call
    4095 000b01 0804          CALL #_prvCopyDataFromQueue ; |1672| 
         000b03 7C   
    4096                                                      ; call occurs [#_prvCopyDataFromQueue] ; |1672| 
    4097                      .dwpsn  file "../FreeRTOS/Source/queue.c",line 1676,column 5,is_stmt
    4098 000b04 ED1C          MOV dbl(*SP(#14)), XAR3
         000b06 BF   
    4099 000b07 ED18          MOV dbl(*SP(#12)), XAR2
         000b09 AF   
    4100 000b0a EB7D          MOV XAR2, dbl(*AR3(short(#6)))
         000b0c A5   
    4101                      .dwpsn  file "../FreeRTOS/Source/queue.c",line 1680,column 5,is_stmt
    4102 000b0d ED1C          MOV dbl(*SP(#14)), XAR3
         000b0f BF   
    4103 000b10 A96D          MOV *AR3(#18), AR1 ; |1680| 
         000b12 0012 
    4104 000b14 6219          BCC $C$L161,AR1 != #0 ; |1680| 
    4105                                                      ; branchcc occurs ; |1680| 
    4106 000b16 3C19          MOV #1, AR1
    4107 000b18 4A02          B $C$L162 ; |1680| 
    4108                                                      ; branch occurs ; |1680| 
    4109 000b1a       $C$L161:    
    4110 000b1a 3C09          MOV #0, AR1
    4111 000b1c       $C$L162:    
    4112 000b1c 0419          BCC $C$L163,AR1 != #0 ; |1680| 
         000b1e 12   
    4113                                                      ; branchcc occurs ; |1680| 
    4114                      .dwpsn  file "../FreeRTOS/Source/queue.c",line 1682,column 6,is_stmt
    4115 000b1f ED1C          MOV dbl(*SP(#14)), XAR0
         000b21 8F   
    4116 000b22 1412          AADD #18, AR0 ; |1682| 
         000b24 84   
    4117              $C$DW$373       .dwtag  DW_TAG_TI_branch
    4118                      .dwattr $C$DW$373, DW_AT_low_pc(0x00)
TMS320C55x Assembler PC v4.4.1 Sat Sep 15 01:52:39 2018

Tools Copyright (c) 1996-2012 Texas Instruments Incorporated
queue.asm                                                            PAGE   87

    4119                      .dwattr $C$DW$373, DW_AT_name("_xTaskRemoveFromEventList")
    4120                      .dwattr $C$DW$373, DW_AT_TI_call
    4121 000b25 6C00          CALL #_xTaskRemoveFromEventList ; |1682| 
         000b27 0000!
    4122                                                      ; call occurs [#_xTaskRemoveFromEventList] ; |1682| 
    4123 000b29 6304          BCC $C$L163,T0 == #0 ; |1682| 
    4124                                                      ; branchcc occurs ; |1682| 
    4125                      .dwpsn  file "../FreeRTOS/Source/queue.c",line 1685,column 7,is_stmt
    4126              $C$DW$374       .dwtag  DW_TAG_TI_branch
    4127                      .dwattr $C$DW$374, DW_AT_low_pc(0x00)
    4128                      .dwattr $C$DW$374, DW_AT_name("_vPortYield")
    4129                      .dwattr $C$DW$374, DW_AT_TI_call
    4130 000b2b 6C00          CALL #_vPortYield ; |1685| 
         000b2d 0000!
    4131                                                      ; call occurs [#_vPortYield] ; |1685| 
    4132                      .dwpsn  file "../FreeRTOS/Source/queue.c",line 1686,column 6,is_stmt
    4133 000b2f 4A00          B $C$L163 ; |1686| 
    4134                                                      ; branch occurs ; |1686| 
    4135 000b31       $C$L163:    
    4136                      .dwpsn  file "../FreeRTOS/Source/queue.c",line 1697,column 5,is_stmt
    4137 000b31 A931          MOV *(#_usCriticalNesting), AR1 ; |1697| 
         000b33 0000 
         000b35 00!  
    4138 000b36 0409          BCC $C$L164,AR1 == #0 ; |1697| 
         000b38 14   
    4139                                                      ; branchcc occurs ; |1697| 
    4140 000b39 F731          SUB #1, *(#_usCriticalNesting) ; |1697| 
         000b3b FFFF 
         000b3d 0000 
         000b3f 00!  
    4141 000b40 20            NOP
    4142 000b41 20            NOP
    4143 000b42 20            NOP
    4144 000b43 A931          MOV *(#_usCriticalNesting), AR1 ; |1697| 
         000b45 0000 
         000b47 00!  
    4145 000b48 6199          BCC $C$L164,AR1 != #0 ; |1697| 
    4146                                                      ; branchcc occurs ; |1697| 
    4147 000b4a 20     nop
    4148 000b4b 46B2   bclr INTM
    4149 000b4d       $C$L164:    
    4150                      .dwpsn  file "../FreeRTOS/Source/queue.c",line 1698,column 5,is_stmt
    4151              
    4152 000b4d 0600          B $C$L175 ; |1698| 
         000b4f FA   
    4153 000b50 3D14  ||      MOV #1, T0
    4154              
    4155                                                      ; branch occurs ; |1698| 
    4156 000b52       $C$L165:    
    4157 000b52       $C$DW$L$_xQueuePeek$33$B:
    4158                      .dwpsn  file "../FreeRTOS/Source/queue.c",line 1702,column 5,is_stmt
    4159 000b52 ED08          MOV dbl(*SP(#4)), AC0 ; |1702| 
         000b54 08   
    4160 000b55 0410          BCC $C$L167,AC0 != #0 ; |1702| 
         000b57 21   
TMS320C55x Assembler PC v4.4.1 Sat Sep 15 01:52:39 2018

Tools Copyright (c) 1996-2012 Texas Instruments Incorporated
queue.asm                                                            PAGE   88

    4161                                                      ; branchcc occurs ; |1702| 
    4162 000b58       $C$DW$L$_xQueuePeek$33$E:
    4163                      .dwpsn  file "../FreeRTOS/Source/queue.c",line 1706,column 6,is_stmt
    4164 000b58 A931          MOV *(#_usCriticalNesting), AR1 ; |1706| 
         000b5a 0000 
         000b5c 00!  
    4165 000b5d 0409          BCC $C$L166,AR1 == #0 ; |1706| 
         000b5f 14   
    4166                                                      ; branchcc occurs ; |1706| 
    4167 000b60 F731          SUB #1, *(#_usCriticalNesting) ; |1706| 
         000b62 FFFF 
         000b64 0000 
         000b66 00!  
    4168 000b67 20            NOP
    4169 000b68 20            NOP
    4170 000b69 20            NOP
    4171 000b6a A931          MOV *(#_usCriticalNesting), AR1 ; |1706| 
         000b6c 0000 
         000b6e 00!  
    4172 000b6f 6199          BCC $C$L166,AR1 != #0 ; |1706| 
    4173                                                      ; branchcc occurs ; |1706| 
    4174 000b71 20     nop
    4175 000b72 46B2   bclr INTM
    4176 000b74       $C$L166:    
    4177                      .dwpsn  file "../FreeRTOS/Source/queue.c",line 1708,column 6,is_stmt
    4178              
    4179 000b74 0600          B $C$L175 ; |1708| 
         000b76 D3   
    4180 000b77 3D04  ||      MOV #0, T0
    4181              
    4182                                                      ; branch occurs ; |1708| 
    4183 000b79       $C$L167:    
    4184 000b79       $C$DW$L$_xQueuePeek$39$B:
    4185                      .dwpsn  file "../FreeRTOS/Source/queue.c",line 1710,column 10,is_stmt
    4186 000b79 A90C          MOV *SP(#6), AR1 ; |1710| 
    4187 000b7b 6519          BCC $C$L168,AR1 != #0 ; |1710| 
    4188                                                      ; branchcc occurs ; |1710| 
    4189 000b7d       $C$DW$L$_xQueuePeek$39$E:
    4190 000b7d       $C$DW$L$_xQueuePeek$40$B:
    4191                      .dwpsn  file "../FreeRTOS/Source/queue.c",line 1715,column 6,is_stmt
    4192 000b7d EC10          AMAR *SP(#8), XAR0
         000b7f 8E   
    4193              $C$DW$375       .dwtag  DW_TAG_TI_branch
    4194                      .dwattr $C$DW$375, DW_AT_low_pc(0x00)
    4195                      .dwattr $C$DW$375, DW_AT_name("_vTaskInternalSetTimeOutState")
    4196                      .dwattr $C$DW$375, DW_AT_TI_call
    4197 000b80 6C00          CALL #_vTaskInternalSetTimeOutState ; |1715| 
         000b82 0000!
    4198                                                      ; call occurs [#_vTaskInternalSetTimeOutState] ; |1715| 
    4199                      .dwpsn  file "../FreeRTOS/Source/queue.c",line 1716,column 6,is_stmt
    4200 000b84 E60C          MOV #1, *SP(#6) ; |1716| 
         000b86 01   
    4201                      .dwpsn  file "../FreeRTOS/Source/queue.c",line 1717,column 5,is_stmt
    4202              $C$DW$L$_xQueuePeek$40$E:
    4203              $C$L168:    
TMS320C55x Assembler PC v4.4.1 Sat Sep 15 01:52:39 2018

Tools Copyright (c) 1996-2012 Texas Instruments Incorporated
queue.asm                                                            PAGE   89

    4204              $C$DW$L$_xQueuePeek$41$B:
    4205                      .dwendtag $C$DW$370
    4206              
    4207                      .dwpsn  file "../FreeRTOS/Source/queue.c",line 1725,column 3,is_stmt
    4208 000b87 A931          MOV *(#_usCriticalNesting), AR1 ; |1725| 
         000b89 0000 
         000b8b 00!  
    4209 000b8c 0409          BCC $C$L169,AR1 == #0 ; |1725| 
         000b8e 14   
    4210                                                      ; branchcc occurs ; |1725| 
    4211 000b8f       $C$DW$L$_xQueuePeek$41$E:
    4212 000b8f       $C$DW$L$_xQueuePeek$42$B:
    4213 000b8f F731          SUB #1, *(#_usCriticalNesting) ; |1725| 
         000b91 FFFF 
         000b93 0000 
         000b95 00!  
    4214 000b96 20            NOP
    4215 000b97 20            NOP
    4216 000b98 20            NOP
    4217 000b99 A931          MOV *(#_usCriticalNesting), AR1 ; |1725| 
         000b9b 0000 
         000b9d 00!  
    4218 000b9e 6199          BCC $C$L169,AR1 != #0 ; |1725| 
    4219                                                      ; branchcc occurs ; |1725| 
    4220 000ba0       $C$DW$L$_xQueuePeek$42$E:
    4221 000ba0       $C$DW$L$_xQueuePeek$43$B:
    4222 000ba0 20     nop
    4223 000ba1 46B2   bclr INTM
    4224 000ba3       $C$DW$L$_xQueuePeek$43$E:
    4225 000ba3       $C$L169:    
    4226 000ba3       $C$DW$L$_xQueuePeek$44$B:
    4227                      .dwpsn  file "../FreeRTOS/Source/queue.c",line 1730,column 3,is_stmt
    4228              $C$DW$376       .dwtag  DW_TAG_TI_branch
    4229                      .dwattr $C$DW$376, DW_AT_low_pc(0x00)
    4230                      .dwattr $C$DW$376, DW_AT_name("_vTaskSuspendAll")
    4231                      .dwattr $C$DW$376, DW_AT_TI_call
    4232 000ba3 6C00          CALL #_vTaskSuspendAll ; |1730| 
         000ba5 0000!
    4233                                                      ; call occurs [#_vTaskSuspendAll] ; |1730| 
    4234                      .dwpsn  file "../FreeRTOS/Source/queue.c",line 1731,column 3,is_stmt
    4235 000ba7 20     nop
    4236 000ba8 46B3   bset INTM
    4237 000baa F731          ADD #1, *(#_usCriticalNesting) ; |1731| 
         000bac 0001 
         000bae 0000 
         000bb0 00!  
    4238 000bb1 20            NOP
    4239 000bb2 20            NOP
    4240 000bb3 ED1C          MOV dbl(*SP(#14)), XAR3
         000bb5 BF   
    4241 000bb6 F06D          CMP *AR3(#31) == #-1, TC1 ; |1731| 
         000bb8 FFFF 
         000bba 001F 
    4242 000bbc 62F4          BCC $C$L170,!TC1 ; |1731| 
    4243                                                      ; branchcc occurs ; |1731| 
TMS320C55x Assembler PC v4.4.1 Sat Sep 15 01:52:39 2018

Tools Copyright (c) 1996-2012 Texas Instruments Incorporated
queue.asm                                                            PAGE   90

    4244 000bbe       $C$DW$L$_xQueuePeek$44$E:
    4245 000bbe       $C$DW$L$_xQueuePeek$45$B:
    4246 000bbe E66D          MOV #0, *AR3(#31) ; |1731| 
         000bc0 0000 
         000bc2 1F   
    4247 000bc3       $C$DW$L$_xQueuePeek$45$E:
    4248 000bc3       $C$L170:    
    4249 000bc3       $C$DW$L$_xQueuePeek$46$B:
    4250 000bc3 ED1C          MOV dbl(*SP(#14)), XAR3
         000bc5 BF   
    4251 000bc6 F06D          CMP *AR3(#32) == #-1, TC1 ; |1731| 
         000bc8 FFFF 
         000bca 0020 
    4252 000bcc 62F4          BCC $C$L171,!TC1 ; |1731| 
    4253                                                      ; branchcc occurs ; |1731| 
    4254 000bce       $C$DW$L$_xQueuePeek$46$E:
    4255 000bce       $C$DW$L$_xQueuePeek$47$B:
    4256 000bce E66D          MOV #0, *AR3(#32) ; |1731| 
         000bd0 0000 
         000bd2 20   
    4257 000bd3       $C$DW$L$_xQueuePeek$47$E:
    4258 000bd3       $C$L171:    
    4259 000bd3       $C$DW$L$_xQueuePeek$48$B:
    4260 000bd3 A931          MOV *(#_usCriticalNesting), AR1 ; |1731| 
         000bd5 0000 
         000bd7 00!  
    4261 000bd8 0409          BCC $C$L172,AR1 == #0 ; |1731| 
         000bda 14   
    4262                                                      ; branchcc occurs ; |1731| 
    4263 000bdb       $C$DW$L$_xQueuePeek$48$E:
    4264 000bdb       $C$DW$L$_xQueuePeek$49$B:
    4265 000bdb F731          SUB #1, *(#_usCriticalNesting) ; |1731| 
         000bdd FFFF 
         000bdf 0000 
         000be1 00!  
    4266 000be2 20            NOP
    4267 000be3 20            NOP
    4268 000be4 20            NOP
    4269 000be5 A931          MOV *(#_usCriticalNesting), AR1 ; |1731| 
         000be7 0000 
         000be9 00!  
    4270 000bea 6199          BCC $C$L172,AR1 != #0 ; |1731| 
    4271                                                      ; branchcc occurs ; |1731| 
    4272 000bec       $C$DW$L$_xQueuePeek$49$E:
    4273 000bec       $C$DW$L$_xQueuePeek$50$B:
    4274 000bec 20     nop
    4275 000bed 46B2   bclr INTM
    4276 000bef       $C$DW$L$_xQueuePeek$50$E:
    4277 000bef       $C$L172:    
    4278 000bef       $C$DW$L$_xQueuePeek$51$B:
    4279                      .dwpsn  file "../FreeRTOS/Source/queue.c",line 1734,column 3,is_stmt
    4280 000bef EC10          AMAR *SP(#8), XAR0
         000bf1 8E   
    4281 000bf2 EC08          AMAR *SP(#4), XAR1
         000bf4 9E   
TMS320C55x Assembler PC v4.4.1 Sat Sep 15 01:52:39 2018

Tools Copyright (c) 1996-2012 Texas Instruments Incorporated
queue.asm                                                            PAGE   91

    4282              $C$DW$377       .dwtag  DW_TAG_TI_branch
    4283                      .dwattr $C$DW$377, DW_AT_low_pc(0x00)
    4284                      .dwattr $C$DW$377, DW_AT_name("_xTaskCheckForTimeOut")
    4285                      .dwattr $C$DW$377, DW_AT_TI_call
    4286 000bf5 6C00          CALL #_xTaskCheckForTimeOut ; |1734| 
         000bf7 0000!
    4287                                                      ; call occurs [#_xTaskCheckForTimeOut] ; |1734| 
    4288 000bf9 0414          BCC $C$L174,T0 != #0 ; |1734| 
         000bfb 38   
    4289                                                      ; branchcc occurs ; |1734| 
    4290 000bfc       $C$DW$L$_xQueuePeek$51$E:
    4291 000bfc       $C$DW$L$_xQueuePeek$52$B:
    4292                      .dwpsn  file "../FreeRTOS/Source/queue.c",line 1738,column 4,is_stmt
    4293 000bfc ED1C          MOV dbl(*SP(#14)), XAR0
         000bfe 8F   
    4294              $C$DW$378       .dwtag  DW_TAG_TI_branch
    4295                      .dwattr $C$DW$378, DW_AT_low_pc(0x00)
    4296                      .dwattr $C$DW$378, DW_AT_name("_prvIsQueueEmpty")
    4297                      .dwattr $C$DW$378, DW_AT_TI_call
    4298 000bff 0804          CALL #_prvIsQueueEmpty ; |1738| 
         000c01 BA   
    4299                                                      ; call occurs [#_prvIsQueueEmpty] ; |1738| 
    4300 000c02 0404          BCC $C$L173,T0 == #0 ; |1738| 
         000c04 22   
    4301                                                      ; branchcc occurs ; |1738| 
    4302 000c05       $C$DW$L$_xQueuePeek$52$E:
    4303 000c05       $C$DW$L$_xQueuePeek$53$B:
    4304                      .dwpsn  file "../FreeRTOS/Source/queue.c",line 1741,column 5,is_stmt
    4305 000c05 ED1C          MOV dbl(*SP(#14)), XAR0
         000c07 8F   
    4306              
    4307                      AADD #18, AR0 ; |1741| 
    4308 000c08 8E08  ||      MOV dbl(*SP(#4)), AC0 ; |1741| 
         000c0a 8D1C 
         000c0c 0812 
    4309              
    4310              $C$DW$379       .dwtag  DW_TAG_TI_branch
    4311                      .dwattr $C$DW$379, DW_AT_low_pc(0x00)
    4312                      .dwattr $C$DW$379, DW_AT_name("_vTaskPlaceOnEventList")
    4313                      .dwattr $C$DW$379, DW_AT_TI_call
    4314 000c0e 6C00          CALL #_vTaskPlaceOnEventList ; |1741| 
         000c10 0000!
    4315                                                      ; call occurs [#_vTaskPlaceOnEventList] ; |1741| 
    4316                      .dwpsn  file "../FreeRTOS/Source/queue.c",line 1742,column 5,is_stmt
    4317 000c12 ED1C          MOV dbl(*SP(#14)), XAR0
         000c14 8F   
    4318              $C$DW$380       .dwtag  DW_TAG_TI_branch
    4319                      .dwattr $C$DW$380, DW_AT_low_pc(0x00)
    4320                      .dwattr $C$DW$380, DW_AT_name("_prvUnlockQueue")
    4321                      .dwattr $C$DW$380, DW_AT_TI_call
    4322 000c15 0803          CALL #_prvUnlockQueue ; |1742| 
         000c17 C0   
    4323                                                      ; call occurs [#_prvUnlockQueue] ; |1742| 
    4324                      .dwpsn  file "../FreeRTOS/Source/queue.c",line 1743,column 5,is_stmt
    4325              $C$DW$381       .dwtag  DW_TAG_TI_branch
TMS320C55x Assembler PC v4.4.1 Sat Sep 15 01:52:39 2018

Tools Copyright (c) 1996-2012 Texas Instruments Incorporated
queue.asm                                                            PAGE   92

    4326                      .dwattr $C$DW$381, DW_AT_low_pc(0x00)
    4327                      .dwattr $C$DW$381, DW_AT_name("_xTaskResumeAll")
    4328                      .dwattr $C$DW$381, DW_AT_TI_call
    4329 000c18 6C00          CALL #_xTaskResumeAll ; |1743| 
         000c1a 0000!
    4330                                                      ; call occurs [#_xTaskResumeAll] ; |1743| 
    4331 000c1c 6D14          BCC $C$L160,T0 != #0 ; |1743| 
         000c1e FEBA 
    4332                                                      ; branchcc occurs ; |1743| 
    4333 000c20       $C$DW$L$_xQueuePeek$53$E:
    4334 000c20       $C$DW$L$_xQueuePeek$54$B:
    4335                      .dwpsn  file "../FreeRTOS/Source/queue.c",line 1745,column 6,is_stmt
    4336              $C$DW$382       .dwtag  DW_TAG_TI_branch
    4337                      .dwattr $C$DW$382, DW_AT_low_pc(0x00)
    4338                      .dwattr $C$DW$382, DW_AT_name("_vPortYield")
    4339                      .dwattr $C$DW$382, DW_AT_TI_call
    4340 000c20 6C00          CALL #_vPortYield ; |1745| 
         000c22 0000!
    4341                                                      ; call occurs [#_vPortYield] ; |1745| 
    4342                      .dwpsn  file "../FreeRTOS/Source/queue.c",line 1746,column 5,is_stmt
    4343 000c24 06FE          B $C$L160 ; |1746| 
         000c26 B3   
    4344                                                      ; branch occurs ; |1746| 
    4345 000c27       $C$DW$L$_xQueuePeek$54$E:
    4346 000c27       $C$L173:    
    4347 000c27       $C$DW$L$_xQueuePeek$56$B:
    4348                      .dwpsn  file "../FreeRTOS/Source/queue.c",line 1756,column 5,is_stmt
    4349 000c27 ED1C          MOV dbl(*SP(#14)), XAR0
         000c29 8F   
    4350              $C$DW$383       .dwtag  DW_TAG_TI_branch
    4351                      .dwattr $C$DW$383, DW_AT_low_pc(0x00)
    4352                      .dwattr $C$DW$383, DW_AT_name("_prvUnlockQueue")
    4353                      .dwattr $C$DW$383, DW_AT_TI_call
    4354 000c2a 0803          CALL #_prvUnlockQueue ; |1756| 
         000c2c AB   
    4355                                                      ; call occurs [#_prvUnlockQueue] ; |1756| 
    4356                      .dwpsn  file "../FreeRTOS/Source/queue.c",line 1757,column 5,is_stmt
    4357              $C$DW$384       .dwtag  DW_TAG_TI_branch
    4358                      .dwattr $C$DW$384, DW_AT_low_pc(0x00)
    4359                      .dwattr $C$DW$384, DW_AT_name("_xTaskResumeAll")
    4360                      .dwattr $C$DW$384, DW_AT_TI_call
    4361 000c2d 6C00          CALL #_xTaskResumeAll ; |1757| 
         000c2f 0000!
    4362                                                      ; call occurs [#_xTaskResumeAll] ; |1757| 
    4363                      .dwpsn  file "../FreeRTOS/Source/queue.c",line 1759,column 3,is_stmt
    4364 000c31 06FE          B $C$L160 ; |1759| 
         000c33 A6   
    4365                                                      ; branch occurs ; |1759| 
    4366 000c34       $C$DW$L$_xQueuePeek$56$E:
    4367 000c34       $C$L174:    
    4368 000c34       $C$DW$L$_xQueuePeek$57$B:
    4369                      .dwpsn  file "../FreeRTOS/Source/queue.c",line 1764,column 4,is_stmt
    4370 000c34 ED1C          MOV dbl(*SP(#14)), XAR0
         000c36 8F   
    4371              $C$DW$385       .dwtag  DW_TAG_TI_branch
TMS320C55x Assembler PC v4.4.1 Sat Sep 15 01:52:39 2018

Tools Copyright (c) 1996-2012 Texas Instruments Incorporated
queue.asm                                                            PAGE   93

    4372                      .dwattr $C$DW$385, DW_AT_low_pc(0x00)
    4373                      .dwattr $C$DW$385, DW_AT_name("_prvUnlockQueue")
    4374                      .dwattr $C$DW$385, DW_AT_TI_call
    4375 000c37 0803          CALL #_prvUnlockQueue ; |1764| 
         000c39 9E   
    4376                                                      ; call occurs [#_prvUnlockQueue] ; |1764| 
    4377                      .dwpsn  file "../FreeRTOS/Source/queue.c",line 1765,column 4,is_stmt
    4378              $C$DW$386       .dwtag  DW_TAG_TI_branch
    4379                      .dwattr $C$DW$386, DW_AT_low_pc(0x00)
    4380                      .dwattr $C$DW$386, DW_AT_name("_xTaskResumeAll")
    4381                      .dwattr $C$DW$386, DW_AT_TI_call
    4382 000c3a 6C00          CALL #_xTaskResumeAll ; |1765| 
         000c3c 0000!
    4383                                                      ; call occurs [#_xTaskResumeAll] ; |1765| 
    4384                      .dwpsn  file "../FreeRTOS/Source/queue.c",line 1767,column 4,is_stmt
    4385 000c3e ED1C          MOV dbl(*SP(#14)), XAR0
         000c40 8F   
    4386              $C$DW$387       .dwtag  DW_TAG_TI_branch
    4387                      .dwattr $C$DW$387, DW_AT_low_pc(0x00)
    4388                      .dwattr $C$DW$387, DW_AT_name("_prvIsQueueEmpty")
    4389                      .dwattr $C$DW$387, DW_AT_TI_call
    4390 000c41 0804          CALL #_prvIsQueueEmpty ; |1767| 
         000c43 78   
    4391                                                      ; call occurs [#_prvIsQueueEmpty] ; |1767| 
    4392 000c44 6D04          BCC $C$L160,T0 == #0 ; |1767| 
         000c46 FE92 
    4393                                                      ; branchcc occurs ; |1767| 
    4394 000c48       $C$DW$L$_xQueuePeek$57$E:
    4395                      .dwpsn  file "../FreeRTOS/Source/queue.c",line 1770,column 5,is_stmt
    4396              
    4397 000c48 4A00          B $C$L175 ; |1770| 
    4398 000c4a 3D04  ||      MOV #0, T0
    4399              
    4400                                                      ; branch occurs ; |1770| 
    4401 000c4c       $C$L175:    
    4402                      .dwpsn  file "../FreeRTOS/Source/queue.c",line 1778,column 1,is_stmt
    4403 000c4c 4E11          AADD #17, SP
    4404                      .dwcfi  cfa_offset, 3
    4405 000c4e 5072          POP T3
    4406                      .dwcfi  restore_reg, 15
    4407                      .dwcfi  cfa_offset, 2
    4408 000c50 5062          POP T2
    4409                      .dwcfi  restore_reg, 14
    4410                      .dwcfi  cfa_offset, 1
    4411              $C$DW$388       .dwtag  DW_TAG_TI_branch
    4412                      .dwattr $C$DW$388, DW_AT_low_pc(0x00)
    4413                      .dwattr $C$DW$388, DW_AT_TI_return
    4414 000c52 4804          RET
    4415                                                      ; return occurs
    4416              
    4417              $C$DW$389       .dwtag  DW_TAG_TI_loop
    4418                      .dwattr $C$DW$389, DW_AT_name("F:\eZdsp_DBG\eZDSP_5535_Files\ccsws2\test\Debug\queue.asm:$C$L160:1:15
    4419                      .dwattr $C$DW$389, DW_AT_TI_begin_file("../FreeRTOS/Source/queue.c")
    4420                      .dwattr $C$DW$389, DW_AT_TI_begin_line(0x679)
    4421                      .dwattr $C$DW$389, DW_AT_TI_end_line(0x6f1)
TMS320C55x Assembler PC v4.4.1 Sat Sep 15 01:52:39 2018

Tools Copyright (c) 1996-2012 Texas Instruments Incorporated
queue.asm                                                            PAGE   94

    4422              $C$DW$390       .dwtag  DW_TAG_TI_loop_range
    4423                      .dwattr $C$DW$390, DW_AT_low_pc($C$DW$L$_xQueuePeek$20$B)
    4424                      .dwattr $C$DW$390, DW_AT_high_pc($C$DW$L$_xQueuePeek$20$E)
    4425              $C$DW$391       .dwtag  DW_TAG_TI_loop_range
    4426                      .dwattr $C$DW$391, DW_AT_low_pc($C$DW$L$_xQueuePeek$33$B)
    4427                      .dwattr $C$DW$391, DW_AT_high_pc($C$DW$L$_xQueuePeek$33$E)
    4428              $C$DW$392       .dwtag  DW_TAG_TI_loop_range
    4429                      .dwattr $C$DW$392, DW_AT_low_pc($C$DW$L$_xQueuePeek$39$B)
    4430                      .dwattr $C$DW$392, DW_AT_high_pc($C$DW$L$_xQueuePeek$39$E)
    4431              $C$DW$393       .dwtag  DW_TAG_TI_loop_range
    4432                      .dwattr $C$DW$393, DW_AT_low_pc($C$DW$L$_xQueuePeek$40$B)
    4433                      .dwattr $C$DW$393, DW_AT_high_pc($C$DW$L$_xQueuePeek$40$E)
    4434              $C$DW$394       .dwtag  DW_TAG_TI_loop_range
    4435                      .dwattr $C$DW$394, DW_AT_low_pc($C$DW$L$_xQueuePeek$41$B)
    4436                      .dwattr $C$DW$394, DW_AT_high_pc($C$DW$L$_xQueuePeek$41$E)
    4437              $C$DW$395       .dwtag  DW_TAG_TI_loop_range
    4438                      .dwattr $C$DW$395, DW_AT_low_pc($C$DW$L$_xQueuePeek$42$B)
    4439                      .dwattr $C$DW$395, DW_AT_high_pc($C$DW$L$_xQueuePeek$42$E)
    4440              $C$DW$396       .dwtag  DW_TAG_TI_loop_range
    4441                      .dwattr $C$DW$396, DW_AT_low_pc($C$DW$L$_xQueuePeek$43$B)
    4442                      .dwattr $C$DW$396, DW_AT_high_pc($C$DW$L$_xQueuePeek$43$E)
    4443              $C$DW$397       .dwtag  DW_TAG_TI_loop_range
    4444                      .dwattr $C$DW$397, DW_AT_low_pc($C$DW$L$_xQueuePeek$44$B)
    4445                      .dwattr $C$DW$397, DW_AT_high_pc($C$DW$L$_xQueuePeek$44$E)
    4446              $C$DW$398       .dwtag  DW_TAG_TI_loop_range
    4447                      .dwattr $C$DW$398, DW_AT_low_pc($C$DW$L$_xQueuePeek$45$B)
    4448                      .dwattr $C$DW$398, DW_AT_high_pc($C$DW$L$_xQueuePeek$45$E)
    4449              $C$DW$399       .dwtag  DW_TAG_TI_loop_range
    4450                      .dwattr $C$DW$399, DW_AT_low_pc($C$DW$L$_xQueuePeek$46$B)
    4451                      .dwattr $C$DW$399, DW_AT_high_pc($C$DW$L$_xQueuePeek$46$E)
    4452              $C$DW$400       .dwtag  DW_TAG_TI_loop_range
    4453                      .dwattr $C$DW$400, DW_AT_low_pc($C$DW$L$_xQueuePeek$47$B)
    4454                      .dwattr $C$DW$400, DW_AT_high_pc($C$DW$L$_xQueuePeek$47$E)
    4455              $C$DW$401       .dwtag  DW_TAG_TI_loop_range
    4456                      .dwattr $C$DW$401, DW_AT_low_pc($C$DW$L$_xQueuePeek$48$B)
    4457                      .dwattr $C$DW$401, DW_AT_high_pc($C$DW$L$_xQueuePeek$48$E)
    4458              $C$DW$402       .dwtag  DW_TAG_TI_loop_range
    4459                      .dwattr $C$DW$402, DW_AT_low_pc($C$DW$L$_xQueuePeek$49$B)
    4460                      .dwattr $C$DW$402, DW_AT_high_pc($C$DW$L$_xQueuePeek$49$E)
    4461              $C$DW$403       .dwtag  DW_TAG_TI_loop_range
    4462                      .dwattr $C$DW$403, DW_AT_low_pc($C$DW$L$_xQueuePeek$50$B)
    4463                      .dwattr $C$DW$403, DW_AT_high_pc($C$DW$L$_xQueuePeek$50$E)
    4464              $C$DW$404       .dwtag  DW_TAG_TI_loop_range
    4465                      .dwattr $C$DW$404, DW_AT_low_pc($C$DW$L$_xQueuePeek$51$B)
    4466                      .dwattr $C$DW$404, DW_AT_high_pc($C$DW$L$_xQueuePeek$51$E)
    4467              $C$DW$405       .dwtag  DW_TAG_TI_loop_range
    4468                      .dwattr $C$DW$405, DW_AT_low_pc($C$DW$L$_xQueuePeek$52$B)
    4469                      .dwattr $C$DW$405, DW_AT_high_pc($C$DW$L$_xQueuePeek$52$E)
    4470              $C$DW$406       .dwtag  DW_TAG_TI_loop_range
    4471                      .dwattr $C$DW$406, DW_AT_low_pc($C$DW$L$_xQueuePeek$57$B)
    4472                      .dwattr $C$DW$406, DW_AT_high_pc($C$DW$L$_xQueuePeek$57$E)
    4473              $C$DW$407       .dwtag  DW_TAG_TI_loop_range
    4474                      .dwattr $C$DW$407, DW_AT_low_pc($C$DW$L$_xQueuePeek$56$B)
    4475                      .dwattr $C$DW$407, DW_AT_high_pc($C$DW$L$_xQueuePeek$56$E)
    4476              $C$DW$408       .dwtag  DW_TAG_TI_loop_range
TMS320C55x Assembler PC v4.4.1 Sat Sep 15 01:52:39 2018

Tools Copyright (c) 1996-2012 Texas Instruments Incorporated
queue.asm                                                            PAGE   95

    4477                      .dwattr $C$DW$408, DW_AT_low_pc($C$DW$L$_xQueuePeek$54$B)
    4478                      .dwattr $C$DW$408, DW_AT_high_pc($C$DW$L$_xQueuePeek$54$E)
    4479              $C$DW$409       .dwtag  DW_TAG_TI_loop_range
    4480                      .dwattr $C$DW$409, DW_AT_low_pc($C$DW$L$_xQueuePeek$53$B)
    4481                      .dwattr $C$DW$409, DW_AT_high_pc($C$DW$L$_xQueuePeek$53$E)
    4482                      .dwendtag $C$DW$389
    4483              
    4484              
    4485              $C$DW$410       .dwtag  DW_TAG_TI_loop
    4486                      .dwattr $C$DW$410, DW_AT_name("F:\eZdsp_DBG\eZDSP_5535_Files\ccsws2\test\Debug\queue.asm:$C$L159:1:15
    4487                      .dwattr $C$DW$410, DW_AT_TI_begin_file("../FreeRTOS/Source/queue.c")
    4488                      .dwattr $C$DW$410, DW_AT_TI_begin_line(0x671)
    4489                      .dwattr $C$DW$410, DW_AT_TI_end_line(0x671)
    4490              $C$DW$411       .dwtag  DW_TAG_TI_loop_range
    4491                      .dwattr $C$DW$411, DW_AT_low_pc($C$DW$L$_xQueuePeek$19$B)
    4492                      .dwattr $C$DW$411, DW_AT_high_pc($C$DW$L$_xQueuePeek$19$E)
    4493                      .dwendtag $C$DW$410
    4494              
    4495              
    4496              $C$DW$412       .dwtag  DW_TAG_TI_loop
    4497                      .dwattr $C$DW$412, DW_AT_name("F:\eZdsp_DBG\eZDSP_5535_Files\ccsws2\test\Debug\queue.asm:$C$L155:1:15
    4498                      .dwattr $C$DW$412, DW_AT_TI_begin_file("../FreeRTOS/Source/queue.c")
    4499                      .dwattr $C$DW$412, DW_AT_TI_begin_line(0x66c)
    4500                      .dwattr $C$DW$412, DW_AT_TI_end_line(0x66c)
    4501              $C$DW$413       .dwtag  DW_TAG_TI_loop_range
    4502                      .dwattr $C$DW$413, DW_AT_low_pc($C$DW$L$_xQueuePeek$11$B)
    4503                      .dwattr $C$DW$413, DW_AT_high_pc($C$DW$L$_xQueuePeek$11$E)
    4504                      .dwendtag $C$DW$412
    4505              
    4506              
    4507              $C$DW$414       .dwtag  DW_TAG_TI_loop
    4508                      .dwattr $C$DW$414, DW_AT_name("F:\eZdsp_DBG\eZDSP_5535_Files\ccsws2\test\Debug\queue.asm:$C$L151:1:15
    4509                      .dwattr $C$DW$414, DW_AT_TI_begin_file("../FreeRTOS/Source/queue.c")
    4510                      .dwattr $C$DW$414, DW_AT_TI_begin_line(0x668)
    4511                      .dwattr $C$DW$414, DW_AT_TI_end_line(0x668)
    4512              $C$DW$415       .dwtag  DW_TAG_TI_loop_range
    4513                      .dwattr $C$DW$415, DW_AT_low_pc($C$DW$L$_xQueuePeek$3$B)
    4514                      .dwattr $C$DW$415, DW_AT_high_pc($C$DW$L$_xQueuePeek$3$E)
    4515                      .dwendtag $C$DW$414
    4516              
    4517                      .dwattr $C$DW$358, DW_AT_TI_end_file("../FreeRTOS/Source/queue.c")
    4518                      .dwattr $C$DW$358, DW_AT_TI_end_line(0x6f2)
    4519                      .dwattr $C$DW$358, DW_AT_TI_end_column(0x01)
    4520                      .dwendentry
    4521                      .dwendtag $C$DW$358
    4522              
    4523 000c54               .sect   ".text"
    4524                      .align 4
    4525                      .global _xQueueReceiveFromISR
    4526              
    4527              $C$DW$416       .dwtag  DW_TAG_subprogram, DW_AT_name("xQueueReceiveFromISR")
    4528                      .dwattr $C$DW$416, DW_AT_low_pc(_xQueueReceiveFromISR)
    4529                      .dwattr $C$DW$416, DW_AT_high_pc(0x00)
    4530                      .dwattr $C$DW$416, DW_AT_TI_symbol_name("_xQueueReceiveFromISR")
    4531                      .dwattr $C$DW$416, DW_AT_external
TMS320C55x Assembler PC v4.4.1 Sat Sep 15 01:52:39 2018

Tools Copyright (c) 1996-2012 Texas Instruments Incorporated
queue.asm                                                            PAGE   96

    4532                      .dwattr $C$DW$416, DW_AT_type(*$C$DW$T$49)
    4533                      .dwattr $C$DW$416, DW_AT_TI_begin_file("../FreeRTOS/Source/queue.c")
    4534                      .dwattr $C$DW$416, DW_AT_TI_begin_line(0x6f5)
    4535                      .dwattr $C$DW$416, DW_AT_TI_begin_column(0x0c)
    4536                      .dwattr $C$DW$416, DW_AT_TI_max_frame_size(0x0e)
    4537                      .dwpsn  file "../FreeRTOS/Source/queue.c",line 1782,column 1,is_stmt,address _xQueueReceiveFromISR
    4538              
    4539                      .dwfde $C$DW$CIE, _xQueueReceiveFromISR
    4540              $C$DW$417       .dwtag  DW_TAG_formal_parameter, DW_AT_name("xQueue")
    4541                      .dwattr $C$DW$417, DW_AT_TI_symbol_name("_xQueue")
    4542                      .dwattr $C$DW$417, DW_AT_type(*$C$DW$T$27)
    4543                      .dwattr $C$DW$417, DW_AT_location[DW_OP_reg17]
    4544              $C$DW$418       .dwtag  DW_TAG_formal_parameter, DW_AT_name("pvBuffer")
    4545                      .dwattr $C$DW$418, DW_AT_TI_symbol_name("_pvBuffer")
    4546                      .dwattr $C$DW$418, DW_AT_type(*$C$DW$T$76)
    4547                      .dwattr $C$DW$418, DW_AT_location[DW_OP_reg19]
    4548              $C$DW$419       .dwtag  DW_TAG_formal_parameter, DW_AT_name("pxHigherPriorityTaskWoken")
    4549                      .dwattr $C$DW$419, DW_AT_TI_symbol_name("_pxHigherPriorityTaskWoken")
    4550                      .dwattr $C$DW$419, DW_AT_type(*$C$DW$T$136)
    4551                      .dwattr $C$DW$419, DW_AT_location[DW_OP_reg21]
    4552              ;*******************************************************************************
    4553              ;* FUNCTION NAME: xQueueReceiveFromISR                                         *
    4554              ;*                                                                             *
    4555              ;*   Function Uses Regs : AC0,AC0,T0,AR0,XAR0,AR1,XAR1,AR2,XAR2,AR3,XAR3,SP,   *
    4556              ;*                        CARRY,TC1,M40,SATA,SATD,RDM,FRCT,SMUL                *
    4557              ;*   Stack Frame        : Compact (No Frame Pointer, w/ debug)                 *
    4558              ;*   Total Frame Size   : 14 words                                             *
    4559              ;*                        (2 return address/alignment)                         *
    4560              ;*                        (12 local values)                                    *
    4561              ;*   Min System Stack   : 1 word                                               *
    4562              ;*******************************************************************************
    4563 000c54       _xQueueReceiveFromISR:
    4564                      .dwcfi  cfa_offset, 1
    4565                      .dwcfi  save_reg_to_mem, 91, -1
    4566 000c54 4EF3          AADD #-13, SP
    4567                      .dwcfi  cfa_offset, 14
    4568              $C$DW$420       .dwtag  DW_TAG_variable, DW_AT_name("xQueue")
    4569                      .dwattr $C$DW$420, DW_AT_TI_symbol_name("_xQueue")
    4570                      .dwattr $C$DW$420, DW_AT_type(*$C$DW$T$27)
    4571                      .dwattr $C$DW$420, DW_AT_location[DW_OP_bregx 0x24 0]
    4572              $C$DW$421       .dwtag  DW_TAG_variable, DW_AT_name("pvBuffer")
    4573                      .dwattr $C$DW$421, DW_AT_TI_symbol_name("_pvBuffer")
    4574                      .dwattr $C$DW$421, DW_AT_type(*$C$DW$T$76)
    4575                      .dwattr $C$DW$421, DW_AT_location[DW_OP_bregx 0x24 2]
    4576              $C$DW$422       .dwtag  DW_TAG_variable, DW_AT_name("pxHigherPriorityTaskWoken")
    4577                      .dwattr $C$DW$422, DW_AT_TI_symbol_name("_pxHigherPriorityTaskWoken")
    4578                      .dwattr $C$DW$422, DW_AT_type(*$C$DW$T$136)
    4579                      .dwattr $C$DW$422, DW_AT_location[DW_OP_bregx 0x24 4]
    4580              $C$DW$423       .dwtag  DW_TAG_variable, DW_AT_name("xReturn")
    4581                      .dwattr $C$DW$423, DW_AT_TI_symbol_name("_xReturn")
    4582                      .dwattr $C$DW$423, DW_AT_type(*$C$DW$T$49)
    4583                      .dwattr $C$DW$423, DW_AT_location[DW_OP_bregx 0x24 6]
    4584              $C$DW$424       .dwtag  DW_TAG_variable, DW_AT_name("uxSavedInterruptStatus")
    4585                      .dwattr $C$DW$424, DW_AT_TI_symbol_name("_uxSavedInterruptStatus")
    4586                      .dwattr $C$DW$424, DW_AT_type(*$C$DW$T$32)
TMS320C55x Assembler PC v4.4.1 Sat Sep 15 01:52:39 2018

Tools Copyright (c) 1996-2012 Texas Instruments Incorporated
queue.asm                                                            PAGE   97

    4587                      .dwattr $C$DW$424, DW_AT_location[DW_OP_bregx 0x24 7]
    4588              $C$DW$425       .dwtag  DW_TAG_variable, DW_AT_name("pxQueue")
    4589                      .dwattr $C$DW$425, DW_AT_TI_symbol_name("_pxQueue")
    4590                      .dwattr $C$DW$425, DW_AT_type(*$C$DW$T$69)
    4591                      .dwattr $C$DW$425, DW_AT_location[DW_OP_bregx 0x24 8]
    4592 000c56 EB08          MOV XAR2, dbl(*SP(#4))
         000c58 A5   
    4593 000c59 EB04          MOV XAR1, dbl(*SP(#2))
         000c5b 95   
    4594 000c5c EB00          MOV XAR0, dbl(*SP(#0))
         000c5e 85   
    4595                      .dwpsn  file "../FreeRTOS/Source/queue.c",line 1785,column 17,is_stmt
    4596 000c5f ED00          MOV dbl(*SP(#0)), XAR3
         000c61 BF   
    4597 000c62 EB10          MOV XAR3, dbl(*SP(#8))
         000c64 B5   
    4598                      .dwpsn  file "../FreeRTOS/Source/queue.c",line 1787,column 2,is_stmt
    4599 000c65 90B0          MOV XAR3, AC0
    4600 000c67 6290          BCC $C$L177,AC0 != #0 ; |1787| 
    4601                                                      ; branchcc occurs ; |1787| 
    4602 000c69 20     nop
    4603 000c6a 46B3   bset INTM
    4604 000c6c       $C$L176:    
    4605 000c6c       $C$DW$L$_xQueueReceiveFromISR$3$B:
    4606 000c6c 4A7E          B $C$L176 ; |1787| 
    4607                                                      ; branch occurs ; |1787| 
    4608 000c6e       $C$DW$L$_xQueueReceiveFromISR$3$E:
    4609 000c6e       $C$L177:    
    4610                      .dwpsn  file "../FreeRTOS/Source/queue.c",line 1788,column 2,is_stmt
    4611 000c6e ED04          MOV dbl(*SP(#2)), XAR3
         000c70 BF   
    4612 000c71 90B0          MOV XAR3, AC0
    4613 000c73 3C0A          MOV #0, AR2
    4614              
    4615 000c75 6590          BCC $C$L178,AC0 != #0 ; |1788| 
    4616 000c77 3D09  ||      MOV #0, AR1
    4617              
    4618                                                      ; branchcc occurs ; |1788| 
    4619 000c79 ED10          MOV dbl(*SP(#8)), XAR3
         000c7b BF   
    4620 000c7c AB6D          MOV *AR3(#30), AR3 ; |1788| 
         000c7e 001E 
    4621 000c80 610B          BCC $C$L178,AR3 == #0 ; |1788| 
    4622                                                      ; branchcc occurs ; |1788| 
    4623 000c82 3C1A          MOV #1, AR2
    4624 000c84       $C$L178:    
    4625 000c84 611A          BCC $C$L179,AR2 != #0 ; |1788| 
    4626                                                      ; branchcc occurs ; |1788| 
    4627 000c86 3C19          MOV #1, AR1
    4628 000c88       $C$L179:    
    4629 000c88 6299          BCC $C$L181,AR1 != #0 ; |1788| 
    4630                                                      ; branchcc occurs ; |1788| 
    4631 000c8a 20     nop
    4632 000c8b 46B3   bset INTM
    4633 000c8d       $C$L180:    
TMS320C55x Assembler PC v4.4.1 Sat Sep 15 01:52:39 2018

Tools Copyright (c) 1996-2012 Texas Instruments Incorporated
queue.asm                                                            PAGE   98

    4634 000c8d       $C$DW$L$_xQueueReceiveFromISR$11$B:
    4635 000c8d 4A7E          B $C$L180 ; |1788| 
    4636                                                      ; branch occurs ; |1788| 
    4637 000c8f       $C$DW$L$_xQueueReceiveFromISR$11$E:
    4638 000c8f       $C$L181:    
    4639                      .dwpsn  file "../FreeRTOS/Source/queue.c",line 1806,column 2,is_stmt
    4640 000c8f E60E          MOV #0, *SP(#7) ; |1806| 
         000c91 00   
    4641              
    4642              $C$DW$426       .dwtag  DW_TAG_lexical_block, DW_AT_low_pc(0x00), DW_AT_high_pc(0x00)
    4643              $C$DW$427       .dwtag  DW_TAG_variable, DW_AT_name("uxMessagesWaiting")
    4644                      .dwattr $C$DW$427, DW_AT_TI_symbol_name("_uxMessagesWaiting")
    4645                      .dwattr $C$DW$427, DW_AT_type(*$C$DW$T$56)
    4646                      .dwattr $C$DW$427, DW_AT_location[DW_OP_bregx 0x24 10]
    4647                      .dwpsn  file "../FreeRTOS/Source/queue.c",line 1808,column 21,is_stmt
    4648 000c92 ED10          MOV dbl(*SP(#8)), XAR3
         000c94 BF   
    4649 000c95 A96D          MOV *AR3(#28), AR1 ; |1808| 
         000c97 001C 
    4650 000c99 C914          MOV AR1, *SP(#10) ; |1808| 
    4651                      .dwpsn  file "../FreeRTOS/Source/queue.c",line 1811,column 3,is_stmt
    4652 000c9b 0409          BCC $C$L186,AR1 == #0 ; |1811| 
         000c9d 60   
    4653                                                      ; branchcc occurs ; |1811| 
    4654              
    4655              $C$DW$428       .dwtag  DW_TAG_lexical_block, DW_AT_low_pc(0x00), DW_AT_high_pc(0x00)
    4656              $C$DW$429       .dwtag  DW_TAG_variable, DW_AT_name("cRxLock")
    4657                      .dwattr $C$DW$429, DW_AT_TI_symbol_name("_cRxLock")
    4658                      .dwattr $C$DW$429, DW_AT_type(*$C$DW$T$111)
    4659                      .dwattr $C$DW$429, DW_AT_location[DW_OP_bregx 0x24 11]
    4660                      .dwpsn  file "../FreeRTOS/Source/queue.c",line 1813,column 17,is_stmt
    4661 000c9e ED10          MOV dbl(*SP(#8)), XAR3
         000ca0 BF   
    4662 000ca1 A96D          MOV *AR3(#31), AR1 ; |1813| 
         000ca3 001F 
    4663 000ca5 C916          MOV AR1, *SP(#11) ; |1813| 
    4664                      .dwpsn  file "../FreeRTOS/Source/queue.c",line 1817,column 4,is_stmt
    4665 000ca7 ED10          MOV dbl(*SP(#8)), XAR0
         000ca9 8F   
    4666 000caa ED04          MOV dbl(*SP(#2)), XAR1
         000cac 9F   
    4667              $C$DW$430       .dwtag  DW_TAG_TI_branch
    4668                      .dwattr $C$DW$430, DW_AT_low_pc(0x00)
    4669                      .dwattr $C$DW$430, DW_AT_name("_prvCopyDataFromQueue")
    4670                      .dwattr $C$DW$430, DW_AT_TI_call
    4671 000cad 0802          CALL #_prvCopyDataFromQueue ; |1817| 
         000caf D0   
    4672                                                      ; call occurs [#_prvCopyDataFromQueue] ; |1817| 
    4673                      .dwpsn  file "../FreeRTOS/Source/queue.c",line 1818,column 4,is_stmt
    4674 000cb0 ED10          MOV dbl(*SP(#8)), XAR3
         000cb2 BF   
    4675 000cb3 A914          MOV *SP(#10), AR1 ; |1818| 
    4676 000cb5 4219          SUB #1, AR1 ; |1818| 
    4677 000cb7 C96D          MOV AR1, *AR3(#28) ; |1818| 
         000cb9 001C 
TMS320C55x Assembler PC v4.4.1 Sat Sep 15 01:52:39 2018

Tools Copyright (c) 1996-2012 Texas Instruments Incorporated
queue.asm                                                            PAGE   99

    4678                      .dwpsn  file "../FreeRTOS/Source/queue.c",line 1824,column 4,is_stmt
    4679 000cbb F016          CMP *SP(#11) == #-1, TC1 ; |1824| 
         000cbd FFFF 
    4680 000cbf 0474          BCC $C$L184,!TC1 ; |1824| 
         000cc1 2C   
    4681                                                      ; branchcc occurs ; |1824| 
    4682                      .dwpsn  file "../FreeRTOS/Source/queue.c",line 1826,column 5,is_stmt
    4683 000cc2 ED10          MOV dbl(*SP(#8)), XAR3
         000cc4 BF   
    4684 000cc5 A96D          MOV *AR3(#8), AR1 ; |1826| 
         000cc7 0008 
    4685 000cc9 6219          BCC $C$L182,AR1 != #0 ; |1826| 
    4686                                                      ; branchcc occurs ; |1826| 
    4687 000ccb 3C19          MOV #1, AR1
    4688 000ccd 4A02          B $C$L183 ; |1826| 
    4689                                                      ; branch occurs ; |1826| 
    4690 000ccf       $C$L182:    
    4691 000ccf 3C09          MOV #0, AR1
    4692 000cd1       $C$L183:    
    4693 000cd1 0419          BCC $C$L185,AR1 != #0 ; |1826| 
         000cd3 25   
    4694                                                      ; branchcc occurs ; |1826| 
    4695                      .dwpsn  file "../FreeRTOS/Source/queue.c",line 1828,column 6,is_stmt
    4696 000cd4 ED10          MOV dbl(*SP(#8)), XAR0
         000cd6 8F   
    4697 000cd7 1408          AADD #8, AR0 ; |1828| 
         000cd9 84   
    4698              $C$DW$431       .dwtag  DW_TAG_TI_branch
    4699                      .dwattr $C$DW$431, DW_AT_low_pc(0x00)
    4700                      .dwattr $C$DW$431, DW_AT_name("_xTaskRemoveFromEventList")
    4701                      .dwattr $C$DW$431, DW_AT_TI_call
    4702 000cda 6C00          CALL #_xTaskRemoveFromEventList ; |1828| 
         000cdc 0000!
    4703                                                      ; call occurs [#_xTaskRemoveFromEventList] ; |1828| 
    4704 000cde 0404          BCC $C$L185,T0 == #0 ; |1828| 
         000ce0 18   
    4705                                                      ; branchcc occurs ; |1828| 
    4706                      .dwpsn  file "../FreeRTOS/Source/queue.c",line 1832,column 7,is_stmt
    4707 000ce1 ED08          MOV dbl(*SP(#4)), XAR3
         000ce3 BF   
    4708 000ce4 90B0          MOV XAR3, AC0
    4709 000ce6 0400          BCC $C$L185,AC0 == #0 ; |1832| 
         000ce8 10   
    4710                                                      ; branchcc occurs ; |1832| 
    4711                      .dwpsn  file "../FreeRTOS/Source/queue.c",line 1834,column 8,is_stmt
    4712 000ce9 E661          MOV #1, *AR3 ; |1834| 
         000ceb 01   
    4713                      .dwpsn  file "../FreeRTOS/Source/queue.c",line 1835,column 7,is_stmt
    4714 000cec 4A0B          B $C$L185 ; |1835| 
    4715                                                      ; branch occurs ; |1835| 
    4716 000cee       $C$L184:    
    4717                      .dwpsn  file "../FreeRTOS/Source/queue.c",line 1855,column 5,is_stmt
    4718 000cee ED10          MOV dbl(*SP(#8)), XAR3
         000cf0 BF   
    4719 000cf1 A916          MOV *SP(#11), AR1 ; |1855| 
TMS320C55x Assembler PC v4.4.1 Sat Sep 15 01:52:39 2018

Tools Copyright (c) 1996-2012 Texas Instruments Incorporated
queue.asm                                                            PAGE  100

    4720 000cf3 4019          ADD #1, AR1 ; |1855| 
    4721 000cf5 C96D          MOV AR1, *AR3(#31) ; |1855| 
         000cf7 001F 
    4722 000cf9       $C$L185:    
    4723                      .dwpsn  file "../FreeRTOS/Source/queue.c",line 1858,column 4,is_stmt
    4724 000cf9 E60C          MOV #1, *SP(#6) ; |1858| 
         000cfb 01   
    4725                      .dwendtag $C$DW$428
    4726              
    4727                      .dwpsn  file "../FreeRTOS/Source/queue.c",line 1859,column 3,is_stmt
    4728 000cfc 4A03          B $C$L187 ; |1859| 
    4729                                                      ; branch occurs ; |1859| 
    4730 000cfe       $C$L186:    
    4731                      .dwpsn  file "../FreeRTOS/Source/queue.c",line 1862,column 4,is_stmt
    4732 000cfe E60C          MOV #0, *SP(#6) ; |1862| 
         000d00 00   
    4733              $C$L187:    
    4734                      .dwendtag $C$DW$426
    4735              
    4736                      .dwpsn  file "../FreeRTOS/Source/queue.c",line 1866,column 2,is_stmt
    4737                      .dwpsn  file "../FreeRTOS/Source/queue.c",line 1868,column 2,is_stmt
    4738 000d01 A40C          MOV *SP(#6), T0 ; |1868| 
    4739                      .dwpsn  file "../FreeRTOS/Source/queue.c",line 1869,column 1,is_stmt
    4740 000d03 4E0D          AADD #13, SP
    4741                      .dwcfi  cfa_offset, 1
    4742              $C$DW$432       .dwtag  DW_TAG_TI_branch
    4743                      .dwattr $C$DW$432, DW_AT_low_pc(0x00)
    4744                      .dwattr $C$DW$432, DW_AT_TI_return
    4745 000d05 4804          RET
    4746                                                      ; return occurs
    4747              
    4748              $C$DW$433       .dwtag  DW_TAG_TI_loop
    4749                      .dwattr $C$DW$433, DW_AT_name("F:\eZdsp_DBG\eZDSP_5535_Files\ccsws2\test\Debug\queue.asm:$C$L180:1:15
    4750                      .dwattr $C$DW$433, DW_AT_TI_begin_file("../FreeRTOS/Source/queue.c")
    4751                      .dwattr $C$DW$433, DW_AT_TI_begin_line(0x6fc)
    4752                      .dwattr $C$DW$433, DW_AT_TI_end_line(0x6fc)
    4753              $C$DW$434       .dwtag  DW_TAG_TI_loop_range
    4754                      .dwattr $C$DW$434, DW_AT_low_pc($C$DW$L$_xQueueReceiveFromISR$11$B)
    4755                      .dwattr $C$DW$434, DW_AT_high_pc($C$DW$L$_xQueueReceiveFromISR$11$E)
    4756                      .dwendtag $C$DW$433
    4757              
    4758              
    4759              $C$DW$435       .dwtag  DW_TAG_TI_loop
    4760                      .dwattr $C$DW$435, DW_AT_name("F:\eZdsp_DBG\eZDSP_5535_Files\ccsws2\test\Debug\queue.asm:$C$L176:1:15
    4761                      .dwattr $C$DW$435, DW_AT_TI_begin_file("../FreeRTOS/Source/queue.c")
    4762                      .dwattr $C$DW$435, DW_AT_TI_begin_line(0x6fb)
    4763                      .dwattr $C$DW$435, DW_AT_TI_end_line(0x6fb)
    4764              $C$DW$436       .dwtag  DW_TAG_TI_loop_range
    4765                      .dwattr $C$DW$436, DW_AT_low_pc($C$DW$L$_xQueueReceiveFromISR$3$B)
    4766                      .dwattr $C$DW$436, DW_AT_high_pc($C$DW$L$_xQueueReceiveFromISR$3$E)
    4767                      .dwendtag $C$DW$435
    4768              
    4769                      .dwattr $C$DW$416, DW_AT_TI_end_file("../FreeRTOS/Source/queue.c")
    4770                      .dwattr $C$DW$416, DW_AT_TI_end_line(0x74d)
    4771                      .dwattr $C$DW$416, DW_AT_TI_end_column(0x01)
TMS320C55x Assembler PC v4.4.1 Sat Sep 15 01:52:39 2018

Tools Copyright (c) 1996-2012 Texas Instruments Incorporated
queue.asm                                                            PAGE  101

    4772                      .dwendentry
    4773                      .dwendtag $C$DW$416
    4774              
    4775 000d07               .sect   ".text"
    4776                      .align 4
    4777                      .global _xQueuePeekFromISR
    4778              
    4779              $C$DW$437       .dwtag  DW_TAG_subprogram, DW_AT_name("xQueuePeekFromISR")
    4780                      .dwattr $C$DW$437, DW_AT_low_pc(_xQueuePeekFromISR)
    4781                      .dwattr $C$DW$437, DW_AT_high_pc(0x00)
    4782                      .dwattr $C$DW$437, DW_AT_TI_symbol_name("_xQueuePeekFromISR")
    4783                      .dwattr $C$DW$437, DW_AT_external
    4784                      .dwattr $C$DW$437, DW_AT_type(*$C$DW$T$49)
    4785                      .dwattr $C$DW$437, DW_AT_TI_begin_file("../FreeRTOS/Source/queue.c")
    4786                      .dwattr $C$DW$437, DW_AT_TI_begin_line(0x750)
    4787                      .dwattr $C$DW$437, DW_AT_TI_begin_column(0x0c)
    4788                      .dwattr $C$DW$437, DW_AT_TI_max_frame_size(0x0c)
    4789                      .dwpsn  file "../FreeRTOS/Source/queue.c",line 1873,column 1,is_stmt,address _xQueuePeekFromISR
    4790              
    4791                      .dwfde $C$DW$CIE, _xQueuePeekFromISR
    4792              $C$DW$438       .dwtag  DW_TAG_formal_parameter, DW_AT_name("xQueue")
    4793                      .dwattr $C$DW$438, DW_AT_TI_symbol_name("_xQueue")
    4794                      .dwattr $C$DW$438, DW_AT_type(*$C$DW$T$27)
    4795                      .dwattr $C$DW$438, DW_AT_location[DW_OP_reg17]
    4796              $C$DW$439       .dwtag  DW_TAG_formal_parameter, DW_AT_name("pvBuffer")
    4797                      .dwattr $C$DW$439, DW_AT_TI_symbol_name("_pvBuffer")
    4798                      .dwattr $C$DW$439, DW_AT_type(*$C$DW$T$76)
    4799                      .dwattr $C$DW$439, DW_AT_location[DW_OP_reg19]
    4800              ;*******************************************************************************
    4801              ;* FUNCTION NAME: xQueuePeekFromISR                                            *
    4802              ;*                                                                             *
    4803              ;*   Function Uses Regs : AC0,AC0,T0,AR0,XAR0,AR1,XAR1,AR2,XAR2,AR3,XAR3,SP,   *
    4804              ;*                        M40,SATA,SATD,RDM,FRCT,SMUL                          *
    4805              ;*   Stack Frame        : Compact (No Frame Pointer, w/ debug)                 *
    4806              ;*   Total Frame Size   : 12 words                                             *
    4807              ;*                        (2 return address/alignment)                         *
    4808              ;*                        (10 local values)                                    *
    4809              ;*   Min System Stack   : 1 word                                               *
    4810              ;*******************************************************************************
    4811 000d08       _xQueuePeekFromISR:
    4812                      .dwcfi  cfa_offset, 1
    4813                      .dwcfi  save_reg_to_mem, 91, -1
    4814 000d08 4EF5          AADD #-11, SP
    4815                      .dwcfi  cfa_offset, 12
    4816              $C$DW$440       .dwtag  DW_TAG_variable, DW_AT_name("xQueue")
    4817                      .dwattr $C$DW$440, DW_AT_TI_symbol_name("_xQueue")
    4818                      .dwattr $C$DW$440, DW_AT_type(*$C$DW$T$27)
    4819                      .dwattr $C$DW$440, DW_AT_location[DW_OP_bregx 0x24 0]
    4820              $C$DW$441       .dwtag  DW_TAG_variable, DW_AT_name("pvBuffer")
    4821                      .dwattr $C$DW$441, DW_AT_TI_symbol_name("_pvBuffer")
    4822                      .dwattr $C$DW$441, DW_AT_type(*$C$DW$T$76)
    4823                      .dwattr $C$DW$441, DW_AT_location[DW_OP_bregx 0x24 2]
    4824              $C$DW$442       .dwtag  DW_TAG_variable, DW_AT_name("xReturn")
    4825                      .dwattr $C$DW$442, DW_AT_TI_symbol_name("_xReturn")
    4826                      .dwattr $C$DW$442, DW_AT_type(*$C$DW$T$49)
TMS320C55x Assembler PC v4.4.1 Sat Sep 15 01:52:39 2018

Tools Copyright (c) 1996-2012 Texas Instruments Incorporated
queue.asm                                                            PAGE  102

    4827                      .dwattr $C$DW$442, DW_AT_location[DW_OP_bregx 0x24 4]
    4828              $C$DW$443       .dwtag  DW_TAG_variable, DW_AT_name("uxSavedInterruptStatus")
    4829                      .dwattr $C$DW$443, DW_AT_TI_symbol_name("_uxSavedInterruptStatus")
    4830                      .dwattr $C$DW$443, DW_AT_type(*$C$DW$T$32)
    4831                      .dwattr $C$DW$443, DW_AT_location[DW_OP_bregx 0x24 5]
    4832              $C$DW$444       .dwtag  DW_TAG_variable, DW_AT_name("pcOriginalReadPosition")
    4833                      .dwattr $C$DW$444, DW_AT_TI_symbol_name("_pcOriginalReadPosition")
    4834                      .dwattr $C$DW$444, DW_AT_type(*$C$DW$T$30)
    4835                      .dwattr $C$DW$444, DW_AT_location[DW_OP_bregx 0x24 6]
    4836              $C$DW$445       .dwtag  DW_TAG_variable, DW_AT_name("pxQueue")
    4837                      .dwattr $C$DW$445, DW_AT_TI_symbol_name("_pxQueue")
    4838                      .dwattr $C$DW$445, DW_AT_type(*$C$DW$T$69)
    4839                      .dwattr $C$DW$445, DW_AT_location[DW_OP_bregx 0x24 8]
    4840 000d0a EB04          MOV XAR1, dbl(*SP(#2))
         000d0c 95   
    4841 000d0d EB00          MOV XAR0, dbl(*SP(#0))
         000d0f 85   
    4842                      .dwpsn  file "../FreeRTOS/Source/queue.c",line 1877,column 17,is_stmt
    4843 000d10 ED00          MOV dbl(*SP(#0)), XAR3
         000d12 BF   
    4844 000d13 EB10          MOV XAR3, dbl(*SP(#8))
         000d15 B5   
    4845                      .dwpsn  file "../FreeRTOS/Source/queue.c",line 1879,column 2,is_stmt
    4846 000d16 90B0          MOV XAR3, AC0
    4847 000d18 6290          BCC $C$L189,AC0 != #0 ; |1879| 
    4848                                                      ; branchcc occurs ; |1879| 
    4849 000d1a 20     nop
    4850 000d1b 46B3   bset INTM
    4851 000d1d       $C$L188:    
    4852 000d1d       $C$DW$L$_xQueuePeekFromISR$3$B:
    4853 000d1d 4A7E          B $C$L188 ; |1879| 
    4854                                                      ; branch occurs ; |1879| 
    4855 000d1f       $C$DW$L$_xQueuePeekFromISR$3$E:
    4856 000d1f       $C$L189:    
    4857                      .dwpsn  file "../FreeRTOS/Source/queue.c",line 1880,column 2,is_stmt
    4858 000d1f ED04          MOV dbl(*SP(#2)), XAR3
         000d21 BF   
    4859 000d22 90B0          MOV XAR3, AC0
    4860 000d24 3C0A          MOV #0, AR2
    4861              
    4862 000d26 6590          BCC $C$L190,AC0 != #0 ; |1880| 
    4863 000d28 3D09  ||      MOV #0, AR1
    4864              
    4865                                                      ; branchcc occurs ; |1880| 
    4866 000d2a ED10          MOV dbl(*SP(#8)), XAR3
         000d2c BF   
    4867 000d2d AB6D          MOV *AR3(#30), AR3 ; |1880| 
         000d2f 001E 
    4868 000d31 610B          BCC $C$L190,AR3 == #0 ; |1880| 
    4869                                                      ; branchcc occurs ; |1880| 
    4870 000d33 3C1A          MOV #1, AR2
    4871 000d35       $C$L190:    
    4872 000d35 611A          BCC $C$L191,AR2 != #0 ; |1880| 
    4873                                                      ; branchcc occurs ; |1880| 
    4874 000d37 3C19          MOV #1, AR1
TMS320C55x Assembler PC v4.4.1 Sat Sep 15 01:52:39 2018

Tools Copyright (c) 1996-2012 Texas Instruments Incorporated
queue.asm                                                            PAGE  103

    4875 000d39       $C$L191:    
    4876 000d39 6299          BCC $C$L193,AR1 != #0 ; |1880| 
    4877                                                      ; branchcc occurs ; |1880| 
    4878 000d3b 20     nop
    4879 000d3c 46B3   bset INTM
    4880 000d3e       $C$L192:    
    4881 000d3e       $C$DW$L$_xQueuePeekFromISR$11$B:
    4882 000d3e 4A7E          B $C$L192 ; |1880| 
    4883                                                      ; branch occurs ; |1880| 
    4884 000d40       $C$DW$L$_xQueuePeekFromISR$11$E:
    4885 000d40       $C$L193:    
    4886                      .dwpsn  file "../FreeRTOS/Source/queue.c",line 1881,column 2,is_stmt
    4887 000d40 ED10          MOV dbl(*SP(#8)), XAR3
         000d42 BF   
    4888 000d43 AA6D          MOV *AR3(#30), AR2 ; |1881| 
         000d45 001E 
    4889 000d47 3C09          MOV #0, AR1
    4890 000d49 610A          BCC $C$L194,AR2 == #0 ; |1881| 
    4891                                                      ; branchcc occurs ; |1881| 
    4892 000d4b 3C19          MOV #1, AR1
    4893 000d4d       $C$L194:    
    4894 000d4d 6299          BCC $C$L196,AR1 != #0 ; |1881| 
    4895                                                      ; branchcc occurs ; |1881| 
    4896 000d4f 20     nop
    4897 000d50 46B3   bset INTM
    4898 000d52       $C$L195:    
    4899 000d52       $C$DW$L$_xQueuePeekFromISR$16$B:
    4900 000d52 4A7E          B $C$L195 ; |1881| 
    4901                                                      ; branch occurs ; |1881| 
    4902 000d54       $C$DW$L$_xQueuePeekFromISR$16$E:
    4903 000d54       $C$L196:    
    4904                      .dwpsn  file "../FreeRTOS/Source/queue.c",line 1899,column 2,is_stmt
    4905 000d54 E60A          MOV #0, *SP(#5) ; |1899| 
         000d56 00   
    4906                      .dwpsn  file "../FreeRTOS/Source/queue.c",line 1902,column 3,is_stmt
    4907 000d57 ED10          MOV dbl(*SP(#8)), XAR3
         000d59 BF   
    4908 000d5a A96D          MOV *AR3(#28), AR1 ; |1902| 
         000d5c 001C 
    4909 000d5e 0409          BCC $C$L197,AR1 == #0 ; |1902| 
         000d60 1D   
    4910                                                      ; branchcc occurs ; |1902| 
    4911                      .dwpsn  file "../FreeRTOS/Source/queue.c",line 1908,column 4,is_stmt
    4912 000d61 ED7D          MOV dbl(*AR3(short(#6))), XAR3
         000d63 BF   
    4913 000d64 EB0C          MOV XAR3, dbl(*SP(#6))
         000d66 B5   
    4914                      .dwpsn  file "../FreeRTOS/Source/queue.c",line 1909,column 4,is_stmt
    4915 000d67 ED10          MOV dbl(*SP(#8)), XAR0
         000d69 8F   
    4916 000d6a ED04          MOV dbl(*SP(#2)), XAR1
         000d6c 9F   
    4917              $C$DW$446       .dwtag  DW_TAG_TI_branch
    4918                      .dwattr $C$DW$446, DW_AT_low_pc(0x00)
    4919                      .dwattr $C$DW$446, DW_AT_name("_prvCopyDataFromQueue")
TMS320C55x Assembler PC v4.4.1 Sat Sep 15 01:52:39 2018

Tools Copyright (c) 1996-2012 Texas Instruments Incorporated
queue.asm                                                            PAGE  104

    4920                      .dwattr $C$DW$446, DW_AT_TI_call
    4921 000d6d 0802          CALL #_prvCopyDataFromQueue ; |1909| 
         000d6f 10   
    4922                                                      ; call occurs [#_prvCopyDataFromQueue] ; |1909| 
    4923                      .dwpsn  file "../FreeRTOS/Source/queue.c",line 1910,column 4,is_stmt
    4924 000d70 ED10          MOV dbl(*SP(#8)), XAR3
         000d72 BF   
    4925 000d73 ED0C          MOV dbl(*SP(#6)), XAR2
         000d75 AF   
    4926 000d76 EB7D          MOV XAR2, dbl(*AR3(short(#6)))
         000d78 A5   
    4927                      .dwpsn  file "../FreeRTOS/Source/queue.c",line 1912,column 4,is_stmt
    4928 000d79 E608          MOV #1, *SP(#4) ; |1912| 
         000d7b 01   
    4929                      .dwpsn  file "../FreeRTOS/Source/queue.c",line 1913,column 3,is_stmt
    4930 000d7c 4A03          B $C$L198 ; |1913| 
    4931                                                      ; branch occurs ; |1913| 
    4932 000d7e       $C$L197:    
    4933                      .dwpsn  file "../FreeRTOS/Source/queue.c",line 1916,column 4,is_stmt
    4934 000d7e E608          MOV #0, *SP(#4) ; |1916| 
         000d80 00   
    4935 000d81       $C$L198:    
    4936                      .dwpsn  file "../FreeRTOS/Source/queue.c",line 1920,column 2,is_stmt
    4937                      .dwpsn  file "../FreeRTOS/Source/queue.c",line 1922,column 2,is_stmt
    4938 000d81 A408          MOV *SP(#4), T0 ; |1922| 
    4939                      .dwpsn  file "../FreeRTOS/Source/queue.c",line 1923,column 1,is_stmt
    4940 000d83 4E0B          AADD #11, SP
    4941                      .dwcfi  cfa_offset, 1
    4942              $C$DW$447       .dwtag  DW_TAG_TI_branch
    4943                      .dwattr $C$DW$447, DW_AT_low_pc(0x00)
    4944                      .dwattr $C$DW$447, DW_AT_TI_return
    4945 000d85 4804          RET
    4946                                                      ; return occurs
    4947              
    4948              $C$DW$448       .dwtag  DW_TAG_TI_loop
    4949                      .dwattr $C$DW$448, DW_AT_name("F:\eZdsp_DBG\eZDSP_5535_Files\ccsws2\test\Debug\queue.asm:$C$L195:1:15
    4950                      .dwattr $C$DW$448, DW_AT_TI_begin_file("../FreeRTOS/Source/queue.c")
    4951                      .dwattr $C$DW$448, DW_AT_TI_begin_line(0x759)
    4952                      .dwattr $C$DW$448, DW_AT_TI_end_line(0x759)
    4953              $C$DW$449       .dwtag  DW_TAG_TI_loop_range
    4954                      .dwattr $C$DW$449, DW_AT_low_pc($C$DW$L$_xQueuePeekFromISR$16$B)
    4955                      .dwattr $C$DW$449, DW_AT_high_pc($C$DW$L$_xQueuePeekFromISR$16$E)
    4956                      .dwendtag $C$DW$448
    4957              
    4958              
    4959              $C$DW$450       .dwtag  DW_TAG_TI_loop
    4960                      .dwattr $C$DW$450, DW_AT_name("F:\eZdsp_DBG\eZDSP_5535_Files\ccsws2\test\Debug\queue.asm:$C$L192:1:15
    4961                      .dwattr $C$DW$450, DW_AT_TI_begin_file("../FreeRTOS/Source/queue.c")
    4962                      .dwattr $C$DW$450, DW_AT_TI_begin_line(0x758)
    4963                      .dwattr $C$DW$450, DW_AT_TI_end_line(0x758)
    4964              $C$DW$451       .dwtag  DW_TAG_TI_loop_range
    4965                      .dwattr $C$DW$451, DW_AT_low_pc($C$DW$L$_xQueuePeekFromISR$11$B)
    4966                      .dwattr $C$DW$451, DW_AT_high_pc($C$DW$L$_xQueuePeekFromISR$11$E)
    4967                      .dwendtag $C$DW$450
    4968              
TMS320C55x Assembler PC v4.4.1 Sat Sep 15 01:52:39 2018

Tools Copyright (c) 1996-2012 Texas Instruments Incorporated
queue.asm                                                            PAGE  105

    4969              
    4970              $C$DW$452       .dwtag  DW_TAG_TI_loop
    4971                      .dwattr $C$DW$452, DW_AT_name("F:\eZdsp_DBG\eZDSP_5535_Files\ccsws2\test\Debug\queue.asm:$C$L188:1:15
    4972                      .dwattr $C$DW$452, DW_AT_TI_begin_file("../FreeRTOS/Source/queue.c")
    4973                      .dwattr $C$DW$452, DW_AT_TI_begin_line(0x757)
    4974                      .dwattr $C$DW$452, DW_AT_TI_end_line(0x757)
    4975              $C$DW$453       .dwtag  DW_TAG_TI_loop_range
    4976                      .dwattr $C$DW$453, DW_AT_low_pc($C$DW$L$_xQueuePeekFromISR$3$B)
    4977                      .dwattr $C$DW$453, DW_AT_high_pc($C$DW$L$_xQueuePeekFromISR$3$E)
    4978                      .dwendtag $C$DW$452
    4979              
    4980                      .dwattr $C$DW$437, DW_AT_TI_end_file("../FreeRTOS/Source/queue.c")
    4981                      .dwattr $C$DW$437, DW_AT_TI_end_line(0x783)
    4982                      .dwattr $C$DW$437, DW_AT_TI_end_column(0x01)
    4983                      .dwendentry
    4984                      .dwendtag $C$DW$437
    4985              
    4986 000d87               .sect   ".text"
    4987                      .align 4
    4988                      .global _uxQueueMessagesWaiting
    4989              
    4990              $C$DW$454       .dwtag  DW_TAG_subprogram, DW_AT_name("uxQueueMessagesWaiting")
    4991                      .dwattr $C$DW$454, DW_AT_low_pc(_uxQueueMessagesWaiting)
    4992                      .dwattr $C$DW$454, DW_AT_high_pc(0x00)
    4993                      .dwattr $C$DW$454, DW_AT_TI_symbol_name("_uxQueueMessagesWaiting")
    4994                      .dwattr $C$DW$454, DW_AT_external
    4995                      .dwattr $C$DW$454, DW_AT_type(*$C$DW$T$32)
    4996                      .dwattr $C$DW$454, DW_AT_TI_begin_file("../FreeRTOS/Source/queue.c")
    4997                      .dwattr $C$DW$454, DW_AT_TI_begin_line(0x786)
    4998                      .dwattr $C$DW$454, DW_AT_TI_begin_column(0x0d)
    4999                      .dwattr $C$DW$454, DW_AT_TI_max_frame_size(0x04)
    5000                      .dwpsn  file "../FreeRTOS/Source/queue.c",line 1927,column 1,is_stmt,address _uxQueueMessagesWaiting
    5001              
    5002                      .dwfde $C$DW$CIE, _uxQueueMessagesWaiting
    5003              $C$DW$455       .dwtag  DW_TAG_formal_parameter, DW_AT_name("xQueue")
    5004                      .dwattr $C$DW$455, DW_AT_TI_symbol_name("_xQueue")
    5005                      .dwattr $C$DW$455, DW_AT_type(*$C$DW$T$55)
    5006                      .dwattr $C$DW$455, DW_AT_location[DW_OP_reg17]
    5007              ;*******************************************************************************
    5008              ;* FUNCTION NAME: uxQueueMessagesWaiting                                       *
    5009              ;*                                                                             *
    5010              ;*   Function Uses Regs : AC0,AC0,T0,AR0,XAR0,AR1,AR3,XAR3,SP,CARRY,M40,SATA,  *
    5011              ;*                        SATD,RDM,FRCT,SMUL                                   *
    5012              ;*   Stack Frame        : Compact (No Frame Pointer, w/ debug)                 *
    5013              ;*   Total Frame Size   : 4 words                                              *
    5014              ;*                        (1 return address/alignment)                         *
    5015              ;*                        (3 local values)                                     *
    5016              ;*   Min System Stack   : 1 word                                               *
    5017              ;*******************************************************************************
    5018 000d88       _uxQueueMessagesWaiting:
    5019                      .dwcfi  cfa_offset, 1
    5020                      .dwcfi  save_reg_to_mem, 91, -1
    5021 000d88 4EFD          AADD #-3, SP
    5022                      .dwcfi  cfa_offset, 4
    5023              $C$DW$456       .dwtag  DW_TAG_variable, DW_AT_name("xQueue")
TMS320C55x Assembler PC v4.4.1 Sat Sep 15 01:52:39 2018

Tools Copyright (c) 1996-2012 Texas Instruments Incorporated
queue.asm                                                            PAGE  106

    5024                      .dwattr $C$DW$456, DW_AT_TI_symbol_name("_xQueue")
    5025                      .dwattr $C$DW$456, DW_AT_type(*$C$DW$T$55)
    5026                      .dwattr $C$DW$456, DW_AT_location[DW_OP_bregx 0x24 0]
    5027              $C$DW$457       .dwtag  DW_TAG_variable, DW_AT_name("uxReturn")
    5028                      .dwattr $C$DW$457, DW_AT_TI_symbol_name("_uxReturn")
    5029                      .dwattr $C$DW$457, DW_AT_type(*$C$DW$T$32)
    5030                      .dwattr $C$DW$457, DW_AT_location[DW_OP_bregx 0x24 2]
    5031 000d8a EB00          MOV XAR0, dbl(*SP(#0))
         000d8c 85   
    5032                      .dwpsn  file "../FreeRTOS/Source/queue.c",line 1930,column 2,is_stmt
    5033 000d8d ED00          MOV dbl(*SP(#0)), XAR3
         000d8f BF   
    5034 000d90 90B0          MOV XAR3, AC0
    5035 000d92 6290          BCC $C$L200,AC0 != #0 ; |1930| 
    5036                                                      ; branchcc occurs ; |1930| 
    5037 000d94 20     nop
    5038 000d95 46B3   bset INTM
    5039 000d97       $C$L199:    
    5040 000d97       $C$DW$L$_uxQueueMessagesWaiting$3$B:
    5041 000d97 4A7E          B $C$L199 ; |1930| 
    5042                                                      ; branch occurs ; |1930| 
    5043 000d99       $C$DW$L$_uxQueueMessagesWaiting$3$E:
    5044 000d99       $C$L200:    
    5045                      .dwpsn  file "../FreeRTOS/Source/queue.c",line 1932,column 2,is_stmt
    5046 000d99 20     nop
    5047 000d9a 46B3   bset INTM
    5048 000d9c F731          ADD #1, *(#_usCriticalNesting) ; |1932| 
         000d9e 0001 
         000da0 0000 
         000da2 00!  
    5049 000da3 20            NOP
    5050 000da4 20            NOP
    5051 000da5 20            NOP
    5052                      .dwpsn  file "../FreeRTOS/Source/queue.c",line 1934,column 3,is_stmt
    5053 000da6 A96D          MOV *AR3(#28), AR1 ; |1934| 
         000da8 001C 
    5054 000daa C904          MOV AR1, *SP(#2) ; |1934| 
    5055                      .dwpsn  file "../FreeRTOS/Source/queue.c",line 1936,column 2,is_stmt
    5056 000dac A931          MOV *(#_usCriticalNesting), AR1 ; |1936| 
         000dae 0000 
         000db0 00!  
    5057 000db1 0409          BCC $C$L201,AR1 == #0 ; |1936| 
         000db3 14   
    5058                                                      ; branchcc occurs ; |1936| 
    5059 000db4 F731          SUB #1, *(#_usCriticalNesting) ; |1936| 
         000db6 FFFF 
         000db8 0000 
         000dba 00!  
    5060 000dbb 20            NOP
    5061 000dbc 20            NOP
    5062 000dbd 20            NOP
    5063 000dbe A931          MOV *(#_usCriticalNesting), AR1 ; |1936| 
         000dc0 0000 
         000dc2 00!  
    5064 000dc3 6199          BCC $C$L201,AR1 != #0 ; |1936| 
TMS320C55x Assembler PC v4.4.1 Sat Sep 15 01:52:39 2018

Tools Copyright (c) 1996-2012 Texas Instruments Incorporated
queue.asm                                                            PAGE  107

    5065                                                      ; branchcc occurs ; |1936| 
    5066 000dc5 20     nop
    5067 000dc6 46B2   bclr INTM
    5068 000dc8       $C$L201:    
    5069                      .dwpsn  file "../FreeRTOS/Source/queue.c",line 1938,column 2,is_stmt
    5070 000dc8 A404          MOV *SP(#2), T0 ; |1938| 
    5071                      .dwpsn  file "../FreeRTOS/Source/queue.c",line 1939,column 1,is_stmt
    5072 000dca 4E03          AADD #3, SP
    5073                      .dwcfi  cfa_offset, 1
    5074              $C$DW$458       .dwtag  DW_TAG_TI_branch
    5075                      .dwattr $C$DW$458, DW_AT_low_pc(0x00)
    5076                      .dwattr $C$DW$458, DW_AT_TI_return
    5077 000dcc 4804          RET
    5078                                                      ; return occurs
    5079              
    5080              $C$DW$459       .dwtag  DW_TAG_TI_loop
    5081                      .dwattr $C$DW$459, DW_AT_name("F:\eZdsp_DBG\eZDSP_5535_Files\ccsws2\test\Debug\queue.asm:$C$L199:1:15
    5082                      .dwattr $C$DW$459, DW_AT_TI_begin_file("../FreeRTOS/Source/queue.c")
    5083                      .dwattr $C$DW$459, DW_AT_TI_begin_line(0x78a)
    5084                      .dwattr $C$DW$459, DW_AT_TI_end_line(0x78a)
    5085              $C$DW$460       .dwtag  DW_TAG_TI_loop_range
    5086                      .dwattr $C$DW$460, DW_AT_low_pc($C$DW$L$_uxQueueMessagesWaiting$3$B)
    5087                      .dwattr $C$DW$460, DW_AT_high_pc($C$DW$L$_uxQueueMessagesWaiting$3$E)
    5088                      .dwendtag $C$DW$459
    5089              
    5090                      .dwattr $C$DW$454, DW_AT_TI_end_file("../FreeRTOS/Source/queue.c")
    5091                      .dwattr $C$DW$454, DW_AT_TI_end_line(0x793)
    5092                      .dwattr $C$DW$454, DW_AT_TI_end_column(0x01)
    5093                      .dwendentry
    5094                      .dwendtag $C$DW$454
    5095              
    5096 000dce               .sect   ".text"
    5097                      .align 4
    5098                      .global _uxQueueSpacesAvailable
    5099              
    5100              $C$DW$461       .dwtag  DW_TAG_subprogram, DW_AT_name("uxQueueSpacesAvailable")
    5101                      .dwattr $C$DW$461, DW_AT_low_pc(_uxQueueSpacesAvailable)
    5102                      .dwattr $C$DW$461, DW_AT_high_pc(0x00)
    5103                      .dwattr $C$DW$461, DW_AT_TI_symbol_name("_uxQueueSpacesAvailable")
    5104                      .dwattr $C$DW$461, DW_AT_external
    5105                      .dwattr $C$DW$461, DW_AT_type(*$C$DW$T$32)
    5106                      .dwattr $C$DW$461, DW_AT_TI_begin_file("../FreeRTOS/Source/queue.c")
    5107                      .dwattr $C$DW$461, DW_AT_TI_begin_line(0x796)
    5108                      .dwattr $C$DW$461, DW_AT_TI_begin_column(0x0d)
    5109                      .dwattr $C$DW$461, DW_AT_TI_max_frame_size(0x08)
    5110                      .dwpsn  file "../FreeRTOS/Source/queue.c",line 1943,column 1,is_stmt,address _uxQueueSpacesAvailable
    5111              
    5112                      .dwfde $C$DW$CIE, _uxQueueSpacesAvailable
    5113              $C$DW$462       .dwtag  DW_TAG_formal_parameter, DW_AT_name("xQueue")
    5114                      .dwattr $C$DW$462, DW_AT_TI_symbol_name("_xQueue")
    5115                      .dwattr $C$DW$462, DW_AT_type(*$C$DW$T$55)
    5116                      .dwattr $C$DW$462, DW_AT_location[DW_OP_reg17]
    5117              ;*******************************************************************************
    5118              ;* FUNCTION NAME: uxQueueSpacesAvailable                                       *
    5119              ;*                                                                             *
TMS320C55x Assembler PC v4.4.1 Sat Sep 15 01:52:39 2018

Tools Copyright (c) 1996-2012 Texas Instruments Incorporated
queue.asm                                                            PAGE  108

    5120              ;*   Function Uses Regs : AC0,AC0,T0,AR0,XAR0,AR1,AR2,XAR2,AR3,XAR3,SP,CARRY,  *
    5121              ;*                        M40,SATA,SATD,RDM,FRCT,SMUL                          *
    5122              ;*   Stack Frame        : Compact (No Frame Pointer, w/ debug)                 *
    5123              ;*   Total Frame Size   : 8 words                                              *
    5124              ;*                        (2 return address/alignment)                         *
    5125              ;*                        (6 local values)                                     *
    5126              ;*   Min System Stack   : 1 word                                               *
    5127              ;*******************************************************************************
    5128 000dd0       _uxQueueSpacesAvailable:
    5129                      .dwcfi  cfa_offset, 1
    5130                      .dwcfi  save_reg_to_mem, 91, -1
    5131 000dd0 4EF9          AADD #-7, SP
    5132                      .dwcfi  cfa_offset, 8
    5133              $C$DW$463       .dwtag  DW_TAG_variable, DW_AT_name("xQueue")
    5134                      .dwattr $C$DW$463, DW_AT_TI_symbol_name("_xQueue")
    5135                      .dwattr $C$DW$463, DW_AT_type(*$C$DW$T$55)
    5136                      .dwattr $C$DW$463, DW_AT_location[DW_OP_bregx 0x24 0]
    5137              $C$DW$464       .dwtag  DW_TAG_variable, DW_AT_name("uxReturn")
    5138                      .dwattr $C$DW$464, DW_AT_TI_symbol_name("_uxReturn")
    5139                      .dwattr $C$DW$464, DW_AT_type(*$C$DW$T$32)
    5140                      .dwattr $C$DW$464, DW_AT_location[DW_OP_bregx 0x24 2]
    5141              $C$DW$465       .dwtag  DW_TAG_variable, DW_AT_name("pxQueue")
    5142                      .dwattr $C$DW$465, DW_AT_TI_symbol_name("_pxQueue")
    5143                      .dwattr $C$DW$465, DW_AT_type(*$C$DW$T$69)
    5144                      .dwattr $C$DW$465, DW_AT_location[DW_OP_bregx 0x24 4]
    5145 000dd2 EB00          MOV XAR0, dbl(*SP(#0))
         000dd4 85   
    5146                      .dwpsn  file "../FreeRTOS/Source/queue.c",line 1945,column 17,is_stmt
    5147 000dd5 ED00          MOV dbl(*SP(#0)), XAR3
         000dd7 BF   
    5148 000dd8 EB08          MOV XAR3, dbl(*SP(#4))
         000dda B5   
    5149                      .dwpsn  file "../FreeRTOS/Source/queue.c",line 1947,column 2,is_stmt
    5150 000ddb 90B0          MOV XAR3, AC0
    5151 000ddd 6290          BCC $C$L203,AC0 != #0 ; |1947| 
    5152                                                      ; branchcc occurs ; |1947| 
    5153 000ddf 20     nop
    5154 000de0 46B3   bset INTM
    5155 000de2       $C$L202:    
    5156 000de2       $C$DW$L$_uxQueueSpacesAvailable$3$B:
    5157 000de2 4A7E          B $C$L202 ; |1947| 
    5158                                                      ; branch occurs ; |1947| 
    5159 000de4       $C$DW$L$_uxQueueSpacesAvailable$3$E:
    5160 000de4       $C$L203:    
    5161                      .dwpsn  file "../FreeRTOS/Source/queue.c",line 1949,column 2,is_stmt
    5162 000de4 20     nop
    5163 000de5 46B3   bset INTM
    5164 000de7 F731          ADD #1, *(#_usCriticalNesting) ; |1949| 
         000de9 0001 
         000deb 0000 
         000ded 00!  
    5165 000dee 20            NOP
    5166                      .dwpsn  file "../FreeRTOS/Source/queue.c",line 1951,column 3,is_stmt
    5167 000def ED08          MOV dbl(*SP(#4)), XAR2
         000df1 AF   
TMS320C55x Assembler PC v4.4.1 Sat Sep 15 01:52:39 2018

Tools Copyright (c) 1996-2012 Texas Instruments Incorporated
queue.asm                                                            PAGE  109

    5168 000df2 A04D          MOV *AR2(#29), AC0 ; |1951| 
         000df4 001D 
    5169 000df6 DF6D          SUB uns(*AR3(#28)), AC0, AC0 ; |1951| 
         000df8 0F00 
         000dfa 1C   
    5170 000dfb C004          MOV AC0, *SP(#2) ; |1951| 
    5171                      .dwpsn  file "../FreeRTOS/Source/queue.c",line 1953,column 2,is_stmt
    5172 000dfd A931          MOV *(#_usCriticalNesting), AR1 ; |1953| 
         000dff 0000 
         000e01 00!  
    5173 000e02 0409          BCC $C$L204,AR1 == #0 ; |1953| 
         000e04 14   
    5174                                                      ; branchcc occurs ; |1953| 
    5175 000e05 F731          SUB #1, *(#_usCriticalNesting) ; |1953| 
         000e07 FFFF 
         000e09 0000 
         000e0b 00!  
    5176 000e0c 20            NOP
    5177 000e0d 20            NOP
    5178 000e0e 20            NOP
    5179 000e0f A931          MOV *(#_usCriticalNesting), AR1 ; |1953| 
         000e11 0000 
         000e13 00!  
    5180 000e14 6199          BCC $C$L204,AR1 != #0 ; |1953| 
    5181                                                      ; branchcc occurs ; |1953| 
    5182 000e16 20     nop
    5183 000e17 46B2   bclr INTM
    5184 000e19       $C$L204:    
    5185                      .dwpsn  file "../FreeRTOS/Source/queue.c",line 1955,column 2,is_stmt
    5186 000e19 2204          MOV AC0, T0
    5187                      .dwpsn  file "../FreeRTOS/Source/queue.c",line 1956,column 1,is_stmt
    5188 000e1b 4E07          AADD #7, SP
    5189                      .dwcfi  cfa_offset, 1
    5190              $C$DW$466       .dwtag  DW_TAG_TI_branch
    5191                      .dwattr $C$DW$466, DW_AT_low_pc(0x00)
    5192                      .dwattr $C$DW$466, DW_AT_TI_return
    5193 000e1d 4804          RET
    5194                                                      ; return occurs
    5195              
    5196              $C$DW$467       .dwtag  DW_TAG_TI_loop
    5197                      .dwattr $C$DW$467, DW_AT_name("F:\eZdsp_DBG\eZDSP_5535_Files\ccsws2\test\Debug\queue.asm:$C$L202:1:15
    5198                      .dwattr $C$DW$467, DW_AT_TI_begin_file("../FreeRTOS/Source/queue.c")
    5199                      .dwattr $C$DW$467, DW_AT_TI_begin_line(0x79b)
    5200                      .dwattr $C$DW$467, DW_AT_TI_end_line(0x79b)
    5201              $C$DW$468       .dwtag  DW_TAG_TI_loop_range
    5202                      .dwattr $C$DW$468, DW_AT_low_pc($C$DW$L$_uxQueueSpacesAvailable$3$B)
    5203                      .dwattr $C$DW$468, DW_AT_high_pc($C$DW$L$_uxQueueSpacesAvailable$3$E)
    5204                      .dwendtag $C$DW$467
    5205              
    5206                      .dwattr $C$DW$461, DW_AT_TI_end_file("../FreeRTOS/Source/queue.c")
    5207                      .dwattr $C$DW$461, DW_AT_TI_end_line(0x7a4)
    5208                      .dwattr $C$DW$461, DW_AT_TI_end_column(0x01)
    5209                      .dwendentry
    5210                      .dwendtag $C$DW$461
    5211              
TMS320C55x Assembler PC v4.4.1 Sat Sep 15 01:52:39 2018

Tools Copyright (c) 1996-2012 Texas Instruments Incorporated
queue.asm                                                            PAGE  110

    5212 000e1f               .sect   ".text"
    5213                      .align 4
    5214                      .global _uxQueueMessagesWaitingFromISR
    5215              
    5216              $C$DW$469       .dwtag  DW_TAG_subprogram, DW_AT_name("uxQueueMessagesWaitingFromISR")
    5217                      .dwattr $C$DW$469, DW_AT_low_pc(_uxQueueMessagesWaitingFromISR)
    5218                      .dwattr $C$DW$469, DW_AT_high_pc(0x00)
    5219                      .dwattr $C$DW$469, DW_AT_TI_symbol_name("_uxQueueMessagesWaitingFromISR")
    5220                      .dwattr $C$DW$469, DW_AT_external
    5221                      .dwattr $C$DW$469, DW_AT_type(*$C$DW$T$32)
    5222                      .dwattr $C$DW$469, DW_AT_TI_begin_file("../FreeRTOS/Source/queue.c")
    5223                      .dwattr $C$DW$469, DW_AT_TI_begin_line(0x7a7)
    5224                      .dwattr $C$DW$469, DW_AT_TI_begin_column(0x0d)
    5225                      .dwattr $C$DW$469, DW_AT_TI_max_frame_size(0x08)
    5226                      .dwpsn  file "../FreeRTOS/Source/queue.c",line 1960,column 1,is_stmt,address _uxQueueMessagesWaitingF
    5227              
    5228                      .dwfde $C$DW$CIE, _uxQueueMessagesWaitingFromISR
    5229              $C$DW$470       .dwtag  DW_TAG_formal_parameter, DW_AT_name("xQueue")
    5230                      .dwattr $C$DW$470, DW_AT_TI_symbol_name("_xQueue")
    5231                      .dwattr $C$DW$470, DW_AT_type(*$C$DW$T$55)
    5232                      .dwattr $C$DW$470, DW_AT_location[DW_OP_reg17]
    5233              ;*******************************************************************************
    5234              ;* FUNCTION NAME: uxQueueMessagesWaitingFromISR                                *
    5235              ;*                                                                             *
    5236              ;*   Function Uses Regs : AC0,AC0,T0,AR0,XAR0,AR1,AR3,XAR3,SP,M40,SATA,SATD,   *
    5237              ;*                        RDM,FRCT,SMUL                                        *
    5238              ;*   Stack Frame        : Compact (No Frame Pointer, w/ debug)                 *
    5239              ;*   Total Frame Size   : 8 words                                              *
    5240              ;*                        (2 return address/alignment)                         *
    5241              ;*                        (6 local values)                                     *
    5242              ;*   Min System Stack   : 1 word                                               *
    5243              ;*******************************************************************************
    5244 000e20       _uxQueueMessagesWaitingFromISR:
    5245                      .dwcfi  cfa_offset, 1
    5246                      .dwcfi  save_reg_to_mem, 91, -1
    5247 000e20 4EF9          AADD #-7, SP
    5248                      .dwcfi  cfa_offset, 8
    5249              $C$DW$471       .dwtag  DW_TAG_variable, DW_AT_name("xQueue")
    5250                      .dwattr $C$DW$471, DW_AT_TI_symbol_name("_xQueue")
    5251                      .dwattr $C$DW$471, DW_AT_type(*$C$DW$T$55)
    5252                      .dwattr $C$DW$471, DW_AT_location[DW_OP_bregx 0x24 0]
    5253              $C$DW$472       .dwtag  DW_TAG_variable, DW_AT_name("uxReturn")
    5254                      .dwattr $C$DW$472, DW_AT_TI_symbol_name("_uxReturn")
    5255                      .dwattr $C$DW$472, DW_AT_type(*$C$DW$T$32)
    5256                      .dwattr $C$DW$472, DW_AT_location[DW_OP_bregx 0x24 2]
    5257              $C$DW$473       .dwtag  DW_TAG_variable, DW_AT_name("pxQueue")
    5258                      .dwattr $C$DW$473, DW_AT_TI_symbol_name("_pxQueue")
    5259                      .dwattr $C$DW$473, DW_AT_type(*$C$DW$T$69)
    5260                      .dwattr $C$DW$473, DW_AT_location[DW_OP_bregx 0x24 4]
    5261 000e22 EB00          MOV XAR0, dbl(*SP(#0))
         000e24 85   
    5262                      .dwpsn  file "../FreeRTOS/Source/queue.c",line 1962,column 17,is_stmt
    5263 000e25 ED00          MOV dbl(*SP(#0)), XAR3
         000e27 BF   
    5264 000e28 EB08          MOV XAR3, dbl(*SP(#4))
TMS320C55x Assembler PC v4.4.1 Sat Sep 15 01:52:39 2018

Tools Copyright (c) 1996-2012 Texas Instruments Incorporated
queue.asm                                                            PAGE  111

         000e2a B5   
    5265                      .dwpsn  file "../FreeRTOS/Source/queue.c",line 1964,column 2,is_stmt
    5266 000e2b 90B0          MOV XAR3, AC0
    5267 000e2d 6290          BCC $C$L206,AC0 != #0 ; |1964| 
    5268                                                      ; branchcc occurs ; |1964| 
    5269 000e2f 20     nop
    5270 000e30 46B3   bset INTM
    5271 000e32       $C$L205:    
    5272 000e32       $C$DW$L$_uxQueueMessagesWaitingFromISR$3$B:
    5273 000e32 4A7E          B $C$L205 ; |1964| 
    5274                                                      ; branch occurs ; |1964| 
    5275 000e34       $C$DW$L$_uxQueueMessagesWaitingFromISR$3$E:
    5276 000e34       $C$L206:    
    5277                      .dwpsn  file "../FreeRTOS/Source/queue.c",line 1965,column 2,is_stmt
    5278 000e34 A96D          MOV *AR3(#28), AR1 ; |1965| 
         000e36 001C 
    5279 000e38 C904          MOV AR1, *SP(#2) ; |1965| 
    5280                      .dwpsn  file "../FreeRTOS/Source/queue.c",line 1967,column 2,is_stmt
    5281 000e3a 2294          MOV AR1, T0
    5282                      .dwpsn  file "../FreeRTOS/Source/queue.c",line 1968,column 1,is_stmt
    5283 000e3c 4E07          AADD #7, SP
    5284                      .dwcfi  cfa_offset, 1
    5285              $C$DW$474       .dwtag  DW_TAG_TI_branch
    5286                      .dwattr $C$DW$474, DW_AT_low_pc(0x00)
    5287                      .dwattr $C$DW$474, DW_AT_TI_return
    5288 000e3e 4804          RET
    5289                                                      ; return occurs
    5290              
    5291              $C$DW$475       .dwtag  DW_TAG_TI_loop
    5292                      .dwattr $C$DW$475, DW_AT_name("F:\eZdsp_DBG\eZDSP_5535_Files\ccsws2\test\Debug\queue.asm:$C$L205:1:15
    5293                      .dwattr $C$DW$475, DW_AT_TI_begin_file("../FreeRTOS/Source/queue.c")
    5294                      .dwattr $C$DW$475, DW_AT_TI_begin_line(0x7ac)
    5295                      .dwattr $C$DW$475, DW_AT_TI_end_line(0x7ac)
    5296              $C$DW$476       .dwtag  DW_TAG_TI_loop_range
    5297                      .dwattr $C$DW$476, DW_AT_low_pc($C$DW$L$_uxQueueMessagesWaitingFromISR$3$B)
    5298                      .dwattr $C$DW$476, DW_AT_high_pc($C$DW$L$_uxQueueMessagesWaitingFromISR$3$E)
    5299                      .dwendtag $C$DW$475
    5300              
    5301                      .dwattr $C$DW$469, DW_AT_TI_end_file("../FreeRTOS/Source/queue.c")
    5302                      .dwattr $C$DW$469, DW_AT_TI_end_line(0x7b0)
    5303                      .dwattr $C$DW$469, DW_AT_TI_end_column(0x01)
    5304                      .dwendentry
    5305                      .dwendtag $C$DW$469
    5306              
    5307 000e40               .sect   ".text"
    5308                      .align 4
    5309                      .global _vQueueDelete
    5310              
    5311              $C$DW$477       .dwtag  DW_TAG_subprogram, DW_AT_name("vQueueDelete")
    5312                      .dwattr $C$DW$477, DW_AT_low_pc(_vQueueDelete)
    5313                      .dwattr $C$DW$477, DW_AT_high_pc(0x00)
    5314                      .dwattr $C$DW$477, DW_AT_TI_symbol_name("_vQueueDelete")
    5315                      .dwattr $C$DW$477, DW_AT_external
    5316                      .dwattr $C$DW$477, DW_AT_TI_begin_file("../FreeRTOS/Source/queue.c")
    5317                      .dwattr $C$DW$477, DW_AT_TI_begin_line(0x7b3)
TMS320C55x Assembler PC v4.4.1 Sat Sep 15 01:52:39 2018

Tools Copyright (c) 1996-2012 Texas Instruments Incorporated
queue.asm                                                            PAGE  112

    5318                      .dwattr $C$DW$477, DW_AT_TI_begin_column(0x06)
    5319                      .dwattr $C$DW$477, DW_AT_TI_max_frame_size(0x06)
    5320                      .dwpsn  file "../FreeRTOS/Source/queue.c",line 1972,column 1,is_stmt,address _vQueueDelete
    5321              
    5322                      .dwfde $C$DW$CIE, _vQueueDelete
    5323              $C$DW$478       .dwtag  DW_TAG_formal_parameter, DW_AT_name("xQueue")
    5324                      .dwattr $C$DW$478, DW_AT_TI_symbol_name("_xQueue")
    5325                      .dwattr $C$DW$478, DW_AT_type(*$C$DW$T$27)
    5326                      .dwattr $C$DW$478, DW_AT_location[DW_OP_reg17]
    5327              ;*******************************************************************************
    5328              ;* FUNCTION NAME: vQueueDelete                                                 *
    5329              ;*                                                                             *
    5330              ;*   Function Uses Regs : AC0,AC0,AR0,XAR0,AR3,XAR3,SP,M40,SATA,SATD,RDM,FRCT, *
    5331              ;*                        SMUL                                                 *
    5332              ;*   Stack Frame        : Compact (No Frame Pointer, w/ debug)                 *
    5333              ;*   Total Frame Size   : 6 words                                              *
    5334              ;*                        (2 return address/alignment)                         *
    5335              ;*                        (4 local values)                                     *
    5336              ;*   Min System Stack   : 1 word                                               *
    5337              ;*******************************************************************************
    5338 000e40       _vQueueDelete:
    5339                      .dwcfi  cfa_offset, 1
    5340                      .dwcfi  save_reg_to_mem, 91, -1
    5341 000e40 4EFB          AADD #-5, SP
    5342                      .dwcfi  cfa_offset, 6
    5343              $C$DW$479       .dwtag  DW_TAG_variable, DW_AT_name("xQueue")
    5344                      .dwattr $C$DW$479, DW_AT_TI_symbol_name("_xQueue")
    5345                      .dwattr $C$DW$479, DW_AT_type(*$C$DW$T$27)
    5346                      .dwattr $C$DW$479, DW_AT_location[DW_OP_bregx 0x24 0]
    5347              $C$DW$480       .dwtag  DW_TAG_variable, DW_AT_name("pxQueue")
    5348                      .dwattr $C$DW$480, DW_AT_TI_symbol_name("_pxQueue")
    5349                      .dwattr $C$DW$480, DW_AT_type(*$C$DW$T$69)
    5350                      .dwattr $C$DW$480, DW_AT_location[DW_OP_bregx 0x24 2]
    5351 000e42 EB00          MOV XAR0, dbl(*SP(#0))
         000e44 85   
    5352                      .dwpsn  file "../FreeRTOS/Source/queue.c",line 1973,column 17,is_stmt
    5353 000e45 ED00          MOV dbl(*SP(#0)), XAR3
         000e47 BF   
    5354 000e48 EB04          MOV XAR3, dbl(*SP(#2))
         000e4a B5   
    5355                      .dwpsn  file "../FreeRTOS/Source/queue.c",line 1975,column 2,is_stmt
    5356 000e4b 90B0          MOV XAR3, AC0
    5357 000e4d 6290          BCC $C$L208,AC0 != #0 ; |1975| 
    5358                                                      ; branchcc occurs ; |1975| 
    5359 000e4f 20     nop
    5360 000e50 46B3   bset INTM
    5361 000e52       $C$L207:    
    5362 000e52       $C$DW$L$_vQueueDelete$3$B:
    5363 000e52 4A7E          B $C$L207 ; |1975| 
    5364                                                      ; branch occurs ; |1975| 
    5365 000e54       $C$DW$L$_vQueueDelete$3$E:
    5366 000e54       $C$L208:    
    5367                      .dwpsn  file "../FreeRTOS/Source/queue.c",line 1980,column 3,is_stmt
    5368              $C$DW$481       .dwtag  DW_TAG_TI_branch
    5369                      .dwattr $C$DW$481, DW_AT_low_pc(0x00)
TMS320C55x Assembler PC v4.4.1 Sat Sep 15 01:52:39 2018

Tools Copyright (c) 1996-2012 Texas Instruments Incorporated
queue.asm                                                            PAGE  113

    5370                      .dwattr $C$DW$481, DW_AT_name("_vQueueUnregisterQueue")
    5371                      .dwattr $C$DW$481, DW_AT_TI_call
    5372 000e54 0806          CALL #_vQueueUnregisterQueue ; |1980| 
         000e56 51   
    5373                                                      ; call occurs [#_vQueueUnregisterQueue] ; |1980| 
    5374                      .dwpsn  file "../FreeRTOS/Source/queue.c",line 1988,column 3,is_stmt
    5375 000e57 ED04          MOV dbl(*SP(#2)), XAR0
         000e59 8F   
    5376              $C$DW$482       .dwtag  DW_TAG_TI_branch
    5377                      .dwattr $C$DW$482, DW_AT_low_pc(0x00)
    5378                      .dwattr $C$DW$482, DW_AT_name("_vPortFree")
    5379                      .dwattr $C$DW$482, DW_AT_TI_call
    5380 000e5a 6C00          CALL #_vPortFree ; |1988| 
         000e5c 0000!
    5381                                                      ; call occurs [#_vPortFree] ; |1988| 
    5382                      .dwpsn  file "../FreeRTOS/Source/queue.c",line 2010,column 1,is_stmt
    5383 000e5e 4E05          AADD #5, SP
    5384                      .dwcfi  cfa_offset, 1
    5385              $C$DW$483       .dwtag  DW_TAG_TI_branch
    5386                      .dwattr $C$DW$483, DW_AT_low_pc(0x00)
    5387                      .dwattr $C$DW$483, DW_AT_TI_return
    5388 000e60 4804          RET
    5389                                                      ; return occurs
    5390              
    5391              $C$DW$484       .dwtag  DW_TAG_TI_loop
    5392                      .dwattr $C$DW$484, DW_AT_name("F:\eZdsp_DBG\eZDSP_5535_Files\ccsws2\test\Debug\queue.asm:$C$L207:1:15
    5393                      .dwattr $C$DW$484, DW_AT_TI_begin_file("../FreeRTOS/Source/queue.c")
    5394                      .dwattr $C$DW$484, DW_AT_TI_begin_line(0x7b7)
    5395                      .dwattr $C$DW$484, DW_AT_TI_end_line(0x7b7)
    5396              $C$DW$485       .dwtag  DW_TAG_TI_loop_range
    5397                      .dwattr $C$DW$485, DW_AT_low_pc($C$DW$L$_vQueueDelete$3$B)
    5398                      .dwattr $C$DW$485, DW_AT_high_pc($C$DW$L$_vQueueDelete$3$E)
    5399                      .dwendtag $C$DW$484
    5400              
    5401                      .dwattr $C$DW$477, DW_AT_TI_end_file("../FreeRTOS/Source/queue.c")
    5402                      .dwattr $C$DW$477, DW_AT_TI_end_line(0x7da)
    5403                      .dwattr $C$DW$477, DW_AT_TI_end_column(0x01)
    5404                      .dwendentry
    5405                      .dwendtag $C$DW$477
    5406              
    5407 000e62               .sect   ".text"
    5408                      .align 4
    5409              
    5410              $C$DW$486       .dwtag  DW_TAG_subprogram, DW_AT_name("prvGetDisinheritPriorityAfterTimeout")
    5411                      .dwattr $C$DW$486, DW_AT_low_pc(_prvGetDisinheritPriorityAfterTimeout)
    5412                      .dwattr $C$DW$486, DW_AT_high_pc(0x00)
    5413                      .dwattr $C$DW$486, DW_AT_TI_symbol_name("_prvGetDisinheritPriorityAfterTimeout")
    5414                      .dwattr $C$DW$486, DW_AT_type(*$C$DW$T$32)
    5415                      .dwattr $C$DW$486, DW_AT_TI_begin_file("../FreeRTOS/Source/queue.c")
    5416                      .dwattr $C$DW$486, DW_AT_TI_begin_line(0x7fd)
    5417                      .dwattr $C$DW$486, DW_AT_TI_begin_column(0x15)
    5418                      .dwattr $C$DW$486, DW_AT_TI_max_frame_size(0x04)
    5419                      .dwpsn  file "../FreeRTOS/Source/queue.c",line 2046,column 2,is_stmt,address _prvGetDisinheritPriorit
    5420              
    5421                      .dwfde $C$DW$CIE, _prvGetDisinheritPriorityAfterTimeout
TMS320C55x Assembler PC v4.4.1 Sat Sep 15 01:52:39 2018

Tools Copyright (c) 1996-2012 Texas Instruments Incorporated
queue.asm                                                            PAGE  114

    5422              $C$DW$487       .dwtag  DW_TAG_formal_parameter, DW_AT_name("pxQueue")
    5423                      .dwattr $C$DW$487, DW_AT_TI_symbol_name("_pxQueue")
    5424                      .dwattr $C$DW$487, DW_AT_type(*$C$DW$T$67)
    5425                      .dwattr $C$DW$487, DW_AT_location[DW_OP_reg17]
    5426              ;*******************************************************************************
    5427              ;* FUNCTION NAME: prvGetDisinheritPriorityAfterTimeout                         *
    5428              ;*                                                                             *
    5429              ;*   Function Uses Regs : AC0,T0,AR0,XAR0,AR1,AR3,XAR3,SP,CARRY,M40,SATA,SATD, *
    5430              ;*                        RDM,FRCT,SMUL                                        *
    5431              ;*   Stack Frame        : Compact (No Frame Pointer, w/ debug)                 *
    5432              ;*   Total Frame Size   : 4 words                                              *
    5433              ;*                        (1 return address/alignment)                         *
    5434              ;*                        (3 local values)                                     *
    5435              ;*   Min System Stack   : 1 word                                               *
    5436              ;*******************************************************************************
    5437 000e64       _prvGetDisinheritPriorityAfterTimeout:
    5438                      .dwcfi  cfa_offset, 1
    5439                      .dwcfi  save_reg_to_mem, 91, -1
    5440 000e64 4EFD          AADD #-3, SP
    5441                      .dwcfi  cfa_offset, 4
    5442              $C$DW$488       .dwtag  DW_TAG_variable, DW_AT_name("pxQueue")
    5443                      .dwattr $C$DW$488, DW_AT_TI_symbol_name("_pxQueue")
    5444                      .dwattr $C$DW$488, DW_AT_type(*$C$DW$T$67)
    5445                      .dwattr $C$DW$488, DW_AT_location[DW_OP_bregx 0x24 0]
    5446              $C$DW$489       .dwtag  DW_TAG_variable, DW_AT_name("uxHighestPriorityOfWaitingTasks")
    5447                      .dwattr $C$DW$489, DW_AT_TI_symbol_name("_uxHighestPriorityOfWaitingTasks")
    5448                      .dwattr $C$DW$489, DW_AT_type(*$C$DW$T$32)
    5449                      .dwattr $C$DW$489, DW_AT_location[DW_OP_bregx 0x24 2]
    5450 000e66 EB00          MOV XAR0, dbl(*SP(#0))
         000e68 85   
    5451                      .dwpsn  file "../FreeRTOS/Source/queue.c",line 2055,column 3,is_stmt
    5452 000e69 ED00          MOV dbl(*SP(#0)), XAR3
         000e6b BF   
    5453 000e6c A96D          MOV *AR3(#18), AR1 ; |2055| 
         000e6e 0012 
    5454 000e70 6709          BCC $C$L209,AR1 == #0 ; |2055| 
    5455                                                      ; branchcc occurs ; |2055| 
    5456                      .dwpsn  file "../FreeRTOS/Source/queue.c",line 2057,column 4,is_stmt
    5457 000e72 ED6D          MOV dbl(*AR3(#24)), XAR3
         000e74 BF00 
         000e76 18   
    5458 000e77 3C50          MOV #5, AC0
    5459 000e79 DF73          SUB uns(*AR3(short(#1))), AC0, AC0 ; |2057| 
         000e7b 0F   
    5460 000e7c C004          MOV AC0, *SP(#2) ; |2057| 
    5461                      .dwpsn  file "../FreeRTOS/Source/queue.c",line 2058,column 3,is_stmt
    5462 000e7e 4A03          B $C$L210 ; |2058| 
    5463                                                      ; branch occurs ; |2058| 
    5464 000e80       $C$L209:    
    5465                      .dwpsn  file "../FreeRTOS/Source/queue.c",line 2061,column 4,is_stmt
    5466 000e80 E604          MOV #0, *SP(#2) ; |2061| 
         000e82 00   
    5467 000e83       $C$L210:    
    5468                      .dwpsn  file "../FreeRTOS/Source/queue.c",line 2064,column 3,is_stmt
    5469 000e83 A404          MOV *SP(#2), T0 ; |2064| 
TMS320C55x Assembler PC v4.4.1 Sat Sep 15 01:52:39 2018

Tools Copyright (c) 1996-2012 Texas Instruments Incorporated
queue.asm                                                            PAGE  115

    5470                      .dwpsn  file "../FreeRTOS/Source/queue.c",line 2065,column 2,is_stmt
    5471 000e85 4E03          AADD #3, SP
    5472                      .dwcfi  cfa_offset, 1
    5473              $C$DW$490       .dwtag  DW_TAG_TI_branch
    5474                      .dwattr $C$DW$490, DW_AT_low_pc(0x00)
    5475                      .dwattr $C$DW$490, DW_AT_TI_return
    5476 000e87 4804          RET
    5477                                                      ; return occurs
    5478                      .dwattr $C$DW$486, DW_AT_TI_end_file("../FreeRTOS/Source/queue.c")
    5479                      .dwattr $C$DW$486, DW_AT_TI_end_line(0x811)
    5480                      .dwattr $C$DW$486, DW_AT_TI_end_column(0x02)
    5481                      .dwendentry
    5482                      .dwendtag $C$DW$486
    5483              
    5484 000e89               .sect   ".text"
    5485                      .align 4
    5486              
    5487              $C$DW$491       .dwtag  DW_TAG_subprogram, DW_AT_name("prvCopyDataToQueue")
    5488                      .dwattr $C$DW$491, DW_AT_low_pc(_prvCopyDataToQueue)
    5489                      .dwattr $C$DW$491, DW_AT_high_pc(0x00)
    5490                      .dwattr $C$DW$491, DW_AT_TI_symbol_name("_prvCopyDataToQueue")
    5491                      .dwattr $C$DW$491, DW_AT_type(*$C$DW$T$49)
    5492                      .dwattr $C$DW$491, DW_AT_TI_begin_file("../FreeRTOS/Source/queue.c")
    5493                      .dwattr $C$DW$491, DW_AT_TI_begin_line(0x816)
    5494                      .dwattr $C$DW$491, DW_AT_TI_begin_column(0x13)
    5495                      .dwattr $C$DW$491, DW_AT_TI_max_frame_size(0x08)
    5496                      .dwpsn  file "../FreeRTOS/Source/queue.c",line 2071,column 1,is_stmt,address _prvCopyDataToQueue
    5497              
    5498                      .dwfde $C$DW$CIE, _prvCopyDataToQueue
    5499              $C$DW$492       .dwtag  DW_TAG_formal_parameter, DW_AT_name("pxQueue")
    5500                      .dwattr $C$DW$492, DW_AT_TI_symbol_name("_pxQueue")
    5501                      .dwattr $C$DW$492, DW_AT_type(*$C$DW$T$69)
    5502                      .dwattr $C$DW$492, DW_AT_location[DW_OP_reg17]
    5503              $C$DW$493       .dwtag  DW_TAG_formal_parameter, DW_AT_name("pvItemToQueue")
    5504                      .dwattr $C$DW$493, DW_AT_TI_symbol_name("_pvItemToQueue")
    5505                      .dwattr $C$DW$493, DW_AT_type(*$C$DW$T$71)
    5506                      .dwattr $C$DW$493, DW_AT_location[DW_OP_reg19]
    5507              $C$DW$494       .dwtag  DW_TAG_formal_parameter, DW_AT_name("xPosition")
    5508                      .dwattr $C$DW$494, DW_AT_TI_symbol_name("_xPosition")
    5509                      .dwattr $C$DW$494, DW_AT_type(*$C$DW$T$112)
    5510                      .dwattr $C$DW$494, DW_AT_location[DW_OP_reg12]
    5511              ;*******************************************************************************
    5512              ;* FUNCTION NAME: prvCopyDataToQueue                                           *
    5513              ;*                                                                             *
    5514              ;*   Function Uses Regs : AC0,AC0,AC1,AC1,T0,AR0,XAR0,AR1,XAR1,AR2,XAR2,AR3,   *
    5515              ;*                        XAR3,SP,CARRY,TC1,M40,SATA,SATD,RDM,FRCT,SMUL        *
    5516              ;*   Stack Frame        : Compact (No Frame Pointer, w/ debug)                 *
    5517              ;*   Total Frame Size   : 8 words                                              *
    5518              ;*                        (1 return address/alignment)                         *
    5519              ;*                        (7 local values)                                     *
    5520              ;*   Min System Stack   : 1 word                                               *
    5521              ;*******************************************************************************
    5522 000e8c       _prvCopyDataToQueue:
    5523                      .dwcfi  cfa_offset, 1
    5524                      .dwcfi  save_reg_to_mem, 91, -1
TMS320C55x Assembler PC v4.4.1 Sat Sep 15 01:52:39 2018

Tools Copyright (c) 1996-2012 Texas Instruments Incorporated
queue.asm                                                            PAGE  116

    5525 000e8c 4EF9          AADD #-7, SP
    5526                      .dwcfi  cfa_offset, 8
    5527              $C$DW$495       .dwtag  DW_TAG_variable, DW_AT_name("pxQueue")
    5528                      .dwattr $C$DW$495, DW_AT_TI_symbol_name("_pxQueue")
    5529                      .dwattr $C$DW$495, DW_AT_type(*$C$DW$T$69)
    5530                      .dwattr $C$DW$495, DW_AT_location[DW_OP_bregx 0x24 0]
    5531              $C$DW$496       .dwtag  DW_TAG_variable, DW_AT_name("pvItemToQueue")
    5532                      .dwattr $C$DW$496, DW_AT_TI_symbol_name("_pvItemToQueue")
    5533                      .dwattr $C$DW$496, DW_AT_type(*$C$DW$T$71)
    5534                      .dwattr $C$DW$496, DW_AT_location[DW_OP_bregx 0x24 2]
    5535              $C$DW$497       .dwtag  DW_TAG_variable, DW_AT_name("xPosition")
    5536                      .dwattr $C$DW$497, DW_AT_TI_symbol_name("_xPosition")
    5537                      .dwattr $C$DW$497, DW_AT_type(*$C$DW$T$112)
    5538                      .dwattr $C$DW$497, DW_AT_location[DW_OP_bregx 0x24 4]
    5539              $C$DW$498       .dwtag  DW_TAG_variable, DW_AT_name("xReturn")
    5540                      .dwattr $C$DW$498, DW_AT_TI_symbol_name("_xReturn")
    5541                      .dwattr $C$DW$498, DW_AT_type(*$C$DW$T$49)
    5542                      .dwattr $C$DW$498, DW_AT_location[DW_OP_bregx 0x24 5]
    5543              $C$DW$499       .dwtag  DW_TAG_variable, DW_AT_name("uxMessagesWaiting")
    5544                      .dwattr $C$DW$499, DW_AT_TI_symbol_name("_uxMessagesWaiting")
    5545                      .dwattr $C$DW$499, DW_AT_type(*$C$DW$T$32)
    5546                      .dwattr $C$DW$499, DW_AT_location[DW_OP_bregx 0x24 6]
    5547 000e8e C408          MOV T0, *SP(#4) ; |2071| 
    5548 000e90 EB04          MOV XAR1, dbl(*SP(#2))
         000e92 95   
    5549 000e93 EB00          MOV XAR0, dbl(*SP(#0))
         000e95 85   
    5550                      .dwpsn  file "../FreeRTOS/Source/queue.c",line 2072,column 12,is_stmt
    5551 000e96 E60A          MOV #0, *SP(#5) ; |2072| 
         000e98 00   
    5552                      .dwpsn  file "../FreeRTOS/Source/queue.c",line 2077,column 2,is_stmt
    5553 000e99 ED00          MOV dbl(*SP(#0)), XAR3
         000e9b BF   
    5554 000e9c A96D          MOV *AR3(#28), AR1 ; |2077| 
         000e9e 001C 
    5555 000ea0 C90C          MOV AR1, *SP(#6) ; |2077| 
    5556                      .dwpsn  file "../FreeRTOS/Source/queue.c",line 2079,column 2,is_stmt
    5557 000ea2 ED00          MOV dbl(*SP(#0)), XAR3
         000ea4 BF   
    5558 000ea5 A96D          MOV *AR3(#30), AR1 ; |2079| 
         000ea7 001E 
    5559 000ea9 0419          BCC $C$L211,AR1 != #0 ; |2079| 
         000eab 20   
    5560                                                      ; branchcc occurs ; |2079| 
    5561                      .dwpsn  file "../FreeRTOS/Source/queue.c",line 2083,column 4,is_stmt
    5562 000eac ED61          MOV dbl(*AR3), XAR3
         000eae BF   
    5563 000eaf 90B0          MOV XAR3, AC0
    5564 000eb1 6D10          BCC $C$L214,AC0 != #0 ; |2083| 
         000eb3 00B9 
    5565                                                      ; branchcc occurs ; |2083| 
    5566                      .dwpsn  file "../FreeRTOS/Source/queue.c",line 2086,column 5,is_stmt
    5567 000eb5 ED00          MOV dbl(*SP(#0)), XAR3
         000eb7 BF   
    5568 000eb8 ED79          MOV dbl(*AR3(short(#4))), XAR0
TMS320C55x Assembler PC v4.4.1 Sat Sep 15 01:52:39 2018

Tools Copyright (c) 1996-2012 Texas Instruments Incorporated
queue.asm                                                            PAGE  117

         000eba 8F   
    5569              $C$DW$500       .dwtag  DW_TAG_TI_branch
    5570                      .dwattr $C$DW$500, DW_AT_low_pc(0x00)
    5571                      .dwattr $C$DW$500, DW_AT_name("_xTaskPriorityDisinherit")
    5572                      .dwattr $C$DW$500, DW_AT_TI_call
    5573 000ebb 6C00          CALL #_xTaskPriorityDisinherit ; |2086| 
         000ebd 0000!
    5574                                                      ; call occurs [#_xTaskPriorityDisinherit] ; |2086| 
    5575 000ebf C40A          MOV T0, *SP(#5) ; |2086| 
    5576                      .dwpsn  file "../FreeRTOS/Source/queue.c",line 2087,column 5,is_stmt
    5577 000ec1 ED00          MOV dbl(*SP(#0)), XAR3
         000ec3 BF   
    5578 000ec4 3C00          MOV #0, AC0 ; |2087| 
    5579 000ec6 EB79          MOV AC0, dbl(*AR3(short(#4)))
         000ec8 08   
    5580                      .dwpsn  file "../FreeRTOS/Source/queue.c",line 2088,column 4,is_stmt
    5581 000ec9 0600          B $C$L214 ; |2088| 
         000ecb A2   
    5582                                                      ; branch occurs ; |2088| 
    5583 000ecc       $C$L211:    
    5584                      .dwpsn  file "../FreeRTOS/Source/queue.c",line 2096,column 7,is_stmt
    5585 000ecc A908          MOV *SP(#4), AR1 ; |2096| 
    5586 000ece 0419          BCC $C$L212,AR1 != #0 ; |2096| 
         000ed0 43   
    5587                                                      ; branchcc occurs ; |2096| 
    5588                      .dwpsn  file "../FreeRTOS/Source/queue.c",line 2098,column 3,is_stmt
    5589 000ed1 ED75          MOV dbl(*AR3(short(#2))), XAR0
         000ed3 8F   
    5590 000ed4 A46D          MOV *AR3(#30), T0 ; |2098| 
         000ed6 001E 
    5591 000ed8 ED04          MOV dbl(*SP(#2)), XAR1
         000eda 9F   
    5592              $C$DW$501       .dwtag  DW_TAG_TI_branch
    5593                      .dwattr $C$DW$501, DW_AT_low_pc(0x00)
    5594                      .dwattr $C$DW$501, DW_AT_name("_memcpy")
    5595                      .dwattr $C$DW$501, DW_AT_TI_call
    5596 000edb 6C00          CALL #_memcpy ; |2098| 
         000edd 0000!
    5597                                                      ; call occurs [#_memcpy] ; |2098| 
    5598                      .dwpsn  file "../FreeRTOS/Source/queue.c",line 2099,column 3,is_stmt
    5599 000edf ED00          MOV dbl(*SP(#0)), XAR3
         000ee1 BF   
    5600 000ee2 ED00          MOV dbl(*SP(#0)), XAR2
         000ee4 AF   
    5601 000ee5 A96D          MOV *AR3(#30), AR1 ; |2099| 
         000ee7 001E 
    5602 000ee9 ED55          MOV dbl(*AR2(short(#2))), XAR3
         000eeb BF   
    5603              
    5604 000eec 8E55          MOV XAR3, dbl(*AR2(short(#2)))
         000eee BB10 
         000ef0 B590 
    5605              ||      AADD AR1, AR3 ; |2099| 
    5606              
    5607                      .dwpsn  file "../FreeRTOS/Source/queue.c",line 2100,column 3,is_stmt
TMS320C55x Assembler PC v4.4.1 Sat Sep 15 01:52:39 2018

Tools Copyright (c) 1996-2012 Texas Instruments Incorporated
queue.asm                                                            PAGE  118

    5608 000ef2 ED00          MOV dbl(*SP(#0)), XAR3
         000ef4 BF   
    5609 000ef5 ED79          MOV dbl(*AR3(short(#4))), XAR3
         000ef7 BF   
    5610 000ef8 90B0          MOV XAR3, AC0
    5611 000efa ED00          MOV dbl(*SP(#0)), XAR3
         000efc BF   
    5612 000efd ED75          MOV dbl(*AR3(short(#2))), XAR3
         000eff BF   
    5613 000f00 90B1          MOV XAR3, AC1
    5614 000f02 1214          CMPU AC1 < AC0, TC1 ; |2100| 
         000f04 04   
    5615 000f05 0464          BCC $C$L214,TC1 ; |2100| 
         000f07 66   
    5616                                                      ; branchcc occurs ; |2100| 
    5617                      .dwpsn  file "../FreeRTOS/Source/queue.c",line 2102,column 4,is_stmt
    5618 000f08 ED00          MOV dbl(*SP(#0)), XAR3
         000f0a BF   
    5619 000f0b ED61          MOV dbl(*AR3), XAR2
         000f0d AF   
    5620 000f0e EB75          MOV XAR2, dbl(*AR3(short(#2)))
         000f10 A5   
    5621                      .dwpsn  file "../FreeRTOS/Source/queue.c",line 2103,column 3,is_stmt
    5622 000f11 0600          B $C$L214 ; |2103| 
         000f13 5A   
    5623                                                      ; branch occurs ; |2103| 
    5624 000f14       $C$L212:    
    5625                      .dwpsn  file "../FreeRTOS/Source/queue.c",line 2111,column 3,is_stmt
    5626 000f14 ED7D          MOV dbl(*AR3(short(#6))), XAR0
         000f16 8F   
    5627 000f17 A46D          MOV *AR3(#30), T0 ; |2111| 
         000f19 001E 
    5628 000f1b ED04          MOV dbl(*SP(#2)), XAR1
         000f1d 9F   
    5629              $C$DW$502       .dwtag  DW_TAG_TI_branch
    5630                      .dwattr $C$DW$502, DW_AT_low_pc(0x00)
    5631                      .dwattr $C$DW$502, DW_AT_name("_memcpy")
    5632                      .dwattr $C$DW$502, DW_AT_TI_call
    5633 000f1e 6C00          CALL #_memcpy ; |2111| 
         000f20 0000!
    5634                                                      ; call occurs [#_memcpy] ; |2111| 
    5635                      .dwpsn  file "../FreeRTOS/Source/queue.c",line 2112,column 3,is_stmt
    5636 000f22 ED00          MOV dbl(*SP(#0)), XAR3
         000f24 BF   
    5637 000f25 ED00          MOV dbl(*SP(#0)), XAR2
         000f27 AF   
    5638 000f28 A96D          MOV *AR3(#30), AR1 ; |2112| 
         000f2a 001E 
    5639 000f2c ED5D          MOV dbl(*AR2(short(#6))), XAR3
         000f2e BF   
    5640              
    5641 000f2f 8E5D          MOV XAR3, dbl(*AR2(short(#6)))
         000f31 BB12 
         000f33 B590 
    5642              ||      ASUB AR1, AR3 ; |2112| 
TMS320C55x Assembler PC v4.4.1 Sat Sep 15 01:52:39 2018

Tools Copyright (c) 1996-2012 Texas Instruments Incorporated
queue.asm                                                            PAGE  119

    5643              
    5644                      .dwpsn  file "../FreeRTOS/Source/queue.c",line 2113,column 3,is_stmt
    5645 000f35 ED00          MOV dbl(*SP(#0)), XAR3
         000f37 BF   
    5646 000f38 ED61          MOV dbl(*AR3), XAR3
         000f3a BF   
    5647 000f3b 90B0          MOV XAR3, AC0
    5648 000f3d ED00          MOV dbl(*SP(#0)), XAR3
         000f3f BF   
    5649 000f40 ED7D          MOV dbl(*AR3(short(#6))), XAR3
         000f42 BF   
    5650 000f43 90B1          MOV XAR3, AC1
    5651 000f45 1218          CMPU AC1 >= AC0, TC1 ; |2113| 
         000f47 04   
    5652 000f48 0464          BCC $C$L213,TC1 ; |2113| 
         000f4a 13   
    5653                                                      ; branchcc occurs ; |2113| 
    5654                      .dwpsn  file "../FreeRTOS/Source/queue.c",line 2115,column 4,is_stmt
    5655 000f4b ED00          MOV dbl(*SP(#0)), XAR3
         000f4d BF   
    5656 000f4e ED00          MOV dbl(*SP(#0)), XAR2
         000f50 AF   
    5657 000f51 A96D          MOV *AR3(#30), AR1 ; |2115| 
         000f53 001E 
    5658 000f55 ED79          MOV dbl(*AR3(short(#4))), XAR3
         000f57 BF   
    5659              
    5660 000f58 8E5D          MOV XAR3, dbl(*AR2(short(#6)))
         000f5a BB12 
         000f5c B590 
    5661              ||      ASUB AR1, AR3 ; |2115| 
    5662              
    5663                      .dwpsn  file "../FreeRTOS/Source/queue.c",line 2116,column 3,is_stmt
    5664 000f5e       $C$L213:    
    5665                      .dwpsn  file "../FreeRTOS/Source/queue.c",line 2122,column 3,is_stmt
    5666 000f5e F008          CMP *SP(#4) == #2, TC1 ; |2122| 
         000f60 0002 
    5667 000f62 6574          BCC $C$L214,!TC1 ; |2122| 
    5668                                                      ; branchcc occurs ; |2122| 
    5669                      .dwpsn  file "../FreeRTOS/Source/queue.c",line 2124,column 4,is_stmt
    5670 000f64 A90C          MOV *SP(#6), AR1 ; |2124| 
    5671 000f66 6309          BCC $C$L214,AR1 == #0 ; |2124| 
    5672                                                      ; branchcc occurs ; |2124| 
    5673                      .dwpsn  file "../FreeRTOS/Source/queue.c",line 2130,column 5,is_stmt
    5674 000f68 F70C          SUB #1, *SP(#6) ; |2130| 
         000f6a FFFF 
    5675                      .dwpsn  file "../FreeRTOS/Source/queue.c",line 2131,column 4,is_stmt
    5676 000f6c 4A00          B $C$L214 ; |2131| 
    5677                                                      ; branch occurs ; |2131| 
    5678 000f6e       $C$L214:    
    5679                      .dwpsn  file "../FreeRTOS/Source/queue.c",line 2143,column 2,is_stmt
    5680 000f6e ED00          MOV dbl(*SP(#0)), XAR3
         000f70 BF   
    5681 000f71 A90C          MOV *SP(#6), AR1 ; |2143| 
    5682 000f73 4019          ADD #1, AR1 ; |2143| 
TMS320C55x Assembler PC v4.4.1 Sat Sep 15 01:52:39 2018

Tools Copyright (c) 1996-2012 Texas Instruments Incorporated
queue.asm                                                            PAGE  120

    5683 000f75 C96D          MOV AR1, *AR3(#28) ; |2143| 
         000f77 001C 
    5684                      .dwpsn  file "../FreeRTOS/Source/queue.c",line 2145,column 2,is_stmt
    5685 000f79 A40A          MOV *SP(#5), T0 ; |2145| 
    5686                      .dwpsn  file "../FreeRTOS/Source/queue.c",line 2146,column 1,is_stmt
    5687 000f7b 4E07          AADD #7, SP
    5688                      .dwcfi  cfa_offset, 1
    5689              $C$DW$503       .dwtag  DW_TAG_TI_branch
    5690                      .dwattr $C$DW$503, DW_AT_low_pc(0x00)
    5691                      .dwattr $C$DW$503, DW_AT_TI_return
    5692 000f7d 4804          RET
    5693                                                      ; return occurs
    5694                      .dwattr $C$DW$491, DW_AT_TI_end_file("../FreeRTOS/Source/queue.c")
    5695                      .dwattr $C$DW$491, DW_AT_TI_end_line(0x862)
    5696                      .dwattr $C$DW$491, DW_AT_TI_end_column(0x01)
    5697                      .dwendentry
    5698                      .dwendtag $C$DW$491
    5699              
    5700 000f7f               .sect   ".text"
    5701                      .align 4
    5702              
    5703              $C$DW$504       .dwtag  DW_TAG_subprogram, DW_AT_name("prvCopyDataFromQueue")
    5704                      .dwattr $C$DW$504, DW_AT_low_pc(_prvCopyDataFromQueue)
    5705                      .dwattr $C$DW$504, DW_AT_high_pc(0x00)
    5706                      .dwattr $C$DW$504, DW_AT_TI_symbol_name("_prvCopyDataFromQueue")
    5707                      .dwattr $C$DW$504, DW_AT_TI_begin_file("../FreeRTOS/Source/queue.c")
    5708                      .dwattr $C$DW$504, DW_AT_TI_begin_line(0x865)
    5709                      .dwattr $C$DW$504, DW_AT_TI_begin_column(0x0d)
    5710                      .dwattr $C$DW$504, DW_AT_TI_max_frame_size(0x06)
    5711                      .dwpsn  file "../FreeRTOS/Source/queue.c",line 2150,column 1,is_stmt,address _prvCopyDataFromQueue
    5712              
    5713                      .dwfde $C$DW$CIE, _prvCopyDataFromQueue
    5714              $C$DW$505       .dwtag  DW_TAG_formal_parameter, DW_AT_name("pxQueue")
    5715                      .dwattr $C$DW$505, DW_AT_TI_symbol_name("_pxQueue")
    5716                      .dwattr $C$DW$505, DW_AT_type(*$C$DW$T$69)
    5717                      .dwattr $C$DW$505, DW_AT_location[DW_OP_reg17]
    5718              $C$DW$506       .dwtag  DW_TAG_formal_parameter, DW_AT_name("pvBuffer")
    5719                      .dwattr $C$DW$506, DW_AT_TI_symbol_name("_pvBuffer")
    5720                      .dwattr $C$DW$506, DW_AT_type(*$C$DW$T$76)
    5721                      .dwattr $C$DW$506, DW_AT_location[DW_OP_reg19]
    5722              ;*******************************************************************************
    5723              ;* FUNCTION NAME: prvCopyDataFromQueue                                         *
    5724              ;*                                                                             *
    5725              ;*   Function Uses Regs : AC0,AC0,AC1,AC1,T0,AR0,XAR0,AR1,XAR1,AR2,XAR2,AR3,   *
    5726              ;*                        XAR3,SP,TC1,M40,SATA,SATD,RDM,FRCT,SMUL              *
    5727              ;*   Stack Frame        : Compact (No Frame Pointer, w/ debug)                 *
    5728              ;*   Total Frame Size   : 6 words                                              *
    5729              ;*                        (2 return address/alignment)                         *
    5730              ;*                        (4 local values)                                     *
    5731              ;*   Min System Stack   : 1 word                                               *
    5732              ;*******************************************************************************
    5733 000f80       _prvCopyDataFromQueue:
    5734                      .dwcfi  cfa_offset, 1
    5735                      .dwcfi  save_reg_to_mem, 91, -1
    5736 000f80 4EFB          AADD #-5, SP
TMS320C55x Assembler PC v4.4.1 Sat Sep 15 01:52:39 2018

Tools Copyright (c) 1996-2012 Texas Instruments Incorporated
queue.asm                                                            PAGE  121

    5737                      .dwcfi  cfa_offset, 6
    5738              $C$DW$507       .dwtag  DW_TAG_variable, DW_AT_name("pxQueue")
    5739                      .dwattr $C$DW$507, DW_AT_TI_symbol_name("_pxQueue")
    5740                      .dwattr $C$DW$507, DW_AT_type(*$C$DW$T$69)
    5741                      .dwattr $C$DW$507, DW_AT_location[DW_OP_bregx 0x24 0]
    5742              $C$DW$508       .dwtag  DW_TAG_variable, DW_AT_name("pvBuffer")
    5743                      .dwattr $C$DW$508, DW_AT_TI_symbol_name("_pvBuffer")
    5744                      .dwattr $C$DW$508, DW_AT_type(*$C$DW$T$76)
    5745                      .dwattr $C$DW$508, DW_AT_location[DW_OP_bregx 0x24 2]
    5746 000f82 EB04          MOV XAR1, dbl(*SP(#2))
         000f84 95   
    5747 000f85 EB00          MOV XAR0, dbl(*SP(#0))
         000f87 85   
    5748                      .dwpsn  file "../FreeRTOS/Source/queue.c",line 2151,column 2,is_stmt
    5749 000f88 ED00          MOV dbl(*SP(#0)), XAR3
         000f8a BF   
    5750 000f8b A96D          MOV *AR3(#30), AR1 ; |2151| 
         000f8d 001E 
    5751 000f8f 0409          BCC $C$L216,AR1 == #0 ; |2151| 
         000f91 3F   
    5752                                                      ; branchcc occurs ; |2151| 
    5753                      .dwpsn  file "../FreeRTOS/Source/queue.c",line 2153,column 3,is_stmt
    5754 000f92 ED00          MOV dbl(*SP(#0)), XAR2
         000f94 AF   
    5755 000f95 A96D          MOV *AR3(#30), AR1 ; |2153| 
         000f97 001E 
    5756 000f99 ED5D          MOV dbl(*AR2(short(#6))), XAR3
         000f9b BF   
    5757              
    5758 000f9c 8E5D          MOV XAR3, dbl(*AR2(short(#6)))
         000f9e BB10 
         000fa0 B590 
    5759              ||      AADD AR1, AR3 ; |2153| 
    5760              
    5761                      .dwpsn  file "../FreeRTOS/Source/queue.c",line 2154,column 3,is_stmt
    5762 000fa2 ED00          MOV dbl(*SP(#0)), XAR3
         000fa4 BF   
    5763 000fa5 ED79          MOV dbl(*AR3(short(#4))), XAR3
         000fa7 BF   
    5764 000fa8 90B0          MOV XAR3, AC0
    5765 000faa ED00          MOV dbl(*SP(#0)), XAR3
         000fac BF   
    5766 000fad ED7D          MOV dbl(*AR3(short(#6))), XAR3
         000faf BF   
    5767 000fb0 90B1          MOV XAR3, AC1
    5768 000fb2 1214          CMPU AC1 < AC0, TC1 ; |2154| 
         000fb4 04   
    5769 000fb5 64E4          BCC $C$L215,TC1 ; |2154| 
    5770                                                      ; branchcc occurs ; |2154| 
    5771                      .dwpsn  file "../FreeRTOS/Source/queue.c",line 2156,column 4,is_stmt
    5772 000fb7 ED00          MOV dbl(*SP(#0)), XAR3
         000fb9 BF   
    5773 000fba ED61          MOV dbl(*AR3), XAR2
         000fbc AF   
    5774 000fbd EB7D          MOV XAR2, dbl(*AR3(short(#6)))
TMS320C55x Assembler PC v4.4.1 Sat Sep 15 01:52:39 2018

Tools Copyright (c) 1996-2012 Texas Instruments Incorporated
queue.asm                                                            PAGE  122

         000fbf A5   
    5775                      .dwpsn  file "../FreeRTOS/Source/queue.c",line 2157,column 3,is_stmt
    5776 000fc0       $C$L215:    
    5777                      .dwpsn  file "../FreeRTOS/Source/queue.c",line 2162,column 3,is_stmt
    5778 000fc0 ED00          MOV dbl(*SP(#0)), XAR3
         000fc2 BF   
    5779 000fc3 ED04          MOV dbl(*SP(#2)), XAR0
         000fc5 8F   
    5780 000fc6 ED7D          MOV dbl(*AR3(short(#6))), XAR1
         000fc8 9F   
    5781 000fc9 A46D          MOV *AR3(#30), T0 ; |2162| 
         000fcb 001E 
    5782              $C$DW$509       .dwtag  DW_TAG_TI_branch
    5783                      .dwattr $C$DW$509, DW_AT_low_pc(0x00)
    5784                      .dwattr $C$DW$509, DW_AT_name("_memcpy")
    5785                      .dwattr $C$DW$509, DW_AT_TI_call
    5786 000fcd 6C00          CALL #_memcpy ; |2162| 
         000fcf 0000!
    5787                                                      ; call occurs [#_memcpy] ; |2162| 
    5788                      .dwpsn  file "../FreeRTOS/Source/queue.c",line 2164,column 1,is_stmt
    5789 000fd1       $C$L216:    
    5790 000fd1 4E05          AADD #5, SP
    5791                      .dwcfi  cfa_offset, 1
    5792              $C$DW$510       .dwtag  DW_TAG_TI_branch
    5793                      .dwattr $C$DW$510, DW_AT_low_pc(0x00)
    5794                      .dwattr $C$DW$510, DW_AT_TI_return
    5795 000fd3 4804          RET
    5796                                                      ; return occurs
    5797                      .dwattr $C$DW$504, DW_AT_TI_end_file("../FreeRTOS/Source/queue.c")
    5798                      .dwattr $C$DW$504, DW_AT_TI_end_line(0x874)
    5799                      .dwattr $C$DW$504, DW_AT_TI_end_column(0x01)
    5800                      .dwendentry
    5801                      .dwendtag $C$DW$504
    5802              
    5803 000fd5               .sect   ".text"
    5804                      .align 4
    5805              
    5806              $C$DW$511       .dwtag  DW_TAG_subprogram, DW_AT_name("prvUnlockQueue")
    5807                      .dwattr $C$DW$511, DW_AT_low_pc(_prvUnlockQueue)
    5808                      .dwattr $C$DW$511, DW_AT_high_pc(0x00)
    5809                      .dwattr $C$DW$511, DW_AT_TI_symbol_name("_prvUnlockQueue")
    5810                      .dwattr $C$DW$511, DW_AT_TI_begin_file("../FreeRTOS/Source/queue.c")
    5811                      .dwattr $C$DW$511, DW_AT_TI_begin_line(0x877)
    5812                      .dwattr $C$DW$511, DW_AT_TI_begin_column(0x0d)
    5813                      .dwattr $C$DW$511, DW_AT_TI_max_frame_size(0x04)
    5814                      .dwpsn  file "../FreeRTOS/Source/queue.c",line 2168,column 1,is_stmt,address _prvUnlockQueue
    5815              
    5816                      .dwfde $C$DW$CIE, _prvUnlockQueue
    5817              $C$DW$512       .dwtag  DW_TAG_formal_parameter, DW_AT_name("pxQueue")
    5818                      .dwattr $C$DW$512, DW_AT_TI_symbol_name("_pxQueue")
    5819                      .dwattr $C$DW$512, DW_AT_type(*$C$DW$T$69)
    5820                      .dwattr $C$DW$512, DW_AT_location[DW_OP_reg17]
    5821              ;*******************************************************************************
    5822              ;* FUNCTION NAME: prvUnlockQueue                                               *
    5823              ;*                                                                             *
TMS320C55x Assembler PC v4.4.1 Sat Sep 15 01:52:39 2018

Tools Copyright (c) 1996-2012 Texas Instruments Incorporated
queue.asm                                                            PAGE  123

    5824              ;*   Function Uses Regs : T0,AR0,XAR0,AR1,AR3,XAR3,SP,CARRY,M40,SATA,SATD,RDM, *
    5825              ;*                        FRCT,SMUL                                            *
    5826              ;*   Stack Frame        : Compact (No Frame Pointer, w/ debug)                 *
    5827              ;*   Total Frame Size   : 4 words                                              *
    5828              ;*                        (1 return address/alignment)                         *
    5829              ;*                        (3 local values)                                     *
    5830              ;*   Min System Stack   : 1 word                                               *
    5831              ;*******************************************************************************
    5832 000fd8       _prvUnlockQueue:
    5833                      .dwcfi  cfa_offset, 1
    5834                      .dwcfi  save_reg_to_mem, 91, -1
    5835 000fd8 4EFD          AADD #-3, SP
    5836                      .dwcfi  cfa_offset, 4
    5837              $C$DW$513       .dwtag  DW_TAG_variable, DW_AT_name("pxQueue")
    5838                      .dwattr $C$DW$513, DW_AT_TI_symbol_name("_pxQueue")
    5839                      .dwattr $C$DW$513, DW_AT_type(*$C$DW$T$69)
    5840                      .dwattr $C$DW$513, DW_AT_location[DW_OP_bregx 0x24 0]
    5841 000fda EB00          MOV XAR0, dbl(*SP(#0))
         000fdc 85   
    5842                      .dwpsn  file "../FreeRTOS/Source/queue.c",line 2175,column 2,is_stmt
    5843 000fdd 20     nop
    5844 000fde 46B3   bset INTM
    5845 000fe0 F731          ADD #1, *(#_usCriticalNesting) ; |2175| 
         000fe2 0001 
         000fe4 0000 
         000fe6 00!  
    5846 000fe7 20            NOP
    5847 000fe8 20            NOP
    5848              
    5849              $C$DW$514       .dwtag  DW_TAG_lexical_block, DW_AT_low_pc(0x00), DW_AT_high_pc(0x00)
    5850              $C$DW$515       .dwtag  DW_TAG_variable, DW_AT_name("cTxLock")
    5851                      .dwattr $C$DW$515, DW_AT_TI_symbol_name("_cTxLock")
    5852                      .dwattr $C$DW$515, DW_AT_type(*$C$DW$T$29)
    5853                      .dwattr $C$DW$515, DW_AT_location[DW_OP_bregx 0x24 2]
    5854                      .dwpsn  file "../FreeRTOS/Source/queue.c",line 2177,column 10,is_stmt
    5855 000fe9 ED00          MOV dbl(*SP(#0)), XAR3
         000feb BF   
    5856 000fec A96D          MOV *AR3(#32), AR1 ; |2177| 
         000fee 0020 
    5857 000ff0 C904          MOV AR1, *SP(#2) ; |2177| 
    5858                      .dwpsn  file "../FreeRTOS/Source/queue.c",line 2180,column 10,is_stmt
    5859 000ff2 0439          BCC $C$L221,AR1 <= #0 ; |2180| 
         000ff4 2D   
    5860                                                      ; branchcc occurs ; |2180| 
    5861 000ff5       $C$L217:    
    5862 000ff5       $C$DW$L$_prvUnlockQueue$2$B:
    5863                      .dwpsn  file "../FreeRTOS/Source/queue.c",line 2228,column 5,is_stmt
    5864 000ff5 ED00          MOV dbl(*SP(#0)), XAR3
         000ff7 BF   
    5865 000ff8 A96D          MOV *AR3(#18), AR1 ; |2228| 
         000ffa 0012 
    5866 000ffc 6219          BCC $C$L218,AR1 != #0 ; |2228| 
    5867                                                      ; branchcc occurs ; |2228| 
    5868 000ffe       $C$DW$L$_prvUnlockQueue$2$E:
    5869 000ffe       $C$DW$L$_prvUnlockQueue$3$B:
TMS320C55x Assembler PC v4.4.1 Sat Sep 15 01:52:39 2018

Tools Copyright (c) 1996-2012 Texas Instruments Incorporated
queue.asm                                                            PAGE  124

    5870 000ffe 3C19          MOV #1, AR1
    5871 001000 4A02          B $C$L219 ; |2228| 
    5872                                                      ; branch occurs ; |2228| 
    5873 001002       $C$DW$L$_prvUnlockQueue$3$E:
    5874 001002       $C$L218:    
    5875 001002       $C$DW$L$_prvUnlockQueue$4$B:
    5876 001002 3C09          MOV #0, AR1
    5877 001004       $C$DW$L$_prvUnlockQueue$4$E:
    5878 001004       $C$L219:    
    5879 001004       $C$DW$L$_prvUnlockQueue$5$B:
    5880 001004 0419          BCC $C$L221,AR1 != #0 ; |2228| 
         001006 1B   
    5881                                                      ; branchcc occurs ; |2228| 
    5882 001007       $C$DW$L$_prvUnlockQueue$5$E:
    5883 001007       $C$DW$L$_prvUnlockQueue$6$B:
    5884                      .dwpsn  file "../FreeRTOS/Source/queue.c",line 2230,column 6,is_stmt
    5885 001007 ED00          MOV dbl(*SP(#0)), XAR0
         001009 8F   
    5886 00100a 1412          AADD #18, AR0 ; |2230| 
         00100c 84   
    5887              $C$DW$516       .dwtag  DW_TAG_TI_branch
    5888                      .dwattr $C$DW$516, DW_AT_low_pc(0x00)
    5889                      .dwattr $C$DW$516, DW_AT_name("_xTaskRemoveFromEventList")
    5890                      .dwattr $C$DW$516, DW_AT_TI_call
    5891 00100d 6C00          CALL #_xTaskRemoveFromEventList ; |2230| 
         00100f 0000!
    5892                                                      ; call occurs [#_xTaskRemoveFromEventList] ; |2230| 
    5893 001011 6304          BCC $C$L220,T0 == #0 ; |2230| 
    5894                                                      ; branchcc occurs ; |2230| 
    5895 001013       $C$DW$L$_prvUnlockQueue$6$E:
    5896 001013       $C$DW$L$_prvUnlockQueue$7$B:
    5897                      .dwpsn  file "../FreeRTOS/Source/queue.c",line 2234,column 7,is_stmt
    5898              $C$DW$517       .dwtag  DW_TAG_TI_branch
    5899                      .dwattr $C$DW$517, DW_AT_low_pc(0x00)
    5900                      .dwattr $C$DW$517, DW_AT_name("_vTaskMissedYield")
    5901                      .dwattr $C$DW$517, DW_AT_TI_call
    5902 001013 6C00          CALL #_vTaskMissedYield ; |2234| 
         001015 0000!
    5903                                                      ; call occurs [#_vTaskMissedYield] ; |2234| 
    5904                      .dwpsn  file "../FreeRTOS/Source/queue.c",line 2235,column 6,is_stmt
    5905 001017 4A00          B $C$L220 ; |2235| 
    5906                                                      ; branch occurs ; |2235| 
    5907 001019       $C$DW$L$_prvUnlockQueue$7$E:
    5908 001019       $C$L220:    
    5909 001019       $C$DW$L$_prvUnlockQueue$9$B:
    5910                      .dwpsn  file "../FreeRTOS/Source/queue.c",line 2248,column 4,is_stmt
    5911 001019 F704          SUB #1, *SP(#2) ; |2248| 
         00101b FFFF 
    5912                      .dwpsn  file "../FreeRTOS/Source/queue.c",line 2180,column 10,is_stmt
    5913 00101d A904          MOV *SP(#2), AR1 ; |2180| 
    5914 00101f 0449          BCC $C$L217,AR1 > #0 ; |2180| 
         001021 D3   
    5915                                                      ; branchcc occurs ; |2180| 
    5916 001022       $C$DW$L$_prvUnlockQueue$9$E:
    5917 001022       $C$L221:    
TMS320C55x Assembler PC v4.4.1 Sat Sep 15 01:52:39 2018

Tools Copyright (c) 1996-2012 Texas Instruments Incorporated
queue.asm                                                            PAGE  125

    5918                      .dwpsn  file "../FreeRTOS/Source/queue.c",line 2251,column 3,is_stmt
    5919 001022 ED00          MOV dbl(*SP(#0)), XAR3
         001024 BF   
    5920 001025 E66D          MOV #-1, *AR3(#32) ; |2251| 
         001027 FF00 
         001029 20   
    5921 00102a 20            NOP
    5922 00102b 20            NOP
    5923 00102c 20            NOP
    5924                      .dwendtag $C$DW$514
    5925              
    5926                      .dwpsn  file "../FreeRTOS/Source/queue.c",line 2253,column 2,is_stmt
    5927 00102d A931          MOV *(#_usCriticalNesting), AR1 ; |2253| 
         00102f 0000 
         001031 00!  
    5928 001032 0409          BCC $C$L222,AR1 == #0 ; |2253| 
         001034 14   
    5929                                                      ; branchcc occurs ; |2253| 
    5930 001035 F731          SUB #1, *(#_usCriticalNesting) ; |2253| 
         001037 FFFF 
         001039 0000 
         00103b 00!  
    5931 00103c 20            NOP
    5932 00103d 20            NOP
    5933 00103e 20            NOP
    5934 00103f A931          MOV *(#_usCriticalNesting), AR1 ; |2253| 
         001041 0000 
         001043 00!  
    5935 001044 6199          BCC $C$L222,AR1 != #0 ; |2253| 
    5936                                                      ; branchcc occurs ; |2253| 
    5937 001046 20     nop
    5938 001047 46B2   bclr INTM
    5939 001049       $C$L222:    
    5940                      .dwpsn  file "../FreeRTOS/Source/queue.c",line 2256,column 2,is_stmt
    5941 001049 20     nop
    5942 00104a 46B3   bset INTM
    5943 00104c F731          ADD #1, *(#_usCriticalNesting) ; |2256| 
         00104e 0001 
         001050 0000 
         001052 00!  
    5944 001053 20            NOP
    5945 001054 20            NOP
    5946              
    5947              $C$DW$518       .dwtag  DW_TAG_lexical_block, DW_AT_low_pc(0x00), DW_AT_high_pc(0x00)
    5948              $C$DW$519       .dwtag  DW_TAG_variable, DW_AT_name("cRxLock")
    5949                      .dwattr $C$DW$519, DW_AT_TI_symbol_name("_cRxLock")
    5950                      .dwattr $C$DW$519, DW_AT_type(*$C$DW$T$29)
    5951                      .dwattr $C$DW$519, DW_AT_location[DW_OP_bregx 0x24 2]
    5952                      .dwpsn  file "../FreeRTOS/Source/queue.c",line 2258,column 10,is_stmt
    5953 001055 ED00          MOV dbl(*SP(#0)), XAR3
         001057 BF   
    5954 001058 A96D          MOV *AR3(#31), AR1 ; |2258| 
         00105a 001F 
    5955 00105c C904          MOV AR1, *SP(#2) ; |2258| 
    5956                      .dwpsn  file "../FreeRTOS/Source/queue.c",line 2260,column 10,is_stmt
TMS320C55x Assembler PC v4.4.1 Sat Sep 15 01:52:39 2018

Tools Copyright (c) 1996-2012 Texas Instruments Incorporated
queue.asm                                                            PAGE  126

    5957 00105e 0439          BCC $C$L228,AR1 <= #0 ; |2260| 
         001060 2D   
    5958                                                      ; branchcc occurs ; |2260| 
    5959 001061       $C$L223:    
    5960 001061       $C$DW$L$_prvUnlockQueue$14$B:
    5961                      .dwpsn  file "../FreeRTOS/Source/queue.c",line 2262,column 4,is_stmt
    5962 001061 ED00          MOV dbl(*SP(#0)), XAR3
         001063 BF   
    5963 001064 A96D          MOV *AR3(#8), AR1 ; |2262| 
         001066 0008 
    5964 001068 6219          BCC $C$L224,AR1 != #0 ; |2262| 
    5965                                                      ; branchcc occurs ; |2262| 
    5966 00106a       $C$DW$L$_prvUnlockQueue$14$E:
    5967 00106a       $C$DW$L$_prvUnlockQueue$15$B:
    5968 00106a 3C19          MOV #1, AR1
    5969 00106c 4A02          B $C$L225 ; |2262| 
    5970                                                      ; branch occurs ; |2262| 
    5971 00106e       $C$DW$L$_prvUnlockQueue$15$E:
    5972 00106e       $C$L224:    
    5973 00106e       $C$DW$L$_prvUnlockQueue$16$B:
    5974 00106e 3C09          MOV #0, AR1
    5975 001070       $C$DW$L$_prvUnlockQueue$16$E:
    5976 001070       $C$L225:    
    5977 001070       $C$DW$L$_prvUnlockQueue$17$B:
    5978 001070 0419          BCC $C$L228,AR1 != #0 ; |2262| 
         001072 1B   
    5979                                                      ; branchcc occurs ; |2262| 
    5980 001073       $C$DW$L$_prvUnlockQueue$17$E:
    5981 001073       $C$DW$L$_prvUnlockQueue$18$B:
    5982                      .dwpsn  file "../FreeRTOS/Source/queue.c",line 2264,column 5,is_stmt
    5983 001073 ED00          MOV dbl(*SP(#0)), XAR0
         001075 8F   
    5984 001076 1408          AADD #8, AR0 ; |2264| 
         001078 84   
    5985              $C$DW$520       .dwtag  DW_TAG_TI_branch
    5986                      .dwattr $C$DW$520, DW_AT_low_pc(0x00)
    5987                      .dwattr $C$DW$520, DW_AT_name("_xTaskRemoveFromEventList")
    5988                      .dwattr $C$DW$520, DW_AT_TI_call
    5989 001079 6C00          CALL #_xTaskRemoveFromEventList ; |2264| 
         00107b 0000!
    5990                                                      ; call occurs [#_xTaskRemoveFromEventList] ; |2264| 
    5991 00107d 6204          BCC $C$L226,T0 == #0 ; |2264| 
    5992                                                      ; branchcc occurs ; |2264| 
    5993 00107f       $C$DW$L$_prvUnlockQueue$18$E:
    5994 00107f       $C$DW$L$_prvUnlockQueue$19$B:
    5995                      .dwpsn  file "../FreeRTOS/Source/queue.c",line 2266,column 6,is_stmt
    5996              $C$DW$521       .dwtag  DW_TAG_TI_branch
    5997                      .dwattr $C$DW$521, DW_AT_low_pc(0x00)
    5998                      .dwattr $C$DW$521, DW_AT_name("_vTaskMissedYield")
    5999                      .dwattr $C$DW$521, DW_AT_TI_call
    6000 00107f 6C00          CALL #_vTaskMissedYield ; |2266| 
         001081 0000!
    6001                                                      ; call occurs [#_vTaskMissedYield] ; |2266| 
    6002                      .dwpsn  file "../FreeRTOS/Source/queue.c",line 2267,column 5,is_stmt
    6003 001083       $C$DW$L$_prvUnlockQueue$19$E:
TMS320C55x Assembler PC v4.4.1 Sat Sep 15 01:52:39 2018

Tools Copyright (c) 1996-2012 Texas Instruments Incorporated
queue.asm                                                            PAGE  127

    6004 001083       $C$L226:    
    6005 001083       $C$DW$L$_prvUnlockQueue$20$B:
    6006                      .dwpsn  file "../FreeRTOS/Source/queue.c",line 2273,column 5,is_stmt
    6007 001083 F704          SUB #1, *SP(#2) ; |2273| 
         001085 FFFF 
    6008                      .dwpsn  file "../FreeRTOS/Source/queue.c",line 2274,column 4,is_stmt
    6009 001087 4A00          B $C$L227 ; |2274| 
    6010                                                      ; branch occurs ; |2274| 
    6011 001089       $C$DW$L$_prvUnlockQueue$20$E:
    6012 001089       $C$L227:    
    6013 001089       $C$DW$L$_prvUnlockQueue$22$B:
    6014                      .dwpsn  file "../FreeRTOS/Source/queue.c",line 2260,column 10,is_stmt
    6015 001089 A904          MOV *SP(#2), AR1 ; |2260| 
    6016 00108b 0449          BCC $C$L223,AR1 > #0 ; |2260| 
         00108d D3   
    6017                                                      ; branchcc occurs ; |2260| 
    6018 00108e       $C$DW$L$_prvUnlockQueue$22$E:
    6019 00108e       $C$L228:    
    6020                      .dwpsn  file "../FreeRTOS/Source/queue.c",line 2281,column 3,is_stmt
    6021 00108e ED00          MOV dbl(*SP(#0)), XAR3
         001090 BF   
    6022 001091 E66D          MOV #-1, *AR3(#31) ; |2281| 
         001093 FF00 
         001095 1F   
    6023 001096 20            NOP
    6024 001097 20            NOP
    6025 001098 20            NOP
    6026                      .dwendtag $C$DW$518
    6027              
    6028                      .dwpsn  file "../FreeRTOS/Source/queue.c",line 2283,column 2,is_stmt
    6029 001099 A931          MOV *(#_usCriticalNesting), AR1 ; |2283| 
         00109b 0000 
         00109d 00!  
    6030 00109e 0409          BCC $C$L229,AR1 == #0 ; |2283| 
         0010a0 14   
    6031                                                      ; branchcc occurs ; |2283| 
    6032 0010a1 F731          SUB #1, *(#_usCriticalNesting) ; |2283| 
         0010a3 FFFF 
         0010a5 0000 
         0010a7 00!  
    6033 0010a8 20            NOP
    6034 0010a9 20            NOP
    6035 0010aa 20            NOP
    6036 0010ab A931          MOV *(#_usCriticalNesting), AR1 ; |2283| 
         0010ad 0000 
         0010af 00!  
    6037 0010b0 6199          BCC $C$L229,AR1 != #0 ; |2283| 
    6038                                                      ; branchcc occurs ; |2283| 
    6039 0010b2 20     nop
    6040 0010b3 46B2   bclr INTM
    6041                      .dwpsn  file "../FreeRTOS/Source/queue.c",line 2284,column 1,is_stmt
    6042 0010b5       $C$L229:    
    6043 0010b5 4E03          AADD #3, SP
    6044                      .dwcfi  cfa_offset, 1
    6045              $C$DW$522       .dwtag  DW_TAG_TI_branch
TMS320C55x Assembler PC v4.4.1 Sat Sep 15 01:52:39 2018

Tools Copyright (c) 1996-2012 Texas Instruments Incorporated
queue.asm                                                            PAGE  128

    6046                      .dwattr $C$DW$522, DW_AT_low_pc(0x00)
    6047                      .dwattr $C$DW$522, DW_AT_TI_return
    6048 0010b7 4804          RET
    6049                                                      ; return occurs
    6050              
    6051              $C$DW$523       .dwtag  DW_TAG_TI_loop
    6052                      .dwattr $C$DW$523, DW_AT_name("F:\eZdsp_DBG\eZDSP_5535_Files\ccsws2\test\Debug\queue.asm:$C$L223:1:15
    6053                      .dwattr $C$DW$523, DW_AT_TI_begin_file("../FreeRTOS/Source/queue.c")
    6054                      .dwattr $C$DW$523, DW_AT_TI_begin_line(0x8d4)
    6055                      .dwattr $C$DW$523, DW_AT_TI_end_line(0x8e7)
    6056              $C$DW$524       .dwtag  DW_TAG_TI_loop_range
    6057                      .dwattr $C$DW$524, DW_AT_low_pc($C$DW$L$_prvUnlockQueue$14$B)
    6058                      .dwattr $C$DW$524, DW_AT_high_pc($C$DW$L$_prvUnlockQueue$14$E)
    6059              $C$DW$525       .dwtag  DW_TAG_TI_loop_range
    6060                      .dwattr $C$DW$525, DW_AT_low_pc($C$DW$L$_prvUnlockQueue$15$B)
    6061                      .dwattr $C$DW$525, DW_AT_high_pc($C$DW$L$_prvUnlockQueue$15$E)
    6062              $C$DW$526       .dwtag  DW_TAG_TI_loop_range
    6063                      .dwattr $C$DW$526, DW_AT_low_pc($C$DW$L$_prvUnlockQueue$16$B)
    6064                      .dwattr $C$DW$526, DW_AT_high_pc($C$DW$L$_prvUnlockQueue$16$E)
    6065              $C$DW$527       .dwtag  DW_TAG_TI_loop_range
    6066                      .dwattr $C$DW$527, DW_AT_low_pc($C$DW$L$_prvUnlockQueue$17$B)
    6067                      .dwattr $C$DW$527, DW_AT_high_pc($C$DW$L$_prvUnlockQueue$17$E)
    6068              $C$DW$528       .dwtag  DW_TAG_TI_loop_range
    6069                      .dwattr $C$DW$528, DW_AT_low_pc($C$DW$L$_prvUnlockQueue$18$B)
    6070                      .dwattr $C$DW$528, DW_AT_high_pc($C$DW$L$_prvUnlockQueue$18$E)
    6071              $C$DW$529       .dwtag  DW_TAG_TI_loop_range
    6072                      .dwattr $C$DW$529, DW_AT_low_pc($C$DW$L$_prvUnlockQueue$19$B)
    6073                      .dwattr $C$DW$529, DW_AT_high_pc($C$DW$L$_prvUnlockQueue$19$E)
    6074              $C$DW$530       .dwtag  DW_TAG_TI_loop_range
    6075                      .dwattr $C$DW$530, DW_AT_low_pc($C$DW$L$_prvUnlockQueue$20$B)
    6076                      .dwattr $C$DW$530, DW_AT_high_pc($C$DW$L$_prvUnlockQueue$20$E)
    6077              $C$DW$531       .dwtag  DW_TAG_TI_loop_range
    6078                      .dwattr $C$DW$531, DW_AT_low_pc($C$DW$L$_prvUnlockQueue$22$B)
    6079                      .dwattr $C$DW$531, DW_AT_high_pc($C$DW$L$_prvUnlockQueue$22$E)
    6080                      .dwendtag $C$DW$523
    6081              
    6082              
    6083              $C$DW$532       .dwtag  DW_TAG_TI_loop
    6084                      .dwattr $C$DW$532, DW_AT_name("F:\eZdsp_DBG\eZDSP_5535_Files\ccsws2\test\Debug\queue.asm:$C$L217:1:15
    6085                      .dwattr $C$DW$532, DW_AT_TI_begin_file("../FreeRTOS/Source/queue.c")
    6086                      .dwattr $C$DW$532, DW_AT_TI_begin_line(0x884)
    6087                      .dwattr $C$DW$532, DW_AT_TI_end_line(0x8c9)
    6088              $C$DW$533       .dwtag  DW_TAG_TI_loop_range
    6089                      .dwattr $C$DW$533, DW_AT_low_pc($C$DW$L$_prvUnlockQueue$2$B)
    6090                      .dwattr $C$DW$533, DW_AT_high_pc($C$DW$L$_prvUnlockQueue$2$E)
    6091              $C$DW$534       .dwtag  DW_TAG_TI_loop_range
    6092                      .dwattr $C$DW$534, DW_AT_low_pc($C$DW$L$_prvUnlockQueue$3$B)
    6093                      .dwattr $C$DW$534, DW_AT_high_pc($C$DW$L$_prvUnlockQueue$3$E)
    6094              $C$DW$535       .dwtag  DW_TAG_TI_loop_range
    6095                      .dwattr $C$DW$535, DW_AT_low_pc($C$DW$L$_prvUnlockQueue$4$B)
    6096                      .dwattr $C$DW$535, DW_AT_high_pc($C$DW$L$_prvUnlockQueue$4$E)
    6097              $C$DW$536       .dwtag  DW_TAG_TI_loop_range
    6098                      .dwattr $C$DW$536, DW_AT_low_pc($C$DW$L$_prvUnlockQueue$5$B)
    6099                      .dwattr $C$DW$536, DW_AT_high_pc($C$DW$L$_prvUnlockQueue$5$E)
    6100              $C$DW$537       .dwtag  DW_TAG_TI_loop_range
TMS320C55x Assembler PC v4.4.1 Sat Sep 15 01:52:39 2018

Tools Copyright (c) 1996-2012 Texas Instruments Incorporated
queue.asm                                                            PAGE  129

    6101                      .dwattr $C$DW$537, DW_AT_low_pc($C$DW$L$_prvUnlockQueue$6$B)
    6102                      .dwattr $C$DW$537, DW_AT_high_pc($C$DW$L$_prvUnlockQueue$6$E)
    6103              $C$DW$538       .dwtag  DW_TAG_TI_loop_range
    6104                      .dwattr $C$DW$538, DW_AT_low_pc($C$DW$L$_prvUnlockQueue$7$B)
    6105                      .dwattr $C$DW$538, DW_AT_high_pc($C$DW$L$_prvUnlockQueue$7$E)
    6106              $C$DW$539       .dwtag  DW_TAG_TI_loop_range
    6107                      .dwattr $C$DW$539, DW_AT_low_pc($C$DW$L$_prvUnlockQueue$9$B)
    6108                      .dwattr $C$DW$539, DW_AT_high_pc($C$DW$L$_prvUnlockQueue$9$E)
    6109                      .dwendtag $C$DW$532
    6110              
    6111                      .dwattr $C$DW$511, DW_AT_TI_end_file("../FreeRTOS/Source/queue.c")
    6112                      .dwattr $C$DW$511, DW_AT_TI_end_line(0x8ec)
    6113                      .dwattr $C$DW$511, DW_AT_TI_end_column(0x01)
    6114                      .dwendentry
    6115                      .dwendtag $C$DW$511
    6116              
    6117 0010b9               .sect   ".text"
    6118                      .align 4
    6119              
    6120              $C$DW$540       .dwtag  DW_TAG_subprogram, DW_AT_name("prvIsQueueEmpty")
    6121                      .dwattr $C$DW$540, DW_AT_low_pc(_prvIsQueueEmpty)
    6122                      .dwattr $C$DW$540, DW_AT_high_pc(0x00)
    6123                      .dwattr $C$DW$540, DW_AT_TI_symbol_name("_prvIsQueueEmpty")
    6124                      .dwattr $C$DW$540, DW_AT_type(*$C$DW$T$49)
    6125                      .dwattr $C$DW$540, DW_AT_TI_begin_file("../FreeRTOS/Source/queue.c")
    6126                      .dwattr $C$DW$540, DW_AT_TI_begin_line(0x8ef)
    6127                      .dwattr $C$DW$540, DW_AT_TI_begin_column(0x13)
    6128                      .dwattr $C$DW$540, DW_AT_TI_max_frame_size(0x04)
    6129                      .dwpsn  file "../FreeRTOS/Source/queue.c",line 2288,column 1,is_stmt,address _prvIsQueueEmpty
    6130              
    6131                      .dwfde $C$DW$CIE, _prvIsQueueEmpty
    6132              $C$DW$541       .dwtag  DW_TAG_formal_parameter, DW_AT_name("pxQueue")
    6133                      .dwattr $C$DW$541, DW_AT_TI_symbol_name("_pxQueue")
    6134                      .dwattr $C$DW$541, DW_AT_type(*$C$DW$T$66)
    6135                      .dwattr $C$DW$541, DW_AT_location[DW_OP_reg17]
    6136              ;*******************************************************************************
    6137              ;* FUNCTION NAME: prvIsQueueEmpty                                              *
    6138              ;*                                                                             *
    6139              ;*   Function Uses Regs : T0,AR0,XAR0,AR1,AR3,XAR3,SP,CARRY,M40,SATA,SATD,RDM, *
    6140              ;*                        FRCT,SMUL                                            *
    6141              ;*   Stack Frame        : Compact (No Frame Pointer, w/ debug)                 *
    6142              ;*   Total Frame Size   : 4 words                                              *
    6143              ;*                        (1 return address/alignment)                         *
    6144              ;*                        (3 local values)                                     *
    6145              ;*   Min System Stack   : 1 word                                               *
    6146              ;*******************************************************************************
    6147 0010bc       _prvIsQueueEmpty:
    6148                      .dwcfi  cfa_offset, 1
    6149                      .dwcfi  save_reg_to_mem, 91, -1
    6150 0010bc 4EFD          AADD #-3, SP
    6151                      .dwcfi  cfa_offset, 4
    6152              $C$DW$542       .dwtag  DW_TAG_variable, DW_AT_name("pxQueue")
    6153                      .dwattr $C$DW$542, DW_AT_TI_symbol_name("_pxQueue")
    6154                      .dwattr $C$DW$542, DW_AT_type(*$C$DW$T$66)
    6155                      .dwattr $C$DW$542, DW_AT_location[DW_OP_bregx 0x24 0]
TMS320C55x Assembler PC v4.4.1 Sat Sep 15 01:52:39 2018

Tools Copyright (c) 1996-2012 Texas Instruments Incorporated
queue.asm                                                            PAGE  130

    6156              $C$DW$543       .dwtag  DW_TAG_variable, DW_AT_name("xReturn")
    6157                      .dwattr $C$DW$543, DW_AT_TI_symbol_name("_xReturn")
    6158                      .dwattr $C$DW$543, DW_AT_type(*$C$DW$T$49)
    6159                      .dwattr $C$DW$543, DW_AT_location[DW_OP_bregx 0x24 2]
    6160 0010be EB00          MOV XAR0, dbl(*SP(#0))
         0010c0 85   
    6161                      .dwpsn  file "../FreeRTOS/Source/queue.c",line 2291,column 2,is_stmt
    6162 0010c1 20     nop
    6163 0010c2 46B3   bset INTM
    6164 0010c4 F731          ADD #1, *(#_usCriticalNesting) ; |2291| 
         0010c6 0001 
         0010c8 0000 
         0010ca 00!  
    6165 0010cb 20            NOP
    6166 0010cc 20            NOP
    6167                      .dwpsn  file "../FreeRTOS/Source/queue.c",line 2293,column 3,is_stmt
    6168 0010cd ED00          MOV dbl(*SP(#0)), XAR3
         0010cf BF   
    6169 0010d0 A96D          MOV *AR3(#28), AR1 ; |2293| 
         0010d2 001C 
    6170 0010d4 6299          BCC $C$L230,AR1 != #0 ; |2293| 
    6171                                                      ; branchcc occurs ; |2293| 
    6172                      .dwpsn  file "../FreeRTOS/Source/queue.c",line 2295,column 4,is_stmt
    6173 0010d6 E604          MOV #1, *SP(#2) ; |2295| 
         0010d8 01   
    6174                      .dwpsn  file "../FreeRTOS/Source/queue.c",line 2296,column 3,is_stmt
    6175 0010d9 4A03          B $C$L231 ; |2296| 
    6176                                                      ; branch occurs ; |2296| 
    6177 0010db       $C$L230:    
    6178                      .dwpsn  file "../FreeRTOS/Source/queue.c",line 2299,column 4,is_stmt
    6179 0010db E604          MOV #0, *SP(#2) ; |2299| 
         0010dd 00   
    6180 0010de       $C$L231:    
    6181                      .dwpsn  file "../FreeRTOS/Source/queue.c",line 2302,column 2,is_stmt
    6182 0010de A931          MOV *(#_usCriticalNesting), AR1 ; |2302| 
         0010e0 0000 
         0010e2 00!  
    6183 0010e3 0409          BCC $C$L232,AR1 == #0 ; |2302| 
         0010e5 14   
    6184                                                      ; branchcc occurs ; |2302| 
    6185 0010e6 F731          SUB #1, *(#_usCriticalNesting) ; |2302| 
         0010e8 FFFF 
         0010ea 0000 
         0010ec 00!  
    6186 0010ed 20            NOP
    6187 0010ee 20            NOP
    6188 0010ef 20            NOP
    6189 0010f0 A931          MOV *(#_usCriticalNesting), AR1 ; |2302| 
         0010f2 0000 
         0010f4 00!  
    6190 0010f5 6199          BCC $C$L232,AR1 != #0 ; |2302| 
    6191                                                      ; branchcc occurs ; |2302| 
    6192 0010f7 20     nop
    6193 0010f8 46B2   bclr INTM
    6194 0010fa       $C$L232:    
TMS320C55x Assembler PC v4.4.1 Sat Sep 15 01:52:39 2018

Tools Copyright (c) 1996-2012 Texas Instruments Incorporated
queue.asm                                                            PAGE  131

    6195                      .dwpsn  file "../FreeRTOS/Source/queue.c",line 2304,column 2,is_stmt
    6196 0010fa A404          MOV *SP(#2), T0 ; |2304| 
    6197                      .dwpsn  file "../FreeRTOS/Source/queue.c",line 2305,column 1,is_stmt
    6198 0010fc 4E03          AADD #3, SP
    6199                      .dwcfi  cfa_offset, 1
    6200              $C$DW$544       .dwtag  DW_TAG_TI_branch
    6201                      .dwattr $C$DW$544, DW_AT_low_pc(0x00)
    6202                      .dwattr $C$DW$544, DW_AT_TI_return
    6203 0010fe 4804          RET
    6204                                                      ; return occurs
    6205                      .dwattr $C$DW$540, DW_AT_TI_end_file("../FreeRTOS/Source/queue.c")
    6206                      .dwattr $C$DW$540, DW_AT_TI_end_line(0x901)
    6207                      .dwattr $C$DW$540, DW_AT_TI_end_column(0x01)
    6208                      .dwendentry
    6209                      .dwendtag $C$DW$540
    6210              
    6211 001100               .sect   ".text"
    6212                      .align 4
    6213                      .global _xQueueIsQueueEmptyFromISR
    6214              
    6215              $C$DW$545       .dwtag  DW_TAG_subprogram, DW_AT_name("xQueueIsQueueEmptyFromISR")
    6216                      .dwattr $C$DW$545, DW_AT_low_pc(_xQueueIsQueueEmptyFromISR)
    6217                      .dwattr $C$DW$545, DW_AT_high_pc(0x00)
    6218                      .dwattr $C$DW$545, DW_AT_TI_symbol_name("_xQueueIsQueueEmptyFromISR")
    6219                      .dwattr $C$DW$545, DW_AT_external
    6220                      .dwattr $C$DW$545, DW_AT_type(*$C$DW$T$49)
    6221                      .dwattr $C$DW$545, DW_AT_TI_begin_file("../FreeRTOS/Source/queue.c")
    6222                      .dwattr $C$DW$545, DW_AT_TI_begin_line(0x904)
    6223                      .dwattr $C$DW$545, DW_AT_TI_begin_column(0x0c)
    6224                      .dwattr $C$DW$545, DW_AT_TI_max_frame_size(0x08)
    6225                      .dwpsn  file "../FreeRTOS/Source/queue.c",line 2309,column 1,is_stmt,address _xQueueIsQueueEmptyFromI
    6226              
    6227                      .dwfde $C$DW$CIE, _xQueueIsQueueEmptyFromISR
    6228              $C$DW$546       .dwtag  DW_TAG_formal_parameter, DW_AT_name("xQueue")
    6229                      .dwattr $C$DW$546, DW_AT_TI_symbol_name("_xQueue")
    6230                      .dwattr $C$DW$546, DW_AT_type(*$C$DW$T$55)
    6231                      .dwattr $C$DW$546, DW_AT_location[DW_OP_reg17]
    6232              ;*******************************************************************************
    6233              ;* FUNCTION NAME: xQueueIsQueueEmptyFromISR                                    *
    6234              ;*                                                                             *
    6235              ;*   Function Uses Regs : AC0,AC0,T0,AR0,XAR0,AR1,AR3,XAR3,SP,M40,SATA,SATD,   *
    6236              ;*                        RDM,FRCT,SMUL                                        *
    6237              ;*   Stack Frame        : Compact (No Frame Pointer, w/ debug)                 *
    6238              ;*   Total Frame Size   : 8 words                                              *
    6239              ;*                        (2 return address/alignment)                         *
    6240              ;*                        (6 local values)                                     *
    6241              ;*   Min System Stack   : 1 word                                               *
    6242              ;*******************************************************************************
    6243 001100       _xQueueIsQueueEmptyFromISR:
    6244                      .dwcfi  cfa_offset, 1
    6245                      .dwcfi  save_reg_to_mem, 91, -1
    6246 001100 4EF9          AADD #-7, SP
    6247                      .dwcfi  cfa_offset, 8
    6248              $C$DW$547       .dwtag  DW_TAG_variable, DW_AT_name("xQueue")
    6249                      .dwattr $C$DW$547, DW_AT_TI_symbol_name("_xQueue")
TMS320C55x Assembler PC v4.4.1 Sat Sep 15 01:52:39 2018

Tools Copyright (c) 1996-2012 Texas Instruments Incorporated
queue.asm                                                            PAGE  132

    6250                      .dwattr $C$DW$547, DW_AT_type(*$C$DW$T$55)
    6251                      .dwattr $C$DW$547, DW_AT_location[DW_OP_bregx 0x24 0]
    6252              $C$DW$548       .dwtag  DW_TAG_variable, DW_AT_name("xReturn")
    6253                      .dwattr $C$DW$548, DW_AT_TI_symbol_name("_xReturn")
    6254                      .dwattr $C$DW$548, DW_AT_type(*$C$DW$T$49)
    6255                      .dwattr $C$DW$548, DW_AT_location[DW_OP_bregx 0x24 2]
    6256              $C$DW$549       .dwtag  DW_TAG_variable, DW_AT_name("pxQueue")
    6257                      .dwattr $C$DW$549, DW_AT_TI_symbol_name("_pxQueue")
    6258                      .dwattr $C$DW$549, DW_AT_type(*$C$DW$T$69)
    6259                      .dwattr $C$DW$549, DW_AT_location[DW_OP_bregx 0x24 4]
    6260 001102 EB00          MOV XAR0, dbl(*SP(#0))
         001104 85   
    6261                      .dwpsn  file "../FreeRTOS/Source/queue.c",line 2311,column 17,is_stmt
    6262 001105 ED00          MOV dbl(*SP(#0)), XAR3
         001107 BF   
    6263 001108 EB08          MOV XAR3, dbl(*SP(#4))
         00110a B5   
    6264                      .dwpsn  file "../FreeRTOS/Source/queue.c",line 2313,column 2,is_stmt
    6265 00110b 90B0          MOV XAR3, AC0
    6266 00110d 6290          BCC $C$L234,AC0 != #0 ; |2313| 
    6267                                                      ; branchcc occurs ; |2313| 
    6268 00110f 20     nop
    6269 001110 46B3   bset INTM
    6270 001112       $C$L233:    
    6271 001112       $C$DW$L$_xQueueIsQueueEmptyFromISR$3$B:
    6272 001112 4A7E          B $C$L233 ; |2313| 
    6273                                                      ; branch occurs ; |2313| 
    6274 001114       $C$DW$L$_xQueueIsQueueEmptyFromISR$3$E:
    6275 001114       $C$L234:    
    6276                      .dwpsn  file "../FreeRTOS/Source/queue.c",line 2314,column 2,is_stmt
    6277 001114 A96D          MOV *AR3(#28), AR1 ; |2314| 
         001116 001C 
    6278 001118 6299          BCC $C$L235,AR1 != #0 ; |2314| 
    6279                                                      ; branchcc occurs ; |2314| 
    6280                      .dwpsn  file "../FreeRTOS/Source/queue.c",line 2316,column 3,is_stmt
    6281 00111a E604          MOV #1, *SP(#2) ; |2316| 
         00111c 01   
    6282                      .dwpsn  file "../FreeRTOS/Source/queue.c",line 2317,column 2,is_stmt
    6283 00111d 4A03          B $C$L236 ; |2317| 
    6284                                                      ; branch occurs ; |2317| 
    6285 00111f       $C$L235:    
    6286                      .dwpsn  file "../FreeRTOS/Source/queue.c",line 2320,column 3,is_stmt
    6287 00111f E604          MOV #0, *SP(#2) ; |2320| 
         001121 00   
    6288 001122       $C$L236:    
    6289                      .dwpsn  file "../FreeRTOS/Source/queue.c",line 2323,column 2,is_stmt
    6290 001122 A404          MOV *SP(#2), T0 ; |2323| 
    6291                      .dwpsn  file "../FreeRTOS/Source/queue.c",line 2324,column 1,is_stmt
    6292 001124 4E07          AADD #7, SP
    6293                      .dwcfi  cfa_offset, 1
    6294              $C$DW$550       .dwtag  DW_TAG_TI_branch
    6295                      .dwattr $C$DW$550, DW_AT_low_pc(0x00)
    6296                      .dwattr $C$DW$550, DW_AT_TI_return
    6297 001126 4804          RET
    6298                                                      ; return occurs
TMS320C55x Assembler PC v4.4.1 Sat Sep 15 01:52:39 2018

Tools Copyright (c) 1996-2012 Texas Instruments Incorporated
queue.asm                                                            PAGE  133

    6299              
    6300              $C$DW$551       .dwtag  DW_TAG_TI_loop
    6301                      .dwattr $C$DW$551, DW_AT_name("F:\eZdsp_DBG\eZDSP_5535_Files\ccsws2\test\Debug\queue.asm:$C$L233:1:15
    6302                      .dwattr $C$DW$551, DW_AT_TI_begin_file("../FreeRTOS/Source/queue.c")
    6303                      .dwattr $C$DW$551, DW_AT_TI_begin_line(0x909)
    6304                      .dwattr $C$DW$551, DW_AT_TI_end_line(0x909)
    6305              $C$DW$552       .dwtag  DW_TAG_TI_loop_range
    6306                      .dwattr $C$DW$552, DW_AT_low_pc($C$DW$L$_xQueueIsQueueEmptyFromISR$3$B)
    6307                      .dwattr $C$DW$552, DW_AT_high_pc($C$DW$L$_xQueueIsQueueEmptyFromISR$3$E)
    6308                      .dwendtag $C$DW$551
    6309              
    6310                      .dwattr $C$DW$545, DW_AT_TI_end_file("../FreeRTOS/Source/queue.c")
    6311                      .dwattr $C$DW$545, DW_AT_TI_end_line(0x914)
    6312                      .dwattr $C$DW$545, DW_AT_TI_end_column(0x01)
    6313                      .dwendentry
    6314                      .dwendtag $C$DW$545
    6315              
    6316 001128               .sect   ".text"
    6317                      .align 4
    6318              
    6319              $C$DW$553       .dwtag  DW_TAG_subprogram, DW_AT_name("prvIsQueueFull")
    6320                      .dwattr $C$DW$553, DW_AT_low_pc(_prvIsQueueFull)
    6321                      .dwattr $C$DW$553, DW_AT_high_pc(0x00)
    6322                      .dwattr $C$DW$553, DW_AT_TI_symbol_name("_prvIsQueueFull")
    6323                      .dwattr $C$DW$553, DW_AT_type(*$C$DW$T$49)
    6324                      .dwattr $C$DW$553, DW_AT_TI_begin_file("../FreeRTOS/Source/queue.c")
    6325                      .dwattr $C$DW$553, DW_AT_TI_begin_line(0x917)
    6326                      .dwattr $C$DW$553, DW_AT_TI_begin_column(0x13)
    6327                      .dwattr $C$DW$553, DW_AT_TI_max_frame_size(0x04)
    6328                      .dwpsn  file "../FreeRTOS/Source/queue.c",line 2328,column 1,is_stmt,address _prvIsQueueFull
    6329              
    6330                      .dwfde $C$DW$CIE, _prvIsQueueFull
    6331              $C$DW$554       .dwtag  DW_TAG_formal_parameter, DW_AT_name("pxQueue")
    6332                      .dwattr $C$DW$554, DW_AT_TI_symbol_name("_pxQueue")
    6333                      .dwattr $C$DW$554, DW_AT_type(*$C$DW$T$66)
    6334                      .dwattr $C$DW$554, DW_AT_location[DW_OP_reg17]
    6335              ;*******************************************************************************
    6336              ;* FUNCTION NAME: prvIsQueueFull                                               *
    6337              ;*                                                                             *
    6338              ;*   Function Uses Regs : T0,AR0,XAR0,AR1,AR2,AR3,XAR3,SP,CARRY,TC1,M40,SATA,  *
    6339              ;*                        SATD,RDM,FRCT,SMUL                                   *
    6340              ;*   Stack Frame        : Compact (No Frame Pointer, w/ debug)                 *
    6341              ;*   Total Frame Size   : 4 words                                              *
    6342              ;*                        (1 return address/alignment)                         *
    6343              ;*                        (3 local values)                                     *
    6344              ;*   Min System Stack   : 1 word                                               *
    6345              ;*******************************************************************************
    6346 001128       _prvIsQueueFull:
    6347                      .dwcfi  cfa_offset, 1
    6348                      .dwcfi  save_reg_to_mem, 91, -1
    6349 001128 4EFD          AADD #-3, SP
    6350                      .dwcfi  cfa_offset, 4
    6351              $C$DW$555       .dwtag  DW_TAG_variable, DW_AT_name("pxQueue")
    6352                      .dwattr $C$DW$555, DW_AT_TI_symbol_name("_pxQueue")
    6353                      .dwattr $C$DW$555, DW_AT_type(*$C$DW$T$66)
TMS320C55x Assembler PC v4.4.1 Sat Sep 15 01:52:39 2018

Tools Copyright (c) 1996-2012 Texas Instruments Incorporated
queue.asm                                                            PAGE  134

    6354                      .dwattr $C$DW$555, DW_AT_location[DW_OP_bregx 0x24 0]
    6355              $C$DW$556       .dwtag  DW_TAG_variable, DW_AT_name("xReturn")
    6356                      .dwattr $C$DW$556, DW_AT_TI_symbol_name("_xReturn")
    6357                      .dwattr $C$DW$556, DW_AT_type(*$C$DW$T$49)
    6358                      .dwattr $C$DW$556, DW_AT_location[DW_OP_bregx 0x24 2]
    6359 00112a EB00          MOV XAR0, dbl(*SP(#0))
         00112c 85   
    6360                      .dwpsn  file "../FreeRTOS/Source/queue.c",line 2331,column 2,is_stmt
    6361 00112d 20     nop
    6362 00112e 46B3   bset INTM
    6363 001130 F731          ADD #1, *(#_usCriticalNesting) ; |2331| 
         001132 0001 
         001134 0000 
         001136 00!  
    6364 001137 20            NOP
    6365                      .dwpsn  file "../FreeRTOS/Source/queue.c",line 2333,column 3,is_stmt
    6366 001138 ED00          MOV dbl(*SP(#0)), XAR3
         00113a BF   
    6367 00113b A96D          MOV *AR3(#29), AR1 ; |2333| 
         00113d 001D 
    6368 00113f AA6D          MOV *AR3(#28), AR2 ; |2333| 
         001141 001C 
    6369 001143 12AC          CMPU AR2 != AR1, TC1 ; |2333| 
         001145 94   
    6370 001146 62E4          BCC $C$L237,TC1 ; |2333| 
    6371                                                      ; branchcc occurs ; |2333| 
    6372                      .dwpsn  file "../FreeRTOS/Source/queue.c",line 2335,column 4,is_stmt
    6373 001148 E604          MOV #1, *SP(#2) ; |2335| 
         00114a 01   
    6374                      .dwpsn  file "../FreeRTOS/Source/queue.c",line 2336,column 3,is_stmt
    6375 00114b 4A03          B $C$L238 ; |2336| 
    6376                                                      ; branch occurs ; |2336| 
    6377 00114d       $C$L237:    
    6378                      .dwpsn  file "../FreeRTOS/Source/queue.c",line 2339,column 4,is_stmt
    6379 00114d E604          MOV #0, *SP(#2) ; |2339| 
         00114f 00   
    6380 001150       $C$L238:    
    6381                      .dwpsn  file "../FreeRTOS/Source/queue.c",line 2342,column 2,is_stmt
    6382 001150 A931          MOV *(#_usCriticalNesting), AR1 ; |2342| 
         001152 0000 
         001154 00!  
    6383 001155 0409          BCC $C$L239,AR1 == #0 ; |2342| 
         001157 14   
    6384                                                      ; branchcc occurs ; |2342| 
    6385 001158 F731          SUB #1, *(#_usCriticalNesting) ; |2342| 
         00115a FFFF 
         00115c 0000 
         00115e 00!  
    6386 00115f 20            NOP
    6387 001160 20            NOP
    6388 001161 20            NOP
    6389 001162 A931          MOV *(#_usCriticalNesting), AR1 ; |2342| 
         001164 0000 
         001166 00!  
    6390 001167 6199          BCC $C$L239,AR1 != #0 ; |2342| 
TMS320C55x Assembler PC v4.4.1 Sat Sep 15 01:52:39 2018

Tools Copyright (c) 1996-2012 Texas Instruments Incorporated
queue.asm                                                            PAGE  135

    6391                                                      ; branchcc occurs ; |2342| 
    6392 001169 20     nop
    6393 00116a 46B2   bclr INTM
    6394 00116c       $C$L239:    
    6395                      .dwpsn  file "../FreeRTOS/Source/queue.c",line 2344,column 2,is_stmt
    6396 00116c A404          MOV *SP(#2), T0 ; |2344| 
    6397                      .dwpsn  file "../FreeRTOS/Source/queue.c",line 2345,column 1,is_stmt
    6398 00116e 4E03          AADD #3, SP
    6399                      .dwcfi  cfa_offset, 1
    6400              $C$DW$557       .dwtag  DW_TAG_TI_branch
    6401                      .dwattr $C$DW$557, DW_AT_low_pc(0x00)
    6402                      .dwattr $C$DW$557, DW_AT_TI_return
    6403 001170 4804          RET
    6404                                                      ; return occurs
    6405                      .dwattr $C$DW$553, DW_AT_TI_end_file("../FreeRTOS/Source/queue.c")
    6406                      .dwattr $C$DW$553, DW_AT_TI_end_line(0x929)
    6407                      .dwattr $C$DW$553, DW_AT_TI_end_column(0x01)
    6408                      .dwendentry
    6409                      .dwendtag $C$DW$553
    6410              
    6411 001172               .sect   ".text"
    6412                      .align 4
    6413                      .global _xQueueIsQueueFullFromISR
    6414              
    6415              $C$DW$558       .dwtag  DW_TAG_subprogram, DW_AT_name("xQueueIsQueueFullFromISR")
    6416                      .dwattr $C$DW$558, DW_AT_low_pc(_xQueueIsQueueFullFromISR)
    6417                      .dwattr $C$DW$558, DW_AT_high_pc(0x00)
    6418                      .dwattr $C$DW$558, DW_AT_TI_symbol_name("_xQueueIsQueueFullFromISR")
    6419                      .dwattr $C$DW$558, DW_AT_external
    6420                      .dwattr $C$DW$558, DW_AT_type(*$C$DW$T$49)
    6421                      .dwattr $C$DW$558, DW_AT_TI_begin_file("../FreeRTOS/Source/queue.c")
    6422                      .dwattr $C$DW$558, DW_AT_TI_begin_line(0x92c)
    6423                      .dwattr $C$DW$558, DW_AT_TI_begin_column(0x0c)
    6424                      .dwattr $C$DW$558, DW_AT_TI_max_frame_size(0x08)
    6425                      .dwpsn  file "../FreeRTOS/Source/queue.c",line 2349,column 1,is_stmt,address _xQueueIsQueueFullFromIS
    6426              
    6427                      .dwfde $C$DW$CIE, _xQueueIsQueueFullFromISR
    6428              $C$DW$559       .dwtag  DW_TAG_formal_parameter, DW_AT_name("xQueue")
    6429                      .dwattr $C$DW$559, DW_AT_TI_symbol_name("_xQueue")
    6430                      .dwattr $C$DW$559, DW_AT_type(*$C$DW$T$55)
    6431                      .dwattr $C$DW$559, DW_AT_location[DW_OP_reg17]
    6432              ;*******************************************************************************
    6433              ;* FUNCTION NAME: xQueueIsQueueFullFromISR                                     *
    6434              ;*                                                                             *
    6435              ;*   Function Uses Regs : AC0,AC0,T0,AR0,XAR0,AR1,AR2,AR3,XAR3,SP,TC1,M40,SATA,*
    6436              ;*                        SATD,RDM,FRCT,SMUL                                   *
    6437              ;*   Stack Frame        : Compact (No Frame Pointer, w/ debug)                 *
    6438              ;*   Total Frame Size   : 8 words                                              *
    6439              ;*                        (2 return address/alignment)                         *
    6440              ;*                        (6 local values)                                     *
    6441              ;*   Min System Stack   : 1 word                                               *
    6442              ;*******************************************************************************
    6443 001174       _xQueueIsQueueFullFromISR:
    6444                      .dwcfi  cfa_offset, 1
    6445                      .dwcfi  save_reg_to_mem, 91, -1
TMS320C55x Assembler PC v4.4.1 Sat Sep 15 01:52:39 2018

Tools Copyright (c) 1996-2012 Texas Instruments Incorporated
queue.asm                                                            PAGE  136

    6446 001174 4EF9          AADD #-7, SP
    6447                      .dwcfi  cfa_offset, 8
    6448              $C$DW$560       .dwtag  DW_TAG_variable, DW_AT_name("xQueue")
    6449                      .dwattr $C$DW$560, DW_AT_TI_symbol_name("_xQueue")
    6450                      .dwattr $C$DW$560, DW_AT_type(*$C$DW$T$55)
    6451                      .dwattr $C$DW$560, DW_AT_location[DW_OP_bregx 0x24 0]
    6452              $C$DW$561       .dwtag  DW_TAG_variable, DW_AT_name("xReturn")
    6453                      .dwattr $C$DW$561, DW_AT_TI_symbol_name("_xReturn")
    6454                      .dwattr $C$DW$561, DW_AT_type(*$C$DW$T$49)
    6455                      .dwattr $C$DW$561, DW_AT_location[DW_OP_bregx 0x24 2]
    6456              $C$DW$562       .dwtag  DW_TAG_variable, DW_AT_name("pxQueue")
    6457                      .dwattr $C$DW$562, DW_AT_TI_symbol_name("_pxQueue")
    6458                      .dwattr $C$DW$562, DW_AT_type(*$C$DW$T$69)
    6459                      .dwattr $C$DW$562, DW_AT_location[DW_OP_bregx 0x24 4]
    6460 001176 EB00          MOV XAR0, dbl(*SP(#0))
         001178 85   
    6461                      .dwpsn  file "../FreeRTOS/Source/queue.c",line 2351,column 17,is_stmt
    6462 001179 ED00          MOV dbl(*SP(#0)), XAR3
         00117b BF   
    6463 00117c EB08          MOV XAR3, dbl(*SP(#4))
         00117e B5   
    6464                      .dwpsn  file "../FreeRTOS/Source/queue.c",line 2353,column 2,is_stmt
    6465 00117f 90B0          MOV XAR3, AC0
    6466 001181 6290          BCC $C$L241,AC0 != #0 ; |2353| 
    6467                                                      ; branchcc occurs ; |2353| 
    6468 001183 20     nop
    6469 001184 46B3   bset INTM
    6470 001186       $C$L240:    
    6471 001186       $C$DW$L$_xQueueIsQueueFullFromISR$3$B:
    6472 001186 4A7E          B $C$L240 ; |2353| 
    6473                                                      ; branch occurs ; |2353| 
    6474 001188       $C$DW$L$_xQueueIsQueueFullFromISR$3$E:
    6475 001188       $C$L241:    
    6476                      .dwpsn  file "../FreeRTOS/Source/queue.c",line 2354,column 2,is_stmt
    6477 001188 A96D          MOV *AR3(#29), AR1 ; |2354| 
         00118a 001D 
    6478 00118c AA6D          MOV *AR3(#28), AR2 ; |2354| 
         00118e 001C 
    6479 001190 12AC          CMPU AR2 != AR1, TC1 ; |2354| 
         001192 94   
    6480 001193 62E4          BCC $C$L242,TC1 ; |2354| 
    6481                                                      ; branchcc occurs ; |2354| 
    6482                      .dwpsn  file "../FreeRTOS/Source/queue.c",line 2356,column 3,is_stmt
    6483 001195 E604          MOV #1, *SP(#2) ; |2356| 
         001197 01   
    6484                      .dwpsn  file "../FreeRTOS/Source/queue.c",line 2357,column 2,is_stmt
    6485 001198 4A03          B $C$L243 ; |2357| 
    6486                                                      ; branch occurs ; |2357| 
    6487 00119a       $C$L242:    
    6488                      .dwpsn  file "../FreeRTOS/Source/queue.c",line 2360,column 3,is_stmt
    6489 00119a E604          MOV #0, *SP(#2) ; |2360| 
         00119c 00   
    6490 00119d       $C$L243:    
    6491                      .dwpsn  file "../FreeRTOS/Source/queue.c",line 2363,column 2,is_stmt
    6492 00119d A404          MOV *SP(#2), T0 ; |2363| 
TMS320C55x Assembler PC v4.4.1 Sat Sep 15 01:52:39 2018

Tools Copyright (c) 1996-2012 Texas Instruments Incorporated
queue.asm                                                            PAGE  137

    6493                      .dwpsn  file "../FreeRTOS/Source/queue.c",line 2364,column 1,is_stmt
    6494 00119f 4E07          AADD #7, SP
    6495                      .dwcfi  cfa_offset, 1
    6496              $C$DW$563       .dwtag  DW_TAG_TI_branch
    6497                      .dwattr $C$DW$563, DW_AT_low_pc(0x00)
    6498                      .dwattr $C$DW$563, DW_AT_TI_return
    6499 0011a1 4804          RET
    6500                                                      ; return occurs
    6501              
    6502              $C$DW$564       .dwtag  DW_TAG_TI_loop
    6503                      .dwattr $C$DW$564, DW_AT_name("F:\eZdsp_DBG\eZDSP_5535_Files\ccsws2\test\Debug\queue.asm:$C$L240:1:15
    6504                      .dwattr $C$DW$564, DW_AT_TI_begin_file("../FreeRTOS/Source/queue.c")
    6505                      .dwattr $C$DW$564, DW_AT_TI_begin_line(0x931)
    6506                      .dwattr $C$DW$564, DW_AT_TI_end_line(0x931)
    6507              $C$DW$565       .dwtag  DW_TAG_TI_loop_range
    6508                      .dwattr $C$DW$565, DW_AT_low_pc($C$DW$L$_xQueueIsQueueFullFromISR$3$B)
    6509                      .dwattr $C$DW$565, DW_AT_high_pc($C$DW$L$_xQueueIsQueueFullFromISR$3$E)
    6510                      .dwendtag $C$DW$564
    6511              
    6512                      .dwattr $C$DW$558, DW_AT_TI_end_file("../FreeRTOS/Source/queue.c")
    6513                      .dwattr $C$DW$558, DW_AT_TI_end_line(0x93c)
    6514                      .dwattr $C$DW$558, DW_AT_TI_end_column(0x01)
    6515                      .dwendentry
    6516                      .dwendtag $C$DW$558
    6517              
    6518 0011a3               .sect   ".text"
    6519                      .align 4
    6520                      .global _xQueueCRSend
    6521              
    6522              $C$DW$566       .dwtag  DW_TAG_subprogram, DW_AT_name("xQueueCRSend")
    6523                      .dwattr $C$DW$566, DW_AT_low_pc(_xQueueCRSend)
    6524                      .dwattr $C$DW$566, DW_AT_high_pc(0x00)
    6525                      .dwattr $C$DW$566, DW_AT_TI_symbol_name("_xQueueCRSend")
    6526                      .dwattr $C$DW$566, DW_AT_external
    6527                      .dwattr $C$DW$566, DW_AT_type(*$C$DW$T$49)
    6528                      .dwattr $C$DW$566, DW_AT_TI_begin_file("../FreeRTOS/Source/queue.c")
    6529                      .dwattr $C$DW$566, DW_AT_TI_begin_line(0x941)
    6530                      .dwattr $C$DW$566, DW_AT_TI_begin_column(0x0d)
    6531                      .dwattr $C$DW$566, DW_AT_TI_max_frame_size(0x0c)
    6532                      .dwpsn  file "../FreeRTOS/Source/queue.c",line 2370,column 2,is_stmt,address _xQueueCRSend
    6533              
    6534                      .dwfde $C$DW$CIE, _xQueueCRSend
    6535              $C$DW$567       .dwtag  DW_TAG_formal_parameter, DW_AT_name("xQueue")
    6536                      .dwattr $C$DW$567, DW_AT_TI_symbol_name("_xQueue")
    6537                      .dwattr $C$DW$567, DW_AT_type(*$C$DW$T$27)
    6538                      .dwattr $C$DW$567, DW_AT_location[DW_OP_reg17]
    6539              $C$DW$568       .dwtag  DW_TAG_formal_parameter, DW_AT_name("pvItemToQueue")
    6540                      .dwattr $C$DW$568, DW_AT_TI_symbol_name("_pvItemToQueue")
    6541                      .dwattr $C$DW$568, DW_AT_type(*$C$DW$T$71)
    6542                      .dwattr $C$DW$568, DW_AT_location[DW_OP_reg19]
    6543              $C$DW$569       .dwtag  DW_TAG_formal_parameter, DW_AT_name("xTicksToWait")
    6544                      .dwattr $C$DW$569, DW_AT_TI_symbol_name("_xTicksToWait")
    6545                      .dwattr $C$DW$569, DW_AT_type(*$C$DW$T$44)
    6546                      .dwattr $C$DW$569, DW_AT_location[DW_OP_reg0]
    6547              ;*******************************************************************************
TMS320C55x Assembler PC v4.4.1 Sat Sep 15 01:52:39 2018

Tools Copyright (c) 1996-2012 Texas Instruments Incorporated
queue.asm                                                            PAGE  138

    6548              ;* FUNCTION NAME: xQueueCRSend                                                 *
    6549              ;*                                                                             *
    6550              ;*   Function Uses Regs : AC0,AC0,T0,AR0,XAR0,AR1,XAR1,AR2,AR3,XAR3,SP,TC1,M40,*
    6551              ;*                        SATA,SATD,RDM,FRCT,SMUL                              *
    6552              ;*   Stack Frame        : Compact (No Frame Pointer, w/ debug)                 *
    6553              ;*   Total Frame Size   : 12 words                                             *
    6554              ;*                        (2 return address/alignment)                         *
    6555              ;*                        (10 local values)                                    *
    6556              ;*   Min System Stack   : 1 word                                               *
    6557              ;*******************************************************************************
    6558 0011a4       _xQueueCRSend:
    6559                      .dwcfi  cfa_offset, 1
    6560                      .dwcfi  save_reg_to_mem, 91, -1
    6561 0011a4 4EF5          AADD #-11, SP
    6562                      .dwcfi  cfa_offset, 12
    6563              $C$DW$570       .dwtag  DW_TAG_variable, DW_AT_name("xQueue")
    6564                      .dwattr $C$DW$570, DW_AT_TI_symbol_name("_xQueue")
    6565                      .dwattr $C$DW$570, DW_AT_type(*$C$DW$T$27)
    6566                      .dwattr $C$DW$570, DW_AT_location[DW_OP_bregx 0x24 0]
    6567              $C$DW$571       .dwtag  DW_TAG_variable, DW_AT_name("pvItemToQueue")
    6568                      .dwattr $C$DW$571, DW_AT_TI_symbol_name("_pvItemToQueue")
    6569                      .dwattr $C$DW$571, DW_AT_type(*$C$DW$T$71)
    6570                      .dwattr $C$DW$571, DW_AT_location[DW_OP_bregx 0x24 2]
    6571              $C$DW$572       .dwtag  DW_TAG_variable, DW_AT_name("xTicksToWait")
    6572                      .dwattr $C$DW$572, DW_AT_TI_symbol_name("_xTicksToWait")
    6573                      .dwattr $C$DW$572, DW_AT_type(*$C$DW$T$44)
    6574                      .dwattr $C$DW$572, DW_AT_location[DW_OP_bregx 0x24 4]
    6575              $C$DW$573       .dwtag  DW_TAG_variable, DW_AT_name("xReturn")
    6576                      .dwattr $C$DW$573, DW_AT_TI_symbol_name("_xReturn")
    6577                      .dwattr $C$DW$573, DW_AT_type(*$C$DW$T$49)
    6578                      .dwattr $C$DW$573, DW_AT_location[DW_OP_bregx 0x24 6]
    6579              $C$DW$574       .dwtag  DW_TAG_variable, DW_AT_name("pxQueue")
    6580                      .dwattr $C$DW$574, DW_AT_TI_symbol_name("_pxQueue")
    6581                      .dwattr $C$DW$574, DW_AT_type(*$C$DW$T$69)
    6582                      .dwattr $C$DW$574, DW_AT_location[DW_OP_bregx 0x24 8]
    6583 0011a6 EB08          MOV AC0, dbl(*SP(#4)) ; |2370| 
         0011a8 08   
    6584 0011a9 EB04          MOV XAR1, dbl(*SP(#2))
         0011ab 95   
    6585 0011ac EB00          MOV XAR0, dbl(*SP(#0))
         0011ae 85   
    6586                      .dwpsn  file "../FreeRTOS/Source/queue.c",line 2372,column 18,is_stmt
    6587 0011af ED00          MOV dbl(*SP(#0)), XAR3
         0011b1 BF   
    6588 0011b2 EB10          MOV XAR3, dbl(*SP(#8))
         0011b4 B5   
    6589                      .dwpsn  file "../FreeRTOS/Source/queue.c",line 2377,column 3,is_stmt
    6590 0011b5 20     nop
    6591 0011b6 46B3   bset INTM
    6592                      .dwpsn  file "../FreeRTOS/Source/queue.c",line 2379,column 4,is_stmt
    6593              $C$DW$575       .dwtag  DW_TAG_TI_branch
    6594                      .dwattr $C$DW$575, DW_AT_low_pc(0x00)
    6595                      .dwattr $C$DW$575, DW_AT_name("_prvIsQueueFull")
    6596                      .dwattr $C$DW$575, DW_AT_TI_call
    6597 0011b8 08FF          CALL #_prvIsQueueFull ; |2379| 
TMS320C55x Assembler PC v4.4.1 Sat Sep 15 01:52:39 2018

Tools Copyright (c) 1996-2012 Texas Instruments Incorporated
queue.asm                                                            PAGE  139

         0011ba 6D   
    6598                                                      ; call occurs [#_prvIsQueueFull] ; |2379| 
    6599 0011bb 0404          BCC $C$L245,T0 == #0 ; |2379| 
         0011bd 23   
    6600                                                      ; branchcc occurs ; |2379| 
    6601                      .dwpsn  file "../FreeRTOS/Source/queue.c",line 2383,column 5,is_stmt
    6602 0011be ED08          MOV dbl(*SP(#4)), AC0 ; |2383| 
         0011c0 08   
    6603 0011c1 0400          BCC $C$L244,AC0 == #0 ; |2383| 
         0011c3 15   
    6604                                                      ; branchcc occurs ; |2383| 
    6605                      .dwpsn  file "../FreeRTOS/Source/queue.c",line 2387,column 6,is_stmt
    6606 0011c4 ED10          MOV dbl(*SP(#8)), XAR0
         0011c6 8F   
    6607              
    6608                      AADD #8, AR0 ; |2387| 
    6609 0011c7 8E08  ||      MOV dbl(*SP(#4)), AC0 ; |2387| 
         0011c9 8D1C 
         0011cb 0808 
    6610              
    6611              $C$DW$576       .dwtag  DW_TAG_TI_branch
    6612                      .dwattr $C$DW$576, DW_AT_low_pc(0x00)
    6613                      .dwattr $C$DW$576, DW_AT_name("_vCoRoutineAddToDelayedList")
    6614                      .dwattr $C$DW$576, DW_AT_TI_call
    6615 0011cd 6C00          CALL #_vCoRoutineAddToDelayedList ; |2387| 
         0011cf 0000!
    6616                                                      ; call occurs [#_vCoRoutineAddToDelayedList] ; |2387| 
    6617                      .dwpsn  file "../FreeRTOS/Source/queue.c",line 2388,column 6,is_stmt
    6618 0011d1 20     nop
    6619 0011d2 46B2   bclr INTM
    6620                      .dwpsn  file "../FreeRTOS/Source/queue.c",line 2389,column 6,is_stmt
    6621 0011d4 3E44          MOV #-4, T0
    6622 0011d6 0600          B $C$L250 ; |2389| 
         0011d8 58   
    6623                                                      ; branch occurs ; |2389| 
    6624 0011d9       $C$L244:    
    6625                      .dwpsn  file "../FreeRTOS/Source/queue.c",line 2393,column 6,is_stmt
    6626 0011d9 20     nop
    6627 0011da 46B2   bclr INTM
    6628                      .dwpsn  file "../FreeRTOS/Source/queue.c",line 2394,column 6,is_stmt
    6629 0011dc 3C04          MOV #0, T0
    6630 0011de 0600          B $C$L250 ; |2394| 
         0011e0 50   
    6631                                                      ; branch occurs ; |2394| 
    6632 0011e1       $C$L245:    
    6633                      .dwpsn  file "../FreeRTOS/Source/queue.c",line 2398,column 3,is_stmt
    6634 0011e1 20     nop
    6635 0011e2 46B2   bclr INTM
    6636                      .dwpsn  file "../FreeRTOS/Source/queue.c",line 2400,column 3,is_stmt
    6637 0011e4 20     nop
    6638 0011e5 46B3   bset INTM
    6639                      .dwpsn  file "../FreeRTOS/Source/queue.c",line 2402,column 4,is_stmt
    6640 0011e7 ED10          MOV dbl(*SP(#8)), XAR3
         0011e9 BF   
    6641 0011ea A96D          MOV *AR3(#29), AR1 ; |2402| 
TMS320C55x Assembler PC v4.4.1 Sat Sep 15 01:52:39 2018

Tools Copyright (c) 1996-2012 Texas Instruments Incorporated
queue.asm                                                            PAGE  140

         0011ec 001D 
    6642 0011ee AA6D          MOV *AR3(#28), AR2 ; |2402| 
         0011f0 001C 
    6643 0011f2 12A8          CMPU AR2 >= AR1, TC1 ; |2402| 
         0011f4 94   
    6644 0011f5 0464          BCC $C$L248,TC1 ; |2402| 
         0011f7 31   
    6645                                                      ; branchcc occurs ; |2402| 
    6646                      .dwpsn  file "../FreeRTOS/Source/queue.c",line 2405,column 5,is_stmt
    6647 0011f8 ED10          MOV dbl(*SP(#8)), XAR0
         0011fa 8F   
    6648 0011fb ED04          MOV dbl(*SP(#2)), XAR1
         0011fd 9F   
    6649              $C$DW$577       .dwtag  DW_TAG_TI_branch
    6650                      .dwattr $C$DW$577, DW_AT_low_pc(0x00)
    6651                      .dwattr $C$DW$577, DW_AT_name("_prvCopyDataToQueue")
    6652                      .dwattr $C$DW$577, DW_AT_TI_call
    6653              
    6654 0011fe 08FC          CALL #_prvCopyDataToQueue ; |2405| 
         001200 89   
    6655 001201 3D04  ||      MOV #0, T0
    6656              
    6657                                                      ; call occurs [#_prvCopyDataToQueue] ; |2405| 
    6658                      .dwpsn  file "../FreeRTOS/Source/queue.c",line 2406,column 5,is_stmt
    6659 001203 E60C          MOV #1, *SP(#6) ; |2406| 
         001205 01   
    6660                      .dwpsn  file "../FreeRTOS/Source/queue.c",line 2409,column 5,is_stmt
    6661 001206 ED10          MOV dbl(*SP(#8)), XAR3
         001208 BF   
    6662 001209 A96D          MOV *AR3(#18), AR1 ; |2409| 
         00120b 0012 
    6663 00120d 6219          BCC $C$L246,AR1 != #0 ; |2409| 
    6664                                                      ; branchcc occurs ; |2409| 
    6665 00120f 3C19          MOV #1, AR1
    6666 001211 4A02          B $C$L247 ; |2409| 
    6667                                                      ; branch occurs ; |2409| 
    6668 001213       $C$L246:    
    6669 001213 3C09          MOV #0, AR1
    6670 001215       $C$L247:    
    6671 001215 0419          BCC $C$L249,AR1 != #0 ; |2409| 
         001217 14   
    6672                                                      ; branchcc occurs ; |2409| 
    6673                      .dwpsn  file "../FreeRTOS/Source/queue.c",line 2415,column 6,is_stmt
    6674 001218 ED10          MOV dbl(*SP(#8)), XAR0
         00121a 8F   
    6675 00121b 1412          AADD #18, AR0 ; |2415| 
         00121d 84   
    6676              $C$DW$578       .dwtag  DW_TAG_TI_branch
    6677                      .dwattr $C$DW$578, DW_AT_low_pc(0x00)
    6678                      .dwattr $C$DW$578, DW_AT_name("_xCoRoutineRemoveFromEventList")
    6679                      .dwattr $C$DW$578, DW_AT_TI_call
    6680 00121e 6C00          CALL #_xCoRoutineRemoveFromEventList ; |2415| 
         001220 0000!
    6681                                                      ; call occurs [#_xCoRoutineRemoveFromEventList] ; |2415| 
    6682 001222 6404          BCC $C$L249,T0 == #0 ; |2415| 
TMS320C55x Assembler PC v4.4.1 Sat Sep 15 01:52:39 2018

Tools Copyright (c) 1996-2012 Texas Instruments Incorporated
queue.asm                                                            PAGE  141

    6683                                                      ; branchcc occurs ; |2415| 
    6684                      .dwpsn  file "../FreeRTOS/Source/queue.c",line 2419,column 7,is_stmt
    6685 001224 E60C          MOV #-5, *SP(#6) ; |2419| 
         001226 FB   
    6686                      .dwpsn  file "../FreeRTOS/Source/queue.c",line 2420,column 6,is_stmt
    6687 001227 4A03          B $C$L249 ; |2420| 
    6688                                                      ; branch occurs ; |2420| 
    6689 001229       $C$L248:    
    6690                      .dwpsn  file "../FreeRTOS/Source/queue.c",line 2433,column 5,is_stmt
    6691 001229 E60C          MOV #0, *SP(#6) ; |2433| 
         00122b 00   
    6692 00122c       $C$L249:    
    6693                      .dwpsn  file "../FreeRTOS/Source/queue.c",line 2436,column 3,is_stmt
    6694 00122c 20     nop
    6695 00122d 46B2   bclr INTM
    6696                      .dwpsn  file "../FreeRTOS/Source/queue.c",line 2438,column 3,is_stmt
    6697 00122f A40C          MOV *SP(#6), T0 ; |2438| 
    6698 001231       $C$L250:    
    6699                      .dwpsn  file "../FreeRTOS/Source/queue.c",line 2439,column 2,is_stmt
    6700 001231 4E0B          AADD #11, SP
    6701                      .dwcfi  cfa_offset, 1
    6702              $C$DW$579       .dwtag  DW_TAG_TI_branch
    6703                      .dwattr $C$DW$579, DW_AT_low_pc(0x00)
    6704                      .dwattr $C$DW$579, DW_AT_TI_return
    6705 001233 4804          RET
    6706                                                      ; return occurs
    6707                      .dwattr $C$DW$566, DW_AT_TI_end_file("../FreeRTOS/Source/queue.c")
    6708                      .dwattr $C$DW$566, DW_AT_TI_end_line(0x987)
    6709                      .dwattr $C$DW$566, DW_AT_TI_end_column(0x02)
    6710                      .dwendentry
    6711                      .dwendtag $C$DW$566
    6712              
    6713 001235               .sect   ".text"
    6714                      .align 4
    6715                      .global _xQueueCRReceive
    6716              
    6717              $C$DW$580       .dwtag  DW_TAG_subprogram, DW_AT_name("xQueueCRReceive")
    6718                      .dwattr $C$DW$580, DW_AT_low_pc(_xQueueCRReceive)
    6719                      .dwattr $C$DW$580, DW_AT_high_pc(0x00)
    6720                      .dwattr $C$DW$580, DW_AT_TI_symbol_name("_xQueueCRReceive")
    6721                      .dwattr $C$DW$580, DW_AT_external
    6722                      .dwattr $C$DW$580, DW_AT_type(*$C$DW$T$49)
    6723                      .dwattr $C$DW$580, DW_AT_TI_begin_file("../FreeRTOS/Source/queue.c")
    6724                      .dwattr $C$DW$580, DW_AT_TI_begin_line(0x98e)
    6725                      .dwattr $C$DW$580, DW_AT_TI_begin_column(0x0d)
    6726                      .dwattr $C$DW$580, DW_AT_TI_max_frame_size(0x0c)
    6727                      .dwpsn  file "../FreeRTOS/Source/queue.c",line 2447,column 2,is_stmt,address _xQueueCRReceive
    6728              
    6729                      .dwfde $C$DW$CIE, _xQueueCRReceive
    6730              $C$DW$581       .dwtag  DW_TAG_formal_parameter, DW_AT_name("xQueue")
    6731                      .dwattr $C$DW$581, DW_AT_TI_symbol_name("_xQueue")
    6732                      .dwattr $C$DW$581, DW_AT_type(*$C$DW$T$27)
    6733                      .dwattr $C$DW$581, DW_AT_location[DW_OP_reg17]
    6734              $C$DW$582       .dwtag  DW_TAG_formal_parameter, DW_AT_name("pvBuffer")
    6735                      .dwattr $C$DW$582, DW_AT_TI_symbol_name("_pvBuffer")
TMS320C55x Assembler PC v4.4.1 Sat Sep 15 01:52:39 2018

Tools Copyright (c) 1996-2012 Texas Instruments Incorporated
queue.asm                                                            PAGE  142

    6736                      .dwattr $C$DW$582, DW_AT_type(*$C$DW$T$3)
    6737                      .dwattr $C$DW$582, DW_AT_location[DW_OP_reg19]
    6738              $C$DW$583       .dwtag  DW_TAG_formal_parameter, DW_AT_name("xTicksToWait")
    6739                      .dwattr $C$DW$583, DW_AT_TI_symbol_name("_xTicksToWait")
    6740                      .dwattr $C$DW$583, DW_AT_type(*$C$DW$T$44)
    6741                      .dwattr $C$DW$583, DW_AT_location[DW_OP_reg0]
    6742              ;*******************************************************************************
    6743              ;* FUNCTION NAME: xQueueCRReceive                                              *
    6744              ;*                                                                             *
    6745              ;*   Function Uses Regs : AC0,AC0,AC1,AC1,T0,AR0,XAR0,AR1,XAR1,AR2,XAR2,AR3,   *
    6746              ;*                        XAR3,SP,CARRY,TC1,M40,SATA,SATD,RDM,FRCT,SMUL        *
    6747              ;*   Stack Frame        : Compact (No Frame Pointer, w/ debug)                 *
    6748              ;*   Total Frame Size   : 12 words                                             *
    6749              ;*                        (2 return address/alignment)                         *
    6750              ;*                        (10 local values)                                    *
    6751              ;*   Min System Stack   : 1 word                                               *
    6752              ;*******************************************************************************
    6753 001238       _xQueueCRReceive:
    6754                      .dwcfi  cfa_offset, 1
    6755                      .dwcfi  save_reg_to_mem, 91, -1
    6756 001238 4EF5          AADD #-11, SP
    6757                      .dwcfi  cfa_offset, 12
    6758              $C$DW$584       .dwtag  DW_TAG_variable, DW_AT_name("xQueue")
    6759                      .dwattr $C$DW$584, DW_AT_TI_symbol_name("_xQueue")
    6760                      .dwattr $C$DW$584, DW_AT_type(*$C$DW$T$27)
    6761                      .dwattr $C$DW$584, DW_AT_location[DW_OP_bregx 0x24 0]
    6762              $C$DW$585       .dwtag  DW_TAG_variable, DW_AT_name("pvBuffer")
    6763                      .dwattr $C$DW$585, DW_AT_TI_symbol_name("_pvBuffer")
    6764                      .dwattr $C$DW$585, DW_AT_type(*$C$DW$T$3)
    6765                      .dwattr $C$DW$585, DW_AT_location[DW_OP_bregx 0x24 2]
    6766              $C$DW$586       .dwtag  DW_TAG_variable, DW_AT_name("xTicksToWait")
    6767                      .dwattr $C$DW$586, DW_AT_TI_symbol_name("_xTicksToWait")
    6768                      .dwattr $C$DW$586, DW_AT_type(*$C$DW$T$44)
    6769                      .dwattr $C$DW$586, DW_AT_location[DW_OP_bregx 0x24 4]
    6770              $C$DW$587       .dwtag  DW_TAG_variable, DW_AT_name("xReturn")
    6771                      .dwattr $C$DW$587, DW_AT_TI_symbol_name("_xReturn")
    6772                      .dwattr $C$DW$587, DW_AT_type(*$C$DW$T$49)
    6773                      .dwattr $C$DW$587, DW_AT_location[DW_OP_bregx 0x24 6]
    6774              $C$DW$588       .dwtag  DW_TAG_variable, DW_AT_name("pxQueue")
    6775                      .dwattr $C$DW$588, DW_AT_TI_symbol_name("_pxQueue")
    6776                      .dwattr $C$DW$588, DW_AT_type(*$C$DW$T$69)
    6777                      .dwattr $C$DW$588, DW_AT_location[DW_OP_bregx 0x24 8]
    6778 00123a EB08          MOV AC0, dbl(*SP(#4)) ; |2447| 
         00123c 08   
    6779 00123d EB04          MOV XAR1, dbl(*SP(#2))
         00123f 95   
    6780 001240 EB00          MOV XAR0, dbl(*SP(#0))
         001242 85   
    6781                      .dwpsn  file "../FreeRTOS/Source/queue.c",line 2449,column 18,is_stmt
    6782 001243 ED00          MOV dbl(*SP(#0)), XAR3
         001245 BF   
    6783 001246 EB10          MOV XAR3, dbl(*SP(#8))
         001248 B5   
    6784                      .dwpsn  file "../FreeRTOS/Source/queue.c",line 2454,column 3,is_stmt
    6785 001249 20     nop
TMS320C55x Assembler PC v4.4.1 Sat Sep 15 01:52:39 2018

Tools Copyright (c) 1996-2012 Texas Instruments Incorporated
queue.asm                                                            PAGE  143

    6786 00124a 46B3   bset INTM
    6787                      .dwpsn  file "../FreeRTOS/Source/queue.c",line 2456,column 4,is_stmt
    6788 00124c A96D          MOV *AR3(#28), AR1 ; |2456| 
         00124e 001C 
    6789 001250 0419          BCC $C$L252,AR1 != #0 ; |2456| 
         001252 20   
    6790                                                      ; branchcc occurs ; |2456| 
    6791                      .dwpsn  file "../FreeRTOS/Source/queue.c",line 2460,column 5,is_stmt
    6792 001253 ED08          MOV dbl(*SP(#4)), AC0 ; |2460| 
         001255 08   
    6793 001256 0400          BCC $C$L251,AC0 == #0 ; |2460| 
         001258 12   
    6794                                                      ; branchcc occurs ; |2460| 
    6795                      .dwpsn  file "../FreeRTOS/Source/queue.c",line 2464,column 6,is_stmt
    6796              
    6797                      AADD #18, AR0 ; |2464| 
    6798 001259 8E08  ||      MOV dbl(*SP(#4)), AC0 ; |2464| 
         00125b 8D1C 
         00125d 0812 
    6799              
    6800              $C$DW$589       .dwtag  DW_TAG_TI_branch
    6801                      .dwattr $C$DW$589, DW_AT_low_pc(0x00)
    6802                      .dwattr $C$DW$589, DW_AT_name("_vCoRoutineAddToDelayedList")
    6803                      .dwattr $C$DW$589, DW_AT_TI_call
    6804 00125f 6C00          CALL #_vCoRoutineAddToDelayedList ; |2464| 
         001261 0000!
    6805                                                      ; call occurs [#_vCoRoutineAddToDelayedList] ; |2464| 
    6806                      .dwpsn  file "../FreeRTOS/Source/queue.c",line 2465,column 6,is_stmt
    6807 001263 20     nop
    6808 001264 46B2   bclr INTM
    6809                      .dwpsn  file "../FreeRTOS/Source/queue.c",line 2466,column 6,is_stmt
    6810 001266 3E44          MOV #-4, T0
    6811 001268 0600          B $C$L258 ; |2466| 
         00126a 8B   
    6812                                                      ; branch occurs ; |2466| 
    6813 00126b       $C$L251:    
    6814                      .dwpsn  file "../FreeRTOS/Source/queue.c",line 2470,column 6,is_stmt
    6815 00126b 20     nop
    6816 00126c 46B2   bclr INTM
    6817                      .dwpsn  file "../FreeRTOS/Source/queue.c",line 2471,column 6,is_stmt
    6818 00126e 3C04          MOV #0, T0
    6819 001270 0600          B $C$L258 ; |2471| 
         001272 83   
    6820                                                      ; branch occurs ; |2471| 
    6821 001273       $C$L252:    
    6822                      .dwpsn  file "../FreeRTOS/Source/queue.c",line 2479,column 3,is_stmt
    6823 001273 20     nop
    6824 001274 46B2   bclr INTM
    6825                      .dwpsn  file "../FreeRTOS/Source/queue.c",line 2481,column 3,is_stmt
    6826 001276 20     nop
    6827 001277 46B3   bset INTM
    6828                      .dwpsn  file "../FreeRTOS/Source/queue.c",line 2483,column 4,is_stmt
    6829 001279 A96D          MOV *AR3(#28), AR1 ; |2483| 
         00127b 001C 
    6830 00127d 0409          BCC $C$L256,AR1 == #0 ; |2483| 
TMS320C55x Assembler PC v4.4.1 Sat Sep 15 01:52:39 2018

Tools Copyright (c) 1996-2012 Texas Instruments Incorporated
queue.asm                                                            PAGE  144

         00127f 6E   
    6831                                                      ; branchcc occurs ; |2483| 
    6832                      .dwpsn  file "../FreeRTOS/Source/queue.c",line 2486,column 5,is_stmt
    6833 001280 ED10          MOV dbl(*SP(#8)), XAR2
         001282 AF   
    6834 001283 A96D          MOV *AR3(#30), AR1 ; |2486| 
         001285 001E 
    6835 001287 ED5D          MOV dbl(*AR2(short(#6))), XAR3
         001289 BF   
    6836              
    6837 00128a 8E5D          MOV XAR3, dbl(*AR2(short(#6)))
         00128c BB10 
         00128e B590 
    6838              ||      AADD AR1, AR3 ; |2486| 
    6839              
    6840                      .dwpsn  file "../FreeRTOS/Source/queue.c",line 2487,column 5,is_stmt
    6841 001290 ED10          MOV dbl(*SP(#8)), XAR3
         001292 BF   
    6842 001293 ED79          MOV dbl(*AR3(short(#4))), XAR3
         001295 BF   
    6843 001296 90B0          MOV XAR3, AC0
    6844 001298 ED10          MOV dbl(*SP(#8)), XAR3
         00129a BF   
    6845 00129b ED7D          MOV dbl(*AR3(short(#6))), XAR3
         00129d BF   
    6846 00129e 90B1          MOV XAR3, AC1
    6847 0012a0 1214          CMPU AC1 < AC0, TC1 ; |2487| 
         0012a2 04   
    6848 0012a3 64E4          BCC $C$L253,TC1 ; |2487| 
    6849                                                      ; branchcc occurs ; |2487| 
    6850                      .dwpsn  file "../FreeRTOS/Source/queue.c",line 2489,column 6,is_stmt
    6851 0012a5 ED10          MOV dbl(*SP(#8)), XAR3
         0012a7 BF   
    6852 0012a8 ED61          MOV dbl(*AR3), XAR2
         0012aa AF   
    6853 0012ab EB7D          MOV XAR2, dbl(*AR3(short(#6)))
         0012ad A5   
    6854                      .dwpsn  file "../FreeRTOS/Source/queue.c",line 2490,column 5,is_stmt
    6855 0012ae       $C$L253:    
    6856                      .dwpsn  file "../FreeRTOS/Source/queue.c",line 2495,column 5,is_stmt
    6857 0012ae ED10          MOV dbl(*SP(#8)), XAR3
         0012b0 BF   
    6858 0012b1 F76D          SUB #1, *AR3(#28) ; |2495| 
         0012b3 FFFF 
         0012b5 001C 
    6859                      .dwpsn  file "../FreeRTOS/Source/queue.c",line 2496,column 5,is_stmt
    6860 0012b7 ED10          MOV dbl(*SP(#8)), XAR3
         0012b9 BF   
    6861 0012ba ED04          MOV dbl(*SP(#2)), XAR0
         0012bc 8F   
    6862 0012bd ED7D          MOV dbl(*AR3(short(#6))), XAR1
         0012bf 9F   
    6863 0012c0 A46D          MOV *AR3(#30), T0 ; |2496| 
         0012c2 001E 
    6864              $C$DW$590       .dwtag  DW_TAG_TI_branch
TMS320C55x Assembler PC v4.4.1 Sat Sep 15 01:52:39 2018

Tools Copyright (c) 1996-2012 Texas Instruments Incorporated
queue.asm                                                            PAGE  145

    6865                      .dwattr $C$DW$590, DW_AT_low_pc(0x00)
    6866                      .dwattr $C$DW$590, DW_AT_name("_memcpy")
    6867                      .dwattr $C$DW$590, DW_AT_TI_call
    6868 0012c4 6C00          CALL #_memcpy ; |2496| 
         0012c6 0000!
    6869                                                      ; call occurs [#_memcpy] ; |2496| 
    6870                      .dwpsn  file "../FreeRTOS/Source/queue.c",line 2498,column 5,is_stmt
    6871 0012c8 E60C          MOV #1, *SP(#6) ; |2498| 
         0012ca 01   
    6872                      .dwpsn  file "../FreeRTOS/Source/queue.c",line 2501,column 5,is_stmt
    6873 0012cb ED10          MOV dbl(*SP(#8)), XAR3
         0012cd BF   
    6874 0012ce A96D          MOV *AR3(#8), AR1 ; |2501| 
         0012d0 0008 
    6875 0012d2 6219          BCC $C$L254,AR1 != #0 ; |2501| 
    6876                                                      ; branchcc occurs ; |2501| 
    6877 0012d4 3C19          MOV #1, AR1
    6878 0012d6 4A02          B $C$L255 ; |2501| 
    6879                                                      ; branch occurs ; |2501| 
    6880 0012d8       $C$L254:    
    6881 0012d8 3C09          MOV #0, AR1
    6882 0012da       $C$L255:    
    6883 0012da 0419          BCC $C$L257,AR1 != #0 ; |2501| 
         0012dc 14   
    6884                                                      ; branchcc occurs ; |2501| 
    6885                      .dwpsn  file "../FreeRTOS/Source/queue.c",line 2507,column 6,is_stmt
    6886 0012dd ED10          MOV dbl(*SP(#8)), XAR0
         0012df 8F   
    6887 0012e0 1408          AADD #8, AR0 ; |2507| 
         0012e2 84   
    6888              $C$DW$591       .dwtag  DW_TAG_TI_branch
    6889                      .dwattr $C$DW$591, DW_AT_low_pc(0x00)
    6890                      .dwattr $C$DW$591, DW_AT_name("_xCoRoutineRemoveFromEventList")
    6891                      .dwattr $C$DW$591, DW_AT_TI_call
    6892 0012e3 6C00          CALL #_xCoRoutineRemoveFromEventList ; |2507| 
         0012e5 0000!
    6893                                                      ; call occurs [#_xCoRoutineRemoveFromEventList] ; |2507| 
    6894 0012e7 6404          BCC $C$L257,T0 == #0 ; |2507| 
    6895                                                      ; branchcc occurs ; |2507| 
    6896                      .dwpsn  file "../FreeRTOS/Source/queue.c",line 2509,column 7,is_stmt
    6897 0012e9 E60C          MOV #-5, *SP(#6) ; |2509| 
         0012eb FB   
    6898                      .dwpsn  file "../FreeRTOS/Source/queue.c",line 2510,column 6,is_stmt
    6899 0012ec 4A03          B $C$L257 ; |2510| 
    6900                                                      ; branch occurs ; |2510| 
    6901 0012ee       $C$L256:    
    6902                      .dwpsn  file "../FreeRTOS/Source/queue.c",line 2523,column 5,is_stmt
    6903 0012ee E60C          MOV #0, *SP(#6) ; |2523| 
         0012f0 00   
    6904 0012f1       $C$L257:    
    6905                      .dwpsn  file "../FreeRTOS/Source/queue.c",line 2526,column 3,is_stmt
    6906 0012f1 20     nop
    6907 0012f2 46B2   bclr INTM
    6908                      .dwpsn  file "../FreeRTOS/Source/queue.c",line 2528,column 3,is_stmt
    6909 0012f4 A40C          MOV *SP(#6), T0 ; |2528| 
TMS320C55x Assembler PC v4.4.1 Sat Sep 15 01:52:39 2018

Tools Copyright (c) 1996-2012 Texas Instruments Incorporated
queue.asm                                                            PAGE  146

    6910 0012f6       $C$L258:    
    6911                      .dwpsn  file "../FreeRTOS/Source/queue.c",line 2529,column 2,is_stmt
    6912 0012f6 4E0B          AADD #11, SP
    6913                      .dwcfi  cfa_offset, 1
    6914              $C$DW$592       .dwtag  DW_TAG_TI_branch
    6915                      .dwattr $C$DW$592, DW_AT_low_pc(0x00)
    6916                      .dwattr $C$DW$592, DW_AT_TI_return
    6917 0012f8 4804          RET
    6918                                                      ; return occurs
    6919                      .dwattr $C$DW$580, DW_AT_TI_end_file("../FreeRTOS/Source/queue.c")
    6920                      .dwattr $C$DW$580, DW_AT_TI_end_line(0x9e1)
    6921                      .dwattr $C$DW$580, DW_AT_TI_end_column(0x02)
    6922                      .dwendentry
    6923                      .dwendtag $C$DW$580
    6924              
    6925 0012fa               .sect   ".text"
    6926                      .align 4
    6927                      .global _xQueueCRSendFromISR
    6928              
    6929              $C$DW$593       .dwtag  DW_TAG_subprogram, DW_AT_name("xQueueCRSendFromISR")
    6930                      .dwattr $C$DW$593, DW_AT_low_pc(_xQueueCRSendFromISR)
    6931                      .dwattr $C$DW$593, DW_AT_high_pc(0x00)
    6932                      .dwattr $C$DW$593, DW_AT_TI_symbol_name("_xQueueCRSendFromISR")
    6933                      .dwattr $C$DW$593, DW_AT_external
    6934                      .dwattr $C$DW$593, DW_AT_type(*$C$DW$T$49)
    6935                      .dwattr $C$DW$593, DW_AT_TI_begin_file("../FreeRTOS/Source/queue.c")
    6936                      .dwattr $C$DW$593, DW_AT_TI_begin_line(0x9e8)
    6937                      .dwattr $C$DW$593, DW_AT_TI_begin_column(0x0d)
    6938                      .dwattr $C$DW$593, DW_AT_TI_max_frame_size(0x0a)
    6939                      .dwpsn  file "../FreeRTOS/Source/queue.c",line 2537,column 2,is_stmt,address _xQueueCRSendFromISR
    6940              
    6941                      .dwfde $C$DW$CIE, _xQueueCRSendFromISR
    6942              $C$DW$594       .dwtag  DW_TAG_formal_parameter, DW_AT_name("xQueue")
    6943                      .dwattr $C$DW$594, DW_AT_TI_symbol_name("_xQueue")
    6944                      .dwattr $C$DW$594, DW_AT_type(*$C$DW$T$27)
    6945                      .dwattr $C$DW$594, DW_AT_location[DW_OP_reg17]
    6946              $C$DW$595       .dwtag  DW_TAG_formal_parameter, DW_AT_name("pvItemToQueue")
    6947                      .dwattr $C$DW$595, DW_AT_TI_symbol_name("_pvItemToQueue")
    6948                      .dwattr $C$DW$595, DW_AT_type(*$C$DW$T$71)
    6949                      .dwattr $C$DW$595, DW_AT_location[DW_OP_reg19]
    6950              $C$DW$596       .dwtag  DW_TAG_formal_parameter, DW_AT_name("xCoRoutinePreviouslyWoken")
    6951                      .dwattr $C$DW$596, DW_AT_TI_symbol_name("_xCoRoutinePreviouslyWoken")
    6952                      .dwattr $C$DW$596, DW_AT_type(*$C$DW$T$49)
    6953                      .dwattr $C$DW$596, DW_AT_location[DW_OP_reg12]
    6954              ;*******************************************************************************
    6955              ;* FUNCTION NAME: xQueueCRSendFromISR                                          *
    6956              ;*                                                                             *
    6957              ;*   Function Uses Regs : T0,AR0,XAR0,AR1,XAR1,AR2,AR3,XAR3,SP,TC1,M40,SATA,   *
    6958              ;*                        SATD,RDM,FRCT,SMUL                                   *
    6959              ;*   Stack Frame        : Compact (No Frame Pointer, w/ debug)                 *
    6960              ;*   Total Frame Size   : 10 words                                             *
    6961              ;*                        (2 return address/alignment)                         *
    6962              ;*                        (8 local values)                                     *
    6963              ;*   Min System Stack   : 1 word                                               *
    6964              ;*******************************************************************************
TMS320C55x Assembler PC v4.4.1 Sat Sep 15 01:52:39 2018

Tools Copyright (c) 1996-2012 Texas Instruments Incorporated
queue.asm                                                            PAGE  147

    6965 0012fc       _xQueueCRSendFromISR:
    6966                      .dwcfi  cfa_offset, 1
    6967                      .dwcfi  save_reg_to_mem, 91, -1
    6968 0012fc 4EF7          AADD #-9, SP
    6969                      .dwcfi  cfa_offset, 10
    6970              $C$DW$597       .dwtag  DW_TAG_variable, DW_AT_name("xQueue")
    6971                      .dwattr $C$DW$597, DW_AT_TI_symbol_name("_xQueue")
    6972                      .dwattr $C$DW$597, DW_AT_type(*$C$DW$T$27)
    6973                      .dwattr $C$DW$597, DW_AT_location[DW_OP_bregx 0x24 0]
    6974              $C$DW$598       .dwtag  DW_TAG_variable, DW_AT_name("pvItemToQueue")
    6975                      .dwattr $C$DW$598, DW_AT_TI_symbol_name("_pvItemToQueue")
    6976                      .dwattr $C$DW$598, DW_AT_type(*$C$DW$T$71)
    6977                      .dwattr $C$DW$598, DW_AT_location[DW_OP_bregx 0x24 2]
    6978              $C$DW$599       .dwtag  DW_TAG_variable, DW_AT_name("xCoRoutinePreviouslyWoken")
    6979                      .dwattr $C$DW$599, DW_AT_TI_symbol_name("_xCoRoutinePreviouslyWoken")
    6980                      .dwattr $C$DW$599, DW_AT_type(*$C$DW$T$49)
    6981                      .dwattr $C$DW$599, DW_AT_location[DW_OP_bregx 0x24 4]
    6982              $C$DW$600       .dwtag  DW_TAG_variable, DW_AT_name("pxQueue")
    6983                      .dwattr $C$DW$600, DW_AT_TI_symbol_name("_pxQueue")
    6984                      .dwattr $C$DW$600, DW_AT_type(*$C$DW$T$69)
    6985                      .dwattr $C$DW$600, DW_AT_location[DW_OP_bregx 0x24 6]
    6986 0012fe C408          MOV T0, *SP(#4) ; |2537| 
    6987 001300 EB04          MOV XAR1, dbl(*SP(#2))
         001302 95   
    6988 001303 EB00          MOV XAR0, dbl(*SP(#0))
         001305 85   
    6989                      .dwpsn  file "../FreeRTOS/Source/queue.c",line 2538,column 18,is_stmt
    6990 001306 ED00          MOV dbl(*SP(#0)), XAR3
         001308 BF   
    6991 001309 EB0C          MOV XAR3, dbl(*SP(#6))
         00130b B5   
    6992                      .dwpsn  file "../FreeRTOS/Source/queue.c",line 2542,column 3,is_stmt
    6993 00130c AA6D          MOV *AR3(#28), AR2 ; |2542| 
         00130e 001C 
    6994 001310 A96D          MOV *AR3(#29), AR1 ; |2542| 
         001312 001D 
    6995 001314 12A8          CMPU AR2 >= AR1, TC1 ; |2542| 
         001316 94   
    6996 001317 0464          BCC $C$L261,TC1 ; |2542| 
         001319 2F   
    6997                                                      ; branchcc occurs ; |2542| 
    6998                      .dwpsn  file "../FreeRTOS/Source/queue.c",line 2544,column 4,is_stmt
    6999 00131a ED04          MOV dbl(*SP(#2)), XAR1
         00131c 9F   
    7000              $C$DW$601       .dwtag  DW_TAG_TI_branch
    7001                      .dwattr $C$DW$601, DW_AT_low_pc(0x00)
    7002                      .dwattr $C$DW$601, DW_AT_name("_prvCopyDataToQueue")
    7003                      .dwattr $C$DW$601, DW_AT_TI_call
    7004              
    7005 00131d 08FB          CALL #_prvCopyDataToQueue ; |2544| 
         00131f 6A   
    7006 001320 3D04  ||      MOV #0, T0
    7007              
    7008                                                      ; call occurs [#_prvCopyDataToQueue] ; |2544| 
    7009                      .dwpsn  file "../FreeRTOS/Source/queue.c",line 2548,column 4,is_stmt
TMS320C55x Assembler PC v4.4.1 Sat Sep 15 01:52:39 2018

Tools Copyright (c) 1996-2012 Texas Instruments Incorporated
queue.asm                                                            PAGE  148

    7010 001322 A908          MOV *SP(#4), AR1 ; |2548| 
    7011 001324 0419          BCC $C$L261,AR1 != #0 ; |2548| 
         001326 22   
    7012                                                      ; branchcc occurs ; |2548| 
    7013                      .dwpsn  file "../FreeRTOS/Source/queue.c",line 2550,column 5,is_stmt
    7014 001327 ED0C          MOV dbl(*SP(#6)), XAR3
         001329 BF   
    7015 00132a A96D          MOV *AR3(#18), AR1 ; |2550| 
         00132c 0012 
    7016 00132e 6219          BCC $C$L259,AR1 != #0 ; |2550| 
    7017                                                      ; branchcc occurs ; |2550| 
    7018 001330 3C19          MOV #1, AR1
    7019 001332 4A02          B $C$L260 ; |2550| 
    7020                                                      ; branch occurs ; |2550| 
    7021 001334       $C$L259:    
    7022 001334 3C09          MOV #0, AR1
    7023 001336       $C$L260:    
    7024 001336 0419          BCC $C$L261,AR1 != #0 ; |2550| 
         001338 10   
    7025                                                      ; branchcc occurs ; |2550| 
    7026                      .dwpsn  file "../FreeRTOS/Source/queue.c",line 2552,column 6,is_stmt
    7027 001339 ED0C          MOV dbl(*SP(#6)), XAR0
         00133b 8F   
    7028 00133c 1412          AADD #18, AR0 ; |2552| 
         00133e 84   
    7029              $C$DW$602       .dwtag  DW_TAG_TI_branch
    7030                      .dwattr $C$DW$602, DW_AT_low_pc(0x00)
    7031                      .dwattr $C$DW$602, DW_AT_name("_xCoRoutineRemoveFromEventList")
    7032                      .dwattr $C$DW$602, DW_AT_TI_call
    7033 00133f 6C00          CALL #_xCoRoutineRemoveFromEventList ; |2552| 
         001341 0000!
    7034                                                      ; call occurs [#_xCoRoutineRemoveFromEventList] ; |2552| 
    7035 001343 6204          BCC $C$L261,T0 == #0 ; |2552| 
    7036                                                      ; branchcc occurs ; |2552| 
    7037                      .dwpsn  file "../FreeRTOS/Source/queue.c",line 2554,column 7,is_stmt
    7038 001345 3C14          MOV #1, T0
    7039 001347 4A02          B $C$L262 ; |2554| 
    7040                                                      ; branch occurs ; |2554| 
    7041 001349       $C$L261:    
    7042                      .dwpsn  file "../FreeRTOS/Source/queue.c",line 2576,column 3,is_stmt
    7043 001349 A408          MOV *SP(#4), T0 ; |2576| 
    7044 00134b       $C$L262:    
    7045                      .dwpsn  file "../FreeRTOS/Source/queue.c",line 2577,column 2,is_stmt
    7046 00134b 4E09          AADD #9, SP
    7047                      .dwcfi  cfa_offset, 1
    7048              $C$DW$603       .dwtag  DW_TAG_TI_branch
    7049                      .dwattr $C$DW$603, DW_AT_low_pc(0x00)
    7050                      .dwattr $C$DW$603, DW_AT_TI_return
    7051 00134d 4804          RET
    7052                                                      ; return occurs
    7053                      .dwattr $C$DW$593, DW_AT_TI_end_file("../FreeRTOS/Source/queue.c")
    7054                      .dwattr $C$DW$593, DW_AT_TI_end_line(0xa11)
    7055                      .dwattr $C$DW$593, DW_AT_TI_end_column(0x02)
    7056                      .dwendentry
    7057                      .dwendtag $C$DW$593
TMS320C55x Assembler PC v4.4.1 Sat Sep 15 01:52:39 2018

Tools Copyright (c) 1996-2012 Texas Instruments Incorporated
queue.asm                                                            PAGE  149

    7058              
    7059 00134f               .sect   ".text"
    7060                      .align 4
    7061                      .global _xQueueCRReceiveFromISR
    7062              
    7063              $C$DW$604       .dwtag  DW_TAG_subprogram, DW_AT_name("xQueueCRReceiveFromISR")
    7064                      .dwattr $C$DW$604, DW_AT_low_pc(_xQueueCRReceiveFromISR)
    7065                      .dwattr $C$DW$604, DW_AT_high_pc(0x00)
    7066                      .dwattr $C$DW$604, DW_AT_TI_symbol_name("_xQueueCRReceiveFromISR")
    7067                      .dwattr $C$DW$604, DW_AT_external
    7068                      .dwattr $C$DW$604, DW_AT_type(*$C$DW$T$49)
    7069                      .dwattr $C$DW$604, DW_AT_TI_begin_file("../FreeRTOS/Source/queue.c")
    7070                      .dwattr $C$DW$604, DW_AT_TI_begin_line(0xa18)
    7071                      .dwattr $C$DW$604, DW_AT_TI_begin_column(0x0d)
    7072                      .dwattr $C$DW$604, DW_AT_TI_max_frame_size(0x0c)
    7073                      .dwpsn  file "../FreeRTOS/Source/queue.c",line 2585,column 2,is_stmt,address _xQueueCRReceiveFromISR
    7074              
    7075                      .dwfde $C$DW$CIE, _xQueueCRReceiveFromISR
    7076              $C$DW$605       .dwtag  DW_TAG_formal_parameter, DW_AT_name("xQueue")
    7077                      .dwattr $C$DW$605, DW_AT_TI_symbol_name("_xQueue")
    7078                      .dwattr $C$DW$605, DW_AT_type(*$C$DW$T$27)
    7079                      .dwattr $C$DW$605, DW_AT_location[DW_OP_reg17]
    7080              $C$DW$606       .dwtag  DW_TAG_formal_parameter, DW_AT_name("pvBuffer")
    7081                      .dwattr $C$DW$606, DW_AT_TI_symbol_name("_pvBuffer")
    7082                      .dwattr $C$DW$606, DW_AT_type(*$C$DW$T$3)
    7083                      .dwattr $C$DW$606, DW_AT_location[DW_OP_reg19]
    7084              $C$DW$607       .dwtag  DW_TAG_formal_parameter, DW_AT_name("pxCoRoutineWoken")
    7085                      .dwattr $C$DW$607, DW_AT_TI_symbol_name("_pxCoRoutineWoken")
    7086                      .dwattr $C$DW$607, DW_AT_type(*$C$DW$T$135)
    7087                      .dwattr $C$DW$607, DW_AT_location[DW_OP_reg21]
    7088              ;*******************************************************************************
    7089              ;* FUNCTION NAME: xQueueCRReceiveFromISR                                       *
    7090              ;*                                                                             *
    7091              ;*   Function Uses Regs : AC0,AC0,AC1,AC1,T0,AR0,XAR0,AR1,XAR1,AR2,XAR2,AR3,   *
    7092              ;*                        XAR3,SP,CARRY,TC1,M40,SATA,SATD,RDM,FRCT,SMUL        *
    7093              ;*   Stack Frame        : Compact (No Frame Pointer, w/ debug)                 *
    7094              ;*   Total Frame Size   : 12 words                                             *
    7095              ;*                        (2 return address/alignment)                         *
    7096              ;*                        (10 local values)                                    *
    7097              ;*   Min System Stack   : 1 word                                               *
    7098              ;*******************************************************************************
    7099 001350       _xQueueCRReceiveFromISR:
    7100                      .dwcfi  cfa_offset, 1
    7101                      .dwcfi  save_reg_to_mem, 91, -1
    7102 001350 4EF5          AADD #-11, SP
    7103                      .dwcfi  cfa_offset, 12
    7104              $C$DW$608       .dwtag  DW_TAG_variable, DW_AT_name("xQueue")
    7105                      .dwattr $C$DW$608, DW_AT_TI_symbol_name("_xQueue")
    7106                      .dwattr $C$DW$608, DW_AT_type(*$C$DW$T$27)
    7107                      .dwattr $C$DW$608, DW_AT_location[DW_OP_bregx 0x24 0]
    7108              $C$DW$609       .dwtag  DW_TAG_variable, DW_AT_name("pvBuffer")
    7109                      .dwattr $C$DW$609, DW_AT_TI_symbol_name("_pvBuffer")
    7110                      .dwattr $C$DW$609, DW_AT_type(*$C$DW$T$3)
    7111                      .dwattr $C$DW$609, DW_AT_location[DW_OP_bregx 0x24 2]
    7112              $C$DW$610       .dwtag  DW_TAG_variable, DW_AT_name("pxCoRoutineWoken")
TMS320C55x Assembler PC v4.4.1 Sat Sep 15 01:52:39 2018

Tools Copyright (c) 1996-2012 Texas Instruments Incorporated
queue.asm                                                            PAGE  150

    7113                      .dwattr $C$DW$610, DW_AT_TI_symbol_name("_pxCoRoutineWoken")
    7114                      .dwattr $C$DW$610, DW_AT_type(*$C$DW$T$135)
    7115                      .dwattr $C$DW$610, DW_AT_location[DW_OP_bregx 0x24 4]
    7116              $C$DW$611       .dwtag  DW_TAG_variable, DW_AT_name("xReturn")
    7117                      .dwattr $C$DW$611, DW_AT_TI_symbol_name("_xReturn")
    7118                      .dwattr $C$DW$611, DW_AT_type(*$C$DW$T$49)
    7119                      .dwattr $C$DW$611, DW_AT_location[DW_OP_bregx 0x24 6]
    7120              $C$DW$612       .dwtag  DW_TAG_variable, DW_AT_name("pxQueue")
    7121                      .dwattr $C$DW$612, DW_AT_TI_symbol_name("_pxQueue")
    7122                      .dwattr $C$DW$612, DW_AT_type(*$C$DW$T$69)
    7123                      .dwattr $C$DW$612, DW_AT_location[DW_OP_bregx 0x24 8]
    7124 001352 EB08          MOV XAR2, dbl(*SP(#4))
         001354 A5   
    7125 001355 EB04          MOV XAR1, dbl(*SP(#2))
         001357 95   
    7126 001358 EB00          MOV XAR0, dbl(*SP(#0))
         00135a 85   
    7127                      .dwpsn  file "../FreeRTOS/Source/queue.c",line 2587,column 18,is_stmt
    7128 00135b ED00          MOV dbl(*SP(#0)), XAR3
         00135d BF   
    7129 00135e EB10          MOV XAR3, dbl(*SP(#8))
         001360 B5   
    7130                      .dwpsn  file "../FreeRTOS/Source/queue.c",line 2591,column 3,is_stmt
    7131 001361 A96D          MOV *AR3(#28), AR1 ; |2591| 
         001363 001C 
    7132 001365 0409          BCC $C$L267,AR1 == #0 ; |2591| 
         001367 7B   
    7133                                                      ; branchcc occurs ; |2591| 
    7134                      .dwpsn  file "../FreeRTOS/Source/queue.c",line 2594,column 4,is_stmt
    7135 001368 ED10          MOV dbl(*SP(#8)), XAR2
         00136a AF   
    7136 00136b A96D          MOV *AR3(#30), AR1 ; |2594| 
         00136d 001E 
    7137 00136f ED5D          MOV dbl(*AR2(short(#6))), XAR3
         001371 BF   
    7138              
    7139 001372 8E5D          MOV XAR3, dbl(*AR2(short(#6)))
         001374 BB10 
         001376 B590 
    7140              ||      AADD AR1, AR3 ; |2594| 
    7141              
    7142                      .dwpsn  file "../FreeRTOS/Source/queue.c",line 2595,column 4,is_stmt
    7143 001378 ED10          MOV dbl(*SP(#8)), XAR3
         00137a BF   
    7144 00137b ED79          MOV dbl(*AR3(short(#4))), XAR3
         00137d BF   
    7145 00137e 90B0          MOV XAR3, AC0
    7146 001380 ED10          MOV dbl(*SP(#8)), XAR3
         001382 BF   
    7147 001383 ED7D          MOV dbl(*AR3(short(#6))), XAR3
         001385 BF   
    7148 001386 90B1          MOV XAR3, AC1
    7149 001388 1214          CMPU AC1 < AC0, TC1 ; |2595| 
         00138a 04   
    7150 00138b 64E4          BCC $C$L263,TC1 ; |2595| 
TMS320C55x Assembler PC v4.4.1 Sat Sep 15 01:52:39 2018

Tools Copyright (c) 1996-2012 Texas Instruments Incorporated
queue.asm                                                            PAGE  151

    7151                                                      ; branchcc occurs ; |2595| 
    7152                      .dwpsn  file "../FreeRTOS/Source/queue.c",line 2597,column 5,is_stmt
    7153 00138d ED10          MOV dbl(*SP(#8)), XAR3
         00138f BF   
    7154 001390 ED61          MOV dbl(*AR3), XAR2
         001392 AF   
    7155 001393 EB7D          MOV XAR2, dbl(*AR3(short(#6)))
         001395 A5   
    7156                      .dwpsn  file "../FreeRTOS/Source/queue.c",line 2598,column 4,is_stmt
    7157 001396       $C$L263:    
    7158                      .dwpsn  file "../FreeRTOS/Source/queue.c",line 2603,column 4,is_stmt
    7159 001396 ED10          MOV dbl(*SP(#8)), XAR3
         001398 BF   
    7160 001399 F76D          SUB #1, *AR3(#28) ; |2603| 
         00139b FFFF 
         00139d 001C 
    7161                      .dwpsn  file "../FreeRTOS/Source/queue.c",line 2604,column 4,is_stmt
    7162 00139f ED10          MOV dbl(*SP(#8)), XAR3
         0013a1 BF   
    7163 0013a2 ED04          MOV dbl(*SP(#2)), XAR0
         0013a4 8F   
    7164 0013a5 ED7D          MOV dbl(*AR3(short(#6))), XAR1
         0013a7 9F   
    7165 0013a8 A46D          MOV *AR3(#30), T0 ; |2604| 
         0013aa 001E 
    7166              $C$DW$613       .dwtag  DW_TAG_TI_branch
    7167                      .dwattr $C$DW$613, DW_AT_low_pc(0x00)
    7168                      .dwattr $C$DW$613, DW_AT_name("_memcpy")
    7169                      .dwattr $C$DW$613, DW_AT_TI_call
    7170 0013ac 6C00          CALL #_memcpy ; |2604| 
         0013ae 0000!
    7171                                                      ; call occurs [#_memcpy] ; |2604| 
    7172                      .dwpsn  file "../FreeRTOS/Source/queue.c",line 2606,column 4,is_stmt
    7173 0013b0 ED08          MOV dbl(*SP(#4)), XAR3
         0013b2 BF   
    7174 0013b3 A961          MOV *AR3, AR1 ; |2606| 
    7175 0013b5 0419          BCC $C$L266,AR1 != #0 ; |2606| 
         0013b7 26   
    7176                                                      ; branchcc occurs ; |2606| 
    7177                      .dwpsn  file "../FreeRTOS/Source/queue.c",line 2608,column 5,is_stmt
    7178 0013b8 ED10          MOV dbl(*SP(#8)), XAR3
         0013ba BF   
    7179 0013bb A96D          MOV *AR3(#8), AR1 ; |2608| 
         0013bd 0008 
    7180 0013bf 6219          BCC $C$L264,AR1 != #0 ; |2608| 
    7181                                                      ; branchcc occurs ; |2608| 
    7182 0013c1 3C19          MOV #1, AR1
    7183 0013c3 4A02          B $C$L265 ; |2608| 
    7184                                                      ; branch occurs ; |2608| 
    7185 0013c5       $C$L264:    
    7186 0013c5 3C09          MOV #0, AR1
    7187 0013c7       $C$L265:    
    7188 0013c7 0419          BCC $C$L266,AR1 != #0 ; |2608| 
         0013c9 14   
    7189                                                      ; branchcc occurs ; |2608| 
TMS320C55x Assembler PC v4.4.1 Sat Sep 15 01:52:39 2018

Tools Copyright (c) 1996-2012 Texas Instruments Incorporated
queue.asm                                                            PAGE  152

    7190                      .dwpsn  file "../FreeRTOS/Source/queue.c",line 2610,column 6,is_stmt
    7191 0013ca ED10          MOV dbl(*SP(#8)), XAR0
         0013cc 8F   
    7192 0013cd 1408          AADD #8, AR0 ; |2610| 
         0013cf 84   
    7193              $C$DW$614       .dwtag  DW_TAG_TI_branch
    7194                      .dwattr $C$DW$614, DW_AT_low_pc(0x00)
    7195                      .dwattr $C$DW$614, DW_AT_name("_xCoRoutineRemoveFromEventList")
    7196                      .dwattr $C$DW$614, DW_AT_TI_call
    7197 0013d0 6C00          CALL #_xCoRoutineRemoveFromEventList ; |2610| 
         0013d2 0000!
    7198                                                      ; call occurs [#_xCoRoutineRemoveFromEventList] ; |2610| 
    7199 0013d4 6404          BCC $C$L266,T0 == #0 ; |2610| 
    7200                                                      ; branchcc occurs ; |2610| 
    7201                      .dwpsn  file "../FreeRTOS/Source/queue.c",line 2612,column 7,is_stmt
    7202 0013d6 ED08          MOV dbl(*SP(#4)), XAR3
         0013d8 BF   
    7203 0013d9 E661          MOV #1, *AR3 ; |2612| 
         0013db 01   
    7204                      .dwpsn  file "../FreeRTOS/Source/queue.c",line 2613,column 6,is_stmt
    7205 0013dc 4A00          B $C$L266 ; |2613| 
    7206                                                      ; branch occurs ; |2613| 
    7207 0013de       $C$L266:    
    7208                      .dwpsn  file "../FreeRTOS/Source/queue.c",line 2629,column 4,is_stmt
    7209 0013de E60C          MOV #1, *SP(#6) ; |2629| 
         0013e0 01   
    7210                      .dwpsn  file "../FreeRTOS/Source/queue.c",line 2630,column 3,is_stmt
    7211 0013e1 4A03          B $C$L268 ; |2630| 
    7212                                                      ; branch occurs ; |2630| 
    7213 0013e3       $C$L267:    
    7214                      .dwpsn  file "../FreeRTOS/Source/queue.c",line 2633,column 4,is_stmt
    7215 0013e3 E60C          MOV #0, *SP(#6) ; |2633| 
         0013e5 00   
    7216 0013e6       $C$L268:    
    7217                      .dwpsn  file "../FreeRTOS/Source/queue.c",line 2636,column 3,is_stmt
    7218 0013e6 A40C          MOV *SP(#6), T0 ; |2636| 
    7219                      .dwpsn  file "../FreeRTOS/Source/queue.c",line 2637,column 2,is_stmt
    7220 0013e8 4E0B          AADD #11, SP
    7221                      .dwcfi  cfa_offset, 1
    7222              $C$DW$615       .dwtag  DW_TAG_TI_branch
    7223                      .dwattr $C$DW$615, DW_AT_low_pc(0x00)
    7224                      .dwattr $C$DW$615, DW_AT_TI_return
    7225 0013ea 4804          RET
    7226                                                      ; return occurs
    7227                      .dwattr $C$DW$604, DW_AT_TI_end_file("../FreeRTOS/Source/queue.c")
    7228                      .dwattr $C$DW$604, DW_AT_TI_end_line(0xa4d)
    7229                      .dwattr $C$DW$604, DW_AT_TI_end_column(0x02)
    7230                      .dwendentry
    7231                      .dwendtag $C$DW$604
    7232              
    7233 0013ec               .sect   ".text"
    7234                      .align 4
    7235                      .global _vQueueAddToRegistry
    7236              
    7237              $C$DW$616       .dwtag  DW_TAG_subprogram, DW_AT_name("vQueueAddToRegistry")
TMS320C55x Assembler PC v4.4.1 Sat Sep 15 01:52:39 2018

Tools Copyright (c) 1996-2012 Texas Instruments Incorporated
queue.asm                                                            PAGE  153

    7238                      .dwattr $C$DW$616, DW_AT_low_pc(_vQueueAddToRegistry)
    7239                      .dwattr $C$DW$616, DW_AT_high_pc(0x00)
    7240                      .dwattr $C$DW$616, DW_AT_TI_symbol_name("_vQueueAddToRegistry")
    7241                      .dwattr $C$DW$616, DW_AT_external
    7242                      .dwattr $C$DW$616, DW_AT_TI_begin_file("../FreeRTOS/Source/queue.c")
    7243                      .dwattr $C$DW$616, DW_AT_TI_begin_line(0xa54)
    7244                      .dwattr $C$DW$616, DW_AT_TI_begin_column(0x07)
    7245                      .dwattr $C$DW$616, DW_AT_TI_max_frame_size(0x06)
    7246                      .dwpsn  file "../FreeRTOS/Source/queue.c",line 2645,column 2,is_stmt,address _vQueueAddToRegistry
    7247              
    7248                      .dwfde $C$DW$CIE, _vQueueAddToRegistry
    7249              $C$DW$617       .dwtag  DW_TAG_formal_parameter, DW_AT_name("xQueue")
    7250                      .dwattr $C$DW$617, DW_AT_TI_symbol_name("_xQueue")
    7251                      .dwattr $C$DW$617, DW_AT_type(*$C$DW$T$27)
    7252                      .dwattr $C$DW$617, DW_AT_location[DW_OP_reg17]
    7253              $C$DW$618       .dwtag  DW_TAG_formal_parameter, DW_AT_name("pcQueueName")
    7254                      .dwattr $C$DW$618, DW_AT_TI_symbol_name("_pcQueueName")
    7255                      .dwattr $C$DW$618, DW_AT_type(*$C$DW$T$25)
    7256                      .dwattr $C$DW$618, DW_AT_location[DW_OP_reg19]
    7257              ;*******************************************************************************
    7258              ;* FUNCTION NAME: vQueueAddToRegistry                                          *
    7259              ;*                                                                             *
    7260              ;*   Function Uses Regs : AC0,AC0,T0,AR0,XAR0,AR1,XAR1,AR2,XAR2,AR3,XAR3,SP,   *
    7261              ;*                        CARRY,TC1,M40,SATA,SATD,RDM,FRCT,SMUL                *
    7262              ;*   Stack Frame        : Compact (No Frame Pointer, w/ debug)                 *
    7263              ;*   Total Frame Size   : 6 words                                              *
    7264              ;*                        (1 return address/alignment)                         *
    7265              ;*                        (5 local values)                                     *
    7266              ;*   Min System Stack   : 1 word                                               *
    7267              ;*******************************************************************************
    7268 0013ec       _vQueueAddToRegistry:
    7269                      .dwcfi  cfa_offset, 1
    7270                      .dwcfi  save_reg_to_mem, 91, -1
    7271 0013ec 4EFB          AADD #-5, SP
    7272                      .dwcfi  cfa_offset, 6
    7273              $C$DW$619       .dwtag  DW_TAG_variable, DW_AT_name("xQueue")
    7274                      .dwattr $C$DW$619, DW_AT_TI_symbol_name("_xQueue")
    7275                      .dwattr $C$DW$619, DW_AT_type(*$C$DW$T$27)
    7276                      .dwattr $C$DW$619, DW_AT_location[DW_OP_bregx 0x24 0]
    7277              $C$DW$620       .dwtag  DW_TAG_variable, DW_AT_name("pcQueueName")
    7278                      .dwattr $C$DW$620, DW_AT_TI_symbol_name("_pcQueueName")
    7279                      .dwattr $C$DW$620, DW_AT_type(*$C$DW$T$25)
    7280                      .dwattr $C$DW$620, DW_AT_location[DW_OP_bregx 0x24 2]
    7281              $C$DW$621       .dwtag  DW_TAG_variable, DW_AT_name("ux")
    7282                      .dwattr $C$DW$621, DW_AT_TI_symbol_name("_ux")
    7283                      .dwattr $C$DW$621, DW_AT_type(*$C$DW$T$32)
    7284                      .dwattr $C$DW$621, DW_AT_location[DW_OP_bregx 0x24 4]
    7285 0013ee EB04          MOV XAR1, dbl(*SP(#2))
         0013f0 95   
    7286 0013f1 EB00          MOV XAR0, dbl(*SP(#0))
         0013f3 85   
    7287                      .dwpsn  file "../FreeRTOS/Source/queue.c",line 2650,column 8,is_stmt
    7288 0013f4 E608          MOV #0, *SP(#4) ; |2650| 
         0013f6 00   
    7289                      .dwpsn  file "../FreeRTOS/Source/queue.c",line 2650,column 33,is_stmt
TMS320C55x Assembler PC v4.4.1 Sat Sep 15 01:52:39 2018

Tools Copyright (c) 1996-2012 Texas Instruments Incorporated
queue.asm                                                            PAGE  154

    7290              
    7291 0013f7 A908          MOV *SP(#4), AR1 ; |2650| 
    7292 0013f9 3D8A  ||      MOV #8, AR2
    7293              
    7294 0013fb 1298          CMPU AR1 >= AR2, TC1 ; |2650| 
         0013fd A4   
    7295 0013fe 0464          BCC $C$L271,TC1 ; |2650| 
         001400 46   
    7296                                                      ; branchcc occurs ; |2650| 
    7297 001401       $C$L269:    
    7298 001401       $C$DW$L$_vQueueAddToRegistry$2$B:
    7299                      .dwpsn  file "../FreeRTOS/Source/queue.c",line 2652,column 4,is_stmt
    7300 001401 F908          MOV *SP(#4) << #2, AC0 ; |2652| 
         001403 0208 
    7301 001405 2204          MOV AC0, T0 ; |2652| 
    7302 001407 EC31          AMOV #_xQueueRegistry, XAR3 ; |2652| 
         001409 BE00 
         00140b 0000-
    7303 00140d ED6B          MOV dbl(*AR3(T0)), XAR3
         00140f BF   
    7304 001410 90B0          MOV XAR3, AC0
    7305 001412 0410          BCC $C$L270,AC0 != #0 ; |2652| 
         001414 26   
    7306                                                      ; branchcc occurs ; |2652| 
    7307 001415       $C$DW$L$_vQueueAddToRegistry$2$E:
    7308                      .dwpsn  file "../FreeRTOS/Source/queue.c",line 2655,column 5,is_stmt
    7309 001415 F908          MOV *SP(#4) << #2, AC0 ; |2655| 
         001417 0208 
    7310 001419 2204          MOV AC0, T0 ; |2655| 
    7311 00141b ED04          MOV dbl(*SP(#2)), XAR2
         00141d AF   
    7312 00141e EC31          AMOV #_xQueueRegistry, XAR3 ; |2655| 
         001420 BE00 
         001422 0000-
    7313 001424 EB6B          MOV XAR2, dbl(*AR3(T0))
         001426 A5   
    7314                      .dwpsn  file "../FreeRTOS/Source/queue.c",line 2656,column 5,is_stmt
    7315 001427 F908          MOV *SP(#4) << #2, AC0 ; |2656| 
         001429 0208 
    7316 00142b 2204          MOV AC0, T0 ; |2656| 
    7317 00142d EC31          AMOV #(_xQueueRegistry+2), XAR3 ; |2656| 
         00142f BE00 
         001431 0002-
    7318 001433 ED00          MOV dbl(*SP(#0)), XAR2
         001435 AF   
    7319 001436 EB6B          MOV XAR2, dbl(*AR3(T0))
         001438 A5   
    7320                      .dwpsn  file "../FreeRTOS/Source/queue.c",line 2659,column 5,is_stmt
    7321 001439 4A0C          B $C$L271 ; |2659| 
    7322                                                      ; branch occurs ; |2659| 
    7323 00143b       $C$L270:    
    7324 00143b       $C$DW$L$_vQueueAddToRegistry$5$B:
    7325                      .dwpsn  file "../FreeRTOS/Source/queue.c",line 2650,column 81,is_stmt
    7326 00143b F708          ADD #1, *SP(#4) ; |2650| 
         00143d 0001 
TMS320C55x Assembler PC v4.4.1 Sat Sep 15 01:52:39 2018

Tools Copyright (c) 1996-2012 Texas Instruments Incorporated
queue.asm                                                            PAGE  155

    7327                      .dwpsn  file "../FreeRTOS/Source/queue.c",line 2650,column 33,is_stmt
    7328 00143f A908          MOV *SP(#4), AR1 ; |2650| 
    7329 001441 1294          CMPU AR1 < AR2, TC1 ; |2650| 
         001443 A4   
    7330 001444 0464          BCC $C$L269,TC1 ; |2650| 
         001446 BA   
    7331                                                      ; branchcc occurs ; |2650| 
    7332 001447       $C$DW$L$_vQueueAddToRegistry$5$E:
    7333                      .dwpsn  file "../FreeRTOS/Source/queue.c",line 2666,column 2,is_stmt
    7334 001447       $C$L271:    
    7335 001447 4E05          AADD #5, SP
    7336                      .dwcfi  cfa_offset, 1
    7337              $C$DW$622       .dwtag  DW_TAG_TI_branch
    7338                      .dwattr $C$DW$622, DW_AT_low_pc(0x00)
    7339                      .dwattr $C$DW$622, DW_AT_TI_return
    7340 001449 4804          RET
    7341                                                      ; return occurs
    7342              
    7343              $C$DW$623       .dwtag  DW_TAG_TI_loop
    7344                      .dwattr $C$DW$623, DW_AT_name("F:\eZdsp_DBG\eZDSP_5535_Files\ccsws2\test\Debug\queue.asm:$C$L269:1:15
    7345                      .dwattr $C$DW$623, DW_AT_TI_begin_file("../FreeRTOS/Source/queue.c")
    7346                      .dwattr $C$DW$623, DW_AT_TI_begin_line(0xa5a)
    7347                      .dwattr $C$DW$623, DW_AT_TI_end_line(0xa69)
    7348              $C$DW$624       .dwtag  DW_TAG_TI_loop_range
    7349                      .dwattr $C$DW$624, DW_AT_low_pc($C$DW$L$_vQueueAddToRegistry$2$B)
    7350                      .dwattr $C$DW$624, DW_AT_high_pc($C$DW$L$_vQueueAddToRegistry$2$E)
    7351              $C$DW$625       .dwtag  DW_TAG_TI_loop_range
    7352                      .dwattr $C$DW$625, DW_AT_low_pc($C$DW$L$_vQueueAddToRegistry$5$B)
    7353                      .dwattr $C$DW$625, DW_AT_high_pc($C$DW$L$_vQueueAddToRegistry$5$E)
    7354                      .dwendtag $C$DW$623
    7355              
    7356                      .dwattr $C$DW$616, DW_AT_TI_end_file("../FreeRTOS/Source/queue.c")
    7357                      .dwattr $C$DW$616, DW_AT_TI_end_line(0xa6a)
    7358                      .dwattr $C$DW$616, DW_AT_TI_end_column(0x02)
    7359                      .dwendentry
    7360                      .dwendtag $C$DW$616
    7361              
    7362 00144b               .sect   ".text"
    7363                      .align 4
    7364                      .global _pcQueueGetName
    7365              
    7366              $C$DW$626       .dwtag  DW_TAG_subprogram, DW_AT_name("pcQueueGetName")
    7367                      .dwattr $C$DW$626, DW_AT_low_pc(_pcQueueGetName)
    7368                      .dwattr $C$DW$626, DW_AT_high_pc(0x00)
    7369                      .dwattr $C$DW$626, DW_AT_TI_symbol_name("_pcQueueGetName")
    7370                      .dwattr $C$DW$626, DW_AT_external
    7371                      .dwattr $C$DW$626, DW_AT_type(*$C$DW$T$25)
    7372                      .dwattr $C$DW$626, DW_AT_TI_begin_file("../FreeRTOS/Source/queue.c")
    7373                      .dwattr $C$DW$626, DW_AT_TI_begin_line(0xa71)
    7374                      .dwattr $C$DW$626, DW_AT_TI_begin_column(0x0e)
    7375                      .dwattr $C$DW$626, DW_AT_TI_max_frame_size(0x08)
    7376                      .dwpsn  file "../FreeRTOS/Source/queue.c",line 2674,column 2,is_stmt,address _pcQueueGetName
    7377              
    7378                      .dwfde $C$DW$CIE, _pcQueueGetName
    7379              $C$DW$627       .dwtag  DW_TAG_formal_parameter, DW_AT_name("xQueue")
TMS320C55x Assembler PC v4.4.1 Sat Sep 15 01:52:39 2018

Tools Copyright (c) 1996-2012 Texas Instruments Incorporated
queue.asm                                                            PAGE  156

    7380                      .dwattr $C$DW$627, DW_AT_TI_symbol_name("_xQueue")
    7381                      .dwattr $C$DW$627, DW_AT_type(*$C$DW$T$27)
    7382                      .dwattr $C$DW$627, DW_AT_location[DW_OP_reg17]
    7383              ;*******************************************************************************
    7384              ;* FUNCTION NAME: pcQueueGetName                                               *
    7385              ;*                                                                             *
    7386              ;*   Function Uses Regs : AC0,AC0,AC1,AC1,T0,AR0,XAR0,AR1,AR2,AR3,XAR3,SP,     *
    7387              ;*                        CARRY,TC1,M40,SATA,SATD,RDM,FRCT,SMUL                *
    7388              ;*   Stack Frame        : Compact (No Frame Pointer, w/ debug)                 *
    7389              ;*   Total Frame Size   : 8 words                                              *
    7390              ;*                        (2 return address/alignment)                         *
    7391              ;*                        (6 local values)                                     *
    7392              ;*   Min System Stack   : 1 word                                               *
    7393              ;*******************************************************************************
    7394 00144c       _pcQueueGetName:
    7395                      .dwcfi  cfa_offset, 1
    7396                      .dwcfi  save_reg_to_mem, 91, -1
    7397 00144c 4EF9          AADD #-7, SP
    7398                      .dwcfi  cfa_offset, 8
    7399              $C$DW$628       .dwtag  DW_TAG_variable, DW_AT_name("xQueue")
    7400                      .dwattr $C$DW$628, DW_AT_TI_symbol_name("_xQueue")
    7401                      .dwattr $C$DW$628, DW_AT_type(*$C$DW$T$27)
    7402                      .dwattr $C$DW$628, DW_AT_location[DW_OP_bregx 0x24 0]
    7403              $C$DW$629       .dwtag  DW_TAG_variable, DW_AT_name("ux")
    7404                      .dwattr $C$DW$629, DW_AT_TI_symbol_name("_ux")
    7405                      .dwattr $C$DW$629, DW_AT_type(*$C$DW$T$32)
    7406                      .dwattr $C$DW$629, DW_AT_location[DW_OP_bregx 0x24 2]
    7407              $C$DW$630       .dwtag  DW_TAG_variable, DW_AT_name("pcReturn")
    7408                      .dwattr $C$DW$630, DW_AT_TI_symbol_name("_pcReturn")
    7409                      .dwattr $C$DW$630, DW_AT_type(*$C$DW$T$25)
    7410                      .dwattr $C$DW$630, DW_AT_location[DW_OP_bregx 0x24 4]
    7411 00144e EB00          MOV XAR0, dbl(*SP(#0))
         001450 85   
    7412                      .dwpsn  file "../FreeRTOS/Source/queue.c",line 2676,column 14,is_stmt
    7413 001451 3C00          MOV #0, AC0 ; |2676| 
    7414 001453 EB08          MOV AC0, dbl(*SP(#4))
         001455 08   
    7415                      .dwpsn  file "../FreeRTOS/Source/queue.c",line 2680,column 8,is_stmt
    7416 001456 E604          MOV #0, *SP(#2) ; |2680| 
         001458 00   
    7417                      .dwpsn  file "../FreeRTOS/Source/queue.c",line 2680,column 33,is_stmt
    7418              
    7419 001459 A904          MOV *SP(#2), AR1 ; |2680| 
    7420 00145b 3D8A  ||      MOV #8, AR2
    7421              
    7422 00145d 1298          CMPU AR1 >= AR2, TC1 ; |2680| 
         00145f A4   
    7423 001460 0464          BCC $C$L274,TC1 ; |2680| 
         001462 3C   
    7424                                                      ; branchcc occurs ; |2680| 
    7425 001463       $C$L272:    
    7426 001463       $C$DW$L$_pcQueueGetName$2$B:
    7427                      .dwpsn  file "../FreeRTOS/Source/queue.c",line 2682,column 4,is_stmt
    7428 001463 F904          MOV *SP(#2) << #2, AC0 ; |2682| 
         001465 0208 
TMS320C55x Assembler PC v4.4.1 Sat Sep 15 01:52:39 2018

Tools Copyright (c) 1996-2012 Texas Instruments Incorporated
queue.asm                                                            PAGE  157

    7429 001467 2204          MOV AC0, T0 ; |2682| 
    7430 001469 EC31          AMOV #(_xQueueRegistry+2), XAR3 ; |2682| 
         00146b BE00 
         00146d 0002-
    7431 00146f ED6B          MOV dbl(*AR3(T0)), XAR3
         001471 BF   
    7432 001472 90B1          MOV XAR3, AC1
    7433 001474 ED00          MOV dbl(*SP(#0)), XAR3
         001476 BF   
    7434 001477 90B0          MOV XAR3, AC0
    7435 001479 121C          CMPU AC1 != AC0, TC1 ; |2682| 
         00147b 04   
    7436 00147c 0464          BCC $C$L273,TC1 ; |2682| 
         00147e 14   
    7437                                                      ; branchcc occurs ; |2682| 
    7438 00147f       $C$DW$L$_pcQueueGetName$2$E:
    7439                      .dwpsn  file "../FreeRTOS/Source/queue.c",line 2684,column 5,is_stmt
    7440 00147f F904          MOV *SP(#2) << #2, AC0 ; |2684| 
         001481 0208 
    7441 001483 2204          MOV AC0, T0 ; |2684| 
    7442 001485 EC31          AMOV #_xQueueRegistry, XAR3 ; |2684| 
         001487 BE00 
         001489 0000-
    7443 00148b ED6B          MOV dbl(*AR3(T0)), XAR3
         00148d BF   
    7444 00148e EB08          MOV XAR3, dbl(*SP(#4))
         001490 B5   
    7445                      .dwpsn  file "../FreeRTOS/Source/queue.c",line 2685,column 5,is_stmt
    7446 001491 4A0C          B $C$L274 ; |2685| 
    7447                                                      ; branch occurs ; |2685| 
    7448 001493       $C$L273:    
    7449 001493       $C$DW$L$_pcQueueGetName$5$B:
    7450                      .dwpsn  file "../FreeRTOS/Source/queue.c",line 2680,column 81,is_stmt
    7451 001493 F704          ADD #1, *SP(#2) ; |2680| 
         001495 0001 
    7452                      .dwpsn  file "../FreeRTOS/Source/queue.c",line 2680,column 33,is_stmt
    7453 001497 A904          MOV *SP(#2), AR1 ; |2680| 
    7454 001499 1294          CMPU AR1 < AR2, TC1 ; |2680| 
         00149b A4   
    7455 00149c 0464          BCC $C$L272,TC1 ; |2680| 
         00149e C4   
    7456                                                      ; branchcc occurs ; |2680| 
    7457 00149f       $C$DW$L$_pcQueueGetName$5$E:
    7458 00149f       $C$L274:    
    7459                      .dwpsn  file "../FreeRTOS/Source/queue.c",line 2693,column 3,is_stmt
    7460 00149f ED08          MOV dbl(*SP(#4)), XAR0
         0014a1 8F   
    7461                      .dwpsn  file "../FreeRTOS/Source/queue.c",line 2694,column 2,is_stmt
    7462 0014a2 4E07          AADD #7, SP
    7463                      .dwcfi  cfa_offset, 1
    7464              $C$DW$631       .dwtag  DW_TAG_TI_branch
    7465                      .dwattr $C$DW$631, DW_AT_low_pc(0x00)
    7466                      .dwattr $C$DW$631, DW_AT_TI_return
    7467 0014a4 4804          RET
    7468                                                      ; return occurs
TMS320C55x Assembler PC v4.4.1 Sat Sep 15 01:52:39 2018

Tools Copyright (c) 1996-2012 Texas Instruments Incorporated
queue.asm                                                            PAGE  158

    7469              
    7470              $C$DW$632       .dwtag  DW_TAG_TI_loop
    7471                      .dwattr $C$DW$632, DW_AT_name("F:\eZdsp_DBG\eZDSP_5535_Files\ccsws2\test\Debug\queue.asm:$C$L272:1:15
    7472                      .dwattr $C$DW$632, DW_AT_TI_begin_file("../FreeRTOS/Source/queue.c")
    7473                      .dwattr $C$DW$632, DW_AT_TI_begin_line(0xa78)
    7474                      .dwattr $C$DW$632, DW_AT_TI_end_line(0xa83)
    7475              $C$DW$633       .dwtag  DW_TAG_TI_loop_range
    7476                      .dwattr $C$DW$633, DW_AT_low_pc($C$DW$L$_pcQueueGetName$2$B)
    7477                      .dwattr $C$DW$633, DW_AT_high_pc($C$DW$L$_pcQueueGetName$2$E)
    7478              $C$DW$634       .dwtag  DW_TAG_TI_loop_range
    7479                      .dwattr $C$DW$634, DW_AT_low_pc($C$DW$L$_pcQueueGetName$5$B)
    7480                      .dwattr $C$DW$634, DW_AT_high_pc($C$DW$L$_pcQueueGetName$5$E)
    7481                      .dwendtag $C$DW$632
    7482              
    7483                      .dwattr $C$DW$626, DW_AT_TI_end_file("../FreeRTOS/Source/queue.c")
    7484                      .dwattr $C$DW$626, DW_AT_TI_end_line(0xa86)
    7485                      .dwattr $C$DW$626, DW_AT_TI_end_column(0x02)
    7486                      .dwendentry
    7487                      .dwendtag $C$DW$626
    7488              
    7489 0014a6               .sect   ".text"
    7490                      .align 4
    7491                      .global _vQueueUnregisterQueue
    7492              
    7493              $C$DW$635       .dwtag  DW_TAG_subprogram, DW_AT_name("vQueueUnregisterQueue")
    7494                      .dwattr $C$DW$635, DW_AT_low_pc(_vQueueUnregisterQueue)
    7495                      .dwattr $C$DW$635, DW_AT_high_pc(0x00)
    7496                      .dwattr $C$DW$635, DW_AT_TI_symbol_name("_vQueueUnregisterQueue")
    7497                      .dwattr $C$DW$635, DW_AT_external
    7498                      .dwattr $C$DW$635, DW_AT_TI_begin_file("../FreeRTOS/Source/queue.c")
    7499                      .dwattr $C$DW$635, DW_AT_TI_begin_line(0xa8d)
    7500                      .dwattr $C$DW$635, DW_AT_TI_begin_column(0x07)
    7501                      .dwattr $C$DW$635, DW_AT_TI_max_frame_size(0x04)
    7502                      .dwpsn  file "../FreeRTOS/Source/queue.c",line 2702,column 2,is_stmt,address _vQueueUnregisterQueue
    7503              
    7504                      .dwfde $C$DW$CIE, _vQueueUnregisterQueue
    7505              $C$DW$636       .dwtag  DW_TAG_formal_parameter, DW_AT_name("xQueue")
    7506                      .dwattr $C$DW$636, DW_AT_TI_symbol_name("_xQueue")
    7507                      .dwattr $C$DW$636, DW_AT_type(*$C$DW$T$27)
    7508                      .dwattr $C$DW$636, DW_AT_location[DW_OP_reg17]
    7509              ;*******************************************************************************
    7510              ;* FUNCTION NAME: vQueueUnregisterQueue                                        *
    7511              ;*                                                                             *
    7512              ;*   Function Uses Regs : AC0,AC0,AC1,AC1,T0,AR0,XAR0,AR1,AR2,AR3,XAR3,SP,     *
    7513              ;*                        CARRY,TC1,M40,SATA,SATD,RDM,FRCT,SMUL                *
    7514              ;*   Stack Frame        : Compact (No Frame Pointer, w/ debug)                 *
    7515              ;*   Total Frame Size   : 4 words                                              *
    7516              ;*                        (1 return address/alignment)                         *
    7517              ;*                        (3 local values)                                     *
    7518              ;*   Min System Stack   : 1 word                                               *
    7519              ;*******************************************************************************
    7520 0014a8       _vQueueUnregisterQueue:
    7521                      .dwcfi  cfa_offset, 1
    7522                      .dwcfi  save_reg_to_mem, 91, -1
    7523 0014a8 4EFD          AADD #-3, SP
TMS320C55x Assembler PC v4.4.1 Sat Sep 15 01:52:39 2018

Tools Copyright (c) 1996-2012 Texas Instruments Incorporated
queue.asm                                                            PAGE  159

    7524                      .dwcfi  cfa_offset, 4
    7525              $C$DW$637       .dwtag  DW_TAG_variable, DW_AT_name("xQueue")
    7526                      .dwattr $C$DW$637, DW_AT_TI_symbol_name("_xQueue")
    7527                      .dwattr $C$DW$637, DW_AT_type(*$C$DW$T$27)
    7528                      .dwattr $C$DW$637, DW_AT_location[DW_OP_bregx 0x24 0]
    7529              $C$DW$638       .dwtag  DW_TAG_variable, DW_AT_name("ux")
    7530                      .dwattr $C$DW$638, DW_AT_TI_symbol_name("_ux")
    7531                      .dwattr $C$DW$638, DW_AT_type(*$C$DW$T$32)
    7532                      .dwattr $C$DW$638, DW_AT_location[DW_OP_bregx 0x24 2]
    7533 0014aa EB00          MOV XAR0, dbl(*SP(#0))
         0014ac 85   
    7534                      .dwpsn  file "../FreeRTOS/Source/queue.c",line 2707,column 8,is_stmt
    7535 0014ad E604          MOV #0, *SP(#2) ; |2707| 
         0014af 00   
    7536                      .dwpsn  file "../FreeRTOS/Source/queue.c",line 2707,column 33,is_stmt
    7537              
    7538 0014b0 A904          MOV *SP(#2), AR1 ; |2707| 
    7539 0014b2 3D8A  ||      MOV #8, AR2
    7540              
    7541 0014b4 1298          CMPU AR1 >= AR2, TC1 ; |2707| 
         0014b6 A4   
    7542 0014b7 0464          BCC $C$L277,TC1 ; |2707| 
         0014b9 4A   
    7543                                                      ; branchcc occurs ; |2707| 
    7544 0014ba       $C$L275:    
    7545 0014ba       $C$DW$L$_vQueueUnregisterQueue$2$B:
    7546                      .dwpsn  file "../FreeRTOS/Source/queue.c",line 2709,column 4,is_stmt
    7547 0014ba F904          MOV *SP(#2) << #2, AC0 ; |2709| 
         0014bc 0208 
    7548 0014be 2204          MOV AC0, T0 ; |2709| 
    7549 0014c0 EC31          AMOV #(_xQueueRegistry+2), XAR3 ; |2709| 
         0014c2 BE00 
         0014c4 0002-
    7550 0014c6 ED6B          MOV dbl(*AR3(T0)), XAR3
         0014c8 BF   
    7551 0014c9 90B1          MOV XAR3, AC1
    7552 0014cb ED00          MOV dbl(*SP(#0)), XAR3
         0014cd BF   
    7553 0014ce 90B0          MOV XAR3, AC0
    7554 0014d0 121C          CMPU AC1 != AC0, TC1 ; |2709| 
         0014d2 04   
    7555 0014d3 0464          BCC $C$L276,TC1 ; |2709| 
         0014d5 22   
    7556                                                      ; branchcc occurs ; |2709| 
    7557 0014d6       $C$DW$L$_vQueueUnregisterQueue$2$E:
    7558                      .dwpsn  file "../FreeRTOS/Source/queue.c",line 2712,column 5,is_stmt
    7559 0014d6 F904          MOV *SP(#2) << #2, AC0 ; |2712| 
         0014d8 0208 
    7560 0014da 2204          MOV AC0, T0 ; |2712| 
    7561 0014dc 3C01          MOV #0, AC1 ; |2712| 
    7562 0014de EC31          AMOV #_xQueueRegistry, XAR3 ; |2712| 
         0014e0 BE00 
         0014e2 0000-
    7563 0014e4 EB6B          MOV AC1, dbl(*AR3(T0))
         0014e6 18   
TMS320C55x Assembler PC v4.4.1 Sat Sep 15 01:52:39 2018

Tools Copyright (c) 1996-2012 Texas Instruments Incorporated
queue.asm                                                            PAGE  160

    7564                      .dwpsn  file "../FreeRTOS/Source/queue.c",line 2717,column 5,is_stmt
    7565 0014e7 F904          MOV *SP(#2) << #2, AC0 ; |2717| 
         0014e9 0208 
    7566 0014eb 2204          MOV AC0, T0 ; |2717| 
    7567 0014ed EC31          AMOV #(_xQueueRegistry+2), XAR3 ; |2717| 
         0014ef BE00 
         0014f1 0002-
    7568 0014f3 EB6B          MOV AC1, dbl(*AR3(T0))
         0014f5 18   
    7569                      .dwpsn  file "../FreeRTOS/Source/queue.c",line 2718,column 5,is_stmt
    7570 0014f6 4A0C          B $C$L277 ; |2718| 
    7571                                                      ; branch occurs ; |2718| 
    7572 0014f8       $C$L276:    
    7573 0014f8       $C$DW$L$_vQueueUnregisterQueue$5$B:
    7574                      .dwpsn  file "../FreeRTOS/Source/queue.c",line 2707,column 81,is_stmt
    7575 0014f8 F704          ADD #1, *SP(#2) ; |2707| 
         0014fa 0001 
    7576                      .dwpsn  file "../FreeRTOS/Source/queue.c",line 2707,column 33,is_stmt
    7577 0014fc A904          MOV *SP(#2), AR1 ; |2707| 
    7578 0014fe 1294          CMPU AR1 < AR2, TC1 ; |2707| 
         001500 A4   
    7579 001501 0464          BCC $C$L275,TC1 ; |2707| 
         001503 B6   
    7580                                                      ; branchcc occurs ; |2707| 
    7581 001504       $C$DW$L$_vQueueUnregisterQueue$5$E:
    7582                      .dwpsn  file "../FreeRTOS/Source/queue.c",line 2726,column 2,is_stmt
    7583 001504       $C$L277:    
    7584 001504 4E03          AADD #3, SP
    7585                      .dwcfi  cfa_offset, 1
    7586              $C$DW$639       .dwtag  DW_TAG_TI_branch
    7587                      .dwattr $C$DW$639, DW_AT_low_pc(0x00)
    7588                      .dwattr $C$DW$639, DW_AT_TI_return
    7589 001506 4804          RET
    7590                                                      ; return occurs
    7591              
    7592              $C$DW$640       .dwtag  DW_TAG_TI_loop
    7593                      .dwattr $C$DW$640, DW_AT_name("F:\eZdsp_DBG\eZDSP_5535_Files\ccsws2\test\Debug\queue.asm:$C$L275:1:15
    7594                      .dwattr $C$DW$640, DW_AT_TI_begin_file("../FreeRTOS/Source/queue.c")
    7595                      .dwattr $C$DW$640, DW_AT_TI_begin_line(0xa93)
    7596                      .dwattr $C$DW$640, DW_AT_TI_end_line(0xaa4)
    7597              $C$DW$641       .dwtag  DW_TAG_TI_loop_range
    7598                      .dwattr $C$DW$641, DW_AT_low_pc($C$DW$L$_vQueueUnregisterQueue$2$B)
    7599                      .dwattr $C$DW$641, DW_AT_high_pc($C$DW$L$_vQueueUnregisterQueue$2$E)
    7600              $C$DW$642       .dwtag  DW_TAG_TI_loop_range
    7601                      .dwattr $C$DW$642, DW_AT_low_pc($C$DW$L$_vQueueUnregisterQueue$5$B)
    7602                      .dwattr $C$DW$642, DW_AT_high_pc($C$DW$L$_vQueueUnregisterQueue$5$E)
    7603                      .dwendtag $C$DW$640
    7604              
    7605                      .dwattr $C$DW$635, DW_AT_TI_end_file("../FreeRTOS/Source/queue.c")
    7606                      .dwattr $C$DW$635, DW_AT_TI_end_line(0xaa6)
    7607                      .dwattr $C$DW$635, DW_AT_TI_end_column(0x02)
    7608                      .dwendentry
    7609                      .dwendtag $C$DW$635
    7610              
    7611              ;******************************************************************************
TMS320C55x Assembler PC v4.4.1 Sat Sep 15 01:52:39 2018

Tools Copyright (c) 1996-2012 Texas Instruments Incorporated
queue.asm                                                            PAGE  161

    7612              ;* UNDEFINED EXTERNAL REFERENCES                                              *
    7613              ;******************************************************************************
    7614                      .global _vPortYield
    7615                      .global _pvPortMalloc
    7616                      .global _vPortFree
    7617                      .global _vListInitialise
    7618                      .global _vTaskSuspendAll
    7619                      .global _xTaskResumeAll
    7620                      .global _vTaskPlaceOnEventList
    7621                      .global _xTaskRemoveFromEventList
    7622                      .global _xTaskGetCurrentTaskHandle
    7623                      .global _xTaskCheckForTimeOut
    7624                      .global _vTaskMissedYield
    7625                      .global _xTaskGetSchedulerState
    7626                      .global _xTaskPriorityInherit
    7627                      .global _xTaskPriorityDisinherit
    7628                      .global _vTaskPriorityDisinheritAfterTimeout
    7629                      .global _pvTaskIncrementMutexHeldCount
    7630                      .global _vTaskInternalSetTimeOutState
    7631                      .global _vCoRoutineAddToDelayedList
    7632                      .global _xCoRoutineRemoveFromEventList
    7633                      .global _usCriticalNesting
    7634                      .global _memcpy
    7635              
    7636              ;*******************************************************************************
    7637              ;* TYPE INFORMATION                                                            *
    7638              ;*******************************************************************************
    7639              
    7640              $C$DW$T$22      .dwtag  DW_TAG_union_type
    7641                      .dwattr $C$DW$T$22, DW_AT_byte_size(0x04)
    7642              $C$DW$643       .dwtag  DW_TAG_member
    7643                      .dwattr $C$DW$643, DW_AT_type(*$C$DW$T$20)
    7644                      .dwattr $C$DW$643, DW_AT_name("xQueue")
    7645                      .dwattr $C$DW$643, DW_AT_TI_symbol_name("_xQueue")
    7646                      .dwattr $C$DW$643, DW_AT_data_member_location[DW_OP_plus_uconst 0x0]
    7647                      .dwattr $C$DW$643, DW_AT_accessibility(DW_ACCESS_public)
    7648              $C$DW$644       .dwtag  DW_TAG_member
    7649                      .dwattr $C$DW$644, DW_AT_type(*$C$DW$T$21)
    7650                      .dwattr $C$DW$644, DW_AT_name("xSemaphore")
    7651                      .dwattr $C$DW$644, DW_AT_TI_symbol_name("_xSemaphore")
    7652                      .dwattr $C$DW$644, DW_AT_data_member_location[DW_OP_plus_uconst 0x0]
    7653                      .dwattr $C$DW$644, DW_AT_accessibility(DW_ACCESS_public)
    7654                      .dwendtag $C$DW$T$22
    7655              
    7656              
    7657              $C$DW$T$28      .dwtag  DW_TAG_structure_type
    7658                      .dwattr $C$DW$T$28, DW_AT_name("QUEUE_REGISTRY_ITEM")
    7659                      .dwattr $C$DW$T$28, DW_AT_byte_size(0x04)
    7660              $C$DW$645       .dwtag  DW_TAG_member
    7661                      .dwattr $C$DW$645, DW_AT_type(*$C$DW$T$25)
    7662                      .dwattr $C$DW$645, DW_AT_name("pcQueueName")
    7663                      .dwattr $C$DW$645, DW_AT_TI_symbol_name("_pcQueueName")
    7664                      .dwattr $C$DW$645, DW_AT_data_member_location[DW_OP_plus_uconst 0x0]
    7665                      .dwattr $C$DW$645, DW_AT_accessibility(DW_ACCESS_public)
    7666              $C$DW$646       .dwtag  DW_TAG_member
TMS320C55x Assembler PC v4.4.1 Sat Sep 15 01:52:39 2018

Tools Copyright (c) 1996-2012 Texas Instruments Incorporated
queue.asm                                                            PAGE  162

    7667                      .dwattr $C$DW$646, DW_AT_type(*$C$DW$T$27)
    7668                      .dwattr $C$DW$646, DW_AT_name("xHandle")
    7669                      .dwattr $C$DW$646, DW_AT_TI_symbol_name("_xHandle")
    7670                      .dwattr $C$DW$646, DW_AT_data_member_location[DW_OP_plus_uconst 0x2]
    7671                      .dwattr $C$DW$646, DW_AT_accessibility(DW_ACCESS_public)
    7672                      .dwendtag $C$DW$T$28
    7673              
    7674              $C$DW$T$51      .dwtag  DW_TAG_typedef, DW_AT_name("xQueueRegistryItem")
    7675                      .dwattr $C$DW$T$51, DW_AT_type(*$C$DW$T$28)
    7676                      .dwattr $C$DW$T$51, DW_AT_language(DW_LANG_C)
    7677              $C$DW$T$52      .dwtag  DW_TAG_typedef, DW_AT_name("QueueRegistryItem_t")
    7678                      .dwattr $C$DW$T$52, DW_AT_type(*$C$DW$T$51)
    7679                      .dwattr $C$DW$T$52, DW_AT_language(DW_LANG_C)
    7680              
    7681              $C$DW$T$53      .dwtag  DW_TAG_array_type
    7682                      .dwattr $C$DW$T$53, DW_AT_type(*$C$DW$T$52)
    7683                      .dwattr $C$DW$T$53, DW_AT_language(DW_LANG_C)
    7684                      .dwattr $C$DW$T$53, DW_AT_byte_size(0x20)
    7685              $C$DW$647       .dwtag  DW_TAG_subrange_type
    7686                      .dwattr $C$DW$647, DW_AT_upper_bound(0x07)
    7687                      .dwendtag $C$DW$T$53
    7688              
    7689              
    7690              $C$DW$T$35      .dwtag  DW_TAG_structure_type
    7691                      .dwattr $C$DW$T$35, DW_AT_name("QueueDefinition")
    7692                      .dwattr $C$DW$T$35, DW_AT_byte_size(0x22)
    7693              $C$DW$648       .dwtag  DW_TAG_member
    7694                      .dwattr $C$DW$648, DW_AT_type(*$C$DW$T$30)
    7695                      .dwattr $C$DW$648, DW_AT_name("pcHead")
    7696                      .dwattr $C$DW$648, DW_AT_TI_symbol_name("_pcHead")
    7697                      .dwattr $C$DW$648, DW_AT_data_member_location[DW_OP_plus_uconst 0x0]
    7698                      .dwattr $C$DW$648, DW_AT_accessibility(DW_ACCESS_public)
    7699              $C$DW$649       .dwtag  DW_TAG_member
    7700                      .dwattr $C$DW$649, DW_AT_type(*$C$DW$T$30)
    7701                      .dwattr $C$DW$649, DW_AT_name("pcWriteTo")
    7702                      .dwattr $C$DW$649, DW_AT_TI_symbol_name("_pcWriteTo")
    7703                      .dwattr $C$DW$649, DW_AT_data_member_location[DW_OP_plus_uconst 0x2]
    7704                      .dwattr $C$DW$649, DW_AT_accessibility(DW_ACCESS_public)
    7705              $C$DW$650       .dwtag  DW_TAG_member
    7706                      .dwattr $C$DW$650, DW_AT_type(*$C$DW$T$22)
    7707                      .dwattr $C$DW$650, DW_AT_name("u")
    7708                      .dwattr $C$DW$650, DW_AT_TI_symbol_name("_u")
    7709                      .dwattr $C$DW$650, DW_AT_data_member_location[DW_OP_plus_uconst 0x4]
    7710                      .dwattr $C$DW$650, DW_AT_accessibility(DW_ACCESS_public)
    7711              $C$DW$651       .dwtag  DW_TAG_member
    7712                      .dwattr $C$DW$651, DW_AT_type(*$C$DW$T$31)
    7713                      .dwattr $C$DW$651, DW_AT_name("xTasksWaitingToSend")
    7714                      .dwattr $C$DW$651, DW_AT_TI_symbol_name("_xTasksWaitingToSend")
    7715                      .dwattr $C$DW$651, DW_AT_data_member_location[DW_OP_plus_uconst 0x8]
    7716                      .dwattr $C$DW$651, DW_AT_accessibility(DW_ACCESS_public)
    7717              $C$DW$652       .dwtag  DW_TAG_member
    7718                      .dwattr $C$DW$652, DW_AT_type(*$C$DW$T$31)
    7719                      .dwattr $C$DW$652, DW_AT_name("xTasksWaitingToReceive")
    7720                      .dwattr $C$DW$652, DW_AT_TI_symbol_name("_xTasksWaitingToReceive")
    7721                      .dwattr $C$DW$652, DW_AT_data_member_location[DW_OP_plus_uconst 0x12]
TMS320C55x Assembler PC v4.4.1 Sat Sep 15 01:52:39 2018

Tools Copyright (c) 1996-2012 Texas Instruments Incorporated
queue.asm                                                            PAGE  163

    7722                      .dwattr $C$DW$652, DW_AT_accessibility(DW_ACCESS_public)
    7723              $C$DW$653       .dwtag  DW_TAG_member
    7724                      .dwattr $C$DW$653, DW_AT_type(*$C$DW$T$33)
    7725                      .dwattr $C$DW$653, DW_AT_name("uxMessagesWaiting")
    7726                      .dwattr $C$DW$653, DW_AT_TI_symbol_name("_uxMessagesWaiting")
    7727                      .dwattr $C$DW$653, DW_AT_data_member_location[DW_OP_plus_uconst 0x1c]
    7728                      .dwattr $C$DW$653, DW_AT_accessibility(DW_ACCESS_public)
    7729              $C$DW$654       .dwtag  DW_TAG_member
    7730                      .dwattr $C$DW$654, DW_AT_type(*$C$DW$T$32)
    7731                      .dwattr $C$DW$654, DW_AT_name("uxLength")
    7732                      .dwattr $C$DW$654, DW_AT_TI_symbol_name("_uxLength")
    7733                      .dwattr $C$DW$654, DW_AT_data_member_location[DW_OP_plus_uconst 0x1d]
    7734                      .dwattr $C$DW$654, DW_AT_accessibility(DW_ACCESS_public)
    7735              $C$DW$655       .dwtag  DW_TAG_member
    7736                      .dwattr $C$DW$655, DW_AT_type(*$C$DW$T$32)
    7737                      .dwattr $C$DW$655, DW_AT_name("uxItemSize")
    7738                      .dwattr $C$DW$655, DW_AT_TI_symbol_name("_uxItemSize")
    7739                      .dwattr $C$DW$655, DW_AT_data_member_location[DW_OP_plus_uconst 0x1e]
    7740                      .dwattr $C$DW$655, DW_AT_accessibility(DW_ACCESS_public)
    7741              $C$DW$656       .dwtag  DW_TAG_member
    7742                      .dwattr $C$DW$656, DW_AT_type(*$C$DW$T$34)
    7743                      .dwattr $C$DW$656, DW_AT_name("cRxLock")
    7744                      .dwattr $C$DW$656, DW_AT_TI_symbol_name("_cRxLock")
    7745                      .dwattr $C$DW$656, DW_AT_data_member_location[DW_OP_plus_uconst 0x1f]
    7746                      .dwattr $C$DW$656, DW_AT_accessibility(DW_ACCESS_public)
    7747              $C$DW$657       .dwtag  DW_TAG_member
    7748                      .dwattr $C$DW$657, DW_AT_type(*$C$DW$T$34)
    7749                      .dwattr $C$DW$657, DW_AT_name("cTxLock")
    7750                      .dwattr $C$DW$657, DW_AT_TI_symbol_name("_cTxLock")
    7751                      .dwattr $C$DW$657, DW_AT_data_member_location[DW_OP_plus_uconst 0x20]
    7752                      .dwattr $C$DW$657, DW_AT_accessibility(DW_ACCESS_public)
    7753                      .dwendtag $C$DW$T$35
    7754              
    7755              $C$DW$T$26      .dwtag  DW_TAG_pointer_type
    7756                      .dwattr $C$DW$T$26, DW_AT_type(*$C$DW$T$35)
    7757                      .dwattr $C$DW$T$26, DW_AT_address_class(0x17)
    7758              $C$DW$T$27      .dwtag  DW_TAG_typedef, DW_AT_name("QueueHandle_t")
    7759                      .dwattr $C$DW$T$27, DW_AT_type(*$C$DW$T$26)
    7760                      .dwattr $C$DW$T$27, DW_AT_language(DW_LANG_C)
    7761              $C$DW$658       .dwtag  DW_TAG_TI_far_type
    7762                      .dwattr $C$DW$658, DW_AT_type(*$C$DW$T$27)
    7763              $C$DW$T$55      .dwtag  DW_TAG_const_type
    7764                      .dwattr $C$DW$T$55, DW_AT_type(*$C$DW$658)
    7765              $C$DW$T$63      .dwtag  DW_TAG_typedef, DW_AT_name("xQUEUE")
    7766                      .dwattr $C$DW$T$63, DW_AT_type(*$C$DW$T$35)
    7767                      .dwattr $C$DW$T$63, DW_AT_language(DW_LANG_C)
    7768              $C$DW$T$64      .dwtag  DW_TAG_typedef, DW_AT_name("Queue_t")
    7769                      .dwattr $C$DW$T$64, DW_AT_type(*$C$DW$T$63)
    7770                      .dwattr $C$DW$T$64, DW_AT_language(DW_LANG_C)
    7771              $C$DW$659       .dwtag  DW_TAG_TI_far_type
    7772                      .dwattr $C$DW$659, DW_AT_type(*$C$DW$T$64)
    7773              $C$DW$T$65      .dwtag  DW_TAG_const_type
    7774                      .dwattr $C$DW$T$65, DW_AT_type(*$C$DW$659)
    7775              $C$DW$T$66      .dwtag  DW_TAG_pointer_type
    7776                      .dwattr $C$DW$T$66, DW_AT_type(*$C$DW$T$65)
TMS320C55x Assembler PC v4.4.1 Sat Sep 15 01:52:39 2018

Tools Copyright (c) 1996-2012 Texas Instruments Incorporated
queue.asm                                                            PAGE  164

    7777                      .dwattr $C$DW$T$66, DW_AT_address_class(0x17)
    7778              $C$DW$660       .dwtag  DW_TAG_TI_far_type
    7779                      .dwattr $C$DW$660, DW_AT_type(*$C$DW$T$66)
    7780              $C$DW$T$67      .dwtag  DW_TAG_const_type
    7781                      .dwattr $C$DW$T$67, DW_AT_type(*$C$DW$660)
    7782              $C$DW$T$68      .dwtag  DW_TAG_pointer_type
    7783                      .dwattr $C$DW$T$68, DW_AT_type(*$C$DW$T$64)
    7784                      .dwattr $C$DW$T$68, DW_AT_address_class(0x17)
    7785              $C$DW$661       .dwtag  DW_TAG_TI_far_type
    7786                      .dwattr $C$DW$661, DW_AT_type(*$C$DW$T$68)
    7787              $C$DW$T$69      .dwtag  DW_TAG_const_type
    7788                      .dwattr $C$DW$T$69, DW_AT_type(*$C$DW$661)
    7789              
    7790              $C$DW$T$36      .dwtag  DW_TAG_structure_type
    7791                      .dwattr $C$DW$T$36, DW_AT_name("QueuePointers")
    7792                      .dwattr $C$DW$T$36, DW_AT_byte_size(0x04)
    7793              $C$DW$662       .dwtag  DW_TAG_member
    7794                      .dwattr $C$DW$662, DW_AT_type(*$C$DW$T$30)
    7795                      .dwattr $C$DW$662, DW_AT_name("pcTail")
    7796                      .dwattr $C$DW$662, DW_AT_TI_symbol_name("_pcTail")
    7797                      .dwattr $C$DW$662, DW_AT_data_member_location[DW_OP_plus_uconst 0x0]
    7798                      .dwattr $C$DW$662, DW_AT_accessibility(DW_ACCESS_public)
    7799              $C$DW$663       .dwtag  DW_TAG_member
    7800                      .dwattr $C$DW$663, DW_AT_type(*$C$DW$T$30)
    7801                      .dwattr $C$DW$663, DW_AT_name("pcReadFrom")
    7802                      .dwattr $C$DW$663, DW_AT_TI_symbol_name("_pcReadFrom")
    7803                      .dwattr $C$DW$663, DW_AT_data_member_location[DW_OP_plus_uconst 0x2]
    7804                      .dwattr $C$DW$663, DW_AT_accessibility(DW_ACCESS_public)
    7805                      .dwendtag $C$DW$T$36
    7806              
    7807              $C$DW$T$20      .dwtag  DW_TAG_typedef, DW_AT_name("QueuePointers_t")
    7808                      .dwattr $C$DW$T$20, DW_AT_type(*$C$DW$T$36)
    7809                      .dwattr $C$DW$T$20, DW_AT_language(DW_LANG_C)
    7810              
    7811              $C$DW$T$39      .dwtag  DW_TAG_structure_type
    7812                      .dwattr $C$DW$T$39, DW_AT_name("SemaphoreData")
    7813                      .dwattr $C$DW$T$39, DW_AT_byte_size(0x04)
    7814              $C$DW$664       .dwtag  DW_TAG_member
    7815                      .dwattr $C$DW$664, DW_AT_type(*$C$DW$T$38)
    7816                      .dwattr $C$DW$664, DW_AT_name("xMutexHolder")
    7817                      .dwattr $C$DW$664, DW_AT_TI_symbol_name("_xMutexHolder")
    7818                      .dwattr $C$DW$664, DW_AT_data_member_location[DW_OP_plus_uconst 0x0]
    7819                      .dwattr $C$DW$664, DW_AT_accessibility(DW_ACCESS_public)
    7820              $C$DW$665       .dwtag  DW_TAG_member
    7821                      .dwattr $C$DW$665, DW_AT_type(*$C$DW$T$32)
    7822                      .dwattr $C$DW$665, DW_AT_name("uxRecursiveCallCount")
    7823                      .dwattr $C$DW$665, DW_AT_TI_symbol_name("_uxRecursiveCallCount")
    7824                      .dwattr $C$DW$665, DW_AT_data_member_location[DW_OP_plus_uconst 0x2]
    7825                      .dwattr $C$DW$665, DW_AT_accessibility(DW_ACCESS_public)
    7826                      .dwendtag $C$DW$T$39
    7827              
    7828              $C$DW$T$21      .dwtag  DW_TAG_typedef, DW_AT_name("SemaphoreData_t")
    7829                      .dwattr $C$DW$T$21, DW_AT_type(*$C$DW$T$39)
    7830                      .dwattr $C$DW$T$21, DW_AT_language(DW_LANG_C)
    7831              $C$DW$T$3       .dwtag  DW_TAG_pointer_type
TMS320C55x Assembler PC v4.4.1 Sat Sep 15 01:52:39 2018

Tools Copyright (c) 1996-2012 Texas Instruments Incorporated
queue.asm                                                            PAGE  165

    7832                      .dwattr $C$DW$T$3, DW_AT_address_class(0x17)
    7833              $C$DW$666       .dwtag  DW_TAG_TI_far_type
    7834                      .dwattr $C$DW$666, DW_AT_type(*$C$DW$T$3)
    7835              $C$DW$T$76      .dwtag  DW_TAG_const_type
    7836                      .dwattr $C$DW$T$76, DW_AT_type(*$C$DW$666)
    7837              $C$DW$667       .dwtag  DW_TAG_TI_far_type
    7838              $C$DW$T$70      .dwtag  DW_TAG_const_type
    7839                      .dwattr $C$DW$T$70, DW_AT_type(*$C$DW$667)
    7840              $C$DW$T$71      .dwtag  DW_TAG_pointer_type
    7841                      .dwattr $C$DW$T$71, DW_AT_type(*$C$DW$T$70)
    7842                      .dwattr $C$DW$T$71, DW_AT_address_class(0x17)
    7843              $C$DW$668       .dwtag  DW_TAG_TI_far_type
    7844                      .dwattr $C$DW$668, DW_AT_type(*$C$DW$T$71)
    7845              $C$DW$T$77      .dwtag  DW_TAG_const_type
    7846                      .dwattr $C$DW$T$77, DW_AT_type(*$C$DW$668)
    7847              $C$DW$T$4       .dwtag  DW_TAG_base_type
    7848                      .dwattr $C$DW$T$4, DW_AT_encoding(DW_ATE_boolean)
    7849                      .dwattr $C$DW$T$4, DW_AT_name("bool")
    7850                      .dwattr $C$DW$T$4, DW_AT_byte_size(0x01)
    7851              $C$DW$T$5       .dwtag  DW_TAG_base_type
    7852                      .dwattr $C$DW$T$5, DW_AT_encoding(DW_ATE_signed_char)
    7853                      .dwattr $C$DW$T$5, DW_AT_name("signed char")
    7854                      .dwattr $C$DW$T$5, DW_AT_byte_size(0x01)
    7855              $C$DW$T$29      .dwtag  DW_TAG_typedef, DW_AT_name("int8_t")
    7856                      .dwattr $C$DW$T$29, DW_AT_type(*$C$DW$T$5)
    7857                      .dwattr $C$DW$T$29, DW_AT_language(DW_LANG_C)
    7858              $C$DW$T$30      .dwtag  DW_TAG_pointer_type
    7859                      .dwattr $C$DW$T$30, DW_AT_type(*$C$DW$T$29)
    7860                      .dwattr $C$DW$T$30, DW_AT_address_class(0x17)
    7861              $C$DW$669       .dwtag  DW_TAG_TI_far_type
    7862                      .dwattr $C$DW$669, DW_AT_type(*$C$DW$T$29)
    7863              $C$DW$T$34      .dwtag  DW_TAG_volatile_type
    7864                      .dwattr $C$DW$T$34, DW_AT_type(*$C$DW$669)
    7865              $C$DW$670       .dwtag  DW_TAG_TI_far_type
    7866                      .dwattr $C$DW$670, DW_AT_type(*$C$DW$T$29)
    7867              $C$DW$T$111     .dwtag  DW_TAG_const_type
    7868                      .dwattr $C$DW$T$111, DW_AT_type(*$C$DW$670)
    7869              $C$DW$T$6       .dwtag  DW_TAG_base_type
    7870                      .dwattr $C$DW$T$6, DW_AT_encoding(DW_ATE_unsigned_char)
    7871                      .dwattr $C$DW$T$6, DW_AT_name("unsigned char")
    7872                      .dwattr $C$DW$T$6, DW_AT_byte_size(0x01)
    7873              $C$DW$T$57      .dwtag  DW_TAG_typedef, DW_AT_name("uint8_t")
    7874                      .dwattr $C$DW$T$57, DW_AT_type(*$C$DW$T$6)
    7875                      .dwattr $C$DW$T$57, DW_AT_language(DW_LANG_C)
    7876              $C$DW$T$99      .dwtag  DW_TAG_pointer_type
    7877                      .dwattr $C$DW$T$99, DW_AT_type(*$C$DW$T$57)
    7878                      .dwattr $C$DW$T$99, DW_AT_address_class(0x17)
    7879              $C$DW$671       .dwtag  DW_TAG_TI_far_type
    7880                      .dwattr $C$DW$671, DW_AT_type(*$C$DW$T$57)
    7881              $C$DW$T$58      .dwtag  DW_TAG_const_type
    7882                      .dwattr $C$DW$T$58, DW_AT_type(*$C$DW$671)
    7883              $C$DW$T$7       .dwtag  DW_TAG_base_type
    7884                      .dwattr $C$DW$T$7, DW_AT_encoding(DW_ATE_signed_char)
    7885                      .dwattr $C$DW$T$7, DW_AT_name("wchar_t")
    7886                      .dwattr $C$DW$T$7, DW_AT_byte_size(0x01)
TMS320C55x Assembler PC v4.4.1 Sat Sep 15 01:52:39 2018

Tools Copyright (c) 1996-2012 Texas Instruments Incorporated
queue.asm                                                            PAGE  166

    7887              $C$DW$T$8       .dwtag  DW_TAG_base_type
    7888                      .dwattr $C$DW$T$8, DW_AT_encoding(DW_ATE_signed)
    7889                      .dwattr $C$DW$T$8, DW_AT_name("short")
    7890                      .dwattr $C$DW$T$8, DW_AT_byte_size(0x01)
    7891              $C$DW$T$49      .dwtag  DW_TAG_typedef, DW_AT_name("BaseType_t")
    7892                      .dwattr $C$DW$T$49, DW_AT_type(*$C$DW$T$8)
    7893                      .dwattr $C$DW$T$49, DW_AT_language(DW_LANG_C)
    7894              $C$DW$672       .dwtag  DW_TAG_TI_far_type
    7895                      .dwattr $C$DW$672, DW_AT_type(*$C$DW$T$49)
    7896              $C$DW$T$112     .dwtag  DW_TAG_const_type
    7897                      .dwattr $C$DW$T$112, DW_AT_type(*$C$DW$672)
    7898              $C$DW$T$135     .dwtag  DW_TAG_pointer_type
    7899                      .dwattr $C$DW$T$135, DW_AT_type(*$C$DW$T$49)
    7900                      .dwattr $C$DW$T$135, DW_AT_address_class(0x17)
    7901              $C$DW$673       .dwtag  DW_TAG_TI_far_type
    7902                      .dwattr $C$DW$673, DW_AT_type(*$C$DW$T$135)
    7903              $C$DW$T$136     .dwtag  DW_TAG_const_type
    7904                      .dwattr $C$DW$T$136, DW_AT_type(*$C$DW$673)
    7905              $C$DW$T$9       .dwtag  DW_TAG_base_type
    7906                      .dwattr $C$DW$T$9, DW_AT_encoding(DW_ATE_unsigned)
    7907                      .dwattr $C$DW$T$9, DW_AT_name("unsigned short")
    7908                      .dwattr $C$DW$T$9, DW_AT_byte_size(0x01)
    7909              $C$DW$T$32      .dwtag  DW_TAG_typedef, DW_AT_name("UBaseType_t")
    7910                      .dwattr $C$DW$T$32, DW_AT_type(*$C$DW$T$9)
    7911                      .dwattr $C$DW$T$32, DW_AT_language(DW_LANG_C)
    7912              $C$DW$674       .dwtag  DW_TAG_TI_far_type
    7913                      .dwattr $C$DW$674, DW_AT_type(*$C$DW$T$32)
    7914              $C$DW$T$33      .dwtag  DW_TAG_volatile_type
    7915                      .dwattr $C$DW$T$33, DW_AT_type(*$C$DW$674)
    7916              $C$DW$675       .dwtag  DW_TAG_TI_far_type
    7917                      .dwattr $C$DW$675, DW_AT_type(*$C$DW$T$32)
    7918              $C$DW$T$56      .dwtag  DW_TAG_const_type
    7919                      .dwattr $C$DW$T$56, DW_AT_type(*$C$DW$675)
    7920              $C$DW$T$10      .dwtag  DW_TAG_base_type
    7921                      .dwattr $C$DW$T$10, DW_AT_encoding(DW_ATE_signed)
    7922                      .dwattr $C$DW$T$10, DW_AT_name("int")
    7923                      .dwattr $C$DW$T$10, DW_AT_byte_size(0x01)
    7924              $C$DW$T$11      .dwtag  DW_TAG_base_type
    7925                      .dwattr $C$DW$T$11, DW_AT_encoding(DW_ATE_unsigned)
    7926                      .dwattr $C$DW$T$11, DW_AT_name("unsigned int")
    7927                      .dwattr $C$DW$T$11, DW_AT_byte_size(0x01)
    7928              $C$DW$676       .dwtag  DW_TAG_TI_far_type
    7929                      .dwattr $C$DW$676, DW_AT_type(*$C$DW$T$11)
    7930              $C$DW$T$155     .dwtag  DW_TAG_volatile_type
    7931                      .dwattr $C$DW$T$155, DW_AT_type(*$C$DW$676)
    7932              $C$DW$T$72      .dwtag  DW_TAG_typedef, DW_AT_name("size_t")
    7933                      .dwattr $C$DW$T$72, DW_AT_type(*$C$DW$T$11)
    7934                      .dwattr $C$DW$T$72, DW_AT_language(DW_LANG_C)
    7935              $C$DW$T$12      .dwtag  DW_TAG_base_type
    7936                      .dwattr $C$DW$T$12, DW_AT_encoding(DW_ATE_signed)
    7937                      .dwattr $C$DW$T$12, DW_AT_name("long")
    7938                      .dwattr $C$DW$T$12, DW_AT_byte_size(0x02)
    7939              $C$DW$T$13      .dwtag  DW_TAG_base_type
    7940                      .dwattr $C$DW$T$13, DW_AT_encoding(DW_ATE_unsigned)
    7941                      .dwattr $C$DW$T$13, DW_AT_name("unsigned long")
TMS320C55x Assembler PC v4.4.1 Sat Sep 15 01:52:39 2018

Tools Copyright (c) 1996-2012 Texas Instruments Incorporated
queue.asm                                                            PAGE  167

    7942                      .dwattr $C$DW$T$13, DW_AT_byte_size(0x02)
    7943              $C$DW$T$44      .dwtag  DW_TAG_typedef, DW_AT_name("TickType_t")
    7944                      .dwattr $C$DW$T$44, DW_AT_type(*$C$DW$T$13)
    7945                      .dwattr $C$DW$T$44, DW_AT_language(DW_LANG_C)
    7946              $C$DW$677       .dwtag  DW_TAG_TI_far_type
    7947                      .dwattr $C$DW$677, DW_AT_type(*$C$DW$T$44)
    7948              $C$DW$T$86      .dwtag  DW_TAG_const_type
    7949                      .dwattr $C$DW$T$86, DW_AT_type(*$C$DW$677)
    7950              $C$DW$T$120     .dwtag  DW_TAG_pointer_type
    7951                      .dwattr $C$DW$T$120, DW_AT_type(*$C$DW$T$44)
    7952                      .dwattr $C$DW$T$120, DW_AT_address_class(0x17)
    7953              $C$DW$678       .dwtag  DW_TAG_TI_far_type
    7954                      .dwattr $C$DW$678, DW_AT_type(*$C$DW$T$120)
    7955              $C$DW$T$121     .dwtag  DW_TAG_const_type
    7956                      .dwattr $C$DW$T$121, DW_AT_type(*$C$DW$678)
    7957              $C$DW$T$14      .dwtag  DW_TAG_base_type
    7958                      .dwattr $C$DW$T$14, DW_AT_encoding(DW_ATE_signed)
    7959                      .dwattr $C$DW$T$14, DW_AT_name("long long")
    7960                      .dwattr $C$DW$T$14, DW_AT_byte_size(0x04)
    7961                      .dwattr $C$DW$T$14, DW_AT_bit_size(0x28)
    7962                      .dwattr $C$DW$T$14, DW_AT_bit_offset(0x18)
    7963              $C$DW$T$15      .dwtag  DW_TAG_base_type
    7964                      .dwattr $C$DW$T$15, DW_AT_encoding(DW_ATE_unsigned)
    7965                      .dwattr $C$DW$T$15, DW_AT_name("unsigned long long")
    7966                      .dwattr $C$DW$T$15, DW_AT_byte_size(0x04)
    7967                      .dwattr $C$DW$T$15, DW_AT_bit_size(0x28)
    7968                      .dwattr $C$DW$T$15, DW_AT_bit_offset(0x18)
    7969              $C$DW$T$16      .dwtag  DW_TAG_base_type
    7970                      .dwattr $C$DW$T$16, DW_AT_encoding(DW_ATE_float)
    7971                      .dwattr $C$DW$T$16, DW_AT_name("float")
    7972                      .dwattr $C$DW$T$16, DW_AT_byte_size(0x02)
    7973              $C$DW$T$17      .dwtag  DW_TAG_base_type
    7974                      .dwattr $C$DW$T$17, DW_AT_encoding(DW_ATE_float)
    7975                      .dwattr $C$DW$T$17, DW_AT_name("double")
    7976                      .dwattr $C$DW$T$17, DW_AT_byte_size(0x02)
    7977              $C$DW$T$18      .dwtag  DW_TAG_base_type
    7978                      .dwattr $C$DW$T$18, DW_AT_encoding(DW_ATE_float)
    7979                      .dwattr $C$DW$T$18, DW_AT_name("long double")
    7980                      .dwattr $C$DW$T$18, DW_AT_byte_size(0x02)
    7981              $C$DW$T$23      .dwtag  DW_TAG_base_type
    7982                      .dwattr $C$DW$T$23, DW_AT_encoding(DW_ATE_signed_char)
    7983                      .dwattr $C$DW$T$23, DW_AT_name("signed char")
    7984                      .dwattr $C$DW$T$23, DW_AT_byte_size(0x01)
    7985              $C$DW$679       .dwtag  DW_TAG_TI_far_type
    7986                      .dwattr $C$DW$679, DW_AT_type(*$C$DW$T$23)
    7987              $C$DW$T$24      .dwtag  DW_TAG_const_type
    7988                      .dwattr $C$DW$T$24, DW_AT_type(*$C$DW$679)
    7989              $C$DW$T$25      .dwtag  DW_TAG_pointer_type
    7990                      .dwattr $C$DW$T$25, DW_AT_type(*$C$DW$T$24)
    7991                      .dwattr $C$DW$T$25, DW_AT_address_class(0x17)
    7992              
    7993              $C$DW$T$19      .dwtag  DW_TAG_structure_type
    7994                      .dwattr $C$DW$T$19, DW_AT_name("tskTaskControlBlock")
    7995                      .dwattr $C$DW$T$19, DW_AT_declaration
    7996                      .dwendtag $C$DW$T$19
TMS320C55x Assembler PC v4.4.1 Sat Sep 15 01:52:39 2018

Tools Copyright (c) 1996-2012 Texas Instruments Incorporated
queue.asm                                                            PAGE  168

    7997              
    7998              $C$DW$T$37      .dwtag  DW_TAG_pointer_type
    7999                      .dwattr $C$DW$T$37, DW_AT_type(*$C$DW$T$19)
    8000                      .dwattr $C$DW$T$37, DW_AT_address_class(0x17)
    8001              $C$DW$T$38      .dwtag  DW_TAG_typedef, DW_AT_name("TaskHandle_t")
    8002                      .dwattr $C$DW$T$38, DW_AT_type(*$C$DW$T$37)
    8003                      .dwattr $C$DW$T$38, DW_AT_language(DW_LANG_C)
    8004              $C$DW$680       .dwtag  DW_TAG_TI_far_type
    8005                      .dwattr $C$DW$680, DW_AT_type(*$C$DW$T$38)
    8006              $C$DW$T$89      .dwtag  DW_TAG_const_type
    8007                      .dwattr $C$DW$T$89, DW_AT_type(*$C$DW$680)
    8008              
    8009              $C$DW$T$43      .dwtag  DW_TAG_structure_type
    8010                      .dwattr $C$DW$T$43, DW_AT_name("xLIST")
    8011                      .dwattr $C$DW$T$43, DW_AT_byte_size(0x0a)
    8012              $C$DW$681       .dwtag  DW_TAG_member
    8013                      .dwattr $C$DW$681, DW_AT_type(*$C$DW$T$33)
    8014                      .dwattr $C$DW$681, DW_AT_name("uxNumberOfItems")
    8015                      .dwattr $C$DW$681, DW_AT_TI_symbol_name("_uxNumberOfItems")
    8016                      .dwattr $C$DW$681, DW_AT_data_member_location[DW_OP_plus_uconst 0x0]
    8017                      .dwattr $C$DW$681, DW_AT_accessibility(DW_ACCESS_public)
    8018              $C$DW$682       .dwtag  DW_TAG_member
    8019                      .dwattr $C$DW$682, DW_AT_type(*$C$DW$T$41)
    8020                      .dwattr $C$DW$682, DW_AT_name("pxIndex")
    8021                      .dwattr $C$DW$682, DW_AT_TI_symbol_name("_pxIndex")
    8022                      .dwattr $C$DW$682, DW_AT_data_member_location[DW_OP_plus_uconst 0x2]
    8023                      .dwattr $C$DW$682, DW_AT_accessibility(DW_ACCESS_public)
    8024              $C$DW$683       .dwtag  DW_TAG_member
    8025                      .dwattr $C$DW$683, DW_AT_type(*$C$DW$T$42)
    8026                      .dwattr $C$DW$683, DW_AT_name("xListEnd")
    8027                      .dwattr $C$DW$683, DW_AT_TI_symbol_name("_xListEnd")
    8028                      .dwattr $C$DW$683, DW_AT_data_member_location[DW_OP_plus_uconst 0x4]
    8029                      .dwattr $C$DW$683, DW_AT_accessibility(DW_ACCESS_public)
    8030                      .dwendtag $C$DW$T$43
    8031              
    8032              $C$DW$T$31      .dwtag  DW_TAG_typedef, DW_AT_name("List_t")
    8033                      .dwattr $C$DW$T$31, DW_AT_type(*$C$DW$T$43)
    8034                      .dwattr $C$DW$T$31, DW_AT_language(DW_LANG_C)
    8035              $C$DW$684       .dwtag  DW_TAG_TI_far_type
    8036                      .dwattr $C$DW$684, DW_AT_type(*$C$DW$T$31)
    8037              $C$DW$T$115     .dwtag  DW_TAG_const_type
    8038                      .dwattr $C$DW$T$115, DW_AT_type(*$C$DW$684)
    8039              $C$DW$T$116     .dwtag  DW_TAG_pointer_type
    8040                      .dwattr $C$DW$T$116, DW_AT_type(*$C$DW$T$115)
    8041                      .dwattr $C$DW$T$116, DW_AT_address_class(0x17)
    8042              $C$DW$685       .dwtag  DW_TAG_TI_far_type
    8043                      .dwattr $C$DW$685, DW_AT_type(*$C$DW$T$116)
    8044              $C$DW$T$117     .dwtag  DW_TAG_const_type
    8045                      .dwattr $C$DW$T$117, DW_AT_type(*$C$DW$685)
    8046              $C$DW$T$82      .dwtag  DW_TAG_pointer_type
    8047                      .dwattr $C$DW$T$82, DW_AT_type(*$C$DW$T$31)
    8048                      .dwattr $C$DW$T$82, DW_AT_address_class(0x17)
    8049              $C$DW$686       .dwtag  DW_TAG_TI_far_type
    8050                      .dwattr $C$DW$686, DW_AT_type(*$C$DW$T$82)
    8051              $C$DW$T$83      .dwtag  DW_TAG_const_type
TMS320C55x Assembler PC v4.4.1 Sat Sep 15 01:52:39 2018

Tools Copyright (c) 1996-2012 Texas Instruments Incorporated
queue.asm                                                            PAGE  169

    8052                      .dwattr $C$DW$T$83, DW_AT_type(*$C$DW$686)
    8053              $C$DW$T$46      .dwtag  DW_TAG_pointer_type
    8054                      .dwattr $C$DW$T$46, DW_AT_type(*$C$DW$T$43)
    8055                      .dwattr $C$DW$T$46, DW_AT_address_class(0x17)
    8056              
    8057              $C$DW$T$47      .dwtag  DW_TAG_structure_type
    8058                      .dwattr $C$DW$T$47, DW_AT_name("xLIST_ITEM")
    8059                      .dwattr $C$DW$T$47, DW_AT_byte_size(0x0a)
    8060              $C$DW$687       .dwtag  DW_TAG_member
    8061                      .dwattr $C$DW$687, DW_AT_type(*$C$DW$T$44)
    8062                      .dwattr $C$DW$687, DW_AT_name("xItemValue")
    8063                      .dwattr $C$DW$687, DW_AT_TI_symbol_name("_xItemValue")
    8064                      .dwattr $C$DW$687, DW_AT_data_member_location[DW_OP_plus_uconst 0x0]
    8065                      .dwattr $C$DW$687, DW_AT_accessibility(DW_ACCESS_public)
    8066              $C$DW$688       .dwtag  DW_TAG_member
    8067                      .dwattr $C$DW$688, DW_AT_type(*$C$DW$T$45)
    8068                      .dwattr $C$DW$688, DW_AT_name("pxNext")
    8069                      .dwattr $C$DW$688, DW_AT_TI_symbol_name("_pxNext")
    8070                      .dwattr $C$DW$688, DW_AT_data_member_location[DW_OP_plus_uconst 0x2]
    8071                      .dwattr $C$DW$688, DW_AT_accessibility(DW_ACCESS_public)
    8072              $C$DW$689       .dwtag  DW_TAG_member
    8073                      .dwattr $C$DW$689, DW_AT_type(*$C$DW$T$45)
    8074                      .dwattr $C$DW$689, DW_AT_name("pxPrevious")
    8075                      .dwattr $C$DW$689, DW_AT_TI_symbol_name("_pxPrevious")
    8076                      .dwattr $C$DW$689, DW_AT_data_member_location[DW_OP_plus_uconst 0x4]
    8077                      .dwattr $C$DW$689, DW_AT_accessibility(DW_ACCESS_public)
    8078              $C$DW$690       .dwtag  DW_TAG_member
    8079                      .dwattr $C$DW$690, DW_AT_type(*$C$DW$T$3)
    8080                      .dwattr $C$DW$690, DW_AT_name("pvOwner")
    8081                      .dwattr $C$DW$690, DW_AT_TI_symbol_name("_pvOwner")
    8082                      .dwattr $C$DW$690, DW_AT_data_member_location[DW_OP_plus_uconst 0x6]
    8083                      .dwattr $C$DW$690, DW_AT_accessibility(DW_ACCESS_public)
    8084              $C$DW$691       .dwtag  DW_TAG_member
    8085                      .dwattr $C$DW$691, DW_AT_type(*$C$DW$T$46)
    8086                      .dwattr $C$DW$691, DW_AT_name("pvContainer")
    8087                      .dwattr $C$DW$691, DW_AT_TI_symbol_name("_pvContainer")
    8088                      .dwattr $C$DW$691, DW_AT_data_member_location[DW_OP_plus_uconst 0x8]
    8089                      .dwattr $C$DW$691, DW_AT_accessibility(DW_ACCESS_public)
    8090                      .dwendtag $C$DW$T$47
    8091              
    8092              $C$DW$T$40      .dwtag  DW_TAG_typedef, DW_AT_name("ListItem_t")
    8093                      .dwattr $C$DW$T$40, DW_AT_type(*$C$DW$T$47)
    8094                      .dwattr $C$DW$T$40, DW_AT_language(DW_LANG_C)
    8095              $C$DW$T$41      .dwtag  DW_TAG_pointer_type
    8096                      .dwattr $C$DW$T$41, DW_AT_type(*$C$DW$T$40)
    8097                      .dwattr $C$DW$T$41, DW_AT_address_class(0x17)
    8098              $C$DW$T$45      .dwtag  DW_TAG_pointer_type
    8099                      .dwattr $C$DW$T$45, DW_AT_type(*$C$DW$T$47)
    8100                      .dwattr $C$DW$T$45, DW_AT_address_class(0x17)
    8101              
    8102              $C$DW$T$48      .dwtag  DW_TAG_structure_type
    8103                      .dwattr $C$DW$T$48, DW_AT_name("xMINI_LIST_ITEM")
    8104                      .dwattr $C$DW$T$48, DW_AT_byte_size(0x06)
    8105              $C$DW$692       .dwtag  DW_TAG_member
    8106                      .dwattr $C$DW$692, DW_AT_type(*$C$DW$T$44)
TMS320C55x Assembler PC v4.4.1 Sat Sep 15 01:52:39 2018

Tools Copyright (c) 1996-2012 Texas Instruments Incorporated
queue.asm                                                            PAGE  170

    8107                      .dwattr $C$DW$692, DW_AT_name("xItemValue")
    8108                      .dwattr $C$DW$692, DW_AT_TI_symbol_name("_xItemValue")
    8109                      .dwattr $C$DW$692, DW_AT_data_member_location[DW_OP_plus_uconst 0x0]
    8110                      .dwattr $C$DW$692, DW_AT_accessibility(DW_ACCESS_public)
    8111              $C$DW$693       .dwtag  DW_TAG_member
    8112                      .dwattr $C$DW$693, DW_AT_type(*$C$DW$T$45)
    8113                      .dwattr $C$DW$693, DW_AT_name("pxNext")
    8114                      .dwattr $C$DW$693, DW_AT_TI_symbol_name("_pxNext")
    8115                      .dwattr $C$DW$693, DW_AT_data_member_location[DW_OP_plus_uconst 0x2]
    8116                      .dwattr $C$DW$693, DW_AT_accessibility(DW_ACCESS_public)
    8117              $C$DW$694       .dwtag  DW_TAG_member
    8118                      .dwattr $C$DW$694, DW_AT_type(*$C$DW$T$45)
    8119                      .dwattr $C$DW$694, DW_AT_name("pxPrevious")
    8120                      .dwattr $C$DW$694, DW_AT_TI_symbol_name("_pxPrevious")
    8121                      .dwattr $C$DW$694, DW_AT_data_member_location[DW_OP_plus_uconst 0x4]
    8122                      .dwattr $C$DW$694, DW_AT_accessibility(DW_ACCESS_public)
    8123                      .dwendtag $C$DW$T$48
    8124              
    8125              $C$DW$T$42      .dwtag  DW_TAG_typedef, DW_AT_name("MiniListItem_t")
    8126                      .dwattr $C$DW$T$42, DW_AT_type(*$C$DW$T$48)
    8127                      .dwattr $C$DW$T$42, DW_AT_language(DW_LANG_C)
    8128              
    8129              $C$DW$T$50      .dwtag  DW_TAG_structure_type
    8130                      .dwattr $C$DW$T$50, DW_AT_name("xTIME_OUT")
    8131                      .dwattr $C$DW$T$50, DW_AT_byte_size(0x04)
    8132              $C$DW$695       .dwtag  DW_TAG_member
    8133                      .dwattr $C$DW$695, DW_AT_type(*$C$DW$T$49)
    8134                      .dwattr $C$DW$695, DW_AT_name("xOverflowCount")
    8135                      .dwattr $C$DW$695, DW_AT_TI_symbol_name("_xOverflowCount")
    8136                      .dwattr $C$DW$695, DW_AT_data_member_location[DW_OP_plus_uconst 0x0]
    8137                      .dwattr $C$DW$695, DW_AT_accessibility(DW_ACCESS_public)
    8138              $C$DW$696       .dwtag  DW_TAG_member
    8139                      .dwattr $C$DW$696, DW_AT_type(*$C$DW$T$44)
    8140                      .dwattr $C$DW$696, DW_AT_name("xTimeOnEntering")
    8141                      .dwattr $C$DW$696, DW_AT_TI_symbol_name("_xTimeOnEntering")
    8142                      .dwattr $C$DW$696, DW_AT_data_member_location[DW_OP_plus_uconst 0x2]
    8143                      .dwattr $C$DW$696, DW_AT_accessibility(DW_ACCESS_public)
    8144                      .dwendtag $C$DW$T$50
    8145              
    8146              $C$DW$T$92      .dwtag  DW_TAG_typedef, DW_AT_name("TimeOut_t")
    8147                      .dwattr $C$DW$T$92, DW_AT_type(*$C$DW$T$50)
    8148                      .dwattr $C$DW$T$92, DW_AT_language(DW_LANG_C)
    8149              $C$DW$T$93      .dwtag  DW_TAG_pointer_type
    8150                      .dwattr $C$DW$T$93, DW_AT_type(*$C$DW$T$92)
    8151                      .dwattr $C$DW$T$93, DW_AT_address_class(0x17)
    8152              $C$DW$697       .dwtag  DW_TAG_TI_far_type
    8153                      .dwattr $C$DW$697, DW_AT_type(*$C$DW$T$93)
    8154              $C$DW$T$94      .dwtag  DW_TAG_const_type
    8155                      .dwattr $C$DW$T$94, DW_AT_type(*$C$DW$697)
    8156                      .dwattr $C$DW$CU, DW_AT_language(DW_LANG_C)
    8157              
    8158              ;***************************************************************
    8159              ;* DWARF CIE ENTRIES                                           *
    8160              ;***************************************************************
    8161              
TMS320C55x Assembler PC v4.4.1 Sat Sep 15 01:52:39 2018

Tools Copyright (c) 1996-2012 Texas Instruments Incorporated
queue.asm                                                            PAGE  171

    8162              $C$DW$CIE       .dwcie 91
    8163                      .dwcfi  cfa_register, 36
    8164                      .dwcfi  cfa_offset, 0
    8165                      .dwcfi  undefined, 0
    8166                      .dwcfi  undefined, 1
    8167                      .dwcfi  undefined, 2
    8168                      .dwcfi  undefined, 3
    8169                      .dwcfi  undefined, 4
    8170                      .dwcfi  undefined, 5
    8171                      .dwcfi  undefined, 6
    8172                      .dwcfi  undefined, 7
    8173                      .dwcfi  undefined, 8
    8174                      .dwcfi  undefined, 9
    8175                      .dwcfi  undefined, 10
    8176                      .dwcfi  undefined, 11
    8177                      .dwcfi  undefined, 12
    8178                      .dwcfi  undefined, 13
    8179                      .dwcfi  same_value, 14
    8180                      .dwcfi  same_value, 15
    8181                      .dwcfi  undefined, 16
    8182                      .dwcfi  undefined, 17
    8183                      .dwcfi  undefined, 18
    8184                      .dwcfi  undefined, 19
    8185                      .dwcfi  undefined, 20
    8186                      .dwcfi  undefined, 21
    8187                      .dwcfi  undefined, 22
    8188                      .dwcfi  undefined, 23
    8189                      .dwcfi  undefined, 24
    8190                      .dwcfi  undefined, 25
    8191                      .dwcfi  same_value, 26
    8192                      .dwcfi  same_value, 27
    8193                      .dwcfi  same_value, 28
    8194                      .dwcfi  same_value, 29
    8195                      .dwcfi  same_value, 30
    8196                      .dwcfi  same_value, 31
    8197                      .dwcfi  undefined, 32
    8198                      .dwcfi  undefined, 33
    8199                      .dwcfi  undefined, 34
    8200                      .dwcfi  undefined, 35
    8201                      .dwcfi  undefined, 36
    8202                      .dwcfi  undefined, 37
    8203                      .dwcfi  undefined, 38
    8204                      .dwcfi  undefined, 39
    8205                      .dwcfi  undefined, 40
    8206                      .dwcfi  undefined, 41
    8207                      .dwcfi  undefined, 42
    8208                      .dwcfi  undefined, 43
    8209                      .dwcfi  undefined, 44
    8210                      .dwcfi  undefined, 45
    8211                      .dwcfi  undefined, 46
    8212                      .dwcfi  undefined, 47
    8213                      .dwcfi  undefined, 48
    8214                      .dwcfi  undefined, 49
    8215                      .dwcfi  undefined, 50
    8216                      .dwcfi  undefined, 51
TMS320C55x Assembler PC v4.4.1 Sat Sep 15 01:52:39 2018

Tools Copyright (c) 1996-2012 Texas Instruments Incorporated
queue.asm                                                            PAGE  172

    8217                      .dwcfi  undefined, 52
    8218                      .dwcfi  undefined, 53
    8219                      .dwcfi  undefined, 54
    8220                      .dwcfi  undefined, 55
    8221                      .dwcfi  undefined, 56
    8222                      .dwcfi  undefined, 57
    8223                      .dwcfi  undefined, 58
    8224                      .dwcfi  undefined, 59
    8225                      .dwcfi  undefined, 60
    8226                      .dwcfi  undefined, 61
    8227                      .dwcfi  undefined, 62
    8228                      .dwcfi  undefined, 63
    8229                      .dwcfi  undefined, 64
    8230                      .dwcfi  undefined, 65
    8231                      .dwcfi  undefined, 66
    8232                      .dwcfi  undefined, 67
    8233                      .dwcfi  undefined, 68
    8234                      .dwcfi  undefined, 69
    8235                      .dwcfi  undefined, 70
    8236                      .dwcfi  undefined, 71
    8237                      .dwcfi  undefined, 72
    8238                      .dwcfi  undefined, 73
    8239                      .dwcfi  undefined, 74
    8240                      .dwcfi  undefined, 75
    8241                      .dwcfi  undefined, 76
    8242                      .dwcfi  undefined, 77
    8243                      .dwcfi  undefined, 78
    8244                      .dwcfi  undefined, 79
    8245                      .dwcfi  undefined, 80
    8246                      .dwcfi  undefined, 81
    8247                      .dwcfi  undefined, 82
    8248                      .dwcfi  undefined, 83
    8249                      .dwcfi  undefined, 84
    8250                      .dwcfi  undefined, 85
    8251                      .dwcfi  undefined, 86
    8252                      .dwcfi  undefined, 87
    8253                      .dwcfi  undefined, 88
    8254                      .dwcfi  undefined, 89
    8255                      .dwcfi  undefined, 90
    8256                      .dwcfi  undefined, 91
    8257                      .dwendentry
    8258              
    8259              ;***************************************************************
    8260              ;* DWARF REGISTER MAP                                          *
    8261              ;***************************************************************
    8262              
    8263              $C$DW$698       .dwtag  DW_TAG_TI_assign_register, DW_AT_name("AC0")
    8264                      .dwattr $C$DW$698, DW_AT_location[DW_OP_reg0]
    8265              $C$DW$699       .dwtag  DW_TAG_TI_assign_register, DW_AT_name("AC0")
    8266                      .dwattr $C$DW$699, DW_AT_location[DW_OP_reg1]
    8267              $C$DW$700       .dwtag  DW_TAG_TI_assign_register, DW_AT_name("AC0_G")
    8268                      .dwattr $C$DW$700, DW_AT_location[DW_OP_reg2]
    8269              $C$DW$701       .dwtag  DW_TAG_TI_assign_register, DW_AT_name("AC1")
    8270                      .dwattr $C$DW$701, DW_AT_location[DW_OP_reg3]
    8271              $C$DW$702       .dwtag  DW_TAG_TI_assign_register, DW_AT_name("AC1")
TMS320C55x Assembler PC v4.4.1 Sat Sep 15 01:52:39 2018

Tools Copyright (c) 1996-2012 Texas Instruments Incorporated
queue.asm                                                            PAGE  173

    8272                      .dwattr $C$DW$702, DW_AT_location[DW_OP_reg4]
    8273              $C$DW$703       .dwtag  DW_TAG_TI_assign_register, DW_AT_name("AC1_G")
    8274                      .dwattr $C$DW$703, DW_AT_location[DW_OP_reg5]
    8275              $C$DW$704       .dwtag  DW_TAG_TI_assign_register, DW_AT_name("AC2")
    8276                      .dwattr $C$DW$704, DW_AT_location[DW_OP_reg6]
    8277              $C$DW$705       .dwtag  DW_TAG_TI_assign_register, DW_AT_name("AC2")
    8278                      .dwattr $C$DW$705, DW_AT_location[DW_OP_reg7]
    8279              $C$DW$706       .dwtag  DW_TAG_TI_assign_register, DW_AT_name("AC2_G")
    8280                      .dwattr $C$DW$706, DW_AT_location[DW_OP_reg8]
    8281              $C$DW$707       .dwtag  DW_TAG_TI_assign_register, DW_AT_name("AC3")
    8282                      .dwattr $C$DW$707, DW_AT_location[DW_OP_reg9]
    8283              $C$DW$708       .dwtag  DW_TAG_TI_assign_register, DW_AT_name("AC3")
    8284                      .dwattr $C$DW$708, DW_AT_location[DW_OP_reg10]
    8285              $C$DW$709       .dwtag  DW_TAG_TI_assign_register, DW_AT_name("AC3_G")
    8286                      .dwattr $C$DW$709, DW_AT_location[DW_OP_reg11]
    8287              $C$DW$710       .dwtag  DW_TAG_TI_assign_register, DW_AT_name("T0")
    8288                      .dwattr $C$DW$710, DW_AT_location[DW_OP_reg12]
    8289              $C$DW$711       .dwtag  DW_TAG_TI_assign_register, DW_AT_name("T1")
    8290                      .dwattr $C$DW$711, DW_AT_location[DW_OP_reg13]
    8291              $C$DW$712       .dwtag  DW_TAG_TI_assign_register, DW_AT_name("T2")
    8292                      .dwattr $C$DW$712, DW_AT_location[DW_OP_reg14]
    8293              $C$DW$713       .dwtag  DW_TAG_TI_assign_register, DW_AT_name("T3")
    8294                      .dwattr $C$DW$713, DW_AT_location[DW_OP_reg15]
    8295              $C$DW$714       .dwtag  DW_TAG_TI_assign_register, DW_AT_name("AR0")
    8296                      .dwattr $C$DW$714, DW_AT_location[DW_OP_reg16]
    8297              $C$DW$715       .dwtag  DW_TAG_TI_assign_register, DW_AT_name("XAR0")
    8298                      .dwattr $C$DW$715, DW_AT_location[DW_OP_reg17]
    8299              $C$DW$716       .dwtag  DW_TAG_TI_assign_register, DW_AT_name("AR1")
    8300                      .dwattr $C$DW$716, DW_AT_location[DW_OP_reg18]
    8301              $C$DW$717       .dwtag  DW_TAG_TI_assign_register, DW_AT_name("XAR1")
    8302                      .dwattr $C$DW$717, DW_AT_location[DW_OP_reg19]
    8303              $C$DW$718       .dwtag  DW_TAG_TI_assign_register, DW_AT_name("AR2")
    8304                      .dwattr $C$DW$718, DW_AT_location[DW_OP_reg20]
    8305              $C$DW$719       .dwtag  DW_TAG_TI_assign_register, DW_AT_name("XAR2")
    8306                      .dwattr $C$DW$719, DW_AT_location[DW_OP_reg21]
    8307              $C$DW$720       .dwtag  DW_TAG_TI_assign_register, DW_AT_name("AR3")
    8308                      .dwattr $C$DW$720, DW_AT_location[DW_OP_reg22]
    8309              $C$DW$721       .dwtag  DW_TAG_TI_assign_register, DW_AT_name("XAR3")
    8310                      .dwattr $C$DW$721, DW_AT_location[DW_OP_reg23]
    8311              $C$DW$722       .dwtag  DW_TAG_TI_assign_register, DW_AT_name("AR4")
    8312                      .dwattr $C$DW$722, DW_AT_location[DW_OP_reg24]
    8313              $C$DW$723       .dwtag  DW_TAG_TI_assign_register, DW_AT_name("XAR4")
    8314                      .dwattr $C$DW$723, DW_AT_location[DW_OP_reg25]
    8315              $C$DW$724       .dwtag  DW_TAG_TI_assign_register, DW_AT_name("AR5")
    8316                      .dwattr $C$DW$724, DW_AT_location[DW_OP_reg26]
    8317              $C$DW$725       .dwtag  DW_TAG_TI_assign_register, DW_AT_name("XAR5")
    8318                      .dwattr $C$DW$725, DW_AT_location[DW_OP_reg27]
    8319              $C$DW$726       .dwtag  DW_TAG_TI_assign_register, DW_AT_name("AR6")
    8320                      .dwattr $C$DW$726, DW_AT_location[DW_OP_reg28]
    8321              $C$DW$727       .dwtag  DW_TAG_TI_assign_register, DW_AT_name("XAR6")
    8322                      .dwattr $C$DW$727, DW_AT_location[DW_OP_reg29]
    8323              $C$DW$728       .dwtag  DW_TAG_TI_assign_register, DW_AT_name("AR7")
    8324                      .dwattr $C$DW$728, DW_AT_location[DW_OP_reg30]
    8325              $C$DW$729       .dwtag  DW_TAG_TI_assign_register, DW_AT_name("XAR7")
    8326                      .dwattr $C$DW$729, DW_AT_location[DW_OP_reg31]
TMS320C55x Assembler PC v4.4.1 Sat Sep 15 01:52:39 2018

Tools Copyright (c) 1996-2012 Texas Instruments Incorporated
queue.asm                                                            PAGE  174

    8327              $C$DW$730       .dwtag  DW_TAG_TI_assign_register, DW_AT_name("FP")
    8328                      .dwattr $C$DW$730, DW_AT_location[DW_OP_regx 0x20]
    8329              $C$DW$731       .dwtag  DW_TAG_TI_assign_register, DW_AT_name("XFP")
    8330                      .dwattr $C$DW$731, DW_AT_location[DW_OP_regx 0x21]
    8331              $C$DW$732       .dwtag  DW_TAG_TI_assign_register, DW_AT_name("PC")
    8332                      .dwattr $C$DW$732, DW_AT_location[DW_OP_regx 0x22]
    8333              $C$DW$733       .dwtag  DW_TAG_TI_assign_register, DW_AT_name("SP")
    8334                      .dwattr $C$DW$733, DW_AT_location[DW_OP_regx 0x23]
    8335              $C$DW$734       .dwtag  DW_TAG_TI_assign_register, DW_AT_name("XSP")
    8336                      .dwattr $C$DW$734, DW_AT_location[DW_OP_regx 0x24]
    8337              $C$DW$735       .dwtag  DW_TAG_TI_assign_register, DW_AT_name("BKC")
    8338                      .dwattr $C$DW$735, DW_AT_location[DW_OP_regx 0x25]
    8339              $C$DW$736       .dwtag  DW_TAG_TI_assign_register, DW_AT_name("BK03")
    8340                      .dwattr $C$DW$736, DW_AT_location[DW_OP_regx 0x26]
    8341              $C$DW$737       .dwtag  DW_TAG_TI_assign_register, DW_AT_name("BK47")
    8342                      .dwattr $C$DW$737, DW_AT_location[DW_OP_regx 0x27]
    8343              $C$DW$738       .dwtag  DW_TAG_TI_assign_register, DW_AT_name("ST0")
    8344                      .dwattr $C$DW$738, DW_AT_location[DW_OP_regx 0x28]
    8345              $C$DW$739       .dwtag  DW_TAG_TI_assign_register, DW_AT_name("ST1")
    8346                      .dwattr $C$DW$739, DW_AT_location[DW_OP_regx 0x29]
    8347              $C$DW$740       .dwtag  DW_TAG_TI_assign_register, DW_AT_name("ST2")
    8348                      .dwattr $C$DW$740, DW_AT_location[DW_OP_regx 0x2a]
    8349              $C$DW$741       .dwtag  DW_TAG_TI_assign_register, DW_AT_name("ST3")
    8350                      .dwattr $C$DW$741, DW_AT_location[DW_OP_regx 0x2b]
    8351              $C$DW$742       .dwtag  DW_TAG_TI_assign_register, DW_AT_name("MDP")
    8352                      .dwattr $C$DW$742, DW_AT_location[DW_OP_regx 0x2c]
    8353              $C$DW$743       .dwtag  DW_TAG_TI_assign_register, DW_AT_name("MDP05")
    8354                      .dwattr $C$DW$743, DW_AT_location[DW_OP_regx 0x2d]
    8355              $C$DW$744       .dwtag  DW_TAG_TI_assign_register, DW_AT_name("MDP67")
    8356                      .dwattr $C$DW$744, DW_AT_location[DW_OP_regx 0x2e]
    8357              $C$DW$745       .dwtag  DW_TAG_TI_assign_register, DW_AT_name("BRC0")
    8358                      .dwattr $C$DW$745, DW_AT_location[DW_OP_regx 0x2f]
    8359              $C$DW$746       .dwtag  DW_TAG_TI_assign_register, DW_AT_name("RSA0")
    8360                      .dwattr $C$DW$746, DW_AT_location[DW_OP_regx 0x30]
    8361              $C$DW$747       .dwtag  DW_TAG_TI_assign_register, DW_AT_name("RSA0_H")
    8362                      .dwattr $C$DW$747, DW_AT_location[DW_OP_regx 0x31]
    8363              $C$DW$748       .dwtag  DW_TAG_TI_assign_register, DW_AT_name("REA0")
    8364                      .dwattr $C$DW$748, DW_AT_location[DW_OP_regx 0x32]
    8365              $C$DW$749       .dwtag  DW_TAG_TI_assign_register, DW_AT_name("REA0_H")
    8366                      .dwattr $C$DW$749, DW_AT_location[DW_OP_regx 0x33]
    8367              $C$DW$750       .dwtag  DW_TAG_TI_assign_register, DW_AT_name("BRS1")
    8368                      .dwattr $C$DW$750, DW_AT_location[DW_OP_regx 0x34]
    8369              $C$DW$751       .dwtag  DW_TAG_TI_assign_register, DW_AT_name("BRC1")
    8370                      .dwattr $C$DW$751, DW_AT_location[DW_OP_regx 0x35]
    8371              $C$DW$752       .dwtag  DW_TAG_TI_assign_register, DW_AT_name("RSA1")
    8372                      .dwattr $C$DW$752, DW_AT_location[DW_OP_regx 0x36]
    8373              $C$DW$753       .dwtag  DW_TAG_TI_assign_register, DW_AT_name("RSA1_H")
    8374                      .dwattr $C$DW$753, DW_AT_location[DW_OP_regx 0x37]
    8375              $C$DW$754       .dwtag  DW_TAG_TI_assign_register, DW_AT_name("REA1")
    8376                      .dwattr $C$DW$754, DW_AT_location[DW_OP_regx 0x38]
    8377              $C$DW$755       .dwtag  DW_TAG_TI_assign_register, DW_AT_name("REA1_H")
    8378                      .dwattr $C$DW$755, DW_AT_location[DW_OP_regx 0x39]
    8379              $C$DW$756       .dwtag  DW_TAG_TI_assign_register, DW_AT_name("CSR")
    8380                      .dwattr $C$DW$756, DW_AT_location[DW_OP_regx 0x3a]
    8381              $C$DW$757       .dwtag  DW_TAG_TI_assign_register, DW_AT_name("RPTC")
TMS320C55x Assembler PC v4.4.1 Sat Sep 15 01:52:39 2018

Tools Copyright (c) 1996-2012 Texas Instruments Incorporated
queue.asm                                                            PAGE  175

    8382                      .dwattr $C$DW$757, DW_AT_location[DW_OP_regx 0x3b]
    8383              $C$DW$758       .dwtag  DW_TAG_TI_assign_register, DW_AT_name("CDP")
    8384                      .dwattr $C$DW$758, DW_AT_location[DW_OP_regx 0x3c]
    8385              $C$DW$759       .dwtag  DW_TAG_TI_assign_register, DW_AT_name("XCDP")
    8386                      .dwattr $C$DW$759, DW_AT_location[DW_OP_regx 0x3d]
    8387              $C$DW$760       .dwtag  DW_TAG_TI_assign_register, DW_AT_name("TRN0")
    8388                      .dwattr $C$DW$760, DW_AT_location[DW_OP_regx 0x3e]
    8389              $C$DW$761       .dwtag  DW_TAG_TI_assign_register, DW_AT_name("TRN1")
    8390                      .dwattr $C$DW$761, DW_AT_location[DW_OP_regx 0x3f]
    8391              $C$DW$762       .dwtag  DW_TAG_TI_assign_register, DW_AT_name("BSA01")
    8392                      .dwattr $C$DW$762, DW_AT_location[DW_OP_regx 0x40]
    8393              $C$DW$763       .dwtag  DW_TAG_TI_assign_register, DW_AT_name("BSA23")
    8394                      .dwattr $C$DW$763, DW_AT_location[DW_OP_regx 0x41]
    8395              $C$DW$764       .dwtag  DW_TAG_TI_assign_register, DW_AT_name("BSA45")
    8396                      .dwattr $C$DW$764, DW_AT_location[DW_OP_regx 0x42]
    8397              $C$DW$765       .dwtag  DW_TAG_TI_assign_register, DW_AT_name("BSA67")
    8398                      .dwattr $C$DW$765, DW_AT_location[DW_OP_regx 0x43]
    8399              $C$DW$766       .dwtag  DW_TAG_TI_assign_register, DW_AT_name("BSAC")
    8400                      .dwattr $C$DW$766, DW_AT_location[DW_OP_regx 0x44]
    8401              $C$DW$767       .dwtag  DW_TAG_TI_assign_register, DW_AT_name("CARRY")
    8402                      .dwattr $C$DW$767, DW_AT_location[DW_OP_regx 0x45]
    8403              $C$DW$768       .dwtag  DW_TAG_TI_assign_register, DW_AT_name("TC1")
    8404                      .dwattr $C$DW$768, DW_AT_location[DW_OP_regx 0x46]
    8405              $C$DW$769       .dwtag  DW_TAG_TI_assign_register, DW_AT_name("TC2")
    8406                      .dwattr $C$DW$769, DW_AT_location[DW_OP_regx 0x47]
    8407              $C$DW$770       .dwtag  DW_TAG_TI_assign_register, DW_AT_name("M40")
    8408                      .dwattr $C$DW$770, DW_AT_location[DW_OP_regx 0x48]
    8409              $C$DW$771       .dwtag  DW_TAG_TI_assign_register, DW_AT_name("SXMD")
    8410                      .dwattr $C$DW$771, DW_AT_location[DW_OP_regx 0x49]
    8411              $C$DW$772       .dwtag  DW_TAG_TI_assign_register, DW_AT_name("ARMS")
    8412                      .dwattr $C$DW$772, DW_AT_location[DW_OP_regx 0x4a]
    8413              $C$DW$773       .dwtag  DW_TAG_TI_assign_register, DW_AT_name("C54CM")
    8414                      .dwattr $C$DW$773, DW_AT_location[DW_OP_regx 0x4b]
    8415              $C$DW$774       .dwtag  DW_TAG_TI_assign_register, DW_AT_name("SATA")
    8416                      .dwattr $C$DW$774, DW_AT_location[DW_OP_regx 0x4c]
    8417              $C$DW$775       .dwtag  DW_TAG_TI_assign_register, DW_AT_name("SATD")
    8418                      .dwattr $C$DW$775, DW_AT_location[DW_OP_regx 0x4d]
    8419              $C$DW$776       .dwtag  DW_TAG_TI_assign_register, DW_AT_name("RDM")
    8420                      .dwattr $C$DW$776, DW_AT_location[DW_OP_regx 0x4e]
    8421              $C$DW$777       .dwtag  DW_TAG_TI_assign_register, DW_AT_name("FRCT")
    8422                      .dwattr $C$DW$777, DW_AT_location[DW_OP_regx 0x4f]
    8423              $C$DW$778       .dwtag  DW_TAG_TI_assign_register, DW_AT_name("SMUL")
    8424                      .dwattr $C$DW$778, DW_AT_location[DW_OP_regx 0x50]
    8425              $C$DW$779       .dwtag  DW_TAG_TI_assign_register, DW_AT_name("INTM")
    8426                      .dwattr $C$DW$779, DW_AT_location[DW_OP_regx 0x51]
    8427              $C$DW$780       .dwtag  DW_TAG_TI_assign_register, DW_AT_name("AR0LC")
    8428                      .dwattr $C$DW$780, DW_AT_location[DW_OP_regx 0x52]
    8429              $C$DW$781       .dwtag  DW_TAG_TI_assign_register, DW_AT_name("AR1LC")
    8430                      .dwattr $C$DW$781, DW_AT_location[DW_OP_regx 0x53]
    8431              $C$DW$782       .dwtag  DW_TAG_TI_assign_register, DW_AT_name("AR2LC")
    8432                      .dwattr $C$DW$782, DW_AT_location[DW_OP_regx 0x54]
    8433              $C$DW$783       .dwtag  DW_TAG_TI_assign_register, DW_AT_name("AR3LC")
    8434                      .dwattr $C$DW$783, DW_AT_location[DW_OP_regx 0x55]
    8435              $C$DW$784       .dwtag  DW_TAG_TI_assign_register, DW_AT_name("AR4LC")
    8436                      .dwattr $C$DW$784, DW_AT_location[DW_OP_regx 0x56]
TMS320C55x Assembler PC v4.4.1 Sat Sep 15 01:52:39 2018

Tools Copyright (c) 1996-2012 Texas Instruments Incorporated
queue.asm                                                            PAGE  176

    8437              $C$DW$785       .dwtag  DW_TAG_TI_assign_register, DW_AT_name("AR5LC")
    8438                      .dwattr $C$DW$785, DW_AT_location[DW_OP_regx 0x57]
    8439              $C$DW$786       .dwtag  DW_TAG_TI_assign_register, DW_AT_name("AR6LC")
    8440                      .dwattr $C$DW$786, DW_AT_location[DW_OP_regx 0x58]
    8441              $C$DW$787       .dwtag  DW_TAG_TI_assign_register, DW_AT_name("AR7LC")
    8442                      .dwattr $C$DW$787, DW_AT_location[DW_OP_regx 0x59]
    8443              $C$DW$788       .dwtag  DW_TAG_TI_assign_register, DW_AT_name("CDPLC")
    8444                      .dwattr $C$DW$788, DW_AT_location[DW_OP_regx 0x5a]
    8445              $C$DW$789       .dwtag  DW_TAG_TI_assign_register, DW_AT_name("CIE_RETA")
    8446                      .dwattr $C$DW$789, DW_AT_location[DW_OP_regx 0x5b]
    8447                      .dwendtag $C$DW$CU
    8448              
    8448              
    8448              

No Assembly Errors, No Assembly Warnings
