TMS320C55x Assembler PC v4.4.1 Sun Sep 09 04:48:36 2018

Tools Copyright (c) 1996-2012 Texas Instruments Incorporated
queue.asm                                                            PAGE    1

    6021              ; Temporary Registers Used: None
       1              ;*******************************************************************************
       2              ;* TMS320C55x C/C++ Codegen                                          PC v4.4.1 *
       3              ;* Date/Time created: Sun Sep 09 04:48:34 2018                                 *
       4              ;*******************************************************************************
       5                      .compiler_opts --hll_source=on --mem_model:code=flat --mem_model:data=large --object_format=coff --si
       6                      .mmregs
       7                      .cpl_on
       8                      .arms_on
       9                      .c54cm_off
      10                      .asg AR6, FP
      11                      .asg XAR6, XFP
      12                      .asg DPH, MDP
      13                      .model call=c55_std
      14                      .model mem=large
      15                      .noremark 5002  ; code respects overwrite rules
      16              ;*******************************************************************************
      17              ;* GLOBAL FILE PARAMETERS                                                      *
      18              ;*                                                                             *
      19              ;*   Architecture       : TMS320C55x                                           *
      20              ;*   Optimizing for     : Speed                                                *
      21              ;*   Memory             : Large Model (23-Bit Data Pointers)                   *
      22              ;*   Calls              : Normal Library ASM calls                             *
      23              ;*   Debug Info         : Standard TI Debug Information                        *
      24              ;*******************************************************************************
      25              
      26              $C$DW$CU        .dwtag  DW_TAG_compile_unit
      27                      .dwattr $C$DW$CU, DW_AT_name("../FreeRTOS/Source/queue.c")
      28                      .dwattr $C$DW$CU, DW_AT_producer("TMS320C55x C/C++ Codegen PC v4.4.1 Copyright (c) 1996-2012 Texas In
      29                      .dwattr $C$DW$CU, DW_AT_TI_version(0x01)
      30                      .dwattr $C$DW$CU, DW_AT_comp_dir("F:\eZdsp_DBG\eZDSP_5535_Files\ccsws2\test\Debug")
      31              
      32              $C$DW$1 .dwtag  DW_TAG_subprogram, DW_AT_name("memcpy")
      33                      .dwattr $C$DW$1, DW_AT_TI_symbol_name("_memcpy")
      34                      .dwattr $C$DW$1, DW_AT_type(*$C$DW$T$3)
      35                      .dwattr $C$DW$1, DW_AT_declaration
      36                      .dwattr $C$DW$1, DW_AT_external
      37              $C$DW$2 .dwtag  DW_TAG_formal_parameter
      38                      .dwattr $C$DW$2, DW_AT_type(*$C$DW$T$3)
      39              $C$DW$3 .dwtag  DW_TAG_formal_parameter
      40                      .dwattr $C$DW$3, DW_AT_type(*$C$DW$T$59)
      41              $C$DW$4 .dwtag  DW_TAG_formal_parameter
      42                      .dwattr $C$DW$4, DW_AT_type(*$C$DW$T$60)
      43                      .dwendtag $C$DW$1
      44              
      45              
      46              $C$DW$5 .dwtag  DW_TAG_subprogram, DW_AT_name("vPortYield")
      47                      .dwattr $C$DW$5, DW_AT_TI_symbol_name("_vPortYield")
      48                      .dwattr $C$DW$5, DW_AT_declaration
      49                      .dwattr $C$DW$5, DW_AT_external
      50              
      51              $C$DW$6 .dwtag  DW_TAG_subprogram, DW_AT_name("pvPortMalloc")
      52                      .dwattr $C$DW$6, DW_AT_TI_symbol_name("_pvPortMalloc")
      53                      .dwattr $C$DW$6, DW_AT_type(*$C$DW$T$3)
      54                      .dwattr $C$DW$6, DW_AT_declaration
TMS320C55x Assembler PC v4.4.1 Sun Sep 09 04:48:36 2018

Tools Copyright (c) 1996-2012 Texas Instruments Incorporated
queue.asm                                                            PAGE    2

      55                      .dwattr $C$DW$6, DW_AT_external
      56              $C$DW$7 .dwtag  DW_TAG_formal_parameter
      57                      .dwattr $C$DW$7, DW_AT_type(*$C$DW$T$60)
      58                      .dwendtag $C$DW$6
      59              
      60              
      61              $C$DW$8 .dwtag  DW_TAG_subprogram, DW_AT_name("vPortFree")
      62                      .dwattr $C$DW$8, DW_AT_TI_symbol_name("_vPortFree")
      63                      .dwattr $C$DW$8, DW_AT_declaration
      64                      .dwattr $C$DW$8, DW_AT_external
      65              $C$DW$9 .dwtag  DW_TAG_formal_parameter
      66                      .dwattr $C$DW$9, DW_AT_type(*$C$DW$T$3)
      67                      .dwendtag $C$DW$8
      68              
      69              
      70              $C$DW$10        .dwtag  DW_TAG_subprogram, DW_AT_name("vListInitialise")
      71                      .dwattr $C$DW$10, DW_AT_TI_symbol_name("_vListInitialise")
      72                      .dwattr $C$DW$10, DW_AT_declaration
      73                      .dwattr $C$DW$10, DW_AT_external
      74              $C$DW$11        .dwtag  DW_TAG_formal_parameter
      75                      .dwattr $C$DW$11, DW_AT_type(*$C$DW$T$71)
      76                      .dwendtag $C$DW$10
      77              
      78              
      79              $C$DW$12        .dwtag  DW_TAG_subprogram, DW_AT_name("vTaskSuspendAll")
      80                      .dwattr $C$DW$12, DW_AT_TI_symbol_name("_vTaskSuspendAll")
      81                      .dwattr $C$DW$12, DW_AT_declaration
      82                      .dwattr $C$DW$12, DW_AT_external
      83              
      84              $C$DW$13        .dwtag  DW_TAG_subprogram, DW_AT_name("xTaskResumeAll")
      85                      .dwattr $C$DW$13, DW_AT_TI_symbol_name("_xTaskResumeAll")
      86                      .dwattr $C$DW$13, DW_AT_type(*$C$DW$T$43)
      87                      .dwattr $C$DW$13, DW_AT_declaration
      88                      .dwattr $C$DW$13, DW_AT_external
      89              
      90              $C$DW$14        .dwtag  DW_TAG_subprogram, DW_AT_name("vTaskPlaceOnEventList")
      91                      .dwattr $C$DW$14, DW_AT_TI_symbol_name("_vTaskPlaceOnEventList")
      92                      .dwattr $C$DW$14, DW_AT_declaration
      93                      .dwattr $C$DW$14, DW_AT_external
      94              $C$DW$15        .dwtag  DW_TAG_formal_parameter
      95                      .dwattr $C$DW$15, DW_AT_type(*$C$DW$T$71)
      96              $C$DW$16        .dwtag  DW_TAG_formal_parameter
      97                      .dwattr $C$DW$16, DW_AT_type(*$C$DW$T$74)
      98                      .dwendtag $C$DW$14
      99              
     100              
     101              $C$DW$17        .dwtag  DW_TAG_subprogram, DW_AT_name("xTaskRemoveFromEventList")
     102                      .dwattr $C$DW$17, DW_AT_TI_symbol_name("_xTaskRemoveFromEventList")
     103                      .dwattr $C$DW$17, DW_AT_type(*$C$DW$T$43)
     104                      .dwattr $C$DW$17, DW_AT_declaration
     105                      .dwattr $C$DW$17, DW_AT_external
     106              $C$DW$18        .dwtag  DW_TAG_formal_parameter
     107                      .dwattr $C$DW$18, DW_AT_type(*$C$DW$T$98)
     108                      .dwendtag $C$DW$17
     109              
TMS320C55x Assembler PC v4.4.1 Sun Sep 09 04:48:36 2018

Tools Copyright (c) 1996-2012 Texas Instruments Incorporated
queue.asm                                                            PAGE    3

     110              
     111              $C$DW$19        .dwtag  DW_TAG_subprogram, DW_AT_name("xTaskCheckForTimeOut")
     112                      .dwattr $C$DW$19, DW_AT_TI_symbol_name("_xTaskCheckForTimeOut")
     113                      .dwattr $C$DW$19, DW_AT_type(*$C$DW$T$43)
     114                      .dwattr $C$DW$19, DW_AT_declaration
     115                      .dwattr $C$DW$19, DW_AT_external
     116              $C$DW$20        .dwtag  DW_TAG_formal_parameter
     117                      .dwattr $C$DW$20, DW_AT_type(*$C$DW$T$79)
     118              $C$DW$21        .dwtag  DW_TAG_formal_parameter
     119                      .dwattr $C$DW$21, DW_AT_type(*$C$DW$T$102)
     120                      .dwendtag $C$DW$19
     121              
     122              
     123              $C$DW$22        .dwtag  DW_TAG_subprogram, DW_AT_name("vTaskMissedYield")
     124                      .dwattr $C$DW$22, DW_AT_TI_symbol_name("_vTaskMissedYield")
     125                      .dwattr $C$DW$22, DW_AT_declaration
     126                      .dwattr $C$DW$22, DW_AT_external
     127              
     128              $C$DW$23        .dwtag  DW_TAG_subprogram, DW_AT_name("vTaskInternalSetTimeOutState")
     129                      .dwattr $C$DW$23, DW_AT_TI_symbol_name("_vTaskInternalSetTimeOutState")
     130                      .dwattr $C$DW$23, DW_AT_declaration
     131                      .dwattr $C$DW$23, DW_AT_external
     132              $C$DW$24        .dwtag  DW_TAG_formal_parameter
     133                      .dwattr $C$DW$24, DW_AT_type(*$C$DW$T$79)
     134                      .dwendtag $C$DW$23
     135              
     136              
     137              $C$DW$25        .dwtag  DW_TAG_subprogram, DW_AT_name("vCoRoutineAddToDelayedList")
     138                      .dwattr $C$DW$25, DW_AT_TI_symbol_name("_vCoRoutineAddToDelayedList")
     139                      .dwattr $C$DW$25, DW_AT_declaration
     140                      .dwattr $C$DW$25, DW_AT_external
     141              $C$DW$26        .dwtag  DW_TAG_formal_parameter
     142                      .dwattr $C$DW$26, DW_AT_type(*$C$DW$T$38)
     143              $C$DW$27        .dwtag  DW_TAG_formal_parameter
     144                      .dwattr $C$DW$27, DW_AT_type(*$C$DW$T$70)
     145                      .dwendtag $C$DW$25
     146              
     147              
     148              $C$DW$28        .dwtag  DW_TAG_subprogram, DW_AT_name("xCoRoutineRemoveFromEventList")
     149                      .dwattr $C$DW$28, DW_AT_TI_symbol_name("_xCoRoutineRemoveFromEventList")
     150                      .dwattr $C$DW$28, DW_AT_type(*$C$DW$T$43)
     151                      .dwattr $C$DW$28, DW_AT_declaration
     152                      .dwattr $C$DW$28, DW_AT_external
     153              $C$DW$29        .dwtag  DW_TAG_formal_parameter
     154                      .dwattr $C$DW$29, DW_AT_type(*$C$DW$T$97)
     155                      .dwendtag $C$DW$28
     156              
     157              $C$DW$30        .dwtag  DW_TAG_variable, DW_AT_name("usCriticalNesting")
     158                      .dwattr $C$DW$30, DW_AT_TI_symbol_name("_usCriticalNesting")
     159                      .dwattr $C$DW$30, DW_AT_type(*$C$DW$T$129)
     160                      .dwattr $C$DW$30, DW_AT_declaration
     161                      .dwattr $C$DW$30, DW_AT_external
     162              ;       F:\ti\ccs8p1\ccsv8\tools\compiler\alt-install-ti-cgt-c55x_4.4.1\bin\acp55.exe -@f:\\AppData\\Local\\T
     163 000000               .sect   ".text"
     164                      .align 4
TMS320C55x Assembler PC v4.4.1 Sun Sep 09 04:48:36 2018

Tools Copyright (c) 1996-2012 Texas Instruments Incorporated
queue.asm                                                            PAGE    4

     165                      .global _xQueueGenericReset
     166              
     167              $C$DW$31        .dwtag  DW_TAG_subprogram, DW_AT_name("xQueueGenericReset")
     168                      .dwattr $C$DW$31, DW_AT_low_pc(_xQueueGenericReset)
     169                      .dwattr $C$DW$31, DW_AT_high_pc(0x00)
     170                      .dwattr $C$DW$31, DW_AT_TI_symbol_name("_xQueueGenericReset")
     171                      .dwattr $C$DW$31, DW_AT_external
     172                      .dwattr $C$DW$31, DW_AT_type(*$C$DW$T$43)
     173                      .dwattr $C$DW$31, DW_AT_TI_begin_file("../FreeRTOS/Source/queue.c")
     174                      .dwattr $C$DW$31, DW_AT_TI_begin_line(0xff)
     175                      .dwattr $C$DW$31, DW_AT_TI_begin_column(0x0c)
     176                      .dwattr $C$DW$31, DW_AT_TI_max_frame_size(0x08)
     177                      .dwpsn  file "../FreeRTOS/Source/queue.c",line 256,column 1,is_stmt,address _xQueueGenericReset
     178              
     179                      .dwfde $C$DW$CIE, _xQueueGenericReset
     180              $C$DW$32        .dwtag  DW_TAG_formal_parameter, DW_AT_name("xQueue")
     181                      .dwattr $C$DW$32, DW_AT_TI_symbol_name("_xQueue")
     182                      .dwattr $C$DW$32, DW_AT_type(*$C$DW$T$46)
     183                      .dwattr $C$DW$32, DW_AT_location[DW_OP_reg17]
     184              $C$DW$33        .dwtag  DW_TAG_formal_parameter, DW_AT_name("xNewQueue")
     185                      .dwattr $C$DW$33, DW_AT_TI_symbol_name("_xNewQueue")
     186                      .dwattr $C$DW$33, DW_AT_type(*$C$DW$T$43)
     187                      .dwattr $C$DW$33, DW_AT_location[DW_OP_reg12]
     188              ;*******************************************************************************
     189              ;* FUNCTION NAME: xQueueGenericReset                                           *
     190              ;*                                                                             *
     191              ;*   Function Uses Regs : AC0,T0,T1,AR0,XAR0,AR1,AR2,XAR2,AR3,XAR3,SP,CARRY,   *
     192              ;*                        M40,SATA,SATD,RDM,FRCT,SMUL                          *
     193              ;*   Stack Frame        : Compact (No Frame Pointer, w/ debug)                 *
     194              ;*   Total Frame Size   : 8 words                                              *
     195              ;*                        (2 return address/alignment)                         *
     196              ;*                        (6 local values)                                     *
     197              ;*   Min System Stack   : 1 word                                               *
     198              ;*******************************************************************************
     199 000000       _xQueueGenericReset:
     200                      .dwcfi  cfa_offset, 1
     201                      .dwcfi  save_reg_to_mem, 91, -1
     202 000000 4EF9          AADD #-7, SP
     203                      .dwcfi  cfa_offset, 8
     204              $C$DW$34        .dwtag  DW_TAG_variable, DW_AT_name("xQueue")
     205                      .dwattr $C$DW$34, DW_AT_TI_symbol_name("_xQueue")
     206                      .dwattr $C$DW$34, DW_AT_type(*$C$DW$T$46)
     207                      .dwattr $C$DW$34, DW_AT_location[DW_OP_bregx 0x24 0]
     208              $C$DW$35        .dwtag  DW_TAG_variable, DW_AT_name("xNewQueue")
     209                      .dwattr $C$DW$35, DW_AT_TI_symbol_name("_xNewQueue")
     210                      .dwattr $C$DW$35, DW_AT_type(*$C$DW$T$43)
     211                      .dwattr $C$DW$35, DW_AT_location[DW_OP_bregx 0x24 2]
     212              $C$DW$36        .dwtag  DW_TAG_variable, DW_AT_name("pxQueue")
     213                      .dwattr $C$DW$36, DW_AT_TI_symbol_name("_pxQueue")
     214                      .dwattr $C$DW$36, DW_AT_type(*$C$DW$T$57)
     215                      .dwattr $C$DW$36, DW_AT_location[DW_OP_bregx 0x24 4]
     216 000002 C404          MOV T0, *SP(#2) ; |256| 
     217 000004 EB00          MOV XAR0, dbl(*SP(#0))
         000006 85   
     218                      .dwpsn  file "../FreeRTOS/Source/queue.c",line 257,column 17,is_stmt
TMS320C55x Assembler PC v4.4.1 Sun Sep 09 04:48:36 2018

Tools Copyright (c) 1996-2012 Texas Instruments Incorporated
queue.asm                                                            PAGE    5

     219 000007 ED00          MOV dbl(*SP(#0)), XAR3
         000009 BF   
     220 00000a EB08          MOV XAR3, dbl(*SP(#4))
         00000c B5   
     221                      .dwpsn  file "../FreeRTOS/Source/queue.c",line 261,column 2,is_stmt
     222 00000d 20     nop
     223 00000e 46B3   bset INTM
     224 000010 F731          ADD #1, *(#_usCriticalNesting) ; |261| 
         000012 0001 
         000014 0000 
         000016 00!  
     225                      .dwpsn  file "../FreeRTOS/Source/queue.c",line 263,column 3,is_stmt
     226 000017 ED08          MOV dbl(*SP(#4)), XAR2
         000019 AF   
     227 00001a A54D          MOV *AR2(#30), T1 ; |263| 
         00001c 001E 
     228 00001e D36D          MPYM *AR3(#29), T1, AC0 ; |263| 
         000020 0500 
         000022 1D   
     229 000023 2209          MOV AC0, AR1 ; |263| 
     230 000025 ED61          MOV dbl(*AR3), XAR3
         000027 BF   
     231              
     232 000028 8E59          MOV XAR3, dbl(*AR2(short(#4)))
         00002a BB10 
         00002c B590 
     233              ||      AADD AR1, AR3 ; |263| 
     234              
     235                      .dwpsn  file "../FreeRTOS/Source/queue.c",line 264,column 3,is_stmt
     236 00002e ED08          MOV dbl(*SP(#4)), XAR3
         000030 BF   
     237 000031 E66D          MOV #0, *AR3(#28) ; |264| 
         000033 0000 
         000035 1C   
     238                      .dwpsn  file "../FreeRTOS/Source/queue.c",line 265,column 3,is_stmt
     239 000036 ED08          MOV dbl(*SP(#4)), XAR3
         000038 BF   
     240 000039 ED61          MOV dbl(*AR3), XAR2
         00003b AF   
     241 00003c EB75          MOV XAR2, dbl(*AR3(short(#2)))
         00003e A5   
     242                      .dwpsn  file "../FreeRTOS/Source/queue.c",line 266,column 3,is_stmt
     243 00003f ED08          MOV dbl(*SP(#4)), XAR2
         000041 AF   
     244 000042 ED08          MOV dbl(*SP(#4)), XAR3
         000044 BF   
     245 000045 A54D          MOV *AR2(#29), T1 ; |266| 
         000047 001D 
     246 000049 4215          SUB #1, T1 ; |266| 
     247 00004b D36D          MPYM *AR3(#30), T1, AC0 ; |266| 
         00004d 0500 
         00004f 1E   
     248 000050 2209          MOV AC0, AR1 ; |266| 
     249 000052 ED61          MOV dbl(*AR3), XAR3
         000054 BF   
TMS320C55x Assembler PC v4.4.1 Sun Sep 09 04:48:36 2018

Tools Copyright (c) 1996-2012 Texas Instruments Incorporated
queue.asm                                                            PAGE    6

     250              
     251 000055 8E5D          MOV XAR3, dbl(*AR2(short(#6)))
         000057 BB10 
         000059 B590 
     252              ||      AADD AR1, AR3 ; |266| 
     253              
     254                      .dwpsn  file "../FreeRTOS/Source/queue.c",line 267,column 3,is_stmt
     255 00005b ED08          MOV dbl(*SP(#4)), XAR3
         00005d BF   
     256 00005e E66D          MOV #-1, *AR3(#31) ; |267| 
         000060 FF00 
         000062 1F   
     257                      .dwpsn  file "../FreeRTOS/Source/queue.c",line 268,column 3,is_stmt
     258 000063 ED08          MOV dbl(*SP(#4)), XAR3
         000065 BF   
     259 000066 E66D          MOV #-1, *AR3(#32) ; |268| 
         000068 FF00 
         00006a 20   
     260                      .dwpsn  file "../FreeRTOS/Source/queue.c",line 270,column 3,is_stmt
     261 00006b A904          MOV *SP(#2), AR1 ; |270| 
     262 00006d 0419          BCC $C$L3,AR1 != #0 ; |270| 
         00006f 25   
     263                                                      ; branchcc occurs ; |270| 
     264                      .dwpsn  file "../FreeRTOS/Source/queue.c",line 277,column 4,is_stmt
     265 000070 ED08          MOV dbl(*SP(#4)), XAR3
         000072 BF   
     266 000073 A96D          MOV *AR3(#8), AR1 ; |277| 
         000075 0008 
     267 000077 6219          BCC $C$L1,AR1 != #0 ; |277| 
     268                                                      ; branchcc occurs ; |277| 
     269 000079 3C19          MOV #1, AR1
     270 00007b 4A02          B $C$L2   ; |277| 
     271                                                      ; branch occurs ; |277| 
     272 00007d       $C$L1:    
     273 00007d 3C09          MOV #0, AR1
     274 00007f       $C$L2:    
     275 00007f 0419          BCC $C$L4,AR1 != #0 ; |277| 
         000081 27   
     276                                                      ; branchcc occurs ; |277| 
     277                      .dwpsn  file "../FreeRTOS/Source/queue.c",line 279,column 5,is_stmt
     278 000082 ED08          MOV dbl(*SP(#4)), XAR0
         000084 8F   
     279 000085 1408          AADD #8, AR0 ; |279| 
         000087 84   
     280              $C$DW$37        .dwtag  DW_TAG_TI_branch
     281                      .dwattr $C$DW$37, DW_AT_low_pc(0x00)
     282                      .dwattr $C$DW$37, DW_AT_name("_xTaskRemoveFromEventList")
     283                      .dwattr $C$DW$37, DW_AT_TI_call
     284 000088 6C00          CALL #_xTaskRemoveFromEventList ; |279| 
         00008a 0000!
     285                                                      ; call occurs [#_xTaskRemoveFromEventList] ; |279| 
     286 00008c 0404          BCC $C$L4,T0 == #0 ; |279| 
         00008e 1A   
     287                                                      ; branchcc occurs ; |279| 
     288                      .dwpsn  file "../FreeRTOS/Source/queue.c",line 281,column 6,is_stmt
TMS320C55x Assembler PC v4.4.1 Sun Sep 09 04:48:36 2018

Tools Copyright (c) 1996-2012 Texas Instruments Incorporated
queue.asm                                                            PAGE    7

     289              $C$DW$38        .dwtag  DW_TAG_TI_branch
     290                      .dwattr $C$DW$38, DW_AT_low_pc(0x00)
     291                      .dwattr $C$DW$38, DW_AT_name("_vPortYield")
     292                      .dwattr $C$DW$38, DW_AT_TI_call
     293 00008f 6C00          CALL #_vPortYield ; |281| 
         000091 0000!
     294                                                      ; call occurs [#_vPortYield] ; |281| 
     295                      .dwpsn  file "../FreeRTOS/Source/queue.c",line 282,column 5,is_stmt
     296 000093 4A14          B $C$L4   ; |282| 
     297                                                      ; branch occurs ; |282| 
     298 000095       $C$L3:    
     299                      .dwpsn  file "../FreeRTOS/Source/queue.c",line 296,column 4,is_stmt
     300 000095 ED08          MOV dbl(*SP(#4)), XAR0
         000097 8F   
     301 000098 1408          AADD #8, AR0 ; |296| 
         00009a 84   
     302              $C$DW$39        .dwtag  DW_TAG_TI_branch
     303                      .dwattr $C$DW$39, DW_AT_low_pc(0x00)
     304                      .dwattr $C$DW$39, DW_AT_name("_vListInitialise")
     305                      .dwattr $C$DW$39, DW_AT_TI_call
     306 00009b 6C00          CALL #_vListInitialise ; |296| 
         00009d 0000!
     307                                                      ; call occurs [#_vListInitialise] ; |296| 
     308                      .dwpsn  file "../FreeRTOS/Source/queue.c",line 297,column 4,is_stmt
     309 00009f ED08          MOV dbl(*SP(#4)), XAR0
         0000a1 8F   
     310 0000a2 1412          AADD #18, AR0 ; |297| 
         0000a4 84   
     311              $C$DW$40        .dwtag  DW_TAG_TI_branch
     312                      .dwattr $C$DW$40, DW_AT_low_pc(0x00)
     313                      .dwattr $C$DW$40, DW_AT_name("_vListInitialise")
     314                      .dwattr $C$DW$40, DW_AT_TI_call
     315 0000a5 6C00          CALL #_vListInitialise ; |297| 
         0000a7 0000!
     316                                                      ; call occurs [#_vListInitialise] ; |297| 
     317 0000a9       $C$L4:    
     318                      .dwpsn  file "../FreeRTOS/Source/queue.c",line 300,column 2,is_stmt
     319 0000a9 A931          MOV *(#_usCriticalNesting), AR1 ; |300| 
         0000ab 0000 
         0000ad 00!  
     320 0000ae 0409          BCC $C$L5,AR1 == #0 ; |300| 
         0000b0 14   
     321                                                      ; branchcc occurs ; |300| 
     322 0000b1 F731          SUB #1, *(#_usCriticalNesting) ; |300| 
         0000b3 FFFF 
         0000b5 0000 
         0000b7 00!  
     323 0000b8 20            NOP
     324 0000b9 20            NOP
     325 0000ba 20            NOP
     326 0000bb A931          MOV *(#_usCriticalNesting), AR1 ; |300| 
         0000bd 0000 
         0000bf 00!  
     327 0000c0 6199          BCC $C$L5,AR1 != #0 ; |300| 
     328                                                      ; branchcc occurs ; |300| 
TMS320C55x Assembler PC v4.4.1 Sun Sep 09 04:48:36 2018

Tools Copyright (c) 1996-2012 Texas Instruments Incorporated
queue.asm                                                            PAGE    8

     329 0000c2 20     nop
     330 0000c3 46B2   bclr INTM
     331 0000c5       $C$L5:    
     332                      .dwpsn  file "../FreeRTOS/Source/queue.c",line 304,column 2,is_stmt
     333 0000c5 3C14          MOV #1, T0
     334                      .dwpsn  file "../FreeRTOS/Source/queue.c",line 305,column 1,is_stmt
     335 0000c7 4E07          AADD #7, SP
     336                      .dwcfi  cfa_offset, 1
     337              $C$DW$41        .dwtag  DW_TAG_TI_branch
     338                      .dwattr $C$DW$41, DW_AT_low_pc(0x00)
     339                      .dwattr $C$DW$41, DW_AT_TI_return
     340 0000c9 4804          RET
     341                                                      ; return occurs
     342                      .dwattr $C$DW$31, DW_AT_TI_end_file("../FreeRTOS/Source/queue.c")
     343                      .dwattr $C$DW$31, DW_AT_TI_end_line(0x131)
     344                      .dwattr $C$DW$31, DW_AT_TI_end_column(0x01)
     345                      .dwendentry
     346                      .dwendtag $C$DW$31
     347              
     348 0000cb               .sect   ".text"
     349                      .align 4
     350                      .global _xQueueGenericCreate
     351              
     352              $C$DW$42        .dwtag  DW_TAG_subprogram, DW_AT_name("xQueueGenericCreate")
     353                      .dwattr $C$DW$42, DW_AT_low_pc(_xQueueGenericCreate)
     354                      .dwattr $C$DW$42, DW_AT_high_pc(0x00)
     355                      .dwattr $C$DW$42, DW_AT_TI_symbol_name("_xQueueGenericCreate")
     356                      .dwattr $C$DW$42, DW_AT_external
     357                      .dwattr $C$DW$42, DW_AT_type(*$C$DW$T$46)
     358                      .dwattr $C$DW$42, DW_AT_TI_begin_file("../FreeRTOS/Source/queue.c")
     359                      .dwattr $C$DW$42, DW_AT_TI_begin_line(0x170)
     360                      .dwattr $C$DW$42, DW_AT_TI_begin_column(0x10)
     361                      .dwattr $C$DW$42, DW_AT_TI_max_frame_size(0x0c)
     362                      .dwpsn  file "../FreeRTOS/Source/queue.c",line 369,column 2,is_stmt,address _xQueueGenericCreate
     363              
     364                      .dwfde $C$DW$CIE, _xQueueGenericCreate
     365              $C$DW$43        .dwtag  DW_TAG_formal_parameter, DW_AT_name("uxQueueLength")
     366                      .dwattr $C$DW$43, DW_AT_TI_symbol_name("_uxQueueLength")
     367                      .dwattr $C$DW$43, DW_AT_type(*$C$DW$T$48)
     368                      .dwattr $C$DW$43, DW_AT_location[DW_OP_reg12]
     369              $C$DW$44        .dwtag  DW_TAG_formal_parameter, DW_AT_name("uxItemSize")
     370                      .dwattr $C$DW$44, DW_AT_TI_symbol_name("_uxItemSize")
     371                      .dwattr $C$DW$44, DW_AT_type(*$C$DW$T$48)
     372                      .dwattr $C$DW$44, DW_AT_location[DW_OP_reg13]
     373              $C$DW$45        .dwtag  DW_TAG_formal_parameter, DW_AT_name("ucQueueType")
     374                      .dwattr $C$DW$45, DW_AT_TI_symbol_name("_ucQueueType")
     375                      .dwattr $C$DW$45, DW_AT_type(*$C$DW$T$50)
     376                      .dwattr $C$DW$45, DW_AT_location[DW_OP_reg16]
     377              ;*******************************************************************************
     378              ;* FUNCTION NAME: xQueueGenericCreate                                          *
     379              ;*                                                                             *
     380              ;*   Function Uses Regs : AC0,AC0,T0,T1,AR0,XAR0,AR1,AR2,XAR2,AR3,XAR3,SP,     *
     381              ;*                        CARRY,M40,SATA,SATD,RDM,FRCT,SMUL                    *
     382              ;*   Stack Frame        : Compact (No Frame Pointer, w/ debug)                 *
     383              ;*   Total Frame Size   : 12 words                                             *
TMS320C55x Assembler PC v4.4.1 Sun Sep 09 04:48:36 2018

Tools Copyright (c) 1996-2012 Texas Instruments Incorporated
queue.asm                                                            PAGE    9

     384              ;*                        (2 return address/alignment)                         *
     385              ;*                        (10 local values)                                    *
     386              ;*   Min System Stack   : 1 word                                               *
     387              ;*******************************************************************************
     388 0000cc       _xQueueGenericCreate:
     389                      .dwcfi  cfa_offset, 1
     390                      .dwcfi  save_reg_to_mem, 91, -1
     391 0000cc 4EF5          AADD #-11, SP
     392                      .dwcfi  cfa_offset, 12
     393              $C$DW$46        .dwtag  DW_TAG_variable, DW_AT_name("uxQueueLength")
     394                      .dwattr $C$DW$46, DW_AT_TI_symbol_name("_uxQueueLength")
     395                      .dwattr $C$DW$46, DW_AT_type(*$C$DW$T$48)
     396                      .dwattr $C$DW$46, DW_AT_location[DW_OP_bregx 0x24 0]
     397              $C$DW$47        .dwtag  DW_TAG_variable, DW_AT_name("uxItemSize")
     398                      .dwattr $C$DW$47, DW_AT_TI_symbol_name("_uxItemSize")
     399                      .dwattr $C$DW$47, DW_AT_type(*$C$DW$T$48)
     400                      .dwattr $C$DW$47, DW_AT_location[DW_OP_bregx 0x24 1]
     401              $C$DW$48        .dwtag  DW_TAG_variable, DW_AT_name("ucQueueType")
     402                      .dwattr $C$DW$48, DW_AT_TI_symbol_name("_ucQueueType")
     403                      .dwattr $C$DW$48, DW_AT_type(*$C$DW$T$50)
     404                      .dwattr $C$DW$48, DW_AT_location[DW_OP_bregx 0x24 2]
     405              $C$DW$49        .dwtag  DW_TAG_variable, DW_AT_name("pxNewQueue")
     406                      .dwattr $C$DW$49, DW_AT_TI_symbol_name("_pxNewQueue")
     407                      .dwattr $C$DW$49, DW_AT_type(*$C$DW$T$56)
     408                      .dwattr $C$DW$49, DW_AT_location[DW_OP_bregx 0x24 4]
     409              $C$DW$50        .dwtag  DW_TAG_variable, DW_AT_name("xQueueSizeInBytes")
     410                      .dwattr $C$DW$50, DW_AT_TI_symbol_name("_xQueueSizeInBytes")
     411                      .dwattr $C$DW$50, DW_AT_type(*$C$DW$T$60)
     412                      .dwattr $C$DW$50, DW_AT_location[DW_OP_bregx 0x24 6]
     413              $C$DW$51        .dwtag  DW_TAG_variable, DW_AT_name("pucQueueStorage")
     414                      .dwattr $C$DW$51, DW_AT_TI_symbol_name("_pucQueueStorage")
     415                      .dwattr $C$DW$51, DW_AT_type(*$C$DW$T$84)
     416                      .dwattr $C$DW$51, DW_AT_location[DW_OP_bregx 0x24 8]
     417 0000ce C804          MOV AR0, *SP(#2) ; |369| 
     418 0000d0 C502          MOV T1, *SP(#1) ; |369| 
     419 0000d2 C400          MOV T0, *SP(#0) ; |369| 
     420                      .dwpsn  file "../FreeRTOS/Source/queue.c",line 376,column 3,is_stmt
     421 0000d4 A902          MOV *SP(#1), AR1 ; |376| 
     422 0000d6 6299          BCC $C$L6,AR1 != #0 ; |376| 
     423                                                      ; branchcc occurs ; |376| 
     424                      .dwpsn  file "../FreeRTOS/Source/queue.c",line 379,column 4,is_stmt
     425 0000d8 E60C          MOV #0, *SP(#6) ; |379| 
         0000da 00   
     426                      .dwpsn  file "../FreeRTOS/Source/queue.c",line 380,column 3,is_stmt
     427 0000db 4A07          B $C$L7   ; |380| 
     428                                                      ; branch occurs ; |380| 
     429 0000dd       $C$L6:    
     430                      .dwpsn  file "../FreeRTOS/Source/queue.c",line 385,column 4,is_stmt
     431 0000dd 2295          MOV AR1, T1
     432 0000df D300          MPYM *SP(#0), T1, AC0 ; |385| 
         0000e1 05   
     433 0000e2 C00C          MOV AC0, *SP(#6) ; |385| 
     434 0000e4       $C$L7:    
     435                      .dwpsn  file "../FreeRTOS/Source/queue.c",line 397,column 3,is_stmt
     436 0000e4 A90C          MOV *SP(#6), AR1 ; |397| 
TMS320C55x Assembler PC v4.4.1 Sun Sep 09 04:48:36 2018

Tools Copyright (c) 1996-2012 Texas Instruments Incorporated
queue.asm                                                            PAGE   10

     437 0000e6 7B00          ADD #34, AR1, T0 ; |397| 
         0000e8 2249 
     438              $C$DW$52        .dwtag  DW_TAG_TI_branch
     439                      .dwattr $C$DW$52, DW_AT_low_pc(0x00)
     440                      .dwattr $C$DW$52, DW_AT_name("_pvPortMalloc")
     441                      .dwattr $C$DW$52, DW_AT_TI_call
     442 0000ea 6C00          CALL #_pvPortMalloc ; |397| 
         0000ec 0000!
     443                                                      ; call occurs [#_pvPortMalloc] ; |397| 
     444 0000ee EB08          MOV XAR0, dbl(*SP(#4))
         0000f0 85   
     445                      .dwpsn  file "../FreeRTOS/Source/queue.c",line 399,column 3,is_stmt
     446 0000f1 ED08          MOV dbl(*SP(#4)), XAR3
         0000f3 BF   
     447 0000f4 90B0          MOV XAR3, AC0
     448 0000f6 0400          BCC $C$L8,AC0 == #0 ; |399| 
         0000f8 18   
     449                                                      ; branchcc occurs ; |399| 
     450                      .dwpsn  file "../FreeRTOS/Source/queue.c",line 403,column 4,is_stmt
     451 0000f9 EB10          MOV XAR3, dbl(*SP(#8))
         0000fb B5   
     452                      .dwpsn  file "../FreeRTOS/Source/queue.c",line 404,column 4,is_stmt
     453              
     454 0000fc 8E10          MOV XAR3, dbl(*SP(#8))
         0000fe BB14 
         000100 B522 
     455              ||      AADD #34, AR3 ; |404| 
     456              
     457                      .dwpsn  file "../FreeRTOS/Source/queue.c",line 415,column 4,is_stmt
     458 000102 A400          MOV *SP(#0), T0 ; |415| 
     459 000104 A502          MOV *SP(#1), T1 ; |415| 
     460 000106 ED10          MOV dbl(*SP(#8)), XAR0
         000108 8F   
     461 000109 A904          MOV *SP(#2), AR1 ; |415| 
     462 00010b ED08          MOV dbl(*SP(#4)), XAR2
         00010d AF   
     463              $C$DW$53        .dwtag  DW_TAG_TI_branch
     464                      .dwattr $C$DW$53, DW_AT_low_pc(0x00)
     465                      .dwattr $C$DW$53, DW_AT_name("_prvInitialiseNewQueue")
     466                      .dwattr $C$DW$53, DW_AT_TI_call
     467 00010e 0800          CALL #_prvInitialiseNewQueue ; |415| 
         000110 07   
     468                                                      ; call occurs [#_prvInitialiseNewQueue] ; |415| 
     469                      .dwpsn  file "../FreeRTOS/Source/queue.c",line 416,column 3,is_stmt
     470 000111       $C$L8:    
     471                      .dwpsn  file "../FreeRTOS/Source/queue.c",line 423,column 3,is_stmt
     472 000111 ED08          MOV dbl(*SP(#4)), XAR0
         000113 8F   
     473                      .dwpsn  file "../FreeRTOS/Source/queue.c",line 424,column 2,is_stmt
     474 000114 4E0B          AADD #11, SP
     475                      .dwcfi  cfa_offset, 1
     476              $C$DW$54        .dwtag  DW_TAG_TI_branch
     477                      .dwattr $C$DW$54, DW_AT_low_pc(0x00)
     478                      .dwattr $C$DW$54, DW_AT_TI_return
     479 000116 4804          RET
TMS320C55x Assembler PC v4.4.1 Sun Sep 09 04:48:36 2018

Tools Copyright (c) 1996-2012 Texas Instruments Incorporated
queue.asm                                                            PAGE   11

     480                                                      ; return occurs
     481                      .dwattr $C$DW$42, DW_AT_TI_end_file("../FreeRTOS/Source/queue.c")
     482                      .dwattr $C$DW$42, DW_AT_TI_end_line(0x1a8)
     483                      .dwattr $C$DW$42, DW_AT_TI_end_column(0x02)
     484                      .dwendentry
     485                      .dwendtag $C$DW$42
     486              
     487 000118               .sect   ".text"
     488                      .align 4
     489              
     490              $C$DW$55        .dwtag  DW_TAG_subprogram, DW_AT_name("prvInitialiseNewQueue")
     491                      .dwattr $C$DW$55, DW_AT_low_pc(_prvInitialiseNewQueue)
     492                      .dwattr $C$DW$55, DW_AT_high_pc(0x00)
     493                      .dwattr $C$DW$55, DW_AT_TI_symbol_name("_prvInitialiseNewQueue")
     494                      .dwattr $C$DW$55, DW_AT_TI_begin_file("../FreeRTOS/Source/queue.c")
     495                      .dwattr $C$DW$55, DW_AT_TI_begin_line(0x1ad)
     496                      .dwattr $C$DW$55, DW_AT_TI_begin_column(0x0d)
     497                      .dwattr $C$DW$55, DW_AT_TI_max_frame_size(0x0a)
     498                      .dwpsn  file "../FreeRTOS/Source/queue.c",line 430,column 1,is_stmt,address _prvInitialiseNewQueue
     499              
     500                      .dwfde $C$DW$CIE, _prvInitialiseNewQueue
     501              $C$DW$56        .dwtag  DW_TAG_formal_parameter, DW_AT_name("uxQueueLength")
     502                      .dwattr $C$DW$56, DW_AT_TI_symbol_name("_uxQueueLength")
     503                      .dwattr $C$DW$56, DW_AT_type(*$C$DW$T$48)
     504                      .dwattr $C$DW$56, DW_AT_location[DW_OP_reg12]
     505              $C$DW$57        .dwtag  DW_TAG_formal_parameter, DW_AT_name("uxItemSize")
     506                      .dwattr $C$DW$57, DW_AT_TI_symbol_name("_uxItemSize")
     507                      .dwattr $C$DW$57, DW_AT_type(*$C$DW$T$48)
     508                      .dwattr $C$DW$57, DW_AT_location[DW_OP_reg13]
     509              $C$DW$58        .dwtag  DW_TAG_formal_parameter, DW_AT_name("pucQueueStorage")
     510                      .dwattr $C$DW$58, DW_AT_TI_symbol_name("_pucQueueStorage")
     511                      .dwattr $C$DW$58, DW_AT_type(*$C$DW$T$84)
     512                      .dwattr $C$DW$58, DW_AT_location[DW_OP_reg17]
     513              $C$DW$59        .dwtag  DW_TAG_formal_parameter, DW_AT_name("ucQueueType")
     514                      .dwattr $C$DW$59, DW_AT_TI_symbol_name("_ucQueueType")
     515                      .dwattr $C$DW$59, DW_AT_type(*$C$DW$T$50)
     516                      .dwattr $C$DW$59, DW_AT_location[DW_OP_reg18]
     517              $C$DW$60        .dwtag  DW_TAG_formal_parameter, DW_AT_name("pxNewQueue")
     518                      .dwattr $C$DW$60, DW_AT_TI_symbol_name("_pxNewQueue")
     519                      .dwattr $C$DW$60, DW_AT_type(*$C$DW$T$56)
     520                      .dwattr $C$DW$60, DW_AT_location[DW_OP_reg21]
     521              ;*******************************************************************************
     522              ;* FUNCTION NAME: prvInitialiseNewQueue                                        *
     523              ;*                                                                             *
     524              ;*   Function Uses Regs : T0,T1,AR0,XAR0,AR1,AR2,XAR2,AR3,XAR3,SP,M40,SATA,    *
     525              ;*                        SATD,RDM,FRCT,SMUL                                   *
     526              ;*   Stack Frame        : Compact (No Frame Pointer, w/ debug)                 *
     527              ;*   Total Frame Size   : 10 words                                             *
     528              ;*                        (2 return address/alignment)                         *
     529              ;*                        (8 local values)                                     *
     530              ;*   Min System Stack   : 1 word                                               *
     531              ;*******************************************************************************
     532 000118       _prvInitialiseNewQueue:
     533                      .dwcfi  cfa_offset, 1
     534                      .dwcfi  save_reg_to_mem, 91, -1
TMS320C55x Assembler PC v4.4.1 Sun Sep 09 04:48:36 2018

Tools Copyright (c) 1996-2012 Texas Instruments Incorporated
queue.asm                                                            PAGE   12

     535 000118 4EF7          AADD #-9, SP
     536                      .dwcfi  cfa_offset, 10
     537              $C$DW$61        .dwtag  DW_TAG_variable, DW_AT_name("uxQueueLength")
     538                      .dwattr $C$DW$61, DW_AT_TI_symbol_name("_uxQueueLength")
     539                      .dwattr $C$DW$61, DW_AT_type(*$C$DW$T$48)
     540                      .dwattr $C$DW$61, DW_AT_location[DW_OP_bregx 0x24 0]
     541              $C$DW$62        .dwtag  DW_TAG_variable, DW_AT_name("uxItemSize")
     542                      .dwattr $C$DW$62, DW_AT_TI_symbol_name("_uxItemSize")
     543                      .dwattr $C$DW$62, DW_AT_type(*$C$DW$T$48)
     544                      .dwattr $C$DW$62, DW_AT_location[DW_OP_bregx 0x24 1]
     545              $C$DW$63        .dwtag  DW_TAG_variable, DW_AT_name("pucQueueStorage")
     546                      .dwattr $C$DW$63, DW_AT_TI_symbol_name("_pucQueueStorage")
     547                      .dwattr $C$DW$63, DW_AT_type(*$C$DW$T$84)
     548                      .dwattr $C$DW$63, DW_AT_location[DW_OP_bregx 0x24 2]
     549              $C$DW$64        .dwtag  DW_TAG_variable, DW_AT_name("ucQueueType")
     550                      .dwattr $C$DW$64, DW_AT_TI_symbol_name("_ucQueueType")
     551                      .dwattr $C$DW$64, DW_AT_type(*$C$DW$T$50)
     552                      .dwattr $C$DW$64, DW_AT_location[DW_OP_bregx 0x24 4]
     553              $C$DW$65        .dwtag  DW_TAG_variable, DW_AT_name("pxNewQueue")
     554                      .dwattr $C$DW$65, DW_AT_TI_symbol_name("_pxNewQueue")
     555                      .dwattr $C$DW$65, DW_AT_type(*$C$DW$T$56)
     556                      .dwattr $C$DW$65, DW_AT_location[DW_OP_bregx 0x24 6]
     557 00011a EB0C          MOV XAR2, dbl(*SP(#6))
         00011c A5   
     558 00011d C908          MOV AR1, *SP(#4) ; |430| 
     559 00011f EB04          MOV XAR0, dbl(*SP(#2))
         000121 85   
     560 000122 C502          MOV T1, *SP(#1) ; |430| 
     561 000124 C400          MOV T0, *SP(#0) ; |430| 
     562                      .dwpsn  file "../FreeRTOS/Source/queue.c",line 433,column 2,is_stmt
     563                      .dwpsn  file "../FreeRTOS/Source/queue.c",line 435,column 2,is_stmt
     564 000126 A902          MOV *SP(#1), AR1 ; |435| 
     565 000128 6599          BCC $C$L9,AR1 != #0 ; |435| 
     566                                                      ; branchcc occurs ; |435| 
     567                      .dwpsn  file "../FreeRTOS/Source/queue.c",line 441,column 3,is_stmt
     568 00012a ED0C          MOV dbl(*SP(#6)), XAR2
         00012c AF   
     569 00012d ED0C          MOV dbl(*SP(#6)), XAR3
         00012f BF   
     570 000130 EB41          MOV XAR3, dbl(*AR2)
         000132 B5   
     571                      .dwpsn  file "../FreeRTOS/Source/queue.c",line 442,column 2,is_stmt
     572 000133 4A09          B $C$L10  ; |442| 
     573                                                      ; branch occurs ; |442| 
     574 000135       $C$L9:    
     575                      .dwpsn  file "../FreeRTOS/Source/queue.c",line 446,column 3,is_stmt
     576 000135 ED0C          MOV dbl(*SP(#6)), XAR2
         000137 AF   
     577 000138 ED04          MOV dbl(*SP(#2)), XAR3
         00013a BF   
     578 00013b EB41          MOV XAR3, dbl(*AR2)
         00013d B5   
     579 00013e       $C$L10:    
     580                      .dwpsn  file "../FreeRTOS/Source/queue.c",line 451,column 2,is_stmt
     581 00013e ED0C          MOV dbl(*SP(#6)), XAR3
TMS320C55x Assembler PC v4.4.1 Sun Sep 09 04:48:36 2018

Tools Copyright (c) 1996-2012 Texas Instruments Incorporated
queue.asm                                                            PAGE   13

         000140 BF   
     582 000141 A900          MOV *SP(#0), AR1 ; |451| 
     583 000143 C96D          MOV AR1, *AR3(#29) ; |451| 
         000145 001D 
     584                      .dwpsn  file "../FreeRTOS/Source/queue.c",line 452,column 2,is_stmt
     585 000147 ED0C          MOV dbl(*SP(#6)), XAR3
         000149 BF   
     586 00014a A902          MOV *SP(#1), AR1 ; |452| 
     587 00014c C96D          MOV AR1, *AR3(#30) ; |452| 
         00014e 001E 
     588                      .dwpsn  file "../FreeRTOS/Source/queue.c",line 453,column 2,is_stmt
     589 000150 3C14          MOV #1, T0
     590 000152 ED0C          MOV dbl(*SP(#6)), XAR0
         000154 8F   
     591              $C$DW$66        .dwtag  DW_TAG_TI_branch
     592                      .dwattr $C$DW$66, DW_AT_low_pc(0x00)
     593                      .dwattr $C$DW$66, DW_AT_name("_xQueueGenericReset")
     594                      .dwattr $C$DW$66, DW_AT_TI_call
     595 000155 08FE          CALL #_xQueueGenericReset ; |453| 
         000157 A8   
     596                                                      ; call occurs [#_xQueueGenericReset] ; |453| 
     597                      .dwpsn  file "../FreeRTOS/Source/queue.c",line 468,column 1,is_stmt
     598 000158 4E09          AADD #9, SP
     599                      .dwcfi  cfa_offset, 1
     600              $C$DW$67        .dwtag  DW_TAG_TI_branch
     601                      .dwattr $C$DW$67, DW_AT_low_pc(0x00)
     602                      .dwattr $C$DW$67, DW_AT_TI_return
     603 00015a 4804          RET
     604                                                      ; return occurs
     605                      .dwattr $C$DW$55, DW_AT_TI_end_file("../FreeRTOS/Source/queue.c")
     606                      .dwattr $C$DW$55, DW_AT_TI_end_line(0x1d4)
     607                      .dwattr $C$DW$55, DW_AT_TI_end_column(0x01)
     608                      .dwendentry
     609                      .dwendtag $C$DW$55
     610              
     611 00015c               .sect   ".text"
     612                      .align 4
     613                      .global _xQueueGenericSend
     614              
     615              $C$DW$68        .dwtag  DW_TAG_subprogram, DW_AT_name("xQueueGenericSend")
     616                      .dwattr $C$DW$68, DW_AT_low_pc(_xQueueGenericSend)
     617                      .dwattr $C$DW$68, DW_AT_high_pc(0x00)
     618                      .dwattr $C$DW$68, DW_AT_TI_symbol_name("_xQueueGenericSend")
     619                      .dwattr $C$DW$68, DW_AT_external
     620                      .dwattr $C$DW$68, DW_AT_type(*$C$DW$T$43)
     621                      .dwattr $C$DW$68, DW_AT_TI_begin_file("../FreeRTOS/Source/queue.c")
     622                      .dwattr $C$DW$68, DW_AT_TI_begin_line(0x2eb)
     623                      .dwattr $C$DW$68, DW_AT_TI_begin_column(0x0c)
     624                      .dwattr $C$DW$68, DW_AT_TI_max_frame_size(0x0e)
     625                      .dwpsn  file "../FreeRTOS/Source/queue.c",line 748,column 1,is_stmt,address _xQueueGenericSend
     626              
     627                      .dwfde $C$DW$CIE, _xQueueGenericSend
     628              $C$DW$69        .dwtag  DW_TAG_formal_parameter, DW_AT_name("xQueue")
     629                      .dwattr $C$DW$69, DW_AT_TI_symbol_name("_xQueue")
     630                      .dwattr $C$DW$69, DW_AT_type(*$C$DW$T$46)
TMS320C55x Assembler PC v4.4.1 Sun Sep 09 04:48:36 2018

Tools Copyright (c) 1996-2012 Texas Instruments Incorporated
queue.asm                                                            PAGE   14

     631                      .dwattr $C$DW$69, DW_AT_location[DW_OP_reg17]
     632              $C$DW$70        .dwtag  DW_TAG_formal_parameter, DW_AT_name("pvItemToQueue")
     633                      .dwattr $C$DW$70, DW_AT_TI_symbol_name("_pvItemToQueue")
     634                      .dwattr $C$DW$70, DW_AT_type(*$C$DW$T$65)
     635                      .dwattr $C$DW$70, DW_AT_location[DW_OP_reg19]
     636              $C$DW$71        .dwtag  DW_TAG_formal_parameter, DW_AT_name("xTicksToWait")
     637                      .dwattr $C$DW$71, DW_AT_TI_symbol_name("_xTicksToWait")
     638                      .dwattr $C$DW$71, DW_AT_type(*$C$DW$T$38)
     639                      .dwattr $C$DW$71, DW_AT_location[DW_OP_reg12]
     640              $C$DW$72        .dwtag  DW_TAG_formal_parameter, DW_AT_name("xCopyPosition")
     641                      .dwattr $C$DW$72, DW_AT_TI_symbol_name("_xCopyPosition")
     642                      .dwattr $C$DW$72, DW_AT_type(*$C$DW$T$93)
     643                      .dwattr $C$DW$72, DW_AT_location[DW_OP_reg13]
     644              ;*******************************************************************************
     645              ;* FUNCTION NAME: xQueueGenericSend                                            *
     646              ;*                                                                             *
     647              ;*   Function Uses Regs : T0,T1,AR0,XAR0,AR1,XAR1,AR2,AR3,XAR3,SP,CARRY,TC1,   *
     648              ;*                        M40,SATA,SATD,RDM,FRCT,SMUL                          *
     649              ;*   Stack Frame        : Compact (No Frame Pointer, w/ debug)                 *
     650              ;*   Total Frame Size   : 14 words                                             *
     651              ;*                        (2 return address/alignment)                         *
     652              ;*                        (12 local values)                                    *
     653              ;*   Min System Stack   : 1 word                                               *
     654              ;*******************************************************************************
     655 00015c       _xQueueGenericSend:
     656                      .dwcfi  cfa_offset, 1
     657                      .dwcfi  save_reg_to_mem, 91, -1
     658 00015c 4EF3          AADD #-13, SP
     659                      .dwcfi  cfa_offset, 14
     660              $C$DW$73        .dwtag  DW_TAG_variable, DW_AT_name("xQueue")
     661                      .dwattr $C$DW$73, DW_AT_TI_symbol_name("_xQueue")
     662                      .dwattr $C$DW$73, DW_AT_type(*$C$DW$T$46)
     663                      .dwattr $C$DW$73, DW_AT_location[DW_OP_bregx 0x24 0]
     664              $C$DW$74        .dwtag  DW_TAG_variable, DW_AT_name("pvItemToQueue")
     665                      .dwattr $C$DW$74, DW_AT_TI_symbol_name("_pvItemToQueue")
     666                      .dwattr $C$DW$74, DW_AT_type(*$C$DW$T$65)
     667                      .dwattr $C$DW$74, DW_AT_location[DW_OP_bregx 0x24 2]
     668              $C$DW$75        .dwtag  DW_TAG_variable, DW_AT_name("xTicksToWait")
     669                      .dwattr $C$DW$75, DW_AT_TI_symbol_name("_xTicksToWait")
     670                      .dwattr $C$DW$75, DW_AT_type(*$C$DW$T$38)
     671                      .dwattr $C$DW$75, DW_AT_location[DW_OP_bregx 0x24 4]
     672              $C$DW$76        .dwtag  DW_TAG_variable, DW_AT_name("xCopyPosition")
     673                      .dwattr $C$DW$76, DW_AT_TI_symbol_name("_xCopyPosition")
     674                      .dwattr $C$DW$76, DW_AT_type(*$C$DW$T$93)
     675                      .dwattr $C$DW$76, DW_AT_location[DW_OP_bregx 0x24 5]
     676              $C$DW$77        .dwtag  DW_TAG_variable, DW_AT_name("xEntryTimeSet")
     677                      .dwattr $C$DW$77, DW_AT_TI_symbol_name("_xEntryTimeSet")
     678                      .dwattr $C$DW$77, DW_AT_type(*$C$DW$T$43)
     679                      .dwattr $C$DW$77, DW_AT_location[DW_OP_bregx 0x24 6]
     680              $C$DW$78        .dwtag  DW_TAG_variable, DW_AT_name("xYieldRequired")
     681                      .dwattr $C$DW$78, DW_AT_TI_symbol_name("_xYieldRequired")
     682                      .dwattr $C$DW$78, DW_AT_type(*$C$DW$T$43)
     683                      .dwattr $C$DW$78, DW_AT_location[DW_OP_bregx 0x24 7]
     684              $C$DW$79        .dwtag  DW_TAG_variable, DW_AT_name("xTimeOut")
     685                      .dwattr $C$DW$79, DW_AT_TI_symbol_name("_xTimeOut")
TMS320C55x Assembler PC v4.4.1 Sun Sep 09 04:48:36 2018

Tools Copyright (c) 1996-2012 Texas Instruments Incorporated
queue.asm                                                            PAGE   15

     686                      .dwattr $C$DW$79, DW_AT_type(*$C$DW$T$77)
     687                      .dwattr $C$DW$79, DW_AT_location[DW_OP_bregx 0x24 8]
     688              $C$DW$80        .dwtag  DW_TAG_variable, DW_AT_name("pxQueue")
     689                      .dwattr $C$DW$80, DW_AT_TI_symbol_name("_pxQueue")
     690                      .dwattr $C$DW$80, DW_AT_type(*$C$DW$T$57)
     691                      .dwattr $C$DW$80, DW_AT_location[DW_OP_bregx 0x24 10]
     692 00015e C50A          MOV T1, *SP(#5) ; |748| 
     693 000160 C408          MOV T0, *SP(#4) ; |748| 
     694 000162 EB04          MOV XAR1, dbl(*SP(#2))
         000164 95   
     695 000165 EB00          MOV XAR0, dbl(*SP(#0))
         000167 85   
     696                      .dwpsn  file "../FreeRTOS/Source/queue.c",line 749,column 12,is_stmt
     697 000168 E60C          MOV #0, *SP(#6) ; |749| 
         00016a 00   
     698                      .dwpsn  file "../FreeRTOS/Source/queue.c",line 751,column 17,is_stmt
     699 00016b ED00          MOV dbl(*SP(#0)), XAR3
         00016d BF   
     700 00016e EB14          MOV XAR3, dbl(*SP(#10))
         000170 B5   
     701 000171       $C$L11:    
     702 000171       $C$DW$L$_xQueueGenericSend$2$B:
     703                      .dwpsn  file "../FreeRTOS/Source/queue.c",line 768,column 3,is_stmt
     704 000171 20     nop
     705 000172 46B3   bset INTM
     706 000174 F731          ADD #1, *(#_usCriticalNesting) ; |768| 
         000176 0001 
         000178 0000 
         00017a 00!  
     707 00017b 20            NOP
     708                      .dwpsn  file "../FreeRTOS/Source/queue.c",line 774,column 4,is_stmt
     709 00017c ED14          MOV dbl(*SP(#10)), XAR3
         00017e BF   
     710 00017f A96D          MOV *AR3(#29), AR1 ; |774| 
         000181 001D 
     711 000183 AA6D          MOV *AR3(#28), AR2 ; |774| 
         000185 001C 
     712 000187 12A4          CMPU AR2 < AR1, TC1 ; |774| 
         000189 94   
     713 00018a 63E4          BCC $C$L12,TC1 ; |774| 
     714                                                      ; branchcc occurs ; |774| 
     715 00018c       $C$DW$L$_xQueueGenericSend$2$E:
     716 00018c       $C$DW$L$_xQueueGenericSend$3$B:
     717 00018c F00A          CMP *SP(#5) == #2, TC1 ; |774| 
         00018e 0002 
     718 000190 0474          BCC $C$L18,!TC1 ; |774| 
         000192 5A   
     719                                                      ; branchcc occurs ; |774| 
     720 000193       $C$DW$L$_xQueueGenericSend$3$E:
     721 000193       $C$L12:    
     722                      .dwpsn  file "../FreeRTOS/Source/queue.c",line 840,column 6,is_stmt
     723 000193 ED14          MOV dbl(*SP(#10)), XAR0
         000195 8F   
     724 000196 ED04          MOV dbl(*SP(#2)), XAR1
         000198 9F   
TMS320C55x Assembler PC v4.4.1 Sun Sep 09 04:48:36 2018

Tools Copyright (c) 1996-2012 Texas Instruments Incorporated
queue.asm                                                            PAGE   16

     725 000199 A40A          MOV *SP(#5), T0 ; |840| 
     726              $C$DW$81        .dwtag  DW_TAG_TI_branch
     727                      .dwattr $C$DW$81, DW_AT_low_pc(0x00)
     728                      .dwattr $C$DW$81, DW_AT_name("_prvCopyDataToQueue")
     729                      .dwattr $C$DW$81, DW_AT_TI_call
     730 00019b 0808          CALL #_prvCopyDataToQueue ; |840| 
         00019d 56   
     731                                                      ; call occurs [#_prvCopyDataToQueue] ; |840| 
     732 00019e C40E          MOV T0, *SP(#7) ; |840| 
     733                      .dwpsn  file "../FreeRTOS/Source/queue.c",line 844,column 6,is_stmt
     734 0001a0 ED14          MOV dbl(*SP(#10)), XAR3
         0001a2 BF   
     735 0001a3 A96D          MOV *AR3(#18), AR1 ; |844| 
         0001a5 0012 
     736 0001a7 6219          BCC $C$L13,AR1 != #0 ; |844| 
     737                                                      ; branchcc occurs ; |844| 
     738 0001a9 3C19          MOV #1, AR1
     739 0001ab 4A02          B $C$L14  ; |844| 
     740                                                      ; branch occurs ; |844| 
     741 0001ad       $C$L13:    
     742 0001ad 3C09          MOV #0, AR1
     743 0001af       $C$L14:    
     744 0001af 0419          BCC $C$L15,AR1 != #0 ; |844| 
         0001b1 12   
     745                                                      ; branchcc occurs ; |844| 
     746                      .dwpsn  file "../FreeRTOS/Source/queue.c",line 846,column 7,is_stmt
     747 0001b2 ED14          MOV dbl(*SP(#10)), XAR0
         0001b4 8F   
     748 0001b5 1412          AADD #18, AR0 ; |846| 
         0001b7 84   
     749              $C$DW$82        .dwtag  DW_TAG_TI_branch
     750                      .dwattr $C$DW$82, DW_AT_low_pc(0x00)
     751                      .dwattr $C$DW$82, DW_AT_name("_xTaskRemoveFromEventList")
     752                      .dwattr $C$DW$82, DW_AT_TI_call
     753 0001b8 6C00          CALL #_xTaskRemoveFromEventList ; |846| 
         0001ba 0000!
     754                                                      ; call occurs [#_xTaskRemoveFromEventList] ; |846| 
     755 0001bc 6704          BCC $C$L16,T0 == #0 ; |846| 
     756                                                      ; branchcc occurs ; |846| 
     757                      .dwpsn  file "../FreeRTOS/Source/queue.c",line 852,column 8,is_stmt
     758              $C$DW$83        .dwtag  DW_TAG_TI_branch
     759                      .dwattr $C$DW$83, DW_AT_low_pc(0x00)
     760                      .dwattr $C$DW$83, DW_AT_name("_vPortYield")
     761                      .dwattr $C$DW$83, DW_AT_TI_call
     762 0001be 6C00          CALL #_vPortYield ; |852| 
         0001c0 0000!
     763                                                      ; call occurs [#_vPortYield] ; |852| 
     764                      .dwpsn  file "../FreeRTOS/Source/queue.c",line 853,column 7,is_stmt
     765 0001c2 4A08          B $C$L16  ; |853| 
     766                                                      ; branch occurs ; |853| 
     767 0001c4       $C$L15:    
     768                      .dwpsn  file "../FreeRTOS/Source/queue.c",line 859,column 11,is_stmt
     769 0001c4 2249          MOV T0, AR1
     770 0001c6 6209          BCC $C$L16,AR1 == #0 ; |859| 
     771                                                      ; branchcc occurs ; |859| 
TMS320C55x Assembler PC v4.4.1 Sun Sep 09 04:48:36 2018

Tools Copyright (c) 1996-2012 Texas Instruments Incorporated
queue.asm                                                            PAGE   17

     772                      .dwpsn  file "../FreeRTOS/Source/queue.c",line 865,column 7,is_stmt
     773              $C$DW$84        .dwtag  DW_TAG_TI_branch
     774                      .dwattr $C$DW$84, DW_AT_low_pc(0x00)
     775                      .dwattr $C$DW$84, DW_AT_name("_vPortYield")
     776                      .dwattr $C$DW$84, DW_AT_TI_call
     777 0001c8 6C00          CALL #_vPortYield ; |865| 
         0001ca 0000!
     778                                                      ; call occurs [#_vPortYield] ; |865| 
     779                      .dwpsn  file "../FreeRTOS/Source/queue.c",line 866,column 6,is_stmt
     780 0001cc       $C$L16:    
     781                      .dwpsn  file "../FreeRTOS/Source/queue.c",line 874,column 5,is_stmt
     782 0001cc A931          MOV *(#_usCriticalNesting), AR1 ; |874| 
         0001ce 0000 
         0001d0 00!  
     783 0001d1 0409          BCC $C$L17,AR1 == #0 ; |874| 
         0001d3 14   
     784                                                      ; branchcc occurs ; |874| 
     785 0001d4 F731          SUB #1, *(#_usCriticalNesting) ; |874| 
         0001d6 FFFF 
         0001d8 0000 
         0001da 00!  
     786 0001db 20            NOP
     787 0001dc 20            NOP
     788 0001dd 20            NOP
     789 0001de A931          MOV *(#_usCriticalNesting), AR1 ; |874| 
         0001e0 0000 
         0001e2 00!  
     790 0001e3 6199          BCC $C$L17,AR1 != #0 ; |874| 
     791                                                      ; branchcc occurs ; |874| 
     792 0001e5 20     nop
     793 0001e6 46B2   bclr INTM
     794 0001e8       $C$L17:    
     795                      .dwpsn  file "../FreeRTOS/Source/queue.c",line 875,column 5,is_stmt
     796 0001e8 3C14          MOV #1, T0
     797 0001ea 0600          B $C$L28  ; |875| 
         0001ec EE   
     798                                                      ; branch occurs ; |875| 
     799 0001ed       $C$L18:    
     800 0001ed       $C$DW$L$_xQueueGenericSend$18$B:
     801                      .dwpsn  file "../FreeRTOS/Source/queue.c",line 879,column 5,is_stmt
     802 0001ed A908          MOV *SP(#4), AR1 ; |879| 
     803 0001ef 0419          BCC $C$L20,AR1 != #0 ; |879| 
         0001f1 21   
     804                                                      ; branchcc occurs ; |879| 
     805 0001f2       $C$DW$L$_xQueueGenericSend$18$E:
     806                      .dwpsn  file "../FreeRTOS/Source/queue.c",line 883,column 6,is_stmt
     807 0001f2 A931          MOV *(#_usCriticalNesting), AR1 ; |883| 
         0001f4 0000 
         0001f6 00!  
     808 0001f7 0409          BCC $C$L19,AR1 == #0 ; |883| 
         0001f9 14   
     809                                                      ; branchcc occurs ; |883| 
     810 0001fa F731          SUB #1, *(#_usCriticalNesting) ; |883| 
         0001fc FFFF 
         0001fe 0000 
TMS320C55x Assembler PC v4.4.1 Sun Sep 09 04:48:36 2018

Tools Copyright (c) 1996-2012 Texas Instruments Incorporated
queue.asm                                                            PAGE   18

         000200 00!  
     811 000201 20            NOP
     812 000202 20            NOP
     813 000203 20            NOP
     814 000204 A931          MOV *(#_usCriticalNesting), AR1 ; |883| 
         000206 0000 
         000208 00!  
     815 000209 6199          BCC $C$L19,AR1 != #0 ; |883| 
     816                                                      ; branchcc occurs ; |883| 
     817 00020b 20     nop
     818 00020c 46B2   bclr INTM
     819 00020e       $C$L19:    
     820                      .dwpsn  file "../FreeRTOS/Source/queue.c",line 888,column 6,is_stmt
     821 00020e 3C04          MOV #0, T0
     822 000210 0600          B $C$L28  ; |888| 
         000212 C8   
     823                                                      ; branch occurs ; |888| 
     824 000213       $C$L20:    
     825 000213       $C$DW$L$_xQueueGenericSend$24$B:
     826                      .dwpsn  file "../FreeRTOS/Source/queue.c",line 890,column 10,is_stmt
     827 000213 A90C          MOV *SP(#6), AR1 ; |890| 
     828 000215 6519          BCC $C$L21,AR1 != #0 ; |890| 
     829                                                      ; branchcc occurs ; |890| 
     830 000217       $C$DW$L$_xQueueGenericSend$24$E:
     831 000217       $C$DW$L$_xQueueGenericSend$25$B:
     832                      .dwpsn  file "../FreeRTOS/Source/queue.c",line 894,column 6,is_stmt
     833 000217 EC10          AMAR *SP(#8), XAR0
         000219 8E   
     834              $C$DW$85        .dwtag  DW_TAG_TI_branch
     835                      .dwattr $C$DW$85, DW_AT_low_pc(0x00)
     836                      .dwattr $C$DW$85, DW_AT_name("_vTaskInternalSetTimeOutState")
     837                      .dwattr $C$DW$85, DW_AT_TI_call
     838 00021a 6C00          CALL #_vTaskInternalSetTimeOutState ; |894| 
         00021c 0000!
     839                                                      ; call occurs [#_vTaskInternalSetTimeOutState] ; |894| 
     840                      .dwpsn  file "../FreeRTOS/Source/queue.c",line 895,column 6,is_stmt
     841 00021e E60C          MOV #1, *SP(#6) ; |895| 
         000220 01   
     842                      .dwpsn  file "../FreeRTOS/Source/queue.c",line 896,column 5,is_stmt
     843 000221       $C$DW$L$_xQueueGenericSend$25$E:
     844 000221       $C$L21:    
     845 000221       $C$DW$L$_xQueueGenericSend$26$B:
     846                      .dwpsn  file "../FreeRTOS/Source/queue.c",line 904,column 3,is_stmt
     847 000221 A931          MOV *(#_usCriticalNesting), AR1 ; |904| 
         000223 0000 
         000225 00!  
     848 000226 0409          BCC $C$L22,AR1 == #0 ; |904| 
         000228 14   
     849                                                      ; branchcc occurs ; |904| 
     850 000229       $C$DW$L$_xQueueGenericSend$26$E:
     851 000229       $C$DW$L$_xQueueGenericSend$27$B:
     852 000229 F731          SUB #1, *(#_usCriticalNesting) ; |904| 
         00022b FFFF 
         00022d 0000 
         00022f 00!  
TMS320C55x Assembler PC v4.4.1 Sun Sep 09 04:48:36 2018

Tools Copyright (c) 1996-2012 Texas Instruments Incorporated
queue.asm                                                            PAGE   19

     853 000230 20            NOP
     854 000231 20            NOP
     855 000232 20            NOP
     856 000233 A931          MOV *(#_usCriticalNesting), AR1 ; |904| 
         000235 0000 
         000237 00!  
     857 000238 6199          BCC $C$L22,AR1 != #0 ; |904| 
     858                                                      ; branchcc occurs ; |904| 
     859 00023a       $C$DW$L$_xQueueGenericSend$27$E:
     860 00023a       $C$DW$L$_xQueueGenericSend$28$B:
     861 00023a 20     nop
     862 00023b 46B2   bclr INTM
     863 00023d       $C$DW$L$_xQueueGenericSend$28$E:
     864 00023d       $C$L22:    
     865 00023d       $C$DW$L$_xQueueGenericSend$29$B:
     866                      .dwpsn  file "../FreeRTOS/Source/queue.c",line 909,column 3,is_stmt
     867              $C$DW$86        .dwtag  DW_TAG_TI_branch
     868                      .dwattr $C$DW$86, DW_AT_low_pc(0x00)
     869                      .dwattr $C$DW$86, DW_AT_name("_vTaskSuspendAll")
     870                      .dwattr $C$DW$86, DW_AT_TI_call
     871 00023d 6C00          CALL #_vTaskSuspendAll ; |909| 
         00023f 0000!
     872                                                      ; call occurs [#_vTaskSuspendAll] ; |909| 
     873                      .dwpsn  file "../FreeRTOS/Source/queue.c",line 910,column 3,is_stmt
     874 000241 20     nop
     875 000242 46B3   bset INTM
     876 000244 F731          ADD #1, *(#_usCriticalNesting) ; |910| 
         000246 0001 
         000248 0000 
         00024a 00!  
     877 00024b 20            NOP
     878 00024c 20            NOP
     879 00024d ED14          MOV dbl(*SP(#10)), XAR3
         00024f BF   
     880 000250 F06D          CMP *AR3(#31) == #-1, TC1 ; |910| 
         000252 FFFF 
         000254 001F 
     881 000256 62F4          BCC $C$L23,!TC1 ; |910| 
     882                                                      ; branchcc occurs ; |910| 
     883 000258       $C$DW$L$_xQueueGenericSend$29$E:
     884 000258       $C$DW$L$_xQueueGenericSend$30$B:
     885 000258 E66D          MOV #0, *AR3(#31) ; |910| 
         00025a 0000 
         00025c 1F   
     886 00025d       $C$DW$L$_xQueueGenericSend$30$E:
     887 00025d       $C$L23:    
     888 00025d       $C$DW$L$_xQueueGenericSend$31$B:
     889 00025d ED14          MOV dbl(*SP(#10)), XAR3
         00025f BF   
     890 000260 F06D          CMP *AR3(#32) == #-1, TC1 ; |910| 
         000262 FFFF 
         000264 0020 
     891 000266 62F4          BCC $C$L24,!TC1 ; |910| 
     892                                                      ; branchcc occurs ; |910| 
     893 000268       $C$DW$L$_xQueueGenericSend$31$E:
TMS320C55x Assembler PC v4.4.1 Sun Sep 09 04:48:36 2018

Tools Copyright (c) 1996-2012 Texas Instruments Incorporated
queue.asm                                                            PAGE   20

     894 000268       $C$DW$L$_xQueueGenericSend$32$B:
     895 000268 E66D          MOV #0, *AR3(#32) ; |910| 
         00026a 0000 
         00026c 20   
     896 00026d       $C$DW$L$_xQueueGenericSend$32$E:
     897 00026d       $C$L24:    
     898 00026d       $C$DW$L$_xQueueGenericSend$33$B:
     899 00026d A931          MOV *(#_usCriticalNesting), AR1 ; |910| 
         00026f 0000 
         000271 00!  
     900 000272 0409          BCC $C$L25,AR1 == #0 ; |910| 
         000274 14   
     901                                                      ; branchcc occurs ; |910| 
     902 000275       $C$DW$L$_xQueueGenericSend$33$E:
     903 000275       $C$DW$L$_xQueueGenericSend$34$B:
     904 000275 F731          SUB #1, *(#_usCriticalNesting) ; |910| 
         000277 FFFF 
         000279 0000 
         00027b 00!  
     905 00027c 20            NOP
     906 00027d 20            NOP
     907 00027e 20            NOP
     908 00027f A931          MOV *(#_usCriticalNesting), AR1 ; |910| 
         000281 0000 
         000283 00!  
     909 000284 6199          BCC $C$L25,AR1 != #0 ; |910| 
     910                                                      ; branchcc occurs ; |910| 
     911 000286       $C$DW$L$_xQueueGenericSend$34$E:
     912 000286       $C$DW$L$_xQueueGenericSend$35$B:
     913 000286 20     nop
     914 000287 46B2   bclr INTM
     915 000289       $C$DW$L$_xQueueGenericSend$35$E:
     916 000289       $C$L25:    
     917 000289       $C$DW$L$_xQueueGenericSend$36$B:
     918                      .dwpsn  file "../FreeRTOS/Source/queue.c",line 913,column 3,is_stmt
     919 000289 EC10          AMAR *SP(#8), XAR0
         00028b 8E   
     920 00028c EC08          AMAR *SP(#4), XAR1
         00028e 9E   
     921              $C$DW$87        .dwtag  DW_TAG_TI_branch
     922                      .dwattr $C$DW$87, DW_AT_low_pc(0x00)
     923                      .dwattr $C$DW$87, DW_AT_name("_xTaskCheckForTimeOut")
     924                      .dwattr $C$DW$87, DW_AT_TI_call
     925 00028f 6C00          CALL #_xTaskCheckForTimeOut ; |913| 
         000291 0000!
     926                                                      ; call occurs [#_xTaskCheckForTimeOut] ; |913| 
     927 000293 0414          BCC $C$L27,T0 != #0 ; |913| 
         000295 37   
     928                                                      ; branchcc occurs ; |913| 
     929 000296       $C$DW$L$_xQueueGenericSend$36$E:
     930 000296       $C$DW$L$_xQueueGenericSend$37$B:
     931                      .dwpsn  file "../FreeRTOS/Source/queue.c",line 915,column 4,is_stmt
     932 000296 ED14          MOV dbl(*SP(#10)), XAR0
         000298 8F   
     933              $C$DW$88        .dwtag  DW_TAG_TI_branch
TMS320C55x Assembler PC v4.4.1 Sun Sep 09 04:48:36 2018

Tools Copyright (c) 1996-2012 Texas Instruments Incorporated
queue.asm                                                            PAGE   21

     934                      .dwattr $C$DW$88, DW_AT_low_pc(0x00)
     935                      .dwattr $C$DW$88, DW_AT_name("_prvIsQueueFull")
     936                      .dwattr $C$DW$88, DW_AT_TI_call
     937 000299 0809          CALL #_prvIsQueueFull ; |915| 
         00029b CC   
     938                                                      ; call occurs [#_prvIsQueueFull] ; |915| 
     939 00029c 0404          BCC $C$L26,T0 == #0 ; |915| 
         00029e 21   
     940                                                      ; branchcc occurs ; |915| 
     941 00029f       $C$DW$L$_xQueueGenericSend$37$E:
     942 00029f       $C$DW$L$_xQueueGenericSend$38$B:
     943                      .dwpsn  file "../FreeRTOS/Source/queue.c",line 918,column 5,is_stmt
     944 00029f ED14          MOV dbl(*SP(#10)), XAR0
         0002a1 8F   
     945              
     946                      AADD #8, AR0 ; |918| 
     947 0002a2 8A08  ||      MOV *SP(#4), T0 ; |918| 
         0002a4 841C 
         0002a6 08   
     948              
     949              $C$DW$89        .dwtag  DW_TAG_TI_branch
     950                      .dwattr $C$DW$89, DW_AT_low_pc(0x00)
     951                      .dwattr $C$DW$89, DW_AT_name("_vTaskPlaceOnEventList")
     952                      .dwattr $C$DW$89, DW_AT_TI_call
     953 0002a7 6C00          CALL #_vTaskPlaceOnEventList ; |918| 
         0002a9 0000!
     954                                                      ; call occurs [#_vTaskPlaceOnEventList] ; |918| 
     955                      .dwpsn  file "../FreeRTOS/Source/queue.c",line 925,column 5,is_stmt
     956 0002ab ED14          MOV dbl(*SP(#10)), XAR0
         0002ad 8F   
     957              $C$DW$90        .dwtag  DW_TAG_TI_branch
     958                      .dwattr $C$DW$90, DW_AT_low_pc(0x00)
     959                      .dwattr $C$DW$90, DW_AT_name("_prvUnlockQueue")
     960                      .dwattr $C$DW$90, DW_AT_TI_call
     961 0002ae 0808          CALL #_prvUnlockQueue ; |925| 
         0002b0 6F   
     962                                                      ; call occurs [#_prvUnlockQueue] ; |925| 
     963                      .dwpsn  file "../FreeRTOS/Source/queue.c",line 932,column 5,is_stmt
     964              $C$DW$91        .dwtag  DW_TAG_TI_branch
     965                      .dwattr $C$DW$91, DW_AT_low_pc(0x00)
     966                      .dwattr $C$DW$91, DW_AT_name("_xTaskResumeAll")
     967                      .dwattr $C$DW$91, DW_AT_TI_call
     968 0002b1 6C00          CALL #_xTaskResumeAll ; |932| 
         0002b3 0000!
     969                                                      ; call occurs [#_xTaskResumeAll] ; |932| 
     970 0002b5 6D14          BCC $C$L11,T0 != #0 ; |932| 
         0002b7 FEB8 
     971                                                      ; branchcc occurs ; |932| 
     972 0002b9       $C$DW$L$_xQueueGenericSend$38$E:
     973 0002b9       $C$DW$L$_xQueueGenericSend$39$B:
     974                      .dwpsn  file "../FreeRTOS/Source/queue.c",line 934,column 6,is_stmt
     975              $C$DW$92        .dwtag  DW_TAG_TI_branch
     976                      .dwattr $C$DW$92, DW_AT_low_pc(0x00)
     977                      .dwattr $C$DW$92, DW_AT_name("_vPortYield")
     978                      .dwattr $C$DW$92, DW_AT_TI_call
TMS320C55x Assembler PC v4.4.1 Sun Sep 09 04:48:36 2018

Tools Copyright (c) 1996-2012 Texas Instruments Incorporated
queue.asm                                                            PAGE   22

     979 0002b9 6C00          CALL #_vPortYield ; |934| 
         0002bb 0000!
     980                                                      ; call occurs [#_vPortYield] ; |934| 
     981                      .dwpsn  file "../FreeRTOS/Source/queue.c",line 936,column 4,is_stmt
     982 0002bd 06FE          B $C$L11  ; |936| 
         0002bf B1   
     983                                                      ; branch occurs ; |936| 
     984 0002c0       $C$DW$L$_xQueueGenericSend$39$E:
     985 0002c0       $C$L26:    
     986 0002c0       $C$DW$L$_xQueueGenericSend$40$B:
     987                      .dwpsn  file "../FreeRTOS/Source/queue.c",line 940,column 5,is_stmt
     988 0002c0 ED14          MOV dbl(*SP(#10)), XAR0
         0002c2 8F   
     989              $C$DW$93        .dwtag  DW_TAG_TI_branch
     990                      .dwattr $C$DW$93, DW_AT_low_pc(0x00)
     991                      .dwattr $C$DW$93, DW_AT_name("_prvUnlockQueue")
     992                      .dwattr $C$DW$93, DW_AT_TI_call
     993 0002c3 0808          CALL #_prvUnlockQueue ; |940| 
         0002c5 5A   
     994                                                      ; call occurs [#_prvUnlockQueue] ; |940| 
     995                      .dwpsn  file "../FreeRTOS/Source/queue.c",line 941,column 5,is_stmt
     996              $C$DW$94        .dwtag  DW_TAG_TI_branch
     997                      .dwattr $C$DW$94, DW_AT_low_pc(0x00)
     998                      .dwattr $C$DW$94, DW_AT_name("_xTaskResumeAll")
     999                      .dwattr $C$DW$94, DW_AT_TI_call
    1000 0002c6 6C00          CALL #_xTaskResumeAll ; |941| 
         0002c8 0000!
    1001                                                      ; call occurs [#_xTaskResumeAll] ; |941| 
    1002                      .dwpsn  file "../FreeRTOS/Source/queue.c",line 943,column 3,is_stmt
    1003 0002ca 06FE          B $C$L11  ; |943| 
         0002cc A4   
    1004                                                      ; branch occurs ; |943| 
    1005 0002cd       $C$DW$L$_xQueueGenericSend$40$E:
    1006 0002cd       $C$L27:    
    1007                      .dwpsn  file "../FreeRTOS/Source/queue.c",line 947,column 4,is_stmt
    1008 0002cd ED14          MOV dbl(*SP(#10)), XAR0
         0002cf 8F   
    1009              $C$DW$95        .dwtag  DW_TAG_TI_branch
    1010                      .dwattr $C$DW$95, DW_AT_low_pc(0x00)
    1011                      .dwattr $C$DW$95, DW_AT_name("_prvUnlockQueue")
    1012                      .dwattr $C$DW$95, DW_AT_TI_call
    1013 0002d0 0808          CALL #_prvUnlockQueue ; |947| 
         0002d2 4D   
    1014                                                      ; call occurs [#_prvUnlockQueue] ; |947| 
    1015                      .dwpsn  file "../FreeRTOS/Source/queue.c",line 948,column 4,is_stmt
    1016              $C$DW$96        .dwtag  DW_TAG_TI_branch
    1017                      .dwattr $C$DW$96, DW_AT_low_pc(0x00)
    1018                      .dwattr $C$DW$96, DW_AT_name("_xTaskResumeAll")
    1019                      .dwattr $C$DW$96, DW_AT_TI_call
    1020 0002d3 6C00          CALL #_xTaskResumeAll ; |948| 
         0002d5 0000!
    1021                                                      ; call occurs [#_xTaskResumeAll] ; |948| 
    1022                      .dwpsn  file "../FreeRTOS/Source/queue.c",line 951,column 4,is_stmt
    1023 0002d7 3C04          MOV #0, T0
    1024 0002d9 4A00          B $C$L28  ; |951| 
TMS320C55x Assembler PC v4.4.1 Sun Sep 09 04:48:36 2018

Tools Copyright (c) 1996-2012 Texas Instruments Incorporated
queue.asm                                                            PAGE   23

    1025                                                      ; branch occurs ; |951| 
    1026 0002db       $C$L28:    
    1027                      .dwpsn  file "../FreeRTOS/Source/queue.c",line 954,column 1,is_stmt
    1028 0002db 4E0D          AADD #13, SP
    1029                      .dwcfi  cfa_offset, 1
    1030              $C$DW$97        .dwtag  DW_TAG_TI_branch
    1031                      .dwattr $C$DW$97, DW_AT_low_pc(0x00)
    1032                      .dwattr $C$DW$97, DW_AT_TI_return
    1033 0002dd 4804          RET
    1034                                                      ; return occurs
    1035              
    1036              $C$DW$98        .dwtag  DW_TAG_TI_loop
    1037                      .dwattr $C$DW$98, DW_AT_name("F:\eZdsp_DBG\eZDSP_5535_Files\ccsws2\test\Debug\queue.asm:$C$L11:1:1536
    1038                      .dwattr $C$DW$98, DW_AT_TI_begin_file("../FreeRTOS/Source/queue.c")
    1039                      .dwattr $C$DW$98, DW_AT_TI_begin_line(0x2fe)
    1040                      .dwattr $C$DW$98, DW_AT_TI_end_line(0x3b9)
    1041              $C$DW$99        .dwtag  DW_TAG_TI_loop_range
    1042                      .dwattr $C$DW$99, DW_AT_low_pc($C$DW$L$_xQueueGenericSend$2$B)
    1043                      .dwattr $C$DW$99, DW_AT_high_pc($C$DW$L$_xQueueGenericSend$2$E)
    1044              $C$DW$100       .dwtag  DW_TAG_TI_loop_range
    1045                      .dwattr $C$DW$100, DW_AT_low_pc($C$DW$L$_xQueueGenericSend$3$B)
    1046                      .dwattr $C$DW$100, DW_AT_high_pc($C$DW$L$_xQueueGenericSend$3$E)
    1047              $C$DW$101       .dwtag  DW_TAG_TI_loop_range
    1048                      .dwattr $C$DW$101, DW_AT_low_pc($C$DW$L$_xQueueGenericSend$18$B)
    1049                      .dwattr $C$DW$101, DW_AT_high_pc($C$DW$L$_xQueueGenericSend$18$E)
    1050              $C$DW$102       .dwtag  DW_TAG_TI_loop_range
    1051                      .dwattr $C$DW$102, DW_AT_low_pc($C$DW$L$_xQueueGenericSend$24$B)
    1052                      .dwattr $C$DW$102, DW_AT_high_pc($C$DW$L$_xQueueGenericSend$24$E)
    1053              $C$DW$103       .dwtag  DW_TAG_TI_loop_range
    1054                      .dwattr $C$DW$103, DW_AT_low_pc($C$DW$L$_xQueueGenericSend$25$B)
    1055                      .dwattr $C$DW$103, DW_AT_high_pc($C$DW$L$_xQueueGenericSend$25$E)
    1056              $C$DW$104       .dwtag  DW_TAG_TI_loop_range
    1057                      .dwattr $C$DW$104, DW_AT_low_pc($C$DW$L$_xQueueGenericSend$26$B)
    1058                      .dwattr $C$DW$104, DW_AT_high_pc($C$DW$L$_xQueueGenericSend$26$E)
    1059              $C$DW$105       .dwtag  DW_TAG_TI_loop_range
    1060                      .dwattr $C$DW$105, DW_AT_low_pc($C$DW$L$_xQueueGenericSend$27$B)
    1061                      .dwattr $C$DW$105, DW_AT_high_pc($C$DW$L$_xQueueGenericSend$27$E)
    1062              $C$DW$106       .dwtag  DW_TAG_TI_loop_range
    1063                      .dwattr $C$DW$106, DW_AT_low_pc($C$DW$L$_xQueueGenericSend$28$B)
    1064                      .dwattr $C$DW$106, DW_AT_high_pc($C$DW$L$_xQueueGenericSend$28$E)
    1065              $C$DW$107       .dwtag  DW_TAG_TI_loop_range
    1066                      .dwattr $C$DW$107, DW_AT_low_pc($C$DW$L$_xQueueGenericSend$29$B)
    1067                      .dwattr $C$DW$107, DW_AT_high_pc($C$DW$L$_xQueueGenericSend$29$E)
    1068              $C$DW$108       .dwtag  DW_TAG_TI_loop_range
    1069                      .dwattr $C$DW$108, DW_AT_low_pc($C$DW$L$_xQueueGenericSend$30$B)
    1070                      .dwattr $C$DW$108, DW_AT_high_pc($C$DW$L$_xQueueGenericSend$30$E)
    1071              $C$DW$109       .dwtag  DW_TAG_TI_loop_range
    1072                      .dwattr $C$DW$109, DW_AT_low_pc($C$DW$L$_xQueueGenericSend$31$B)
    1073                      .dwattr $C$DW$109, DW_AT_high_pc($C$DW$L$_xQueueGenericSend$31$E)
    1074              $C$DW$110       .dwtag  DW_TAG_TI_loop_range
    1075                      .dwattr $C$DW$110, DW_AT_low_pc($C$DW$L$_xQueueGenericSend$32$B)
    1076                      .dwattr $C$DW$110, DW_AT_high_pc($C$DW$L$_xQueueGenericSend$32$E)
    1077              $C$DW$111       .dwtag  DW_TAG_TI_loop_range
    1078                      .dwattr $C$DW$111, DW_AT_low_pc($C$DW$L$_xQueueGenericSend$33$B)
    1079                      .dwattr $C$DW$111, DW_AT_high_pc($C$DW$L$_xQueueGenericSend$33$E)
TMS320C55x Assembler PC v4.4.1 Sun Sep 09 04:48:36 2018

Tools Copyright (c) 1996-2012 Texas Instruments Incorporated
queue.asm                                                            PAGE   24

    1080              $C$DW$112       .dwtag  DW_TAG_TI_loop_range
    1081                      .dwattr $C$DW$112, DW_AT_low_pc($C$DW$L$_xQueueGenericSend$34$B)
    1082                      .dwattr $C$DW$112, DW_AT_high_pc($C$DW$L$_xQueueGenericSend$34$E)
    1083              $C$DW$113       .dwtag  DW_TAG_TI_loop_range
    1084                      .dwattr $C$DW$113, DW_AT_low_pc($C$DW$L$_xQueueGenericSend$35$B)
    1085                      .dwattr $C$DW$113, DW_AT_high_pc($C$DW$L$_xQueueGenericSend$35$E)
    1086              $C$DW$114       .dwtag  DW_TAG_TI_loop_range
    1087                      .dwattr $C$DW$114, DW_AT_low_pc($C$DW$L$_xQueueGenericSend$36$B)
    1088                      .dwattr $C$DW$114, DW_AT_high_pc($C$DW$L$_xQueueGenericSend$36$E)
    1089              $C$DW$115       .dwtag  DW_TAG_TI_loop_range
    1090                      .dwattr $C$DW$115, DW_AT_low_pc($C$DW$L$_xQueueGenericSend$37$B)
    1091                      .dwattr $C$DW$115, DW_AT_high_pc($C$DW$L$_xQueueGenericSend$37$E)
    1092              $C$DW$116       .dwtag  DW_TAG_TI_loop_range
    1093                      .dwattr $C$DW$116, DW_AT_low_pc($C$DW$L$_xQueueGenericSend$40$B)
    1094                      .dwattr $C$DW$116, DW_AT_high_pc($C$DW$L$_xQueueGenericSend$40$E)
    1095              $C$DW$117       .dwtag  DW_TAG_TI_loop_range
    1096                      .dwattr $C$DW$117, DW_AT_low_pc($C$DW$L$_xQueueGenericSend$39$B)
    1097                      .dwattr $C$DW$117, DW_AT_high_pc($C$DW$L$_xQueueGenericSend$39$E)
    1098              $C$DW$118       .dwtag  DW_TAG_TI_loop_range
    1099                      .dwattr $C$DW$118, DW_AT_low_pc($C$DW$L$_xQueueGenericSend$38$B)
    1100                      .dwattr $C$DW$118, DW_AT_high_pc($C$DW$L$_xQueueGenericSend$38$E)
    1101                      .dwendtag $C$DW$98
    1102              
    1103                      .dwattr $C$DW$68, DW_AT_TI_end_file("../FreeRTOS/Source/queue.c")
    1104                      .dwattr $C$DW$68, DW_AT_TI_end_line(0x3ba)
    1105                      .dwattr $C$DW$68, DW_AT_TI_end_column(0x01)
    1106                      .dwendentry
    1107                      .dwendtag $C$DW$68
    1108              
    1109 0002df               .sect   ".text"
    1110                      .align 4
    1111                      .global _xQueueGenericSendFromISR
    1112              
    1113              $C$DW$119       .dwtag  DW_TAG_subprogram, DW_AT_name("xQueueGenericSendFromISR")
    1114                      .dwattr $C$DW$119, DW_AT_low_pc(_xQueueGenericSendFromISR)
    1115                      .dwattr $C$DW$119, DW_AT_high_pc(0x00)
    1116                      .dwattr $C$DW$119, DW_AT_TI_symbol_name("_xQueueGenericSendFromISR")
    1117                      .dwattr $C$DW$119, DW_AT_external
    1118                      .dwattr $C$DW$119, DW_AT_type(*$C$DW$T$43)
    1119                      .dwattr $C$DW$119, DW_AT_TI_begin_file("../FreeRTOS/Source/queue.c")
    1120                      .dwattr $C$DW$119, DW_AT_TI_begin_line(0x3bd)
    1121                      .dwattr $C$DW$119, DW_AT_TI_begin_column(0x0c)
    1122                      .dwattr $C$DW$119, DW_AT_TI_max_frame_size(0x0e)
    1123                      .dwpsn  file "../FreeRTOS/Source/queue.c",line 958,column 1,is_stmt,address _xQueueGenericSendFromISR
    1124              
    1125                      .dwfde $C$DW$CIE, _xQueueGenericSendFromISR
    1126              $C$DW$120       .dwtag  DW_TAG_formal_parameter, DW_AT_name("xQueue")
    1127                      .dwattr $C$DW$120, DW_AT_TI_symbol_name("_xQueue")
    1128                      .dwattr $C$DW$120, DW_AT_type(*$C$DW$T$46)
    1129                      .dwattr $C$DW$120, DW_AT_location[DW_OP_reg17]
    1130              $C$DW$121       .dwtag  DW_TAG_formal_parameter, DW_AT_name("pvItemToQueue")
    1131                      .dwattr $C$DW$121, DW_AT_TI_symbol_name("_pvItemToQueue")
    1132                      .dwattr $C$DW$121, DW_AT_type(*$C$DW$T$65)
    1133                      .dwattr $C$DW$121, DW_AT_location[DW_OP_reg19]
    1134              $C$DW$122       .dwtag  DW_TAG_formal_parameter, DW_AT_name("pxHigherPriorityTaskWoken")
TMS320C55x Assembler PC v4.4.1 Sun Sep 09 04:48:36 2018

Tools Copyright (c) 1996-2012 Texas Instruments Incorporated
queue.asm                                                            PAGE   25

    1135                      .dwattr $C$DW$122, DW_AT_TI_symbol_name("_pxHigherPriorityTaskWoken")
    1136                      .dwattr $C$DW$122, DW_AT_type(*$C$DW$T$111)
    1137                      .dwattr $C$DW$122, DW_AT_location[DW_OP_reg21]
    1138              $C$DW$123       .dwtag  DW_TAG_formal_parameter, DW_AT_name("xCopyPosition")
    1139                      .dwattr $C$DW$123, DW_AT_TI_symbol_name("_xCopyPosition")
    1140                      .dwattr $C$DW$123, DW_AT_type(*$C$DW$T$93)
    1141                      .dwattr $C$DW$123, DW_AT_location[DW_OP_reg12]
    1142              ;*******************************************************************************
    1143              ;* FUNCTION NAME: xQueueGenericSendFromISR                                     *
    1144              ;*                                                                             *
    1145              ;*   Function Uses Regs : AC0,AC0,T0,AR0,XAR0,AR1,XAR1,AR2,XAR2,AR3,XAR3,SP,   *
    1146              ;*                        CARRY,TC1,M40,SATA,SATD,RDM,FRCT,SMUL                *
    1147              ;*   Stack Frame        : Compact (No Frame Pointer, w/ debug)                 *
    1148              ;*   Total Frame Size   : 14 words                                             *
    1149              ;*                        (1 return address/alignment)                         *
    1150              ;*                        (13 local values)                                    *
    1151              ;*   Min System Stack   : 1 word                                               *
    1152              ;*******************************************************************************
    1153 0002e0       _xQueueGenericSendFromISR:
    1154                      .dwcfi  cfa_offset, 1
    1155                      .dwcfi  save_reg_to_mem, 91, -1
    1156 0002e0 4EF3          AADD #-13, SP
    1157                      .dwcfi  cfa_offset, 14
    1158              $C$DW$124       .dwtag  DW_TAG_variable, DW_AT_name("xQueue")
    1159                      .dwattr $C$DW$124, DW_AT_TI_symbol_name("_xQueue")
    1160                      .dwattr $C$DW$124, DW_AT_type(*$C$DW$T$46)
    1161                      .dwattr $C$DW$124, DW_AT_location[DW_OP_bregx 0x24 0]
    1162              $C$DW$125       .dwtag  DW_TAG_variable, DW_AT_name("pvItemToQueue")
    1163                      .dwattr $C$DW$125, DW_AT_TI_symbol_name("_pvItemToQueue")
    1164                      .dwattr $C$DW$125, DW_AT_type(*$C$DW$T$65)
    1165                      .dwattr $C$DW$125, DW_AT_location[DW_OP_bregx 0x24 2]
    1166              $C$DW$126       .dwtag  DW_TAG_variable, DW_AT_name("pxHigherPriorityTaskWoken")
    1167                      .dwattr $C$DW$126, DW_AT_TI_symbol_name("_pxHigherPriorityTaskWoken")
    1168                      .dwattr $C$DW$126, DW_AT_type(*$C$DW$T$111)
    1169                      .dwattr $C$DW$126, DW_AT_location[DW_OP_bregx 0x24 4]
    1170              $C$DW$127       .dwtag  DW_TAG_variable, DW_AT_name("xCopyPosition")
    1171                      .dwattr $C$DW$127, DW_AT_TI_symbol_name("_xCopyPosition")
    1172                      .dwattr $C$DW$127, DW_AT_type(*$C$DW$T$93)
    1173                      .dwattr $C$DW$127, DW_AT_location[DW_OP_bregx 0x24 6]
    1174              $C$DW$128       .dwtag  DW_TAG_variable, DW_AT_name("xReturn")
    1175                      .dwattr $C$DW$128, DW_AT_TI_symbol_name("_xReturn")
    1176                      .dwattr $C$DW$128, DW_AT_type(*$C$DW$T$43)
    1177                      .dwattr $C$DW$128, DW_AT_location[DW_OP_bregx 0x24 7]
    1178              $C$DW$129       .dwtag  DW_TAG_variable, DW_AT_name("uxSavedInterruptStatus")
    1179                      .dwattr $C$DW$129, DW_AT_TI_symbol_name("_uxSavedInterruptStatus")
    1180                      .dwattr $C$DW$129, DW_AT_type(*$C$DW$T$26)
    1181                      .dwattr $C$DW$129, DW_AT_location[DW_OP_bregx 0x24 8]
    1182              $C$DW$130       .dwtag  DW_TAG_variable, DW_AT_name("pxQueue")
    1183                      .dwattr $C$DW$130, DW_AT_TI_symbol_name("_pxQueue")
    1184                      .dwattr $C$DW$130, DW_AT_type(*$C$DW$T$57)
    1185                      .dwattr $C$DW$130, DW_AT_location[DW_OP_bregx 0x24 10]
    1186 0002e2 C40C          MOV T0, *SP(#6) ; |958| 
    1187 0002e4 EB08          MOV XAR2, dbl(*SP(#4))
         0002e6 A5   
    1188 0002e7 EB04          MOV XAR1, dbl(*SP(#2))
TMS320C55x Assembler PC v4.4.1 Sun Sep 09 04:48:36 2018

Tools Copyright (c) 1996-2012 Texas Instruments Incorporated
queue.asm                                                            PAGE   26

         0002e9 95   
    1189 0002ea EB00          MOV XAR0, dbl(*SP(#0))
         0002ec 85   
    1190                      .dwpsn  file "../FreeRTOS/Source/queue.c",line 961,column 17,is_stmt
    1191 0002ed ED00          MOV dbl(*SP(#0)), XAR3
         0002ef BF   
    1192 0002f0 EB14          MOV XAR3, dbl(*SP(#10))
         0002f2 B5   
    1193                      .dwpsn  file "../FreeRTOS/Source/queue.c",line 988,column 2,is_stmt
    1194 0002f3 E610          MOV #0, *SP(#8) ; |988| 
         0002f5 00   
    1195                      .dwpsn  file "../FreeRTOS/Source/queue.c",line 990,column 3,is_stmt
    1196 0002f6 ED14          MOV dbl(*SP(#10)), XAR3
         0002f8 BF   
    1197 0002f9 A96D          MOV *AR3(#29), AR1 ; |990| 
         0002fb 001D 
    1198 0002fd AA6D          MOV *AR3(#28), AR2 ; |990| 
         0002ff 001C 
    1199 000301 12A4          CMPU AR2 < AR1, TC1 ; |990| 
         000303 94   
    1200 000304 63E4          BCC $C$L29,TC1 ; |990| 
    1201                                                      ; branchcc occurs ; |990| 
    1202 000306 F00C          CMP *SP(#6) == #2, TC1 ; |990| 
         000308 0002 
    1203 00030a 0474          BCC $C$L34,!TC1 ; |990| 
         00030c 54   
    1204                                                      ; branchcc occurs ; |990| 
    1205 00030d       $C$L29:    
    1206              
    1207              $C$DW$131       .dwtag  DW_TAG_lexical_block, DW_AT_low_pc(0x00), DW_AT_high_pc(0x00)
    1208              $C$DW$132       .dwtag  DW_TAG_variable, DW_AT_name("cTxLock")
    1209                      .dwattr $C$DW$132, DW_AT_TI_symbol_name("_cTxLock")
    1210                      .dwattr $C$DW$132, DW_AT_type(*$C$DW$T$92)
    1211                      .dwattr $C$DW$132, DW_AT_location[DW_OP_bregx 0x24 12]
    1212                      .dwpsn  file "../FreeRTOS/Source/queue.c",line 992,column 17,is_stmt
    1213 00030d A96D          MOV *AR3(#32), AR1 ; |992| 
         00030f 0020 
    1214 000311 C918          MOV AR1, *SP(#12) ; |992| 
    1215                      .dwpsn  file "../FreeRTOS/Source/queue.c",line 1001,column 4,is_stmt
    1216 000313 ED14          MOV dbl(*SP(#10)), XAR0
         000315 8F   
    1217 000316 A40C          MOV *SP(#6), T0 ; |1001| 
    1218 000318 ED04          MOV dbl(*SP(#2)), XAR1
         00031a 9F   
    1219              $C$DW$133       .dwtag  DW_TAG_TI_branch
    1220                      .dwattr $C$DW$133, DW_AT_low_pc(0x00)
    1221                      .dwattr $C$DW$133, DW_AT_name("_prvCopyDataToQueue")
    1222                      .dwattr $C$DW$133, DW_AT_TI_call
    1223 00031b 0806          CALL #_prvCopyDataToQueue ; |1001| 
         00031d D6   
    1224                                                      ; call occurs [#_prvCopyDataToQueue] ; |1001| 
    1225                      .dwpsn  file "../FreeRTOS/Source/queue.c",line 1005,column 4,is_stmt
    1226 00031e F018          CMP *SP(#12) == #-1, TC1 ; |1005| 
         000320 FFFF 
    1227 000322 0474          BCC $C$L32,!TC1 ; |1005| 
TMS320C55x Assembler PC v4.4.1 Sun Sep 09 04:48:36 2018

Tools Copyright (c) 1996-2012 Texas Instruments Incorporated
queue.asm                                                            PAGE   27

         000324 2C   
    1228                                                      ; branchcc occurs ; |1005| 
    1229                      .dwpsn  file "../FreeRTOS/Source/queue.c",line 1060,column 6,is_stmt
    1230 000325 ED14          MOV dbl(*SP(#10)), XAR3
         000327 BF   
    1231 000328 A96D          MOV *AR3(#18), AR1 ; |1060| 
         00032a 0012 
    1232 00032c 6219          BCC $C$L30,AR1 != #0 ; |1060| 
    1233                                                      ; branchcc occurs ; |1060| 
    1234 00032e 3C19          MOV #1, AR1
    1235 000330 4A02          B $C$L31  ; |1060| 
    1236                                                      ; branch occurs ; |1060| 
    1237 000332       $C$L30:    
    1238 000332 3C09          MOV #0, AR1
    1239 000334       $C$L31:    
    1240 000334 0419          BCC $C$L33,AR1 != #0 ; |1060| 
         000336 25   
    1241                                                      ; branchcc occurs ; |1060| 
    1242                      .dwpsn  file "../FreeRTOS/Source/queue.c",line 1062,column 7,is_stmt
    1243 000337 ED14          MOV dbl(*SP(#10)), XAR0
         000339 8F   
    1244 00033a 1412          AADD #18, AR0 ; |1062| 
         00033c 84   
    1245              $C$DW$134       .dwtag  DW_TAG_TI_branch
    1246                      .dwattr $C$DW$134, DW_AT_low_pc(0x00)
    1247                      .dwattr $C$DW$134, DW_AT_name("_xTaskRemoveFromEventList")
    1248                      .dwattr $C$DW$134, DW_AT_TI_call
    1249 00033d 6C00          CALL #_xTaskRemoveFromEventList ; |1062| 
         00033f 0000!
    1250                                                      ; call occurs [#_xTaskRemoveFromEventList] ; |1062| 
    1251 000341 0404          BCC $C$L33,T0 == #0 ; |1062| 
         000343 18   
    1252                                                      ; branchcc occurs ; |1062| 
    1253                      .dwpsn  file "../FreeRTOS/Source/queue.c",line 1066,column 8,is_stmt
    1254 000344 ED08          MOV dbl(*SP(#4)), XAR3
         000346 BF   
    1255 000347 90B0          MOV XAR3, AC0
    1256 000349 0400          BCC $C$L33,AC0 == #0 ; |1066| 
         00034b 10   
    1257                                                      ; branchcc occurs ; |1066| 
    1258                      .dwpsn  file "../FreeRTOS/Source/queue.c",line 1068,column 9,is_stmt
    1259 00034c E661          MOV #1, *AR3 ; |1068| 
         00034e 01   
    1260                      .dwpsn  file "../FreeRTOS/Source/queue.c",line 1069,column 8,is_stmt
    1261 00034f 4A0B          B $C$L33  ; |1069| 
    1262                                                      ; branch occurs ; |1069| 
    1263 000351       $C$L32:    
    1264                      .dwpsn  file "../FreeRTOS/Source/queue.c",line 1091,column 5,is_stmt
    1265 000351 ED14          MOV dbl(*SP(#10)), XAR3
         000353 BF   
    1266 000354 A918          MOV *SP(#12), AR1 ; |1091| 
    1267 000356 4019          ADD #1, AR1 ; |1091| 
    1268 000358 C96D          MOV AR1, *AR3(#32) ; |1091| 
         00035a 0020 
    1269 00035c       $C$L33:    
TMS320C55x Assembler PC v4.4.1 Sun Sep 09 04:48:36 2018

Tools Copyright (c) 1996-2012 Texas Instruments Incorporated
queue.asm                                                            PAGE   28

    1270                      .dwpsn  file "../FreeRTOS/Source/queue.c",line 1094,column 4,is_stmt
    1271 00035c E60E          MOV #1, *SP(#7) ; |1094| 
         00035e 01   
    1272                      .dwendtag $C$DW$131
    1273              
    1274                      .dwpsn  file "../FreeRTOS/Source/queue.c",line 1095,column 3,is_stmt
    1275 00035f 4A03          B $C$L35  ; |1095| 
    1276                                                      ; branch occurs ; |1095| 
    1277 000361       $C$L34:    
    1278                      .dwpsn  file "../FreeRTOS/Source/queue.c",line 1099,column 4,is_stmt
    1279 000361 E60E          MOV #0, *SP(#7) ; |1099| 
         000363 00   
    1280 000364       $C$L35:    
    1281                      .dwpsn  file "../FreeRTOS/Source/queue.c",line 1102,column 2,is_stmt
    1282                      .dwpsn  file "../FreeRTOS/Source/queue.c",line 1104,column 2,is_stmt
    1283 000364 A40E          MOV *SP(#7), T0 ; |1104| 
    1284                      .dwpsn  file "../FreeRTOS/Source/queue.c",line 1105,column 1,is_stmt
    1285 000366 4E0D          AADD #13, SP
    1286                      .dwcfi  cfa_offset, 1
    1287              $C$DW$135       .dwtag  DW_TAG_TI_branch
    1288                      .dwattr $C$DW$135, DW_AT_low_pc(0x00)
    1289                      .dwattr $C$DW$135, DW_AT_TI_return
    1290 000368 4804          RET
    1291                                                      ; return occurs
    1292                      .dwattr $C$DW$119, DW_AT_TI_end_file("../FreeRTOS/Source/queue.c")
    1293                      .dwattr $C$DW$119, DW_AT_TI_end_line(0x451)
    1294                      .dwattr $C$DW$119, DW_AT_TI_end_column(0x01)
    1295                      .dwendentry
    1296                      .dwendtag $C$DW$119
    1297              
    1298 00036a               .sect   ".text"
    1299                      .align 4
    1300                      .global _xQueueGiveFromISR
    1301              
    1302              $C$DW$136       .dwtag  DW_TAG_subprogram, DW_AT_name("xQueueGiveFromISR")
    1303                      .dwattr $C$DW$136, DW_AT_low_pc(_xQueueGiveFromISR)
    1304                      .dwattr $C$DW$136, DW_AT_high_pc(0x00)
    1305                      .dwattr $C$DW$136, DW_AT_TI_symbol_name("_xQueueGiveFromISR")
    1306                      .dwattr $C$DW$136, DW_AT_external
    1307                      .dwattr $C$DW$136, DW_AT_type(*$C$DW$T$43)
    1308                      .dwattr $C$DW$136, DW_AT_TI_begin_file("../FreeRTOS/Source/queue.c")
    1309                      .dwattr $C$DW$136, DW_AT_TI_begin_line(0x454)
    1310                      .dwattr $C$DW$136, DW_AT_TI_begin_column(0x0c)
    1311                      .dwattr $C$DW$136, DW_AT_TI_max_frame_size(0x0c)
    1312                      .dwpsn  file "../FreeRTOS/Source/queue.c",line 1109,column 1,is_stmt,address _xQueueGiveFromISR
    1313              
    1314                      .dwfde $C$DW$CIE, _xQueueGiveFromISR
    1315              $C$DW$137       .dwtag  DW_TAG_formal_parameter, DW_AT_name("xQueue")
    1316                      .dwattr $C$DW$137, DW_AT_TI_symbol_name("_xQueue")
    1317                      .dwattr $C$DW$137, DW_AT_type(*$C$DW$T$46)
    1318                      .dwattr $C$DW$137, DW_AT_location[DW_OP_reg17]
    1319              $C$DW$138       .dwtag  DW_TAG_formal_parameter, DW_AT_name("pxHigherPriorityTaskWoken")
    1320                      .dwattr $C$DW$138, DW_AT_TI_symbol_name("_pxHigherPriorityTaskWoken")
    1321                      .dwattr $C$DW$138, DW_AT_type(*$C$DW$T$111)
    1322                      .dwattr $C$DW$138, DW_AT_location[DW_OP_reg19]
TMS320C55x Assembler PC v4.4.1 Sun Sep 09 04:48:36 2018

Tools Copyright (c) 1996-2012 Texas Instruments Incorporated
queue.asm                                                            PAGE   29

    1323              ;*******************************************************************************
    1324              ;* FUNCTION NAME: xQueueGiveFromISR                                            *
    1325              ;*                                                                             *
    1326              ;*   Function Uses Regs : AC0,AC0,T0,AR0,XAR0,AR1,XAR1,AR2,AR3,XAR3,SP,CARRY,  *
    1327              ;*                        TC1,M40,SATA,SATD,RDM,FRCT,SMUL                      *
    1328              ;*   Stack Frame        : Compact (No Frame Pointer, w/ debug)                 *
    1329              ;*   Total Frame Size   : 12 words                                             *
    1330              ;*                        (2 return address/alignment)                         *
    1331              ;*                        (10 local values)                                    *
    1332              ;*   Min System Stack   : 1 word                                               *
    1333              ;*******************************************************************************
    1334 00036c       _xQueueGiveFromISR:
    1335                      .dwcfi  cfa_offset, 1
    1336                      .dwcfi  save_reg_to_mem, 91, -1
    1337 00036c 4EF5          AADD #-11, SP
    1338                      .dwcfi  cfa_offset, 12
    1339              $C$DW$139       .dwtag  DW_TAG_variable, DW_AT_name("xQueue")
    1340                      .dwattr $C$DW$139, DW_AT_TI_symbol_name("_xQueue")
    1341                      .dwattr $C$DW$139, DW_AT_type(*$C$DW$T$46)
    1342                      .dwattr $C$DW$139, DW_AT_location[DW_OP_bregx 0x24 0]
    1343              $C$DW$140       .dwtag  DW_TAG_variable, DW_AT_name("pxHigherPriorityTaskWoken")
    1344                      .dwattr $C$DW$140, DW_AT_TI_symbol_name("_pxHigherPriorityTaskWoken")
    1345                      .dwattr $C$DW$140, DW_AT_type(*$C$DW$T$111)
    1346                      .dwattr $C$DW$140, DW_AT_location[DW_OP_bregx 0x24 2]
    1347              $C$DW$141       .dwtag  DW_TAG_variable, DW_AT_name("xReturn")
    1348                      .dwattr $C$DW$141, DW_AT_TI_symbol_name("_xReturn")
    1349                      .dwattr $C$DW$141, DW_AT_type(*$C$DW$T$43)
    1350                      .dwattr $C$DW$141, DW_AT_location[DW_OP_bregx 0x24 4]
    1351              $C$DW$142       .dwtag  DW_TAG_variable, DW_AT_name("uxSavedInterruptStatus")
    1352                      .dwattr $C$DW$142, DW_AT_TI_symbol_name("_uxSavedInterruptStatus")
    1353                      .dwattr $C$DW$142, DW_AT_type(*$C$DW$T$26)
    1354                      .dwattr $C$DW$142, DW_AT_location[DW_OP_bregx 0x24 5]
    1355              $C$DW$143       .dwtag  DW_TAG_variable, DW_AT_name("pxQueue")
    1356                      .dwattr $C$DW$143, DW_AT_TI_symbol_name("_pxQueue")
    1357                      .dwattr $C$DW$143, DW_AT_type(*$C$DW$T$57)
    1358                      .dwattr $C$DW$143, DW_AT_location[DW_OP_bregx 0x24 6]
    1359 00036e EB04          MOV XAR1, dbl(*SP(#2))
         000370 95   
    1360 000371 EB00          MOV XAR0, dbl(*SP(#0))
         000373 85   
    1361                      .dwpsn  file "../FreeRTOS/Source/queue.c",line 1112,column 17,is_stmt
    1362 000374 ED00          MOV dbl(*SP(#0)), XAR3
         000376 BF   
    1363 000377 EB0C          MOV XAR3, dbl(*SP(#6))
         000379 B5   
    1364                      .dwpsn  file "../FreeRTOS/Source/queue.c",line 1147,column 2,is_stmt
    1365 00037a E60A          MOV #0, *SP(#5) ; |1147| 
         00037c 00   
    1366              
    1367              $C$DW$144       .dwtag  DW_TAG_lexical_block, DW_AT_low_pc(0x00), DW_AT_high_pc(0x00)
    1368              $C$DW$145       .dwtag  DW_TAG_variable, DW_AT_name("uxMessagesWaiting")
    1369                      .dwattr $C$DW$145, DW_AT_TI_symbol_name("_uxMessagesWaiting")
    1370                      .dwattr $C$DW$145, DW_AT_type(*$C$DW$T$48)
    1371                      .dwattr $C$DW$145, DW_AT_location[DW_OP_bregx 0x24 8]
    1372                      .dwpsn  file "../FreeRTOS/Source/queue.c",line 1149,column 21,is_stmt
TMS320C55x Assembler PC v4.4.1 Sun Sep 09 04:48:36 2018

Tools Copyright (c) 1996-2012 Texas Instruments Incorporated
queue.asm                                                            PAGE   30

    1373 00037d ED0C          MOV dbl(*SP(#6)), XAR3
         00037f BF   
    1374 000380 A96D          MOV *AR3(#28), AR1 ; |1149| 
         000382 001C 
    1375 000384 C910          MOV AR1, *SP(#8) ; |1149| 
    1376                      .dwpsn  file "../FreeRTOS/Source/queue.c",line 1154,column 3,is_stmt
    1377 000386 ED0C          MOV dbl(*SP(#6)), XAR3
         000388 BF   
    1378 000389 AA10          MOV *SP(#8), AR2 ; |1154| 
    1379 00038b A96D          MOV *AR3(#29), AR1 ; |1154| 
         00038d 001D 
    1380 00038f 12A8          CMPU AR2 >= AR1, TC1 ; |1154| 
         000391 94   
    1381 000392 0464          BCC $C$L40,TC1 ; |1154| 
         000394 54   
    1382                                                      ; branchcc occurs ; |1154| 
    1383              
    1384              $C$DW$146       .dwtag  DW_TAG_lexical_block, DW_AT_low_pc(0x00), DW_AT_high_pc(0x00)
    1385              $C$DW$147       .dwtag  DW_TAG_variable, DW_AT_name("cTxLock")
    1386                      .dwattr $C$DW$147, DW_AT_TI_symbol_name("_cTxLock")
    1387                      .dwattr $C$DW$147, DW_AT_type(*$C$DW$T$92)
    1388                      .dwattr $C$DW$147, DW_AT_location[DW_OP_bregx 0x24 9]
    1389                      .dwpsn  file "../FreeRTOS/Source/queue.c",line 1156,column 17,is_stmt
    1390 000395 A96D          MOV *AR3(#32), AR1 ; |1156| 
         000397 0020 
    1391 000399 C912          MOV AR1, *SP(#9) ; |1156| 
    1392                      .dwpsn  file "../FreeRTOS/Source/queue.c",line 1166,column 4,is_stmt
    1393 00039b ED0C          MOV dbl(*SP(#6)), XAR3
         00039d BF   
    1394 00039e A910          MOV *SP(#8), AR1 ; |1166| 
    1395 0003a0 4019          ADD #1, AR1 ; |1166| 
    1396 0003a2 C96D          MOV AR1, *AR3(#28) ; |1166| 
         0003a4 001C 
    1397                      .dwpsn  file "../FreeRTOS/Source/queue.c",line 1170,column 4,is_stmt
    1398 0003a6 F012          CMP *SP(#9) == #-1, TC1 ; |1170| 
         0003a8 FFFF 
    1399 0003aa 0474          BCC $C$L38,!TC1 ; |1170| 
         0003ac 2C   
    1400                                                      ; branchcc occurs ; |1170| 
    1401                      .dwpsn  file "../FreeRTOS/Source/queue.c",line 1225,column 6,is_stmt
    1402 0003ad ED0C          MOV dbl(*SP(#6)), XAR3
         0003af BF   
    1403 0003b0 A96D          MOV *AR3(#18), AR1 ; |1225| 
         0003b2 0012 
    1404 0003b4 6219          BCC $C$L36,AR1 != #0 ; |1225| 
    1405                                                      ; branchcc occurs ; |1225| 
    1406 0003b6 3C19          MOV #1, AR1
    1407 0003b8 4A02          B $C$L37  ; |1225| 
    1408                                                      ; branch occurs ; |1225| 
    1409 0003ba       $C$L36:    
    1410 0003ba 3C09          MOV #0, AR1
    1411 0003bc       $C$L37:    
    1412 0003bc 0419          BCC $C$L39,AR1 != #0 ; |1225| 
         0003be 25   
    1413                                                      ; branchcc occurs ; |1225| 
TMS320C55x Assembler PC v4.4.1 Sun Sep 09 04:48:36 2018

Tools Copyright (c) 1996-2012 Texas Instruments Incorporated
queue.asm                                                            PAGE   31

    1414                      .dwpsn  file "../FreeRTOS/Source/queue.c",line 1227,column 7,is_stmt
    1415 0003bf ED0C          MOV dbl(*SP(#6)), XAR0
         0003c1 8F   
    1416 0003c2 1412          AADD #18, AR0 ; |1227| 
         0003c4 84   
    1417              $C$DW$148       .dwtag  DW_TAG_TI_branch
    1418                      .dwattr $C$DW$148, DW_AT_low_pc(0x00)
    1419                      .dwattr $C$DW$148, DW_AT_name("_xTaskRemoveFromEventList")
    1420                      .dwattr $C$DW$148, DW_AT_TI_call
    1421 0003c5 6C00          CALL #_xTaskRemoveFromEventList ; |1227| 
         0003c7 0000!
    1422                                                      ; call occurs [#_xTaskRemoveFromEventList] ; |1227| 
    1423 0003c9 0404          BCC $C$L39,T0 == #0 ; |1227| 
         0003cb 18   
    1424                                                      ; branchcc occurs ; |1227| 
    1425                      .dwpsn  file "../FreeRTOS/Source/queue.c",line 1231,column 8,is_stmt
    1426 0003cc ED04          MOV dbl(*SP(#2)), XAR3
         0003ce BF   
    1427 0003cf 90B0          MOV XAR3, AC0
    1428 0003d1 0400          BCC $C$L39,AC0 == #0 ; |1231| 
         0003d3 10   
    1429                                                      ; branchcc occurs ; |1231| 
    1430                      .dwpsn  file "../FreeRTOS/Source/queue.c",line 1233,column 9,is_stmt
    1431 0003d4 E661          MOV #1, *AR3 ; |1233| 
         0003d6 01   
    1432                      .dwpsn  file "../FreeRTOS/Source/queue.c",line 1234,column 8,is_stmt
    1433 0003d7 4A0B          B $C$L39  ; |1234| 
    1434                                                      ; branch occurs ; |1234| 
    1435 0003d9       $C$L38:    
    1436                      .dwpsn  file "../FreeRTOS/Source/queue.c",line 1256,column 5,is_stmt
    1437 0003d9 ED0C          MOV dbl(*SP(#6)), XAR3
         0003db BF   
    1438 0003dc A912          MOV *SP(#9), AR1 ; |1256| 
    1439 0003de 4019          ADD #1, AR1 ; |1256| 
    1440 0003e0 C96D          MOV AR1, *AR3(#32) ; |1256| 
         0003e2 0020 
    1441 0003e4       $C$L39:    
    1442                      .dwpsn  file "../FreeRTOS/Source/queue.c",line 1259,column 4,is_stmt
    1443 0003e4 E608          MOV #1, *SP(#4) ; |1259| 
         0003e6 01   
    1444                      .dwendtag $C$DW$146
    1445              
    1446                      .dwpsn  file "../FreeRTOS/Source/queue.c",line 1260,column 3,is_stmt
    1447 0003e7 4A03          B $C$L41  ; |1260| 
    1448                                                      ; branch occurs ; |1260| 
    1449 0003e9       $C$L40:    
    1450                      .dwpsn  file "../FreeRTOS/Source/queue.c",line 1264,column 4,is_stmt
    1451 0003e9 E608          MOV #0, *SP(#4) ; |1264| 
         0003eb 00   
    1452              $C$L41:    
    1453                      .dwendtag $C$DW$144
    1454              
    1455                      .dwpsn  file "../FreeRTOS/Source/queue.c",line 1267,column 2,is_stmt
    1456                      .dwpsn  file "../FreeRTOS/Source/queue.c",line 1269,column 2,is_stmt
    1457 0003ec A408          MOV *SP(#4), T0 ; |1269| 
TMS320C55x Assembler PC v4.4.1 Sun Sep 09 04:48:36 2018

Tools Copyright (c) 1996-2012 Texas Instruments Incorporated
queue.asm                                                            PAGE   32

    1458                      .dwpsn  file "../FreeRTOS/Source/queue.c",line 1270,column 1,is_stmt
    1459 0003ee 4E0B          AADD #11, SP
    1460                      .dwcfi  cfa_offset, 1
    1461              $C$DW$149       .dwtag  DW_TAG_TI_branch
    1462                      .dwattr $C$DW$149, DW_AT_low_pc(0x00)
    1463                      .dwattr $C$DW$149, DW_AT_TI_return
    1464 0003f0 4804          RET
    1465                                                      ; return occurs
    1466                      .dwattr $C$DW$136, DW_AT_TI_end_file("../FreeRTOS/Source/queue.c")
    1467                      .dwattr $C$DW$136, DW_AT_TI_end_line(0x4f6)
    1468                      .dwattr $C$DW$136, DW_AT_TI_end_column(0x01)
    1469                      .dwendentry
    1470                      .dwendtag $C$DW$136
    1471              
    1472 0003f2               .sect   ".text"
    1473                      .align 4
    1474                      .global _xQueueReceive
    1475              
    1476              $C$DW$150       .dwtag  DW_TAG_subprogram, DW_AT_name("xQueueReceive")
    1477                      .dwattr $C$DW$150, DW_AT_low_pc(_xQueueReceive)
    1478                      .dwattr $C$DW$150, DW_AT_high_pc(0x00)
    1479                      .dwattr $C$DW$150, DW_AT_TI_symbol_name("_xQueueReceive")
    1480                      .dwattr $C$DW$150, DW_AT_external
    1481                      .dwattr $C$DW$150, DW_AT_type(*$C$DW$T$43)
    1482                      .dwattr $C$DW$150, DW_AT_TI_begin_file("../FreeRTOS/Source/queue.c")
    1483                      .dwattr $C$DW$150, DW_AT_TI_begin_line(0x4f9)
    1484                      .dwattr $C$DW$150, DW_AT_TI_begin_column(0x0c)
    1485                      .dwattr $C$DW$150, DW_AT_TI_max_frame_size(0x0c)
    1486                      .dwpsn  file "../FreeRTOS/Source/queue.c",line 1274,column 1,is_stmt,address _xQueueReceive
    1487              
    1488                      .dwfde $C$DW$CIE, _xQueueReceive
    1489              $C$DW$151       .dwtag  DW_TAG_formal_parameter, DW_AT_name("xQueue")
    1490                      .dwattr $C$DW$151, DW_AT_TI_symbol_name("_xQueue")
    1491                      .dwattr $C$DW$151, DW_AT_type(*$C$DW$T$46)
    1492                      .dwattr $C$DW$151, DW_AT_location[DW_OP_reg17]
    1493              $C$DW$152       .dwtag  DW_TAG_formal_parameter, DW_AT_name("pvBuffer")
    1494                      .dwattr $C$DW$152, DW_AT_TI_symbol_name("_pvBuffer")
    1495                      .dwattr $C$DW$152, DW_AT_type(*$C$DW$T$64)
    1496                      .dwattr $C$DW$152, DW_AT_location[DW_OP_reg19]
    1497              $C$DW$153       .dwtag  DW_TAG_formal_parameter, DW_AT_name("xTicksToWait")
    1498                      .dwattr $C$DW$153, DW_AT_TI_symbol_name("_xTicksToWait")
    1499                      .dwattr $C$DW$153, DW_AT_type(*$C$DW$T$38)
    1500                      .dwattr $C$DW$153, DW_AT_location[DW_OP_reg12]
    1501              ;*******************************************************************************
    1502              ;* FUNCTION NAME: xQueueReceive                                                *
    1503              ;*                                                                             *
    1504              ;*   Function Uses Regs : T0,AR0,XAR0,AR1,XAR1,AR3,XAR3,SP,CARRY,TC1,M40,SATA, *
    1505              ;*                        SATD,RDM,FRCT,SMUL                                   *
    1506              ;*   Stack Frame        : Compact (No Frame Pointer, w/ debug)                 *
    1507              ;*   Total Frame Size   : 12 words                                             *
    1508              ;*                        (1 return address/alignment)                         *
    1509              ;*                        (11 local values)                                    *
    1510              ;*   Min System Stack   : 1 word                                               *
    1511              ;*******************************************************************************
    1512 0003f4       _xQueueReceive:
TMS320C55x Assembler PC v4.4.1 Sun Sep 09 04:48:36 2018

Tools Copyright (c) 1996-2012 Texas Instruments Incorporated
queue.asm                                                            PAGE   33

    1513                      .dwcfi  cfa_offset, 1
    1514                      .dwcfi  save_reg_to_mem, 91, -1
    1515 0003f4 4EF5          AADD #-11, SP
    1516                      .dwcfi  cfa_offset, 12
    1517              $C$DW$154       .dwtag  DW_TAG_variable, DW_AT_name("xQueue")
    1518                      .dwattr $C$DW$154, DW_AT_TI_symbol_name("_xQueue")
    1519                      .dwattr $C$DW$154, DW_AT_type(*$C$DW$T$46)
    1520                      .dwattr $C$DW$154, DW_AT_location[DW_OP_bregx 0x24 0]
    1521              $C$DW$155       .dwtag  DW_TAG_variable, DW_AT_name("pvBuffer")
    1522                      .dwattr $C$DW$155, DW_AT_TI_symbol_name("_pvBuffer")
    1523                      .dwattr $C$DW$155, DW_AT_type(*$C$DW$T$64)
    1524                      .dwattr $C$DW$155, DW_AT_location[DW_OP_bregx 0x24 2]
    1525              $C$DW$156       .dwtag  DW_TAG_variable, DW_AT_name("xTicksToWait")
    1526                      .dwattr $C$DW$156, DW_AT_TI_symbol_name("_xTicksToWait")
    1527                      .dwattr $C$DW$156, DW_AT_type(*$C$DW$T$38)
    1528                      .dwattr $C$DW$156, DW_AT_location[DW_OP_bregx 0x24 4]
    1529              $C$DW$157       .dwtag  DW_TAG_variable, DW_AT_name("xEntryTimeSet")
    1530                      .dwattr $C$DW$157, DW_AT_TI_symbol_name("_xEntryTimeSet")
    1531                      .dwattr $C$DW$157, DW_AT_type(*$C$DW$T$43)
    1532                      .dwattr $C$DW$157, DW_AT_location[DW_OP_bregx 0x24 5]
    1533              $C$DW$158       .dwtag  DW_TAG_variable, DW_AT_name("xTimeOut")
    1534                      .dwattr $C$DW$158, DW_AT_TI_symbol_name("_xTimeOut")
    1535                      .dwattr $C$DW$158, DW_AT_type(*$C$DW$T$77)
    1536                      .dwattr $C$DW$158, DW_AT_location[DW_OP_bregx 0x24 6]
    1537              $C$DW$159       .dwtag  DW_TAG_variable, DW_AT_name("pxQueue")
    1538                      .dwattr $C$DW$159, DW_AT_TI_symbol_name("_pxQueue")
    1539                      .dwattr $C$DW$159, DW_AT_type(*$C$DW$T$57)
    1540                      .dwattr $C$DW$159, DW_AT_location[DW_OP_bregx 0x24 8]
    1541 0003f6 C408          MOV T0, *SP(#4) ; |1274| 
    1542 0003f8 EB04          MOV XAR1, dbl(*SP(#2))
         0003fa 95   
    1543 0003fb EB00          MOV XAR0, dbl(*SP(#0))
         0003fd 85   
    1544                      .dwpsn  file "../FreeRTOS/Source/queue.c",line 1275,column 12,is_stmt
    1545 0003fe E60A          MOV #0, *SP(#5) ; |1275| 
         000400 00   
    1546                      .dwpsn  file "../FreeRTOS/Source/queue.c",line 1277,column 17,is_stmt
    1547 000401 ED00          MOV dbl(*SP(#0)), XAR3
         000403 BF   
    1548 000404 EB10          MOV XAR3, dbl(*SP(#8))
         000406 B5   
    1549 000407       $C$L42:    
    1550 000407       $C$DW$L$_xQueueReceive$2$B:
    1551                      .dwpsn  file "../FreeRTOS/Source/queue.c",line 1299,column 3,is_stmt
    1552 000407 20     nop
    1553 000408 46B3   bset INTM
    1554 00040a F731          ADD #1, *(#_usCriticalNesting) ; |1299| 
         00040c 0001 
         00040e 0000 
         000410 00!  
    1555 000411 20            NOP
    1556 000412 20            NOP
    1557              
    1558              $C$DW$160       .dwtag  DW_TAG_lexical_block, DW_AT_low_pc(0x00), DW_AT_high_pc(0x00)
    1559              $C$DW$161       .dwtag  DW_TAG_variable, DW_AT_name("uxMessagesWaiting")
TMS320C55x Assembler PC v4.4.1 Sun Sep 09 04:48:36 2018

Tools Copyright (c) 1996-2012 Texas Instruments Incorporated
queue.asm                                                            PAGE   34

    1560                      .dwattr $C$DW$161, DW_AT_TI_symbol_name("_uxMessagesWaiting")
    1561                      .dwattr $C$DW$161, DW_AT_type(*$C$DW$T$48)
    1562                      .dwattr $C$DW$161, DW_AT_location[DW_OP_bregx 0x24 10]
    1563                      .dwpsn  file "../FreeRTOS/Source/queue.c",line 1301,column 22,is_stmt
    1564 000413 ED10          MOV dbl(*SP(#8)), XAR3
         000415 BF   
    1565 000416 A96D          MOV *AR3(#28), AR1 ; |1301| 
         000418 001C 
    1566 00041a C914          MOV AR1, *SP(#10) ; |1301| 
    1567                      .dwpsn  file "../FreeRTOS/Source/queue.c",line 1305,column 4,is_stmt
    1568 00041c 0409          BCC $C$L47,AR1 == #0 ; |1305| 
         00041e 5B   
    1569                                                      ; branchcc occurs ; |1305| 
    1570 00041f       $C$DW$L$_xQueueReceive$2$E:
    1571                      .dwpsn  file "../FreeRTOS/Source/queue.c",line 1308,column 5,is_stmt
    1572 00041f ED10          MOV dbl(*SP(#8)), XAR0
         000421 8F   
    1573 000422 ED04          MOV dbl(*SP(#2)), XAR1
         000424 9F   
    1574              $C$DW$162       .dwtag  DW_TAG_TI_branch
    1575                      .dwattr $C$DW$162, DW_AT_low_pc(0x00)
    1576                      .dwattr $C$DW$162, DW_AT_name("_prvCopyDataFromQueue")
    1577                      .dwattr $C$DW$162, DW_AT_TI_call
    1578 000425 0806          CALL #_prvCopyDataFromQueue ; |1308| 
         000427 A0   
    1579                                                      ; call occurs [#_prvCopyDataFromQueue] ; |1308| 
    1580                      .dwpsn  file "../FreeRTOS/Source/queue.c",line 1310,column 5,is_stmt
    1581 000428 ED10          MOV dbl(*SP(#8)), XAR3
         00042a BF   
    1582 00042b A914          MOV *SP(#10), AR1 ; |1310| 
    1583 00042d 4219          SUB #1, AR1 ; |1310| 
    1584 00042f C96D          MOV AR1, *AR3(#28) ; |1310| 
         000431 001C 
    1585 000433 20            NOP
    1586 000434 20            NOP
    1587                      .dwpsn  file "../FreeRTOS/Source/queue.c",line 1315,column 5,is_stmt
    1588 000435 ED10          MOV dbl(*SP(#8)), XAR3
         000437 BF   
    1589 000438 A96D          MOV *AR3(#8), AR1 ; |1315| 
         00043a 0008 
    1590 00043c 6219          BCC $C$L43,AR1 != #0 ; |1315| 
    1591                                                      ; branchcc occurs ; |1315| 
    1592 00043e 3C19          MOV #1, AR1
    1593 000440 4A02          B $C$L44  ; |1315| 
    1594                                                      ; branch occurs ; |1315| 
    1595 000442       $C$L43:    
    1596 000442 3C09          MOV #0, AR1
    1597 000444       $C$L44:    
    1598 000444 0419          BCC $C$L45,AR1 != #0 ; |1315| 
         000446 12   
    1599                                                      ; branchcc occurs ; |1315| 
    1600                      .dwpsn  file "../FreeRTOS/Source/queue.c",line 1317,column 6,is_stmt
    1601 000447 ED10          MOV dbl(*SP(#8)), XAR0
         000449 8F   
    1602 00044a 1408          AADD #8, AR0 ; |1317| 
TMS320C55x Assembler PC v4.4.1 Sun Sep 09 04:48:36 2018

Tools Copyright (c) 1996-2012 Texas Instruments Incorporated
queue.asm                                                            PAGE   35

         00044c 84   
    1603              $C$DW$163       .dwtag  DW_TAG_TI_branch
    1604                      .dwattr $C$DW$163, DW_AT_low_pc(0x00)
    1605                      .dwattr $C$DW$163, DW_AT_name("_xTaskRemoveFromEventList")
    1606                      .dwattr $C$DW$163, DW_AT_TI_call
    1607 00044d 6C00          CALL #_xTaskRemoveFromEventList ; |1317| 
         00044f 0000!
    1608                                                      ; call occurs [#_xTaskRemoveFromEventList] ; |1317| 
    1609 000451 6304          BCC $C$L45,T0 == #0 ; |1317| 
    1610                                                      ; branchcc occurs ; |1317| 
    1611                      .dwpsn  file "../FreeRTOS/Source/queue.c",line 1319,column 7,is_stmt
    1612              $C$DW$164       .dwtag  DW_TAG_TI_branch
    1613                      .dwattr $C$DW$164, DW_AT_low_pc(0x00)
    1614                      .dwattr $C$DW$164, DW_AT_name("_vPortYield")
    1615                      .dwattr $C$DW$164, DW_AT_TI_call
    1616 000453 6C00          CALL #_vPortYield ; |1319| 
         000455 0000!
    1617                                                      ; call occurs [#_vPortYield] ; |1319| 
    1618                      .dwpsn  file "../FreeRTOS/Source/queue.c",line 1320,column 6,is_stmt
    1619 000457 4A00          B $C$L45  ; |1320| 
    1620                                                      ; branch occurs ; |1320| 
    1621 000459       $C$L45:    
    1622                      .dwpsn  file "../FreeRTOS/Source/queue.c",line 1331,column 5,is_stmt
    1623 000459 A931          MOV *(#_usCriticalNesting), AR1 ; |1331| 
         00045b 0000 
         00045d 00!  
    1624 00045e 0409          BCC $C$L46,AR1 == #0 ; |1331| 
         000460 14   
    1625                                                      ; branchcc occurs ; |1331| 
    1626 000461 F731          SUB #1, *(#_usCriticalNesting) ; |1331| 
         000463 FFFF 
         000465 0000 
         000467 00!  
    1627 000468 20            NOP
    1628 000469 20            NOP
    1629 00046a 20            NOP
    1630 00046b A931          MOV *(#_usCriticalNesting), AR1 ; |1331| 
         00046d 0000 
         00046f 00!  
    1631 000470 6199          BCC $C$L46,AR1 != #0 ; |1331| 
    1632                                                      ; branchcc occurs ; |1331| 
    1633 000472 20     nop
    1634 000473 46B2   bclr INTM
    1635 000475       $C$L46:    
    1636                      .dwpsn  file "../FreeRTOS/Source/queue.c",line 1332,column 5,is_stmt
    1637 000475 3C14          MOV #1, T0
    1638 000477 0600          B $C$L57  ; |1332| 
         000479 F8   
    1639                                                      ; branch occurs ; |1332| 
    1640 00047a       $C$L47:    
    1641 00047a       $C$DW$L$_xQueueReceive$15$B:
    1642                      .dwpsn  file "../FreeRTOS/Source/queue.c",line 1336,column 5,is_stmt
    1643 00047a A908          MOV *SP(#4), AR1 ; |1336| 
    1644 00047c 0419          BCC $C$L49,AR1 != #0 ; |1336| 
         00047e 21   
TMS320C55x Assembler PC v4.4.1 Sun Sep 09 04:48:36 2018

Tools Copyright (c) 1996-2012 Texas Instruments Incorporated
queue.asm                                                            PAGE   36

    1645                                                      ; branchcc occurs ; |1336| 
    1646 00047f       $C$DW$L$_xQueueReceive$15$E:
    1647                      .dwpsn  file "../FreeRTOS/Source/queue.c",line 1340,column 6,is_stmt
    1648 00047f A931          MOV *(#_usCriticalNesting), AR1 ; |1340| 
         000481 0000 
         000483 00!  
    1649 000484 0409          BCC $C$L48,AR1 == #0 ; |1340| 
         000486 14   
    1650                                                      ; branchcc occurs ; |1340| 
    1651 000487 F731          SUB #1, *(#_usCriticalNesting) ; |1340| 
         000489 FFFF 
         00048b 0000 
         00048d 00!  
    1652 00048e 20            NOP
    1653 00048f 20            NOP
    1654 000490 20            NOP
    1655 000491 A931          MOV *(#_usCriticalNesting), AR1 ; |1340| 
         000493 0000 
         000495 00!  
    1656 000496 6199          BCC $C$L48,AR1 != #0 ; |1340| 
    1657                                                      ; branchcc occurs ; |1340| 
    1658 000498 20     nop
    1659 000499 46B2   bclr INTM
    1660 00049b       $C$L48:    
    1661                      .dwpsn  file "../FreeRTOS/Source/queue.c",line 1342,column 6,is_stmt
    1662 00049b 3C04          MOV #0, T0
    1663 00049d 0600          B $C$L57  ; |1342| 
         00049f D2   
    1664                                                      ; branch occurs ; |1342| 
    1665 0004a0       $C$L49:    
    1666 0004a0       $C$DW$L$_xQueueReceive$21$B:
    1667                      .dwpsn  file "../FreeRTOS/Source/queue.c",line 1344,column 10,is_stmt
    1668 0004a0 A90A          MOV *SP(#5), AR1 ; |1344| 
    1669 0004a2 6519          BCC $C$L50,AR1 != #0 ; |1344| 
    1670                                                      ; branchcc occurs ; |1344| 
    1671 0004a4       $C$DW$L$_xQueueReceive$21$E:
    1672 0004a4       $C$DW$L$_xQueueReceive$22$B:
    1673                      .dwpsn  file "../FreeRTOS/Source/queue.c",line 1348,column 6,is_stmt
    1674 0004a4 EC0C          AMAR *SP(#6), XAR0
         0004a6 8E   
    1675              $C$DW$165       .dwtag  DW_TAG_TI_branch
    1676                      .dwattr $C$DW$165, DW_AT_low_pc(0x00)
    1677                      .dwattr $C$DW$165, DW_AT_name("_vTaskInternalSetTimeOutState")
    1678                      .dwattr $C$DW$165, DW_AT_TI_call
    1679 0004a7 6C00          CALL #_vTaskInternalSetTimeOutState ; |1348| 
         0004a9 0000!
    1680                                                      ; call occurs [#_vTaskInternalSetTimeOutState] ; |1348| 
    1681                      .dwpsn  file "../FreeRTOS/Source/queue.c",line 1349,column 6,is_stmt
    1682 0004ab E60A          MOV #1, *SP(#5) ; |1349| 
         0004ad 01   
    1683                      .dwpsn  file "../FreeRTOS/Source/queue.c",line 1350,column 5,is_stmt
    1684              $C$DW$L$_xQueueReceive$22$E:
    1685              $C$L50:    
    1686              $C$DW$L$_xQueueReceive$23$B:
    1687                      .dwendtag $C$DW$160
TMS320C55x Assembler PC v4.4.1 Sun Sep 09 04:48:36 2018

Tools Copyright (c) 1996-2012 Texas Instruments Incorporated
queue.asm                                                            PAGE   37

    1688              
    1689                      .dwpsn  file "../FreeRTOS/Source/queue.c",line 1358,column 3,is_stmt
    1690 0004ae A931          MOV *(#_usCriticalNesting), AR1 ; |1358| 
         0004b0 0000 
         0004b2 00!  
    1691 0004b3 0409          BCC $C$L51,AR1 == #0 ; |1358| 
         0004b5 14   
    1692                                                      ; branchcc occurs ; |1358| 
    1693 0004b6       $C$DW$L$_xQueueReceive$23$E:
    1694 0004b6       $C$DW$L$_xQueueReceive$24$B:
    1695 0004b6 F731          SUB #1, *(#_usCriticalNesting) ; |1358| 
         0004b8 FFFF 
         0004ba 0000 
         0004bc 00!  
    1696 0004bd 20            NOP
    1697 0004be 20            NOP
    1698 0004bf 20            NOP
    1699 0004c0 A931          MOV *(#_usCriticalNesting), AR1 ; |1358| 
         0004c2 0000 
         0004c4 00!  
    1700 0004c5 6199          BCC $C$L51,AR1 != #0 ; |1358| 
    1701                                                      ; branchcc occurs ; |1358| 
    1702 0004c7       $C$DW$L$_xQueueReceive$24$E:
    1703 0004c7       $C$DW$L$_xQueueReceive$25$B:
    1704 0004c7 20     nop
    1705 0004c8 46B2   bclr INTM
    1706 0004ca       $C$DW$L$_xQueueReceive$25$E:
    1707 0004ca       $C$L51:    
    1708 0004ca       $C$DW$L$_xQueueReceive$26$B:
    1709                      .dwpsn  file "../FreeRTOS/Source/queue.c",line 1363,column 3,is_stmt
    1710              $C$DW$166       .dwtag  DW_TAG_TI_branch
    1711                      .dwattr $C$DW$166, DW_AT_low_pc(0x00)
    1712                      .dwattr $C$DW$166, DW_AT_name("_vTaskSuspendAll")
    1713                      .dwattr $C$DW$166, DW_AT_TI_call
    1714 0004ca 6C00          CALL #_vTaskSuspendAll ; |1363| 
         0004cc 0000!
    1715                                                      ; call occurs [#_vTaskSuspendAll] ; |1363| 
    1716                      .dwpsn  file "../FreeRTOS/Source/queue.c",line 1364,column 3,is_stmt
    1717 0004ce 20     nop
    1718 0004cf 46B3   bset INTM
    1719 0004d1 F731          ADD #1, *(#_usCriticalNesting) ; |1364| 
         0004d3 0001 
         0004d5 0000 
         0004d7 00!  
    1720 0004d8 20            NOP
    1721 0004d9 20            NOP
    1722 0004da ED10          MOV dbl(*SP(#8)), XAR3
         0004dc BF   
    1723 0004dd F06D          CMP *AR3(#31) == #-1, TC1 ; |1364| 
         0004df FFFF 
         0004e1 001F 
    1724 0004e3 62F4          BCC $C$L52,!TC1 ; |1364| 
    1725                                                      ; branchcc occurs ; |1364| 
    1726 0004e5       $C$DW$L$_xQueueReceive$26$E:
    1727 0004e5       $C$DW$L$_xQueueReceive$27$B:
TMS320C55x Assembler PC v4.4.1 Sun Sep 09 04:48:36 2018

Tools Copyright (c) 1996-2012 Texas Instruments Incorporated
queue.asm                                                            PAGE   38

    1728 0004e5 E66D          MOV #0, *AR3(#31) ; |1364| 
         0004e7 0000 
         0004e9 1F   
    1729 0004ea       $C$DW$L$_xQueueReceive$27$E:
    1730 0004ea       $C$L52:    
    1731 0004ea       $C$DW$L$_xQueueReceive$28$B:
    1732 0004ea ED10          MOV dbl(*SP(#8)), XAR3
         0004ec BF   
    1733 0004ed F06D          CMP *AR3(#32) == #-1, TC1 ; |1364| 
         0004ef FFFF 
         0004f1 0020 
    1734 0004f3 62F4          BCC $C$L53,!TC1 ; |1364| 
    1735                                                      ; branchcc occurs ; |1364| 
    1736 0004f5       $C$DW$L$_xQueueReceive$28$E:
    1737 0004f5       $C$DW$L$_xQueueReceive$29$B:
    1738 0004f5 E66D          MOV #0, *AR3(#32) ; |1364| 
         0004f7 0000 
         0004f9 20   
    1739 0004fa       $C$DW$L$_xQueueReceive$29$E:
    1740 0004fa       $C$L53:    
    1741 0004fa       $C$DW$L$_xQueueReceive$30$B:
    1742 0004fa A931          MOV *(#_usCriticalNesting), AR1 ; |1364| 
         0004fc 0000 
         0004fe 00!  
    1743 0004ff 0409          BCC $C$L54,AR1 == #0 ; |1364| 
         000501 14   
    1744                                                      ; branchcc occurs ; |1364| 
    1745 000502       $C$DW$L$_xQueueReceive$30$E:
    1746 000502       $C$DW$L$_xQueueReceive$31$B:
    1747 000502 F731          SUB #1, *(#_usCriticalNesting) ; |1364| 
         000504 FFFF 
         000506 0000 
         000508 00!  
    1748 000509 20            NOP
    1749 00050a 20            NOP
    1750 00050b 20            NOP
    1751 00050c A931          MOV *(#_usCriticalNesting), AR1 ; |1364| 
         00050e 0000 
         000510 00!  
    1752 000511 6199          BCC $C$L54,AR1 != #0 ; |1364| 
    1753                                                      ; branchcc occurs ; |1364| 
    1754 000513       $C$DW$L$_xQueueReceive$31$E:
    1755 000513       $C$DW$L$_xQueueReceive$32$B:
    1756 000513 20     nop
    1757 000514 46B2   bclr INTM
    1758 000516       $C$DW$L$_xQueueReceive$32$E:
    1759 000516       $C$L54:    
    1760 000516       $C$DW$L$_xQueueReceive$33$B:
    1761                      .dwpsn  file "../FreeRTOS/Source/queue.c",line 1367,column 3,is_stmt
    1762 000516 EC0C          AMAR *SP(#6), XAR0
         000518 8E   
    1763 000519 EC08          AMAR *SP(#4), XAR1
         00051b 9E   
    1764              $C$DW$167       .dwtag  DW_TAG_TI_branch
    1765                      .dwattr $C$DW$167, DW_AT_low_pc(0x00)
TMS320C55x Assembler PC v4.4.1 Sun Sep 09 04:48:36 2018

Tools Copyright (c) 1996-2012 Texas Instruments Incorporated
queue.asm                                                            PAGE   39

    1766                      .dwattr $C$DW$167, DW_AT_name("_xTaskCheckForTimeOut")
    1767                      .dwattr $C$DW$167, DW_AT_TI_call
    1768 00051c 6C00          CALL #_xTaskCheckForTimeOut ; |1367| 
         00051e 0000!
    1769                                                      ; call occurs [#_xTaskCheckForTimeOut] ; |1367| 
    1770 000520 0414          BCC $C$L56,T0 != #0 ; |1367| 
         000522 37   
    1771                                                      ; branchcc occurs ; |1367| 
    1772 000523       $C$DW$L$_xQueueReceive$33$E:
    1773 000523       $C$DW$L$_xQueueReceive$34$B:
    1774                      .dwpsn  file "../FreeRTOS/Source/queue.c",line 1371,column 4,is_stmt
    1775 000523 ED10          MOV dbl(*SP(#8)), XAR0
         000525 8F   
    1776              $C$DW$168       .dwtag  DW_TAG_TI_branch
    1777                      .dwattr $C$DW$168, DW_AT_low_pc(0x00)
    1778                      .dwattr $C$DW$168, DW_AT_name("_prvIsQueueEmpty")
    1779                      .dwattr $C$DW$168, DW_AT_TI_call
    1780 000526 0806          CALL #_prvIsQueueEmpty ; |1371| 
         000528 DB   
    1781                                                      ; call occurs [#_prvIsQueueEmpty] ; |1371| 
    1782 000529 0404          BCC $C$L55,T0 == #0 ; |1371| 
         00052b 21   
    1783                                                      ; branchcc occurs ; |1371| 
    1784 00052c       $C$DW$L$_xQueueReceive$34$E:
    1785 00052c       $C$DW$L$_xQueueReceive$35$B:
    1786                      .dwpsn  file "../FreeRTOS/Source/queue.c",line 1374,column 5,is_stmt
    1787 00052c ED10          MOV dbl(*SP(#8)), XAR0
         00052e 8F   
    1788              
    1789                      AADD #18, AR0 ; |1374| 
    1790 00052f 8A08  ||      MOV *SP(#4), T0 ; |1374| 
         000531 841C 
         000533 12   
    1791              
    1792              $C$DW$169       .dwtag  DW_TAG_TI_branch
    1793                      .dwattr $C$DW$169, DW_AT_low_pc(0x00)
    1794                      .dwattr $C$DW$169, DW_AT_name("_vTaskPlaceOnEventList")
    1795                      .dwattr $C$DW$169, DW_AT_TI_call
    1796 000534 6C00          CALL #_vTaskPlaceOnEventList ; |1374| 
         000536 0000!
    1797                                                      ; call occurs [#_vTaskPlaceOnEventList] ; |1374| 
    1798                      .dwpsn  file "../FreeRTOS/Source/queue.c",line 1375,column 5,is_stmt
    1799 000538 ED10          MOV dbl(*SP(#8)), XAR0
         00053a 8F   
    1800              $C$DW$170       .dwtag  DW_TAG_TI_branch
    1801                      .dwattr $C$DW$170, DW_AT_low_pc(0x00)
    1802                      .dwattr $C$DW$170, DW_AT_name("_prvUnlockQueue")
    1803                      .dwattr $C$DW$170, DW_AT_TI_call
    1804 00053b 0805          CALL #_prvUnlockQueue ; |1375| 
         00053d E2   
    1805                                                      ; call occurs [#_prvUnlockQueue] ; |1375| 
    1806                      .dwpsn  file "../FreeRTOS/Source/queue.c",line 1376,column 5,is_stmt
    1807              $C$DW$171       .dwtag  DW_TAG_TI_branch
    1808                      .dwattr $C$DW$171, DW_AT_low_pc(0x00)
    1809                      .dwattr $C$DW$171, DW_AT_name("_xTaskResumeAll")
TMS320C55x Assembler PC v4.4.1 Sun Sep 09 04:48:36 2018

Tools Copyright (c) 1996-2012 Texas Instruments Incorporated
queue.asm                                                            PAGE   40

    1810                      .dwattr $C$DW$171, DW_AT_TI_call
    1811 00053e 6C00          CALL #_xTaskResumeAll ; |1376| 
         000540 0000!
    1812                                                      ; call occurs [#_xTaskResumeAll] ; |1376| 
    1813 000542 6D14          BCC $C$L42,T0 != #0 ; |1376| 
         000544 FEC1 
    1814                                                      ; branchcc occurs ; |1376| 
    1815 000546       $C$DW$L$_xQueueReceive$35$E:
    1816 000546       $C$DW$L$_xQueueReceive$36$B:
    1817                      .dwpsn  file "../FreeRTOS/Source/queue.c",line 1378,column 6,is_stmt
    1818              $C$DW$172       .dwtag  DW_TAG_TI_branch
    1819                      .dwattr $C$DW$172, DW_AT_low_pc(0x00)
    1820                      .dwattr $C$DW$172, DW_AT_name("_vPortYield")
    1821                      .dwattr $C$DW$172, DW_AT_TI_call
    1822 000546 6C00          CALL #_vPortYield ; |1378| 
         000548 0000!
    1823                                                      ; call occurs [#_vPortYield] ; |1378| 
    1824                      .dwpsn  file "../FreeRTOS/Source/queue.c",line 1379,column 5,is_stmt
    1825 00054a 06FE          B $C$L42  ; |1379| 
         00054c BA   
    1826                                                      ; branch occurs ; |1379| 
    1827 00054d       $C$DW$L$_xQueueReceive$36$E:
    1828 00054d       $C$L55:    
    1829 00054d       $C$DW$L$_xQueueReceive$38$B:
    1830                      .dwpsn  file "../FreeRTOS/Source/queue.c",line 1389,column 5,is_stmt
    1831 00054d ED10          MOV dbl(*SP(#8)), XAR0
         00054f 8F   
    1832              $C$DW$173       .dwtag  DW_TAG_TI_branch
    1833                      .dwattr $C$DW$173, DW_AT_low_pc(0x00)
    1834                      .dwattr $C$DW$173, DW_AT_name("_prvUnlockQueue")
    1835                      .dwattr $C$DW$173, DW_AT_TI_call
    1836 000550 0805          CALL #_prvUnlockQueue ; |1389| 
         000552 CD   
    1837                                                      ; call occurs [#_prvUnlockQueue] ; |1389| 
    1838                      .dwpsn  file "../FreeRTOS/Source/queue.c",line 1390,column 5,is_stmt
    1839              $C$DW$174       .dwtag  DW_TAG_TI_branch
    1840                      .dwattr $C$DW$174, DW_AT_low_pc(0x00)
    1841                      .dwattr $C$DW$174, DW_AT_name("_xTaskResumeAll")
    1842                      .dwattr $C$DW$174, DW_AT_TI_call
    1843 000553 6C00          CALL #_xTaskResumeAll ; |1390| 
         000555 0000!
    1844                                                      ; call occurs [#_xTaskResumeAll] ; |1390| 
    1845                      .dwpsn  file "../FreeRTOS/Source/queue.c",line 1392,column 3,is_stmt
    1846 000557 06FE          B $C$L42  ; |1392| 
         000559 AD   
    1847                                                      ; branch occurs ; |1392| 
    1848 00055a       $C$DW$L$_xQueueReceive$38$E:
    1849 00055a       $C$L56:    
    1850 00055a       $C$DW$L$_xQueueReceive$39$B:
    1851                      .dwpsn  file "../FreeRTOS/Source/queue.c",line 1397,column 4,is_stmt
    1852 00055a ED10          MOV dbl(*SP(#8)), XAR0
         00055c 8F   
    1853              $C$DW$175       .dwtag  DW_TAG_TI_branch
    1854                      .dwattr $C$DW$175, DW_AT_low_pc(0x00)
    1855                      .dwattr $C$DW$175, DW_AT_name("_prvUnlockQueue")
TMS320C55x Assembler PC v4.4.1 Sun Sep 09 04:48:36 2018

Tools Copyright (c) 1996-2012 Texas Instruments Incorporated
queue.asm                                                            PAGE   41

    1856                      .dwattr $C$DW$175, DW_AT_TI_call
    1857 00055d 0805          CALL #_prvUnlockQueue ; |1397| 
         00055f C0   
    1858                                                      ; call occurs [#_prvUnlockQueue] ; |1397| 
    1859                      .dwpsn  file "../FreeRTOS/Source/queue.c",line 1398,column 4,is_stmt
    1860              $C$DW$176       .dwtag  DW_TAG_TI_branch
    1861                      .dwattr $C$DW$176, DW_AT_low_pc(0x00)
    1862                      .dwattr $C$DW$176, DW_AT_name("_xTaskResumeAll")
    1863                      .dwattr $C$DW$176, DW_AT_TI_call
    1864 000560 6C00          CALL #_xTaskResumeAll ; |1398| 
         000562 0000!
    1865                                                      ; call occurs [#_xTaskResumeAll] ; |1398| 
    1866                      .dwpsn  file "../FreeRTOS/Source/queue.c",line 1400,column 4,is_stmt
    1867 000564 ED10          MOV dbl(*SP(#8)), XAR0
         000566 8F   
    1868              $C$DW$177       .dwtag  DW_TAG_TI_branch
    1869                      .dwattr $C$DW$177, DW_AT_low_pc(0x00)
    1870                      .dwattr $C$DW$177, DW_AT_name("_prvIsQueueEmpty")
    1871                      .dwattr $C$DW$177, DW_AT_TI_call
    1872 000567 0806          CALL #_prvIsQueueEmpty ; |1400| 
         000569 9A   
    1873                                                      ; call occurs [#_prvIsQueueEmpty] ; |1400| 
    1874 00056a 6D04          BCC $C$L42,T0 == #0 ; |1400| 
         00056c FE99 
    1875                                                      ; branchcc occurs ; |1400| 
    1876 00056e       $C$DW$L$_xQueueReceive$39$E:
    1877                      .dwpsn  file "../FreeRTOS/Source/queue.c",line 1403,column 5,is_stmt
    1878 00056e 3C04          MOV #0, T0
    1879 000570 4A00          B $C$L57  ; |1403| 
    1880                                                      ; branch occurs ; |1403| 
    1881 000572       $C$L57:    
    1882                      .dwpsn  file "../FreeRTOS/Source/queue.c",line 1411,column 1,is_stmt
    1883 000572 4E0B          AADD #11, SP
    1884                      .dwcfi  cfa_offset, 1
    1885              $C$DW$178       .dwtag  DW_TAG_TI_branch
    1886                      .dwattr $C$DW$178, DW_AT_low_pc(0x00)
    1887                      .dwattr $C$DW$178, DW_AT_TI_return
    1888 000574 4804          RET
    1889                                                      ; return occurs
    1890              
    1891              $C$DW$179       .dwtag  DW_TAG_TI_loop
    1892                      .dwattr $C$DW$179, DW_AT_name("F:\eZdsp_DBG\eZDSP_5535_Files\ccsws2\test\Debug\queue.asm:$C$L42:1:153
    1893                      .dwattr $C$DW$179, DW_AT_TI_begin_file("../FreeRTOS/Source/queue.c")
    1894                      .dwattr $C$DW$179, DW_AT_TI_begin_line(0x511)
    1895                      .dwattr $C$DW$179, DW_AT_TI_end_line(0x582)
    1896              $C$DW$180       .dwtag  DW_TAG_TI_loop_range
    1897                      .dwattr $C$DW$180, DW_AT_low_pc($C$DW$L$_xQueueReceive$2$B)
    1898                      .dwattr $C$DW$180, DW_AT_high_pc($C$DW$L$_xQueueReceive$2$E)
    1899              $C$DW$181       .dwtag  DW_TAG_TI_loop_range
    1900                      .dwattr $C$DW$181, DW_AT_low_pc($C$DW$L$_xQueueReceive$15$B)
    1901                      .dwattr $C$DW$181, DW_AT_high_pc($C$DW$L$_xQueueReceive$15$E)
    1902              $C$DW$182       .dwtag  DW_TAG_TI_loop_range
    1903                      .dwattr $C$DW$182, DW_AT_low_pc($C$DW$L$_xQueueReceive$21$B)
    1904                      .dwattr $C$DW$182, DW_AT_high_pc($C$DW$L$_xQueueReceive$21$E)
    1905              $C$DW$183       .dwtag  DW_TAG_TI_loop_range
TMS320C55x Assembler PC v4.4.1 Sun Sep 09 04:48:36 2018

Tools Copyright (c) 1996-2012 Texas Instruments Incorporated
queue.asm                                                            PAGE   42

    1906                      .dwattr $C$DW$183, DW_AT_low_pc($C$DW$L$_xQueueReceive$22$B)
    1907                      .dwattr $C$DW$183, DW_AT_high_pc($C$DW$L$_xQueueReceive$22$E)
    1908              $C$DW$184       .dwtag  DW_TAG_TI_loop_range
    1909                      .dwattr $C$DW$184, DW_AT_low_pc($C$DW$L$_xQueueReceive$23$B)
    1910                      .dwattr $C$DW$184, DW_AT_high_pc($C$DW$L$_xQueueReceive$23$E)
    1911              $C$DW$185       .dwtag  DW_TAG_TI_loop_range
    1912                      .dwattr $C$DW$185, DW_AT_low_pc($C$DW$L$_xQueueReceive$24$B)
    1913                      .dwattr $C$DW$185, DW_AT_high_pc($C$DW$L$_xQueueReceive$24$E)
    1914              $C$DW$186       .dwtag  DW_TAG_TI_loop_range
    1915                      .dwattr $C$DW$186, DW_AT_low_pc($C$DW$L$_xQueueReceive$25$B)
    1916                      .dwattr $C$DW$186, DW_AT_high_pc($C$DW$L$_xQueueReceive$25$E)
    1917              $C$DW$187       .dwtag  DW_TAG_TI_loop_range
    1918                      .dwattr $C$DW$187, DW_AT_low_pc($C$DW$L$_xQueueReceive$26$B)
    1919                      .dwattr $C$DW$187, DW_AT_high_pc($C$DW$L$_xQueueReceive$26$E)
    1920              $C$DW$188       .dwtag  DW_TAG_TI_loop_range
    1921                      .dwattr $C$DW$188, DW_AT_low_pc($C$DW$L$_xQueueReceive$27$B)
    1922                      .dwattr $C$DW$188, DW_AT_high_pc($C$DW$L$_xQueueReceive$27$E)
    1923              $C$DW$189       .dwtag  DW_TAG_TI_loop_range
    1924                      .dwattr $C$DW$189, DW_AT_low_pc($C$DW$L$_xQueueReceive$28$B)
    1925                      .dwattr $C$DW$189, DW_AT_high_pc($C$DW$L$_xQueueReceive$28$E)
    1926              $C$DW$190       .dwtag  DW_TAG_TI_loop_range
    1927                      .dwattr $C$DW$190, DW_AT_low_pc($C$DW$L$_xQueueReceive$29$B)
    1928                      .dwattr $C$DW$190, DW_AT_high_pc($C$DW$L$_xQueueReceive$29$E)
    1929              $C$DW$191       .dwtag  DW_TAG_TI_loop_range
    1930                      .dwattr $C$DW$191, DW_AT_low_pc($C$DW$L$_xQueueReceive$30$B)
    1931                      .dwattr $C$DW$191, DW_AT_high_pc($C$DW$L$_xQueueReceive$30$E)
    1932              $C$DW$192       .dwtag  DW_TAG_TI_loop_range
    1933                      .dwattr $C$DW$192, DW_AT_low_pc($C$DW$L$_xQueueReceive$31$B)
    1934                      .dwattr $C$DW$192, DW_AT_high_pc($C$DW$L$_xQueueReceive$31$E)
    1935              $C$DW$193       .dwtag  DW_TAG_TI_loop_range
    1936                      .dwattr $C$DW$193, DW_AT_low_pc($C$DW$L$_xQueueReceive$32$B)
    1937                      .dwattr $C$DW$193, DW_AT_high_pc($C$DW$L$_xQueueReceive$32$E)
    1938              $C$DW$194       .dwtag  DW_TAG_TI_loop_range
    1939                      .dwattr $C$DW$194, DW_AT_low_pc($C$DW$L$_xQueueReceive$33$B)
    1940                      .dwattr $C$DW$194, DW_AT_high_pc($C$DW$L$_xQueueReceive$33$E)
    1941              $C$DW$195       .dwtag  DW_TAG_TI_loop_range
    1942                      .dwattr $C$DW$195, DW_AT_low_pc($C$DW$L$_xQueueReceive$34$B)
    1943                      .dwattr $C$DW$195, DW_AT_high_pc($C$DW$L$_xQueueReceive$34$E)
    1944              $C$DW$196       .dwtag  DW_TAG_TI_loop_range
    1945                      .dwattr $C$DW$196, DW_AT_low_pc($C$DW$L$_xQueueReceive$39$B)
    1946                      .dwattr $C$DW$196, DW_AT_high_pc($C$DW$L$_xQueueReceive$39$E)
    1947              $C$DW$197       .dwtag  DW_TAG_TI_loop_range
    1948                      .dwattr $C$DW$197, DW_AT_low_pc($C$DW$L$_xQueueReceive$38$B)
    1949                      .dwattr $C$DW$197, DW_AT_high_pc($C$DW$L$_xQueueReceive$38$E)
    1950              $C$DW$198       .dwtag  DW_TAG_TI_loop_range
    1951                      .dwattr $C$DW$198, DW_AT_low_pc($C$DW$L$_xQueueReceive$36$B)
    1952                      .dwattr $C$DW$198, DW_AT_high_pc($C$DW$L$_xQueueReceive$36$E)
    1953              $C$DW$199       .dwtag  DW_TAG_TI_loop_range
    1954                      .dwattr $C$DW$199, DW_AT_low_pc($C$DW$L$_xQueueReceive$35$B)
    1955                      .dwattr $C$DW$199, DW_AT_high_pc($C$DW$L$_xQueueReceive$35$E)
    1956                      .dwendtag $C$DW$179
    1957              
    1958                      .dwattr $C$DW$150, DW_AT_TI_end_file("../FreeRTOS/Source/queue.c")
    1959                      .dwattr $C$DW$150, DW_AT_TI_end_line(0x583)
    1960                      .dwattr $C$DW$150, DW_AT_TI_end_column(0x01)
TMS320C55x Assembler PC v4.4.1 Sun Sep 09 04:48:36 2018

Tools Copyright (c) 1996-2012 Texas Instruments Incorporated
queue.asm                                                            PAGE   43

    1961                      .dwendentry
    1962                      .dwendtag $C$DW$150
    1963              
    1964 000576               .sect   ".text"
    1965                      .align 4
    1966                      .global _xQueueSemaphoreTake
    1967              
    1968              $C$DW$200       .dwtag  DW_TAG_subprogram, DW_AT_name("xQueueSemaphoreTake")
    1969                      .dwattr $C$DW$200, DW_AT_low_pc(_xQueueSemaphoreTake)
    1970                      .dwattr $C$DW$200, DW_AT_high_pc(0x00)
    1971                      .dwattr $C$DW$200, DW_AT_TI_symbol_name("_xQueueSemaphoreTake")
    1972                      .dwattr $C$DW$200, DW_AT_external
    1973                      .dwattr $C$DW$200, DW_AT_type(*$C$DW$T$43)
    1974                      .dwattr $C$DW$200, DW_AT_TI_begin_file("../FreeRTOS/Source/queue.c")
    1975                      .dwattr $C$DW$200, DW_AT_TI_begin_line(0x586)
    1976                      .dwattr $C$DW$200, DW_AT_TI_begin_column(0x0c)
    1977                      .dwattr $C$DW$200, DW_AT_TI_max_frame_size(0x0a)
    1978                      .dwpsn  file "../FreeRTOS/Source/queue.c",line 1415,column 1,is_stmt,address _xQueueSemaphoreTake
    1979              
    1980                      .dwfde $C$DW$CIE, _xQueueSemaphoreTake
    1981              $C$DW$201       .dwtag  DW_TAG_formal_parameter, DW_AT_name("xQueue")
    1982                      .dwattr $C$DW$201, DW_AT_TI_symbol_name("_xQueue")
    1983                      .dwattr $C$DW$201, DW_AT_type(*$C$DW$T$46)
    1984                      .dwattr $C$DW$201, DW_AT_location[DW_OP_reg17]
    1985              $C$DW$202       .dwtag  DW_TAG_formal_parameter, DW_AT_name("xTicksToWait")
    1986                      .dwattr $C$DW$202, DW_AT_TI_symbol_name("_xTicksToWait")
    1987                      .dwattr $C$DW$202, DW_AT_type(*$C$DW$T$38)
    1988                      .dwattr $C$DW$202, DW_AT_location[DW_OP_reg12]
    1989              ;*******************************************************************************
    1990              ;* FUNCTION NAME: xQueueSemaphoreTake                                          *
    1991              ;*                                                                             *
    1992              ;*   Function Uses Regs : T0,AR0,XAR0,AR1,XAR1,AR3,XAR3,SP,CARRY,TC1,M40,SATA, *
    1993              ;*                        SATD,RDM,FRCT,SMUL                                   *
    1994              ;*   Stack Frame        : Compact (No Frame Pointer, w/ debug)                 *
    1995              ;*   Total Frame Size   : 10 words                                             *
    1996              ;*                        (1 return address/alignment)                         *
    1997              ;*                        (9 local values)                                     *
    1998              ;*   Min System Stack   : 1 word                                               *
    1999              ;*******************************************************************************
    2000 000578       _xQueueSemaphoreTake:
    2001                      .dwcfi  cfa_offset, 1
    2002                      .dwcfi  save_reg_to_mem, 91, -1
    2003 000578 4EF7          AADD #-9, SP
    2004                      .dwcfi  cfa_offset, 10
    2005              $C$DW$203       .dwtag  DW_TAG_variable, DW_AT_name("xQueue")
    2006                      .dwattr $C$DW$203, DW_AT_TI_symbol_name("_xQueue")
    2007                      .dwattr $C$DW$203, DW_AT_type(*$C$DW$T$46)
    2008                      .dwattr $C$DW$203, DW_AT_location[DW_OP_bregx 0x24 0]
    2009              $C$DW$204       .dwtag  DW_TAG_variable, DW_AT_name("xTicksToWait")
    2010                      .dwattr $C$DW$204, DW_AT_TI_symbol_name("_xTicksToWait")
    2011                      .dwattr $C$DW$204, DW_AT_type(*$C$DW$T$38)
    2012                      .dwattr $C$DW$204, DW_AT_location[DW_OP_bregx 0x24 2]
    2013              $C$DW$205       .dwtag  DW_TAG_variable, DW_AT_name("xEntryTimeSet")
    2014                      .dwattr $C$DW$205, DW_AT_TI_symbol_name("_xEntryTimeSet")
    2015                      .dwattr $C$DW$205, DW_AT_type(*$C$DW$T$43)
TMS320C55x Assembler PC v4.4.1 Sun Sep 09 04:48:36 2018

Tools Copyright (c) 1996-2012 Texas Instruments Incorporated
queue.asm                                                            PAGE   44

    2016                      .dwattr $C$DW$205, DW_AT_location[DW_OP_bregx 0x24 3]
    2017              $C$DW$206       .dwtag  DW_TAG_variable, DW_AT_name("xTimeOut")
    2018                      .dwattr $C$DW$206, DW_AT_TI_symbol_name("_xTimeOut")
    2019                      .dwattr $C$DW$206, DW_AT_type(*$C$DW$T$77)
    2020                      .dwattr $C$DW$206, DW_AT_location[DW_OP_bregx 0x24 4]
    2021              $C$DW$207       .dwtag  DW_TAG_variable, DW_AT_name("pxQueue")
    2022                      .dwattr $C$DW$207, DW_AT_TI_symbol_name("_pxQueue")
    2023                      .dwattr $C$DW$207, DW_AT_type(*$C$DW$T$57)
    2024                      .dwattr $C$DW$207, DW_AT_location[DW_OP_bregx 0x24 6]
    2025 00057a C404          MOV T0, *SP(#2) ; |1415| 
    2026 00057c EB00          MOV XAR0, dbl(*SP(#0))
         00057e 85   
    2027                      .dwpsn  file "../FreeRTOS/Source/queue.c",line 1416,column 12,is_stmt
    2028 00057f E606          MOV #0, *SP(#3) ; |1416| 
         000581 00   
    2029                      .dwpsn  file "../FreeRTOS/Source/queue.c",line 1418,column 17,is_stmt
    2030 000582 ED00          MOV dbl(*SP(#0)), XAR3
         000584 BF   
    2031 000585 EB0C          MOV XAR3, dbl(*SP(#6))
         000587 B5   
    2032 000588       $C$L58:    
    2033 000588       $C$DW$L$_xQueueSemaphoreTake$2$B:
    2034                      .dwpsn  file "../FreeRTOS/Source/queue.c",line 1444,column 3,is_stmt
    2035 000588 20     nop
    2036 000589 46B3   bset INTM
    2037 00058b F731          ADD #1, *(#_usCriticalNesting) ; |1444| 
         00058d 0001 
         00058f 0000 
         000591 00!  
    2038 000592 20            NOP
    2039 000593 20            NOP
    2040              
    2041              $C$DW$208       .dwtag  DW_TAG_lexical_block, DW_AT_low_pc(0x00), DW_AT_high_pc(0x00)
    2042              $C$DW$209       .dwtag  DW_TAG_variable, DW_AT_name("uxSemaphoreCount")
    2043                      .dwattr $C$DW$209, DW_AT_TI_symbol_name("_uxSemaphoreCount")
    2044                      .dwattr $C$DW$209, DW_AT_type(*$C$DW$T$48)
    2045                      .dwattr $C$DW$209, DW_AT_location[DW_OP_bregx 0x24 8]
    2046                      .dwpsn  file "../FreeRTOS/Source/queue.c",line 1448,column 22,is_stmt
    2047 000594 ED0C          MOV dbl(*SP(#6)), XAR3
         000596 BF   
    2048 000597 A96D          MOV *AR3(#28), AR1 ; |1448| 
         000599 001C 
    2049 00059b C910          MOV AR1, *SP(#8) ; |1448| 
    2050                      .dwpsn  file "../FreeRTOS/Source/queue.c",line 1452,column 4,is_stmt
    2051 00059d 0409          BCC $C$L63,AR1 == #0 ; |1452| 
         00059f 50   
    2052                                                      ; branchcc occurs ; |1452| 
    2053 0005a0       $C$DW$L$_xQueueSemaphoreTake$2$E:
    2054                      .dwpsn  file "../FreeRTOS/Source/queue.c",line 1458,column 5,is_stmt
    2055 0005a0 ED0C          MOV dbl(*SP(#6)), XAR3
         0005a2 BF   
    2056 0005a3 4219          SUB #1, AR1 ; |1458| 
    2057 0005a5 C96D          MOV AR1, *AR3(#28) ; |1458| 
         0005a7 001C 
    2058 0005a9 20            NOP
TMS320C55x Assembler PC v4.4.1 Sun Sep 09 04:48:36 2018

Tools Copyright (c) 1996-2012 Texas Instruments Incorporated
queue.asm                                                            PAGE   45

    2059 0005aa 20            NOP
    2060                      .dwpsn  file "../FreeRTOS/Source/queue.c",line 1477,column 5,is_stmt
    2061 0005ab ED0C          MOV dbl(*SP(#6)), XAR3
         0005ad BF   
    2062 0005ae A96D          MOV *AR3(#8), AR1 ; |1477| 
         0005b0 0008 
    2063 0005b2 6219          BCC $C$L59,AR1 != #0 ; |1477| 
    2064                                                      ; branchcc occurs ; |1477| 
    2065 0005b4 3C19          MOV #1, AR1
    2066 0005b6 4A02          B $C$L60  ; |1477| 
    2067                                                      ; branch occurs ; |1477| 
    2068 0005b8       $C$L59:    
    2069 0005b8 3C09          MOV #0, AR1
    2070 0005ba       $C$L60:    
    2071 0005ba 0419          BCC $C$L61,AR1 != #0 ; |1477| 
         0005bc 12   
    2072                                                      ; branchcc occurs ; |1477| 
    2073                      .dwpsn  file "../FreeRTOS/Source/queue.c",line 1479,column 6,is_stmt
    2074 0005bd ED0C          MOV dbl(*SP(#6)), XAR0
         0005bf 8F   
    2075 0005c0 1408          AADD #8, AR0 ; |1479| 
         0005c2 84   
    2076              $C$DW$210       .dwtag  DW_TAG_TI_branch
    2077                      .dwattr $C$DW$210, DW_AT_low_pc(0x00)
    2078                      .dwattr $C$DW$210, DW_AT_name("_xTaskRemoveFromEventList")
    2079                      .dwattr $C$DW$210, DW_AT_TI_call
    2080 0005c3 6C00          CALL #_xTaskRemoveFromEventList ; |1479| 
         0005c5 0000!
    2081                                                      ; call occurs [#_xTaskRemoveFromEventList] ; |1479| 
    2082 0005c7 6304          BCC $C$L61,T0 == #0 ; |1479| 
    2083                                                      ; branchcc occurs ; |1479| 
    2084                      .dwpsn  file "../FreeRTOS/Source/queue.c",line 1481,column 7,is_stmt
    2085              $C$DW$211       .dwtag  DW_TAG_TI_branch
    2086                      .dwattr $C$DW$211, DW_AT_low_pc(0x00)
    2087                      .dwattr $C$DW$211, DW_AT_name("_vPortYield")
    2088                      .dwattr $C$DW$211, DW_AT_TI_call
    2089 0005c9 6C00          CALL #_vPortYield ; |1481| 
         0005cb 0000!
    2090                                                      ; call occurs [#_vPortYield] ; |1481| 
    2091                      .dwpsn  file "../FreeRTOS/Source/queue.c",line 1482,column 6,is_stmt
    2092 0005cd 4A00          B $C$L61  ; |1482| 
    2093                                                      ; branch occurs ; |1482| 
    2094 0005cf       $C$L61:    
    2095                      .dwpsn  file "../FreeRTOS/Source/queue.c",line 1493,column 5,is_stmt
    2096 0005cf A931          MOV *(#_usCriticalNesting), AR1 ; |1493| 
         0005d1 0000 
         0005d3 00!  
    2097 0005d4 0409          BCC $C$L62,AR1 == #0 ; |1493| 
         0005d6 14   
    2098                                                      ; branchcc occurs ; |1493| 
    2099 0005d7 F731          SUB #1, *(#_usCriticalNesting) ; |1493| 
         0005d9 FFFF 
         0005db 0000 
         0005dd 00!  
    2100 0005de 20            NOP
TMS320C55x Assembler PC v4.4.1 Sun Sep 09 04:48:36 2018

Tools Copyright (c) 1996-2012 Texas Instruments Incorporated
queue.asm                                                            PAGE   46

    2101 0005df 20            NOP
    2102 0005e0 20            NOP
    2103 0005e1 A931          MOV *(#_usCriticalNesting), AR1 ; |1493| 
         0005e3 0000 
         0005e5 00!  
    2104 0005e6 6199          BCC $C$L62,AR1 != #0 ; |1493| 
    2105                                                      ; branchcc occurs ; |1493| 
    2106 0005e8 20     nop
    2107 0005e9 46B2   bclr INTM
    2108 0005eb       $C$L62:    
    2109                      .dwpsn  file "../FreeRTOS/Source/queue.c",line 1494,column 5,is_stmt
    2110 0005eb 3C14          MOV #1, T0
    2111 0005ed 0600          B $C$L73  ; |1494| 
         0005ef F8   
    2112                                                      ; branch occurs ; |1494| 
    2113 0005f0       $C$L63:    
    2114 0005f0       $C$DW$L$_xQueueSemaphoreTake$15$B:
    2115                      .dwpsn  file "../FreeRTOS/Source/queue.c",line 1498,column 5,is_stmt
    2116 0005f0 A904          MOV *SP(#2), AR1 ; |1498| 
    2117 0005f2 0419          BCC $C$L65,AR1 != #0 ; |1498| 
         0005f4 21   
    2118                                                      ; branchcc occurs ; |1498| 
    2119 0005f5       $C$DW$L$_xQueueSemaphoreTake$15$E:
    2120                      .dwpsn  file "../FreeRTOS/Source/queue.c",line 1511,column 6,is_stmt
    2121 0005f5 A931          MOV *(#_usCriticalNesting), AR1 ; |1511| 
         0005f7 0000 
         0005f9 00!  
    2122 0005fa 0409          BCC $C$L64,AR1 == #0 ; |1511| 
         0005fc 14   
    2123                                                      ; branchcc occurs ; |1511| 
    2124 0005fd F731          SUB #1, *(#_usCriticalNesting) ; |1511| 
         0005ff FFFF 
         000601 0000 
         000603 00!  
    2125 000604 20            NOP
    2126 000605 20            NOP
    2127 000606 20            NOP
    2128 000607 A931          MOV *(#_usCriticalNesting), AR1 ; |1511| 
         000609 0000 
         00060b 00!  
    2129 00060c 6199          BCC $C$L64,AR1 != #0 ; |1511| 
    2130                                                      ; branchcc occurs ; |1511| 
    2131 00060e 20     nop
    2132 00060f 46B2   bclr INTM
    2133 000611       $C$L64:    
    2134                      .dwpsn  file "../FreeRTOS/Source/queue.c",line 1513,column 6,is_stmt
    2135 000611 3C04          MOV #0, T0
    2136 000613 0600          B $C$L73  ; |1513| 
         000615 D2   
    2137                                                      ; branch occurs ; |1513| 
    2138 000616       $C$L65:    
    2139 000616       $C$DW$L$_xQueueSemaphoreTake$21$B:
    2140                      .dwpsn  file "../FreeRTOS/Source/queue.c",line 1515,column 10,is_stmt
    2141 000616 A906          MOV *SP(#3), AR1 ; |1515| 
    2142 000618 6519          BCC $C$L66,AR1 != #0 ; |1515| 
TMS320C55x Assembler PC v4.4.1 Sun Sep 09 04:48:36 2018

Tools Copyright (c) 1996-2012 Texas Instruments Incorporated
queue.asm                                                            PAGE   47

    2143                                                      ; branchcc occurs ; |1515| 
    2144 00061a       $C$DW$L$_xQueueSemaphoreTake$21$E:
    2145 00061a       $C$DW$L$_xQueueSemaphoreTake$22$B:
    2146                      .dwpsn  file "../FreeRTOS/Source/queue.c",line 1519,column 6,is_stmt
    2147 00061a EC08          AMAR *SP(#4), XAR0
         00061c 8E   
    2148              $C$DW$212       .dwtag  DW_TAG_TI_branch
    2149                      .dwattr $C$DW$212, DW_AT_low_pc(0x00)
    2150                      .dwattr $C$DW$212, DW_AT_name("_vTaskInternalSetTimeOutState")
    2151                      .dwattr $C$DW$212, DW_AT_TI_call
    2152 00061d 6C00          CALL #_vTaskInternalSetTimeOutState ; |1519| 
         00061f 0000!
    2153                                                      ; call occurs [#_vTaskInternalSetTimeOutState] ; |1519| 
    2154                      .dwpsn  file "../FreeRTOS/Source/queue.c",line 1520,column 6,is_stmt
    2155 000621 E606          MOV #1, *SP(#3) ; |1520| 
         000623 01   
    2156                      .dwpsn  file "../FreeRTOS/Source/queue.c",line 1521,column 5,is_stmt
    2157              $C$DW$L$_xQueueSemaphoreTake$22$E:
    2158              $C$L66:    
    2159              $C$DW$L$_xQueueSemaphoreTake$23$B:
    2160                      .dwendtag $C$DW$208
    2161              
    2162                      .dwpsn  file "../FreeRTOS/Source/queue.c",line 1529,column 3,is_stmt
    2163 000624 A931          MOV *(#_usCriticalNesting), AR1 ; |1529| 
         000626 0000 
         000628 00!  
    2164 000629 0409          BCC $C$L67,AR1 == #0 ; |1529| 
         00062b 14   
    2165                                                      ; branchcc occurs ; |1529| 
    2166 00062c       $C$DW$L$_xQueueSemaphoreTake$23$E:
    2167 00062c       $C$DW$L$_xQueueSemaphoreTake$24$B:
    2168 00062c F731          SUB #1, *(#_usCriticalNesting) ; |1529| 
         00062e FFFF 
         000630 0000 
         000632 00!  
    2169 000633 20            NOP
    2170 000634 20            NOP
    2171 000635 20            NOP
    2172 000636 A931          MOV *(#_usCriticalNesting), AR1 ; |1529| 
         000638 0000 
         00063a 00!  
    2173 00063b 6199          BCC $C$L67,AR1 != #0 ; |1529| 
    2174                                                      ; branchcc occurs ; |1529| 
    2175 00063d       $C$DW$L$_xQueueSemaphoreTake$24$E:
    2176 00063d       $C$DW$L$_xQueueSemaphoreTake$25$B:
    2177 00063d 20     nop
    2178 00063e 46B2   bclr INTM
    2179 000640       $C$DW$L$_xQueueSemaphoreTake$25$E:
    2180 000640       $C$L67:    
    2181 000640       $C$DW$L$_xQueueSemaphoreTake$26$B:
    2182                      .dwpsn  file "../FreeRTOS/Source/queue.c",line 1534,column 3,is_stmt
    2183              $C$DW$213       .dwtag  DW_TAG_TI_branch
    2184                      .dwattr $C$DW$213, DW_AT_low_pc(0x00)
    2185                      .dwattr $C$DW$213, DW_AT_name("_vTaskSuspendAll")
    2186                      .dwattr $C$DW$213, DW_AT_TI_call
TMS320C55x Assembler PC v4.4.1 Sun Sep 09 04:48:36 2018

Tools Copyright (c) 1996-2012 Texas Instruments Incorporated
queue.asm                                                            PAGE   48

    2187 000640 6C00          CALL #_vTaskSuspendAll ; |1534| 
         000642 0000!
    2188                                                      ; call occurs [#_vTaskSuspendAll] ; |1534| 
    2189                      .dwpsn  file "../FreeRTOS/Source/queue.c",line 1535,column 3,is_stmt
    2190 000644 20     nop
    2191 000645 46B3   bset INTM
    2192 000647 F731          ADD #1, *(#_usCriticalNesting) ; |1535| 
         000649 0001 
         00064b 0000 
         00064d 00!  
    2193 00064e 20            NOP
    2194 00064f 20            NOP
    2195 000650 ED0C          MOV dbl(*SP(#6)), XAR3
         000652 BF   
    2196 000653 F06D          CMP *AR3(#31) == #-1, TC1 ; |1535| 
         000655 FFFF 
         000657 001F 
    2197 000659 62F4          BCC $C$L68,!TC1 ; |1535| 
    2198                                                      ; branchcc occurs ; |1535| 
    2199 00065b       $C$DW$L$_xQueueSemaphoreTake$26$E:
    2200 00065b       $C$DW$L$_xQueueSemaphoreTake$27$B:
    2201 00065b E66D          MOV #0, *AR3(#31) ; |1535| 
         00065d 0000 
         00065f 1F   
    2202 000660       $C$DW$L$_xQueueSemaphoreTake$27$E:
    2203 000660       $C$L68:    
    2204 000660       $C$DW$L$_xQueueSemaphoreTake$28$B:
    2205 000660 ED0C          MOV dbl(*SP(#6)), XAR3
         000662 BF   
    2206 000663 F06D          CMP *AR3(#32) == #-1, TC1 ; |1535| 
         000665 FFFF 
         000667 0020 
    2207 000669 62F4          BCC $C$L69,!TC1 ; |1535| 
    2208                                                      ; branchcc occurs ; |1535| 
    2209 00066b       $C$DW$L$_xQueueSemaphoreTake$28$E:
    2210 00066b       $C$DW$L$_xQueueSemaphoreTake$29$B:
    2211 00066b E66D          MOV #0, *AR3(#32) ; |1535| 
         00066d 0000 
         00066f 20   
    2212 000670       $C$DW$L$_xQueueSemaphoreTake$29$E:
    2213 000670       $C$L69:    
    2214 000670       $C$DW$L$_xQueueSemaphoreTake$30$B:
    2215 000670 A931          MOV *(#_usCriticalNesting), AR1 ; |1535| 
         000672 0000 
         000674 00!  
    2216 000675 0409          BCC $C$L70,AR1 == #0 ; |1535| 
         000677 14   
    2217                                                      ; branchcc occurs ; |1535| 
    2218 000678       $C$DW$L$_xQueueSemaphoreTake$30$E:
    2219 000678       $C$DW$L$_xQueueSemaphoreTake$31$B:
    2220 000678 F731          SUB #1, *(#_usCriticalNesting) ; |1535| 
         00067a FFFF 
         00067c 0000 
         00067e 00!  
    2221 00067f 20            NOP
TMS320C55x Assembler PC v4.4.1 Sun Sep 09 04:48:36 2018

Tools Copyright (c) 1996-2012 Texas Instruments Incorporated
queue.asm                                                            PAGE   49

    2222 000680 20            NOP
    2223 000681 20            NOP
    2224 000682 A931          MOV *(#_usCriticalNesting), AR1 ; |1535| 
         000684 0000 
         000686 00!  
    2225 000687 6199          BCC $C$L70,AR1 != #0 ; |1535| 
    2226                                                      ; branchcc occurs ; |1535| 
    2227 000689       $C$DW$L$_xQueueSemaphoreTake$31$E:
    2228 000689       $C$DW$L$_xQueueSemaphoreTake$32$B:
    2229 000689 20     nop
    2230 00068a 46B2   bclr INTM
    2231 00068c       $C$DW$L$_xQueueSemaphoreTake$32$E:
    2232 00068c       $C$L70:    
    2233 00068c       $C$DW$L$_xQueueSemaphoreTake$33$B:
    2234                      .dwpsn  file "../FreeRTOS/Source/queue.c",line 1538,column 3,is_stmt
    2235 00068c EC08          AMAR *SP(#4), XAR0
         00068e 8E   
    2236 00068f EC04          AMAR *SP(#2), XAR1
         000691 9E   
    2237              $C$DW$214       .dwtag  DW_TAG_TI_branch
    2238                      .dwattr $C$DW$214, DW_AT_low_pc(0x00)
    2239                      .dwattr $C$DW$214, DW_AT_name("_xTaskCheckForTimeOut")
    2240                      .dwattr $C$DW$214, DW_AT_TI_call
    2241 000692 6C00          CALL #_xTaskCheckForTimeOut ; |1538| 
         000694 0000!
    2242                                                      ; call occurs [#_xTaskCheckForTimeOut] ; |1538| 
    2243 000696 0414          BCC $C$L72,T0 != #0 ; |1538| 
         000698 37   
    2244                                                      ; branchcc occurs ; |1538| 
    2245 000699       $C$DW$L$_xQueueSemaphoreTake$33$E:
    2246 000699       $C$DW$L$_xQueueSemaphoreTake$34$B:
    2247                      .dwpsn  file "../FreeRTOS/Source/queue.c",line 1544,column 4,is_stmt
    2248 000699 ED0C          MOV dbl(*SP(#6)), XAR0
         00069b 8F   
    2249              $C$DW$215       .dwtag  DW_TAG_TI_branch
    2250                      .dwattr $C$DW$215, DW_AT_low_pc(0x00)
    2251                      .dwattr $C$DW$215, DW_AT_name("_prvIsQueueEmpty")
    2252                      .dwattr $C$DW$215, DW_AT_TI_call
    2253 00069c 0805          CALL #_prvIsQueueEmpty ; |1544| 
         00069e 65   
    2254                                                      ; call occurs [#_prvIsQueueEmpty] ; |1544| 
    2255 00069f 0404          BCC $C$L71,T0 == #0 ; |1544| 
         0006a1 21   
    2256                                                      ; branchcc occurs ; |1544| 
    2257 0006a2       $C$DW$L$_xQueueSemaphoreTake$34$E:
    2258 0006a2       $C$DW$L$_xQueueSemaphoreTake$35$B:
    2259                      .dwpsn  file "../FreeRTOS/Source/queue.c",line 1565,column 5,is_stmt
    2260 0006a2 ED0C          MOV dbl(*SP(#6)), XAR0
         0006a4 8F   
    2261              
    2262                      AADD #18, AR0 ; |1565| 
    2263 0006a5 8A04  ||      MOV *SP(#2), T0 ; |1565| 
         0006a7 841C 
         0006a9 12   
    2264              
TMS320C55x Assembler PC v4.4.1 Sun Sep 09 04:48:36 2018

Tools Copyright (c) 1996-2012 Texas Instruments Incorporated
queue.asm                                                            PAGE   50

    2265              $C$DW$216       .dwtag  DW_TAG_TI_branch
    2266                      .dwattr $C$DW$216, DW_AT_low_pc(0x00)
    2267                      .dwattr $C$DW$216, DW_AT_name("_vTaskPlaceOnEventList")
    2268                      .dwattr $C$DW$216, DW_AT_TI_call
    2269 0006aa 6C00          CALL #_vTaskPlaceOnEventList ; |1565| 
         0006ac 0000!
    2270                                                      ; call occurs [#_vTaskPlaceOnEventList] ; |1565| 
    2271                      .dwpsn  file "../FreeRTOS/Source/queue.c",line 1566,column 5,is_stmt
    2272 0006ae ED0C          MOV dbl(*SP(#6)), XAR0
         0006b0 8F   
    2273              $C$DW$217       .dwtag  DW_TAG_TI_branch
    2274                      .dwattr $C$DW$217, DW_AT_low_pc(0x00)
    2275                      .dwattr $C$DW$217, DW_AT_name("_prvUnlockQueue")
    2276                      .dwattr $C$DW$217, DW_AT_TI_call
    2277 0006b1 0804          CALL #_prvUnlockQueue ; |1566| 
         0006b3 6C   
    2278                                                      ; call occurs [#_prvUnlockQueue] ; |1566| 
    2279                      .dwpsn  file "../FreeRTOS/Source/queue.c",line 1567,column 5,is_stmt
    2280              $C$DW$218       .dwtag  DW_TAG_TI_branch
    2281                      .dwattr $C$DW$218, DW_AT_low_pc(0x00)
    2282                      .dwattr $C$DW$218, DW_AT_name("_xTaskResumeAll")
    2283                      .dwattr $C$DW$218, DW_AT_TI_call
    2284 0006b4 6C00          CALL #_xTaskResumeAll ; |1567| 
         0006b6 0000!
    2285                                                      ; call occurs [#_xTaskResumeAll] ; |1567| 
    2286 0006b8 6D14          BCC $C$L58,T0 != #0 ; |1567| 
         0006ba FECC 
    2287                                                      ; branchcc occurs ; |1567| 
    2288 0006bc       $C$DW$L$_xQueueSemaphoreTake$35$E:
    2289 0006bc       $C$DW$L$_xQueueSemaphoreTake$36$B:
    2290                      .dwpsn  file "../FreeRTOS/Source/queue.c",line 1569,column 6,is_stmt
    2291              $C$DW$219       .dwtag  DW_TAG_TI_branch
    2292                      .dwattr $C$DW$219, DW_AT_low_pc(0x00)
    2293                      .dwattr $C$DW$219, DW_AT_name("_vPortYield")
    2294                      .dwattr $C$DW$219, DW_AT_TI_call
    2295 0006bc 6C00          CALL #_vPortYield ; |1569| 
         0006be 0000!
    2296                                                      ; call occurs [#_vPortYield] ; |1569| 
    2297                      .dwpsn  file "../FreeRTOS/Source/queue.c",line 1570,column 5,is_stmt
    2298 0006c0 06FE          B $C$L58  ; |1570| 
         0006c2 C5   
    2299                                                      ; branch occurs ; |1570| 
    2300 0006c3       $C$DW$L$_xQueueSemaphoreTake$36$E:
    2301 0006c3       $C$L71:    
    2302 0006c3       $C$DW$L$_xQueueSemaphoreTake$38$B:
    2303                      .dwpsn  file "../FreeRTOS/Source/queue.c",line 1580,column 5,is_stmt
    2304 0006c3 ED0C          MOV dbl(*SP(#6)), XAR0
         0006c5 8F   
    2305              $C$DW$220       .dwtag  DW_TAG_TI_branch
    2306                      .dwattr $C$DW$220, DW_AT_low_pc(0x00)
    2307                      .dwattr $C$DW$220, DW_AT_name("_prvUnlockQueue")
    2308                      .dwattr $C$DW$220, DW_AT_TI_call
    2309 0006c6 0804          CALL #_prvUnlockQueue ; |1580| 
         0006c8 57   
    2310                                                      ; call occurs [#_prvUnlockQueue] ; |1580| 
TMS320C55x Assembler PC v4.4.1 Sun Sep 09 04:48:36 2018

Tools Copyright (c) 1996-2012 Texas Instruments Incorporated
queue.asm                                                            PAGE   51

    2311                      .dwpsn  file "../FreeRTOS/Source/queue.c",line 1581,column 5,is_stmt
    2312              $C$DW$221       .dwtag  DW_TAG_TI_branch
    2313                      .dwattr $C$DW$221, DW_AT_low_pc(0x00)
    2314                      .dwattr $C$DW$221, DW_AT_name("_xTaskResumeAll")
    2315                      .dwattr $C$DW$221, DW_AT_TI_call
    2316 0006c9 6C00          CALL #_xTaskResumeAll ; |1581| 
         0006cb 0000!
    2317                                                      ; call occurs [#_xTaskResumeAll] ; |1581| 
    2318                      .dwpsn  file "../FreeRTOS/Source/queue.c",line 1583,column 3,is_stmt
    2319 0006cd 06FE          B $C$L58  ; |1583| 
         0006cf B8   
    2320                                                      ; branch occurs ; |1583| 
    2321 0006d0       $C$DW$L$_xQueueSemaphoreTake$38$E:
    2322 0006d0       $C$L72:    
    2323 0006d0       $C$DW$L$_xQueueSemaphoreTake$39$B:
    2324                      .dwpsn  file "../FreeRTOS/Source/queue.c",line 1587,column 4,is_stmt
    2325 0006d0 ED0C          MOV dbl(*SP(#6)), XAR0
         0006d2 8F   
    2326              $C$DW$222       .dwtag  DW_TAG_TI_branch
    2327                      .dwattr $C$DW$222, DW_AT_low_pc(0x00)
    2328                      .dwattr $C$DW$222, DW_AT_name("_prvUnlockQueue")
    2329                      .dwattr $C$DW$222, DW_AT_TI_call
    2330 0006d3 0804          CALL #_prvUnlockQueue ; |1587| 
         0006d5 4A   
    2331                                                      ; call occurs [#_prvUnlockQueue] ; |1587| 
    2332                      .dwpsn  file "../FreeRTOS/Source/queue.c",line 1588,column 4,is_stmt
    2333              $C$DW$223       .dwtag  DW_TAG_TI_branch
    2334                      .dwattr $C$DW$223, DW_AT_low_pc(0x00)
    2335                      .dwattr $C$DW$223, DW_AT_name("_xTaskResumeAll")
    2336                      .dwattr $C$DW$223, DW_AT_TI_call
    2337 0006d6 6C00          CALL #_xTaskResumeAll ; |1588| 
         0006d8 0000!
    2338                                                      ; call occurs [#_xTaskResumeAll] ; |1588| 
    2339                      .dwpsn  file "../FreeRTOS/Source/queue.c",line 1594,column 4,is_stmt
    2340 0006da ED0C          MOV dbl(*SP(#6)), XAR0
         0006dc 8F   
    2341              $C$DW$224       .dwtag  DW_TAG_TI_branch
    2342                      .dwattr $C$DW$224, DW_AT_low_pc(0x00)
    2343                      .dwattr $C$DW$224, DW_AT_name("_prvIsQueueEmpty")
    2344                      .dwattr $C$DW$224, DW_AT_TI_call
    2345 0006dd 0805          CALL #_prvIsQueueEmpty ; |1594| 
         0006df 24   
    2346                                                      ; call occurs [#_prvIsQueueEmpty] ; |1594| 
    2347 0006e0 6D04          BCC $C$L58,T0 == #0 ; |1594| 
         0006e2 FEA4 
    2348                                                      ; branchcc occurs ; |1594| 
    2349 0006e4       $C$DW$L$_xQueueSemaphoreTake$39$E:
    2350                      .dwpsn  file "../FreeRTOS/Source/queue.c",line 1621,column 5,is_stmt
    2351 0006e4 3C04          MOV #0, T0
    2352 0006e6 4A00          B $C$L73  ; |1621| 
    2353                                                      ; branch occurs ; |1621| 
    2354 0006e8       $C$L73:    
    2355                      .dwpsn  file "../FreeRTOS/Source/queue.c",line 1629,column 1,is_stmt
    2356 0006e8 4E09          AADD #9, SP
    2357                      .dwcfi  cfa_offset, 1
TMS320C55x Assembler PC v4.4.1 Sun Sep 09 04:48:36 2018

Tools Copyright (c) 1996-2012 Texas Instruments Incorporated
queue.asm                                                            PAGE   52

    2358              $C$DW$225       .dwtag  DW_TAG_TI_branch
    2359                      .dwattr $C$DW$225, DW_AT_low_pc(0x00)
    2360                      .dwattr $C$DW$225, DW_AT_TI_return
    2361 0006ea 4804          RET
    2362                                                      ; return occurs
    2363              
    2364              $C$DW$226       .dwtag  DW_TAG_TI_loop
    2365                      .dwattr $C$DW$226, DW_AT_name("F:\eZdsp_DBG\eZDSP_5535_Files\ccsws2\test\Debug\queue.asm:$C$L58:1:153
    2366                      .dwattr $C$DW$226, DW_AT_TI_begin_file("../FreeRTOS/Source/queue.c")
    2367                      .dwattr $C$DW$226, DW_AT_TI_begin_line(0x5a2)
    2368                      .dwattr $C$DW$226, DW_AT_TI_end_line(0x65c)
    2369              $C$DW$227       .dwtag  DW_TAG_TI_loop_range
    2370                      .dwattr $C$DW$227, DW_AT_low_pc($C$DW$L$_xQueueSemaphoreTake$2$B)
    2371                      .dwattr $C$DW$227, DW_AT_high_pc($C$DW$L$_xQueueSemaphoreTake$2$E)
    2372              $C$DW$228       .dwtag  DW_TAG_TI_loop_range
    2373                      .dwattr $C$DW$228, DW_AT_low_pc($C$DW$L$_xQueueSemaphoreTake$15$B)
    2374                      .dwattr $C$DW$228, DW_AT_high_pc($C$DW$L$_xQueueSemaphoreTake$15$E)
    2375              $C$DW$229       .dwtag  DW_TAG_TI_loop_range
    2376                      .dwattr $C$DW$229, DW_AT_low_pc($C$DW$L$_xQueueSemaphoreTake$21$B)
    2377                      .dwattr $C$DW$229, DW_AT_high_pc($C$DW$L$_xQueueSemaphoreTake$21$E)
    2378              $C$DW$230       .dwtag  DW_TAG_TI_loop_range
    2379                      .dwattr $C$DW$230, DW_AT_low_pc($C$DW$L$_xQueueSemaphoreTake$22$B)
    2380                      .dwattr $C$DW$230, DW_AT_high_pc($C$DW$L$_xQueueSemaphoreTake$22$E)
    2381              $C$DW$231       .dwtag  DW_TAG_TI_loop_range
    2382                      .dwattr $C$DW$231, DW_AT_low_pc($C$DW$L$_xQueueSemaphoreTake$23$B)
    2383                      .dwattr $C$DW$231, DW_AT_high_pc($C$DW$L$_xQueueSemaphoreTake$23$E)
    2384              $C$DW$232       .dwtag  DW_TAG_TI_loop_range
    2385                      .dwattr $C$DW$232, DW_AT_low_pc($C$DW$L$_xQueueSemaphoreTake$24$B)
    2386                      .dwattr $C$DW$232, DW_AT_high_pc($C$DW$L$_xQueueSemaphoreTake$24$E)
    2387              $C$DW$233       .dwtag  DW_TAG_TI_loop_range
    2388                      .dwattr $C$DW$233, DW_AT_low_pc($C$DW$L$_xQueueSemaphoreTake$25$B)
    2389                      .dwattr $C$DW$233, DW_AT_high_pc($C$DW$L$_xQueueSemaphoreTake$25$E)
    2390              $C$DW$234       .dwtag  DW_TAG_TI_loop_range
    2391                      .dwattr $C$DW$234, DW_AT_low_pc($C$DW$L$_xQueueSemaphoreTake$26$B)
    2392                      .dwattr $C$DW$234, DW_AT_high_pc($C$DW$L$_xQueueSemaphoreTake$26$E)
    2393              $C$DW$235       .dwtag  DW_TAG_TI_loop_range
    2394                      .dwattr $C$DW$235, DW_AT_low_pc($C$DW$L$_xQueueSemaphoreTake$27$B)
    2395                      .dwattr $C$DW$235, DW_AT_high_pc($C$DW$L$_xQueueSemaphoreTake$27$E)
    2396              $C$DW$236       .dwtag  DW_TAG_TI_loop_range
    2397                      .dwattr $C$DW$236, DW_AT_low_pc($C$DW$L$_xQueueSemaphoreTake$28$B)
    2398                      .dwattr $C$DW$236, DW_AT_high_pc($C$DW$L$_xQueueSemaphoreTake$28$E)
    2399              $C$DW$237       .dwtag  DW_TAG_TI_loop_range
    2400                      .dwattr $C$DW$237, DW_AT_low_pc($C$DW$L$_xQueueSemaphoreTake$29$B)
    2401                      .dwattr $C$DW$237, DW_AT_high_pc($C$DW$L$_xQueueSemaphoreTake$29$E)
    2402              $C$DW$238       .dwtag  DW_TAG_TI_loop_range
    2403                      .dwattr $C$DW$238, DW_AT_low_pc($C$DW$L$_xQueueSemaphoreTake$30$B)
    2404                      .dwattr $C$DW$238, DW_AT_high_pc($C$DW$L$_xQueueSemaphoreTake$30$E)
    2405              $C$DW$239       .dwtag  DW_TAG_TI_loop_range
    2406                      .dwattr $C$DW$239, DW_AT_low_pc($C$DW$L$_xQueueSemaphoreTake$31$B)
    2407                      .dwattr $C$DW$239, DW_AT_high_pc($C$DW$L$_xQueueSemaphoreTake$31$E)
    2408              $C$DW$240       .dwtag  DW_TAG_TI_loop_range
    2409                      .dwattr $C$DW$240, DW_AT_low_pc($C$DW$L$_xQueueSemaphoreTake$32$B)
    2410                      .dwattr $C$DW$240, DW_AT_high_pc($C$DW$L$_xQueueSemaphoreTake$32$E)
    2411              $C$DW$241       .dwtag  DW_TAG_TI_loop_range
    2412                      .dwattr $C$DW$241, DW_AT_low_pc($C$DW$L$_xQueueSemaphoreTake$33$B)
TMS320C55x Assembler PC v4.4.1 Sun Sep 09 04:48:36 2018

Tools Copyright (c) 1996-2012 Texas Instruments Incorporated
queue.asm                                                            PAGE   53

    2413                      .dwattr $C$DW$241, DW_AT_high_pc($C$DW$L$_xQueueSemaphoreTake$33$E)
    2414              $C$DW$242       .dwtag  DW_TAG_TI_loop_range
    2415                      .dwattr $C$DW$242, DW_AT_low_pc($C$DW$L$_xQueueSemaphoreTake$34$B)
    2416                      .dwattr $C$DW$242, DW_AT_high_pc($C$DW$L$_xQueueSemaphoreTake$34$E)
    2417              $C$DW$243       .dwtag  DW_TAG_TI_loop_range
    2418                      .dwattr $C$DW$243, DW_AT_low_pc($C$DW$L$_xQueueSemaphoreTake$39$B)
    2419                      .dwattr $C$DW$243, DW_AT_high_pc($C$DW$L$_xQueueSemaphoreTake$39$E)
    2420              $C$DW$244       .dwtag  DW_TAG_TI_loop_range
    2421                      .dwattr $C$DW$244, DW_AT_low_pc($C$DW$L$_xQueueSemaphoreTake$38$B)
    2422                      .dwattr $C$DW$244, DW_AT_high_pc($C$DW$L$_xQueueSemaphoreTake$38$E)
    2423              $C$DW$245       .dwtag  DW_TAG_TI_loop_range
    2424                      .dwattr $C$DW$245, DW_AT_low_pc($C$DW$L$_xQueueSemaphoreTake$36$B)
    2425                      .dwattr $C$DW$245, DW_AT_high_pc($C$DW$L$_xQueueSemaphoreTake$36$E)
    2426              $C$DW$246       .dwtag  DW_TAG_TI_loop_range
    2427                      .dwattr $C$DW$246, DW_AT_low_pc($C$DW$L$_xQueueSemaphoreTake$35$B)
    2428                      .dwattr $C$DW$246, DW_AT_high_pc($C$DW$L$_xQueueSemaphoreTake$35$E)
    2429                      .dwendtag $C$DW$226
    2430              
    2431                      .dwattr $C$DW$200, DW_AT_TI_end_file("../FreeRTOS/Source/queue.c")
    2432                      .dwattr $C$DW$200, DW_AT_TI_end_line(0x65d)
    2433                      .dwattr $C$DW$200, DW_AT_TI_end_column(0x01)
    2434                      .dwendentry
    2435                      .dwendtag $C$DW$200
    2436              
    2437 0006ec               .sect   ".text"
    2438                      .align 4
    2439                      .global _xQueuePeek
    2440              
    2441              $C$DW$247       .dwtag  DW_TAG_subprogram, DW_AT_name("xQueuePeek")
    2442                      .dwattr $C$DW$247, DW_AT_low_pc(_xQueuePeek)
    2443                      .dwattr $C$DW$247, DW_AT_high_pc(0x00)
    2444                      .dwattr $C$DW$247, DW_AT_TI_symbol_name("_xQueuePeek")
    2445                      .dwattr $C$DW$247, DW_AT_external
    2446                      .dwattr $C$DW$247, DW_AT_type(*$C$DW$T$43)
    2447                      .dwattr $C$DW$247, DW_AT_TI_begin_file("../FreeRTOS/Source/queue.c")
    2448                      .dwattr $C$DW$247, DW_AT_TI_begin_line(0x660)
    2449                      .dwattr $C$DW$247, DW_AT_TI_begin_column(0x0c)
    2450                      .dwattr $C$DW$247, DW_AT_TI_max_frame_size(0x0e)
    2451                      .dwpsn  file "../FreeRTOS/Source/queue.c",line 1633,column 1,is_stmt,address _xQueuePeek
    2452              
    2453                      .dwfde $C$DW$CIE, _xQueuePeek
    2454              $C$DW$248       .dwtag  DW_TAG_formal_parameter, DW_AT_name("xQueue")
    2455                      .dwattr $C$DW$248, DW_AT_TI_symbol_name("_xQueue")
    2456                      .dwattr $C$DW$248, DW_AT_type(*$C$DW$T$46)
    2457                      .dwattr $C$DW$248, DW_AT_location[DW_OP_reg17]
    2458              $C$DW$249       .dwtag  DW_TAG_formal_parameter, DW_AT_name("pvBuffer")
    2459                      .dwattr $C$DW$249, DW_AT_TI_symbol_name("_pvBuffer")
    2460                      .dwattr $C$DW$249, DW_AT_type(*$C$DW$T$64)
    2461                      .dwattr $C$DW$249, DW_AT_location[DW_OP_reg19]
    2462              $C$DW$250       .dwtag  DW_TAG_formal_parameter, DW_AT_name("xTicksToWait")
    2463                      .dwattr $C$DW$250, DW_AT_TI_symbol_name("_xTicksToWait")
    2464                      .dwattr $C$DW$250, DW_AT_type(*$C$DW$T$38)
    2465                      .dwattr $C$DW$250, DW_AT_location[DW_OP_reg12]
    2466              ;*******************************************************************************
    2467              ;* FUNCTION NAME: xQueuePeek                                                   *
TMS320C55x Assembler PC v4.4.1 Sun Sep 09 04:48:36 2018

Tools Copyright (c) 1996-2012 Texas Instruments Incorporated
queue.asm                                                            PAGE   54

    2468              ;*                                                                             *
    2469              ;*   Function Uses Regs : T0,AR0,XAR0,AR1,XAR1,AR2,XAR2,AR3,XAR3,SP,CARRY,TC1, *
    2470              ;*                        M40,SATA,SATD,RDM,FRCT,SMUL                          *
    2471              ;*   Stack Frame        : Compact (No Frame Pointer, w/ debug)                 *
    2472              ;*   Total Frame Size   : 14 words                                             *
    2473              ;*                        (1 return address/alignment)                         *
    2474              ;*                        (13 local values)                                    *
    2475              ;*   Min System Stack   : 1 word                                               *
    2476              ;*******************************************************************************
    2477 0006ec       _xQueuePeek:
    2478                      .dwcfi  cfa_offset, 1
    2479                      .dwcfi  save_reg_to_mem, 91, -1
    2480 0006ec 4EF3          AADD #-13, SP
    2481                      .dwcfi  cfa_offset, 14
    2482              $C$DW$251       .dwtag  DW_TAG_variable, DW_AT_name("xQueue")
    2483                      .dwattr $C$DW$251, DW_AT_TI_symbol_name("_xQueue")
    2484                      .dwattr $C$DW$251, DW_AT_type(*$C$DW$T$46)
    2485                      .dwattr $C$DW$251, DW_AT_location[DW_OP_bregx 0x24 0]
    2486              $C$DW$252       .dwtag  DW_TAG_variable, DW_AT_name("pvBuffer")
    2487                      .dwattr $C$DW$252, DW_AT_TI_symbol_name("_pvBuffer")
    2488                      .dwattr $C$DW$252, DW_AT_type(*$C$DW$T$64)
    2489                      .dwattr $C$DW$252, DW_AT_location[DW_OP_bregx 0x24 2]
    2490              $C$DW$253       .dwtag  DW_TAG_variable, DW_AT_name("xTicksToWait")
    2491                      .dwattr $C$DW$253, DW_AT_TI_symbol_name("_xTicksToWait")
    2492                      .dwattr $C$DW$253, DW_AT_type(*$C$DW$T$38)
    2493                      .dwattr $C$DW$253, DW_AT_location[DW_OP_bregx 0x24 4]
    2494              $C$DW$254       .dwtag  DW_TAG_variable, DW_AT_name("xEntryTimeSet")
    2495                      .dwattr $C$DW$254, DW_AT_TI_symbol_name("_xEntryTimeSet")
    2496                      .dwattr $C$DW$254, DW_AT_type(*$C$DW$T$43)
    2497                      .dwattr $C$DW$254, DW_AT_location[DW_OP_bregx 0x24 5]
    2498              $C$DW$255       .dwtag  DW_TAG_variable, DW_AT_name("xTimeOut")
    2499                      .dwattr $C$DW$255, DW_AT_TI_symbol_name("_xTimeOut")
    2500                      .dwattr $C$DW$255, DW_AT_type(*$C$DW$T$77)
    2501                      .dwattr $C$DW$255, DW_AT_location[DW_OP_bregx 0x24 6]
    2502              $C$DW$256       .dwtag  DW_TAG_variable, DW_AT_name("pcOriginalReadPosition")
    2503                      .dwattr $C$DW$256, DW_AT_TI_symbol_name("_pcOriginalReadPosition")
    2504                      .dwattr $C$DW$256, DW_AT_type(*$C$DW$T$24)
    2505                      .dwattr $C$DW$256, DW_AT_location[DW_OP_bregx 0x24 8]
    2506              $C$DW$257       .dwtag  DW_TAG_variable, DW_AT_name("pxQueue")
    2507                      .dwattr $C$DW$257, DW_AT_TI_symbol_name("_pxQueue")
    2508                      .dwattr $C$DW$257, DW_AT_type(*$C$DW$T$57)
    2509                      .dwattr $C$DW$257, DW_AT_location[DW_OP_bregx 0x24 10]
    2510 0006ee C408          MOV T0, *SP(#4) ; |1633| 
    2511 0006f0 EB04          MOV XAR1, dbl(*SP(#2))
         0006f2 95   
    2512 0006f3 EB00          MOV XAR0, dbl(*SP(#0))
         0006f5 85   
    2513                      .dwpsn  file "../FreeRTOS/Source/queue.c",line 1634,column 12,is_stmt
    2514 0006f6 E60A          MOV #0, *SP(#5) ; |1634| 
         0006f8 00   
    2515                      .dwpsn  file "../FreeRTOS/Source/queue.c",line 1637,column 17,is_stmt
    2516 0006f9 ED00          MOV dbl(*SP(#0)), XAR3
         0006fb BF   
    2517 0006fc EB14          MOV XAR3, dbl(*SP(#10))
         0006fe B5   
TMS320C55x Assembler PC v4.4.1 Sun Sep 09 04:48:36 2018

Tools Copyright (c) 1996-2012 Texas Instruments Incorporated
queue.asm                                                            PAGE   55

    2518 0006ff       $C$L74:    
    2519 0006ff       $C$DW$L$_xQueuePeek$2$B:
    2520                      .dwpsn  file "../FreeRTOS/Source/queue.c",line 1659,column 3,is_stmt
    2521 0006ff 20     nop
    2522 000700 46B3   bset INTM
    2523 000702 F731          ADD #1, *(#_usCriticalNesting) ; |1659| 
         000704 0001 
         000706 0000 
         000708 00!  
    2524 000709 20            NOP
    2525 00070a 20            NOP
    2526              
    2527              $C$DW$258       .dwtag  DW_TAG_lexical_block, DW_AT_low_pc(0x00), DW_AT_high_pc(0x00)
    2528              $C$DW$259       .dwtag  DW_TAG_variable, DW_AT_name("uxMessagesWaiting")
    2529                      .dwattr $C$DW$259, DW_AT_TI_symbol_name("_uxMessagesWaiting")
    2530                      .dwattr $C$DW$259, DW_AT_type(*$C$DW$T$48)
    2531                      .dwattr $C$DW$259, DW_AT_location[DW_OP_bregx 0x24 12]
    2532                      .dwpsn  file "../FreeRTOS/Source/queue.c",line 1661,column 22,is_stmt
    2533 00070b ED14          MOV dbl(*SP(#10)), XAR3
         00070d BF   
    2534 00070e A96D          MOV *AR3(#28), AR1 ; |1661| 
         000710 001C 
    2535 000712 C918          MOV AR1, *SP(#12) ; |1661| 
    2536                      .dwpsn  file "../FreeRTOS/Source/queue.c",line 1665,column 4,is_stmt
    2537 000714 0409          BCC $C$L79,AR1 == #0 ; |1665| 
         000716 60   
    2538                                                      ; branchcc occurs ; |1665| 
    2539 000717       $C$DW$L$_xQueuePeek$2$E:
    2540                      .dwpsn  file "../FreeRTOS/Source/queue.c",line 1670,column 5,is_stmt
    2541 000717 ED14          MOV dbl(*SP(#10)), XAR3
         000719 BF   
    2542 00071a ED7D          MOV dbl(*AR3(short(#6))), XAR3
         00071c BF   
    2543 00071d EB10          MOV XAR3, dbl(*SP(#8))
         00071f B5   
    2544                      .dwpsn  file "../FreeRTOS/Source/queue.c",line 1672,column 5,is_stmt
    2545 000720 ED14          MOV dbl(*SP(#10)), XAR0
         000722 8F   
    2546 000723 ED04          MOV dbl(*SP(#2)), XAR1
         000725 9F   
    2547              $C$DW$260       .dwtag  DW_TAG_TI_branch
    2548                      .dwattr $C$DW$260, DW_AT_low_pc(0x00)
    2549                      .dwattr $C$DW$260, DW_AT_name("_prvCopyDataFromQueue")
    2550                      .dwattr $C$DW$260, DW_AT_TI_call
    2551 000726 0803          CALL #_prvCopyDataFromQueue ; |1672| 
         000728 9F   
    2552                                                      ; call occurs [#_prvCopyDataFromQueue] ; |1672| 
    2553                      .dwpsn  file "../FreeRTOS/Source/queue.c",line 1676,column 5,is_stmt
    2554 000729 ED14          MOV dbl(*SP(#10)), XAR3
         00072b BF   
    2555 00072c ED10          MOV dbl(*SP(#8)), XAR2
         00072e AF   
    2556 00072f EB7D          MOV XAR2, dbl(*AR3(short(#6)))
         000731 A5   
    2557                      .dwpsn  file "../FreeRTOS/Source/queue.c",line 1680,column 5,is_stmt
TMS320C55x Assembler PC v4.4.1 Sun Sep 09 04:48:36 2018

Tools Copyright (c) 1996-2012 Texas Instruments Incorporated
queue.asm                                                            PAGE   56

    2558 000732 ED14          MOV dbl(*SP(#10)), XAR3
         000734 BF   
    2559 000735 A96D          MOV *AR3(#18), AR1 ; |1680| 
         000737 0012 
    2560 000739 6219          BCC $C$L75,AR1 != #0 ; |1680| 
    2561                                                      ; branchcc occurs ; |1680| 
    2562 00073b 3C19          MOV #1, AR1
    2563 00073d 4A02          B $C$L76  ; |1680| 
    2564                                                      ; branch occurs ; |1680| 
    2565 00073f       $C$L75:    
    2566 00073f 3C09          MOV #0, AR1
    2567 000741       $C$L76:    
    2568 000741 0419          BCC $C$L77,AR1 != #0 ; |1680| 
         000743 12   
    2569                                                      ; branchcc occurs ; |1680| 
    2570                      .dwpsn  file "../FreeRTOS/Source/queue.c",line 1682,column 6,is_stmt
    2571 000744 ED14          MOV dbl(*SP(#10)), XAR0
         000746 8F   
    2572 000747 1412          AADD #18, AR0 ; |1682| 
         000749 84   
    2573              $C$DW$261       .dwtag  DW_TAG_TI_branch
    2574                      .dwattr $C$DW$261, DW_AT_low_pc(0x00)
    2575                      .dwattr $C$DW$261, DW_AT_name("_xTaskRemoveFromEventList")
    2576                      .dwattr $C$DW$261, DW_AT_TI_call
    2577 00074a 6C00          CALL #_xTaskRemoveFromEventList ; |1682| 
         00074c 0000!
    2578                                                      ; call occurs [#_xTaskRemoveFromEventList] ; |1682| 
    2579 00074e 6304          BCC $C$L77,T0 == #0 ; |1682| 
    2580                                                      ; branchcc occurs ; |1682| 
    2581                      .dwpsn  file "../FreeRTOS/Source/queue.c",line 1685,column 7,is_stmt
    2582              $C$DW$262       .dwtag  DW_TAG_TI_branch
    2583                      .dwattr $C$DW$262, DW_AT_low_pc(0x00)
    2584                      .dwattr $C$DW$262, DW_AT_name("_vPortYield")
    2585                      .dwattr $C$DW$262, DW_AT_TI_call
    2586 000750 6C00          CALL #_vPortYield ; |1685| 
         000752 0000!
    2587                                                      ; call occurs [#_vPortYield] ; |1685| 
    2588                      .dwpsn  file "../FreeRTOS/Source/queue.c",line 1686,column 6,is_stmt
    2589 000754 4A00          B $C$L77  ; |1686| 
    2590                                                      ; branch occurs ; |1686| 
    2591 000756       $C$L77:    
    2592                      .dwpsn  file "../FreeRTOS/Source/queue.c",line 1697,column 5,is_stmt
    2593 000756 A931          MOV *(#_usCriticalNesting), AR1 ; |1697| 
         000758 0000 
         00075a 00!  
    2594 00075b 0409          BCC $C$L78,AR1 == #0 ; |1697| 
         00075d 14   
    2595                                                      ; branchcc occurs ; |1697| 
    2596 00075e F731          SUB #1, *(#_usCriticalNesting) ; |1697| 
         000760 FFFF 
         000762 0000 
         000764 00!  
    2597 000765 20            NOP
    2598 000766 20            NOP
    2599 000767 20            NOP
TMS320C55x Assembler PC v4.4.1 Sun Sep 09 04:48:36 2018

Tools Copyright (c) 1996-2012 Texas Instruments Incorporated
queue.asm                                                            PAGE   57

    2600 000768 A931          MOV *(#_usCriticalNesting), AR1 ; |1697| 
         00076a 0000 
         00076c 00!  
    2601 00076d 6199          BCC $C$L78,AR1 != #0 ; |1697| 
    2602                                                      ; branchcc occurs ; |1697| 
    2603 00076f 20     nop
    2604 000770 46B2   bclr INTM
    2605 000772       $C$L78:    
    2606                      .dwpsn  file "../FreeRTOS/Source/queue.c",line 1698,column 5,is_stmt
    2607 000772 3C14          MOV #1, T0
    2608 000774 0600          B $C$L89  ; |1698| 
         000776 F8   
    2609                                                      ; branch occurs ; |1698| 
    2610 000777       $C$L79:    
    2611 000777       $C$DW$L$_xQueuePeek$15$B:
    2612                      .dwpsn  file "../FreeRTOS/Source/queue.c",line 1702,column 5,is_stmt
    2613 000777 A908          MOV *SP(#4), AR1 ; |1702| 
    2614 000779 0419          BCC $C$L81,AR1 != #0 ; |1702| 
         00077b 21   
    2615                                                      ; branchcc occurs ; |1702| 
    2616 00077c       $C$DW$L$_xQueuePeek$15$E:
    2617                      .dwpsn  file "../FreeRTOS/Source/queue.c",line 1706,column 6,is_stmt
    2618 00077c A931          MOV *(#_usCriticalNesting), AR1 ; |1706| 
         00077e 0000 
         000780 00!  
    2619 000781 0409          BCC $C$L80,AR1 == #0 ; |1706| 
         000783 14   
    2620                                                      ; branchcc occurs ; |1706| 
    2621 000784 F731          SUB #1, *(#_usCriticalNesting) ; |1706| 
         000786 FFFF 
         000788 0000 
         00078a 00!  
    2622 00078b 20            NOP
    2623 00078c 20            NOP
    2624 00078d 20            NOP
    2625 00078e A931          MOV *(#_usCriticalNesting), AR1 ; |1706| 
         000790 0000 
         000792 00!  
    2626 000793 6199          BCC $C$L80,AR1 != #0 ; |1706| 
    2627                                                      ; branchcc occurs ; |1706| 
    2628 000795 20     nop
    2629 000796 46B2   bclr INTM
    2630 000798       $C$L80:    
    2631                      .dwpsn  file "../FreeRTOS/Source/queue.c",line 1708,column 6,is_stmt
    2632 000798 3C04          MOV #0, T0
    2633 00079a 0600          B $C$L89  ; |1708| 
         00079c D2   
    2634                                                      ; branch occurs ; |1708| 
    2635 00079d       $C$L81:    
    2636 00079d       $C$DW$L$_xQueuePeek$21$B:
    2637                      .dwpsn  file "../FreeRTOS/Source/queue.c",line 1710,column 10,is_stmt
    2638 00079d A90A          MOV *SP(#5), AR1 ; |1710| 
    2639 00079f 6519          BCC $C$L82,AR1 != #0 ; |1710| 
    2640                                                      ; branchcc occurs ; |1710| 
    2641 0007a1       $C$DW$L$_xQueuePeek$21$E:
TMS320C55x Assembler PC v4.4.1 Sun Sep 09 04:48:36 2018

Tools Copyright (c) 1996-2012 Texas Instruments Incorporated
queue.asm                                                            PAGE   58

    2642 0007a1       $C$DW$L$_xQueuePeek$22$B:
    2643                      .dwpsn  file "../FreeRTOS/Source/queue.c",line 1715,column 6,is_stmt
    2644 0007a1 EC0C          AMAR *SP(#6), XAR0
         0007a3 8E   
    2645              $C$DW$263       .dwtag  DW_TAG_TI_branch
    2646                      .dwattr $C$DW$263, DW_AT_low_pc(0x00)
    2647                      .dwattr $C$DW$263, DW_AT_name("_vTaskInternalSetTimeOutState")
    2648                      .dwattr $C$DW$263, DW_AT_TI_call
    2649 0007a4 6C00          CALL #_vTaskInternalSetTimeOutState ; |1715| 
         0007a6 0000!
    2650                                                      ; call occurs [#_vTaskInternalSetTimeOutState] ; |1715| 
    2651                      .dwpsn  file "../FreeRTOS/Source/queue.c",line 1716,column 6,is_stmt
    2652 0007a8 E60A          MOV #1, *SP(#5) ; |1716| 
         0007aa 01   
    2653                      .dwpsn  file "../FreeRTOS/Source/queue.c",line 1717,column 5,is_stmt
    2654              $C$DW$L$_xQueuePeek$22$E:
    2655              $C$L82:    
    2656              $C$DW$L$_xQueuePeek$23$B:
    2657                      .dwendtag $C$DW$258
    2658              
    2659                      .dwpsn  file "../FreeRTOS/Source/queue.c",line 1725,column 3,is_stmt
    2660 0007ab A931          MOV *(#_usCriticalNesting), AR1 ; |1725| 
         0007ad 0000 
         0007af 00!  
    2661 0007b0 0409          BCC $C$L83,AR1 == #0 ; |1725| 
         0007b2 14   
    2662                                                      ; branchcc occurs ; |1725| 
    2663 0007b3       $C$DW$L$_xQueuePeek$23$E:
    2664 0007b3       $C$DW$L$_xQueuePeek$24$B:
    2665 0007b3 F731          SUB #1, *(#_usCriticalNesting) ; |1725| 
         0007b5 FFFF 
         0007b7 0000 
         0007b9 00!  
    2666 0007ba 20            NOP
    2667 0007bb 20            NOP
    2668 0007bc 20            NOP
    2669 0007bd A931          MOV *(#_usCriticalNesting), AR1 ; |1725| 
         0007bf 0000 
         0007c1 00!  
    2670 0007c2 6199          BCC $C$L83,AR1 != #0 ; |1725| 
    2671                                                      ; branchcc occurs ; |1725| 
    2672 0007c4       $C$DW$L$_xQueuePeek$24$E:
    2673 0007c4       $C$DW$L$_xQueuePeek$25$B:
    2674 0007c4 20     nop
    2675 0007c5 46B2   bclr INTM
    2676 0007c7       $C$DW$L$_xQueuePeek$25$E:
    2677 0007c7       $C$L83:    
    2678 0007c7       $C$DW$L$_xQueuePeek$26$B:
    2679                      .dwpsn  file "../FreeRTOS/Source/queue.c",line 1730,column 3,is_stmt
    2680              $C$DW$264       .dwtag  DW_TAG_TI_branch
    2681                      .dwattr $C$DW$264, DW_AT_low_pc(0x00)
    2682                      .dwattr $C$DW$264, DW_AT_name("_vTaskSuspendAll")
    2683                      .dwattr $C$DW$264, DW_AT_TI_call
    2684 0007c7 6C00          CALL #_vTaskSuspendAll ; |1730| 
         0007c9 0000!
TMS320C55x Assembler PC v4.4.1 Sun Sep 09 04:48:36 2018

Tools Copyright (c) 1996-2012 Texas Instruments Incorporated
queue.asm                                                            PAGE   59

    2685                                                      ; call occurs [#_vTaskSuspendAll] ; |1730| 
    2686                      .dwpsn  file "../FreeRTOS/Source/queue.c",line 1731,column 3,is_stmt
    2687 0007cb 20     nop
    2688 0007cc 46B3   bset INTM
    2689 0007ce F731          ADD #1, *(#_usCriticalNesting) ; |1731| 
         0007d0 0001 
         0007d2 0000 
         0007d4 00!  
    2690 0007d5 20            NOP
    2691 0007d6 20            NOP
    2692 0007d7 ED14          MOV dbl(*SP(#10)), XAR3
         0007d9 BF   
    2693 0007da F06D          CMP *AR3(#31) == #-1, TC1 ; |1731| 
         0007dc FFFF 
         0007de 001F 
    2694 0007e0 62F4          BCC $C$L84,!TC1 ; |1731| 
    2695                                                      ; branchcc occurs ; |1731| 
    2696 0007e2       $C$DW$L$_xQueuePeek$26$E:
    2697 0007e2       $C$DW$L$_xQueuePeek$27$B:
    2698 0007e2 E66D          MOV #0, *AR3(#31) ; |1731| 
         0007e4 0000 
         0007e6 1F   
    2699 0007e7       $C$DW$L$_xQueuePeek$27$E:
    2700 0007e7       $C$L84:    
    2701 0007e7       $C$DW$L$_xQueuePeek$28$B:
    2702 0007e7 ED14          MOV dbl(*SP(#10)), XAR3
         0007e9 BF   
    2703 0007ea F06D          CMP *AR3(#32) == #-1, TC1 ; |1731| 
         0007ec FFFF 
         0007ee 0020 
    2704 0007f0 62F4          BCC $C$L85,!TC1 ; |1731| 
    2705                                                      ; branchcc occurs ; |1731| 
    2706 0007f2       $C$DW$L$_xQueuePeek$28$E:
    2707 0007f2       $C$DW$L$_xQueuePeek$29$B:
    2708 0007f2 E66D          MOV #0, *AR3(#32) ; |1731| 
         0007f4 0000 
         0007f6 20   
    2709 0007f7       $C$DW$L$_xQueuePeek$29$E:
    2710 0007f7       $C$L85:    
    2711 0007f7       $C$DW$L$_xQueuePeek$30$B:
    2712 0007f7 A931          MOV *(#_usCriticalNesting), AR1 ; |1731| 
         0007f9 0000 
         0007fb 00!  
    2713 0007fc 0409          BCC $C$L86,AR1 == #0 ; |1731| 
         0007fe 14   
    2714                                                      ; branchcc occurs ; |1731| 
    2715 0007ff       $C$DW$L$_xQueuePeek$30$E:
    2716 0007ff       $C$DW$L$_xQueuePeek$31$B:
    2717 0007ff F731          SUB #1, *(#_usCriticalNesting) ; |1731| 
         000801 FFFF 
         000803 0000 
         000805 00!  
    2718 000806 20            NOP
    2719 000807 20            NOP
    2720 000808 20            NOP
TMS320C55x Assembler PC v4.4.1 Sun Sep 09 04:48:36 2018

Tools Copyright (c) 1996-2012 Texas Instruments Incorporated
queue.asm                                                            PAGE   60

    2721 000809 A931          MOV *(#_usCriticalNesting), AR1 ; |1731| 
         00080b 0000 
         00080d 00!  
    2722 00080e 6199          BCC $C$L86,AR1 != #0 ; |1731| 
    2723                                                      ; branchcc occurs ; |1731| 
    2724 000810       $C$DW$L$_xQueuePeek$31$E:
    2725 000810       $C$DW$L$_xQueuePeek$32$B:
    2726 000810 20     nop
    2727 000811 46B2   bclr INTM
    2728 000813       $C$DW$L$_xQueuePeek$32$E:
    2729 000813       $C$L86:    
    2730 000813       $C$DW$L$_xQueuePeek$33$B:
    2731                      .dwpsn  file "../FreeRTOS/Source/queue.c",line 1734,column 3,is_stmt
    2732 000813 EC0C          AMAR *SP(#6), XAR0
         000815 8E   
    2733 000816 EC08          AMAR *SP(#4), XAR1
         000818 9E   
    2734              $C$DW$265       .dwtag  DW_TAG_TI_branch
    2735                      .dwattr $C$DW$265, DW_AT_low_pc(0x00)
    2736                      .dwattr $C$DW$265, DW_AT_name("_xTaskCheckForTimeOut")
    2737                      .dwattr $C$DW$265, DW_AT_TI_call
    2738 000819 6C00          CALL #_xTaskCheckForTimeOut ; |1734| 
         00081b 0000!
    2739                                                      ; call occurs [#_xTaskCheckForTimeOut] ; |1734| 
    2740 00081d 0414          BCC $C$L88,T0 != #0 ; |1734| 
         00081f 37   
    2741                                                      ; branchcc occurs ; |1734| 
    2742 000820       $C$DW$L$_xQueuePeek$33$E:
    2743 000820       $C$DW$L$_xQueuePeek$34$B:
    2744                      .dwpsn  file "../FreeRTOS/Source/queue.c",line 1738,column 4,is_stmt
    2745 000820 ED14          MOV dbl(*SP(#10)), XAR0
         000822 8F   
    2746              $C$DW$266       .dwtag  DW_TAG_TI_branch
    2747                      .dwattr $C$DW$266, DW_AT_low_pc(0x00)
    2748                      .dwattr $C$DW$266, DW_AT_name("_prvIsQueueEmpty")
    2749                      .dwattr $C$DW$266, DW_AT_TI_call
    2750 000823 0803          CALL #_prvIsQueueEmpty ; |1738| 
         000825 DE   
    2751                                                      ; call occurs [#_prvIsQueueEmpty] ; |1738| 
    2752 000826 0404          BCC $C$L87,T0 == #0 ; |1738| 
         000828 21   
    2753                                                      ; branchcc occurs ; |1738| 
    2754 000829       $C$DW$L$_xQueuePeek$34$E:
    2755 000829       $C$DW$L$_xQueuePeek$35$B:
    2756                      .dwpsn  file "../FreeRTOS/Source/queue.c",line 1741,column 5,is_stmt
    2757 000829 ED14          MOV dbl(*SP(#10)), XAR0
         00082b 8F   
    2758              
    2759                      AADD #18, AR0 ; |1741| 
    2760 00082c 8A08  ||      MOV *SP(#4), T0 ; |1741| 
         00082e 841C 
         000830 12   
    2761              
    2762              $C$DW$267       .dwtag  DW_TAG_TI_branch
    2763                      .dwattr $C$DW$267, DW_AT_low_pc(0x00)
TMS320C55x Assembler PC v4.4.1 Sun Sep 09 04:48:36 2018

Tools Copyright (c) 1996-2012 Texas Instruments Incorporated
queue.asm                                                            PAGE   61

    2764                      .dwattr $C$DW$267, DW_AT_name("_vTaskPlaceOnEventList")
    2765                      .dwattr $C$DW$267, DW_AT_TI_call
    2766 000831 6C00          CALL #_vTaskPlaceOnEventList ; |1741| 
         000833 0000!
    2767                                                      ; call occurs [#_vTaskPlaceOnEventList] ; |1741| 
    2768                      .dwpsn  file "../FreeRTOS/Source/queue.c",line 1742,column 5,is_stmt
    2769 000835 ED14          MOV dbl(*SP(#10)), XAR0
         000837 8F   
    2770              $C$DW$268       .dwtag  DW_TAG_TI_branch
    2771                      .dwattr $C$DW$268, DW_AT_low_pc(0x00)
    2772                      .dwattr $C$DW$268, DW_AT_name("_prvUnlockQueue")
    2773                      .dwattr $C$DW$268, DW_AT_TI_call
    2774 000838 0802          CALL #_prvUnlockQueue ; |1742| 
         00083a E5   
    2775                                                      ; call occurs [#_prvUnlockQueue] ; |1742| 
    2776                      .dwpsn  file "../FreeRTOS/Source/queue.c",line 1743,column 5,is_stmt
    2777              $C$DW$269       .dwtag  DW_TAG_TI_branch
    2778                      .dwattr $C$DW$269, DW_AT_low_pc(0x00)
    2779                      .dwattr $C$DW$269, DW_AT_name("_xTaskResumeAll")
    2780                      .dwattr $C$DW$269, DW_AT_TI_call
    2781 00083b 6C00          CALL #_xTaskResumeAll ; |1743| 
         00083d 0000!
    2782                                                      ; call occurs [#_xTaskResumeAll] ; |1743| 
    2783 00083f 6D14          BCC $C$L74,T0 != #0 ; |1743| 
         000841 FEBC 
    2784                                                      ; branchcc occurs ; |1743| 
    2785 000843       $C$DW$L$_xQueuePeek$35$E:
    2786 000843       $C$DW$L$_xQueuePeek$36$B:
    2787                      .dwpsn  file "../FreeRTOS/Source/queue.c",line 1745,column 6,is_stmt
    2788              $C$DW$270       .dwtag  DW_TAG_TI_branch
    2789                      .dwattr $C$DW$270, DW_AT_low_pc(0x00)
    2790                      .dwattr $C$DW$270, DW_AT_name("_vPortYield")
    2791                      .dwattr $C$DW$270, DW_AT_TI_call
    2792 000843 6C00          CALL #_vPortYield ; |1745| 
         000845 0000!
    2793                                                      ; call occurs [#_vPortYield] ; |1745| 
    2794                      .dwpsn  file "../FreeRTOS/Source/queue.c",line 1746,column 5,is_stmt
    2795 000847 06FE          B $C$L74  ; |1746| 
         000849 B5   
    2796                                                      ; branch occurs ; |1746| 
    2797 00084a       $C$DW$L$_xQueuePeek$36$E:
    2798 00084a       $C$L87:    
    2799 00084a       $C$DW$L$_xQueuePeek$38$B:
    2800                      .dwpsn  file "../FreeRTOS/Source/queue.c",line 1756,column 5,is_stmt
    2801 00084a ED14          MOV dbl(*SP(#10)), XAR0
         00084c 8F   
    2802              $C$DW$271       .dwtag  DW_TAG_TI_branch
    2803                      .dwattr $C$DW$271, DW_AT_low_pc(0x00)
    2804                      .dwattr $C$DW$271, DW_AT_name("_prvUnlockQueue")
    2805                      .dwattr $C$DW$271, DW_AT_TI_call
    2806 00084d 0802          CALL #_prvUnlockQueue ; |1756| 
         00084f D0   
    2807                                                      ; call occurs [#_prvUnlockQueue] ; |1756| 
    2808                      .dwpsn  file "../FreeRTOS/Source/queue.c",line 1757,column 5,is_stmt
    2809              $C$DW$272       .dwtag  DW_TAG_TI_branch
TMS320C55x Assembler PC v4.4.1 Sun Sep 09 04:48:36 2018

Tools Copyright (c) 1996-2012 Texas Instruments Incorporated
queue.asm                                                            PAGE   62

    2810                      .dwattr $C$DW$272, DW_AT_low_pc(0x00)
    2811                      .dwattr $C$DW$272, DW_AT_name("_xTaskResumeAll")
    2812                      .dwattr $C$DW$272, DW_AT_TI_call
    2813 000850 6C00          CALL #_xTaskResumeAll ; |1757| 
         000852 0000!
    2814                                                      ; call occurs [#_xTaskResumeAll] ; |1757| 
    2815                      .dwpsn  file "../FreeRTOS/Source/queue.c",line 1759,column 3,is_stmt
    2816 000854 06FE          B $C$L74  ; |1759| 
         000856 A8   
    2817                                                      ; branch occurs ; |1759| 
    2818 000857       $C$DW$L$_xQueuePeek$38$E:
    2819 000857       $C$L88:    
    2820 000857       $C$DW$L$_xQueuePeek$39$B:
    2821                      .dwpsn  file "../FreeRTOS/Source/queue.c",line 1764,column 4,is_stmt
    2822 000857 ED14          MOV dbl(*SP(#10)), XAR0
         000859 8F   
    2823              $C$DW$273       .dwtag  DW_TAG_TI_branch
    2824                      .dwattr $C$DW$273, DW_AT_low_pc(0x00)
    2825                      .dwattr $C$DW$273, DW_AT_name("_prvUnlockQueue")
    2826                      .dwattr $C$DW$273, DW_AT_TI_call
    2827 00085a 0802          CALL #_prvUnlockQueue ; |1764| 
         00085c C3   
    2828                                                      ; call occurs [#_prvUnlockQueue] ; |1764| 
    2829                      .dwpsn  file "../FreeRTOS/Source/queue.c",line 1765,column 4,is_stmt
    2830              $C$DW$274       .dwtag  DW_TAG_TI_branch
    2831                      .dwattr $C$DW$274, DW_AT_low_pc(0x00)
    2832                      .dwattr $C$DW$274, DW_AT_name("_xTaskResumeAll")
    2833                      .dwattr $C$DW$274, DW_AT_TI_call
    2834 00085d 6C00          CALL #_xTaskResumeAll ; |1765| 
         00085f 0000!
    2835                                                      ; call occurs [#_xTaskResumeAll] ; |1765| 
    2836                      .dwpsn  file "../FreeRTOS/Source/queue.c",line 1767,column 4,is_stmt
    2837 000861 ED14          MOV dbl(*SP(#10)), XAR0
         000863 8F   
    2838              $C$DW$275       .dwtag  DW_TAG_TI_branch
    2839                      .dwattr $C$DW$275, DW_AT_low_pc(0x00)
    2840                      .dwattr $C$DW$275, DW_AT_name("_prvIsQueueEmpty")
    2841                      .dwattr $C$DW$275, DW_AT_TI_call
    2842 000864 0803          CALL #_prvIsQueueEmpty ; |1767| 
         000866 9D   
    2843                                                      ; call occurs [#_prvIsQueueEmpty] ; |1767| 
    2844 000867 6D04          BCC $C$L74,T0 == #0 ; |1767| 
         000869 FE94 
    2845                                                      ; branchcc occurs ; |1767| 
    2846 00086b       $C$DW$L$_xQueuePeek$39$E:
    2847                      .dwpsn  file "../FreeRTOS/Source/queue.c",line 1770,column 5,is_stmt
    2848 00086b 3C04          MOV #0, T0
    2849 00086d 4A00          B $C$L89  ; |1770| 
    2850                                                      ; branch occurs ; |1770| 
    2851 00086f       $C$L89:    
    2852                      .dwpsn  file "../FreeRTOS/Source/queue.c",line 1778,column 1,is_stmt
    2853 00086f 4E0D          AADD #13, SP
    2854                      .dwcfi  cfa_offset, 1
    2855              $C$DW$276       .dwtag  DW_TAG_TI_branch
    2856                      .dwattr $C$DW$276, DW_AT_low_pc(0x00)
TMS320C55x Assembler PC v4.4.1 Sun Sep 09 04:48:36 2018

Tools Copyright (c) 1996-2012 Texas Instruments Incorporated
queue.asm                                                            PAGE   63

    2857                      .dwattr $C$DW$276, DW_AT_TI_return
    2858 000871 4804          RET
    2859                                                      ; return occurs
    2860              
    2861              $C$DW$277       .dwtag  DW_TAG_TI_loop
    2862                      .dwattr $C$DW$277, DW_AT_name("F:\eZdsp_DBG\eZDSP_5535_Files\ccsws2\test\Debug\queue.asm:$C$L74:1:153
    2863                      .dwattr $C$DW$277, DW_AT_TI_begin_file("../FreeRTOS/Source/queue.c")
    2864                      .dwattr $C$DW$277, DW_AT_TI_begin_line(0x679)
    2865                      .dwattr $C$DW$277, DW_AT_TI_end_line(0x6f1)
    2866              $C$DW$278       .dwtag  DW_TAG_TI_loop_range
    2867                      .dwattr $C$DW$278, DW_AT_low_pc($C$DW$L$_xQueuePeek$2$B)
    2868                      .dwattr $C$DW$278, DW_AT_high_pc($C$DW$L$_xQueuePeek$2$E)
    2869              $C$DW$279       .dwtag  DW_TAG_TI_loop_range
    2870                      .dwattr $C$DW$279, DW_AT_low_pc($C$DW$L$_xQueuePeek$15$B)
    2871                      .dwattr $C$DW$279, DW_AT_high_pc($C$DW$L$_xQueuePeek$15$E)
    2872              $C$DW$280       .dwtag  DW_TAG_TI_loop_range
    2873                      .dwattr $C$DW$280, DW_AT_low_pc($C$DW$L$_xQueuePeek$21$B)
    2874                      .dwattr $C$DW$280, DW_AT_high_pc($C$DW$L$_xQueuePeek$21$E)
    2875              $C$DW$281       .dwtag  DW_TAG_TI_loop_range
    2876                      .dwattr $C$DW$281, DW_AT_low_pc($C$DW$L$_xQueuePeek$22$B)
    2877                      .dwattr $C$DW$281, DW_AT_high_pc($C$DW$L$_xQueuePeek$22$E)
    2878              $C$DW$282       .dwtag  DW_TAG_TI_loop_range
    2879                      .dwattr $C$DW$282, DW_AT_low_pc($C$DW$L$_xQueuePeek$23$B)
    2880                      .dwattr $C$DW$282, DW_AT_high_pc($C$DW$L$_xQueuePeek$23$E)
    2881              $C$DW$283       .dwtag  DW_TAG_TI_loop_range
    2882                      .dwattr $C$DW$283, DW_AT_low_pc($C$DW$L$_xQueuePeek$24$B)
    2883                      .dwattr $C$DW$283, DW_AT_high_pc($C$DW$L$_xQueuePeek$24$E)
    2884              $C$DW$284       .dwtag  DW_TAG_TI_loop_range
    2885                      .dwattr $C$DW$284, DW_AT_low_pc($C$DW$L$_xQueuePeek$25$B)
    2886                      .dwattr $C$DW$284, DW_AT_high_pc($C$DW$L$_xQueuePeek$25$E)
    2887              $C$DW$285       .dwtag  DW_TAG_TI_loop_range
    2888                      .dwattr $C$DW$285, DW_AT_low_pc($C$DW$L$_xQueuePeek$26$B)
    2889                      .dwattr $C$DW$285, DW_AT_high_pc($C$DW$L$_xQueuePeek$26$E)
    2890              $C$DW$286       .dwtag  DW_TAG_TI_loop_range
    2891                      .dwattr $C$DW$286, DW_AT_low_pc($C$DW$L$_xQueuePeek$27$B)
    2892                      .dwattr $C$DW$286, DW_AT_high_pc($C$DW$L$_xQueuePeek$27$E)
    2893              $C$DW$287       .dwtag  DW_TAG_TI_loop_range
    2894                      .dwattr $C$DW$287, DW_AT_low_pc($C$DW$L$_xQueuePeek$28$B)
    2895                      .dwattr $C$DW$287, DW_AT_high_pc($C$DW$L$_xQueuePeek$28$E)
    2896              $C$DW$288       .dwtag  DW_TAG_TI_loop_range
    2897                      .dwattr $C$DW$288, DW_AT_low_pc($C$DW$L$_xQueuePeek$29$B)
    2898                      .dwattr $C$DW$288, DW_AT_high_pc($C$DW$L$_xQueuePeek$29$E)
    2899              $C$DW$289       .dwtag  DW_TAG_TI_loop_range
    2900                      .dwattr $C$DW$289, DW_AT_low_pc($C$DW$L$_xQueuePeek$30$B)
    2901                      .dwattr $C$DW$289, DW_AT_high_pc($C$DW$L$_xQueuePeek$30$E)
    2902              $C$DW$290       .dwtag  DW_TAG_TI_loop_range
    2903                      .dwattr $C$DW$290, DW_AT_low_pc($C$DW$L$_xQueuePeek$31$B)
    2904                      .dwattr $C$DW$290, DW_AT_high_pc($C$DW$L$_xQueuePeek$31$E)
    2905              $C$DW$291       .dwtag  DW_TAG_TI_loop_range
    2906                      .dwattr $C$DW$291, DW_AT_low_pc($C$DW$L$_xQueuePeek$32$B)
    2907                      .dwattr $C$DW$291, DW_AT_high_pc($C$DW$L$_xQueuePeek$32$E)
    2908              $C$DW$292       .dwtag  DW_TAG_TI_loop_range
    2909                      .dwattr $C$DW$292, DW_AT_low_pc($C$DW$L$_xQueuePeek$33$B)
    2910                      .dwattr $C$DW$292, DW_AT_high_pc($C$DW$L$_xQueuePeek$33$E)
    2911              $C$DW$293       .dwtag  DW_TAG_TI_loop_range
TMS320C55x Assembler PC v4.4.1 Sun Sep 09 04:48:36 2018

Tools Copyright (c) 1996-2012 Texas Instruments Incorporated
queue.asm                                                            PAGE   64

    2912                      .dwattr $C$DW$293, DW_AT_low_pc($C$DW$L$_xQueuePeek$34$B)
    2913                      .dwattr $C$DW$293, DW_AT_high_pc($C$DW$L$_xQueuePeek$34$E)
    2914              $C$DW$294       .dwtag  DW_TAG_TI_loop_range
    2915                      .dwattr $C$DW$294, DW_AT_low_pc($C$DW$L$_xQueuePeek$39$B)
    2916                      .dwattr $C$DW$294, DW_AT_high_pc($C$DW$L$_xQueuePeek$39$E)
    2917              $C$DW$295       .dwtag  DW_TAG_TI_loop_range
    2918                      .dwattr $C$DW$295, DW_AT_low_pc($C$DW$L$_xQueuePeek$38$B)
    2919                      .dwattr $C$DW$295, DW_AT_high_pc($C$DW$L$_xQueuePeek$38$E)
    2920              $C$DW$296       .dwtag  DW_TAG_TI_loop_range
    2921                      .dwattr $C$DW$296, DW_AT_low_pc($C$DW$L$_xQueuePeek$36$B)
    2922                      .dwattr $C$DW$296, DW_AT_high_pc($C$DW$L$_xQueuePeek$36$E)
    2923              $C$DW$297       .dwtag  DW_TAG_TI_loop_range
    2924                      .dwattr $C$DW$297, DW_AT_low_pc($C$DW$L$_xQueuePeek$35$B)
    2925                      .dwattr $C$DW$297, DW_AT_high_pc($C$DW$L$_xQueuePeek$35$E)
    2926                      .dwendtag $C$DW$277
    2927              
    2928                      .dwattr $C$DW$247, DW_AT_TI_end_file("../FreeRTOS/Source/queue.c")
    2929                      .dwattr $C$DW$247, DW_AT_TI_end_line(0x6f2)
    2930                      .dwattr $C$DW$247, DW_AT_TI_end_column(0x01)
    2931                      .dwendentry
    2932                      .dwendtag $C$DW$247
    2933              
    2934 000873               .sect   ".text"
    2935                      .align 4
    2936                      .global _xQueueReceiveFromISR
    2937              
    2938              $C$DW$298       .dwtag  DW_TAG_subprogram, DW_AT_name("xQueueReceiveFromISR")
    2939                      .dwattr $C$DW$298, DW_AT_low_pc(_xQueueReceiveFromISR)
    2940                      .dwattr $C$DW$298, DW_AT_high_pc(0x00)
    2941                      .dwattr $C$DW$298, DW_AT_TI_symbol_name("_xQueueReceiveFromISR")
    2942                      .dwattr $C$DW$298, DW_AT_external
    2943                      .dwattr $C$DW$298, DW_AT_type(*$C$DW$T$43)
    2944                      .dwattr $C$DW$298, DW_AT_TI_begin_file("../FreeRTOS/Source/queue.c")
    2945                      .dwattr $C$DW$298, DW_AT_TI_begin_line(0x6f5)
    2946                      .dwattr $C$DW$298, DW_AT_TI_begin_column(0x0c)
    2947                      .dwattr $C$DW$298, DW_AT_TI_max_frame_size(0x0e)
    2948                      .dwpsn  file "../FreeRTOS/Source/queue.c",line 1782,column 1,is_stmt,address _xQueueReceiveFromISR
    2949              
    2950                      .dwfde $C$DW$CIE, _xQueueReceiveFromISR
    2951              $C$DW$299       .dwtag  DW_TAG_formal_parameter, DW_AT_name("xQueue")
    2952                      .dwattr $C$DW$299, DW_AT_TI_symbol_name("_xQueue")
    2953                      .dwattr $C$DW$299, DW_AT_type(*$C$DW$T$46)
    2954                      .dwattr $C$DW$299, DW_AT_location[DW_OP_reg17]
    2955              $C$DW$300       .dwtag  DW_TAG_formal_parameter, DW_AT_name("pvBuffer")
    2956                      .dwattr $C$DW$300, DW_AT_TI_symbol_name("_pvBuffer")
    2957                      .dwattr $C$DW$300, DW_AT_type(*$C$DW$T$64)
    2958                      .dwattr $C$DW$300, DW_AT_location[DW_OP_reg19]
    2959              $C$DW$301       .dwtag  DW_TAG_formal_parameter, DW_AT_name("pxHigherPriorityTaskWoken")
    2960                      .dwattr $C$DW$301, DW_AT_TI_symbol_name("_pxHigherPriorityTaskWoken")
    2961                      .dwattr $C$DW$301, DW_AT_type(*$C$DW$T$111)
    2962                      .dwattr $C$DW$301, DW_AT_location[DW_OP_reg21]
    2963              ;*******************************************************************************
    2964              ;* FUNCTION NAME: xQueueReceiveFromISR                                         *
    2965              ;*                                                                             *
    2966              ;*   Function Uses Regs : AC0,AC0,T0,AR0,XAR0,AR1,XAR1,AR2,XAR2,AR3,XAR3,SP,   *
TMS320C55x Assembler PC v4.4.1 Sun Sep 09 04:48:36 2018

Tools Copyright (c) 1996-2012 Texas Instruments Incorporated
queue.asm                                                            PAGE   65

    2967              ;*                        CARRY,TC1,M40,SATA,SATD,RDM,FRCT,SMUL                *
    2968              ;*   Stack Frame        : Compact (No Frame Pointer, w/ debug)                 *
    2969              ;*   Total Frame Size   : 14 words                                             *
    2970              ;*                        (2 return address/alignment)                         *
    2971              ;*                        (12 local values)                                    *
    2972              ;*   Min System Stack   : 1 word                                               *
    2973              ;*******************************************************************************
    2974 000874       _xQueueReceiveFromISR:
    2975                      .dwcfi  cfa_offset, 1
    2976                      .dwcfi  save_reg_to_mem, 91, -1
    2977 000874 4EF3          AADD #-13, SP
    2978                      .dwcfi  cfa_offset, 14
    2979              $C$DW$302       .dwtag  DW_TAG_variable, DW_AT_name("xQueue")
    2980                      .dwattr $C$DW$302, DW_AT_TI_symbol_name("_xQueue")
    2981                      .dwattr $C$DW$302, DW_AT_type(*$C$DW$T$46)
    2982                      .dwattr $C$DW$302, DW_AT_location[DW_OP_bregx 0x24 0]
    2983              $C$DW$303       .dwtag  DW_TAG_variable, DW_AT_name("pvBuffer")
    2984                      .dwattr $C$DW$303, DW_AT_TI_symbol_name("_pvBuffer")
    2985                      .dwattr $C$DW$303, DW_AT_type(*$C$DW$T$64)
    2986                      .dwattr $C$DW$303, DW_AT_location[DW_OP_bregx 0x24 2]
    2987              $C$DW$304       .dwtag  DW_TAG_variable, DW_AT_name("pxHigherPriorityTaskWoken")
    2988                      .dwattr $C$DW$304, DW_AT_TI_symbol_name("_pxHigherPriorityTaskWoken")
    2989                      .dwattr $C$DW$304, DW_AT_type(*$C$DW$T$111)
    2990                      .dwattr $C$DW$304, DW_AT_location[DW_OP_bregx 0x24 4]
    2991              $C$DW$305       .dwtag  DW_TAG_variable, DW_AT_name("xReturn")
    2992                      .dwattr $C$DW$305, DW_AT_TI_symbol_name("_xReturn")
    2993                      .dwattr $C$DW$305, DW_AT_type(*$C$DW$T$43)
    2994                      .dwattr $C$DW$305, DW_AT_location[DW_OP_bregx 0x24 6]
    2995              $C$DW$306       .dwtag  DW_TAG_variable, DW_AT_name("uxSavedInterruptStatus")
    2996                      .dwattr $C$DW$306, DW_AT_TI_symbol_name("_uxSavedInterruptStatus")
    2997                      .dwattr $C$DW$306, DW_AT_type(*$C$DW$T$26)
    2998                      .dwattr $C$DW$306, DW_AT_location[DW_OP_bregx 0x24 7]
    2999              $C$DW$307       .dwtag  DW_TAG_variable, DW_AT_name("pxQueue")
    3000                      .dwattr $C$DW$307, DW_AT_TI_symbol_name("_pxQueue")
    3001                      .dwattr $C$DW$307, DW_AT_type(*$C$DW$T$57)
    3002                      .dwattr $C$DW$307, DW_AT_location[DW_OP_bregx 0x24 8]
    3003 000876 EB08          MOV XAR2, dbl(*SP(#4))
         000878 A5   
    3004 000879 EB04          MOV XAR1, dbl(*SP(#2))
         00087b 95   
    3005 00087c EB00          MOV XAR0, dbl(*SP(#0))
         00087e 85   
    3006                      .dwpsn  file "../FreeRTOS/Source/queue.c",line 1785,column 17,is_stmt
    3007 00087f ED00          MOV dbl(*SP(#0)), XAR3
         000881 BF   
    3008 000882 EB10          MOV XAR3, dbl(*SP(#8))
         000884 B5   
    3009                      .dwpsn  file "../FreeRTOS/Source/queue.c",line 1806,column 2,is_stmt
    3010 000885 E60E          MOV #0, *SP(#7) ; |1806| 
         000887 00   
    3011              
    3012              $C$DW$308       .dwtag  DW_TAG_lexical_block, DW_AT_low_pc(0x00), DW_AT_high_pc(0x00)
    3013              $C$DW$309       .dwtag  DW_TAG_variable, DW_AT_name("uxMessagesWaiting")
    3014                      .dwattr $C$DW$309, DW_AT_TI_symbol_name("_uxMessagesWaiting")
    3015                      .dwattr $C$DW$309, DW_AT_type(*$C$DW$T$48)
TMS320C55x Assembler PC v4.4.1 Sun Sep 09 04:48:36 2018

Tools Copyright (c) 1996-2012 Texas Instruments Incorporated
queue.asm                                                            PAGE   66

    3016                      .dwattr $C$DW$309, DW_AT_location[DW_OP_bregx 0x24 10]
    3017                      .dwpsn  file "../FreeRTOS/Source/queue.c",line 1808,column 21,is_stmt
    3018 000888 ED10          MOV dbl(*SP(#8)), XAR3
         00088a BF   
    3019 00088b A96D          MOV *AR3(#28), AR1 ; |1808| 
         00088d 001C 
    3020 00088f C914          MOV AR1, *SP(#10) ; |1808| 
    3021                      .dwpsn  file "../FreeRTOS/Source/queue.c",line 1811,column 3,is_stmt
    3022 000891 0409          BCC $C$L94,AR1 == #0 ; |1811| 
         000893 60   
    3023                                                      ; branchcc occurs ; |1811| 
    3024              
    3025              $C$DW$310       .dwtag  DW_TAG_lexical_block, DW_AT_low_pc(0x00), DW_AT_high_pc(0x00)
    3026              $C$DW$311       .dwtag  DW_TAG_variable, DW_AT_name("cRxLock")
    3027                      .dwattr $C$DW$311, DW_AT_TI_symbol_name("_cRxLock")
    3028                      .dwattr $C$DW$311, DW_AT_type(*$C$DW$T$92)
    3029                      .dwattr $C$DW$311, DW_AT_location[DW_OP_bregx 0x24 11]
    3030                      .dwpsn  file "../FreeRTOS/Source/queue.c",line 1813,column 17,is_stmt
    3031 000894 ED10          MOV dbl(*SP(#8)), XAR3
         000896 BF   
    3032 000897 A96D          MOV *AR3(#31), AR1 ; |1813| 
         000899 001F 
    3033 00089b C916          MOV AR1, *SP(#11) ; |1813| 
    3034                      .dwpsn  file "../FreeRTOS/Source/queue.c",line 1817,column 4,is_stmt
    3035 00089d ED10          MOV dbl(*SP(#8)), XAR0
         00089f 8F   
    3036 0008a0 ED04          MOV dbl(*SP(#2)), XAR1
         0008a2 9F   
    3037              $C$DW$312       .dwtag  DW_TAG_TI_branch
    3038                      .dwattr $C$DW$312, DW_AT_low_pc(0x00)
    3039                      .dwattr $C$DW$312, DW_AT_name("_prvCopyDataFromQueue")
    3040                      .dwattr $C$DW$312, DW_AT_TI_call
    3041 0008a3 0802          CALL #_prvCopyDataFromQueue ; |1817| 
         0008a5 22   
    3042                                                      ; call occurs [#_prvCopyDataFromQueue] ; |1817| 
    3043                      .dwpsn  file "../FreeRTOS/Source/queue.c",line 1818,column 4,is_stmt
    3044 0008a6 ED10          MOV dbl(*SP(#8)), XAR3
         0008a8 BF   
    3045 0008a9 A914          MOV *SP(#10), AR1 ; |1818| 
    3046 0008ab 4219          SUB #1, AR1 ; |1818| 
    3047 0008ad C96D          MOV AR1, *AR3(#28) ; |1818| 
         0008af 001C 
    3048                      .dwpsn  file "../FreeRTOS/Source/queue.c",line 1824,column 4,is_stmt
    3049 0008b1 F016          CMP *SP(#11) == #-1, TC1 ; |1824| 
         0008b3 FFFF 
    3050 0008b5 0474          BCC $C$L92,!TC1 ; |1824| 
         0008b7 2C   
    3051                                                      ; branchcc occurs ; |1824| 
    3052                      .dwpsn  file "../FreeRTOS/Source/queue.c",line 1826,column 5,is_stmt
    3053 0008b8 ED10          MOV dbl(*SP(#8)), XAR3
         0008ba BF   
    3054 0008bb A96D          MOV *AR3(#8), AR1 ; |1826| 
         0008bd 0008 
    3055 0008bf 6219          BCC $C$L90,AR1 != #0 ; |1826| 
    3056                                                      ; branchcc occurs ; |1826| 
TMS320C55x Assembler PC v4.4.1 Sun Sep 09 04:48:36 2018

Tools Copyright (c) 1996-2012 Texas Instruments Incorporated
queue.asm                                                            PAGE   67

    3057 0008c1 3C19          MOV #1, AR1
    3058 0008c3 4A02          B $C$L91  ; |1826| 
    3059                                                      ; branch occurs ; |1826| 
    3060 0008c5       $C$L90:    
    3061 0008c5 3C09          MOV #0, AR1
    3062 0008c7       $C$L91:    
    3063 0008c7 0419          BCC $C$L93,AR1 != #0 ; |1826| 
         0008c9 25   
    3064                                                      ; branchcc occurs ; |1826| 
    3065                      .dwpsn  file "../FreeRTOS/Source/queue.c",line 1828,column 6,is_stmt
    3066 0008ca ED10          MOV dbl(*SP(#8)), XAR0
         0008cc 8F   
    3067 0008cd 1408          AADD #8, AR0 ; |1828| 
         0008cf 84   
    3068              $C$DW$313       .dwtag  DW_TAG_TI_branch
    3069                      .dwattr $C$DW$313, DW_AT_low_pc(0x00)
    3070                      .dwattr $C$DW$313, DW_AT_name("_xTaskRemoveFromEventList")
    3071                      .dwattr $C$DW$313, DW_AT_TI_call
    3072 0008d0 6C00          CALL #_xTaskRemoveFromEventList ; |1828| 
         0008d2 0000!
    3073                                                      ; call occurs [#_xTaskRemoveFromEventList] ; |1828| 
    3074 0008d4 0404          BCC $C$L93,T0 == #0 ; |1828| 
         0008d6 18   
    3075                                                      ; branchcc occurs ; |1828| 
    3076                      .dwpsn  file "../FreeRTOS/Source/queue.c",line 1832,column 7,is_stmt
    3077 0008d7 ED08          MOV dbl(*SP(#4)), XAR3
         0008d9 BF   
    3078 0008da 90B0          MOV XAR3, AC0
    3079 0008dc 0400          BCC $C$L93,AC0 == #0 ; |1832| 
         0008de 10   
    3080                                                      ; branchcc occurs ; |1832| 
    3081                      .dwpsn  file "../FreeRTOS/Source/queue.c",line 1834,column 8,is_stmt
    3082 0008df E661          MOV #1, *AR3 ; |1834| 
         0008e1 01   
    3083                      .dwpsn  file "../FreeRTOS/Source/queue.c",line 1835,column 7,is_stmt
    3084 0008e2 4A0B          B $C$L93  ; |1835| 
    3085                                                      ; branch occurs ; |1835| 
    3086 0008e4       $C$L92:    
    3087                      .dwpsn  file "../FreeRTOS/Source/queue.c",line 1855,column 5,is_stmt
    3088 0008e4 ED10          MOV dbl(*SP(#8)), XAR3
         0008e6 BF   
    3089 0008e7 A916          MOV *SP(#11), AR1 ; |1855| 
    3090 0008e9 4019          ADD #1, AR1 ; |1855| 
    3091 0008eb C96D          MOV AR1, *AR3(#31) ; |1855| 
         0008ed 001F 
    3092 0008ef       $C$L93:    
    3093                      .dwpsn  file "../FreeRTOS/Source/queue.c",line 1858,column 4,is_stmt
    3094 0008ef E60C          MOV #1, *SP(#6) ; |1858| 
         0008f1 01   
    3095                      .dwendtag $C$DW$310
    3096              
    3097                      .dwpsn  file "../FreeRTOS/Source/queue.c",line 1859,column 3,is_stmt
    3098 0008f2 4A03          B $C$L95  ; |1859| 
    3099                                                      ; branch occurs ; |1859| 
    3100 0008f4       $C$L94:    
TMS320C55x Assembler PC v4.4.1 Sun Sep 09 04:48:36 2018

Tools Copyright (c) 1996-2012 Texas Instruments Incorporated
queue.asm                                                            PAGE   68

    3101                      .dwpsn  file "../FreeRTOS/Source/queue.c",line 1862,column 4,is_stmt
    3102 0008f4 E60C          MOV #0, *SP(#6) ; |1862| 
         0008f6 00   
    3103              $C$L95:    
    3104                      .dwendtag $C$DW$308
    3105              
    3106                      .dwpsn  file "../FreeRTOS/Source/queue.c",line 1866,column 2,is_stmt
    3107                      .dwpsn  file "../FreeRTOS/Source/queue.c",line 1868,column 2,is_stmt
    3108 0008f7 A40C          MOV *SP(#6), T0 ; |1868| 
    3109                      .dwpsn  file "../FreeRTOS/Source/queue.c",line 1869,column 1,is_stmt
    3110 0008f9 4E0D          AADD #13, SP
    3111                      .dwcfi  cfa_offset, 1
    3112              $C$DW$314       .dwtag  DW_TAG_TI_branch
    3113                      .dwattr $C$DW$314, DW_AT_low_pc(0x00)
    3114                      .dwattr $C$DW$314, DW_AT_TI_return
    3115 0008fb 4804          RET
    3116                                                      ; return occurs
    3117                      .dwattr $C$DW$298, DW_AT_TI_end_file("../FreeRTOS/Source/queue.c")
    3118                      .dwattr $C$DW$298, DW_AT_TI_end_line(0x74d)
    3119                      .dwattr $C$DW$298, DW_AT_TI_end_column(0x01)
    3120                      .dwendentry
    3121                      .dwendtag $C$DW$298
    3122              
    3123 0008fd               .sect   ".text"
    3124                      .align 4
    3125                      .global _xQueuePeekFromISR
    3126              
    3127              $C$DW$315       .dwtag  DW_TAG_subprogram, DW_AT_name("xQueuePeekFromISR")
    3128                      .dwattr $C$DW$315, DW_AT_low_pc(_xQueuePeekFromISR)
    3129                      .dwattr $C$DW$315, DW_AT_high_pc(0x00)
    3130                      .dwattr $C$DW$315, DW_AT_TI_symbol_name("_xQueuePeekFromISR")
    3131                      .dwattr $C$DW$315, DW_AT_external
    3132                      .dwattr $C$DW$315, DW_AT_type(*$C$DW$T$43)
    3133                      .dwattr $C$DW$315, DW_AT_TI_begin_file("../FreeRTOS/Source/queue.c")
    3134                      .dwattr $C$DW$315, DW_AT_TI_begin_line(0x750)
    3135                      .dwattr $C$DW$315, DW_AT_TI_begin_column(0x0c)
    3136                      .dwattr $C$DW$315, DW_AT_TI_max_frame_size(0x0c)
    3137                      .dwpsn  file "../FreeRTOS/Source/queue.c",line 1873,column 1,is_stmt,address _xQueuePeekFromISR
    3138              
    3139                      .dwfde $C$DW$CIE, _xQueuePeekFromISR
    3140              $C$DW$316       .dwtag  DW_TAG_formal_parameter, DW_AT_name("xQueue")
    3141                      .dwattr $C$DW$316, DW_AT_TI_symbol_name("_xQueue")
    3142                      .dwattr $C$DW$316, DW_AT_type(*$C$DW$T$46)
    3143                      .dwattr $C$DW$316, DW_AT_location[DW_OP_reg17]
    3144              $C$DW$317       .dwtag  DW_TAG_formal_parameter, DW_AT_name("pvBuffer")
    3145                      .dwattr $C$DW$317, DW_AT_TI_symbol_name("_pvBuffer")
    3146                      .dwattr $C$DW$317, DW_AT_type(*$C$DW$T$64)
    3147                      .dwattr $C$DW$317, DW_AT_location[DW_OP_reg19]
    3148              ;*******************************************************************************
    3149              ;* FUNCTION NAME: xQueuePeekFromISR                                            *
    3150              ;*                                                                             *
    3151              ;*   Function Uses Regs : T0,AR0,XAR0,AR1,XAR1,AR2,XAR2,AR3,XAR3,SP,M40,SATA,  *
    3152              ;*                        SATD,RDM,FRCT,SMUL                                   *
    3153              ;*   Stack Frame        : Compact (No Frame Pointer, w/ debug)                 *
    3154              ;*   Total Frame Size   : 12 words                                             *
TMS320C55x Assembler PC v4.4.1 Sun Sep 09 04:48:36 2018

Tools Copyright (c) 1996-2012 Texas Instruments Incorporated
queue.asm                                                            PAGE   69

    3155              ;*                        (2 return address/alignment)                         *
    3156              ;*                        (10 local values)                                    *
    3157              ;*   Min System Stack   : 1 word                                               *
    3158              ;*******************************************************************************
    3159 000900       _xQueuePeekFromISR:
    3160                      .dwcfi  cfa_offset, 1
    3161                      .dwcfi  save_reg_to_mem, 91, -1
    3162 000900 4EF5          AADD #-11, SP
    3163                      .dwcfi  cfa_offset, 12
    3164              $C$DW$318       .dwtag  DW_TAG_variable, DW_AT_name("xQueue")
    3165                      .dwattr $C$DW$318, DW_AT_TI_symbol_name("_xQueue")
    3166                      .dwattr $C$DW$318, DW_AT_type(*$C$DW$T$46)
    3167                      .dwattr $C$DW$318, DW_AT_location[DW_OP_bregx 0x24 0]
    3168              $C$DW$319       .dwtag  DW_TAG_variable, DW_AT_name("pvBuffer")
    3169                      .dwattr $C$DW$319, DW_AT_TI_symbol_name("_pvBuffer")
    3170                      .dwattr $C$DW$319, DW_AT_type(*$C$DW$T$64)
    3171                      .dwattr $C$DW$319, DW_AT_location[DW_OP_bregx 0x24 2]
    3172              $C$DW$320       .dwtag  DW_TAG_variable, DW_AT_name("xReturn")
    3173                      .dwattr $C$DW$320, DW_AT_TI_symbol_name("_xReturn")
    3174                      .dwattr $C$DW$320, DW_AT_type(*$C$DW$T$43)
    3175                      .dwattr $C$DW$320, DW_AT_location[DW_OP_bregx 0x24 4]
    3176              $C$DW$321       .dwtag  DW_TAG_variable, DW_AT_name("uxSavedInterruptStatus")
    3177                      .dwattr $C$DW$321, DW_AT_TI_symbol_name("_uxSavedInterruptStatus")
    3178                      .dwattr $C$DW$321, DW_AT_type(*$C$DW$T$26)
    3179                      .dwattr $C$DW$321, DW_AT_location[DW_OP_bregx 0x24 5]
    3180              $C$DW$322       .dwtag  DW_TAG_variable, DW_AT_name("pcOriginalReadPosition")
    3181                      .dwattr $C$DW$322, DW_AT_TI_symbol_name("_pcOriginalReadPosition")
    3182                      .dwattr $C$DW$322, DW_AT_type(*$C$DW$T$24)
    3183                      .dwattr $C$DW$322, DW_AT_location[DW_OP_bregx 0x24 6]
    3184              $C$DW$323       .dwtag  DW_TAG_variable, DW_AT_name("pxQueue")
    3185                      .dwattr $C$DW$323, DW_AT_TI_symbol_name("_pxQueue")
    3186                      .dwattr $C$DW$323, DW_AT_type(*$C$DW$T$57)
    3187                      .dwattr $C$DW$323, DW_AT_location[DW_OP_bregx 0x24 8]
    3188 000902 EB04          MOV XAR1, dbl(*SP(#2))
         000904 95   
    3189 000905 EB00          MOV XAR0, dbl(*SP(#0))
         000907 85   
    3190                      .dwpsn  file "../FreeRTOS/Source/queue.c",line 1877,column 17,is_stmt
    3191 000908 ED00          MOV dbl(*SP(#0)), XAR3
         00090a BF   
    3192 00090b EB10          MOV XAR3, dbl(*SP(#8))
         00090d B5   
    3193                      .dwpsn  file "../FreeRTOS/Source/queue.c",line 1899,column 2,is_stmt
    3194 00090e E60A          MOV #0, *SP(#5) ; |1899| 
         000910 00   
    3195                      .dwpsn  file "../FreeRTOS/Source/queue.c",line 1902,column 3,is_stmt
    3196 000911 ED10          MOV dbl(*SP(#8)), XAR3
         000913 BF   
    3197 000914 A96D          MOV *AR3(#28), AR1 ; |1902| 
         000916 001C 
    3198 000918 0409          BCC $C$L96,AR1 == #0 ; |1902| 
         00091a 1D   
    3199                                                      ; branchcc occurs ; |1902| 
    3200                      .dwpsn  file "../FreeRTOS/Source/queue.c",line 1908,column 4,is_stmt
    3201 00091b ED7D          MOV dbl(*AR3(short(#6))), XAR3
TMS320C55x Assembler PC v4.4.1 Sun Sep 09 04:48:36 2018

Tools Copyright (c) 1996-2012 Texas Instruments Incorporated
queue.asm                                                            PAGE   70

         00091d BF   
    3202 00091e EB0C          MOV XAR3, dbl(*SP(#6))
         000920 B5   
    3203                      .dwpsn  file "../FreeRTOS/Source/queue.c",line 1909,column 4,is_stmt
    3204 000921 ED10          MOV dbl(*SP(#8)), XAR0
         000923 8F   
    3205 000924 ED04          MOV dbl(*SP(#2)), XAR1
         000926 9F   
    3206              $C$DW$324       .dwtag  DW_TAG_TI_branch
    3207                      .dwattr $C$DW$324, DW_AT_low_pc(0x00)
    3208                      .dwattr $C$DW$324, DW_AT_name("_prvCopyDataFromQueue")
    3209                      .dwattr $C$DW$324, DW_AT_TI_call
    3210 000927 0801          CALL #_prvCopyDataFromQueue ; |1909| 
         000929 9E   
    3211                                                      ; call occurs [#_prvCopyDataFromQueue] ; |1909| 
    3212                      .dwpsn  file "../FreeRTOS/Source/queue.c",line 1910,column 4,is_stmt
    3213 00092a ED10          MOV dbl(*SP(#8)), XAR3
         00092c BF   
    3214 00092d ED0C          MOV dbl(*SP(#6)), XAR2
         00092f AF   
    3215 000930 EB7D          MOV XAR2, dbl(*AR3(short(#6)))
         000932 A5   
    3216                      .dwpsn  file "../FreeRTOS/Source/queue.c",line 1912,column 4,is_stmt
    3217 000933 E608          MOV #1, *SP(#4) ; |1912| 
         000935 01   
    3218                      .dwpsn  file "../FreeRTOS/Source/queue.c",line 1913,column 3,is_stmt
    3219 000936 4A03          B $C$L97  ; |1913| 
    3220                                                      ; branch occurs ; |1913| 
    3221 000938       $C$L96:    
    3222                      .dwpsn  file "../FreeRTOS/Source/queue.c",line 1916,column 4,is_stmt
    3223 000938 E608          MOV #0, *SP(#4) ; |1916| 
         00093a 00   
    3224 00093b       $C$L97:    
    3225                      .dwpsn  file "../FreeRTOS/Source/queue.c",line 1920,column 2,is_stmt
    3226                      .dwpsn  file "../FreeRTOS/Source/queue.c",line 1922,column 2,is_stmt
    3227 00093b A408          MOV *SP(#4), T0 ; |1922| 
    3228                      .dwpsn  file "../FreeRTOS/Source/queue.c",line 1923,column 1,is_stmt
    3229 00093d 4E0B          AADD #11, SP
    3230                      .dwcfi  cfa_offset, 1
    3231              $C$DW$325       .dwtag  DW_TAG_TI_branch
    3232                      .dwattr $C$DW$325, DW_AT_low_pc(0x00)
    3233                      .dwattr $C$DW$325, DW_AT_TI_return
    3234 00093f 4804          RET
    3235                                                      ; return occurs
    3236                      .dwattr $C$DW$315, DW_AT_TI_end_file("../FreeRTOS/Source/queue.c")
    3237                      .dwattr $C$DW$315, DW_AT_TI_end_line(0x783)
    3238                      .dwattr $C$DW$315, DW_AT_TI_end_column(0x01)
    3239                      .dwendentry
    3240                      .dwendtag $C$DW$315
    3241              
    3242 000941               .sect   ".text"
    3243                      .align 4
    3244                      .global _uxQueueMessagesWaiting
    3245              
    3246              $C$DW$326       .dwtag  DW_TAG_subprogram, DW_AT_name("uxQueueMessagesWaiting")
TMS320C55x Assembler PC v4.4.1 Sun Sep 09 04:48:36 2018

Tools Copyright (c) 1996-2012 Texas Instruments Incorporated
queue.asm                                                            PAGE   71

    3247                      .dwattr $C$DW$326, DW_AT_low_pc(_uxQueueMessagesWaiting)
    3248                      .dwattr $C$DW$326, DW_AT_high_pc(0x00)
    3249                      .dwattr $C$DW$326, DW_AT_TI_symbol_name("_uxQueueMessagesWaiting")
    3250                      .dwattr $C$DW$326, DW_AT_external
    3251                      .dwattr $C$DW$326, DW_AT_type(*$C$DW$T$26)
    3252                      .dwattr $C$DW$326, DW_AT_TI_begin_file("../FreeRTOS/Source/queue.c")
    3253                      .dwattr $C$DW$326, DW_AT_TI_begin_line(0x786)
    3254                      .dwattr $C$DW$326, DW_AT_TI_begin_column(0x0d)
    3255                      .dwattr $C$DW$326, DW_AT_TI_max_frame_size(0x04)
    3256                      .dwpsn  file "../FreeRTOS/Source/queue.c",line 1927,column 1,is_stmt,address _uxQueueMessagesWaiting
    3257              
    3258                      .dwfde $C$DW$CIE, _uxQueueMessagesWaiting
    3259              $C$DW$327       .dwtag  DW_TAG_formal_parameter, DW_AT_name("xQueue")
    3260                      .dwattr $C$DW$327, DW_AT_TI_symbol_name("_xQueue")
    3261                      .dwattr $C$DW$327, DW_AT_type(*$C$DW$T$47)
    3262                      .dwattr $C$DW$327, DW_AT_location[DW_OP_reg17]
    3263              ;*******************************************************************************
    3264              ;* FUNCTION NAME: uxQueueMessagesWaiting                                       *
    3265              ;*                                                                             *
    3266              ;*   Function Uses Regs : T0,AR0,XAR0,AR1,AR3,XAR3,SP,CARRY,M40,SATA,SATD,RDM, *
    3267              ;*                        FRCT,SMUL                                            *
    3268              ;*   Stack Frame        : Compact (No Frame Pointer, w/ debug)                 *
    3269              ;*   Total Frame Size   : 4 words                                              *
    3270              ;*                        (1 return address/alignment)                         *
    3271              ;*                        (3 local values)                                     *
    3272              ;*   Min System Stack   : 1 word                                               *
    3273              ;*******************************************************************************
    3274 000944       _uxQueueMessagesWaiting:
    3275                      .dwcfi  cfa_offset, 1
    3276                      .dwcfi  save_reg_to_mem, 91, -1
    3277 000944 4EFD          AADD #-3, SP
    3278                      .dwcfi  cfa_offset, 4
    3279              $C$DW$328       .dwtag  DW_TAG_variable, DW_AT_name("xQueue")
    3280                      .dwattr $C$DW$328, DW_AT_TI_symbol_name("_xQueue")
    3281                      .dwattr $C$DW$328, DW_AT_type(*$C$DW$T$47)
    3282                      .dwattr $C$DW$328, DW_AT_location[DW_OP_bregx 0x24 0]
    3283              $C$DW$329       .dwtag  DW_TAG_variable, DW_AT_name("uxReturn")
    3284                      .dwattr $C$DW$329, DW_AT_TI_symbol_name("_uxReturn")
    3285                      .dwattr $C$DW$329, DW_AT_type(*$C$DW$T$26)
    3286                      .dwattr $C$DW$329, DW_AT_location[DW_OP_bregx 0x24 2]
    3287 000946 EB00          MOV XAR0, dbl(*SP(#0))
         000948 85   
    3288                      .dwpsn  file "../FreeRTOS/Source/queue.c",line 1932,column 2,is_stmt
    3289 000949 20     nop
    3290 00094a 46B3   bset INTM
    3291 00094c F731          ADD #1, *(#_usCriticalNesting) ; |1932| 
         00094e 0001 
         000950 0000 
         000952 00!  
    3292 000953 20            NOP
    3293 000954 20            NOP
    3294                      .dwpsn  file "../FreeRTOS/Source/queue.c",line 1934,column 3,is_stmt
    3295 000955 ED00          MOV dbl(*SP(#0)), XAR3
         000957 BF   
    3296 000958 A96D          MOV *AR3(#28), AR1 ; |1934| 
TMS320C55x Assembler PC v4.4.1 Sun Sep 09 04:48:36 2018

Tools Copyright (c) 1996-2012 Texas Instruments Incorporated
queue.asm                                                            PAGE   72

         00095a 001C 
    3297 00095c C904          MOV AR1, *SP(#2) ; |1934| 
    3298                      .dwpsn  file "../FreeRTOS/Source/queue.c",line 1936,column 2,is_stmt
    3299 00095e A931          MOV *(#_usCriticalNesting), AR1 ; |1936| 
         000960 0000 
         000962 00!  
    3300 000963 0409          BCC $C$L98,AR1 == #0 ; |1936| 
         000965 14   
    3301                                                      ; branchcc occurs ; |1936| 
    3302 000966 F731          SUB #1, *(#_usCriticalNesting) ; |1936| 
         000968 FFFF 
         00096a 0000 
         00096c 00!  
    3303 00096d 20            NOP
    3304 00096e 20            NOP
    3305 00096f 20            NOP
    3306 000970 A931          MOV *(#_usCriticalNesting), AR1 ; |1936| 
         000972 0000 
         000974 00!  
    3307 000975 6199          BCC $C$L98,AR1 != #0 ; |1936| 
    3308                                                      ; branchcc occurs ; |1936| 
    3309 000977 20     nop
    3310 000978 46B2   bclr INTM
    3311 00097a       $C$L98:    
    3312                      .dwpsn  file "../FreeRTOS/Source/queue.c",line 1938,column 2,is_stmt
    3313 00097a A404          MOV *SP(#2), T0 ; |1938| 
    3314                      .dwpsn  file "../FreeRTOS/Source/queue.c",line 1939,column 1,is_stmt
    3315 00097c 4E03          AADD #3, SP
    3316                      .dwcfi  cfa_offset, 1
    3317              $C$DW$330       .dwtag  DW_TAG_TI_branch
    3318                      .dwattr $C$DW$330, DW_AT_low_pc(0x00)
    3319                      .dwattr $C$DW$330, DW_AT_TI_return
    3320 00097e 4804          RET
    3321                                                      ; return occurs
    3322                      .dwattr $C$DW$326, DW_AT_TI_end_file("../FreeRTOS/Source/queue.c")
    3323                      .dwattr $C$DW$326, DW_AT_TI_end_line(0x793)
    3324                      .dwattr $C$DW$326, DW_AT_TI_end_column(0x01)
    3325                      .dwendentry
    3326                      .dwendtag $C$DW$326
    3327              
    3328 000980               .sect   ".text"
    3329                      .align 4
    3330                      .global _uxQueueSpacesAvailable
    3331              
    3332              $C$DW$331       .dwtag  DW_TAG_subprogram, DW_AT_name("uxQueueSpacesAvailable")
    3333                      .dwattr $C$DW$331, DW_AT_low_pc(_uxQueueSpacesAvailable)
    3334                      .dwattr $C$DW$331, DW_AT_high_pc(0x00)
    3335                      .dwattr $C$DW$331, DW_AT_TI_symbol_name("_uxQueueSpacesAvailable")
    3336                      .dwattr $C$DW$331, DW_AT_external
    3337                      .dwattr $C$DW$331, DW_AT_type(*$C$DW$T$26)
    3338                      .dwattr $C$DW$331, DW_AT_TI_begin_file("../FreeRTOS/Source/queue.c")
    3339                      .dwattr $C$DW$331, DW_AT_TI_begin_line(0x796)
    3340                      .dwattr $C$DW$331, DW_AT_TI_begin_column(0x0d)
    3341                      .dwattr $C$DW$331, DW_AT_TI_max_frame_size(0x08)
    3342                      .dwpsn  file "../FreeRTOS/Source/queue.c",line 1943,column 1,is_stmt,address _uxQueueSpacesAvailable
TMS320C55x Assembler PC v4.4.1 Sun Sep 09 04:48:36 2018

Tools Copyright (c) 1996-2012 Texas Instruments Incorporated
queue.asm                                                            PAGE   73

    3343              
    3344                      .dwfde $C$DW$CIE, _uxQueueSpacesAvailable
    3345              $C$DW$332       .dwtag  DW_TAG_formal_parameter, DW_AT_name("xQueue")
    3346                      .dwattr $C$DW$332, DW_AT_TI_symbol_name("_xQueue")
    3347                      .dwattr $C$DW$332, DW_AT_type(*$C$DW$T$47)
    3348                      .dwattr $C$DW$332, DW_AT_location[DW_OP_reg17]
    3349              ;*******************************************************************************
    3350              ;* FUNCTION NAME: uxQueueSpacesAvailable                                       *
    3351              ;*                                                                             *
    3352              ;*   Function Uses Regs : AC0,T0,AR0,XAR0,AR1,AR2,XAR2,AR3,XAR3,SP,CARRY,M40,  *
    3353              ;*                        SATA,SATD,RDM,FRCT,SMUL                              *
    3354              ;*   Stack Frame        : Compact (No Frame Pointer, w/ debug)                 *
    3355              ;*   Total Frame Size   : 8 words                                              *
    3356              ;*                        (2 return address/alignment)                         *
    3357              ;*                        (6 local values)                                     *
    3358              ;*   Min System Stack   : 1 word                                               *
    3359              ;*******************************************************************************
    3360 000980       _uxQueueSpacesAvailable:
    3361                      .dwcfi  cfa_offset, 1
    3362                      .dwcfi  save_reg_to_mem, 91, -1
    3363 000980 4EF9          AADD #-7, SP
    3364                      .dwcfi  cfa_offset, 8
    3365              $C$DW$333       .dwtag  DW_TAG_variable, DW_AT_name("xQueue")
    3366                      .dwattr $C$DW$333, DW_AT_TI_symbol_name("_xQueue")
    3367                      .dwattr $C$DW$333, DW_AT_type(*$C$DW$T$47)
    3368                      .dwattr $C$DW$333, DW_AT_location[DW_OP_bregx 0x24 0]
    3369              $C$DW$334       .dwtag  DW_TAG_variable, DW_AT_name("uxReturn")
    3370                      .dwattr $C$DW$334, DW_AT_TI_symbol_name("_uxReturn")
    3371                      .dwattr $C$DW$334, DW_AT_type(*$C$DW$T$26)
    3372                      .dwattr $C$DW$334, DW_AT_location[DW_OP_bregx 0x24 2]
    3373              $C$DW$335       .dwtag  DW_TAG_variable, DW_AT_name("pxQueue")
    3374                      .dwattr $C$DW$335, DW_AT_TI_symbol_name("_pxQueue")
    3375                      .dwattr $C$DW$335, DW_AT_type(*$C$DW$T$57)
    3376                      .dwattr $C$DW$335, DW_AT_location[DW_OP_bregx 0x24 4]
    3377 000982 EB00          MOV XAR0, dbl(*SP(#0))
         000984 85   
    3378                      .dwpsn  file "../FreeRTOS/Source/queue.c",line 1945,column 17,is_stmt
    3379 000985 ED00          MOV dbl(*SP(#0)), XAR3
         000987 BF   
    3380 000988 EB08          MOV XAR3, dbl(*SP(#4))
         00098a B5   
    3381                      .dwpsn  file "../FreeRTOS/Source/queue.c",line 1949,column 2,is_stmt
    3382 00098b 20     nop
    3383 00098c 46B3   bset INTM
    3384 00098e F731          ADD #1, *(#_usCriticalNesting) ; |1949| 
         000990 0001 
         000992 0000 
         000994 00!  
    3385 000995 20            NOP
    3386                      .dwpsn  file "../FreeRTOS/Source/queue.c",line 1951,column 3,is_stmt
    3387 000996 ED08          MOV dbl(*SP(#4)), XAR2
         000998 AF   
    3388 000999 A04D          MOV *AR2(#29), AC0 ; |1951| 
         00099b 001D 
    3389 00099d DF6D          SUB uns(*AR3(#28)), AC0, AC0 ; |1951| 
TMS320C55x Assembler PC v4.4.1 Sun Sep 09 04:48:36 2018

Tools Copyright (c) 1996-2012 Texas Instruments Incorporated
queue.asm                                                            PAGE   74

         00099f 0F00 
         0009a1 1C   
    3390 0009a2 C004          MOV AC0, *SP(#2) ; |1951| 
    3391                      .dwpsn  file "../FreeRTOS/Source/queue.c",line 1953,column 2,is_stmt
    3392 0009a4 A931          MOV *(#_usCriticalNesting), AR1 ; |1953| 
         0009a6 0000 
         0009a8 00!  
    3393 0009a9 0409          BCC $C$L99,AR1 == #0 ; |1953| 
         0009ab 14   
    3394                                                      ; branchcc occurs ; |1953| 
    3395 0009ac F731          SUB #1, *(#_usCriticalNesting) ; |1953| 
         0009ae FFFF 
         0009b0 0000 
         0009b2 00!  
    3396 0009b3 20            NOP
    3397 0009b4 20            NOP
    3398 0009b5 20            NOP
    3399 0009b6 A931          MOV *(#_usCriticalNesting), AR1 ; |1953| 
         0009b8 0000 
         0009ba 00!  
    3400 0009bb 6199          BCC $C$L99,AR1 != #0 ; |1953| 
    3401                                                      ; branchcc occurs ; |1953| 
    3402 0009bd 20     nop
    3403 0009be 46B2   bclr INTM
    3404 0009c0       $C$L99:    
    3405                      .dwpsn  file "../FreeRTOS/Source/queue.c",line 1955,column 2,is_stmt
    3406 0009c0 2204          MOV AC0, T0
    3407                      .dwpsn  file "../FreeRTOS/Source/queue.c",line 1956,column 1,is_stmt
    3408 0009c2 4E07          AADD #7, SP
    3409                      .dwcfi  cfa_offset, 1
    3410              $C$DW$336       .dwtag  DW_TAG_TI_branch
    3411                      .dwattr $C$DW$336, DW_AT_low_pc(0x00)
    3412                      .dwattr $C$DW$336, DW_AT_TI_return
    3413 0009c4 4804          RET
    3414                                                      ; return occurs
    3415                      .dwattr $C$DW$331, DW_AT_TI_end_file("../FreeRTOS/Source/queue.c")
    3416                      .dwattr $C$DW$331, DW_AT_TI_end_line(0x7a4)
    3417                      .dwattr $C$DW$331, DW_AT_TI_end_column(0x01)
    3418                      .dwendentry
    3419                      .dwendtag $C$DW$331
    3420              
    3421 0009c6               .sect   ".text"
    3422                      .align 4
    3423                      .global _uxQueueMessagesWaitingFromISR
    3424              
    3425              $C$DW$337       .dwtag  DW_TAG_subprogram, DW_AT_name("uxQueueMessagesWaitingFromISR")
    3426                      .dwattr $C$DW$337, DW_AT_low_pc(_uxQueueMessagesWaitingFromISR)
    3427                      .dwattr $C$DW$337, DW_AT_high_pc(0x00)
    3428                      .dwattr $C$DW$337, DW_AT_TI_symbol_name("_uxQueueMessagesWaitingFromISR")
    3429                      .dwattr $C$DW$337, DW_AT_external
    3430                      .dwattr $C$DW$337, DW_AT_type(*$C$DW$T$26)
    3431                      .dwattr $C$DW$337, DW_AT_TI_begin_file("../FreeRTOS/Source/queue.c")
    3432                      .dwattr $C$DW$337, DW_AT_TI_begin_line(0x7a7)
    3433                      .dwattr $C$DW$337, DW_AT_TI_begin_column(0x0d)
    3434                      .dwattr $C$DW$337, DW_AT_TI_max_frame_size(0x08)
TMS320C55x Assembler PC v4.4.1 Sun Sep 09 04:48:36 2018

Tools Copyright (c) 1996-2012 Texas Instruments Incorporated
queue.asm                                                            PAGE   75

    3435                      .dwpsn  file "../FreeRTOS/Source/queue.c",line 1960,column 1,is_stmt,address _uxQueueMessagesWaitingF
    3436              
    3437                      .dwfde $C$DW$CIE, _uxQueueMessagesWaitingFromISR
    3438              $C$DW$338       .dwtag  DW_TAG_formal_parameter, DW_AT_name("xQueue")
    3439                      .dwattr $C$DW$338, DW_AT_TI_symbol_name("_xQueue")
    3440                      .dwattr $C$DW$338, DW_AT_type(*$C$DW$T$47)
    3441                      .dwattr $C$DW$338, DW_AT_location[DW_OP_reg17]
    3442              ;*******************************************************************************
    3443              ;* FUNCTION NAME: uxQueueMessagesWaitingFromISR                                *
    3444              ;*                                                                             *
    3445              ;*   Function Uses Regs : T0,AR0,XAR0,AR1,AR3,XAR3,SP,M40,SATA,SATD,RDM,FRCT,  *
    3446              ;*                        SMUL                                                 *
    3447              ;*   Stack Frame        : Compact (No Frame Pointer, w/ debug)                 *
    3448              ;*   Total Frame Size   : 8 words                                              *
    3449              ;*                        (2 return address/alignment)                         *
    3450              ;*                        (6 local values)                                     *
    3451              ;*   Min System Stack   : 1 word                                               *
    3452              ;*******************************************************************************
    3453 0009c8       _uxQueueMessagesWaitingFromISR:
    3454                      .dwcfi  cfa_offset, 1
    3455                      .dwcfi  save_reg_to_mem, 91, -1
    3456 0009c8 4EF9          AADD #-7, SP
    3457                      .dwcfi  cfa_offset, 8
    3458              $C$DW$339       .dwtag  DW_TAG_variable, DW_AT_name("xQueue")
    3459                      .dwattr $C$DW$339, DW_AT_TI_symbol_name("_xQueue")
    3460                      .dwattr $C$DW$339, DW_AT_type(*$C$DW$T$47)
    3461                      .dwattr $C$DW$339, DW_AT_location[DW_OP_bregx 0x24 0]
    3462              $C$DW$340       .dwtag  DW_TAG_variable, DW_AT_name("uxReturn")
    3463                      .dwattr $C$DW$340, DW_AT_TI_symbol_name("_uxReturn")
    3464                      .dwattr $C$DW$340, DW_AT_type(*$C$DW$T$26)
    3465                      .dwattr $C$DW$340, DW_AT_location[DW_OP_bregx 0x24 2]
    3466              $C$DW$341       .dwtag  DW_TAG_variable, DW_AT_name("pxQueue")
    3467                      .dwattr $C$DW$341, DW_AT_TI_symbol_name("_pxQueue")
    3468                      .dwattr $C$DW$341, DW_AT_type(*$C$DW$T$57)
    3469                      .dwattr $C$DW$341, DW_AT_location[DW_OP_bregx 0x24 4]
    3470 0009ca EB00          MOV XAR0, dbl(*SP(#0))
         0009cc 85   
    3471                      .dwpsn  file "../FreeRTOS/Source/queue.c",line 1962,column 17,is_stmt
    3472 0009cd ED00          MOV dbl(*SP(#0)), XAR3
         0009cf BF   
    3473 0009d0 EB08          MOV XAR3, dbl(*SP(#4))
         0009d2 B5   
    3474                      .dwpsn  file "../FreeRTOS/Source/queue.c",line 1965,column 2,is_stmt
    3475 0009d3 A96D          MOV *AR3(#28), AR1 ; |1965| 
         0009d5 001C 
    3476 0009d7 C904          MOV AR1, *SP(#2) ; |1965| 
    3477                      .dwpsn  file "../FreeRTOS/Source/queue.c",line 1967,column 2,is_stmt
    3478 0009d9 2294          MOV AR1, T0
    3479                      .dwpsn  file "../FreeRTOS/Source/queue.c",line 1968,column 1,is_stmt
    3480 0009db 4E07          AADD #7, SP
    3481                      .dwcfi  cfa_offset, 1
    3482              $C$DW$342       .dwtag  DW_TAG_TI_branch
    3483                      .dwattr $C$DW$342, DW_AT_low_pc(0x00)
    3484                      .dwattr $C$DW$342, DW_AT_TI_return
    3485 0009dd 4804          RET
TMS320C55x Assembler PC v4.4.1 Sun Sep 09 04:48:36 2018

Tools Copyright (c) 1996-2012 Texas Instruments Incorporated
queue.asm                                                            PAGE   76

    3486                                                      ; return occurs
    3487                      .dwattr $C$DW$337, DW_AT_TI_end_file("../FreeRTOS/Source/queue.c")
    3488                      .dwattr $C$DW$337, DW_AT_TI_end_line(0x7b0)
    3489                      .dwattr $C$DW$337, DW_AT_TI_end_column(0x01)
    3490                      .dwendentry
    3491                      .dwendtag $C$DW$337
    3492              
    3493 0009df               .sect   ".text"
    3494                      .align 4
    3495                      .global _vQueueDelete
    3496              
    3497              $C$DW$343       .dwtag  DW_TAG_subprogram, DW_AT_name("vQueueDelete")
    3498                      .dwattr $C$DW$343, DW_AT_low_pc(_vQueueDelete)
    3499                      .dwattr $C$DW$343, DW_AT_high_pc(0x00)
    3500                      .dwattr $C$DW$343, DW_AT_TI_symbol_name("_vQueueDelete")
    3501                      .dwattr $C$DW$343, DW_AT_external
    3502                      .dwattr $C$DW$343, DW_AT_TI_begin_file("../FreeRTOS/Source/queue.c")
    3503                      .dwattr $C$DW$343, DW_AT_TI_begin_line(0x7b3)
    3504                      .dwattr $C$DW$343, DW_AT_TI_begin_column(0x06)
    3505                      .dwattr $C$DW$343, DW_AT_TI_max_frame_size(0x06)
    3506                      .dwpsn  file "../FreeRTOS/Source/queue.c",line 1972,column 1,is_stmt,address _vQueueDelete
    3507              
    3508                      .dwfde $C$DW$CIE, _vQueueDelete
    3509              $C$DW$344       .dwtag  DW_TAG_formal_parameter, DW_AT_name("xQueue")
    3510                      .dwattr $C$DW$344, DW_AT_TI_symbol_name("_xQueue")
    3511                      .dwattr $C$DW$344, DW_AT_type(*$C$DW$T$46)
    3512                      .dwattr $C$DW$344, DW_AT_location[DW_OP_reg17]
    3513              ;*******************************************************************************
    3514              ;* FUNCTION NAME: vQueueDelete                                                 *
    3515              ;*                                                                             *
    3516              ;*   Function Uses Regs : AR0,XAR0,AR3,XAR3,SP,M40,SATA,SATD,RDM,FRCT,SMUL     *
    3517              ;*   Stack Frame        : Compact (No Frame Pointer, w/ debug)                 *
    3518              ;*   Total Frame Size   : 6 words                                              *
    3519              ;*                        (2 return address/alignment)                         *
    3520              ;*                        (4 local values)                                     *
    3521              ;*   Min System Stack   : 1 word                                               *
    3522              ;*******************************************************************************
    3523 0009e0       _vQueueDelete:
    3524                      .dwcfi  cfa_offset, 1
    3525                      .dwcfi  save_reg_to_mem, 91, -1
    3526 0009e0 4EFB          AADD #-5, SP
    3527                      .dwcfi  cfa_offset, 6
    3528              $C$DW$345       .dwtag  DW_TAG_variable, DW_AT_name("xQueue")
    3529                      .dwattr $C$DW$345, DW_AT_TI_symbol_name("_xQueue")
    3530                      .dwattr $C$DW$345, DW_AT_type(*$C$DW$T$46)
    3531                      .dwattr $C$DW$345, DW_AT_location[DW_OP_bregx 0x24 0]
    3532              $C$DW$346       .dwtag  DW_TAG_variable, DW_AT_name("pxQueue")
    3533                      .dwattr $C$DW$346, DW_AT_TI_symbol_name("_pxQueue")
    3534                      .dwattr $C$DW$346, DW_AT_type(*$C$DW$T$57)
    3535                      .dwattr $C$DW$346, DW_AT_location[DW_OP_bregx 0x24 2]
    3536 0009e2 EB00          MOV XAR0, dbl(*SP(#0))
         0009e4 85   
    3537                      .dwpsn  file "../FreeRTOS/Source/queue.c",line 1973,column 17,is_stmt
    3538 0009e5 ED00          MOV dbl(*SP(#0)), XAR3
         0009e7 BF   
TMS320C55x Assembler PC v4.4.1 Sun Sep 09 04:48:36 2018

Tools Copyright (c) 1996-2012 Texas Instruments Incorporated
queue.asm                                                            PAGE   77

    3539 0009e8 EB04          MOV XAR3, dbl(*SP(#2))
         0009ea B5   
    3540                      .dwpsn  file "../FreeRTOS/Source/queue.c",line 1988,column 3,is_stmt
    3541              $C$DW$347       .dwtag  DW_TAG_TI_branch
    3542                      .dwattr $C$DW$347, DW_AT_low_pc(0x00)
    3543                      .dwattr $C$DW$347, DW_AT_name("_vPortFree")
    3544                      .dwattr $C$DW$347, DW_AT_TI_call
    3545 0009eb 6C00          CALL #_vPortFree ; |1988| 
         0009ed 0000!
    3546                                                      ; call occurs [#_vPortFree] ; |1988| 
    3547                      .dwpsn  file "../FreeRTOS/Source/queue.c",line 2010,column 1,is_stmt
    3548 0009ef 4E05          AADD #5, SP
    3549                      .dwcfi  cfa_offset, 1
    3550              $C$DW$348       .dwtag  DW_TAG_TI_branch
    3551                      .dwattr $C$DW$348, DW_AT_low_pc(0x00)
    3552                      .dwattr $C$DW$348, DW_AT_TI_return
    3553 0009f1 4804          RET
    3554                                                      ; return occurs
    3555                      .dwattr $C$DW$343, DW_AT_TI_end_file("../FreeRTOS/Source/queue.c")
    3556                      .dwattr $C$DW$343, DW_AT_TI_end_line(0x7da)
    3557                      .dwattr $C$DW$343, DW_AT_TI_end_column(0x01)
    3558                      .dwendentry
    3559                      .dwendtag $C$DW$343
    3560              
    3561 0009f3               .sect   ".text"
    3562                      .align 4
    3563              
    3564              $C$DW$349       .dwtag  DW_TAG_subprogram, DW_AT_name("prvCopyDataToQueue")
    3565                      .dwattr $C$DW$349, DW_AT_low_pc(_prvCopyDataToQueue)
    3566                      .dwattr $C$DW$349, DW_AT_high_pc(0x00)
    3567                      .dwattr $C$DW$349, DW_AT_TI_symbol_name("_prvCopyDataToQueue")
    3568                      .dwattr $C$DW$349, DW_AT_type(*$C$DW$T$43)
    3569                      .dwattr $C$DW$349, DW_AT_TI_begin_file("../FreeRTOS/Source/queue.c")
    3570                      .dwattr $C$DW$349, DW_AT_TI_begin_line(0x816)
    3571                      .dwattr $C$DW$349, DW_AT_TI_begin_column(0x13)
    3572                      .dwattr $C$DW$349, DW_AT_TI_max_frame_size(0x08)
    3573                      .dwpsn  file "../FreeRTOS/Source/queue.c",line 2071,column 1,is_stmt,address _prvCopyDataToQueue
    3574              
    3575                      .dwfde $C$DW$CIE, _prvCopyDataToQueue
    3576              $C$DW$350       .dwtag  DW_TAG_formal_parameter, DW_AT_name("pxQueue")
    3577                      .dwattr $C$DW$350, DW_AT_TI_symbol_name("_pxQueue")
    3578                      .dwattr $C$DW$350, DW_AT_type(*$C$DW$T$57)
    3579                      .dwattr $C$DW$350, DW_AT_location[DW_OP_reg17]
    3580              $C$DW$351       .dwtag  DW_TAG_formal_parameter, DW_AT_name("pvItemToQueue")
    3581                      .dwattr $C$DW$351, DW_AT_TI_symbol_name("_pvItemToQueue")
    3582                      .dwattr $C$DW$351, DW_AT_type(*$C$DW$T$59)
    3583                      .dwattr $C$DW$351, DW_AT_location[DW_OP_reg19]
    3584              $C$DW$352       .dwtag  DW_TAG_formal_parameter, DW_AT_name("xPosition")
    3585                      .dwattr $C$DW$352, DW_AT_TI_symbol_name("_xPosition")
    3586                      .dwattr $C$DW$352, DW_AT_type(*$C$DW$T$93)
    3587                      .dwattr $C$DW$352, DW_AT_location[DW_OP_reg12]
    3588              ;*******************************************************************************
    3589              ;* FUNCTION NAME: prvCopyDataToQueue                                           *
    3590              ;*                                                                             *
    3591              ;*   Function Uses Regs : AC0,AC0,AC1,AC1,T0,AR0,XAR0,AR1,XAR1,AR2,XAR2,AR3,   *
TMS320C55x Assembler PC v4.4.1 Sun Sep 09 04:48:36 2018

Tools Copyright (c) 1996-2012 Texas Instruments Incorporated
queue.asm                                                            PAGE   78

    3592              ;*                        XAR3,SP,CARRY,TC1,M40,SATA,SATD,RDM,FRCT,SMUL        *
    3593              ;*   Stack Frame        : Compact (No Frame Pointer, w/ debug)                 *
    3594              ;*   Total Frame Size   : 8 words                                              *
    3595              ;*                        (1 return address/alignment)                         *
    3596              ;*                        (7 local values)                                     *
    3597              ;*   Min System Stack   : 1 word                                               *
    3598              ;*******************************************************************************
    3599 0009f4       _prvCopyDataToQueue:
    3600                      .dwcfi  cfa_offset, 1
    3601                      .dwcfi  save_reg_to_mem, 91, -1
    3602 0009f4 4EF9          AADD #-7, SP
    3603                      .dwcfi  cfa_offset, 8
    3604              $C$DW$353       .dwtag  DW_TAG_variable, DW_AT_name("pxQueue")
    3605                      .dwattr $C$DW$353, DW_AT_TI_symbol_name("_pxQueue")
    3606                      .dwattr $C$DW$353, DW_AT_type(*$C$DW$T$57)
    3607                      .dwattr $C$DW$353, DW_AT_location[DW_OP_bregx 0x24 0]
    3608              $C$DW$354       .dwtag  DW_TAG_variable, DW_AT_name("pvItemToQueue")
    3609                      .dwattr $C$DW$354, DW_AT_TI_symbol_name("_pvItemToQueue")
    3610                      .dwattr $C$DW$354, DW_AT_type(*$C$DW$T$59)
    3611                      .dwattr $C$DW$354, DW_AT_location[DW_OP_bregx 0x24 2]
    3612              $C$DW$355       .dwtag  DW_TAG_variable, DW_AT_name("xPosition")
    3613                      .dwattr $C$DW$355, DW_AT_TI_symbol_name("_xPosition")
    3614                      .dwattr $C$DW$355, DW_AT_type(*$C$DW$T$93)
    3615                      .dwattr $C$DW$355, DW_AT_location[DW_OP_bregx 0x24 4]
    3616              $C$DW$356       .dwtag  DW_TAG_variable, DW_AT_name("xReturn")
    3617                      .dwattr $C$DW$356, DW_AT_TI_symbol_name("_xReturn")
    3618                      .dwattr $C$DW$356, DW_AT_type(*$C$DW$T$43)
    3619                      .dwattr $C$DW$356, DW_AT_location[DW_OP_bregx 0x24 5]
    3620              $C$DW$357       .dwtag  DW_TAG_variable, DW_AT_name("uxMessagesWaiting")
    3621                      .dwattr $C$DW$357, DW_AT_TI_symbol_name("_uxMessagesWaiting")
    3622                      .dwattr $C$DW$357, DW_AT_type(*$C$DW$T$26)
    3623                      .dwattr $C$DW$357, DW_AT_location[DW_OP_bregx 0x24 6]
    3624 0009f6 C408          MOV T0, *SP(#4) ; |2071| 
    3625 0009f8 EB04          MOV XAR1, dbl(*SP(#2))
         0009fa 95   
    3626 0009fb EB00          MOV XAR0, dbl(*SP(#0))
         0009fd 85   
    3627                      .dwpsn  file "../FreeRTOS/Source/queue.c",line 2072,column 12,is_stmt
    3628 0009fe E60A          MOV #0, *SP(#5) ; |2072| 
         000a00 00   
    3629                      .dwpsn  file "../FreeRTOS/Source/queue.c",line 2077,column 2,is_stmt
    3630 000a01 ED00          MOV dbl(*SP(#0)), XAR3
         000a03 BF   
    3631 000a04 A96D          MOV *AR3(#28), AR1 ; |2077| 
         000a06 001C 
    3632 000a08 C90C          MOV AR1, *SP(#6) ; |2077| 
    3633                      .dwpsn  file "../FreeRTOS/Source/queue.c",line 2079,column 2,is_stmt
    3634 000a0a ED00          MOV dbl(*SP(#0)), XAR3
         000a0c BF   
    3635 000a0d A96D          MOV *AR3(#30), AR1 ; |2079| 
         000a0f 001E 
    3636 000a11 6D09          BCC $C$L102,AR1 == #0 ; |2079| 
         000a13 00A2 
    3637                                                      ; branchcc occurs ; |2079| 
    3638                      .dwpsn  file "../FreeRTOS/Source/queue.c",line 2095,column 2,is_stmt
TMS320C55x Assembler PC v4.4.1 Sun Sep 09 04:48:36 2018

Tools Copyright (c) 1996-2012 Texas Instruments Incorporated
queue.asm                                                            PAGE   79

    3639                      .dwpsn  file "../FreeRTOS/Source/queue.c",line 2096,column 7,is_stmt
    3640 000a15 A908          MOV *SP(#4), AR1 ; |2096| 
    3641 000a17 0419          BCC $C$L100,AR1 != #0 ; |2096| 
         000a19 43   
    3642                                                      ; branchcc occurs ; |2096| 
    3643                      .dwpsn  file "../FreeRTOS/Source/queue.c",line 2098,column 3,is_stmt
    3644 000a1a ED75          MOV dbl(*AR3(short(#2))), XAR0
         000a1c 8F   
    3645 000a1d A46D          MOV *AR3(#30), T0 ; |2098| 
         000a1f 001E 
    3646 000a21 ED04          MOV dbl(*SP(#2)), XAR1
         000a23 9F   
    3647              $C$DW$358       .dwtag  DW_TAG_TI_branch
    3648                      .dwattr $C$DW$358, DW_AT_low_pc(0x00)
    3649                      .dwattr $C$DW$358, DW_AT_name("_memcpy")
    3650                      .dwattr $C$DW$358, DW_AT_TI_call
    3651 000a24 6C00          CALL #_memcpy ; |2098| 
         000a26 0000!
    3652                                                      ; call occurs [#_memcpy] ; |2098| 
    3653                      .dwpsn  file "../FreeRTOS/Source/queue.c",line 2099,column 3,is_stmt
    3654 000a28 ED00          MOV dbl(*SP(#0)), XAR3
         000a2a BF   
    3655 000a2b ED00          MOV dbl(*SP(#0)), XAR2
         000a2d AF   
    3656 000a2e A96D          MOV *AR3(#30), AR1 ; |2099| 
         000a30 001E 
    3657 000a32 ED55          MOV dbl(*AR2(short(#2))), XAR3
         000a34 BF   
    3658              
    3659 000a35 8E55          MOV XAR3, dbl(*AR2(short(#2)))
         000a37 BB10 
         000a39 B590 
    3660              ||      AADD AR1, AR3 ; |2099| 
    3661              
    3662                      .dwpsn  file "../FreeRTOS/Source/queue.c",line 2100,column 3,is_stmt
    3663 000a3b ED00          MOV dbl(*SP(#0)), XAR3
         000a3d BF   
    3664 000a3e ED79          MOV dbl(*AR3(short(#4))), XAR3
         000a40 BF   
    3665 000a41 90B0          MOV XAR3, AC0
    3666 000a43 ED00          MOV dbl(*SP(#0)), XAR3
         000a45 BF   
    3667 000a46 ED75          MOV dbl(*AR3(short(#2))), XAR3
         000a48 BF   
    3668 000a49 90B1          MOV XAR3, AC1
    3669 000a4b 1214          CMPU AC1 < AC0, TC1 ; |2100| 
         000a4d 04   
    3670 000a4e 0464          BCC $C$L102,TC1 ; |2100| 
         000a50 66   
    3671                                                      ; branchcc occurs ; |2100| 
    3672                      .dwpsn  file "../FreeRTOS/Source/queue.c",line 2102,column 4,is_stmt
    3673 000a51 ED00          MOV dbl(*SP(#0)), XAR3
         000a53 BF   
    3674 000a54 ED61          MOV dbl(*AR3), XAR2
         000a56 AF   
TMS320C55x Assembler PC v4.4.1 Sun Sep 09 04:48:36 2018

Tools Copyright (c) 1996-2012 Texas Instruments Incorporated
queue.asm                                                            PAGE   80

    3675 000a57 EB75          MOV XAR2, dbl(*AR3(short(#2)))
         000a59 A5   
    3676                      .dwpsn  file "../FreeRTOS/Source/queue.c",line 2103,column 3,is_stmt
    3677 000a5a 0600          B $C$L102 ; |2103| 
         000a5c 5A   
    3678                                                      ; branch occurs ; |2103| 
    3679 000a5d       $C$L100:    
    3680                      .dwpsn  file "../FreeRTOS/Source/queue.c",line 2111,column 3,is_stmt
    3681 000a5d ED7D          MOV dbl(*AR3(short(#6))), XAR0
         000a5f 8F   
    3682 000a60 A46D          MOV *AR3(#30), T0 ; |2111| 
         000a62 001E 
    3683 000a64 ED04          MOV dbl(*SP(#2)), XAR1
         000a66 9F   
    3684              $C$DW$359       .dwtag  DW_TAG_TI_branch
    3685                      .dwattr $C$DW$359, DW_AT_low_pc(0x00)
    3686                      .dwattr $C$DW$359, DW_AT_name("_memcpy")
    3687                      .dwattr $C$DW$359, DW_AT_TI_call
    3688 000a67 6C00          CALL #_memcpy ; |2111| 
         000a69 0000!
    3689                                                      ; call occurs [#_memcpy] ; |2111| 
    3690                      .dwpsn  file "../FreeRTOS/Source/queue.c",line 2112,column 3,is_stmt
    3691 000a6b ED00          MOV dbl(*SP(#0)), XAR3
         000a6d BF   
    3692 000a6e ED00          MOV dbl(*SP(#0)), XAR2
         000a70 AF   
    3693 000a71 A96D          MOV *AR3(#30), AR1 ; |2112| 
         000a73 001E 
    3694 000a75 ED5D          MOV dbl(*AR2(short(#6))), XAR3
         000a77 BF   
    3695              
    3696 000a78 8E5D          MOV XAR3, dbl(*AR2(short(#6)))
         000a7a BB12 
         000a7c B590 
    3697              ||      ASUB AR1, AR3 ; |2112| 
    3698              
    3699                      .dwpsn  file "../FreeRTOS/Source/queue.c",line 2113,column 3,is_stmt
    3700 000a7e ED00          MOV dbl(*SP(#0)), XAR3
         000a80 BF   
    3701 000a81 ED61          MOV dbl(*AR3), XAR3
         000a83 BF   
    3702 000a84 90B0          MOV XAR3, AC0
    3703 000a86 ED00          MOV dbl(*SP(#0)), XAR3
         000a88 BF   
    3704 000a89 ED7D          MOV dbl(*AR3(short(#6))), XAR3
         000a8b BF   
    3705 000a8c 90B1          MOV XAR3, AC1
    3706 000a8e 1218          CMPU AC1 >= AC0, TC1 ; |2113| 
         000a90 04   
    3707 000a91 0464          BCC $C$L101,TC1 ; |2113| 
         000a93 13   
    3708                                                      ; branchcc occurs ; |2113| 
    3709                      .dwpsn  file "../FreeRTOS/Source/queue.c",line 2115,column 4,is_stmt
    3710 000a94 ED00          MOV dbl(*SP(#0)), XAR3
         000a96 BF   
TMS320C55x Assembler PC v4.4.1 Sun Sep 09 04:48:36 2018

Tools Copyright (c) 1996-2012 Texas Instruments Incorporated
queue.asm                                                            PAGE   81

    3711 000a97 ED00          MOV dbl(*SP(#0)), XAR2
         000a99 AF   
    3712 000a9a A96D          MOV *AR3(#30), AR1 ; |2115| 
         000a9c 001E 
    3713 000a9e ED79          MOV dbl(*AR3(short(#4))), XAR3
         000aa0 BF   
    3714              
    3715 000aa1 8E5D          MOV XAR3, dbl(*AR2(short(#6)))
         000aa3 BB12 
         000aa5 B590 
    3716              ||      ASUB AR1, AR3 ; |2115| 
    3717              
    3718                      .dwpsn  file "../FreeRTOS/Source/queue.c",line 2116,column 3,is_stmt
    3719 000aa7       $C$L101:    
    3720                      .dwpsn  file "../FreeRTOS/Source/queue.c",line 2122,column 3,is_stmt
    3721 000aa7 F008          CMP *SP(#4) == #2, TC1 ; |2122| 
         000aa9 0002 
    3722 000aab 6574          BCC $C$L102,!TC1 ; |2122| 
    3723                                                      ; branchcc occurs ; |2122| 
    3724                      .dwpsn  file "../FreeRTOS/Source/queue.c",line 2124,column 4,is_stmt
    3725 000aad A90C          MOV *SP(#6), AR1 ; |2124| 
    3726 000aaf 6309          BCC $C$L102,AR1 == #0 ; |2124| 
    3727                                                      ; branchcc occurs ; |2124| 
    3728                      .dwpsn  file "../FreeRTOS/Source/queue.c",line 2130,column 5,is_stmt
    3729 000ab1 F70C          SUB #1, *SP(#6) ; |2130| 
         000ab3 FFFF 
    3730                      .dwpsn  file "../FreeRTOS/Source/queue.c",line 2131,column 4,is_stmt
    3731 000ab5 4A00          B $C$L102 ; |2131| 
    3732                                                      ; branch occurs ; |2131| 
    3733 000ab7       $C$L102:    
    3734                      .dwpsn  file "../FreeRTOS/Source/queue.c",line 2143,column 2,is_stmt
    3735 000ab7 ED00          MOV dbl(*SP(#0)), XAR3
         000ab9 BF   
    3736 000aba A90C          MOV *SP(#6), AR1 ; |2143| 
    3737 000abc 4019          ADD #1, AR1 ; |2143| 
    3738 000abe C96D          MOV AR1, *AR3(#28) ; |2143| 
         000ac0 001C 
    3739                      .dwpsn  file "../FreeRTOS/Source/queue.c",line 2145,column 2,is_stmt
    3740 000ac2 A40A          MOV *SP(#5), T0 ; |2145| 
    3741                      .dwpsn  file "../FreeRTOS/Source/queue.c",line 2146,column 1,is_stmt
    3742 000ac4 4E07          AADD #7, SP
    3743                      .dwcfi  cfa_offset, 1
    3744              $C$DW$360       .dwtag  DW_TAG_TI_branch
    3745                      .dwattr $C$DW$360, DW_AT_low_pc(0x00)
    3746                      .dwattr $C$DW$360, DW_AT_TI_return
    3747 000ac6 4804          RET
    3748                                                      ; return occurs
    3749                      .dwattr $C$DW$349, DW_AT_TI_end_file("../FreeRTOS/Source/queue.c")
    3750                      .dwattr $C$DW$349, DW_AT_TI_end_line(0x862)
    3751                      .dwattr $C$DW$349, DW_AT_TI_end_column(0x01)
    3752                      .dwendentry
    3753                      .dwendtag $C$DW$349
    3754              
    3755 000ac8               .sect   ".text"
    3756                      .align 4
TMS320C55x Assembler PC v4.4.1 Sun Sep 09 04:48:36 2018

Tools Copyright (c) 1996-2012 Texas Instruments Incorporated
queue.asm                                                            PAGE   82

    3757              
    3758              $C$DW$361       .dwtag  DW_TAG_subprogram, DW_AT_name("prvCopyDataFromQueue")
    3759                      .dwattr $C$DW$361, DW_AT_low_pc(_prvCopyDataFromQueue)
    3760                      .dwattr $C$DW$361, DW_AT_high_pc(0x00)
    3761                      .dwattr $C$DW$361, DW_AT_TI_symbol_name("_prvCopyDataFromQueue")
    3762                      .dwattr $C$DW$361, DW_AT_TI_begin_file("../FreeRTOS/Source/queue.c")
    3763                      .dwattr $C$DW$361, DW_AT_TI_begin_line(0x865)
    3764                      .dwattr $C$DW$361, DW_AT_TI_begin_column(0x0d)
    3765                      .dwattr $C$DW$361, DW_AT_TI_max_frame_size(0x06)
    3766                      .dwpsn  file "../FreeRTOS/Source/queue.c",line 2150,column 1,is_stmt,address _prvCopyDataFromQueue
    3767              
    3768                      .dwfde $C$DW$CIE, _prvCopyDataFromQueue
    3769              $C$DW$362       .dwtag  DW_TAG_formal_parameter, DW_AT_name("pxQueue")
    3770                      .dwattr $C$DW$362, DW_AT_TI_symbol_name("_pxQueue")
    3771                      .dwattr $C$DW$362, DW_AT_type(*$C$DW$T$57)
    3772                      .dwattr $C$DW$362, DW_AT_location[DW_OP_reg17]
    3773              $C$DW$363       .dwtag  DW_TAG_formal_parameter, DW_AT_name("pvBuffer")
    3774                      .dwattr $C$DW$363, DW_AT_TI_symbol_name("_pvBuffer")
    3775                      .dwattr $C$DW$363, DW_AT_type(*$C$DW$T$64)
    3776                      .dwattr $C$DW$363, DW_AT_location[DW_OP_reg19]
    3777              ;*******************************************************************************
    3778              ;* FUNCTION NAME: prvCopyDataFromQueue                                         *
    3779              ;*                                                                             *
    3780              ;*   Function Uses Regs : AC0,AC0,AC1,AC1,T0,AR0,XAR0,AR1,XAR1,AR2,XAR2,AR3,   *
    3781              ;*                        XAR3,SP,TC1,M40,SATA,SATD,RDM,FRCT,SMUL              *
    3782              ;*   Stack Frame        : Compact (No Frame Pointer, w/ debug)                 *
    3783              ;*   Total Frame Size   : 6 words                                              *
    3784              ;*                        (2 return address/alignment)                         *
    3785              ;*                        (4 local values)                                     *
    3786              ;*   Min System Stack   : 1 word                                               *
    3787              ;*******************************************************************************
    3788 000ac8       _prvCopyDataFromQueue:
    3789                      .dwcfi  cfa_offset, 1
    3790                      .dwcfi  save_reg_to_mem, 91, -1
    3791 000ac8 4EFB          AADD #-5, SP
    3792                      .dwcfi  cfa_offset, 6
    3793              $C$DW$364       .dwtag  DW_TAG_variable, DW_AT_name("pxQueue")
    3794                      .dwattr $C$DW$364, DW_AT_TI_symbol_name("_pxQueue")
    3795                      .dwattr $C$DW$364, DW_AT_type(*$C$DW$T$57)
    3796                      .dwattr $C$DW$364, DW_AT_location[DW_OP_bregx 0x24 0]
    3797              $C$DW$365       .dwtag  DW_TAG_variable, DW_AT_name("pvBuffer")
    3798                      .dwattr $C$DW$365, DW_AT_TI_symbol_name("_pvBuffer")
    3799                      .dwattr $C$DW$365, DW_AT_type(*$C$DW$T$64)
    3800                      .dwattr $C$DW$365, DW_AT_location[DW_OP_bregx 0x24 2]
    3801 000aca EB04          MOV XAR1, dbl(*SP(#2))
         000acc 95   
    3802 000acd EB00          MOV XAR0, dbl(*SP(#0))
         000acf 85   
    3803                      .dwpsn  file "../FreeRTOS/Source/queue.c",line 2151,column 2,is_stmt
    3804 000ad0 ED00          MOV dbl(*SP(#0)), XAR3
         000ad2 BF   
    3805 000ad3 A96D          MOV *AR3(#30), AR1 ; |2151| 
         000ad5 001E 
    3806 000ad7 0409          BCC $C$L104,AR1 == #0 ; |2151| 
         000ad9 3F   
TMS320C55x Assembler PC v4.4.1 Sun Sep 09 04:48:36 2018

Tools Copyright (c) 1996-2012 Texas Instruments Incorporated
queue.asm                                                            PAGE   83

    3807                                                      ; branchcc occurs ; |2151| 
    3808                      .dwpsn  file "../FreeRTOS/Source/queue.c",line 2153,column 3,is_stmt
    3809 000ada ED00          MOV dbl(*SP(#0)), XAR2
         000adc AF   
    3810 000add A96D          MOV *AR3(#30), AR1 ; |2153| 
         000adf 001E 
    3811 000ae1 ED5D          MOV dbl(*AR2(short(#6))), XAR3
         000ae3 BF   
    3812              
    3813 000ae4 8E5D          MOV XAR3, dbl(*AR2(short(#6)))
         000ae6 BB10 
         000ae8 B590 
    3814              ||      AADD AR1, AR3 ; |2153| 
    3815              
    3816                      .dwpsn  file "../FreeRTOS/Source/queue.c",line 2154,column 3,is_stmt
    3817 000aea ED00          MOV dbl(*SP(#0)), XAR3
         000aec BF   
    3818 000aed ED79          MOV dbl(*AR3(short(#4))), XAR3
         000aef BF   
    3819 000af0 90B0          MOV XAR3, AC0
    3820 000af2 ED00          MOV dbl(*SP(#0)), XAR3
         000af4 BF   
    3821 000af5 ED7D          MOV dbl(*AR3(short(#6))), XAR3
         000af7 BF   
    3822 000af8 90B1          MOV XAR3, AC1
    3823 000afa 1214          CMPU AC1 < AC0, TC1 ; |2154| 
         000afc 04   
    3824 000afd 64E4          BCC $C$L103,TC1 ; |2154| 
    3825                                                      ; branchcc occurs ; |2154| 
    3826                      .dwpsn  file "../FreeRTOS/Source/queue.c",line 2156,column 4,is_stmt
    3827 000aff ED00          MOV dbl(*SP(#0)), XAR3
         000b01 BF   
    3828 000b02 ED61          MOV dbl(*AR3), XAR2
         000b04 AF   
    3829 000b05 EB7D          MOV XAR2, dbl(*AR3(short(#6)))
         000b07 A5   
    3830                      .dwpsn  file "../FreeRTOS/Source/queue.c",line 2157,column 3,is_stmt
    3831 000b08       $C$L103:    
    3832                      .dwpsn  file "../FreeRTOS/Source/queue.c",line 2162,column 3,is_stmt
    3833 000b08 ED00          MOV dbl(*SP(#0)), XAR3
         000b0a BF   
    3834 000b0b ED04          MOV dbl(*SP(#2)), XAR0
         000b0d 8F   
    3835 000b0e ED7D          MOV dbl(*AR3(short(#6))), XAR1
         000b10 9F   
    3836 000b11 A46D          MOV *AR3(#30), T0 ; |2162| 
         000b13 001E 
    3837              $C$DW$366       .dwtag  DW_TAG_TI_branch
    3838                      .dwattr $C$DW$366, DW_AT_low_pc(0x00)
    3839                      .dwattr $C$DW$366, DW_AT_name("_memcpy")
    3840                      .dwattr $C$DW$366, DW_AT_TI_call
    3841 000b15 6C00          CALL #_memcpy ; |2162| 
         000b17 0000!
    3842                                                      ; call occurs [#_memcpy] ; |2162| 
    3843                      .dwpsn  file "../FreeRTOS/Source/queue.c",line 2164,column 1,is_stmt
TMS320C55x Assembler PC v4.4.1 Sun Sep 09 04:48:36 2018

Tools Copyright (c) 1996-2012 Texas Instruments Incorporated
queue.asm                                                            PAGE   84

    3844 000b19       $C$L104:    
    3845 000b19 4E05          AADD #5, SP
    3846                      .dwcfi  cfa_offset, 1
    3847              $C$DW$367       .dwtag  DW_TAG_TI_branch
    3848                      .dwattr $C$DW$367, DW_AT_low_pc(0x00)
    3849                      .dwattr $C$DW$367, DW_AT_TI_return
    3850 000b1b 4804          RET
    3851                                                      ; return occurs
    3852                      .dwattr $C$DW$361, DW_AT_TI_end_file("../FreeRTOS/Source/queue.c")
    3853                      .dwattr $C$DW$361, DW_AT_TI_end_line(0x874)
    3854                      .dwattr $C$DW$361, DW_AT_TI_end_column(0x01)
    3855                      .dwendentry
    3856                      .dwendtag $C$DW$361
    3857              
    3858 000b1d               .sect   ".text"
    3859                      .align 4
    3860              
    3861              $C$DW$368       .dwtag  DW_TAG_subprogram, DW_AT_name("prvUnlockQueue")
    3862                      .dwattr $C$DW$368, DW_AT_low_pc(_prvUnlockQueue)
    3863                      .dwattr $C$DW$368, DW_AT_high_pc(0x00)
    3864                      .dwattr $C$DW$368, DW_AT_TI_symbol_name("_prvUnlockQueue")
    3865                      .dwattr $C$DW$368, DW_AT_TI_begin_file("../FreeRTOS/Source/queue.c")
    3866                      .dwattr $C$DW$368, DW_AT_TI_begin_line(0x877)
    3867                      .dwattr $C$DW$368, DW_AT_TI_begin_column(0x0d)
    3868                      .dwattr $C$DW$368, DW_AT_TI_max_frame_size(0x04)
    3869                      .dwpsn  file "../FreeRTOS/Source/queue.c",line 2168,column 1,is_stmt,address _prvUnlockQueue
    3870              
    3871                      .dwfde $C$DW$CIE, _prvUnlockQueue
    3872              $C$DW$369       .dwtag  DW_TAG_formal_parameter, DW_AT_name("pxQueue")
    3873                      .dwattr $C$DW$369, DW_AT_TI_symbol_name("_pxQueue")
    3874                      .dwattr $C$DW$369, DW_AT_type(*$C$DW$T$57)
    3875                      .dwattr $C$DW$369, DW_AT_location[DW_OP_reg17]
    3876              ;*******************************************************************************
    3877              ;* FUNCTION NAME: prvUnlockQueue                                               *
    3878              ;*                                                                             *
    3879              ;*   Function Uses Regs : T0,AR0,XAR0,AR1,AR3,XAR3,SP,CARRY,M40,SATA,SATD,RDM, *
    3880              ;*                        FRCT,SMUL                                            *
    3881              ;*   Stack Frame        : Compact (No Frame Pointer, w/ debug)                 *
    3882              ;*   Total Frame Size   : 4 words                                              *
    3883              ;*                        (1 return address/alignment)                         *
    3884              ;*                        (3 local values)                                     *
    3885              ;*   Min System Stack   : 1 word                                               *
    3886              ;*******************************************************************************
    3887 000b20       _prvUnlockQueue:
    3888                      .dwcfi  cfa_offset, 1
    3889                      .dwcfi  save_reg_to_mem, 91, -1
    3890 000b20 4EFD          AADD #-3, SP
    3891                      .dwcfi  cfa_offset, 4
    3892              $C$DW$370       .dwtag  DW_TAG_variable, DW_AT_name("pxQueue")
    3893                      .dwattr $C$DW$370, DW_AT_TI_symbol_name("_pxQueue")
    3894                      .dwattr $C$DW$370, DW_AT_type(*$C$DW$T$57)
    3895                      .dwattr $C$DW$370, DW_AT_location[DW_OP_bregx 0x24 0]
    3896 000b22 EB00          MOV XAR0, dbl(*SP(#0))
         000b24 85   
    3897                      .dwpsn  file "../FreeRTOS/Source/queue.c",line 2175,column 2,is_stmt
TMS320C55x Assembler PC v4.4.1 Sun Sep 09 04:48:36 2018

Tools Copyright (c) 1996-2012 Texas Instruments Incorporated
queue.asm                                                            PAGE   85

    3898 000b25 20     nop
    3899 000b26 46B3   bset INTM
    3900 000b28 F731          ADD #1, *(#_usCriticalNesting) ; |2175| 
         000b2a 0001 
         000b2c 0000 
         000b2e 00!  
    3901 000b2f 20            NOP
    3902 000b30 20            NOP
    3903              
    3904              $C$DW$371       .dwtag  DW_TAG_lexical_block, DW_AT_low_pc(0x00), DW_AT_high_pc(0x00)
    3905              $C$DW$372       .dwtag  DW_TAG_variable, DW_AT_name("cTxLock")
    3906                      .dwattr $C$DW$372, DW_AT_TI_symbol_name("_cTxLock")
    3907                      .dwattr $C$DW$372, DW_AT_type(*$C$DW$T$23)
    3908                      .dwattr $C$DW$372, DW_AT_location[DW_OP_bregx 0x24 2]
    3909                      .dwpsn  file "../FreeRTOS/Source/queue.c",line 2177,column 10,is_stmt
    3910 000b31 ED00          MOV dbl(*SP(#0)), XAR3
         000b33 BF   
    3911 000b34 A96D          MOV *AR3(#32), AR1 ; |2177| 
         000b36 0020 
    3912 000b38 C904          MOV AR1, *SP(#2) ; |2177| 
    3913                      .dwpsn  file "../FreeRTOS/Source/queue.c",line 2180,column 10,is_stmt
    3914 000b3a 0439          BCC $C$L109,AR1 <= #0 ; |2180| 
         000b3c 2D   
    3915                                                      ; branchcc occurs ; |2180| 
    3916 000b3d       $C$L105:    
    3917 000b3d       $C$DW$L$_prvUnlockQueue$2$B:
    3918                      .dwpsn  file "../FreeRTOS/Source/queue.c",line 2228,column 5,is_stmt
    3919 000b3d ED00          MOV dbl(*SP(#0)), XAR3
         000b3f BF   
    3920 000b40 A96D          MOV *AR3(#18), AR1 ; |2228| 
         000b42 0012 
    3921 000b44 6219          BCC $C$L106,AR1 != #0 ; |2228| 
    3922                                                      ; branchcc occurs ; |2228| 
    3923 000b46       $C$DW$L$_prvUnlockQueue$2$E:
    3924 000b46       $C$DW$L$_prvUnlockQueue$3$B:
    3925 000b46 3C19          MOV #1, AR1
    3926 000b48 4A02          B $C$L107 ; |2228| 
    3927                                                      ; branch occurs ; |2228| 
    3928 000b4a       $C$DW$L$_prvUnlockQueue$3$E:
    3929 000b4a       $C$L106:    
    3930 000b4a       $C$DW$L$_prvUnlockQueue$4$B:
    3931 000b4a 3C09          MOV #0, AR1
    3932 000b4c       $C$DW$L$_prvUnlockQueue$4$E:
    3933 000b4c       $C$L107:    
    3934 000b4c       $C$DW$L$_prvUnlockQueue$5$B:
    3935 000b4c 0419          BCC $C$L109,AR1 != #0 ; |2228| 
         000b4e 1B   
    3936                                                      ; branchcc occurs ; |2228| 
    3937 000b4f       $C$DW$L$_prvUnlockQueue$5$E:
    3938 000b4f       $C$DW$L$_prvUnlockQueue$6$B:
    3939                      .dwpsn  file "../FreeRTOS/Source/queue.c",line 2230,column 6,is_stmt
    3940 000b4f ED00          MOV dbl(*SP(#0)), XAR0
         000b51 8F   
    3941 000b52 1412          AADD #18, AR0 ; |2230| 
         000b54 84   
TMS320C55x Assembler PC v4.4.1 Sun Sep 09 04:48:36 2018

Tools Copyright (c) 1996-2012 Texas Instruments Incorporated
queue.asm                                                            PAGE   86

    3942              $C$DW$373       .dwtag  DW_TAG_TI_branch
    3943                      .dwattr $C$DW$373, DW_AT_low_pc(0x00)
    3944                      .dwattr $C$DW$373, DW_AT_name("_xTaskRemoveFromEventList")
    3945                      .dwattr $C$DW$373, DW_AT_TI_call
    3946 000b55 6C00          CALL #_xTaskRemoveFromEventList ; |2230| 
         000b57 0000!
    3947                                                      ; call occurs [#_xTaskRemoveFromEventList] ; |2230| 
    3948 000b59 6304          BCC $C$L108,T0 == #0 ; |2230| 
    3949                                                      ; branchcc occurs ; |2230| 
    3950 000b5b       $C$DW$L$_prvUnlockQueue$6$E:
    3951 000b5b       $C$DW$L$_prvUnlockQueue$7$B:
    3952                      .dwpsn  file "../FreeRTOS/Source/queue.c",line 2234,column 7,is_stmt
    3953              $C$DW$374       .dwtag  DW_TAG_TI_branch
    3954                      .dwattr $C$DW$374, DW_AT_low_pc(0x00)
    3955                      .dwattr $C$DW$374, DW_AT_name("_vTaskMissedYield")
    3956                      .dwattr $C$DW$374, DW_AT_TI_call
    3957 000b5b 6C00          CALL #_vTaskMissedYield ; |2234| 
         000b5d 0000!
    3958                                                      ; call occurs [#_vTaskMissedYield] ; |2234| 
    3959                      .dwpsn  file "../FreeRTOS/Source/queue.c",line 2235,column 6,is_stmt
    3960 000b5f 4A00          B $C$L108 ; |2235| 
    3961                                                      ; branch occurs ; |2235| 
    3962 000b61       $C$DW$L$_prvUnlockQueue$7$E:
    3963 000b61       $C$L108:    
    3964 000b61       $C$DW$L$_prvUnlockQueue$9$B:
    3965                      .dwpsn  file "../FreeRTOS/Source/queue.c",line 2248,column 4,is_stmt
    3966 000b61 F704          SUB #1, *SP(#2) ; |2248| 
         000b63 FFFF 
    3967                      .dwpsn  file "../FreeRTOS/Source/queue.c",line 2180,column 10,is_stmt
    3968 000b65 A904          MOV *SP(#2), AR1 ; |2180| 
    3969 000b67 0449          BCC $C$L105,AR1 > #0 ; |2180| 
         000b69 D3   
    3970                                                      ; branchcc occurs ; |2180| 
    3971 000b6a       $C$DW$L$_prvUnlockQueue$9$E:
    3972 000b6a       $C$L109:    
    3973                      .dwpsn  file "../FreeRTOS/Source/queue.c",line 2251,column 3,is_stmt
    3974 000b6a ED00          MOV dbl(*SP(#0)), XAR3
         000b6c BF   
    3975 000b6d E66D          MOV #-1, *AR3(#32) ; |2251| 
         000b6f FF00 
         000b71 20   
    3976 000b72 20            NOP
    3977 000b73 20            NOP
    3978 000b74 20            NOP
    3979                      .dwendtag $C$DW$371
    3980              
    3981                      .dwpsn  file "../FreeRTOS/Source/queue.c",line 2253,column 2,is_stmt
    3982 000b75 A931          MOV *(#_usCriticalNesting), AR1 ; |2253| 
         000b77 0000 
         000b79 00!  
    3983 000b7a 0409          BCC $C$L110,AR1 == #0 ; |2253| 
         000b7c 14   
    3984                                                      ; branchcc occurs ; |2253| 
    3985 000b7d F731          SUB #1, *(#_usCriticalNesting) ; |2253| 
         000b7f FFFF 
TMS320C55x Assembler PC v4.4.1 Sun Sep 09 04:48:36 2018

Tools Copyright (c) 1996-2012 Texas Instruments Incorporated
queue.asm                                                            PAGE   87

         000b81 0000 
         000b83 00!  
    3986 000b84 20            NOP
    3987 000b85 20            NOP
    3988 000b86 20            NOP
    3989 000b87 A931          MOV *(#_usCriticalNesting), AR1 ; |2253| 
         000b89 0000 
         000b8b 00!  
    3990 000b8c 6199          BCC $C$L110,AR1 != #0 ; |2253| 
    3991                                                      ; branchcc occurs ; |2253| 
    3992 000b8e 20     nop
    3993 000b8f 46B2   bclr INTM
    3994 000b91       $C$L110:    
    3995                      .dwpsn  file "../FreeRTOS/Source/queue.c",line 2256,column 2,is_stmt
    3996 000b91 20     nop
    3997 000b92 46B3   bset INTM
    3998 000b94 F731          ADD #1, *(#_usCriticalNesting) ; |2256| 
         000b96 0001 
         000b98 0000 
         000b9a 00!  
    3999 000b9b 20            NOP
    4000 000b9c 20            NOP
    4001              
    4002              $C$DW$375       .dwtag  DW_TAG_lexical_block, DW_AT_low_pc(0x00), DW_AT_high_pc(0x00)
    4003              $C$DW$376       .dwtag  DW_TAG_variable, DW_AT_name("cRxLock")
    4004                      .dwattr $C$DW$376, DW_AT_TI_symbol_name("_cRxLock")
    4005                      .dwattr $C$DW$376, DW_AT_type(*$C$DW$T$23)
    4006                      .dwattr $C$DW$376, DW_AT_location[DW_OP_bregx 0x24 2]
    4007                      .dwpsn  file "../FreeRTOS/Source/queue.c",line 2258,column 10,is_stmt
    4008 000b9d ED00          MOV dbl(*SP(#0)), XAR3
         000b9f BF   
    4009 000ba0 A96D          MOV *AR3(#31), AR1 ; |2258| 
         000ba2 001F 
    4010 000ba4 C904          MOV AR1, *SP(#2) ; |2258| 
    4011                      .dwpsn  file "../FreeRTOS/Source/queue.c",line 2260,column 10,is_stmt
    4012 000ba6 0439          BCC $C$L116,AR1 <= #0 ; |2260| 
         000ba8 2D   
    4013                                                      ; branchcc occurs ; |2260| 
    4014 000ba9       $C$L111:    
    4015 000ba9       $C$DW$L$_prvUnlockQueue$14$B:
    4016                      .dwpsn  file "../FreeRTOS/Source/queue.c",line 2262,column 4,is_stmt
    4017 000ba9 ED00          MOV dbl(*SP(#0)), XAR3
         000bab BF   
    4018 000bac A96D          MOV *AR3(#8), AR1 ; |2262| 
         000bae 0008 
    4019 000bb0 6219          BCC $C$L112,AR1 != #0 ; |2262| 
    4020                                                      ; branchcc occurs ; |2262| 
    4021 000bb2       $C$DW$L$_prvUnlockQueue$14$E:
    4022 000bb2       $C$DW$L$_prvUnlockQueue$15$B:
    4023 000bb2 3C19          MOV #1, AR1
    4024 000bb4 4A02          B $C$L113 ; |2262| 
    4025                                                      ; branch occurs ; |2262| 
    4026 000bb6       $C$DW$L$_prvUnlockQueue$15$E:
    4027 000bb6       $C$L112:    
    4028 000bb6       $C$DW$L$_prvUnlockQueue$16$B:
TMS320C55x Assembler PC v4.4.1 Sun Sep 09 04:48:36 2018

Tools Copyright (c) 1996-2012 Texas Instruments Incorporated
queue.asm                                                            PAGE   88

    4029 000bb6 3C09          MOV #0, AR1
    4030 000bb8       $C$DW$L$_prvUnlockQueue$16$E:
    4031 000bb8       $C$L113:    
    4032 000bb8       $C$DW$L$_prvUnlockQueue$17$B:
    4033 000bb8 0419          BCC $C$L116,AR1 != #0 ; |2262| 
         000bba 1B   
    4034                                                      ; branchcc occurs ; |2262| 
    4035 000bbb       $C$DW$L$_prvUnlockQueue$17$E:
    4036 000bbb       $C$DW$L$_prvUnlockQueue$18$B:
    4037                      .dwpsn  file "../FreeRTOS/Source/queue.c",line 2264,column 5,is_stmt
    4038 000bbb ED00          MOV dbl(*SP(#0)), XAR0
         000bbd 8F   
    4039 000bbe 1408          AADD #8, AR0 ; |2264| 
         000bc0 84   
    4040              $C$DW$377       .dwtag  DW_TAG_TI_branch
    4041                      .dwattr $C$DW$377, DW_AT_low_pc(0x00)
    4042                      .dwattr $C$DW$377, DW_AT_name("_xTaskRemoveFromEventList")
    4043                      .dwattr $C$DW$377, DW_AT_TI_call
    4044 000bc1 6C00          CALL #_xTaskRemoveFromEventList ; |2264| 
         000bc3 0000!
    4045                                                      ; call occurs [#_xTaskRemoveFromEventList] ; |2264| 
    4046 000bc5 6204          BCC $C$L114,T0 == #0 ; |2264| 
    4047                                                      ; branchcc occurs ; |2264| 
    4048 000bc7       $C$DW$L$_prvUnlockQueue$18$E:
    4049 000bc7       $C$DW$L$_prvUnlockQueue$19$B:
    4050                      .dwpsn  file "../FreeRTOS/Source/queue.c",line 2266,column 6,is_stmt
    4051              $C$DW$378       .dwtag  DW_TAG_TI_branch
    4052                      .dwattr $C$DW$378, DW_AT_low_pc(0x00)
    4053                      .dwattr $C$DW$378, DW_AT_name("_vTaskMissedYield")
    4054                      .dwattr $C$DW$378, DW_AT_TI_call
    4055 000bc7 6C00          CALL #_vTaskMissedYield ; |2266| 
         000bc9 0000!
    4056                                                      ; call occurs [#_vTaskMissedYield] ; |2266| 
    4057                      .dwpsn  file "../FreeRTOS/Source/queue.c",line 2267,column 5,is_stmt
    4058 000bcb       $C$DW$L$_prvUnlockQueue$19$E:
    4059 000bcb       $C$L114:    
    4060 000bcb       $C$DW$L$_prvUnlockQueue$20$B:
    4061                      .dwpsn  file "../FreeRTOS/Source/queue.c",line 2273,column 5,is_stmt
    4062 000bcb F704          SUB #1, *SP(#2) ; |2273| 
         000bcd FFFF 
    4063                      .dwpsn  file "../FreeRTOS/Source/queue.c",line 2274,column 4,is_stmt
    4064 000bcf 4A00          B $C$L115 ; |2274| 
    4065                                                      ; branch occurs ; |2274| 
    4066 000bd1       $C$DW$L$_prvUnlockQueue$20$E:
    4067 000bd1       $C$L115:    
    4068 000bd1       $C$DW$L$_prvUnlockQueue$22$B:
    4069                      .dwpsn  file "../FreeRTOS/Source/queue.c",line 2260,column 10,is_stmt
    4070 000bd1 A904          MOV *SP(#2), AR1 ; |2260| 
    4071 000bd3 0449          BCC $C$L111,AR1 > #0 ; |2260| 
         000bd5 D3   
    4072                                                      ; branchcc occurs ; |2260| 
    4073 000bd6       $C$DW$L$_prvUnlockQueue$22$E:
    4074 000bd6       $C$L116:    
    4075                      .dwpsn  file "../FreeRTOS/Source/queue.c",line 2281,column 3,is_stmt
    4076 000bd6 ED00          MOV dbl(*SP(#0)), XAR3
TMS320C55x Assembler PC v4.4.1 Sun Sep 09 04:48:36 2018

Tools Copyright (c) 1996-2012 Texas Instruments Incorporated
queue.asm                                                            PAGE   89

         000bd8 BF   
    4077 000bd9 E66D          MOV #-1, *AR3(#31) ; |2281| 
         000bdb FF00 
         000bdd 1F   
    4078 000bde 20            NOP
    4079 000bdf 20            NOP
    4080 000be0 20            NOP
    4081                      .dwendtag $C$DW$375
    4082              
    4083                      .dwpsn  file "../FreeRTOS/Source/queue.c",line 2283,column 2,is_stmt
    4084 000be1 A931          MOV *(#_usCriticalNesting), AR1 ; |2283| 
         000be3 0000 
         000be5 00!  
    4085 000be6 0409          BCC $C$L117,AR1 == #0 ; |2283| 
         000be8 14   
    4086                                                      ; branchcc occurs ; |2283| 
    4087 000be9 F731          SUB #1, *(#_usCriticalNesting) ; |2283| 
         000beb FFFF 
         000bed 0000 
         000bef 00!  
    4088 000bf0 20            NOP
    4089 000bf1 20            NOP
    4090 000bf2 20            NOP
    4091 000bf3 A931          MOV *(#_usCriticalNesting), AR1 ; |2283| 
         000bf5 0000 
         000bf7 00!  
    4092 000bf8 6199          BCC $C$L117,AR1 != #0 ; |2283| 
    4093                                                      ; branchcc occurs ; |2283| 
    4094 000bfa 20     nop
    4095 000bfb 46B2   bclr INTM
    4096                      .dwpsn  file "../FreeRTOS/Source/queue.c",line 2284,column 1,is_stmt
    4097 000bfd       $C$L117:    
    4098 000bfd 4E03          AADD #3, SP
    4099                      .dwcfi  cfa_offset, 1
    4100              $C$DW$379       .dwtag  DW_TAG_TI_branch
    4101                      .dwattr $C$DW$379, DW_AT_low_pc(0x00)
    4102                      .dwattr $C$DW$379, DW_AT_TI_return
    4103 000bff 4804          RET
    4104                                                      ; return occurs
    4105              
    4106              $C$DW$380       .dwtag  DW_TAG_TI_loop
    4107                      .dwattr $C$DW$380, DW_AT_name("F:\eZdsp_DBG\eZDSP_5535_Files\ccsws2\test\Debug\queue.asm:$C$L111:1:15
    4108                      .dwattr $C$DW$380, DW_AT_TI_begin_file("../FreeRTOS/Source/queue.c")
    4109                      .dwattr $C$DW$380, DW_AT_TI_begin_line(0x8d4)
    4110                      .dwattr $C$DW$380, DW_AT_TI_end_line(0x8e7)
    4111              $C$DW$381       .dwtag  DW_TAG_TI_loop_range
    4112                      .dwattr $C$DW$381, DW_AT_low_pc($C$DW$L$_prvUnlockQueue$14$B)
    4113                      .dwattr $C$DW$381, DW_AT_high_pc($C$DW$L$_prvUnlockQueue$14$E)
    4114              $C$DW$382       .dwtag  DW_TAG_TI_loop_range
    4115                      .dwattr $C$DW$382, DW_AT_low_pc($C$DW$L$_prvUnlockQueue$15$B)
    4116                      .dwattr $C$DW$382, DW_AT_high_pc($C$DW$L$_prvUnlockQueue$15$E)
    4117              $C$DW$383       .dwtag  DW_TAG_TI_loop_range
    4118                      .dwattr $C$DW$383, DW_AT_low_pc($C$DW$L$_prvUnlockQueue$16$B)
    4119                      .dwattr $C$DW$383, DW_AT_high_pc($C$DW$L$_prvUnlockQueue$16$E)
    4120              $C$DW$384       .dwtag  DW_TAG_TI_loop_range
TMS320C55x Assembler PC v4.4.1 Sun Sep 09 04:48:36 2018

Tools Copyright (c) 1996-2012 Texas Instruments Incorporated
queue.asm                                                            PAGE   90

    4121                      .dwattr $C$DW$384, DW_AT_low_pc($C$DW$L$_prvUnlockQueue$17$B)
    4122                      .dwattr $C$DW$384, DW_AT_high_pc($C$DW$L$_prvUnlockQueue$17$E)
    4123              $C$DW$385       .dwtag  DW_TAG_TI_loop_range
    4124                      .dwattr $C$DW$385, DW_AT_low_pc($C$DW$L$_prvUnlockQueue$18$B)
    4125                      .dwattr $C$DW$385, DW_AT_high_pc($C$DW$L$_prvUnlockQueue$18$E)
    4126              $C$DW$386       .dwtag  DW_TAG_TI_loop_range
    4127                      .dwattr $C$DW$386, DW_AT_low_pc($C$DW$L$_prvUnlockQueue$19$B)
    4128                      .dwattr $C$DW$386, DW_AT_high_pc($C$DW$L$_prvUnlockQueue$19$E)
    4129              $C$DW$387       .dwtag  DW_TAG_TI_loop_range
    4130                      .dwattr $C$DW$387, DW_AT_low_pc($C$DW$L$_prvUnlockQueue$20$B)
    4131                      .dwattr $C$DW$387, DW_AT_high_pc($C$DW$L$_prvUnlockQueue$20$E)
    4132              $C$DW$388       .dwtag  DW_TAG_TI_loop_range
    4133                      .dwattr $C$DW$388, DW_AT_low_pc($C$DW$L$_prvUnlockQueue$22$B)
    4134                      .dwattr $C$DW$388, DW_AT_high_pc($C$DW$L$_prvUnlockQueue$22$E)
    4135                      .dwendtag $C$DW$380
    4136              
    4137              
    4138              $C$DW$389       .dwtag  DW_TAG_TI_loop
    4139                      .dwattr $C$DW$389, DW_AT_name("F:\eZdsp_DBG\eZDSP_5535_Files\ccsws2\test\Debug\queue.asm:$C$L105:1:15
    4140                      .dwattr $C$DW$389, DW_AT_TI_begin_file("../FreeRTOS/Source/queue.c")
    4141                      .dwattr $C$DW$389, DW_AT_TI_begin_line(0x884)
    4142                      .dwattr $C$DW$389, DW_AT_TI_end_line(0x8c9)
    4143              $C$DW$390       .dwtag  DW_TAG_TI_loop_range
    4144                      .dwattr $C$DW$390, DW_AT_low_pc($C$DW$L$_prvUnlockQueue$2$B)
    4145                      .dwattr $C$DW$390, DW_AT_high_pc($C$DW$L$_prvUnlockQueue$2$E)
    4146              $C$DW$391       .dwtag  DW_TAG_TI_loop_range
    4147                      .dwattr $C$DW$391, DW_AT_low_pc($C$DW$L$_prvUnlockQueue$3$B)
    4148                      .dwattr $C$DW$391, DW_AT_high_pc($C$DW$L$_prvUnlockQueue$3$E)
    4149              $C$DW$392       .dwtag  DW_TAG_TI_loop_range
    4150                      .dwattr $C$DW$392, DW_AT_low_pc($C$DW$L$_prvUnlockQueue$4$B)
    4151                      .dwattr $C$DW$392, DW_AT_high_pc($C$DW$L$_prvUnlockQueue$4$E)
    4152              $C$DW$393       .dwtag  DW_TAG_TI_loop_range
    4153                      .dwattr $C$DW$393, DW_AT_low_pc($C$DW$L$_prvUnlockQueue$5$B)
    4154                      .dwattr $C$DW$393, DW_AT_high_pc($C$DW$L$_prvUnlockQueue$5$E)
    4155              $C$DW$394       .dwtag  DW_TAG_TI_loop_range
    4156                      .dwattr $C$DW$394, DW_AT_low_pc($C$DW$L$_prvUnlockQueue$6$B)
    4157                      .dwattr $C$DW$394, DW_AT_high_pc($C$DW$L$_prvUnlockQueue$6$E)
    4158              $C$DW$395       .dwtag  DW_TAG_TI_loop_range
    4159                      .dwattr $C$DW$395, DW_AT_low_pc($C$DW$L$_prvUnlockQueue$7$B)
    4160                      .dwattr $C$DW$395, DW_AT_high_pc($C$DW$L$_prvUnlockQueue$7$E)
    4161              $C$DW$396       .dwtag  DW_TAG_TI_loop_range
    4162                      .dwattr $C$DW$396, DW_AT_low_pc($C$DW$L$_prvUnlockQueue$9$B)
    4163                      .dwattr $C$DW$396, DW_AT_high_pc($C$DW$L$_prvUnlockQueue$9$E)
    4164                      .dwendtag $C$DW$389
    4165              
    4166                      .dwattr $C$DW$368, DW_AT_TI_end_file("../FreeRTOS/Source/queue.c")
    4167                      .dwattr $C$DW$368, DW_AT_TI_end_line(0x8ec)
    4168                      .dwattr $C$DW$368, DW_AT_TI_end_column(0x01)
    4169                      .dwendentry
    4170                      .dwendtag $C$DW$368
    4171              
    4172 000c01               .sect   ".text"
    4173                      .align 4
    4174              
    4175              $C$DW$397       .dwtag  DW_TAG_subprogram, DW_AT_name("prvIsQueueEmpty")
TMS320C55x Assembler PC v4.4.1 Sun Sep 09 04:48:36 2018

Tools Copyright (c) 1996-2012 Texas Instruments Incorporated
queue.asm                                                            PAGE   91

    4176                      .dwattr $C$DW$397, DW_AT_low_pc(_prvIsQueueEmpty)
    4177                      .dwattr $C$DW$397, DW_AT_high_pc(0x00)
    4178                      .dwattr $C$DW$397, DW_AT_TI_symbol_name("_prvIsQueueEmpty")
    4179                      .dwattr $C$DW$397, DW_AT_type(*$C$DW$T$43)
    4180                      .dwattr $C$DW$397, DW_AT_TI_begin_file("../FreeRTOS/Source/queue.c")
    4181                      .dwattr $C$DW$397, DW_AT_TI_begin_line(0x8ef)
    4182                      .dwattr $C$DW$397, DW_AT_TI_begin_column(0x13)
    4183                      .dwattr $C$DW$397, DW_AT_TI_max_frame_size(0x04)
    4184                      .dwpsn  file "../FreeRTOS/Source/queue.c",line 2288,column 1,is_stmt,address _prvIsQueueEmpty
    4185              
    4186                      .dwfde $C$DW$CIE, _prvIsQueueEmpty
    4187              $C$DW$398       .dwtag  DW_TAG_formal_parameter, DW_AT_name("pxQueue")
    4188                      .dwattr $C$DW$398, DW_AT_TI_symbol_name("_pxQueue")
    4189                      .dwattr $C$DW$398, DW_AT_type(*$C$DW$T$55)
    4190                      .dwattr $C$DW$398, DW_AT_location[DW_OP_reg17]
    4191              ;*******************************************************************************
    4192              ;* FUNCTION NAME: prvIsQueueEmpty                                              *
    4193              ;*                                                                             *
    4194              ;*   Function Uses Regs : T0,AR0,XAR0,AR1,AR3,XAR3,SP,CARRY,M40,SATA,SATD,RDM, *
    4195              ;*                        FRCT,SMUL                                            *
    4196              ;*   Stack Frame        : Compact (No Frame Pointer, w/ debug)                 *
    4197              ;*   Total Frame Size   : 4 words                                              *
    4198              ;*                        (1 return address/alignment)                         *
    4199              ;*                        (3 local values)                                     *
    4200              ;*   Min System Stack   : 1 word                                               *
    4201              ;*******************************************************************************
    4202 000c04       _prvIsQueueEmpty:
    4203                      .dwcfi  cfa_offset, 1
    4204                      .dwcfi  save_reg_to_mem, 91, -1
    4205 000c04 4EFD          AADD #-3, SP
    4206                      .dwcfi  cfa_offset, 4
    4207              $C$DW$399       .dwtag  DW_TAG_variable, DW_AT_name("pxQueue")
    4208                      .dwattr $C$DW$399, DW_AT_TI_symbol_name("_pxQueue")
    4209                      .dwattr $C$DW$399, DW_AT_type(*$C$DW$T$55)
    4210                      .dwattr $C$DW$399, DW_AT_location[DW_OP_bregx 0x24 0]
    4211              $C$DW$400       .dwtag  DW_TAG_variable, DW_AT_name("xReturn")
    4212                      .dwattr $C$DW$400, DW_AT_TI_symbol_name("_xReturn")
    4213                      .dwattr $C$DW$400, DW_AT_type(*$C$DW$T$43)
    4214                      .dwattr $C$DW$400, DW_AT_location[DW_OP_bregx 0x24 2]
    4215 000c06 EB00          MOV XAR0, dbl(*SP(#0))
         000c08 85   
    4216                      .dwpsn  file "../FreeRTOS/Source/queue.c",line 2291,column 2,is_stmt
    4217 000c09 20     nop
    4218 000c0a 46B3   bset INTM
    4219 000c0c F731          ADD #1, *(#_usCriticalNesting) ; |2291| 
         000c0e 0001 
         000c10 0000 
         000c12 00!  
    4220 000c13 20            NOP
    4221 000c14 20            NOP
    4222                      .dwpsn  file "../FreeRTOS/Source/queue.c",line 2293,column 3,is_stmt
    4223 000c15 ED00          MOV dbl(*SP(#0)), XAR3
         000c17 BF   
    4224 000c18 A96D          MOV *AR3(#28), AR1 ; |2293| 
         000c1a 001C 
TMS320C55x Assembler PC v4.4.1 Sun Sep 09 04:48:36 2018

Tools Copyright (c) 1996-2012 Texas Instruments Incorporated
queue.asm                                                            PAGE   92

    4225 000c1c 6299          BCC $C$L118,AR1 != #0 ; |2293| 
    4226                                                      ; branchcc occurs ; |2293| 
    4227                      .dwpsn  file "../FreeRTOS/Source/queue.c",line 2295,column 4,is_stmt
    4228 000c1e E604          MOV #1, *SP(#2) ; |2295| 
         000c20 01   
    4229                      .dwpsn  file "../FreeRTOS/Source/queue.c",line 2296,column 3,is_stmt
    4230 000c21 4A03          B $C$L119 ; |2296| 
    4231                                                      ; branch occurs ; |2296| 
    4232 000c23       $C$L118:    
    4233                      .dwpsn  file "../FreeRTOS/Source/queue.c",line 2299,column 4,is_stmt
    4234 000c23 E604          MOV #0, *SP(#2) ; |2299| 
         000c25 00   
    4235 000c26       $C$L119:    
    4236                      .dwpsn  file "../FreeRTOS/Source/queue.c",line 2302,column 2,is_stmt
    4237 000c26 A931          MOV *(#_usCriticalNesting), AR1 ; |2302| 
         000c28 0000 
         000c2a 00!  
    4238 000c2b 0409          BCC $C$L120,AR1 == #0 ; |2302| 
         000c2d 14   
    4239                                                      ; branchcc occurs ; |2302| 
    4240 000c2e F731          SUB #1, *(#_usCriticalNesting) ; |2302| 
         000c30 FFFF 
         000c32 0000 
         000c34 00!  
    4241 000c35 20            NOP
    4242 000c36 20            NOP
    4243 000c37 20            NOP
    4244 000c38 A931          MOV *(#_usCriticalNesting), AR1 ; |2302| 
         000c3a 0000 
         000c3c 00!  
    4245 000c3d 6199          BCC $C$L120,AR1 != #0 ; |2302| 
    4246                                                      ; branchcc occurs ; |2302| 
    4247 000c3f 20     nop
    4248 000c40 46B2   bclr INTM
    4249 000c42       $C$L120:    
    4250                      .dwpsn  file "../FreeRTOS/Source/queue.c",line 2304,column 2,is_stmt
    4251 000c42 A404          MOV *SP(#2), T0 ; |2304| 
    4252                      .dwpsn  file "../FreeRTOS/Source/queue.c",line 2305,column 1,is_stmt
    4253 000c44 4E03          AADD #3, SP
    4254                      .dwcfi  cfa_offset, 1
    4255              $C$DW$401       .dwtag  DW_TAG_TI_branch
    4256                      .dwattr $C$DW$401, DW_AT_low_pc(0x00)
    4257                      .dwattr $C$DW$401, DW_AT_TI_return
    4258 000c46 4804          RET
    4259                                                      ; return occurs
    4260                      .dwattr $C$DW$397, DW_AT_TI_end_file("../FreeRTOS/Source/queue.c")
    4261                      .dwattr $C$DW$397, DW_AT_TI_end_line(0x901)
    4262                      .dwattr $C$DW$397, DW_AT_TI_end_column(0x01)
    4263                      .dwendentry
    4264                      .dwendtag $C$DW$397
    4265              
    4266 000c48               .sect   ".text"
    4267                      .align 4
    4268                      .global _xQueueIsQueueEmptyFromISR
    4269              
TMS320C55x Assembler PC v4.4.1 Sun Sep 09 04:48:36 2018

Tools Copyright (c) 1996-2012 Texas Instruments Incorporated
queue.asm                                                            PAGE   93

    4270              $C$DW$402       .dwtag  DW_TAG_subprogram, DW_AT_name("xQueueIsQueueEmptyFromISR")
    4271                      .dwattr $C$DW$402, DW_AT_low_pc(_xQueueIsQueueEmptyFromISR)
    4272                      .dwattr $C$DW$402, DW_AT_high_pc(0x00)
    4273                      .dwattr $C$DW$402, DW_AT_TI_symbol_name("_xQueueIsQueueEmptyFromISR")
    4274                      .dwattr $C$DW$402, DW_AT_external
    4275                      .dwattr $C$DW$402, DW_AT_type(*$C$DW$T$43)
    4276                      .dwattr $C$DW$402, DW_AT_TI_begin_file("../FreeRTOS/Source/queue.c")
    4277                      .dwattr $C$DW$402, DW_AT_TI_begin_line(0x904)
    4278                      .dwattr $C$DW$402, DW_AT_TI_begin_column(0x0c)
    4279                      .dwattr $C$DW$402, DW_AT_TI_max_frame_size(0x08)
    4280                      .dwpsn  file "../FreeRTOS/Source/queue.c",line 2309,column 1,is_stmt,address _xQueueIsQueueEmptyFromI
    4281              
    4282                      .dwfde $C$DW$CIE, _xQueueIsQueueEmptyFromISR
    4283              $C$DW$403       .dwtag  DW_TAG_formal_parameter, DW_AT_name("xQueue")
    4284                      .dwattr $C$DW$403, DW_AT_TI_symbol_name("_xQueue")
    4285                      .dwattr $C$DW$403, DW_AT_type(*$C$DW$T$47)
    4286                      .dwattr $C$DW$403, DW_AT_location[DW_OP_reg17]
    4287              ;*******************************************************************************
    4288              ;* FUNCTION NAME: xQueueIsQueueEmptyFromISR                                    *
    4289              ;*                                                                             *
    4290              ;*   Function Uses Regs : T0,AR0,XAR0,AR1,AR3,XAR3,SP,M40,SATA,SATD,RDM,FRCT,  *
    4291              ;*                        SMUL                                                 *
    4292              ;*   Stack Frame        : Compact (No Frame Pointer, w/ debug)                 *
    4293              ;*   Total Frame Size   : 8 words                                              *
    4294              ;*                        (2 return address/alignment)                         *
    4295              ;*                        (6 local values)                                     *
    4296              ;*   Min System Stack   : 1 word                                               *
    4297              ;*******************************************************************************
    4298 000c48       _xQueueIsQueueEmptyFromISR:
    4299                      .dwcfi  cfa_offset, 1
    4300                      .dwcfi  save_reg_to_mem, 91, -1
    4301 000c48 4EF9          AADD #-7, SP
    4302                      .dwcfi  cfa_offset, 8
    4303              $C$DW$404       .dwtag  DW_TAG_variable, DW_AT_name("xQueue")
    4304                      .dwattr $C$DW$404, DW_AT_TI_symbol_name("_xQueue")
    4305                      .dwattr $C$DW$404, DW_AT_type(*$C$DW$T$47)
    4306                      .dwattr $C$DW$404, DW_AT_location[DW_OP_bregx 0x24 0]
    4307              $C$DW$405       .dwtag  DW_TAG_variable, DW_AT_name("xReturn")
    4308                      .dwattr $C$DW$405, DW_AT_TI_symbol_name("_xReturn")
    4309                      .dwattr $C$DW$405, DW_AT_type(*$C$DW$T$43)
    4310                      .dwattr $C$DW$405, DW_AT_location[DW_OP_bregx 0x24 2]
    4311              $C$DW$406       .dwtag  DW_TAG_variable, DW_AT_name("pxQueue")
    4312                      .dwattr $C$DW$406, DW_AT_TI_symbol_name("_pxQueue")
    4313                      .dwattr $C$DW$406, DW_AT_type(*$C$DW$T$57)
    4314                      .dwattr $C$DW$406, DW_AT_location[DW_OP_bregx 0x24 4]
    4315 000c4a EB00          MOV XAR0, dbl(*SP(#0))
         000c4c 85   
    4316                      .dwpsn  file "../FreeRTOS/Source/queue.c",line 2311,column 17,is_stmt
    4317 000c4d ED00          MOV dbl(*SP(#0)), XAR3
         000c4f BF   
    4318 000c50 EB08          MOV XAR3, dbl(*SP(#4))
         000c52 B5   
    4319                      .dwpsn  file "../FreeRTOS/Source/queue.c",line 2314,column 2,is_stmt
    4320 000c53 A96D          MOV *AR3(#28), AR1 ; |2314| 
         000c55 001C 
TMS320C55x Assembler PC v4.4.1 Sun Sep 09 04:48:36 2018

Tools Copyright (c) 1996-2012 Texas Instruments Incorporated
queue.asm                                                            PAGE   94

    4321 000c57 6299          BCC $C$L121,AR1 != #0 ; |2314| 
    4322                                                      ; branchcc occurs ; |2314| 
    4323                      .dwpsn  file "../FreeRTOS/Source/queue.c",line 2316,column 3,is_stmt
    4324 000c59 E604          MOV #1, *SP(#2) ; |2316| 
         000c5b 01   
    4325                      .dwpsn  file "../FreeRTOS/Source/queue.c",line 2317,column 2,is_stmt
    4326 000c5c 4A03          B $C$L122 ; |2317| 
    4327                                                      ; branch occurs ; |2317| 
    4328 000c5e       $C$L121:    
    4329                      .dwpsn  file "../FreeRTOS/Source/queue.c",line 2320,column 3,is_stmt
    4330 000c5e E604          MOV #0, *SP(#2) ; |2320| 
         000c60 00   
    4331 000c61       $C$L122:    
    4332                      .dwpsn  file "../FreeRTOS/Source/queue.c",line 2323,column 2,is_stmt
    4333 000c61 A404          MOV *SP(#2), T0 ; |2323| 
    4334                      .dwpsn  file "../FreeRTOS/Source/queue.c",line 2324,column 1,is_stmt
    4335 000c63 4E07          AADD #7, SP
    4336                      .dwcfi  cfa_offset, 1
    4337              $C$DW$407       .dwtag  DW_TAG_TI_branch
    4338                      .dwattr $C$DW$407, DW_AT_low_pc(0x00)
    4339                      .dwattr $C$DW$407, DW_AT_TI_return
    4340 000c65 4804          RET
    4341                                                      ; return occurs
    4342                      .dwattr $C$DW$402, DW_AT_TI_end_file("../FreeRTOS/Source/queue.c")
    4343                      .dwattr $C$DW$402, DW_AT_TI_end_line(0x914)
    4344                      .dwattr $C$DW$402, DW_AT_TI_end_column(0x01)
    4345                      .dwendentry
    4346                      .dwendtag $C$DW$402
    4347              
    4348 000c67               .sect   ".text"
    4349                      .align 4
    4350              
    4351              $C$DW$408       .dwtag  DW_TAG_subprogram, DW_AT_name("prvIsQueueFull")
    4352                      .dwattr $C$DW$408, DW_AT_low_pc(_prvIsQueueFull)
    4353                      .dwattr $C$DW$408, DW_AT_high_pc(0x00)
    4354                      .dwattr $C$DW$408, DW_AT_TI_symbol_name("_prvIsQueueFull")
    4355                      .dwattr $C$DW$408, DW_AT_type(*$C$DW$T$43)
    4356                      .dwattr $C$DW$408, DW_AT_TI_begin_file("../FreeRTOS/Source/queue.c")
    4357                      .dwattr $C$DW$408, DW_AT_TI_begin_line(0x917)
    4358                      .dwattr $C$DW$408, DW_AT_TI_begin_column(0x13)
    4359                      .dwattr $C$DW$408, DW_AT_TI_max_frame_size(0x04)
    4360                      .dwpsn  file "../FreeRTOS/Source/queue.c",line 2328,column 1,is_stmt,address _prvIsQueueFull
    4361              
    4362                      .dwfde $C$DW$CIE, _prvIsQueueFull
    4363              $C$DW$409       .dwtag  DW_TAG_formal_parameter, DW_AT_name("pxQueue")
    4364                      .dwattr $C$DW$409, DW_AT_TI_symbol_name("_pxQueue")
    4365                      .dwattr $C$DW$409, DW_AT_type(*$C$DW$T$55)
    4366                      .dwattr $C$DW$409, DW_AT_location[DW_OP_reg17]
    4367              ;*******************************************************************************
    4368              ;* FUNCTION NAME: prvIsQueueFull                                               *
    4369              ;*                                                                             *
    4370              ;*   Function Uses Regs : T0,AR0,XAR0,AR1,AR2,AR3,XAR3,SP,CARRY,TC1,M40,SATA,  *
    4371              ;*                        SATD,RDM,FRCT,SMUL                                   *
    4372              ;*   Stack Frame        : Compact (No Frame Pointer, w/ debug)                 *
    4373              ;*   Total Frame Size   : 4 words                                              *
TMS320C55x Assembler PC v4.4.1 Sun Sep 09 04:48:36 2018

Tools Copyright (c) 1996-2012 Texas Instruments Incorporated
queue.asm                                                            PAGE   95

    4374              ;*                        (1 return address/alignment)                         *
    4375              ;*                        (3 local values)                                     *
    4376              ;*   Min System Stack   : 1 word                                               *
    4377              ;*******************************************************************************
    4378 000c68       _prvIsQueueFull:
    4379                      .dwcfi  cfa_offset, 1
    4380                      .dwcfi  save_reg_to_mem, 91, -1
    4381 000c68 4EFD          AADD #-3, SP
    4382                      .dwcfi  cfa_offset, 4
    4383              $C$DW$410       .dwtag  DW_TAG_variable, DW_AT_name("pxQueue")
    4384                      .dwattr $C$DW$410, DW_AT_TI_symbol_name("_pxQueue")
    4385                      .dwattr $C$DW$410, DW_AT_type(*$C$DW$T$55)
    4386                      .dwattr $C$DW$410, DW_AT_location[DW_OP_bregx 0x24 0]
    4387              $C$DW$411       .dwtag  DW_TAG_variable, DW_AT_name("xReturn")
    4388                      .dwattr $C$DW$411, DW_AT_TI_symbol_name("_xReturn")
    4389                      .dwattr $C$DW$411, DW_AT_type(*$C$DW$T$43)
    4390                      .dwattr $C$DW$411, DW_AT_location[DW_OP_bregx 0x24 2]
    4391 000c6a EB00          MOV XAR0, dbl(*SP(#0))
         000c6c 85   
    4392                      .dwpsn  file "../FreeRTOS/Source/queue.c",line 2331,column 2,is_stmt
    4393 000c6d 20     nop
    4394 000c6e 46B3   bset INTM
    4395 000c70 F731          ADD #1, *(#_usCriticalNesting) ; |2331| 
         000c72 0001 
         000c74 0000 
         000c76 00!  
    4396 000c77 20            NOP
    4397                      .dwpsn  file "../FreeRTOS/Source/queue.c",line 2333,column 3,is_stmt
    4398 000c78 ED00          MOV dbl(*SP(#0)), XAR3
         000c7a BF   
    4399 000c7b A96D          MOV *AR3(#29), AR1 ; |2333| 
         000c7d 001D 
    4400 000c7f AA6D          MOV *AR3(#28), AR2 ; |2333| 
         000c81 001C 
    4401 000c83 12AC          CMPU AR2 != AR1, TC1 ; |2333| 
         000c85 94   
    4402 000c86 62E4          BCC $C$L123,TC1 ; |2333| 
    4403                                                      ; branchcc occurs ; |2333| 
    4404                      .dwpsn  file "../FreeRTOS/Source/queue.c",line 2335,column 4,is_stmt
    4405 000c88 E604          MOV #1, *SP(#2) ; |2335| 
         000c8a 01   
    4406                      .dwpsn  file "../FreeRTOS/Source/queue.c",line 2336,column 3,is_stmt
    4407 000c8b 4A03          B $C$L124 ; |2336| 
    4408                                                      ; branch occurs ; |2336| 
    4409 000c8d       $C$L123:    
    4410                      .dwpsn  file "../FreeRTOS/Source/queue.c",line 2339,column 4,is_stmt
    4411 000c8d E604          MOV #0, *SP(#2) ; |2339| 
         000c8f 00   
    4412 000c90       $C$L124:    
    4413                      .dwpsn  file "../FreeRTOS/Source/queue.c",line 2342,column 2,is_stmt
    4414 000c90 A931          MOV *(#_usCriticalNesting), AR1 ; |2342| 
         000c92 0000 
         000c94 00!  
    4415 000c95 0409          BCC $C$L125,AR1 == #0 ; |2342| 
         000c97 14   
TMS320C55x Assembler PC v4.4.1 Sun Sep 09 04:48:36 2018

Tools Copyright (c) 1996-2012 Texas Instruments Incorporated
queue.asm                                                            PAGE   96

    4416                                                      ; branchcc occurs ; |2342| 
    4417 000c98 F731          SUB #1, *(#_usCriticalNesting) ; |2342| 
         000c9a FFFF 
         000c9c 0000 
         000c9e 00!  
    4418 000c9f 20            NOP
    4419 000ca0 20            NOP
    4420 000ca1 20            NOP
    4421 000ca2 A931          MOV *(#_usCriticalNesting), AR1 ; |2342| 
         000ca4 0000 
         000ca6 00!  
    4422 000ca7 6199          BCC $C$L125,AR1 != #0 ; |2342| 
    4423                                                      ; branchcc occurs ; |2342| 
    4424 000ca9 20     nop
    4425 000caa 46B2   bclr INTM
    4426 000cac       $C$L125:    
    4427                      .dwpsn  file "../FreeRTOS/Source/queue.c",line 2344,column 2,is_stmt
    4428 000cac A404          MOV *SP(#2), T0 ; |2344| 
    4429                      .dwpsn  file "../FreeRTOS/Source/queue.c",line 2345,column 1,is_stmt
    4430 000cae 4E03          AADD #3, SP
    4431                      .dwcfi  cfa_offset, 1
    4432              $C$DW$412       .dwtag  DW_TAG_TI_branch
    4433                      .dwattr $C$DW$412, DW_AT_low_pc(0x00)
    4434                      .dwattr $C$DW$412, DW_AT_TI_return
    4435 000cb0 4804          RET
    4436                                                      ; return occurs
    4437                      .dwattr $C$DW$408, DW_AT_TI_end_file("../FreeRTOS/Source/queue.c")
    4438                      .dwattr $C$DW$408, DW_AT_TI_end_line(0x929)
    4439                      .dwattr $C$DW$408, DW_AT_TI_end_column(0x01)
    4440                      .dwendentry
    4441                      .dwendtag $C$DW$408
    4442              
    4443 000cb2               .sect   ".text"
    4444                      .align 4
    4445                      .global _xQueueIsQueueFullFromISR
    4446              
    4447              $C$DW$413       .dwtag  DW_TAG_subprogram, DW_AT_name("xQueueIsQueueFullFromISR")
    4448                      .dwattr $C$DW$413, DW_AT_low_pc(_xQueueIsQueueFullFromISR)
    4449                      .dwattr $C$DW$413, DW_AT_high_pc(0x00)
    4450                      .dwattr $C$DW$413, DW_AT_TI_symbol_name("_xQueueIsQueueFullFromISR")
    4451                      .dwattr $C$DW$413, DW_AT_external
    4452                      .dwattr $C$DW$413, DW_AT_type(*$C$DW$T$43)
    4453                      .dwattr $C$DW$413, DW_AT_TI_begin_file("../FreeRTOS/Source/queue.c")
    4454                      .dwattr $C$DW$413, DW_AT_TI_begin_line(0x92c)
    4455                      .dwattr $C$DW$413, DW_AT_TI_begin_column(0x0c)
    4456                      .dwattr $C$DW$413, DW_AT_TI_max_frame_size(0x08)
    4457                      .dwpsn  file "../FreeRTOS/Source/queue.c",line 2349,column 1,is_stmt,address _xQueueIsQueueFullFromIS
    4458              
    4459                      .dwfde $C$DW$CIE, _xQueueIsQueueFullFromISR
    4460              $C$DW$414       .dwtag  DW_TAG_formal_parameter, DW_AT_name("xQueue")
    4461                      .dwattr $C$DW$414, DW_AT_TI_symbol_name("_xQueue")
    4462                      .dwattr $C$DW$414, DW_AT_type(*$C$DW$T$47)
    4463                      .dwattr $C$DW$414, DW_AT_location[DW_OP_reg17]
    4464              ;*******************************************************************************
    4465              ;* FUNCTION NAME: xQueueIsQueueFullFromISR                                     *
TMS320C55x Assembler PC v4.4.1 Sun Sep 09 04:48:36 2018

Tools Copyright (c) 1996-2012 Texas Instruments Incorporated
queue.asm                                                            PAGE   97

    4466              ;*                                                                             *
    4467              ;*   Function Uses Regs : T0,AR0,XAR0,AR1,AR2,AR3,XAR3,SP,TC1,M40,SATA,SATD,   *
    4468              ;*                        RDM,FRCT,SMUL                                        *
    4469              ;*   Stack Frame        : Compact (No Frame Pointer, w/ debug)                 *
    4470              ;*   Total Frame Size   : 8 words                                              *
    4471              ;*                        (2 return address/alignment)                         *
    4472              ;*                        (6 local values)                                     *
    4473              ;*   Min System Stack   : 1 word                                               *
    4474              ;*******************************************************************************
    4475 000cb4       _xQueueIsQueueFullFromISR:
    4476                      .dwcfi  cfa_offset, 1
    4477                      .dwcfi  save_reg_to_mem, 91, -1
    4478 000cb4 4EF9          AADD #-7, SP
    4479                      .dwcfi  cfa_offset, 8
    4480              $C$DW$415       .dwtag  DW_TAG_variable, DW_AT_name("xQueue")
    4481                      .dwattr $C$DW$415, DW_AT_TI_symbol_name("_xQueue")
    4482                      .dwattr $C$DW$415, DW_AT_type(*$C$DW$T$47)
    4483                      .dwattr $C$DW$415, DW_AT_location[DW_OP_bregx 0x24 0]
    4484              $C$DW$416       .dwtag  DW_TAG_variable, DW_AT_name("xReturn")
    4485                      .dwattr $C$DW$416, DW_AT_TI_symbol_name("_xReturn")
    4486                      .dwattr $C$DW$416, DW_AT_type(*$C$DW$T$43)
    4487                      .dwattr $C$DW$416, DW_AT_location[DW_OP_bregx 0x24 2]
    4488              $C$DW$417       .dwtag  DW_TAG_variable, DW_AT_name("pxQueue")
    4489                      .dwattr $C$DW$417, DW_AT_TI_symbol_name("_pxQueue")
    4490                      .dwattr $C$DW$417, DW_AT_type(*$C$DW$T$57)
    4491                      .dwattr $C$DW$417, DW_AT_location[DW_OP_bregx 0x24 4]
    4492 000cb6 EB00          MOV XAR0, dbl(*SP(#0))
         000cb8 85   
    4493                      .dwpsn  file "../FreeRTOS/Source/queue.c",line 2351,column 17,is_stmt
    4494 000cb9 ED00          MOV dbl(*SP(#0)), XAR3
         000cbb BF   
    4495 000cbc EB08          MOV XAR3, dbl(*SP(#4))
         000cbe B5   
    4496                      .dwpsn  file "../FreeRTOS/Source/queue.c",line 2354,column 2,is_stmt
    4497 000cbf A96D          MOV *AR3(#29), AR1 ; |2354| 
         000cc1 001D 
    4498 000cc3 AA6D          MOV *AR3(#28), AR2 ; |2354| 
         000cc5 001C 
    4499 000cc7 12AC          CMPU AR2 != AR1, TC1 ; |2354| 
         000cc9 94   
    4500 000cca 62E4          BCC $C$L126,TC1 ; |2354| 
    4501                                                      ; branchcc occurs ; |2354| 
    4502                      .dwpsn  file "../FreeRTOS/Source/queue.c",line 2356,column 3,is_stmt
    4503 000ccc E604          MOV #1, *SP(#2) ; |2356| 
         000cce 01   
    4504                      .dwpsn  file "../FreeRTOS/Source/queue.c",line 2357,column 2,is_stmt
    4505 000ccf 4A03          B $C$L127 ; |2357| 
    4506                                                      ; branch occurs ; |2357| 
    4507 000cd1       $C$L126:    
    4508                      .dwpsn  file "../FreeRTOS/Source/queue.c",line 2360,column 3,is_stmt
    4509 000cd1 E604          MOV #0, *SP(#2) ; |2360| 
         000cd3 00   
    4510 000cd4       $C$L127:    
    4511                      .dwpsn  file "../FreeRTOS/Source/queue.c",line 2363,column 2,is_stmt
    4512 000cd4 A404          MOV *SP(#2), T0 ; |2363| 
TMS320C55x Assembler PC v4.4.1 Sun Sep 09 04:48:36 2018

Tools Copyright (c) 1996-2012 Texas Instruments Incorporated
queue.asm                                                            PAGE   98

    4513                      .dwpsn  file "../FreeRTOS/Source/queue.c",line 2364,column 1,is_stmt
    4514 000cd6 4E07          AADD #7, SP
    4515                      .dwcfi  cfa_offset, 1
    4516              $C$DW$418       .dwtag  DW_TAG_TI_branch
    4517                      .dwattr $C$DW$418, DW_AT_low_pc(0x00)
    4518                      .dwattr $C$DW$418, DW_AT_TI_return
    4519 000cd8 4804          RET
    4520                                                      ; return occurs
    4521                      .dwattr $C$DW$413, DW_AT_TI_end_file("../FreeRTOS/Source/queue.c")
    4522                      .dwattr $C$DW$413, DW_AT_TI_end_line(0x93c)
    4523                      .dwattr $C$DW$413, DW_AT_TI_end_column(0x01)
    4524                      .dwendentry
    4525                      .dwendtag $C$DW$413
    4526              
    4527 000cda               .sect   ".text"
    4528                      .align 4
    4529                      .global _xQueueCRSend
    4530              
    4531              $C$DW$419       .dwtag  DW_TAG_subprogram, DW_AT_name("xQueueCRSend")
    4532                      .dwattr $C$DW$419, DW_AT_low_pc(_xQueueCRSend)
    4533                      .dwattr $C$DW$419, DW_AT_high_pc(0x00)
    4534                      .dwattr $C$DW$419, DW_AT_TI_symbol_name("_xQueueCRSend")
    4535                      .dwattr $C$DW$419, DW_AT_external
    4536                      .dwattr $C$DW$419, DW_AT_type(*$C$DW$T$43)
    4537                      .dwattr $C$DW$419, DW_AT_TI_begin_file("../FreeRTOS/Source/queue.c")
    4538                      .dwattr $C$DW$419, DW_AT_TI_begin_line(0x941)
    4539                      .dwattr $C$DW$419, DW_AT_TI_begin_column(0x0d)
    4540                      .dwattr $C$DW$419, DW_AT_TI_max_frame_size(0x0a)
    4541                      .dwpsn  file "../FreeRTOS/Source/queue.c",line 2370,column 2,is_stmt,address _xQueueCRSend
    4542              
    4543                      .dwfde $C$DW$CIE, _xQueueCRSend
    4544              $C$DW$420       .dwtag  DW_TAG_formal_parameter, DW_AT_name("xQueue")
    4545                      .dwattr $C$DW$420, DW_AT_TI_symbol_name("_xQueue")
    4546                      .dwattr $C$DW$420, DW_AT_type(*$C$DW$T$46)
    4547                      .dwattr $C$DW$420, DW_AT_location[DW_OP_reg17]
    4548              $C$DW$421       .dwtag  DW_TAG_formal_parameter, DW_AT_name("pvItemToQueue")
    4549                      .dwattr $C$DW$421, DW_AT_TI_symbol_name("_pvItemToQueue")
    4550                      .dwattr $C$DW$421, DW_AT_type(*$C$DW$T$59)
    4551                      .dwattr $C$DW$421, DW_AT_location[DW_OP_reg19]
    4552              $C$DW$422       .dwtag  DW_TAG_formal_parameter, DW_AT_name("xTicksToWait")
    4553                      .dwattr $C$DW$422, DW_AT_TI_symbol_name("_xTicksToWait")
    4554                      .dwattr $C$DW$422, DW_AT_type(*$C$DW$T$38)
    4555                      .dwattr $C$DW$422, DW_AT_location[DW_OP_reg12]
    4556              ;*******************************************************************************
    4557              ;* FUNCTION NAME: xQueueCRSend                                                 *
    4558              ;*                                                                             *
    4559              ;*   Function Uses Regs : T0,AR0,XAR0,AR1,XAR1,AR2,AR3,XAR3,SP,TC1,M40,SATA,   *
    4560              ;*                        SATD,RDM,FRCT,SMUL                                   *
    4561              ;*   Stack Frame        : Compact (No Frame Pointer, w/ debug)                 *
    4562              ;*   Total Frame Size   : 10 words                                             *
    4563              ;*                        (2 return address/alignment)                         *
    4564              ;*                        (8 local values)                                     *
    4565              ;*   Min System Stack   : 1 word                                               *
    4566              ;*******************************************************************************
    4567 000cdc       _xQueueCRSend:
TMS320C55x Assembler PC v4.4.1 Sun Sep 09 04:48:36 2018

Tools Copyright (c) 1996-2012 Texas Instruments Incorporated
queue.asm                                                            PAGE   99

    4568                      .dwcfi  cfa_offset, 1
    4569                      .dwcfi  save_reg_to_mem, 91, -1
    4570 000cdc 4EF7          AADD #-9, SP
    4571                      .dwcfi  cfa_offset, 10
    4572              $C$DW$423       .dwtag  DW_TAG_variable, DW_AT_name("xQueue")
    4573                      .dwattr $C$DW$423, DW_AT_TI_symbol_name("_xQueue")
    4574                      .dwattr $C$DW$423, DW_AT_type(*$C$DW$T$46)
    4575                      .dwattr $C$DW$423, DW_AT_location[DW_OP_bregx 0x24 0]
    4576              $C$DW$424       .dwtag  DW_TAG_variable, DW_AT_name("pvItemToQueue")
    4577                      .dwattr $C$DW$424, DW_AT_TI_symbol_name("_pvItemToQueue")
    4578                      .dwattr $C$DW$424, DW_AT_type(*$C$DW$T$59)
    4579                      .dwattr $C$DW$424, DW_AT_location[DW_OP_bregx 0x24 2]
    4580              $C$DW$425       .dwtag  DW_TAG_variable, DW_AT_name("xTicksToWait")
    4581                      .dwattr $C$DW$425, DW_AT_TI_symbol_name("_xTicksToWait")
    4582                      .dwattr $C$DW$425, DW_AT_type(*$C$DW$T$38)
    4583                      .dwattr $C$DW$425, DW_AT_location[DW_OP_bregx 0x24 4]
    4584              $C$DW$426       .dwtag  DW_TAG_variable, DW_AT_name("xReturn")
    4585                      .dwattr $C$DW$426, DW_AT_TI_symbol_name("_xReturn")
    4586                      .dwattr $C$DW$426, DW_AT_type(*$C$DW$T$43)
    4587                      .dwattr $C$DW$426, DW_AT_location[DW_OP_bregx 0x24 5]
    4588              $C$DW$427       .dwtag  DW_TAG_variable, DW_AT_name("pxQueue")
    4589                      .dwattr $C$DW$427, DW_AT_TI_symbol_name("_pxQueue")
    4590                      .dwattr $C$DW$427, DW_AT_type(*$C$DW$T$57)
    4591                      .dwattr $C$DW$427, DW_AT_location[DW_OP_bregx 0x24 6]
    4592 000cde C408          MOV T0, *SP(#4) ; |2370| 
    4593 000ce0 EB04          MOV XAR1, dbl(*SP(#2))
         000ce2 95   
    4594 000ce3 EB00          MOV XAR0, dbl(*SP(#0))
         000ce5 85   
    4595                      .dwpsn  file "../FreeRTOS/Source/queue.c",line 2372,column 18,is_stmt
    4596 000ce6 ED00          MOV dbl(*SP(#0)), XAR3
         000ce8 BF   
    4597 000ce9 EB0C          MOV XAR3, dbl(*SP(#6))
         000ceb B5   
    4598                      .dwpsn  file "../FreeRTOS/Source/queue.c",line 2377,column 3,is_stmt
    4599 000cec 20     nop
    4600 000ced 46B3   bset INTM
    4601                      .dwpsn  file "../FreeRTOS/Source/queue.c",line 2379,column 4,is_stmt
    4602              $C$DW$428       .dwtag  DW_TAG_TI_branch
    4603                      .dwattr $C$DW$428, DW_AT_low_pc(0x00)
    4604                      .dwattr $C$DW$428, DW_AT_name("_prvIsQueueFull")
    4605                      .dwattr $C$DW$428, DW_AT_TI_call
    4606 000cef 08FF          CALL #_prvIsQueueFull ; |2379| 
         000cf1 76   
    4607                                                      ; call occurs [#_prvIsQueueFull] ; |2379| 
    4608 000cf2 0404          BCC $C$L129,T0 == #0 ; |2379| 
         000cf4 21   
    4609                                                      ; branchcc occurs ; |2379| 
    4610                      .dwpsn  file "../FreeRTOS/Source/queue.c",line 2383,column 5,is_stmt
    4611 000cf5 A908          MOV *SP(#4), AR1 ; |2383| 
    4612 000cf7 0409          BCC $C$L128,AR1 == #0 ; |2383| 
         000cf9 14   
    4613                                                      ; branchcc occurs ; |2383| 
    4614                      .dwpsn  file "../FreeRTOS/Source/queue.c",line 2387,column 6,is_stmt
    4615 000cfa ED0C          MOV dbl(*SP(#6)), XAR0
TMS320C55x Assembler PC v4.4.1 Sun Sep 09 04:48:36 2018

Tools Copyright (c) 1996-2012 Texas Instruments Incorporated
queue.asm                                                            PAGE  100

         000cfc 8F   
    4616 000cfd 1408          AADD #8, AR0 ; |2387| 
         000cff 84   
    4617              $C$DW$429       .dwtag  DW_TAG_TI_branch
    4618                      .dwattr $C$DW$429, DW_AT_low_pc(0x00)
    4619                      .dwattr $C$DW$429, DW_AT_name("_vCoRoutineAddToDelayedList")
    4620                      .dwattr $C$DW$429, DW_AT_TI_call
    4621              
    4622 000d00 6C00          CALL #_vCoRoutineAddToDelayedList ; |2387| 
         000d02 0000!
    4623 000d04 2394  ||      MOV AR1, T0 ; |2387| 
    4624              
    4625                                                      ; call occurs [#_vCoRoutineAddToDelayedList] ; |2387| 
    4626                      .dwpsn  file "../FreeRTOS/Source/queue.c",line 2388,column 6,is_stmt
    4627 000d06 20     nop
    4628 000d07 46B2   bclr INTM
    4629                      .dwpsn  file "../FreeRTOS/Source/queue.c",line 2389,column 6,is_stmt
    4630 000d09 3E44          MOV #-4, T0
    4631 000d0b 0600          B $C$L134 ; |2389| 
         000d0d 58   
    4632                                                      ; branch occurs ; |2389| 
    4633 000d0e       $C$L128:    
    4634                      .dwpsn  file "../FreeRTOS/Source/queue.c",line 2393,column 6,is_stmt
    4635 000d0e 20     nop
    4636 000d0f 46B2   bclr INTM
    4637                      .dwpsn  file "../FreeRTOS/Source/queue.c",line 2394,column 6,is_stmt
    4638 000d11 3C04          MOV #0, T0
    4639 000d13 0600          B $C$L134 ; |2394| 
         000d15 50   
    4640                                                      ; branch occurs ; |2394| 
    4641 000d16       $C$L129:    
    4642                      .dwpsn  file "../FreeRTOS/Source/queue.c",line 2398,column 3,is_stmt
    4643 000d16 20     nop
    4644 000d17 46B2   bclr INTM
    4645                      .dwpsn  file "../FreeRTOS/Source/queue.c",line 2400,column 3,is_stmt
    4646 000d19 20     nop
    4647 000d1a 46B3   bset INTM
    4648                      .dwpsn  file "../FreeRTOS/Source/queue.c",line 2402,column 4,is_stmt
    4649 000d1c ED0C          MOV dbl(*SP(#6)), XAR3
         000d1e BF   
    4650 000d1f A96D          MOV *AR3(#29), AR1 ; |2402| 
         000d21 001D 
    4651 000d23 AA6D          MOV *AR3(#28), AR2 ; |2402| 
         000d25 001C 
    4652 000d27 12A8          CMPU AR2 >= AR1, TC1 ; |2402| 
         000d29 94   
    4653 000d2a 0464          BCC $C$L132,TC1 ; |2402| 
         000d2c 31   
    4654                                                      ; branchcc occurs ; |2402| 
    4655                      .dwpsn  file "../FreeRTOS/Source/queue.c",line 2405,column 5,is_stmt
    4656 000d2d ED0C          MOV dbl(*SP(#6)), XAR0
         000d2f 8F   
    4657 000d30 ED04          MOV dbl(*SP(#2)), XAR1
         000d32 9F   
    4658              $C$DW$430       .dwtag  DW_TAG_TI_branch
TMS320C55x Assembler PC v4.4.1 Sun Sep 09 04:48:36 2018

Tools Copyright (c) 1996-2012 Texas Instruments Incorporated
queue.asm                                                            PAGE  101

    4659                      .dwattr $C$DW$430, DW_AT_low_pc(0x00)
    4660                      .dwattr $C$DW$430, DW_AT_name("_prvCopyDataToQueue")
    4661                      .dwattr $C$DW$430, DW_AT_TI_call
    4662              
    4663 000d33 08FC          CALL #_prvCopyDataToQueue ; |2405| 
         000d35 BC   
    4664 000d36 3D04  ||      MOV #0, T0
    4665              
    4666                                                      ; call occurs [#_prvCopyDataToQueue] ; |2405| 
    4667                      .dwpsn  file "../FreeRTOS/Source/queue.c",line 2406,column 5,is_stmt
    4668 000d38 E60A          MOV #1, *SP(#5) ; |2406| 
         000d3a 01   
    4669                      .dwpsn  file "../FreeRTOS/Source/queue.c",line 2409,column 5,is_stmt
    4670 000d3b ED0C          MOV dbl(*SP(#6)), XAR3
         000d3d BF   
    4671 000d3e A96D          MOV *AR3(#18), AR1 ; |2409| 
         000d40 0012 
    4672 000d42 6219          BCC $C$L130,AR1 != #0 ; |2409| 
    4673                                                      ; branchcc occurs ; |2409| 
    4674 000d44 3C19          MOV #1, AR1
    4675 000d46 4A02          B $C$L131 ; |2409| 
    4676                                                      ; branch occurs ; |2409| 
    4677 000d48       $C$L130:    
    4678 000d48 3C09          MOV #0, AR1
    4679 000d4a       $C$L131:    
    4680 000d4a 0419          BCC $C$L133,AR1 != #0 ; |2409| 
         000d4c 14   
    4681                                                      ; branchcc occurs ; |2409| 
    4682                      .dwpsn  file "../FreeRTOS/Source/queue.c",line 2415,column 6,is_stmt
    4683 000d4d ED0C          MOV dbl(*SP(#6)), XAR0
         000d4f 8F   
    4684 000d50 1412          AADD #18, AR0 ; |2415| 
         000d52 84   
    4685              $C$DW$431       .dwtag  DW_TAG_TI_branch
    4686                      .dwattr $C$DW$431, DW_AT_low_pc(0x00)
    4687                      .dwattr $C$DW$431, DW_AT_name("_xCoRoutineRemoveFromEventList")
    4688                      .dwattr $C$DW$431, DW_AT_TI_call
    4689 000d53 6C00          CALL #_xCoRoutineRemoveFromEventList ; |2415| 
         000d55 0000!
    4690                                                      ; call occurs [#_xCoRoutineRemoveFromEventList] ; |2415| 
    4691 000d57 6404          BCC $C$L133,T0 == #0 ; |2415| 
    4692                                                      ; branchcc occurs ; |2415| 
    4693                      .dwpsn  file "../FreeRTOS/Source/queue.c",line 2419,column 7,is_stmt
    4694 000d59 E60A          MOV #-5, *SP(#5) ; |2419| 
         000d5b FB   
    4695                      .dwpsn  file "../FreeRTOS/Source/queue.c",line 2420,column 6,is_stmt
    4696 000d5c 4A03          B $C$L133 ; |2420| 
    4697                                                      ; branch occurs ; |2420| 
    4698 000d5e       $C$L132:    
    4699                      .dwpsn  file "../FreeRTOS/Source/queue.c",line 2433,column 5,is_stmt
    4700 000d5e E60A          MOV #0, *SP(#5) ; |2433| 
         000d60 00   
    4701 000d61       $C$L133:    
    4702                      .dwpsn  file "../FreeRTOS/Source/queue.c",line 2436,column 3,is_stmt
    4703 000d61 20     nop
TMS320C55x Assembler PC v4.4.1 Sun Sep 09 04:48:36 2018

Tools Copyright (c) 1996-2012 Texas Instruments Incorporated
queue.asm                                                            PAGE  102

    4704 000d62 46B2   bclr INTM
    4705                      .dwpsn  file "../FreeRTOS/Source/queue.c",line 2438,column 3,is_stmt
    4706 000d64 A40A          MOV *SP(#5), T0 ; |2438| 
    4707 000d66       $C$L134:    
    4708                      .dwpsn  file "../FreeRTOS/Source/queue.c",line 2439,column 2,is_stmt
    4709 000d66 4E09          AADD #9, SP
    4710                      .dwcfi  cfa_offset, 1
    4711              $C$DW$432       .dwtag  DW_TAG_TI_branch
    4712                      .dwattr $C$DW$432, DW_AT_low_pc(0x00)
    4713                      .dwattr $C$DW$432, DW_AT_TI_return
    4714 000d68 4804          RET
    4715                                                      ; return occurs
    4716                      .dwattr $C$DW$419, DW_AT_TI_end_file("../FreeRTOS/Source/queue.c")
    4717                      .dwattr $C$DW$419, DW_AT_TI_end_line(0x987)
    4718                      .dwattr $C$DW$419, DW_AT_TI_end_column(0x02)
    4719                      .dwendentry
    4720                      .dwendtag $C$DW$419
    4721              
    4722 000d6a               .sect   ".text"
    4723                      .align 4
    4724                      .global _xQueueCRReceive
    4725              
    4726              $C$DW$433       .dwtag  DW_TAG_subprogram, DW_AT_name("xQueueCRReceive")
    4727                      .dwattr $C$DW$433, DW_AT_low_pc(_xQueueCRReceive)
    4728                      .dwattr $C$DW$433, DW_AT_high_pc(0x00)
    4729                      .dwattr $C$DW$433, DW_AT_TI_symbol_name("_xQueueCRReceive")
    4730                      .dwattr $C$DW$433, DW_AT_external
    4731                      .dwattr $C$DW$433, DW_AT_type(*$C$DW$T$43)
    4732                      .dwattr $C$DW$433, DW_AT_TI_begin_file("../FreeRTOS/Source/queue.c")
    4733                      .dwattr $C$DW$433, DW_AT_TI_begin_line(0x98e)
    4734                      .dwattr $C$DW$433, DW_AT_TI_begin_column(0x0d)
    4735                      .dwattr $C$DW$433, DW_AT_TI_max_frame_size(0x0a)
    4736                      .dwpsn  file "../FreeRTOS/Source/queue.c",line 2447,column 2,is_stmt,address _xQueueCRReceive
    4737              
    4738                      .dwfde $C$DW$CIE, _xQueueCRReceive
    4739              $C$DW$434       .dwtag  DW_TAG_formal_parameter, DW_AT_name("xQueue")
    4740                      .dwattr $C$DW$434, DW_AT_TI_symbol_name("_xQueue")
    4741                      .dwattr $C$DW$434, DW_AT_type(*$C$DW$T$46)
    4742                      .dwattr $C$DW$434, DW_AT_location[DW_OP_reg17]
    4743              $C$DW$435       .dwtag  DW_TAG_formal_parameter, DW_AT_name("pvBuffer")
    4744                      .dwattr $C$DW$435, DW_AT_TI_symbol_name("_pvBuffer")
    4745                      .dwattr $C$DW$435, DW_AT_type(*$C$DW$T$3)
    4746                      .dwattr $C$DW$435, DW_AT_location[DW_OP_reg19]
    4747              $C$DW$436       .dwtag  DW_TAG_formal_parameter, DW_AT_name("xTicksToWait")
    4748                      .dwattr $C$DW$436, DW_AT_TI_symbol_name("_xTicksToWait")
    4749                      .dwattr $C$DW$436, DW_AT_type(*$C$DW$T$38)
    4750                      .dwattr $C$DW$436, DW_AT_location[DW_OP_reg12]
    4751              ;*******************************************************************************
    4752              ;* FUNCTION NAME: xQueueCRReceive                                              *
    4753              ;*                                                                             *
    4754              ;*   Function Uses Regs : AC0,AC0,AC1,AC1,T0,AR0,XAR0,AR1,XAR1,AR2,XAR2,AR3,   *
    4755              ;*                        XAR3,SP,CARRY,TC1,M40,SATA,SATD,RDM,FRCT,SMUL        *
    4756              ;*   Stack Frame        : Compact (No Frame Pointer, w/ debug)                 *
    4757              ;*   Total Frame Size   : 10 words                                             *
    4758              ;*                        (2 return address/alignment)                         *
TMS320C55x Assembler PC v4.4.1 Sun Sep 09 04:48:36 2018

Tools Copyright (c) 1996-2012 Texas Instruments Incorporated
queue.asm                                                            PAGE  103

    4759              ;*                        (8 local values)                                     *
    4760              ;*   Min System Stack   : 1 word                                               *
    4761              ;*******************************************************************************
    4762 000d6c       _xQueueCRReceive:
    4763                      .dwcfi  cfa_offset, 1
    4764                      .dwcfi  save_reg_to_mem, 91, -1
    4765 000d6c 4EF7          AADD #-9, SP
    4766                      .dwcfi  cfa_offset, 10
    4767              $C$DW$437       .dwtag  DW_TAG_variable, DW_AT_name("xQueue")
    4768                      .dwattr $C$DW$437, DW_AT_TI_symbol_name("_xQueue")
    4769                      .dwattr $C$DW$437, DW_AT_type(*$C$DW$T$46)
    4770                      .dwattr $C$DW$437, DW_AT_location[DW_OP_bregx 0x24 0]
    4771              $C$DW$438       .dwtag  DW_TAG_variable, DW_AT_name("pvBuffer")
    4772                      .dwattr $C$DW$438, DW_AT_TI_symbol_name("_pvBuffer")
    4773                      .dwattr $C$DW$438, DW_AT_type(*$C$DW$T$3)
    4774                      .dwattr $C$DW$438, DW_AT_location[DW_OP_bregx 0x24 2]
    4775              $C$DW$439       .dwtag  DW_TAG_variable, DW_AT_name("xTicksToWait")
    4776                      .dwattr $C$DW$439, DW_AT_TI_symbol_name("_xTicksToWait")
    4777                      .dwattr $C$DW$439, DW_AT_type(*$C$DW$T$38)
    4778                      .dwattr $C$DW$439, DW_AT_location[DW_OP_bregx 0x24 4]
    4779              $C$DW$440       .dwtag  DW_TAG_variable, DW_AT_name("xReturn")
    4780                      .dwattr $C$DW$440, DW_AT_TI_symbol_name("_xReturn")
    4781                      .dwattr $C$DW$440, DW_AT_type(*$C$DW$T$43)
    4782                      .dwattr $C$DW$440, DW_AT_location[DW_OP_bregx 0x24 5]
    4783              $C$DW$441       .dwtag  DW_TAG_variable, DW_AT_name("pxQueue")
    4784                      .dwattr $C$DW$441, DW_AT_TI_symbol_name("_pxQueue")
    4785                      .dwattr $C$DW$441, DW_AT_type(*$C$DW$T$57)
    4786                      .dwattr $C$DW$441, DW_AT_location[DW_OP_bregx 0x24 6]
    4787 000d6e C408          MOV T0, *SP(#4) ; |2447| 
    4788 000d70 EB04          MOV XAR1, dbl(*SP(#2))
         000d72 95   
    4789 000d73 EB00          MOV XAR0, dbl(*SP(#0))
         000d75 85   
    4790                      .dwpsn  file "../FreeRTOS/Source/queue.c",line 2449,column 18,is_stmt
    4791 000d76 ED00          MOV dbl(*SP(#0)), XAR3
         000d78 BF   
    4792 000d79 EB0C          MOV XAR3, dbl(*SP(#6))
         000d7b B5   
    4793                      .dwpsn  file "../FreeRTOS/Source/queue.c",line 2454,column 3,is_stmt
    4794 000d7c 20     nop
    4795 000d7d 46B3   bset INTM
    4796                      .dwpsn  file "../FreeRTOS/Source/queue.c",line 2456,column 4,is_stmt
    4797 000d7f A96D          MOV *AR3(#28), AR1 ; |2456| 
         000d81 001C 
    4798 000d83 0419          BCC $C$L136,AR1 != #0 ; |2456| 
         000d85 1E   
    4799                                                      ; branchcc occurs ; |2456| 
    4800                      .dwpsn  file "../FreeRTOS/Source/queue.c",line 2460,column 5,is_stmt
    4801 000d86 A908          MOV *SP(#4), AR1 ; |2460| 
    4802 000d88 0409          BCC $C$L135,AR1 == #0 ; |2460| 
         000d8a 11   
    4803                                                      ; branchcc occurs ; |2460| 
    4804                      .dwpsn  file "../FreeRTOS/Source/queue.c",line 2464,column 6,is_stmt
    4805 000d8b 1412          AADD #18, AR0 ; |2464| 
         000d8d 84   
TMS320C55x Assembler PC v4.4.1 Sun Sep 09 04:48:36 2018

Tools Copyright (c) 1996-2012 Texas Instruments Incorporated
queue.asm                                                            PAGE  104

    4806              $C$DW$442       .dwtag  DW_TAG_TI_branch
    4807                      .dwattr $C$DW$442, DW_AT_low_pc(0x00)
    4808                      .dwattr $C$DW$442, DW_AT_name("_vCoRoutineAddToDelayedList")
    4809                      .dwattr $C$DW$442, DW_AT_TI_call
    4810              
    4811 000d8e 6C00          CALL #_vCoRoutineAddToDelayedList ; |2464| 
         000d90 0000!
    4812 000d92 2394  ||      MOV AR1, T0 ; |2464| 
    4813              
    4814                                                      ; call occurs [#_vCoRoutineAddToDelayedList] ; |2464| 
    4815                      .dwpsn  file "../FreeRTOS/Source/queue.c",line 2465,column 6,is_stmt
    4816 000d94 20     nop
    4817 000d95 46B2   bclr INTM
    4818                      .dwpsn  file "../FreeRTOS/Source/queue.c",line 2466,column 6,is_stmt
    4819 000d97 3E44          MOV #-4, T0
    4820 000d99 0600          B $C$L142 ; |2466| 
         000d9b 8B   
    4821                                                      ; branch occurs ; |2466| 
    4822 000d9c       $C$L135:    
    4823                      .dwpsn  file "../FreeRTOS/Source/queue.c",line 2470,column 6,is_stmt
    4824 000d9c 20     nop
    4825 000d9d 46B2   bclr INTM
    4826                      .dwpsn  file "../FreeRTOS/Source/queue.c",line 2471,column 6,is_stmt
    4827 000d9f 3C04          MOV #0, T0
    4828 000da1 0600          B $C$L142 ; |2471| 
         000da3 83   
    4829                                                      ; branch occurs ; |2471| 
    4830 000da4       $C$L136:    
    4831                      .dwpsn  file "../FreeRTOS/Source/queue.c",line 2479,column 3,is_stmt
    4832 000da4 20     nop
    4833 000da5 46B2   bclr INTM
    4834                      .dwpsn  file "../FreeRTOS/Source/queue.c",line 2481,column 3,is_stmt
    4835 000da7 20     nop
    4836 000da8 46B3   bset INTM
    4837                      .dwpsn  file "../FreeRTOS/Source/queue.c",line 2483,column 4,is_stmt
    4838 000daa A96D          MOV *AR3(#28), AR1 ; |2483| 
         000dac 001C 
    4839 000dae 0409          BCC $C$L140,AR1 == #0 ; |2483| 
         000db0 6E   
    4840                                                      ; branchcc occurs ; |2483| 
    4841                      .dwpsn  file "../FreeRTOS/Source/queue.c",line 2486,column 5,is_stmt
    4842 000db1 ED0C          MOV dbl(*SP(#6)), XAR2
         000db3 AF   
    4843 000db4 A96D          MOV *AR3(#30), AR1 ; |2486| 
         000db6 001E 
    4844 000db8 ED5D          MOV dbl(*AR2(short(#6))), XAR3
         000dba BF   
    4845              
    4846 000dbb 8E5D          MOV XAR3, dbl(*AR2(short(#6)))
         000dbd BB10 
         000dbf B590 
    4847              ||      AADD AR1, AR3 ; |2486| 
    4848              
    4849                      .dwpsn  file "../FreeRTOS/Source/queue.c",line 2487,column 5,is_stmt
    4850 000dc1 ED0C          MOV dbl(*SP(#6)), XAR3
TMS320C55x Assembler PC v4.4.1 Sun Sep 09 04:48:36 2018

Tools Copyright (c) 1996-2012 Texas Instruments Incorporated
queue.asm                                                            PAGE  105

         000dc3 BF   
    4851 000dc4 ED79          MOV dbl(*AR3(short(#4))), XAR3
         000dc6 BF   
    4852 000dc7 90B0          MOV XAR3, AC0
    4853 000dc9 ED0C          MOV dbl(*SP(#6)), XAR3
         000dcb BF   
    4854 000dcc ED7D          MOV dbl(*AR3(short(#6))), XAR3
         000dce BF   
    4855 000dcf 90B1          MOV XAR3, AC1
    4856 000dd1 1214          CMPU AC1 < AC0, TC1 ; |2487| 
         000dd3 04   
    4857 000dd4 64E4          BCC $C$L137,TC1 ; |2487| 
    4858                                                      ; branchcc occurs ; |2487| 
    4859                      .dwpsn  file "../FreeRTOS/Source/queue.c",line 2489,column 6,is_stmt
    4860 000dd6 ED0C          MOV dbl(*SP(#6)), XAR3
         000dd8 BF   
    4861 000dd9 ED61          MOV dbl(*AR3), XAR2
         000ddb AF   
    4862 000ddc EB7D          MOV XAR2, dbl(*AR3(short(#6)))
         000dde A5   
    4863                      .dwpsn  file "../FreeRTOS/Source/queue.c",line 2490,column 5,is_stmt
    4864 000ddf       $C$L137:    
    4865                      .dwpsn  file "../FreeRTOS/Source/queue.c",line 2495,column 5,is_stmt
    4866 000ddf ED0C          MOV dbl(*SP(#6)), XAR3
         000de1 BF   
    4867 000de2 F76D          SUB #1, *AR3(#28) ; |2495| 
         000de4 FFFF 
         000de6 001C 
    4868                      .dwpsn  file "../FreeRTOS/Source/queue.c",line 2496,column 5,is_stmt
    4869 000de8 ED0C          MOV dbl(*SP(#6)), XAR3
         000dea BF   
    4870 000deb ED04          MOV dbl(*SP(#2)), XAR0
         000ded 8F   
    4871 000dee ED7D          MOV dbl(*AR3(short(#6))), XAR1
         000df0 9F   
    4872 000df1 A46D          MOV *AR3(#30), T0 ; |2496| 
         000df3 001E 
    4873              $C$DW$443       .dwtag  DW_TAG_TI_branch
    4874                      .dwattr $C$DW$443, DW_AT_low_pc(0x00)
    4875                      .dwattr $C$DW$443, DW_AT_name("_memcpy")
    4876                      .dwattr $C$DW$443, DW_AT_TI_call
    4877 000df5 6C00          CALL #_memcpy ; |2496| 
         000df7 0000!
    4878                                                      ; call occurs [#_memcpy] ; |2496| 
    4879                      .dwpsn  file "../FreeRTOS/Source/queue.c",line 2498,column 5,is_stmt
    4880 000df9 E60A          MOV #1, *SP(#5) ; |2498| 
         000dfb 01   
    4881                      .dwpsn  file "../FreeRTOS/Source/queue.c",line 2501,column 5,is_stmt
    4882 000dfc ED0C          MOV dbl(*SP(#6)), XAR3
         000dfe BF   
    4883 000dff A96D          MOV *AR3(#8), AR1 ; |2501| 
         000e01 0008 
    4884 000e03 6219          BCC $C$L138,AR1 != #0 ; |2501| 
    4885                                                      ; branchcc occurs ; |2501| 
    4886 000e05 3C19          MOV #1, AR1
TMS320C55x Assembler PC v4.4.1 Sun Sep 09 04:48:36 2018

Tools Copyright (c) 1996-2012 Texas Instruments Incorporated
queue.asm                                                            PAGE  106

    4887 000e07 4A02          B $C$L139 ; |2501| 
    4888                                                      ; branch occurs ; |2501| 
    4889 000e09       $C$L138:    
    4890 000e09 3C09          MOV #0, AR1
    4891 000e0b       $C$L139:    
    4892 000e0b 0419          BCC $C$L141,AR1 != #0 ; |2501| 
         000e0d 14   
    4893                                                      ; branchcc occurs ; |2501| 
    4894                      .dwpsn  file "../FreeRTOS/Source/queue.c",line 2507,column 6,is_stmt
    4895 000e0e ED0C          MOV dbl(*SP(#6)), XAR0
         000e10 8F   
    4896 000e11 1408          AADD #8, AR0 ; |2507| 
         000e13 84   
    4897              $C$DW$444       .dwtag  DW_TAG_TI_branch
    4898                      .dwattr $C$DW$444, DW_AT_low_pc(0x00)
    4899                      .dwattr $C$DW$444, DW_AT_name("_xCoRoutineRemoveFromEventList")
    4900                      .dwattr $C$DW$444, DW_AT_TI_call
    4901 000e14 6C00          CALL #_xCoRoutineRemoveFromEventList ; |2507| 
         000e16 0000!
    4902                                                      ; call occurs [#_xCoRoutineRemoveFromEventList] ; |2507| 
    4903 000e18 6404          BCC $C$L141,T0 == #0 ; |2507| 
    4904                                                      ; branchcc occurs ; |2507| 
    4905                      .dwpsn  file "../FreeRTOS/Source/queue.c",line 2509,column 7,is_stmt
    4906 000e1a E60A          MOV #-5, *SP(#5) ; |2509| 
         000e1c FB   
    4907                      .dwpsn  file "../FreeRTOS/Source/queue.c",line 2510,column 6,is_stmt
    4908 000e1d 4A03          B $C$L141 ; |2510| 
    4909                                                      ; branch occurs ; |2510| 
    4910 000e1f       $C$L140:    
    4911                      .dwpsn  file "../FreeRTOS/Source/queue.c",line 2523,column 5,is_stmt
    4912 000e1f E60A          MOV #0, *SP(#5) ; |2523| 
         000e21 00   
    4913 000e22       $C$L141:    
    4914                      .dwpsn  file "../FreeRTOS/Source/queue.c",line 2526,column 3,is_stmt
    4915 000e22 20     nop
    4916 000e23 46B2   bclr INTM
    4917                      .dwpsn  file "../FreeRTOS/Source/queue.c",line 2528,column 3,is_stmt
    4918 000e25 A40A          MOV *SP(#5), T0 ; |2528| 
    4919 000e27       $C$L142:    
    4920                      .dwpsn  file "../FreeRTOS/Source/queue.c",line 2529,column 2,is_stmt
    4921 000e27 4E09          AADD #9, SP
    4922                      .dwcfi  cfa_offset, 1
    4923              $C$DW$445       .dwtag  DW_TAG_TI_branch
    4924                      .dwattr $C$DW$445, DW_AT_low_pc(0x00)
    4925                      .dwattr $C$DW$445, DW_AT_TI_return
    4926 000e29 4804          RET
    4927                                                      ; return occurs
    4928                      .dwattr $C$DW$433, DW_AT_TI_end_file("../FreeRTOS/Source/queue.c")
    4929                      .dwattr $C$DW$433, DW_AT_TI_end_line(0x9e1)
    4930                      .dwattr $C$DW$433, DW_AT_TI_end_column(0x02)
    4931                      .dwendentry
    4932                      .dwendtag $C$DW$433
    4933              
    4934 000e2b               .sect   ".text"
    4935                      .align 4
TMS320C55x Assembler PC v4.4.1 Sun Sep 09 04:48:36 2018

Tools Copyright (c) 1996-2012 Texas Instruments Incorporated
queue.asm                                                            PAGE  107

    4936                      .global _xQueueCRSendFromISR
    4937              
    4938              $C$DW$446       .dwtag  DW_TAG_subprogram, DW_AT_name("xQueueCRSendFromISR")
    4939                      .dwattr $C$DW$446, DW_AT_low_pc(_xQueueCRSendFromISR)
    4940                      .dwattr $C$DW$446, DW_AT_high_pc(0x00)
    4941                      .dwattr $C$DW$446, DW_AT_TI_symbol_name("_xQueueCRSendFromISR")
    4942                      .dwattr $C$DW$446, DW_AT_external
    4943                      .dwattr $C$DW$446, DW_AT_type(*$C$DW$T$43)
    4944                      .dwattr $C$DW$446, DW_AT_TI_begin_file("../FreeRTOS/Source/queue.c")
    4945                      .dwattr $C$DW$446, DW_AT_TI_begin_line(0x9e8)
    4946                      .dwattr $C$DW$446, DW_AT_TI_begin_column(0x0d)
    4947                      .dwattr $C$DW$446, DW_AT_TI_max_frame_size(0x0a)
    4948                      .dwpsn  file "../FreeRTOS/Source/queue.c",line 2537,column 2,is_stmt,address _xQueueCRSendFromISR
    4949              
    4950                      .dwfde $C$DW$CIE, _xQueueCRSendFromISR
    4951              $C$DW$447       .dwtag  DW_TAG_formal_parameter, DW_AT_name("xQueue")
    4952                      .dwattr $C$DW$447, DW_AT_TI_symbol_name("_xQueue")
    4953                      .dwattr $C$DW$447, DW_AT_type(*$C$DW$T$46)
    4954                      .dwattr $C$DW$447, DW_AT_location[DW_OP_reg17]
    4955              $C$DW$448       .dwtag  DW_TAG_formal_parameter, DW_AT_name("pvItemToQueue")
    4956                      .dwattr $C$DW$448, DW_AT_TI_symbol_name("_pvItemToQueue")
    4957                      .dwattr $C$DW$448, DW_AT_type(*$C$DW$T$59)
    4958                      .dwattr $C$DW$448, DW_AT_location[DW_OP_reg19]
    4959              $C$DW$449       .dwtag  DW_TAG_formal_parameter, DW_AT_name("xCoRoutinePreviouslyWoken")
    4960                      .dwattr $C$DW$449, DW_AT_TI_symbol_name("_xCoRoutinePreviouslyWoken")
    4961                      .dwattr $C$DW$449, DW_AT_type(*$C$DW$T$43)
    4962                      .dwattr $C$DW$449, DW_AT_location[DW_OP_reg12]
    4963              ;*******************************************************************************
    4964              ;* FUNCTION NAME: xQueueCRSendFromISR                                          *
    4965              ;*                                                                             *
    4966              ;*   Function Uses Regs : T0,AR0,XAR0,AR1,XAR1,AR2,AR3,XAR3,SP,TC1,M40,SATA,   *
    4967              ;*                        SATD,RDM,FRCT,SMUL                                   *
    4968              ;*   Stack Frame        : Compact (No Frame Pointer, w/ debug)                 *
    4969              ;*   Total Frame Size   : 10 words                                             *
    4970              ;*                        (2 return address/alignment)                         *
    4971              ;*                        (8 local values)                                     *
    4972              ;*   Min System Stack   : 1 word                                               *
    4973              ;*******************************************************************************
    4974 000e2c       _xQueueCRSendFromISR:
    4975                      .dwcfi  cfa_offset, 1
    4976                      .dwcfi  save_reg_to_mem, 91, -1
    4977 000e2c 4EF7          AADD #-9, SP
    4978                      .dwcfi  cfa_offset, 10
    4979              $C$DW$450       .dwtag  DW_TAG_variable, DW_AT_name("xQueue")
    4980                      .dwattr $C$DW$450, DW_AT_TI_symbol_name("_xQueue")
    4981                      .dwattr $C$DW$450, DW_AT_type(*$C$DW$T$46)
    4982                      .dwattr $C$DW$450, DW_AT_location[DW_OP_bregx 0x24 0]
    4983              $C$DW$451       .dwtag  DW_TAG_variable, DW_AT_name("pvItemToQueue")
    4984                      .dwattr $C$DW$451, DW_AT_TI_symbol_name("_pvItemToQueue")
    4985                      .dwattr $C$DW$451, DW_AT_type(*$C$DW$T$59)
    4986                      .dwattr $C$DW$451, DW_AT_location[DW_OP_bregx 0x24 2]
    4987              $C$DW$452       .dwtag  DW_TAG_variable, DW_AT_name("xCoRoutinePreviouslyWoken")
    4988                      .dwattr $C$DW$452, DW_AT_TI_symbol_name("_xCoRoutinePreviouslyWoken")
    4989                      .dwattr $C$DW$452, DW_AT_type(*$C$DW$T$43)
    4990                      .dwattr $C$DW$452, DW_AT_location[DW_OP_bregx 0x24 4]
TMS320C55x Assembler PC v4.4.1 Sun Sep 09 04:48:36 2018

Tools Copyright (c) 1996-2012 Texas Instruments Incorporated
queue.asm                                                            PAGE  108

    4991              $C$DW$453       .dwtag  DW_TAG_variable, DW_AT_name("pxQueue")
    4992                      .dwattr $C$DW$453, DW_AT_TI_symbol_name("_pxQueue")
    4993                      .dwattr $C$DW$453, DW_AT_type(*$C$DW$T$57)
    4994                      .dwattr $C$DW$453, DW_AT_location[DW_OP_bregx 0x24 6]
    4995 000e2e C408          MOV T0, *SP(#4) ; |2537| 
    4996 000e30 EB04          MOV XAR1, dbl(*SP(#2))
         000e32 95   
    4997 000e33 EB00          MOV XAR0, dbl(*SP(#0))
         000e35 85   
    4998                      .dwpsn  file "../FreeRTOS/Source/queue.c",line 2538,column 18,is_stmt
    4999 000e36 ED00          MOV dbl(*SP(#0)), XAR3
         000e38 BF   
    5000 000e39 EB0C          MOV XAR3, dbl(*SP(#6))
         000e3b B5   
    5001                      .dwpsn  file "../FreeRTOS/Source/queue.c",line 2542,column 3,is_stmt
    5002 000e3c AA6D          MOV *AR3(#28), AR2 ; |2542| 
         000e3e 001C 
    5003 000e40 A96D          MOV *AR3(#29), AR1 ; |2542| 
         000e42 001D 
    5004 000e44 12A8          CMPU AR2 >= AR1, TC1 ; |2542| 
         000e46 94   
    5005 000e47 0464          BCC $C$L145,TC1 ; |2542| 
         000e49 2F   
    5006                                                      ; branchcc occurs ; |2542| 
    5007                      .dwpsn  file "../FreeRTOS/Source/queue.c",line 2544,column 4,is_stmt
    5008 000e4a ED04          MOV dbl(*SP(#2)), XAR1
         000e4c 9F   
    5009              $C$DW$454       .dwtag  DW_TAG_TI_branch
    5010                      .dwattr $C$DW$454, DW_AT_low_pc(0x00)
    5011                      .dwattr $C$DW$454, DW_AT_name("_prvCopyDataToQueue")
    5012                      .dwattr $C$DW$454, DW_AT_TI_call
    5013              
    5014 000e4d 08FB          CALL #_prvCopyDataToQueue ; |2544| 
         000e4f A2   
    5015 000e50 3D04  ||      MOV #0, T0
    5016              
    5017                                                      ; call occurs [#_prvCopyDataToQueue] ; |2544| 
    5018                      .dwpsn  file "../FreeRTOS/Source/queue.c",line 2548,column 4,is_stmt
    5019 000e52 A908          MOV *SP(#4), AR1 ; |2548| 
    5020 000e54 0419          BCC $C$L145,AR1 != #0 ; |2548| 
         000e56 22   
    5021                                                      ; branchcc occurs ; |2548| 
    5022                      .dwpsn  file "../FreeRTOS/Source/queue.c",line 2550,column 5,is_stmt
    5023 000e57 ED0C          MOV dbl(*SP(#6)), XAR3
         000e59 BF   
    5024 000e5a A96D          MOV *AR3(#18), AR1 ; |2550| 
         000e5c 0012 
    5025 000e5e 6219          BCC $C$L143,AR1 != #0 ; |2550| 
    5026                                                      ; branchcc occurs ; |2550| 
    5027 000e60 3C19          MOV #1, AR1
    5028 000e62 4A02          B $C$L144 ; |2550| 
    5029                                                      ; branch occurs ; |2550| 
    5030 000e64       $C$L143:    
    5031 000e64 3C09          MOV #0, AR1
    5032 000e66       $C$L144:    
TMS320C55x Assembler PC v4.4.1 Sun Sep 09 04:48:36 2018

Tools Copyright (c) 1996-2012 Texas Instruments Incorporated
queue.asm                                                            PAGE  109

    5033 000e66 0419          BCC $C$L145,AR1 != #0 ; |2550| 
         000e68 10   
    5034                                                      ; branchcc occurs ; |2550| 
    5035                      .dwpsn  file "../FreeRTOS/Source/queue.c",line 2552,column 6,is_stmt
    5036 000e69 ED0C          MOV dbl(*SP(#6)), XAR0
         000e6b 8F   
    5037 000e6c 1412          AADD #18, AR0 ; |2552| 
         000e6e 84   
    5038              $C$DW$455       .dwtag  DW_TAG_TI_branch
    5039                      .dwattr $C$DW$455, DW_AT_low_pc(0x00)
    5040                      .dwattr $C$DW$455, DW_AT_name("_xCoRoutineRemoveFromEventList")
    5041                      .dwattr $C$DW$455, DW_AT_TI_call
    5042 000e6f 6C00          CALL #_xCoRoutineRemoveFromEventList ; |2552| 
         000e71 0000!
    5043                                                      ; call occurs [#_xCoRoutineRemoveFromEventList] ; |2552| 
    5044 000e73 6204          BCC $C$L145,T0 == #0 ; |2552| 
    5045                                                      ; branchcc occurs ; |2552| 
    5046                      .dwpsn  file "../FreeRTOS/Source/queue.c",line 2554,column 7,is_stmt
    5047 000e75 3C14          MOV #1, T0
    5048 000e77 4A02          B $C$L146 ; |2554| 
    5049                                                      ; branch occurs ; |2554| 
    5050 000e79       $C$L145:    
    5051                      .dwpsn  file "../FreeRTOS/Source/queue.c",line 2576,column 3,is_stmt
    5052 000e79 A408          MOV *SP(#4), T0 ; |2576| 
    5053 000e7b       $C$L146:    
    5054                      .dwpsn  file "../FreeRTOS/Source/queue.c",line 2577,column 2,is_stmt
    5055 000e7b 4E09          AADD #9, SP
    5056                      .dwcfi  cfa_offset, 1
    5057              $C$DW$456       .dwtag  DW_TAG_TI_branch
    5058                      .dwattr $C$DW$456, DW_AT_low_pc(0x00)
    5059                      .dwattr $C$DW$456, DW_AT_TI_return
    5060 000e7d 4804          RET
    5061                                                      ; return occurs
    5062                      .dwattr $C$DW$446, DW_AT_TI_end_file("../FreeRTOS/Source/queue.c")
    5063                      .dwattr $C$DW$446, DW_AT_TI_end_line(0xa11)
    5064                      .dwattr $C$DW$446, DW_AT_TI_end_column(0x02)
    5065                      .dwendentry
    5066                      .dwendtag $C$DW$446
    5067              
    5068 000e7f               .sect   ".text"
    5069                      .align 4
    5070                      .global _xQueueCRReceiveFromISR
    5071              
    5072              $C$DW$457       .dwtag  DW_TAG_subprogram, DW_AT_name("xQueueCRReceiveFromISR")
    5073                      .dwattr $C$DW$457, DW_AT_low_pc(_xQueueCRReceiveFromISR)
    5074                      .dwattr $C$DW$457, DW_AT_high_pc(0x00)
    5075                      .dwattr $C$DW$457, DW_AT_TI_symbol_name("_xQueueCRReceiveFromISR")
    5076                      .dwattr $C$DW$457, DW_AT_external
    5077                      .dwattr $C$DW$457, DW_AT_type(*$C$DW$T$43)
    5078                      .dwattr $C$DW$457, DW_AT_TI_begin_file("../FreeRTOS/Source/queue.c")
    5079                      .dwattr $C$DW$457, DW_AT_TI_begin_line(0xa18)
    5080                      .dwattr $C$DW$457, DW_AT_TI_begin_column(0x0d)
    5081                      .dwattr $C$DW$457, DW_AT_TI_max_frame_size(0x0c)
    5082                      .dwpsn  file "../FreeRTOS/Source/queue.c",line 2585,column 2,is_stmt,address _xQueueCRReceiveFromISR
    5083              
TMS320C55x Assembler PC v4.4.1 Sun Sep 09 04:48:36 2018

Tools Copyright (c) 1996-2012 Texas Instruments Incorporated
queue.asm                                                            PAGE  110

    5084                      .dwfde $C$DW$CIE, _xQueueCRReceiveFromISR
    5085              $C$DW$458       .dwtag  DW_TAG_formal_parameter, DW_AT_name("xQueue")
    5086                      .dwattr $C$DW$458, DW_AT_TI_symbol_name("_xQueue")
    5087                      .dwattr $C$DW$458, DW_AT_type(*$C$DW$T$46)
    5088                      .dwattr $C$DW$458, DW_AT_location[DW_OP_reg17]
    5089              $C$DW$459       .dwtag  DW_TAG_formal_parameter, DW_AT_name("pvBuffer")
    5090                      .dwattr $C$DW$459, DW_AT_TI_symbol_name("_pvBuffer")
    5091                      .dwattr $C$DW$459, DW_AT_type(*$C$DW$T$3)
    5092                      .dwattr $C$DW$459, DW_AT_location[DW_OP_reg19]
    5093              $C$DW$460       .dwtag  DW_TAG_formal_parameter, DW_AT_name("pxCoRoutineWoken")
    5094                      .dwattr $C$DW$460, DW_AT_TI_symbol_name("_pxCoRoutineWoken")
    5095                      .dwattr $C$DW$460, DW_AT_type(*$C$DW$T$110)
    5096                      .dwattr $C$DW$460, DW_AT_location[DW_OP_reg21]
    5097              ;*******************************************************************************
    5098              ;* FUNCTION NAME: xQueueCRReceiveFromISR                                       *
    5099              ;*                                                                             *
    5100              ;*   Function Uses Regs : AC0,AC0,AC1,AC1,T0,AR0,XAR0,AR1,XAR1,AR2,XAR2,AR3,   *
    5101              ;*                        XAR3,SP,CARRY,TC1,M40,SATA,SATD,RDM,FRCT,SMUL        *
    5102              ;*   Stack Frame        : Compact (No Frame Pointer, w/ debug)                 *
    5103              ;*   Total Frame Size   : 12 words                                             *
    5104              ;*                        (2 return address/alignment)                         *
    5105              ;*                        (10 local values)                                    *
    5106              ;*   Min System Stack   : 1 word                                               *
    5107              ;*******************************************************************************
    5108 000e80       _xQueueCRReceiveFromISR:
    5109                      .dwcfi  cfa_offset, 1
    5110                      .dwcfi  save_reg_to_mem, 91, -1
    5111 000e80 4EF5          AADD #-11, SP
    5112                      .dwcfi  cfa_offset, 12
    5113              $C$DW$461       .dwtag  DW_TAG_variable, DW_AT_name("xQueue")
    5114                      .dwattr $C$DW$461, DW_AT_TI_symbol_name("_xQueue")
    5115                      .dwattr $C$DW$461, DW_AT_type(*$C$DW$T$46)
    5116                      .dwattr $C$DW$461, DW_AT_location[DW_OP_bregx 0x24 0]
    5117              $C$DW$462       .dwtag  DW_TAG_variable, DW_AT_name("pvBuffer")
    5118                      .dwattr $C$DW$462, DW_AT_TI_symbol_name("_pvBuffer")
    5119                      .dwattr $C$DW$462, DW_AT_type(*$C$DW$T$3)
    5120                      .dwattr $C$DW$462, DW_AT_location[DW_OP_bregx 0x24 2]
    5121              $C$DW$463       .dwtag  DW_TAG_variable, DW_AT_name("pxCoRoutineWoken")
    5122                      .dwattr $C$DW$463, DW_AT_TI_symbol_name("_pxCoRoutineWoken")
    5123                      .dwattr $C$DW$463, DW_AT_type(*$C$DW$T$110)
    5124                      .dwattr $C$DW$463, DW_AT_location[DW_OP_bregx 0x24 4]
    5125              $C$DW$464       .dwtag  DW_TAG_variable, DW_AT_name("xReturn")
    5126                      .dwattr $C$DW$464, DW_AT_TI_symbol_name("_xReturn")
    5127                      .dwattr $C$DW$464, DW_AT_type(*$C$DW$T$43)
    5128                      .dwattr $C$DW$464, DW_AT_location[DW_OP_bregx 0x24 6]
    5129              $C$DW$465       .dwtag  DW_TAG_variable, DW_AT_name("pxQueue")
    5130                      .dwattr $C$DW$465, DW_AT_TI_symbol_name("_pxQueue")
    5131                      .dwattr $C$DW$465, DW_AT_type(*$C$DW$T$57)
    5132                      .dwattr $C$DW$465, DW_AT_location[DW_OP_bregx 0x24 8]
    5133 000e82 EB08          MOV XAR2, dbl(*SP(#4))
         000e84 A5   
    5134 000e85 EB04          MOV XAR1, dbl(*SP(#2))
         000e87 95   
    5135 000e88 EB00          MOV XAR0, dbl(*SP(#0))
         000e8a 85   
TMS320C55x Assembler PC v4.4.1 Sun Sep 09 04:48:36 2018

Tools Copyright (c) 1996-2012 Texas Instruments Incorporated
queue.asm                                                            PAGE  111

    5136                      .dwpsn  file "../FreeRTOS/Source/queue.c",line 2587,column 18,is_stmt
    5137 000e8b ED00          MOV dbl(*SP(#0)), XAR3
         000e8d BF   
    5138 000e8e EB10          MOV XAR3, dbl(*SP(#8))
         000e90 B5   
    5139                      .dwpsn  file "../FreeRTOS/Source/queue.c",line 2591,column 3,is_stmt
    5140 000e91 A96D          MOV *AR3(#28), AR1 ; |2591| 
         000e93 001C 
    5141 000e95 0409          BCC $C$L151,AR1 == #0 ; |2591| 
         000e97 7B   
    5142                                                      ; branchcc occurs ; |2591| 
    5143                      .dwpsn  file "../FreeRTOS/Source/queue.c",line 2594,column 4,is_stmt
    5144 000e98 ED10          MOV dbl(*SP(#8)), XAR2
         000e9a AF   
    5145 000e9b A96D          MOV *AR3(#30), AR1 ; |2594| 
         000e9d 001E 
    5146 000e9f ED5D          MOV dbl(*AR2(short(#6))), XAR3
         000ea1 BF   
    5147              
    5148 000ea2 8E5D          MOV XAR3, dbl(*AR2(short(#6)))
         000ea4 BB10 
         000ea6 B590 
    5149              ||      AADD AR1, AR3 ; |2594| 
    5150              
    5151                      .dwpsn  file "../FreeRTOS/Source/queue.c",line 2595,column 4,is_stmt
    5152 000ea8 ED10          MOV dbl(*SP(#8)), XAR3
         000eaa BF   
    5153 000eab ED79          MOV dbl(*AR3(short(#4))), XAR3
         000ead BF   
    5154 000eae 90B0          MOV XAR3, AC0
    5155 000eb0 ED10          MOV dbl(*SP(#8)), XAR3
         000eb2 BF   
    5156 000eb3 ED7D          MOV dbl(*AR3(short(#6))), XAR3
         000eb5 BF   
    5157 000eb6 90B1          MOV XAR3, AC1
    5158 000eb8 1214          CMPU AC1 < AC0, TC1 ; |2595| 
         000eba 04   
    5159 000ebb 64E4          BCC $C$L147,TC1 ; |2595| 
    5160                                                      ; branchcc occurs ; |2595| 
    5161                      .dwpsn  file "../FreeRTOS/Source/queue.c",line 2597,column 5,is_stmt
    5162 000ebd ED10          MOV dbl(*SP(#8)), XAR3
         000ebf BF   
    5163 000ec0 ED61          MOV dbl(*AR3), XAR2
         000ec2 AF   
    5164 000ec3 EB7D          MOV XAR2, dbl(*AR3(short(#6)))
         000ec5 A5   
    5165                      .dwpsn  file "../FreeRTOS/Source/queue.c",line 2598,column 4,is_stmt
    5166 000ec6       $C$L147:    
    5167                      .dwpsn  file "../FreeRTOS/Source/queue.c",line 2603,column 4,is_stmt
    5168 000ec6 ED10          MOV dbl(*SP(#8)), XAR3
         000ec8 BF   
    5169 000ec9 F76D          SUB #1, *AR3(#28) ; |2603| 
         000ecb FFFF 
         000ecd 001C 
    5170                      .dwpsn  file "../FreeRTOS/Source/queue.c",line 2604,column 4,is_stmt
TMS320C55x Assembler PC v4.4.1 Sun Sep 09 04:48:36 2018

Tools Copyright (c) 1996-2012 Texas Instruments Incorporated
queue.asm                                                            PAGE  112

    5171 000ecf ED10          MOV dbl(*SP(#8)), XAR3
         000ed1 BF   
    5172 000ed2 ED04          MOV dbl(*SP(#2)), XAR0
         000ed4 8F   
    5173 000ed5 ED7D          MOV dbl(*AR3(short(#6))), XAR1
         000ed7 9F   
    5174 000ed8 A46D          MOV *AR3(#30), T0 ; |2604| 
         000eda 001E 
    5175              $C$DW$466       .dwtag  DW_TAG_TI_branch
    5176                      .dwattr $C$DW$466, DW_AT_low_pc(0x00)
    5177                      .dwattr $C$DW$466, DW_AT_name("_memcpy")
    5178                      .dwattr $C$DW$466, DW_AT_TI_call
    5179 000edc 6C00          CALL #_memcpy ; |2604| 
         000ede 0000!
    5180                                                      ; call occurs [#_memcpy] ; |2604| 
    5181                      .dwpsn  file "../FreeRTOS/Source/queue.c",line 2606,column 4,is_stmt
    5182 000ee0 ED08          MOV dbl(*SP(#4)), XAR3
         000ee2 BF   
    5183 000ee3 A961          MOV *AR3, AR1 ; |2606| 
    5184 000ee5 0419          BCC $C$L150,AR1 != #0 ; |2606| 
         000ee7 26   
    5185                                                      ; branchcc occurs ; |2606| 
    5186                      .dwpsn  file "../FreeRTOS/Source/queue.c",line 2608,column 5,is_stmt
    5187 000ee8 ED10          MOV dbl(*SP(#8)), XAR3
         000eea BF   
    5188 000eeb A96D          MOV *AR3(#8), AR1 ; |2608| 
         000eed 0008 
    5189 000eef 6219          BCC $C$L148,AR1 != #0 ; |2608| 
    5190                                                      ; branchcc occurs ; |2608| 
    5191 000ef1 3C19          MOV #1, AR1
    5192 000ef3 4A02          B $C$L149 ; |2608| 
    5193                                                      ; branch occurs ; |2608| 
    5194 000ef5       $C$L148:    
    5195 000ef5 3C09          MOV #0, AR1
    5196 000ef7       $C$L149:    
    5197 000ef7 0419          BCC $C$L150,AR1 != #0 ; |2608| 
         000ef9 14   
    5198                                                      ; branchcc occurs ; |2608| 
    5199                      .dwpsn  file "../FreeRTOS/Source/queue.c",line 2610,column 6,is_stmt
    5200 000efa ED10          MOV dbl(*SP(#8)), XAR0
         000efc 8F   
    5201 000efd 1408          AADD #8, AR0 ; |2610| 
         000eff 84   
    5202              $C$DW$467       .dwtag  DW_TAG_TI_branch
    5203                      .dwattr $C$DW$467, DW_AT_low_pc(0x00)
    5204                      .dwattr $C$DW$467, DW_AT_name("_xCoRoutineRemoveFromEventList")
    5205                      .dwattr $C$DW$467, DW_AT_TI_call
    5206 000f00 6C00          CALL #_xCoRoutineRemoveFromEventList ; |2610| 
         000f02 0000!
    5207                                                      ; call occurs [#_xCoRoutineRemoveFromEventList] ; |2610| 
    5208 000f04 6404          BCC $C$L150,T0 == #0 ; |2610| 
    5209                                                      ; branchcc occurs ; |2610| 
    5210                      .dwpsn  file "../FreeRTOS/Source/queue.c",line 2612,column 7,is_stmt
    5211 000f06 ED08          MOV dbl(*SP(#4)), XAR3
         000f08 BF   
TMS320C55x Assembler PC v4.4.1 Sun Sep 09 04:48:36 2018

Tools Copyright (c) 1996-2012 Texas Instruments Incorporated
queue.asm                                                            PAGE  113

    5212 000f09 E661          MOV #1, *AR3 ; |2612| 
         000f0b 01   
    5213                      .dwpsn  file "../FreeRTOS/Source/queue.c",line 2613,column 6,is_stmt
    5214 000f0c 4A00          B $C$L150 ; |2613| 
    5215                                                      ; branch occurs ; |2613| 
    5216 000f0e       $C$L150:    
    5217                      .dwpsn  file "../FreeRTOS/Source/queue.c",line 2629,column 4,is_stmt
    5218 000f0e E60C          MOV #1, *SP(#6) ; |2629| 
         000f10 01   
    5219                      .dwpsn  file "../FreeRTOS/Source/queue.c",line 2630,column 3,is_stmt
    5220 000f11 4A03          B $C$L152 ; |2630| 
    5221                                                      ; branch occurs ; |2630| 
    5222 000f13       $C$L151:    
    5223                      .dwpsn  file "../FreeRTOS/Source/queue.c",line 2633,column 4,is_stmt
    5224 000f13 E60C          MOV #0, *SP(#6) ; |2633| 
         000f15 00   
    5225 000f16       $C$L152:    
    5226                      .dwpsn  file "../FreeRTOS/Source/queue.c",line 2636,column 3,is_stmt
    5227 000f16 A40C          MOV *SP(#6), T0 ; |2636| 
    5228                      .dwpsn  file "../FreeRTOS/Source/queue.c",line 2637,column 2,is_stmt
    5229 000f18 4E0B          AADD #11, SP
    5230                      .dwcfi  cfa_offset, 1
    5231              $C$DW$468       .dwtag  DW_TAG_TI_branch
    5232                      .dwattr $C$DW$468, DW_AT_low_pc(0x00)
    5233                      .dwattr $C$DW$468, DW_AT_TI_return
    5234 000f1a 4804          RET
    5235                                                      ; return occurs
    5236                      .dwattr $C$DW$457, DW_AT_TI_end_file("../FreeRTOS/Source/queue.c")
    5237                      .dwattr $C$DW$457, DW_AT_TI_end_line(0xa4d)
    5238                      .dwattr $C$DW$457, DW_AT_TI_end_column(0x02)
    5239                      .dwendentry
    5240                      .dwendtag $C$DW$457
    5241              
    5242              ;******************************************************************************
    5243              ;* UNDEFINED EXTERNAL REFERENCES                                              *
    5244              ;******************************************************************************
    5245                      .global _vPortYield
    5246                      .global _pvPortMalloc
    5247                      .global _vPortFree
    5248                      .global _vListInitialise
    5249                      .global _vTaskSuspendAll
    5250                      .global _xTaskResumeAll
    5251                      .global _vTaskPlaceOnEventList
    5252                      .global _xTaskRemoveFromEventList
    5253                      .global _xTaskCheckForTimeOut
    5254                      .global _vTaskMissedYield
    5255                      .global _vTaskInternalSetTimeOutState
    5256                      .global _vCoRoutineAddToDelayedList
    5257                      .global _xCoRoutineRemoveFromEventList
    5258                      .global _usCriticalNesting
    5259                      .global _memcpy
    5260              
    5261              ;*******************************************************************************
    5262              ;* TYPE INFORMATION                                                            *
    5263              ;*******************************************************************************
TMS320C55x Assembler PC v4.4.1 Sun Sep 09 04:48:36 2018

Tools Copyright (c) 1996-2012 Texas Instruments Incorporated
queue.asm                                                            PAGE  114

    5264              
    5265              $C$DW$T$22      .dwtag  DW_TAG_union_type
    5266                      .dwattr $C$DW$T$22, DW_AT_byte_size(0x04)
    5267              $C$DW$469       .dwtag  DW_TAG_member
    5268                      .dwattr $C$DW$469, DW_AT_type(*$C$DW$T$20)
    5269                      .dwattr $C$DW$469, DW_AT_name("xQueue")
    5270                      .dwattr $C$DW$469, DW_AT_TI_symbol_name("_xQueue")
    5271                      .dwattr $C$DW$469, DW_AT_data_member_location[DW_OP_plus_uconst 0x0]
    5272                      .dwattr $C$DW$469, DW_AT_accessibility(DW_ACCESS_public)
    5273              $C$DW$470       .dwtag  DW_TAG_member
    5274                      .dwattr $C$DW$470, DW_AT_type(*$C$DW$T$21)
    5275                      .dwattr $C$DW$470, DW_AT_name("xSemaphore")
    5276                      .dwattr $C$DW$470, DW_AT_TI_symbol_name("_xSemaphore")
    5277                      .dwattr $C$DW$470, DW_AT_data_member_location[DW_OP_plus_uconst 0x0]
    5278                      .dwattr $C$DW$470, DW_AT_accessibility(DW_ACCESS_public)
    5279                      .dwendtag $C$DW$T$22
    5280              
    5281              
    5282              $C$DW$T$29      .dwtag  DW_TAG_structure_type
    5283                      .dwattr $C$DW$T$29, DW_AT_name("QueueDefinition")
    5284                      .dwattr $C$DW$T$29, DW_AT_byte_size(0x22)
    5285              $C$DW$471       .dwtag  DW_TAG_member
    5286                      .dwattr $C$DW$471, DW_AT_type(*$C$DW$T$24)
    5287                      .dwattr $C$DW$471, DW_AT_name("pcHead")
    5288                      .dwattr $C$DW$471, DW_AT_TI_symbol_name("_pcHead")
    5289                      .dwattr $C$DW$471, DW_AT_data_member_location[DW_OP_plus_uconst 0x0]
    5290                      .dwattr $C$DW$471, DW_AT_accessibility(DW_ACCESS_public)
    5291              $C$DW$472       .dwtag  DW_TAG_member
    5292                      .dwattr $C$DW$472, DW_AT_type(*$C$DW$T$24)
    5293                      .dwattr $C$DW$472, DW_AT_name("pcWriteTo")
    5294                      .dwattr $C$DW$472, DW_AT_TI_symbol_name("_pcWriteTo")
    5295                      .dwattr $C$DW$472, DW_AT_data_member_location[DW_OP_plus_uconst 0x2]
    5296                      .dwattr $C$DW$472, DW_AT_accessibility(DW_ACCESS_public)
    5297              $C$DW$473       .dwtag  DW_TAG_member
    5298                      .dwattr $C$DW$473, DW_AT_type(*$C$DW$T$22)
    5299                      .dwattr $C$DW$473, DW_AT_name("u")
    5300                      .dwattr $C$DW$473, DW_AT_TI_symbol_name("_u")
    5301                      .dwattr $C$DW$473, DW_AT_data_member_location[DW_OP_plus_uconst 0x4]
    5302                      .dwattr $C$DW$473, DW_AT_accessibility(DW_ACCESS_public)
    5303              $C$DW$474       .dwtag  DW_TAG_member
    5304                      .dwattr $C$DW$474, DW_AT_type(*$C$DW$T$25)
    5305                      .dwattr $C$DW$474, DW_AT_name("xTasksWaitingToSend")
    5306                      .dwattr $C$DW$474, DW_AT_TI_symbol_name("_xTasksWaitingToSend")
    5307                      .dwattr $C$DW$474, DW_AT_data_member_location[DW_OP_plus_uconst 0x8]
    5308                      .dwattr $C$DW$474, DW_AT_accessibility(DW_ACCESS_public)
    5309              $C$DW$475       .dwtag  DW_TAG_member
    5310                      .dwattr $C$DW$475, DW_AT_type(*$C$DW$T$25)
    5311                      .dwattr $C$DW$475, DW_AT_name("xTasksWaitingToReceive")
    5312                      .dwattr $C$DW$475, DW_AT_TI_symbol_name("_xTasksWaitingToReceive")
    5313                      .dwattr $C$DW$475, DW_AT_data_member_location[DW_OP_plus_uconst 0x12]
    5314                      .dwattr $C$DW$475, DW_AT_accessibility(DW_ACCESS_public)
    5315              $C$DW$476       .dwtag  DW_TAG_member
    5316                      .dwattr $C$DW$476, DW_AT_type(*$C$DW$T$27)
    5317                      .dwattr $C$DW$476, DW_AT_name("uxMessagesWaiting")
    5318                      .dwattr $C$DW$476, DW_AT_TI_symbol_name("_uxMessagesWaiting")
TMS320C55x Assembler PC v4.4.1 Sun Sep 09 04:48:36 2018

Tools Copyright (c) 1996-2012 Texas Instruments Incorporated
queue.asm                                                            PAGE  115

    5319                      .dwattr $C$DW$476, DW_AT_data_member_location[DW_OP_plus_uconst 0x1c]
    5320                      .dwattr $C$DW$476, DW_AT_accessibility(DW_ACCESS_public)
    5321              $C$DW$477       .dwtag  DW_TAG_member
    5322                      .dwattr $C$DW$477, DW_AT_type(*$C$DW$T$26)
    5323                      .dwattr $C$DW$477, DW_AT_name("uxLength")
    5324                      .dwattr $C$DW$477, DW_AT_TI_symbol_name("_uxLength")
    5325                      .dwattr $C$DW$477, DW_AT_data_member_location[DW_OP_plus_uconst 0x1d]
    5326                      .dwattr $C$DW$477, DW_AT_accessibility(DW_ACCESS_public)
    5327              $C$DW$478       .dwtag  DW_TAG_member
    5328                      .dwattr $C$DW$478, DW_AT_type(*$C$DW$T$26)
    5329                      .dwattr $C$DW$478, DW_AT_name("uxItemSize")
    5330                      .dwattr $C$DW$478, DW_AT_TI_symbol_name("_uxItemSize")
    5331                      .dwattr $C$DW$478, DW_AT_data_member_location[DW_OP_plus_uconst 0x1e]
    5332                      .dwattr $C$DW$478, DW_AT_accessibility(DW_ACCESS_public)
    5333              $C$DW$479       .dwtag  DW_TAG_member
    5334                      .dwattr $C$DW$479, DW_AT_type(*$C$DW$T$28)
    5335                      .dwattr $C$DW$479, DW_AT_name("cRxLock")
    5336                      .dwattr $C$DW$479, DW_AT_TI_symbol_name("_cRxLock")
    5337                      .dwattr $C$DW$479, DW_AT_data_member_location[DW_OP_plus_uconst 0x1f]
    5338                      .dwattr $C$DW$479, DW_AT_accessibility(DW_ACCESS_public)
    5339              $C$DW$480       .dwtag  DW_TAG_member
    5340                      .dwattr $C$DW$480, DW_AT_type(*$C$DW$T$28)
    5341                      .dwattr $C$DW$480, DW_AT_name("cTxLock")
    5342                      .dwattr $C$DW$480, DW_AT_TI_symbol_name("_cTxLock")
    5343                      .dwattr $C$DW$480, DW_AT_data_member_location[DW_OP_plus_uconst 0x20]
    5344                      .dwattr $C$DW$480, DW_AT_accessibility(DW_ACCESS_public)
    5345                      .dwendtag $C$DW$T$29
    5346              
    5347              $C$DW$T$45      .dwtag  DW_TAG_pointer_type
    5348                      .dwattr $C$DW$T$45, DW_AT_type(*$C$DW$T$29)
    5349                      .dwattr $C$DW$T$45, DW_AT_address_class(0x17)
    5350              $C$DW$T$46      .dwtag  DW_TAG_typedef, DW_AT_name("QueueHandle_t")
    5351                      .dwattr $C$DW$T$46, DW_AT_type(*$C$DW$T$45)
    5352                      .dwattr $C$DW$T$46, DW_AT_language(DW_LANG_C)
    5353              $C$DW$481       .dwtag  DW_TAG_TI_far_type
    5354                      .dwattr $C$DW$481, DW_AT_type(*$C$DW$T$46)
    5355              $C$DW$T$47      .dwtag  DW_TAG_const_type
    5356                      .dwattr $C$DW$T$47, DW_AT_type(*$C$DW$481)
    5357              $C$DW$T$52      .dwtag  DW_TAG_typedef, DW_AT_name("xQUEUE")
    5358                      .dwattr $C$DW$T$52, DW_AT_type(*$C$DW$T$29)
    5359                      .dwattr $C$DW$T$52, DW_AT_language(DW_LANG_C)
    5360              $C$DW$T$53      .dwtag  DW_TAG_typedef, DW_AT_name("Queue_t")
    5361                      .dwattr $C$DW$T$53, DW_AT_type(*$C$DW$T$52)
    5362                      .dwattr $C$DW$T$53, DW_AT_language(DW_LANG_C)
    5363              $C$DW$482       .dwtag  DW_TAG_TI_far_type
    5364                      .dwattr $C$DW$482, DW_AT_type(*$C$DW$T$53)
    5365              $C$DW$T$54      .dwtag  DW_TAG_const_type
    5366                      .dwattr $C$DW$T$54, DW_AT_type(*$C$DW$482)
    5367              $C$DW$T$55      .dwtag  DW_TAG_pointer_type
    5368                      .dwattr $C$DW$T$55, DW_AT_type(*$C$DW$T$54)
    5369                      .dwattr $C$DW$T$55, DW_AT_address_class(0x17)
    5370              $C$DW$T$56      .dwtag  DW_TAG_pointer_type
    5371                      .dwattr $C$DW$T$56, DW_AT_type(*$C$DW$T$53)
    5372                      .dwattr $C$DW$T$56, DW_AT_address_class(0x17)
    5373              $C$DW$483       .dwtag  DW_TAG_TI_far_type
TMS320C55x Assembler PC v4.4.1 Sun Sep 09 04:48:36 2018

Tools Copyright (c) 1996-2012 Texas Instruments Incorporated
queue.asm                                                            PAGE  116

    5374                      .dwattr $C$DW$483, DW_AT_type(*$C$DW$T$56)
    5375              $C$DW$T$57      .dwtag  DW_TAG_const_type
    5376                      .dwattr $C$DW$T$57, DW_AT_type(*$C$DW$483)
    5377              
    5378              $C$DW$T$30      .dwtag  DW_TAG_structure_type
    5379                      .dwattr $C$DW$T$30, DW_AT_name("QueuePointers")
    5380                      .dwattr $C$DW$T$30, DW_AT_byte_size(0x04)
    5381              $C$DW$484       .dwtag  DW_TAG_member
    5382                      .dwattr $C$DW$484, DW_AT_type(*$C$DW$T$24)
    5383                      .dwattr $C$DW$484, DW_AT_name("pcTail")
    5384                      .dwattr $C$DW$484, DW_AT_TI_symbol_name("_pcTail")
    5385                      .dwattr $C$DW$484, DW_AT_data_member_location[DW_OP_plus_uconst 0x0]
    5386                      .dwattr $C$DW$484, DW_AT_accessibility(DW_ACCESS_public)
    5387              $C$DW$485       .dwtag  DW_TAG_member
    5388                      .dwattr $C$DW$485, DW_AT_type(*$C$DW$T$24)
    5389                      .dwattr $C$DW$485, DW_AT_name("pcReadFrom")
    5390                      .dwattr $C$DW$485, DW_AT_TI_symbol_name("_pcReadFrom")
    5391                      .dwattr $C$DW$485, DW_AT_data_member_location[DW_OP_plus_uconst 0x2]
    5392                      .dwattr $C$DW$485, DW_AT_accessibility(DW_ACCESS_public)
    5393                      .dwendtag $C$DW$T$30
    5394              
    5395              $C$DW$T$20      .dwtag  DW_TAG_typedef, DW_AT_name("QueuePointers_t")
    5396                      .dwattr $C$DW$T$20, DW_AT_type(*$C$DW$T$30)
    5397                      .dwattr $C$DW$T$20, DW_AT_language(DW_LANG_C)
    5398              
    5399              $C$DW$T$33      .dwtag  DW_TAG_structure_type
    5400                      .dwattr $C$DW$T$33, DW_AT_name("SemaphoreData")
    5401                      .dwattr $C$DW$T$33, DW_AT_byte_size(0x04)
    5402              $C$DW$486       .dwtag  DW_TAG_member
    5403                      .dwattr $C$DW$486, DW_AT_type(*$C$DW$T$32)
    5404                      .dwattr $C$DW$486, DW_AT_name("xMutexHolder")
    5405                      .dwattr $C$DW$486, DW_AT_TI_symbol_name("_xMutexHolder")
    5406                      .dwattr $C$DW$486, DW_AT_data_member_location[DW_OP_plus_uconst 0x0]
    5407                      .dwattr $C$DW$486, DW_AT_accessibility(DW_ACCESS_public)
    5408              $C$DW$487       .dwtag  DW_TAG_member
    5409                      .dwattr $C$DW$487, DW_AT_type(*$C$DW$T$26)
    5410                      .dwattr $C$DW$487, DW_AT_name("uxRecursiveCallCount")
    5411                      .dwattr $C$DW$487, DW_AT_TI_symbol_name("_uxRecursiveCallCount")
    5412                      .dwattr $C$DW$487, DW_AT_data_member_location[DW_OP_plus_uconst 0x2]
    5413                      .dwattr $C$DW$487, DW_AT_accessibility(DW_ACCESS_public)
    5414                      .dwendtag $C$DW$T$33
    5415              
    5416              $C$DW$T$21      .dwtag  DW_TAG_typedef, DW_AT_name("SemaphoreData_t")
    5417                      .dwattr $C$DW$T$21, DW_AT_type(*$C$DW$T$33)
    5418                      .dwattr $C$DW$T$21, DW_AT_language(DW_LANG_C)
    5419              $C$DW$T$3       .dwtag  DW_TAG_pointer_type
    5420                      .dwattr $C$DW$T$3, DW_AT_address_class(0x17)
    5421              $C$DW$488       .dwtag  DW_TAG_TI_far_type
    5422                      .dwattr $C$DW$488, DW_AT_type(*$C$DW$T$3)
    5423              $C$DW$T$64      .dwtag  DW_TAG_const_type
    5424                      .dwattr $C$DW$T$64, DW_AT_type(*$C$DW$488)
    5425              $C$DW$489       .dwtag  DW_TAG_TI_far_type
    5426              $C$DW$T$58      .dwtag  DW_TAG_const_type
    5427                      .dwattr $C$DW$T$58, DW_AT_type(*$C$DW$489)
    5428              $C$DW$T$59      .dwtag  DW_TAG_pointer_type
TMS320C55x Assembler PC v4.4.1 Sun Sep 09 04:48:36 2018

Tools Copyright (c) 1996-2012 Texas Instruments Incorporated
queue.asm                                                            PAGE  117

    5429                      .dwattr $C$DW$T$59, DW_AT_type(*$C$DW$T$58)
    5430                      .dwattr $C$DW$T$59, DW_AT_address_class(0x17)
    5431              $C$DW$490       .dwtag  DW_TAG_TI_far_type
    5432                      .dwattr $C$DW$490, DW_AT_type(*$C$DW$T$59)
    5433              $C$DW$T$65      .dwtag  DW_TAG_const_type
    5434                      .dwattr $C$DW$T$65, DW_AT_type(*$C$DW$490)
    5435              $C$DW$T$4       .dwtag  DW_TAG_base_type
    5436                      .dwattr $C$DW$T$4, DW_AT_encoding(DW_ATE_boolean)
    5437                      .dwattr $C$DW$T$4, DW_AT_name("bool")
    5438                      .dwattr $C$DW$T$4, DW_AT_byte_size(0x01)
    5439              $C$DW$T$5       .dwtag  DW_TAG_base_type
    5440                      .dwattr $C$DW$T$5, DW_AT_encoding(DW_ATE_signed_char)
    5441                      .dwattr $C$DW$T$5, DW_AT_name("signed char")
    5442                      .dwattr $C$DW$T$5, DW_AT_byte_size(0x01)
    5443              $C$DW$T$23      .dwtag  DW_TAG_typedef, DW_AT_name("int8_t")
    5444                      .dwattr $C$DW$T$23, DW_AT_type(*$C$DW$T$5)
    5445                      .dwattr $C$DW$T$23, DW_AT_language(DW_LANG_C)
    5446              $C$DW$T$24      .dwtag  DW_TAG_pointer_type
    5447                      .dwattr $C$DW$T$24, DW_AT_type(*$C$DW$T$23)
    5448                      .dwattr $C$DW$T$24, DW_AT_address_class(0x17)
    5449              $C$DW$491       .dwtag  DW_TAG_TI_far_type
    5450                      .dwattr $C$DW$491, DW_AT_type(*$C$DW$T$23)
    5451              $C$DW$T$28      .dwtag  DW_TAG_volatile_type
    5452                      .dwattr $C$DW$T$28, DW_AT_type(*$C$DW$491)
    5453              $C$DW$492       .dwtag  DW_TAG_TI_far_type
    5454                      .dwattr $C$DW$492, DW_AT_type(*$C$DW$T$23)
    5455              $C$DW$T$92      .dwtag  DW_TAG_const_type
    5456                      .dwattr $C$DW$T$92, DW_AT_type(*$C$DW$492)
    5457              $C$DW$T$6       .dwtag  DW_TAG_base_type
    5458                      .dwattr $C$DW$T$6, DW_AT_encoding(DW_ATE_unsigned_char)
    5459                      .dwattr $C$DW$T$6, DW_AT_name("unsigned char")
    5460                      .dwattr $C$DW$T$6, DW_AT_byte_size(0x01)
    5461              $C$DW$T$49      .dwtag  DW_TAG_typedef, DW_AT_name("uint8_t")
    5462                      .dwattr $C$DW$T$49, DW_AT_type(*$C$DW$T$6)
    5463                      .dwattr $C$DW$T$49, DW_AT_language(DW_LANG_C)
    5464              $C$DW$T$84      .dwtag  DW_TAG_pointer_type
    5465                      .dwattr $C$DW$T$84, DW_AT_type(*$C$DW$T$49)
    5466                      .dwattr $C$DW$T$84, DW_AT_address_class(0x17)
    5467              $C$DW$493       .dwtag  DW_TAG_TI_far_type
    5468                      .dwattr $C$DW$493, DW_AT_type(*$C$DW$T$49)
    5469              $C$DW$T$50      .dwtag  DW_TAG_const_type
    5470                      .dwattr $C$DW$T$50, DW_AT_type(*$C$DW$493)
    5471              $C$DW$T$7       .dwtag  DW_TAG_base_type
    5472                      .dwattr $C$DW$T$7, DW_AT_encoding(DW_ATE_signed_char)
    5473                      .dwattr $C$DW$T$7, DW_AT_name("wchar_t")
    5474                      .dwattr $C$DW$T$7, DW_AT_byte_size(0x01)
    5475              $C$DW$T$8       .dwtag  DW_TAG_base_type
    5476                      .dwattr $C$DW$T$8, DW_AT_encoding(DW_ATE_signed)
    5477                      .dwattr $C$DW$T$8, DW_AT_name("short")
    5478                      .dwattr $C$DW$T$8, DW_AT_byte_size(0x01)
    5479              $C$DW$T$43      .dwtag  DW_TAG_typedef, DW_AT_name("BaseType_t")
    5480                      .dwattr $C$DW$T$43, DW_AT_type(*$C$DW$T$8)
    5481                      .dwattr $C$DW$T$43, DW_AT_language(DW_LANG_C)
    5482              $C$DW$494       .dwtag  DW_TAG_TI_far_type
    5483                      .dwattr $C$DW$494, DW_AT_type(*$C$DW$T$43)
TMS320C55x Assembler PC v4.4.1 Sun Sep 09 04:48:36 2018

Tools Copyright (c) 1996-2012 Texas Instruments Incorporated
queue.asm                                                            PAGE  118

    5484              $C$DW$T$93      .dwtag  DW_TAG_const_type
    5485                      .dwattr $C$DW$T$93, DW_AT_type(*$C$DW$494)
    5486              $C$DW$T$110     .dwtag  DW_TAG_pointer_type
    5487                      .dwattr $C$DW$T$110, DW_AT_type(*$C$DW$T$43)
    5488                      .dwattr $C$DW$T$110, DW_AT_address_class(0x17)
    5489              $C$DW$495       .dwtag  DW_TAG_TI_far_type
    5490                      .dwattr $C$DW$495, DW_AT_type(*$C$DW$T$110)
    5491              $C$DW$T$111     .dwtag  DW_TAG_const_type
    5492                      .dwattr $C$DW$T$111, DW_AT_type(*$C$DW$495)
    5493              $C$DW$T$9       .dwtag  DW_TAG_base_type
    5494                      .dwattr $C$DW$T$9, DW_AT_encoding(DW_ATE_unsigned)
    5495                      .dwattr $C$DW$T$9, DW_AT_name("unsigned short")
    5496                      .dwattr $C$DW$T$9, DW_AT_byte_size(0x01)
    5497              $C$DW$T$26      .dwtag  DW_TAG_typedef, DW_AT_name("UBaseType_t")
    5498                      .dwattr $C$DW$T$26, DW_AT_type(*$C$DW$T$9)
    5499                      .dwattr $C$DW$T$26, DW_AT_language(DW_LANG_C)
    5500              $C$DW$496       .dwtag  DW_TAG_TI_far_type
    5501                      .dwattr $C$DW$496, DW_AT_type(*$C$DW$T$26)
    5502              $C$DW$T$27      .dwtag  DW_TAG_volatile_type
    5503                      .dwattr $C$DW$T$27, DW_AT_type(*$C$DW$496)
    5504              $C$DW$497       .dwtag  DW_TAG_TI_far_type
    5505                      .dwattr $C$DW$497, DW_AT_type(*$C$DW$T$26)
    5506              $C$DW$T$48      .dwtag  DW_TAG_const_type
    5507                      .dwattr $C$DW$T$48, DW_AT_type(*$C$DW$497)
    5508              $C$DW$T$10      .dwtag  DW_TAG_base_type
    5509                      .dwattr $C$DW$T$10, DW_AT_encoding(DW_ATE_signed)
    5510                      .dwattr $C$DW$T$10, DW_AT_name("int")
    5511                      .dwattr $C$DW$T$10, DW_AT_byte_size(0x01)
    5512              $C$DW$T$11      .dwtag  DW_TAG_base_type
    5513                      .dwattr $C$DW$T$11, DW_AT_encoding(DW_ATE_unsigned)
    5514                      .dwattr $C$DW$T$11, DW_AT_name("unsigned int")
    5515                      .dwattr $C$DW$T$11, DW_AT_byte_size(0x01)
    5516              $C$DW$T$38      .dwtag  DW_TAG_typedef, DW_AT_name("TickType_t")
    5517                      .dwattr $C$DW$T$38, DW_AT_type(*$C$DW$T$11)
    5518                      .dwattr $C$DW$T$38, DW_AT_language(DW_LANG_C)
    5519              $C$DW$498       .dwtag  DW_TAG_TI_far_type
    5520                      .dwattr $C$DW$498, DW_AT_type(*$C$DW$T$38)
    5521              $C$DW$T$74      .dwtag  DW_TAG_const_type
    5522                      .dwattr $C$DW$T$74, DW_AT_type(*$C$DW$498)
    5523              $C$DW$T$101     .dwtag  DW_TAG_pointer_type
    5524                      .dwattr $C$DW$T$101, DW_AT_type(*$C$DW$T$38)
    5525                      .dwattr $C$DW$T$101, DW_AT_address_class(0x17)
    5526              $C$DW$499       .dwtag  DW_TAG_TI_far_type
    5527                      .dwattr $C$DW$499, DW_AT_type(*$C$DW$T$101)
    5528              $C$DW$T$102     .dwtag  DW_TAG_const_type
    5529                      .dwattr $C$DW$T$102, DW_AT_type(*$C$DW$499)
    5530              $C$DW$500       .dwtag  DW_TAG_TI_far_type
    5531                      .dwattr $C$DW$500, DW_AT_type(*$C$DW$T$11)
    5532              $C$DW$T$129     .dwtag  DW_TAG_volatile_type
    5533                      .dwattr $C$DW$T$129, DW_AT_type(*$C$DW$500)
    5534              $C$DW$T$60      .dwtag  DW_TAG_typedef, DW_AT_name("size_t")
    5535                      .dwattr $C$DW$T$60, DW_AT_type(*$C$DW$T$11)
    5536                      .dwattr $C$DW$T$60, DW_AT_language(DW_LANG_C)
    5537              $C$DW$T$12      .dwtag  DW_TAG_base_type
    5538                      .dwattr $C$DW$T$12, DW_AT_encoding(DW_ATE_signed)
TMS320C55x Assembler PC v4.4.1 Sun Sep 09 04:48:36 2018

Tools Copyright (c) 1996-2012 Texas Instruments Incorporated
queue.asm                                                            PAGE  119

    5539                      .dwattr $C$DW$T$12, DW_AT_name("long")
    5540                      .dwattr $C$DW$T$12, DW_AT_byte_size(0x02)
    5541              $C$DW$T$13      .dwtag  DW_TAG_base_type
    5542                      .dwattr $C$DW$T$13, DW_AT_encoding(DW_ATE_unsigned)
    5543                      .dwattr $C$DW$T$13, DW_AT_name("unsigned long")
    5544                      .dwattr $C$DW$T$13, DW_AT_byte_size(0x02)
    5545              $C$DW$T$14      .dwtag  DW_TAG_base_type
    5546                      .dwattr $C$DW$T$14, DW_AT_encoding(DW_ATE_signed)
    5547                      .dwattr $C$DW$T$14, DW_AT_name("long long")
    5548                      .dwattr $C$DW$T$14, DW_AT_byte_size(0x04)
    5549                      .dwattr $C$DW$T$14, DW_AT_bit_size(0x28)
    5550                      .dwattr $C$DW$T$14, DW_AT_bit_offset(0x18)
    5551              $C$DW$T$15      .dwtag  DW_TAG_base_type
    5552                      .dwattr $C$DW$T$15, DW_AT_encoding(DW_ATE_unsigned)
    5553                      .dwattr $C$DW$T$15, DW_AT_name("unsigned long long")
    5554                      .dwattr $C$DW$T$15, DW_AT_byte_size(0x04)
    5555                      .dwattr $C$DW$T$15, DW_AT_bit_size(0x28)
    5556                      .dwattr $C$DW$T$15, DW_AT_bit_offset(0x18)
    5557              $C$DW$T$16      .dwtag  DW_TAG_base_type
    5558                      .dwattr $C$DW$T$16, DW_AT_encoding(DW_ATE_float)
    5559                      .dwattr $C$DW$T$16, DW_AT_name("float")
    5560                      .dwattr $C$DW$T$16, DW_AT_byte_size(0x02)
    5561              $C$DW$T$17      .dwtag  DW_TAG_base_type
    5562                      .dwattr $C$DW$T$17, DW_AT_encoding(DW_ATE_float)
    5563                      .dwattr $C$DW$T$17, DW_AT_name("double")
    5564                      .dwattr $C$DW$T$17, DW_AT_byte_size(0x02)
    5565              $C$DW$T$18      .dwtag  DW_TAG_base_type
    5566                      .dwattr $C$DW$T$18, DW_AT_encoding(DW_ATE_float)
    5567                      .dwattr $C$DW$T$18, DW_AT_name("long double")
    5568                      .dwattr $C$DW$T$18, DW_AT_byte_size(0x02)
    5569              
    5570              $C$DW$T$19      .dwtag  DW_TAG_structure_type
    5571                      .dwattr $C$DW$T$19, DW_AT_name("tskTaskControlBlock")
    5572                      .dwattr $C$DW$T$19, DW_AT_declaration
    5573                      .dwendtag $C$DW$T$19
    5574              
    5575              $C$DW$T$31      .dwtag  DW_TAG_pointer_type
    5576                      .dwattr $C$DW$T$31, DW_AT_type(*$C$DW$T$19)
    5577                      .dwattr $C$DW$T$31, DW_AT_address_class(0x17)
    5578              $C$DW$T$32      .dwtag  DW_TAG_typedef, DW_AT_name("TaskHandle_t")
    5579                      .dwattr $C$DW$T$32, DW_AT_type(*$C$DW$T$31)
    5580                      .dwattr $C$DW$T$32, DW_AT_language(DW_LANG_C)
    5581              
    5582              $C$DW$T$37      .dwtag  DW_TAG_structure_type
    5583                      .dwattr $C$DW$T$37, DW_AT_name("xLIST")
    5584                      .dwattr $C$DW$T$37, DW_AT_byte_size(0x0a)
    5585              $C$DW$501       .dwtag  DW_TAG_member
    5586                      .dwattr $C$DW$501, DW_AT_type(*$C$DW$T$27)
    5587                      .dwattr $C$DW$501, DW_AT_name("uxNumberOfItems")
    5588                      .dwattr $C$DW$501, DW_AT_TI_symbol_name("_uxNumberOfItems")
    5589                      .dwattr $C$DW$501, DW_AT_data_member_location[DW_OP_plus_uconst 0x0]
    5590                      .dwattr $C$DW$501, DW_AT_accessibility(DW_ACCESS_public)
    5591              $C$DW$502       .dwtag  DW_TAG_member
    5592                      .dwattr $C$DW$502, DW_AT_type(*$C$DW$T$35)
    5593                      .dwattr $C$DW$502, DW_AT_name("pxIndex")
TMS320C55x Assembler PC v4.4.1 Sun Sep 09 04:48:36 2018

Tools Copyright (c) 1996-2012 Texas Instruments Incorporated
queue.asm                                                            PAGE  120

    5594                      .dwattr $C$DW$502, DW_AT_TI_symbol_name("_pxIndex")
    5595                      .dwattr $C$DW$502, DW_AT_data_member_location[DW_OP_plus_uconst 0x2]
    5596                      .dwattr $C$DW$502, DW_AT_accessibility(DW_ACCESS_public)
    5597              $C$DW$503       .dwtag  DW_TAG_member
    5598                      .dwattr $C$DW$503, DW_AT_type(*$C$DW$T$36)
    5599                      .dwattr $C$DW$503, DW_AT_name("xListEnd")
    5600                      .dwattr $C$DW$503, DW_AT_TI_symbol_name("_xListEnd")
    5601                      .dwattr $C$DW$503, DW_AT_data_member_location[DW_OP_plus_uconst 0x4]
    5602                      .dwattr $C$DW$503, DW_AT_accessibility(DW_ACCESS_public)
    5603                      .dwendtag $C$DW$T$37
    5604              
    5605              $C$DW$T$25      .dwtag  DW_TAG_typedef, DW_AT_name("List_t")
    5606                      .dwattr $C$DW$T$25, DW_AT_type(*$C$DW$T$37)
    5607                      .dwattr $C$DW$T$25, DW_AT_language(DW_LANG_C)
    5608              $C$DW$504       .dwtag  DW_TAG_TI_far_type
    5609                      .dwattr $C$DW$504, DW_AT_type(*$C$DW$T$25)
    5610              $C$DW$T$96      .dwtag  DW_TAG_const_type
    5611                      .dwattr $C$DW$T$96, DW_AT_type(*$C$DW$504)
    5612              $C$DW$T$97      .dwtag  DW_TAG_pointer_type
    5613                      .dwattr $C$DW$T$97, DW_AT_type(*$C$DW$T$96)
    5614                      .dwattr $C$DW$T$97, DW_AT_address_class(0x17)
    5615              $C$DW$505       .dwtag  DW_TAG_TI_far_type
    5616                      .dwattr $C$DW$505, DW_AT_type(*$C$DW$T$97)
    5617              $C$DW$T$98      .dwtag  DW_TAG_const_type
    5618                      .dwattr $C$DW$T$98, DW_AT_type(*$C$DW$505)
    5619              $C$DW$T$70      .dwtag  DW_TAG_pointer_type
    5620                      .dwattr $C$DW$T$70, DW_AT_type(*$C$DW$T$25)
    5621                      .dwattr $C$DW$T$70, DW_AT_address_class(0x17)
    5622              $C$DW$506       .dwtag  DW_TAG_TI_far_type
    5623                      .dwattr $C$DW$506, DW_AT_type(*$C$DW$T$70)
    5624              $C$DW$T$71      .dwtag  DW_TAG_const_type
    5625                      .dwattr $C$DW$T$71, DW_AT_type(*$C$DW$506)
    5626              $C$DW$T$40      .dwtag  DW_TAG_pointer_type
    5627                      .dwattr $C$DW$T$40, DW_AT_type(*$C$DW$T$37)
    5628                      .dwattr $C$DW$T$40, DW_AT_address_class(0x17)
    5629              
    5630              $C$DW$T$41      .dwtag  DW_TAG_structure_type
    5631                      .dwattr $C$DW$T$41, DW_AT_name("xLIST_ITEM")
    5632                      .dwattr $C$DW$T$41, DW_AT_byte_size(0x0a)
    5633              $C$DW$507       .dwtag  DW_TAG_member
    5634                      .dwattr $C$DW$507, DW_AT_type(*$C$DW$T$38)
    5635                      .dwattr $C$DW$507, DW_AT_name("xItemValue")
    5636                      .dwattr $C$DW$507, DW_AT_TI_symbol_name("_xItemValue")
    5637                      .dwattr $C$DW$507, DW_AT_data_member_location[DW_OP_plus_uconst 0x0]
    5638                      .dwattr $C$DW$507, DW_AT_accessibility(DW_ACCESS_public)
    5639              $C$DW$508       .dwtag  DW_TAG_member
    5640                      .dwattr $C$DW$508, DW_AT_type(*$C$DW$T$39)
    5641                      .dwattr $C$DW$508, DW_AT_name("pxNext")
    5642                      .dwattr $C$DW$508, DW_AT_TI_symbol_name("_pxNext")
    5643                      .dwattr $C$DW$508, DW_AT_data_member_location[DW_OP_plus_uconst 0x2]
    5644                      .dwattr $C$DW$508, DW_AT_accessibility(DW_ACCESS_public)
    5645              $C$DW$509       .dwtag  DW_TAG_member
    5646                      .dwattr $C$DW$509, DW_AT_type(*$C$DW$T$39)
    5647                      .dwattr $C$DW$509, DW_AT_name("pxPrevious")
    5648                      .dwattr $C$DW$509, DW_AT_TI_symbol_name("_pxPrevious")
TMS320C55x Assembler PC v4.4.1 Sun Sep 09 04:48:36 2018

Tools Copyright (c) 1996-2012 Texas Instruments Incorporated
queue.asm                                                            PAGE  121

    5649                      .dwattr $C$DW$509, DW_AT_data_member_location[DW_OP_plus_uconst 0x4]
    5650                      .dwattr $C$DW$509, DW_AT_accessibility(DW_ACCESS_public)
    5651              $C$DW$510       .dwtag  DW_TAG_member
    5652                      .dwattr $C$DW$510, DW_AT_type(*$C$DW$T$3)
    5653                      .dwattr $C$DW$510, DW_AT_name("pvOwner")
    5654                      .dwattr $C$DW$510, DW_AT_TI_symbol_name("_pvOwner")
    5655                      .dwattr $C$DW$510, DW_AT_data_member_location[DW_OP_plus_uconst 0x6]
    5656                      .dwattr $C$DW$510, DW_AT_accessibility(DW_ACCESS_public)
    5657              $C$DW$511       .dwtag  DW_TAG_member
    5658                      .dwattr $C$DW$511, DW_AT_type(*$C$DW$T$40)
    5659                      .dwattr $C$DW$511, DW_AT_name("pvContainer")
    5660                      .dwattr $C$DW$511, DW_AT_TI_symbol_name("_pvContainer")
    5661                      .dwattr $C$DW$511, DW_AT_data_member_location[DW_OP_plus_uconst 0x8]
    5662                      .dwattr $C$DW$511, DW_AT_accessibility(DW_ACCESS_public)
    5663                      .dwendtag $C$DW$T$41
    5664              
    5665              $C$DW$T$34      .dwtag  DW_TAG_typedef, DW_AT_name("ListItem_t")
    5666                      .dwattr $C$DW$T$34, DW_AT_type(*$C$DW$T$41)
    5667                      .dwattr $C$DW$T$34, DW_AT_language(DW_LANG_C)
    5668              $C$DW$T$35      .dwtag  DW_TAG_pointer_type
    5669                      .dwattr $C$DW$T$35, DW_AT_type(*$C$DW$T$34)
    5670                      .dwattr $C$DW$T$35, DW_AT_address_class(0x17)
    5671              $C$DW$T$39      .dwtag  DW_TAG_pointer_type
    5672                      .dwattr $C$DW$T$39, DW_AT_type(*$C$DW$T$41)
    5673                      .dwattr $C$DW$T$39, DW_AT_address_class(0x17)
    5674              
    5675              $C$DW$T$42      .dwtag  DW_TAG_structure_type
    5676                      .dwattr $C$DW$T$42, DW_AT_name("xMINI_LIST_ITEM")
    5677                      .dwattr $C$DW$T$42, DW_AT_byte_size(0x06)
    5678              $C$DW$512       .dwtag  DW_TAG_member
    5679                      .dwattr $C$DW$512, DW_AT_type(*$C$DW$T$38)
    5680                      .dwattr $C$DW$512, DW_AT_name("xItemValue")
    5681                      .dwattr $C$DW$512, DW_AT_TI_symbol_name("_xItemValue")
    5682                      .dwattr $C$DW$512, DW_AT_data_member_location[DW_OP_plus_uconst 0x0]
    5683                      .dwattr $C$DW$512, DW_AT_accessibility(DW_ACCESS_public)
    5684              $C$DW$513       .dwtag  DW_TAG_member
    5685                      .dwattr $C$DW$513, DW_AT_type(*$C$DW$T$39)
    5686                      .dwattr $C$DW$513, DW_AT_name("pxNext")
    5687                      .dwattr $C$DW$513, DW_AT_TI_symbol_name("_pxNext")
    5688                      .dwattr $C$DW$513, DW_AT_data_member_location[DW_OP_plus_uconst 0x2]
    5689                      .dwattr $C$DW$513, DW_AT_accessibility(DW_ACCESS_public)
    5690              $C$DW$514       .dwtag  DW_TAG_member
    5691                      .dwattr $C$DW$514, DW_AT_type(*$C$DW$T$39)
    5692                      .dwattr $C$DW$514, DW_AT_name("pxPrevious")
    5693                      .dwattr $C$DW$514, DW_AT_TI_symbol_name("_pxPrevious")
    5694                      .dwattr $C$DW$514, DW_AT_data_member_location[DW_OP_plus_uconst 0x4]
    5695                      .dwattr $C$DW$514, DW_AT_accessibility(DW_ACCESS_public)
    5696                      .dwendtag $C$DW$T$42
    5697              
    5698              $C$DW$T$36      .dwtag  DW_TAG_typedef, DW_AT_name("MiniListItem_t")
    5699                      .dwattr $C$DW$T$36, DW_AT_type(*$C$DW$T$42)
    5700                      .dwattr $C$DW$T$36, DW_AT_language(DW_LANG_C)
    5701              
    5702              $C$DW$T$44      .dwtag  DW_TAG_structure_type
    5703                      .dwattr $C$DW$T$44, DW_AT_name("xTIME_OUT")
TMS320C55x Assembler PC v4.4.1 Sun Sep 09 04:48:36 2018

Tools Copyright (c) 1996-2012 Texas Instruments Incorporated
queue.asm                                                            PAGE  122

    5704                      .dwattr $C$DW$T$44, DW_AT_byte_size(0x02)
    5705              $C$DW$515       .dwtag  DW_TAG_member
    5706                      .dwattr $C$DW$515, DW_AT_type(*$C$DW$T$43)
    5707                      .dwattr $C$DW$515, DW_AT_name("xOverflowCount")
    5708                      .dwattr $C$DW$515, DW_AT_TI_symbol_name("_xOverflowCount")
    5709                      .dwattr $C$DW$515, DW_AT_data_member_location[DW_OP_plus_uconst 0x0]
    5710                      .dwattr $C$DW$515, DW_AT_accessibility(DW_ACCESS_public)
    5711              $C$DW$516       .dwtag  DW_TAG_member
    5712                      .dwattr $C$DW$516, DW_AT_type(*$C$DW$T$38)
    5713                      .dwattr $C$DW$516, DW_AT_name("xTimeOnEntering")
    5714                      .dwattr $C$DW$516, DW_AT_TI_symbol_name("_xTimeOnEntering")
    5715                      .dwattr $C$DW$516, DW_AT_data_member_location[DW_OP_plus_uconst 0x1]
    5716                      .dwattr $C$DW$516, DW_AT_accessibility(DW_ACCESS_public)
    5717                      .dwendtag $C$DW$T$44
    5718              
    5719              $C$DW$T$77      .dwtag  DW_TAG_typedef, DW_AT_name("TimeOut_t")
    5720                      .dwattr $C$DW$T$77, DW_AT_type(*$C$DW$T$44)
    5721                      .dwattr $C$DW$T$77, DW_AT_language(DW_LANG_C)
    5722              $C$DW$T$78      .dwtag  DW_TAG_pointer_type
    5723                      .dwattr $C$DW$T$78, DW_AT_type(*$C$DW$T$77)
    5724                      .dwattr $C$DW$T$78, DW_AT_address_class(0x17)
    5725              $C$DW$517       .dwtag  DW_TAG_TI_far_type
    5726                      .dwattr $C$DW$517, DW_AT_type(*$C$DW$T$78)
    5727              $C$DW$T$79      .dwtag  DW_TAG_const_type
    5728                      .dwattr $C$DW$T$79, DW_AT_type(*$C$DW$517)
    5729                      .dwattr $C$DW$CU, DW_AT_language(DW_LANG_C)
    5730              
    5731              ;***************************************************************
    5732              ;* DWARF CIE ENTRIES                                           *
    5733              ;***************************************************************
    5734              
    5735              $C$DW$CIE       .dwcie 91
    5736                      .dwcfi  cfa_register, 36
    5737                      .dwcfi  cfa_offset, 0
    5738                      .dwcfi  undefined, 0
    5739                      .dwcfi  undefined, 1
    5740                      .dwcfi  undefined, 2
    5741                      .dwcfi  undefined, 3
    5742                      .dwcfi  undefined, 4
    5743                      .dwcfi  undefined, 5
    5744                      .dwcfi  undefined, 6
    5745                      .dwcfi  undefined, 7
    5746                      .dwcfi  undefined, 8
    5747                      .dwcfi  undefined, 9
    5748                      .dwcfi  undefined, 10
    5749                      .dwcfi  undefined, 11
    5750                      .dwcfi  undefined, 12
    5751                      .dwcfi  undefined, 13
    5752                      .dwcfi  same_value, 14
    5753                      .dwcfi  same_value, 15
    5754                      .dwcfi  undefined, 16
    5755                      .dwcfi  undefined, 17
    5756                      .dwcfi  undefined, 18
    5757                      .dwcfi  undefined, 19
    5758                      .dwcfi  undefined, 20
TMS320C55x Assembler PC v4.4.1 Sun Sep 09 04:48:36 2018

Tools Copyright (c) 1996-2012 Texas Instruments Incorporated
queue.asm                                                            PAGE  123

    5759                      .dwcfi  undefined, 21
    5760                      .dwcfi  undefined, 22
    5761                      .dwcfi  undefined, 23
    5762                      .dwcfi  undefined, 24
    5763                      .dwcfi  undefined, 25
    5764                      .dwcfi  same_value, 26
    5765                      .dwcfi  same_value, 27
    5766                      .dwcfi  same_value, 28
    5767                      .dwcfi  same_value, 29
    5768                      .dwcfi  same_value, 30
    5769                      .dwcfi  same_value, 31
    5770                      .dwcfi  undefined, 32
    5771                      .dwcfi  undefined, 33
    5772                      .dwcfi  undefined, 34
    5773                      .dwcfi  undefined, 35
    5774                      .dwcfi  undefined, 36
    5775                      .dwcfi  undefined, 37
    5776                      .dwcfi  undefined, 38
    5777                      .dwcfi  undefined, 39
    5778                      .dwcfi  undefined, 40
    5779                      .dwcfi  undefined, 41
    5780                      .dwcfi  undefined, 42
    5781                      .dwcfi  undefined, 43
    5782                      .dwcfi  undefined, 44
    5783                      .dwcfi  undefined, 45
    5784                      .dwcfi  undefined, 46
    5785                      .dwcfi  undefined, 47
    5786                      .dwcfi  undefined, 48
    5787                      .dwcfi  undefined, 49
    5788                      .dwcfi  undefined, 50
    5789                      .dwcfi  undefined, 51
    5790                      .dwcfi  undefined, 52
    5791                      .dwcfi  undefined, 53
    5792                      .dwcfi  undefined, 54
    5793                      .dwcfi  undefined, 55
    5794                      .dwcfi  undefined, 56
    5795                      .dwcfi  undefined, 57
    5796                      .dwcfi  undefined, 58
    5797                      .dwcfi  undefined, 59
    5798                      .dwcfi  undefined, 60
    5799                      .dwcfi  undefined, 61
    5800                      .dwcfi  undefined, 62
    5801                      .dwcfi  undefined, 63
    5802                      .dwcfi  undefined, 64
    5803                      .dwcfi  undefined, 65
    5804                      .dwcfi  undefined, 66
    5805                      .dwcfi  undefined, 67
    5806                      .dwcfi  undefined, 68
    5807                      .dwcfi  undefined, 69
    5808                      .dwcfi  undefined, 70
    5809                      .dwcfi  undefined, 71
    5810                      .dwcfi  undefined, 72
    5811                      .dwcfi  undefined, 73
    5812                      .dwcfi  undefined, 74
    5813                      .dwcfi  undefined, 75
TMS320C55x Assembler PC v4.4.1 Sun Sep 09 04:48:36 2018

Tools Copyright (c) 1996-2012 Texas Instruments Incorporated
queue.asm                                                            PAGE  124

    5814                      .dwcfi  undefined, 76
    5815                      .dwcfi  undefined, 77
    5816                      .dwcfi  undefined, 78
    5817                      .dwcfi  undefined, 79
    5818                      .dwcfi  undefined, 80
    5819                      .dwcfi  undefined, 81
    5820                      .dwcfi  undefined, 82
    5821                      .dwcfi  undefined, 83
    5822                      .dwcfi  undefined, 84
    5823                      .dwcfi  undefined, 85
    5824                      .dwcfi  undefined, 86
    5825                      .dwcfi  undefined, 87
    5826                      .dwcfi  undefined, 88
    5827                      .dwcfi  undefined, 89
    5828                      .dwcfi  undefined, 90
    5829                      .dwcfi  undefined, 91
    5830                      .dwendentry
    5831              
    5832              ;***************************************************************
    5833              ;* DWARF REGISTER MAP                                          *
    5834              ;***************************************************************
    5835              
    5836              $C$DW$518       .dwtag  DW_TAG_TI_assign_register, DW_AT_name("AC0")
    5837                      .dwattr $C$DW$518, DW_AT_location[DW_OP_reg0]
    5838              $C$DW$519       .dwtag  DW_TAG_TI_assign_register, DW_AT_name("AC0")
    5839                      .dwattr $C$DW$519, DW_AT_location[DW_OP_reg1]
    5840              $C$DW$520       .dwtag  DW_TAG_TI_assign_register, DW_AT_name("AC0_G")
    5841                      .dwattr $C$DW$520, DW_AT_location[DW_OP_reg2]
    5842              $C$DW$521       .dwtag  DW_TAG_TI_assign_register, DW_AT_name("AC1")
    5843                      .dwattr $C$DW$521, DW_AT_location[DW_OP_reg3]
    5844              $C$DW$522       .dwtag  DW_TAG_TI_assign_register, DW_AT_name("AC1")
    5845                      .dwattr $C$DW$522, DW_AT_location[DW_OP_reg4]
    5846              $C$DW$523       .dwtag  DW_TAG_TI_assign_register, DW_AT_name("AC1_G")
    5847                      .dwattr $C$DW$523, DW_AT_location[DW_OP_reg5]
    5848              $C$DW$524       .dwtag  DW_TAG_TI_assign_register, DW_AT_name("AC2")
    5849                      .dwattr $C$DW$524, DW_AT_location[DW_OP_reg6]
    5850              $C$DW$525       .dwtag  DW_TAG_TI_assign_register, DW_AT_name("AC2")
    5851                      .dwattr $C$DW$525, DW_AT_location[DW_OP_reg7]
    5852              $C$DW$526       .dwtag  DW_TAG_TI_assign_register, DW_AT_name("AC2_G")
    5853                      .dwattr $C$DW$526, DW_AT_location[DW_OP_reg8]
    5854              $C$DW$527       .dwtag  DW_TAG_TI_assign_register, DW_AT_name("AC3")
    5855                      .dwattr $C$DW$527, DW_AT_location[DW_OP_reg9]
    5856              $C$DW$528       .dwtag  DW_TAG_TI_assign_register, DW_AT_name("AC3")
    5857                      .dwattr $C$DW$528, DW_AT_location[DW_OP_reg10]
    5858              $C$DW$529       .dwtag  DW_TAG_TI_assign_register, DW_AT_name("AC3_G")
    5859                      .dwattr $C$DW$529, DW_AT_location[DW_OP_reg11]
    5860              $C$DW$530       .dwtag  DW_TAG_TI_assign_register, DW_AT_name("T0")
    5861                      .dwattr $C$DW$530, DW_AT_location[DW_OP_reg12]
    5862              $C$DW$531       .dwtag  DW_TAG_TI_assign_register, DW_AT_name("T1")
    5863                      .dwattr $C$DW$531, DW_AT_location[DW_OP_reg13]
    5864              $C$DW$532       .dwtag  DW_TAG_TI_assign_register, DW_AT_name("T2")
    5865                      .dwattr $C$DW$532, DW_AT_location[DW_OP_reg14]
    5866              $C$DW$533       .dwtag  DW_TAG_TI_assign_register, DW_AT_name("T3")
    5867                      .dwattr $C$DW$533, DW_AT_location[DW_OP_reg15]
    5868              $C$DW$534       .dwtag  DW_TAG_TI_assign_register, DW_AT_name("AR0")
TMS320C55x Assembler PC v4.4.1 Sun Sep 09 04:48:36 2018

Tools Copyright (c) 1996-2012 Texas Instruments Incorporated
queue.asm                                                            PAGE  125

    5869                      .dwattr $C$DW$534, DW_AT_location[DW_OP_reg16]
    5870              $C$DW$535       .dwtag  DW_TAG_TI_assign_register, DW_AT_name("XAR0")
    5871                      .dwattr $C$DW$535, DW_AT_location[DW_OP_reg17]
    5872              $C$DW$536       .dwtag  DW_TAG_TI_assign_register, DW_AT_name("AR1")
    5873                      .dwattr $C$DW$536, DW_AT_location[DW_OP_reg18]
    5874              $C$DW$537       .dwtag  DW_TAG_TI_assign_register, DW_AT_name("XAR1")
    5875                      .dwattr $C$DW$537, DW_AT_location[DW_OP_reg19]
    5876              $C$DW$538       .dwtag  DW_TAG_TI_assign_register, DW_AT_name("AR2")
    5877                      .dwattr $C$DW$538, DW_AT_location[DW_OP_reg20]
    5878              $C$DW$539       .dwtag  DW_TAG_TI_assign_register, DW_AT_name("XAR2")
    5879                      .dwattr $C$DW$539, DW_AT_location[DW_OP_reg21]
    5880              $C$DW$540       .dwtag  DW_TAG_TI_assign_register, DW_AT_name("AR3")
    5881                      .dwattr $C$DW$540, DW_AT_location[DW_OP_reg22]
    5882              $C$DW$541       .dwtag  DW_TAG_TI_assign_register, DW_AT_name("XAR3")
    5883                      .dwattr $C$DW$541, DW_AT_location[DW_OP_reg23]
    5884              $C$DW$542       .dwtag  DW_TAG_TI_assign_register, DW_AT_name("AR4")
    5885                      .dwattr $C$DW$542, DW_AT_location[DW_OP_reg24]
    5886              $C$DW$543       .dwtag  DW_TAG_TI_assign_register, DW_AT_name("XAR4")
    5887                      .dwattr $C$DW$543, DW_AT_location[DW_OP_reg25]
    5888              $C$DW$544       .dwtag  DW_TAG_TI_assign_register, DW_AT_name("AR5")
    5889                      .dwattr $C$DW$544, DW_AT_location[DW_OP_reg26]
    5890              $C$DW$545       .dwtag  DW_TAG_TI_assign_register, DW_AT_name("XAR5")
    5891                      .dwattr $C$DW$545, DW_AT_location[DW_OP_reg27]
    5892              $C$DW$546       .dwtag  DW_TAG_TI_assign_register, DW_AT_name("AR6")
    5893                      .dwattr $C$DW$546, DW_AT_location[DW_OP_reg28]
    5894              $C$DW$547       .dwtag  DW_TAG_TI_assign_register, DW_AT_name("XAR6")
    5895                      .dwattr $C$DW$547, DW_AT_location[DW_OP_reg29]
    5896              $C$DW$548       .dwtag  DW_TAG_TI_assign_register, DW_AT_name("AR7")
    5897                      .dwattr $C$DW$548, DW_AT_location[DW_OP_reg30]
    5898              $C$DW$549       .dwtag  DW_TAG_TI_assign_register, DW_AT_name("XAR7")
    5899                      .dwattr $C$DW$549, DW_AT_location[DW_OP_reg31]
    5900              $C$DW$550       .dwtag  DW_TAG_TI_assign_register, DW_AT_name("FP")
    5901                      .dwattr $C$DW$550, DW_AT_location[DW_OP_regx 0x20]
    5902              $C$DW$551       .dwtag  DW_TAG_TI_assign_register, DW_AT_name("XFP")
    5903                      .dwattr $C$DW$551, DW_AT_location[DW_OP_regx 0x21]
    5904              $C$DW$552       .dwtag  DW_TAG_TI_assign_register, DW_AT_name("PC")
    5905                      .dwattr $C$DW$552, DW_AT_location[DW_OP_regx 0x22]
    5906              $C$DW$553       .dwtag  DW_TAG_TI_assign_register, DW_AT_name("SP")
    5907                      .dwattr $C$DW$553, DW_AT_location[DW_OP_regx 0x23]
    5908              $C$DW$554       .dwtag  DW_TAG_TI_assign_register, DW_AT_name("XSP")
    5909                      .dwattr $C$DW$554, DW_AT_location[DW_OP_regx 0x24]
    5910              $C$DW$555       .dwtag  DW_TAG_TI_assign_register, DW_AT_name("BKC")
    5911                      .dwattr $C$DW$555, DW_AT_location[DW_OP_regx 0x25]
    5912              $C$DW$556       .dwtag  DW_TAG_TI_assign_register, DW_AT_name("BK03")
    5913                      .dwattr $C$DW$556, DW_AT_location[DW_OP_regx 0x26]
    5914              $C$DW$557       .dwtag  DW_TAG_TI_assign_register, DW_AT_name("BK47")
    5915                      .dwattr $C$DW$557, DW_AT_location[DW_OP_regx 0x27]
    5916              $C$DW$558       .dwtag  DW_TAG_TI_assign_register, DW_AT_name("ST0")
    5917                      .dwattr $C$DW$558, DW_AT_location[DW_OP_regx 0x28]
    5918              $C$DW$559       .dwtag  DW_TAG_TI_assign_register, DW_AT_name("ST1")
    5919                      .dwattr $C$DW$559, DW_AT_location[DW_OP_regx 0x29]
    5920              $C$DW$560       .dwtag  DW_TAG_TI_assign_register, DW_AT_name("ST2")
    5921                      .dwattr $C$DW$560, DW_AT_location[DW_OP_regx 0x2a]
    5922              $C$DW$561       .dwtag  DW_TAG_TI_assign_register, DW_AT_name("ST3")
    5923                      .dwattr $C$DW$561, DW_AT_location[DW_OP_regx 0x2b]
TMS320C55x Assembler PC v4.4.1 Sun Sep 09 04:48:36 2018

Tools Copyright (c) 1996-2012 Texas Instruments Incorporated
queue.asm                                                            PAGE  126

    5924              $C$DW$562       .dwtag  DW_TAG_TI_assign_register, DW_AT_name("MDP")
    5925                      .dwattr $C$DW$562, DW_AT_location[DW_OP_regx 0x2c]
    5926              $C$DW$563       .dwtag  DW_TAG_TI_assign_register, DW_AT_name("MDP05")
    5927                      .dwattr $C$DW$563, DW_AT_location[DW_OP_regx 0x2d]
    5928              $C$DW$564       .dwtag  DW_TAG_TI_assign_register, DW_AT_name("MDP67")
    5929                      .dwattr $C$DW$564, DW_AT_location[DW_OP_regx 0x2e]
    5930              $C$DW$565       .dwtag  DW_TAG_TI_assign_register, DW_AT_name("BRC0")
    5931                      .dwattr $C$DW$565, DW_AT_location[DW_OP_regx 0x2f]
    5932              $C$DW$566       .dwtag  DW_TAG_TI_assign_register, DW_AT_name("RSA0")
    5933                      .dwattr $C$DW$566, DW_AT_location[DW_OP_regx 0x30]
    5934              $C$DW$567       .dwtag  DW_TAG_TI_assign_register, DW_AT_name("RSA0_H")
    5935                      .dwattr $C$DW$567, DW_AT_location[DW_OP_regx 0x31]
    5936              $C$DW$568       .dwtag  DW_TAG_TI_assign_register, DW_AT_name("REA0")
    5937                      .dwattr $C$DW$568, DW_AT_location[DW_OP_regx 0x32]
    5938              $C$DW$569       .dwtag  DW_TAG_TI_assign_register, DW_AT_name("REA0_H")
    5939                      .dwattr $C$DW$569, DW_AT_location[DW_OP_regx 0x33]
    5940              $C$DW$570       .dwtag  DW_TAG_TI_assign_register, DW_AT_name("BRS1")
    5941                      .dwattr $C$DW$570, DW_AT_location[DW_OP_regx 0x34]
    5942              $C$DW$571       .dwtag  DW_TAG_TI_assign_register, DW_AT_name("BRC1")
    5943                      .dwattr $C$DW$571, DW_AT_location[DW_OP_regx 0x35]
    5944              $C$DW$572       .dwtag  DW_TAG_TI_assign_register, DW_AT_name("RSA1")
    5945                      .dwattr $C$DW$572, DW_AT_location[DW_OP_regx 0x36]
    5946              $C$DW$573       .dwtag  DW_TAG_TI_assign_register, DW_AT_name("RSA1_H")
    5947                      .dwattr $C$DW$573, DW_AT_location[DW_OP_regx 0x37]
    5948              $C$DW$574       .dwtag  DW_TAG_TI_assign_register, DW_AT_name("REA1")
    5949                      .dwattr $C$DW$574, DW_AT_location[DW_OP_regx 0x38]
    5950              $C$DW$575       .dwtag  DW_TAG_TI_assign_register, DW_AT_name("REA1_H")
    5951                      .dwattr $C$DW$575, DW_AT_location[DW_OP_regx 0x39]
    5952              $C$DW$576       .dwtag  DW_TAG_TI_assign_register, DW_AT_name("CSR")
    5953                      .dwattr $C$DW$576, DW_AT_location[DW_OP_regx 0x3a]
    5954              $C$DW$577       .dwtag  DW_TAG_TI_assign_register, DW_AT_name("RPTC")
    5955                      .dwattr $C$DW$577, DW_AT_location[DW_OP_regx 0x3b]
    5956              $C$DW$578       .dwtag  DW_TAG_TI_assign_register, DW_AT_name("CDP")
    5957                      .dwattr $C$DW$578, DW_AT_location[DW_OP_regx 0x3c]
    5958              $C$DW$579       .dwtag  DW_TAG_TI_assign_register, DW_AT_name("XCDP")
    5959                      .dwattr $C$DW$579, DW_AT_location[DW_OP_regx 0x3d]
    5960              $C$DW$580       .dwtag  DW_TAG_TI_assign_register, DW_AT_name("TRN0")
    5961                      .dwattr $C$DW$580, DW_AT_location[DW_OP_regx 0x3e]
    5962              $C$DW$581       .dwtag  DW_TAG_TI_assign_register, DW_AT_name("TRN1")
    5963                      .dwattr $C$DW$581, DW_AT_location[DW_OP_regx 0x3f]
    5964              $C$DW$582       .dwtag  DW_TAG_TI_assign_register, DW_AT_name("BSA01")
    5965                      .dwattr $C$DW$582, DW_AT_location[DW_OP_regx 0x40]
    5966              $C$DW$583       .dwtag  DW_TAG_TI_assign_register, DW_AT_name("BSA23")
    5967                      .dwattr $C$DW$583, DW_AT_location[DW_OP_regx 0x41]
    5968              $C$DW$584       .dwtag  DW_TAG_TI_assign_register, DW_AT_name("BSA45")
    5969                      .dwattr $C$DW$584, DW_AT_location[DW_OP_regx 0x42]
    5970              $C$DW$585       .dwtag  DW_TAG_TI_assign_register, DW_AT_name("BSA67")
    5971                      .dwattr $C$DW$585, DW_AT_location[DW_OP_regx 0x43]
    5972              $C$DW$586       .dwtag  DW_TAG_TI_assign_register, DW_AT_name("BSAC")
    5973                      .dwattr $C$DW$586, DW_AT_location[DW_OP_regx 0x44]
    5974              $C$DW$587       .dwtag  DW_TAG_TI_assign_register, DW_AT_name("CARRY")
    5975                      .dwattr $C$DW$587, DW_AT_location[DW_OP_regx 0x45]
    5976              $C$DW$588       .dwtag  DW_TAG_TI_assign_register, DW_AT_name("TC1")
    5977                      .dwattr $C$DW$588, DW_AT_location[DW_OP_regx 0x46]
    5978              $C$DW$589       .dwtag  DW_TAG_TI_assign_register, DW_AT_name("TC2")
TMS320C55x Assembler PC v4.4.1 Sun Sep 09 04:48:36 2018

Tools Copyright (c) 1996-2012 Texas Instruments Incorporated
queue.asm                                                            PAGE  127

    5979                      .dwattr $C$DW$589, DW_AT_location[DW_OP_regx 0x47]
    5980              $C$DW$590       .dwtag  DW_TAG_TI_assign_register, DW_AT_name("M40")
    5981                      .dwattr $C$DW$590, DW_AT_location[DW_OP_regx 0x48]
    5982              $C$DW$591       .dwtag  DW_TAG_TI_assign_register, DW_AT_name("SXMD")
    5983                      .dwattr $C$DW$591, DW_AT_location[DW_OP_regx 0x49]
    5984              $C$DW$592       .dwtag  DW_TAG_TI_assign_register, DW_AT_name("ARMS")
    5985                      .dwattr $C$DW$592, DW_AT_location[DW_OP_regx 0x4a]
    5986              $C$DW$593       .dwtag  DW_TAG_TI_assign_register, DW_AT_name("C54CM")
    5987                      .dwattr $C$DW$593, DW_AT_location[DW_OP_regx 0x4b]
    5988              $C$DW$594       .dwtag  DW_TAG_TI_assign_register, DW_AT_name("SATA")
    5989                      .dwattr $C$DW$594, DW_AT_location[DW_OP_regx 0x4c]
    5990              $C$DW$595       .dwtag  DW_TAG_TI_assign_register, DW_AT_name("SATD")
    5991                      .dwattr $C$DW$595, DW_AT_location[DW_OP_regx 0x4d]
    5992              $C$DW$596       .dwtag  DW_TAG_TI_assign_register, DW_AT_name("RDM")
    5993                      .dwattr $C$DW$596, DW_AT_location[DW_OP_regx 0x4e]
    5994              $C$DW$597       .dwtag  DW_TAG_TI_assign_register, DW_AT_name("FRCT")
    5995                      .dwattr $C$DW$597, DW_AT_location[DW_OP_regx 0x4f]
    5996              $C$DW$598       .dwtag  DW_TAG_TI_assign_register, DW_AT_name("SMUL")
    5997                      .dwattr $C$DW$598, DW_AT_location[DW_OP_regx 0x50]
    5998              $C$DW$599       .dwtag  DW_TAG_TI_assign_register, DW_AT_name("INTM")
    5999                      .dwattr $C$DW$599, DW_AT_location[DW_OP_regx 0x51]
    6000              $C$DW$600       .dwtag  DW_TAG_TI_assign_register, DW_AT_name("AR0LC")
    6001                      .dwattr $C$DW$600, DW_AT_location[DW_OP_regx 0x52]
    6002              $C$DW$601       .dwtag  DW_TAG_TI_assign_register, DW_AT_name("AR1LC")
    6003                      .dwattr $C$DW$601, DW_AT_location[DW_OP_regx 0x53]
    6004              $C$DW$602       .dwtag  DW_TAG_TI_assign_register, DW_AT_name("AR2LC")
    6005                      .dwattr $C$DW$602, DW_AT_location[DW_OP_regx 0x54]
    6006              $C$DW$603       .dwtag  DW_TAG_TI_assign_register, DW_AT_name("AR3LC")
    6007                      .dwattr $C$DW$603, DW_AT_location[DW_OP_regx 0x55]
    6008              $C$DW$604       .dwtag  DW_TAG_TI_assign_register, DW_AT_name("AR4LC")
    6009                      .dwattr $C$DW$604, DW_AT_location[DW_OP_regx 0x56]
    6010              $C$DW$605       .dwtag  DW_TAG_TI_assign_register, DW_AT_name("AR5LC")
    6011                      .dwattr $C$DW$605, DW_AT_location[DW_OP_regx 0x57]
    6012              $C$DW$606       .dwtag  DW_TAG_TI_assign_register, DW_AT_name("AR6LC")
    6013                      .dwattr $C$DW$606, DW_AT_location[DW_OP_regx 0x58]
    6014              $C$DW$607       .dwtag  DW_TAG_TI_assign_register, DW_AT_name("AR7LC")
    6015                      .dwattr $C$DW$607, DW_AT_location[DW_OP_regx 0x59]
    6016              $C$DW$608       .dwtag  DW_TAG_TI_assign_register, DW_AT_name("CDPLC")
    6017                      .dwattr $C$DW$608, DW_AT_location[DW_OP_regx 0x5a]
    6018              $C$DW$609       .dwtag  DW_TAG_TI_assign_register, DW_AT_name("CIE_RETA")
    6019                      .dwattr $C$DW$609, DW_AT_location[DW_OP_regx 0x5b]
    6020                      .dwendtag $C$DW$CU
    6021              
    6021              
    6021              

No Assembly Errors, No Assembly Warnings
