TMS320C55x Assembler PC v4.4.1 Sun Sep 09 04:48:39 2018

Tools Copyright (c) 1996-2012 Texas Instruments Incorporated
tasks_sysStk.asm                                                     PAGE    1

    7777              ; Temporary Registers Used: None
       1              ;*******************************************************************************
       2              ;* TMS320C55x C/C++ Codegen                                          PC v4.4.1 *
       3              ;* Date/Time created: Sun Sep 09 04:48:37 2018                                 *
       4              ;*******************************************************************************
       5                      .compiler_opts --hll_source=on --mem_model:code=flat --mem_model:data=large --object_format=coff --si
       6                      .mmregs
       7                      .cpl_on
       8                      .arms_on
       9                      .c54cm_off
      10                      .asg AR6, FP
      11                      .asg XAR6, XFP
      12                      .asg DPH, MDP
      13                      .model call=c55_std
      14                      .model mem=large
      15                      .noremark 5002  ; code respects overwrite rules
      16              ;*******************************************************************************
      17              ;* GLOBAL FILE PARAMETERS                                                      *
      18              ;*                                                                             *
      19              ;*   Architecture       : TMS320C55x                                           *
      20              ;*   Optimizing for     : Speed                                                *
      21              ;*   Memory             : Large Model (23-Bit Data Pointers)                   *
      22              ;*   Calls              : Normal Library ASM calls                             *
      23              ;*   Debug Info         : Standard TI Debug Information                        *
      24              ;*******************************************************************************
      25              
      26              $C$DW$CU        .dwtag  DW_TAG_compile_unit
      27                      .dwattr $C$DW$CU, DW_AT_name("../FreeRTOS/Source/tasks_sysStk.c")
      28                      .dwattr $C$DW$CU, DW_AT_producer("TMS320C55x C/C++ Codegen PC v4.4.1 Copyright (c) 1996-2012 Texas In
      29                      .dwattr $C$DW$CU, DW_AT_TI_version(0x01)
      30                      .dwattr $C$DW$CU, DW_AT_comp_dir("F:\eZdsp_DBG\eZDSP_5535_Files\ccsws2\test\Debug")
      31              ;******************************************************************************
      32              ;* CINIT RECORDS                                                              *
      33              ;******************************************************************************
      34 000000               .sect   ".cinit"
      35                      .align  1
      36 000000 0002          .field          2,16
      37 000001 0000-         .field          _wall_clk_ctr+0,24
         000002 0000 
      38 000002 0000          .field          0,8
      39 000003 0000          .field  0,32                    ; _wall_clk_ctr @ 0
         000004 0000 
      40              
      41 000005               .sect   ".cinit"
      42                      .align  1
      43 000005 0002          .field          2,16
      44 000006 0000-         .field          _pxCurrentTCB+0,24
         000007 0400 
      45 000007 0400          .field          0,8
      46 000008 0000          .field  0,32                    ; _pxCurrentTCB @ 0
         000009 0000 
      47              
      48 00000a               .sect   ".cinit"
      49                      .align  1
      50 00000a 0001          .field          1,16
TMS320C55x Assembler PC v4.4.1 Sun Sep 09 04:48:39 2018

Tools Copyright (c) 1996-2012 Texas Instruments Incorporated
tasks_sysStk.asm                                                     PAGE    2

      51 00000b 0000-         .field          _uxDeletedTasksWaitingCleanUp+0,24
         00000c 5A00 
      52 00000c 5A00          .field          0,8
      53 00000d 0000          .field  0,16                    ; _uxDeletedTasksWaitingCleanUp @ 0
      54              
      55 00000e               .sect   ".cinit"
      56                      .align  1
      57 00000e 0001          .field          1,16
      58 00000f 0000-         .field          _uxCurrentNumberOfTasks+0,24
         000010 5B00 
      59 000010 5B00          .field          0,8
      60 000011 0000          .field  0,16                    ; _uxCurrentNumberOfTasks @ 0
      61              
      62 000012               .sect   ".cinit"
      63                      .align  1
      64 000012 0001          .field          1,16
      65 000013 0000-         .field          _xTickCount+0,24
         000014 6600 
      66 000014 6600          .field          0,8
      67 000015 0000          .field  0,16                    ; _xTickCount @ 0
      68              
      69 000016               .sect   ".cinit"
      70                      .align  1
      71 000016 0001          .field          1,16
      72 000017 0000-         .field          _uxTopReadyPriority+0,24
         000018 6700 
      73 000018 6700          .field          0,8
      74 000019 0000          .field  0,16                    ; _uxTopReadyPriority @ 0
      75              
      76 00001a               .sect   ".cinit"
      77                      .align  1
      78 00001a 0001          .field          1,16
      79 00001b 0000-         .field          _xSchedulerRunning+0,24
         00001c 6800 
      80 00001c 6800          .field          0,8
      81 00001d 0000          .field  0,16                    ; _xSchedulerRunning @ 0
      82              
      83 00001e               .sect   ".cinit"
      84                      .align  1
      85 00001e 0001          .field          1,16
      86 00001f 0000-         .field          _uxPendedTicks+0,24
         000020 6900 
      87 000020 6900          .field          0,8
      88 000021 0000          .field  0,16                    ; _uxPendedTicks @ 0
      89              
      90 000022               .sect   ".cinit"
      91                      .align  1
      92 000022 0001          .field          1,16
      93 000023 0000-         .field          _xYieldPending+0,24
         000024 6A00 
      94 000024 6A00          .field          0,8
      95 000025 0000          .field  0,16                    ; _xYieldPending @ 0
      96              
      97 000026               .sect   ".cinit"
      98                      .align  1
TMS320C55x Assembler PC v4.4.1 Sun Sep 09 04:48:39 2018

Tools Copyright (c) 1996-2012 Texas Instruments Incorporated
tasks_sysStk.asm                                                     PAGE    3

      99 000026 0001          .field          1,16
     100 000027 0000-         .field          _xNumOfOverflows+0,24
         000028 6B00 
     101 000028 6B00          .field          0,8
     102 000029 0000          .field  0,16                    ; _xNumOfOverflows @ 0
     103              
     104 00002a               .sect   ".cinit"
     105                      .align  1
     106 00002a 0001          .field          1,16
     107 00002b 0000-         .field          _uxTaskNumber+0,24
         00002c 6C00 
     108 00002c 6C00          .field          0,8
     109 00002d 0000          .field  0,16                    ; _uxTaskNumber @ 0
     110              
     111 00002e               .sect   ".cinit"
     112                      .align  1
     113 00002e 0001          .field          1,16
     114 00002f 0000-         .field          _xNextTaskUnblockTime+0,24
         000030 6D00 
     115 000030 6D00          .field          0,8
     116 000031 0000          .field  0,16                    ; _xNextTaskUnblockTime @ 0
     117              
     118 000032               .sect   ".cinit"
     119                      .align  1
     120 000032 0002          .field          2,16
     121 000033 0000-         .field          _xIdleTaskHandle+0,24
         000034 6E00 
     122 000034 6E00          .field          0,8
     123 000035 0000          .field  0,32                    ; _xIdleTaskHandle @ 0
         000036 0000 
     124              
     125 000037               .sect   ".cinit"
     126                      .align  1
     127 000037 0001          .field          1,16
     128 000038 0000-         .field          _uxSchedulerSuspended+0,24
         000039 7000 
     129 000039 7000          .field          0,8
     130 00003a 0000          .field  0,16                    ; _uxSchedulerSuspended @ 0
     131              
     132              
     133              $C$DW$1 .dwtag  DW_TAG_subprogram, DW_AT_name("memset")
     134                      .dwattr $C$DW$1, DW_AT_TI_symbol_name("_memset")
     135                      .dwattr $C$DW$1, DW_AT_type(*$C$DW$T$3)
     136                      .dwattr $C$DW$1, DW_AT_declaration
     137                      .dwattr $C$DW$1, DW_AT_external
     138              $C$DW$2 .dwtag  DW_TAG_formal_parameter
     139                      .dwattr $C$DW$2, DW_AT_type(*$C$DW$T$3)
     140              $C$DW$3 .dwtag  DW_TAG_formal_parameter
     141                      .dwattr $C$DW$3, DW_AT_type(*$C$DW$T$10)
     142              $C$DW$4 .dwtag  DW_TAG_formal_parameter
     143                      .dwattr $C$DW$4, DW_AT_type(*$C$DW$T$50)
     144                      .dwendtag $C$DW$1
     145              
     146              
     147              $C$DW$5 .dwtag  DW_TAG_subprogram, DW_AT_name("vPortYield")
TMS320C55x Assembler PC v4.4.1 Sun Sep 09 04:48:39 2018

Tools Copyright (c) 1996-2012 Texas Instruments Incorporated
tasks_sysStk.asm                                                     PAGE    4

     148                      .dwattr $C$DW$5, DW_AT_TI_symbol_name("_vPortYield")
     149                      .dwattr $C$DW$5, DW_AT_declaration
     150                      .dwattr $C$DW$5, DW_AT_external
     151              
     152              $C$DW$6 .dwtag  DW_TAG_subprogram, DW_AT_name("pxPortInitialiseStack")
     153                      .dwattr $C$DW$6, DW_AT_TI_symbol_name("_pxPortInitialiseStack")
     154                      .dwattr $C$DW$6, DW_AT_declaration
     155                      .dwattr $C$DW$6, DW_AT_external
     156              $C$DW$7 .dwtag  DW_TAG_formal_parameter
     157                      .dwattr $C$DW$7, DW_AT_type(*$C$DW$T$28)
     158              $C$DW$8 .dwtag  DW_TAG_formal_parameter
     159                      .dwattr $C$DW$8, DW_AT_type(*$C$DW$T$28)
     160              $C$DW$9 .dwtag  DW_TAG_formal_parameter
     161                      .dwattr $C$DW$9, DW_AT_type(*$C$DW$T$60)
     162              $C$DW$10        .dwtag  DW_TAG_formal_parameter
     163                      .dwattr $C$DW$10, DW_AT_type(*$C$DW$T$3)
     164                      .dwendtag $C$DW$6
     165              
     166              
     167              $C$DW$11        .dwtag  DW_TAG_subprogram, DW_AT_name("pvPortMalloc")
     168                      .dwattr $C$DW$11, DW_AT_TI_symbol_name("_pvPortMalloc")
     169                      .dwattr $C$DW$11, DW_AT_type(*$C$DW$T$3)
     170                      .dwattr $C$DW$11, DW_AT_declaration
     171                      .dwattr $C$DW$11, DW_AT_external
     172              $C$DW$12        .dwtag  DW_TAG_formal_parameter
     173                      .dwattr $C$DW$12, DW_AT_type(*$C$DW$T$50)
     174                      .dwendtag $C$DW$11
     175              
     176              
     177              $C$DW$13        .dwtag  DW_TAG_subprogram, DW_AT_name("vPortFree")
     178                      .dwattr $C$DW$13, DW_AT_TI_symbol_name("_vPortFree")
     179                      .dwattr $C$DW$13, DW_AT_declaration
     180                      .dwattr $C$DW$13, DW_AT_external
     181              $C$DW$14        .dwtag  DW_TAG_formal_parameter
     182                      .dwattr $C$DW$14, DW_AT_type(*$C$DW$T$3)
     183                      .dwendtag $C$DW$13
     184              
     185              
     186              $C$DW$15        .dwtag  DW_TAG_subprogram, DW_AT_name("xPortStartScheduler")
     187                      .dwattr $C$DW$15, DW_AT_TI_symbol_name("_xPortStartScheduler")
     188                      .dwattr $C$DW$15, DW_AT_type(*$C$DW$T$46)
     189                      .dwattr $C$DW$15, DW_AT_declaration
     190                      .dwattr $C$DW$15, DW_AT_external
     191              
     192              $C$DW$16        .dwtag  DW_TAG_subprogram, DW_AT_name("vPortEndScheduler")
     193                      .dwattr $C$DW$16, DW_AT_TI_symbol_name("_vPortEndScheduler")
     194                      .dwattr $C$DW$16, DW_AT_declaration
     195                      .dwattr $C$DW$16, DW_AT_external
     196              
     197              $C$DW$17        .dwtag  DW_TAG_subprogram, DW_AT_name("vListInitialise")
     198                      .dwattr $C$DW$17, DW_AT_TI_symbol_name("_vListInitialise")
     199                      .dwattr $C$DW$17, DW_AT_declaration
     200                      .dwattr $C$DW$17, DW_AT_external
     201              $C$DW$18        .dwtag  DW_TAG_formal_parameter
     202                      .dwattr $C$DW$18, DW_AT_type(*$C$DW$T$65)
TMS320C55x Assembler PC v4.4.1 Sun Sep 09 04:48:39 2018

Tools Copyright (c) 1996-2012 Texas Instruments Incorporated
tasks_sysStk.asm                                                     PAGE    5

     203                      .dwendtag $C$DW$17
     204              
     205              
     206              $C$DW$19        .dwtag  DW_TAG_subprogram, DW_AT_name("vListInitialiseItem")
     207                      .dwattr $C$DW$19, DW_AT_TI_symbol_name("_vListInitialiseItem")
     208                      .dwattr $C$DW$19, DW_AT_declaration
     209                      .dwattr $C$DW$19, DW_AT_external
     210              $C$DW$20        .dwtag  DW_TAG_formal_parameter
     211                      .dwattr $C$DW$20, DW_AT_type(*$C$DW$T$68)
     212                      .dwendtag $C$DW$19
     213              
     214              
     215              $C$DW$21        .dwtag  DW_TAG_subprogram, DW_AT_name("vListInsert")
     216                      .dwattr $C$DW$21, DW_AT_TI_symbol_name("_vListInsert")
     217                      .dwattr $C$DW$21, DW_AT_declaration
     218                      .dwattr $C$DW$21, DW_AT_external
     219              $C$DW$22        .dwtag  DW_TAG_formal_parameter
     220                      .dwattr $C$DW$22, DW_AT_type(*$C$DW$T$65)
     221              $C$DW$23        .dwtag  DW_TAG_formal_parameter
     222                      .dwattr $C$DW$23, DW_AT_type(*$C$DW$T$68)
     223                      .dwendtag $C$DW$21
     224              
     225              
     226              $C$DW$24        .dwtag  DW_TAG_subprogram, DW_AT_name("vListInsertEnd")
     227                      .dwattr $C$DW$24, DW_AT_TI_symbol_name("_vListInsertEnd")
     228                      .dwattr $C$DW$24, DW_AT_declaration
     229                      .dwattr $C$DW$24, DW_AT_external
     230              $C$DW$25        .dwtag  DW_TAG_formal_parameter
     231                      .dwattr $C$DW$25, DW_AT_type(*$C$DW$T$65)
     232              $C$DW$26        .dwtag  DW_TAG_formal_parameter
     233                      .dwattr $C$DW$26, DW_AT_type(*$C$DW$T$68)
     234                      .dwendtag $C$DW$24
     235              
     236              
     237              $C$DW$27        .dwtag  DW_TAG_subprogram, DW_AT_name("uxListRemove")
     238                      .dwattr $C$DW$27, DW_AT_TI_symbol_name("_uxListRemove")
     239                      .dwattr $C$DW$27, DW_AT_type(*$C$DW$T$27)
     240                      .dwattr $C$DW$27, DW_AT_declaration
     241                      .dwattr $C$DW$27, DW_AT_external
     242              $C$DW$28        .dwtag  DW_TAG_formal_parameter
     243                      .dwattr $C$DW$28, DW_AT_type(*$C$DW$T$68)
     244                      .dwendtag $C$DW$27
     245              
     246              
     247              $C$DW$29        .dwtag  DW_TAG_subprogram, DW_AT_name("vApplicationIdleHook")
     248                      .dwattr $C$DW$29, DW_AT_TI_symbol_name("_vApplicationIdleHook")
     249                      .dwattr $C$DW$29, DW_AT_declaration
     250                      .dwattr $C$DW$29, DW_AT_external
     251                      .global _wall_clk_ctr
     252 000000               .bss    _wall_clk_ctr,2,0,2
     253              $C$DW$30        .dwtag  DW_TAG_variable, DW_AT_name("wall_clk_ctr")
     254                      .dwattr $C$DW$30, DW_AT_TI_symbol_name("_wall_clk_ctr")
     255                      .dwattr $C$DW$30, DW_AT_location[DW_OP_addr _wall_clk_ctr]
     256                      .dwattr $C$DW$30, DW_AT_type(*$C$DW$T$13)
     257                      .dwattr $C$DW$30, DW_AT_external
TMS320C55x Assembler PC v4.4.1 Sun Sep 09 04:48:39 2018

Tools Copyright (c) 1996-2012 Texas Instruments Incorporated
tasks_sysStk.asm                                                     PAGE    6

     258                      .global _stackStruct
     259 000002               .bss    _stackStruct,2,0,2
     260              $C$DW$31        .dwtag  DW_TAG_variable, DW_AT_name("stackStruct")
     261                      .dwattr $C$DW$31, DW_AT_TI_symbol_name("_stackStruct")
     262                      .dwattr $C$DW$31, DW_AT_location[DW_OP_addr _stackStruct]
     263                      .dwattr $C$DW$31, DW_AT_type(*$C$DW$T$151)
     264                      .dwattr $C$DW$31, DW_AT_external
     265                      .global _pxCurrentTCB
     266 000004               .bss    _pxCurrentTCB,2,0,2
     267              $C$DW$32        .dwtag  DW_TAG_variable, DW_AT_name("pxCurrentTCB")
     268                      .dwattr $C$DW$32, DW_AT_TI_symbol_name("_pxCurrentTCB")
     269                      .dwattr $C$DW$32, DW_AT_location[DW_OP_addr _pxCurrentTCB]
     270                      .dwattr $C$DW$32, DW_AT_type(*$C$DW$T$155)
     271                      .dwattr $C$DW$32, DW_AT_external
     272 000006               .bss    _pxReadyTasksLists,40,0,2
     273              $C$DW$33        .dwtag  DW_TAG_variable, DW_AT_name("pxReadyTasksLists")
     274                      .dwattr $C$DW$33, DW_AT_TI_symbol_name("_pxReadyTasksLists")
     275                      .dwattr $C$DW$33, DW_AT_type(*$C$DW$T$158)
     276                      .dwattr $C$DW$33, DW_AT_location[DW_OP_addr _pxReadyTasksLists]
     277 00002e               .bss    _xDelayedTaskList1,10,0,2
     278              $C$DW$34        .dwtag  DW_TAG_variable, DW_AT_name("xDelayedTaskList1")
     279                      .dwattr $C$DW$34, DW_AT_TI_symbol_name("_xDelayedTaskList1")
     280                      .dwattr $C$DW$34, DW_AT_type(*$C$DW$T$63)
     281                      .dwattr $C$DW$34, DW_AT_location[DW_OP_addr _xDelayedTaskList1]
     282 000038               .bss    _xDelayedTaskList2,10,0,2
     283              $C$DW$35        .dwtag  DW_TAG_variable, DW_AT_name("xDelayedTaskList2")
     284                      .dwattr $C$DW$35, DW_AT_TI_symbol_name("_xDelayedTaskList2")
     285                      .dwattr $C$DW$35, DW_AT_type(*$C$DW$T$63)
     286                      .dwattr $C$DW$35, DW_AT_location[DW_OP_addr _xDelayedTaskList2]
     287 000042               .bss    _pxDelayedTaskList,2,0,2
     288              $C$DW$36        .dwtag  DW_TAG_variable, DW_AT_name("pxDelayedTaskList")
     289                      .dwattr $C$DW$36, DW_AT_TI_symbol_name("_pxDelayedTaskList")
     290                      .dwattr $C$DW$36, DW_AT_type(*$C$DW$T$157)
     291                      .dwattr $C$DW$36, DW_AT_location[DW_OP_addr _pxDelayedTaskList]
     292 000044               .bss    _pxOverflowDelayedTaskList,2,0,2
     293              $C$DW$37        .dwtag  DW_TAG_variable, DW_AT_name("pxOverflowDelayedTaskList")
     294                      .dwattr $C$DW$37, DW_AT_TI_symbol_name("_pxOverflowDelayedTaskList")
     295                      .dwattr $C$DW$37, DW_AT_type(*$C$DW$T$157)
     296                      .dwattr $C$DW$37, DW_AT_location[DW_OP_addr _pxOverflowDelayedTaskList]
     297 000046               .bss    _xPendingReadyList,10,0,2
     298              $C$DW$38        .dwtag  DW_TAG_variable, DW_AT_name("xPendingReadyList")
     299                      .dwattr $C$DW$38, DW_AT_TI_symbol_name("_xPendingReadyList")
     300                      .dwattr $C$DW$38, DW_AT_type(*$C$DW$T$63)
     301                      .dwattr $C$DW$38, DW_AT_location[DW_OP_addr _xPendingReadyList]
     302 000050               .bss    _xTasksWaitingTermination,10,0,2
     303              $C$DW$39        .dwtag  DW_TAG_variable, DW_AT_name("xTasksWaitingTermination")
     304                      .dwattr $C$DW$39, DW_AT_TI_symbol_name("_xTasksWaitingTermination")
     305                      .dwattr $C$DW$39, DW_AT_type(*$C$DW$T$63)
     306                      .dwattr $C$DW$39, DW_AT_location[DW_OP_addr _xTasksWaitingTermination]
     307 00005a               .bss    _uxDeletedTasksWaitingCleanUp,1,0,0
     308              $C$DW$40        .dwtag  DW_TAG_variable, DW_AT_name("uxDeletedTasksWaitingCleanUp")
     309                      .dwattr $C$DW$40, DW_AT_TI_symbol_name("_uxDeletedTasksWaitingCleanUp")
     310                      .dwattr $C$DW$40, DW_AT_type(*$C$DW$T$36)
     311                      .dwattr $C$DW$40, DW_AT_location[DW_OP_addr _uxDeletedTasksWaitingCleanUp]
     312 00005c               .bss    _xSuspendedTaskList,10,0,2
TMS320C55x Assembler PC v4.4.1 Sun Sep 09 04:48:39 2018

Tools Copyright (c) 1996-2012 Texas Instruments Incorporated
tasks_sysStk.asm                                                     PAGE    7

     313              $C$DW$41        .dwtag  DW_TAG_variable, DW_AT_name("xSuspendedTaskList")
     314                      .dwattr $C$DW$41, DW_AT_TI_symbol_name("_xSuspendedTaskList")
     315                      .dwattr $C$DW$41, DW_AT_type(*$C$DW$T$63)
     316                      .dwattr $C$DW$41, DW_AT_location[DW_OP_addr _xSuspendedTaskList]
     317 00005b               .bss    _uxCurrentNumberOfTasks,1,0,0
     318              $C$DW$42        .dwtag  DW_TAG_variable, DW_AT_name("uxCurrentNumberOfTasks")
     319                      .dwattr $C$DW$42, DW_AT_TI_symbol_name("_uxCurrentNumberOfTasks")
     320                      .dwattr $C$DW$42, DW_AT_type(*$C$DW$T$36)
     321                      .dwattr $C$DW$42, DW_AT_location[DW_OP_addr _uxCurrentNumberOfTasks]
     322 000066               .bss    _xTickCount,1,0,0
     323              $C$DW$43        .dwtag  DW_TAG_variable, DW_AT_name("xTickCount")
     324                      .dwattr $C$DW$43, DW_AT_TI_symbol_name("_xTickCount")
     325                      .dwattr $C$DW$43, DW_AT_type(*$C$DW$T$141)
     326                      .dwattr $C$DW$43, DW_AT_location[DW_OP_addr _xTickCount]
     327 000067               .bss    _uxTopReadyPriority,1,0,0
     328              $C$DW$44        .dwtag  DW_TAG_variable, DW_AT_name("uxTopReadyPriority")
     329                      .dwattr $C$DW$44, DW_AT_TI_symbol_name("_uxTopReadyPriority")
     330                      .dwattr $C$DW$44, DW_AT_type(*$C$DW$T$36)
     331                      .dwattr $C$DW$44, DW_AT_location[DW_OP_addr _uxTopReadyPriority]
     332 000068               .bss    _xSchedulerRunning,1,0,0
     333              $C$DW$45        .dwtag  DW_TAG_variable, DW_AT_name("xSchedulerRunning")
     334                      .dwattr $C$DW$45, DW_AT_TI_symbol_name("_xSchedulerRunning")
     335                      .dwattr $C$DW$45, DW_AT_type(*$C$DW$T$115)
     336                      .dwattr $C$DW$45, DW_AT_location[DW_OP_addr _xSchedulerRunning]
     337 000069               .bss    _uxPendedTicks,1,0,0
     338              $C$DW$46        .dwtag  DW_TAG_variable, DW_AT_name("uxPendedTicks")
     339                      .dwattr $C$DW$46, DW_AT_TI_symbol_name("_uxPendedTicks")
     340                      .dwattr $C$DW$46, DW_AT_type(*$C$DW$T$36)
     341                      .dwattr $C$DW$46, DW_AT_location[DW_OP_addr _uxPendedTicks]
     342 00006a               .bss    _xYieldPending,1,0,0
     343              $C$DW$47        .dwtag  DW_TAG_variable, DW_AT_name("xYieldPending")
     344                      .dwattr $C$DW$47, DW_AT_TI_symbol_name("_xYieldPending")
     345                      .dwattr $C$DW$47, DW_AT_type(*$C$DW$T$115)
     346                      .dwattr $C$DW$47, DW_AT_location[DW_OP_addr _xYieldPending]
     347 00006b               .bss    _xNumOfOverflows,1,0,0
     348              $C$DW$48        .dwtag  DW_TAG_variable, DW_AT_name("xNumOfOverflows")
     349                      .dwattr $C$DW$48, DW_AT_TI_symbol_name("_xNumOfOverflows")
     350                      .dwattr $C$DW$48, DW_AT_type(*$C$DW$T$115)
     351                      .dwattr $C$DW$48, DW_AT_location[DW_OP_addr _xNumOfOverflows]
     352 00006c               .bss    _uxTaskNumber,1,0,0
     353              $C$DW$49        .dwtag  DW_TAG_variable, DW_AT_name("uxTaskNumber")
     354                      .dwattr $C$DW$49, DW_AT_TI_symbol_name("_uxTaskNumber")
     355                      .dwattr $C$DW$49, DW_AT_type(*$C$DW$T$27)
     356                      .dwattr $C$DW$49, DW_AT_location[DW_OP_addr _uxTaskNumber]
     357 00006d               .bss    _xNextTaskUnblockTime,1,0,0
     358              $C$DW$50        .dwtag  DW_TAG_variable, DW_AT_name("xNextTaskUnblockTime")
     359                      .dwattr $C$DW$50, DW_AT_TI_symbol_name("_xNextTaskUnblockTime")
     360                      .dwattr $C$DW$50, DW_AT_type(*$C$DW$T$141)
     361                      .dwattr $C$DW$50, DW_AT_location[DW_OP_addr _xNextTaskUnblockTime]
     362 00006e               .bss    _xIdleTaskHandle,2,0,2
     363              $C$DW$51        .dwtag  DW_TAG_variable, DW_AT_name("xIdleTaskHandle")
     364                      .dwattr $C$DW$51, DW_AT_TI_symbol_name("_xIdleTaskHandle")
     365                      .dwattr $C$DW$51, DW_AT_type(*$C$DW$T$78)
     366                      .dwattr $C$DW$51, DW_AT_location[DW_OP_addr _xIdleTaskHandle]
     367 000070               .bss    _uxSchedulerSuspended,1,0,0
TMS320C55x Assembler PC v4.4.1 Sun Sep 09 04:48:39 2018

Tools Copyright (c) 1996-2012 Texas Instruments Incorporated
tasks_sysStk.asm                                                     PAGE    8

     368              $C$DW$52        .dwtag  DW_TAG_variable, DW_AT_name("uxSchedulerSuspended")
     369                      .dwattr $C$DW$52, DW_AT_TI_symbol_name("_uxSchedulerSuspended")
     370                      .dwattr $C$DW$52, DW_AT_type(*$C$DW$T$36)
     371                      .dwattr $C$DW$52, DW_AT_location[DW_OP_addr _uxSchedulerSuspended]
     372              $C$DW$53        .dwtag  DW_TAG_variable, DW_AT_name("usCriticalNesting")
     373                      .dwattr $C$DW$53, DW_AT_TI_symbol_name("_usCriticalNesting")
     374                      .dwattr $C$DW$53, DW_AT_type(*$C$DW$T$24)
     375                      .dwattr $C$DW$53, DW_AT_declaration
     376                      .dwattr $C$DW$53, DW_AT_external
     377              ;       F:\ti\ccs8p1\ccsv8\tools\compiler\alt-install-ti-cgt-c55x_4.4.1\bin\acp55.exe -@f:\\AppData\\Local\\T
     378 000000               .sect   ".text"
     379                      .align 4
     380                      .global _xTaskCreate
     381              
     382              $C$DW$54        .dwtag  DW_TAG_subprogram, DW_AT_name("xTaskCreate")
     383                      .dwattr $C$DW$54, DW_AT_low_pc(_xTaskCreate)
     384                      .dwattr $C$DW$54, DW_AT_high_pc(0x00)
     385                      .dwattr $C$DW$54, DW_AT_TI_symbol_name("_xTaskCreate")
     386                      .dwattr $C$DW$54, DW_AT_external
     387                      .dwattr $C$DW$54, DW_AT_type(*$C$DW$T$46)
     388                      .dwattr $C$DW$54, DW_AT_TI_begin_file("../FreeRTOS/Source/tasks_sysStk.c")
     389                      .dwattr $C$DW$54, DW_AT_TI_begin_line(0x2f3)
     390                      .dwattr $C$DW$54, DW_AT_TI_begin_column(0x0d)
     391                      .dwattr $C$DW$54, DW_AT_TI_max_frame_size(0x16)
     392                      .dwpsn  file "../FreeRTOS/Source/tasks_sysStk.c",line 761,column 2,is_stmt,address _xTaskCreate
     393              
     394                      .dwfde $C$DW$CIE, _xTaskCreate
     395              $C$DW$55        .dwtag  DW_TAG_formal_parameter, DW_AT_name("pxTaskCode")
     396                      .dwattr $C$DW$55, DW_AT_TI_symbol_name("_pxTaskCode")
     397                      .dwattr $C$DW$55, DW_AT_type(*$C$DW$T$60)
     398                      .dwattr $C$DW$55, DW_AT_location[DW_OP_reg1]
     399              $C$DW$56        .dwtag  DW_TAG_formal_parameter, DW_AT_name("pcName")
     400                      .dwattr $C$DW$56, DW_AT_TI_symbol_name("_pcName")
     401                      .dwattr $C$DW$56, DW_AT_type(*$C$DW$T$75)
     402                      .dwattr $C$DW$56, DW_AT_location[DW_OP_reg17]
     403              $C$DW$57        .dwtag  DW_TAG_formal_parameter, DW_AT_name("usStackDepth")
     404                      .dwattr $C$DW$57, DW_AT_TI_symbol_name("_usStackDepth")
     405                      .dwattr $C$DW$57, DW_AT_type(*$C$DW$T$119)
     406                      .dwattr $C$DW$57, DW_AT_location[DW_OP_reg12]
     407              $C$DW$58        .dwtag  DW_TAG_formal_parameter, DW_AT_name("pvParameters")
     408                      .dwattr $C$DW$58, DW_AT_TI_symbol_name("_pvParameters")
     409                      .dwattr $C$DW$58, DW_AT_type(*$C$DW$T$55)
     410                      .dwattr $C$DW$58, DW_AT_location[DW_OP_reg19]
     411              $C$DW$59        .dwtag  DW_TAG_formal_parameter, DW_AT_name("uxPriority")
     412                      .dwattr $C$DW$59, DW_AT_TI_symbol_name("_uxPriority")
     413                      .dwattr $C$DW$59, DW_AT_type(*$C$DW$T$27)
     414                      .dwattr $C$DW$59, DW_AT_location[DW_OP_reg13]
     415              $C$DW$60        .dwtag  DW_TAG_formal_parameter, DW_AT_name("pxCreatedTask")
     416                      .dwattr $C$DW$60, DW_AT_TI_symbol_name("_pxCreatedTask")
     417                      .dwattr $C$DW$60, DW_AT_type(*$C$DW$T$80)
     418                      .dwattr $C$DW$60, DW_AT_location[DW_OP_reg21]
     419              ;*******************************************************************************
     420              ;* FUNCTION NAME: xTaskCreate                                                  *
     421              ;*                                                                             *
     422              ;*   Function Uses Regs : AC0,AC0,AC1,AC1,T0,T1,AR0,XAR0,AR1,XAR1,AR2,XAR2,AR3,*
TMS320C55x Assembler PC v4.4.1 Sun Sep 09 04:48:39 2018

Tools Copyright (c) 1996-2012 Texas Instruments Incorporated
tasks_sysStk.asm                                                     PAGE    9

     423              ;*                        XAR3,AR4,XAR4,SP,M40,SATA,SATD,RDM,FRCT,SMUL         *
     424              ;*   Stack Frame        : Compact (No Frame Pointer, w/ debug)                 *
     425              ;*   Total Frame Size   : 22 words                                             *
     426              ;*                        (2 return address/alignment)                         *
     427              ;*                        (20 local values)                                    *
     428              ;*   Min System Stack   : 1 word                                               *
     429              ;*******************************************************************************
     430 000000       _xTaskCreate:
     431                      .dwcfi  cfa_offset, 1
     432                      .dwcfi  save_reg_to_mem, 91, -1
     433 000000 4EEB          AADD #-21, SP
     434                      .dwcfi  cfa_offset, 22
     435              $C$DW$61        .dwtag  DW_TAG_variable, DW_AT_name("pxTaskCode")
     436                      .dwattr $C$DW$61, DW_AT_TI_symbol_name("_pxTaskCode")
     437                      .dwattr $C$DW$61, DW_AT_type(*$C$DW$T$60)
     438                      .dwattr $C$DW$61, DW_AT_location[DW_OP_bregx 0x24 0]
     439              $C$DW$62        .dwtag  DW_TAG_variable, DW_AT_name("pcName")
     440                      .dwattr $C$DW$62, DW_AT_TI_symbol_name("_pcName")
     441                      .dwattr $C$DW$62, DW_AT_type(*$C$DW$T$75)
     442                      .dwattr $C$DW$62, DW_AT_location[DW_OP_bregx 0x24 2]
     443              $C$DW$63        .dwtag  DW_TAG_variable, DW_AT_name("usStackDepth")
     444                      .dwattr $C$DW$63, DW_AT_TI_symbol_name("_usStackDepth")
     445                      .dwattr $C$DW$63, DW_AT_type(*$C$DW$T$119)
     446                      .dwattr $C$DW$63, DW_AT_location[DW_OP_bregx 0x24 4]
     447              $C$DW$64        .dwtag  DW_TAG_variable, DW_AT_name("pvParameters")
     448                      .dwattr $C$DW$64, DW_AT_TI_symbol_name("_pvParameters")
     449                      .dwattr $C$DW$64, DW_AT_type(*$C$DW$T$55)
     450                      .dwattr $C$DW$64, DW_AT_location[DW_OP_bregx 0x24 6]
     451              $C$DW$65        .dwtag  DW_TAG_variable, DW_AT_name("uxPriority")
     452                      .dwattr $C$DW$65, DW_AT_TI_symbol_name("_uxPriority")
     453                      .dwattr $C$DW$65, DW_AT_type(*$C$DW$T$27)
     454                      .dwattr $C$DW$65, DW_AT_location[DW_OP_bregx 0x24 8]
     455              $C$DW$66        .dwtag  DW_TAG_variable, DW_AT_name("pxCreatedTask")
     456                      .dwattr $C$DW$66, DW_AT_TI_symbol_name("_pxCreatedTask")
     457                      .dwattr $C$DW$66, DW_AT_type(*$C$DW$T$80)
     458                      .dwattr $C$DW$66, DW_AT_location[DW_OP_bregx 0x24 10]
     459              $C$DW$67        .dwtag  DW_TAG_variable, DW_AT_name("pxNewTCB")
     460                      .dwattr $C$DW$67, DW_AT_TI_symbol_name("_pxNewTCB")
     461                      .dwattr $C$DW$67, DW_AT_type(*$C$DW$T$83)
     462                      .dwattr $C$DW$67, DW_AT_location[DW_OP_bregx 0x24 12]
     463              $C$DW$68        .dwtag  DW_TAG_variable, DW_AT_name("xReturn")
     464                      .dwattr $C$DW$68, DW_AT_TI_symbol_name("_xReturn")
     465                      .dwattr $C$DW$68, DW_AT_type(*$C$DW$T$46)
     466                      .dwattr $C$DW$68, DW_AT_location[DW_OP_bregx 0x24 14]
     467              $C$DW$69        .dwtag  DW_TAG_variable, DW_AT_name("pxStack")
     468                      .dwattr $C$DW$69, DW_AT_TI_symbol_name("_pxStack")
     469                      .dwattr $C$DW$69, DW_AT_type(*$C$DW$T$28)
     470                      .dwattr $C$DW$69, DW_AT_location[DW_OP_bregx 0x24 16]
     471              $C$DW$70        .dwtag  DW_TAG_variable, DW_AT_name("pxSysStack")
     472                      .dwattr $C$DW$70, DW_AT_TI_symbol_name("_pxSysStack")
     473                      .dwattr $C$DW$70, DW_AT_type(*$C$DW$T$28)
     474                      .dwattr $C$DW$70, DW_AT_location[DW_OP_bregx 0x24 18]
     475 000002 EB14          MOV XAR2, dbl(*SP(#10))
         000004 A5   
     476 000005 C510          MOV T1, *SP(#8) ; |761| 
TMS320C55x Assembler PC v4.4.1 Sun Sep 09 04:48:39 2018

Tools Copyright (c) 1996-2012 Texas Instruments Incorporated
tasks_sysStk.asm                                                     PAGE   10

     477 000007 EB0C          MOV XAR1, dbl(*SP(#6))
         000009 95   
     478 00000a C408          MOV T0, *SP(#4) ; |761| 
     479 00000c EB04          MOV XAR0, dbl(*SP(#2))
         00000e 85   
     480 00000f EB00          MOV AC0, dbl(*SP(#0)) ; |761| 
         000011 08   
     481                      .dwpsn  file "../FreeRTOS/Source/tasks_sysStk.c",line 765,column 2,is_stmt
     482              $C$DW$71        .dwtag  DW_TAG_TI_branch
     483                      .dwattr $C$DW$71, DW_AT_low_pc(0x00)
     484                      .dwattr $C$DW$71, DW_AT_name("_pvPortMalloc")
     485                      .dwattr $C$DW$71, DW_AT_TI_call
     486              
     487 000012 6C00          CALL #_pvPortMalloc ; |765| 
         000014 0000!
     488 000016 3D44  ||      MOV #4, T0
     489              
     490                                                      ; call occurs [#_pvPortMalloc] ; |765| 
     491 000018 EB31          MOV XAR0, dbl(*(#_stackStruct))
         00001a 8500 
         00001c 0002-
     492                      .dwpsn  file "../FreeRTOS/Source/tasks_sysStk.c",line 767,column 2,is_stmt
     493                      .dwpsn  file "../FreeRTOS/Source/tasks_sysStk.c",line 805,column 4,is_stmt
     494 00001e A408          MOV *SP(#4), T0 ; |805| 
     495              $C$DW$72        .dwtag  DW_TAG_TI_branch
     496                      .dwattr $C$DW$72, DW_AT_low_pc(0x00)
     497                      .dwattr $C$DW$72, DW_AT_name("_pvPortMalloc")
     498                      .dwattr $C$DW$72, DW_AT_TI_call
     499 000020 6C00          CALL #_pvPortMalloc ; |805| 
         000022 0000!
     500                                                      ; call occurs [#_pvPortMalloc] ; |805| 
     501 000024 EB20          MOV XAR0, dbl(*SP(#16))
         000026 85   
     502                      .dwpsn  file "../FreeRTOS/Source/tasks_sysStk.c",line 806,column 4,is_stmt
     503 000027 A408          MOV *SP(#4), T0 ; |806| 
     504              $C$DW$73        .dwtag  DW_TAG_TI_branch
     505                      .dwattr $C$DW$73, DW_AT_low_pc(0x00)
     506                      .dwattr $C$DW$73, DW_AT_name("_pvPortMalloc")
     507                      .dwattr $C$DW$73, DW_AT_TI_call
     508 000029 6C00          CALL #_pvPortMalloc ; |806| 
         00002b 0000!
     509                                                      ; call occurs [#_pvPortMalloc] ; |806| 
     510 00002d EB24          MOV XAR0, dbl(*SP(#18))
         00002f 85   
     511                      .dwpsn  file "../FreeRTOS/Source/tasks_sysStk.c",line 808,column 4,is_stmt
     512 000030 ED20          MOV dbl(*SP(#16)), XAR3
         000032 BF   
     513 000033 90B0          MOV XAR3, AC0
     514 000035 0400          BCC $C$L2,AC0 == #0 ; |808| 
         000037 43   
     515                                                      ; branchcc occurs ; |808| 
     516 000038 ED24          MOV dbl(*SP(#18)), XAR3
         00003a BF   
     517 00003b 90B0          MOV XAR3, AC0
     518 00003d 0400          BCC $C$L2,AC0 == #0 ; |808| 
TMS320C55x Assembler PC v4.4.1 Sun Sep 09 04:48:39 2018

Tools Copyright (c) 1996-2012 Texas Instruments Incorporated
tasks_sysStk.asm                                                     PAGE   11

         00003f 3B   
     519                                                      ; branchcc occurs ; |808| 
     520                      .dwpsn  file "../FreeRTOS/Source/tasks_sysStk.c",line 811,column 5,is_stmt
     521 000040 7600          MOV #42, T0 ; |811| 
         000042 2A48 
     522              $C$DW$74        .dwtag  DW_TAG_TI_branch
     523                      .dwattr $C$DW$74, DW_AT_low_pc(0x00)
     524                      .dwattr $C$DW$74, DW_AT_name("_pvPortMalloc")
     525                      .dwattr $C$DW$74, DW_AT_TI_call
     526 000044 6C00          CALL #_pvPortMalloc ; |811| 
         000046 0000!
     527                                                      ; call occurs [#_pvPortMalloc] ; |811| 
     528 000048 EB18          MOV XAR0, dbl(*SP(#12))
         00004a 85   
     529                      .dwpsn  file "../FreeRTOS/Source/tasks_sysStk.c",line 813,column 5,is_stmt
     530 00004b ED18          MOV dbl(*SP(#12)), XAR3
         00004d BF   
     531 00004e 90B0          MOV XAR3, AC0
     532 000050 0400          BCC $C$L1,AC0 == #0 ; |813| 
         000052 18   
     533                                                      ; branchcc occurs ; |813| 
     534                      .dwpsn  file "../FreeRTOS/Source/tasks_sysStk.c",line 816,column 6,is_stmt
     535 000053 ED18          MOV dbl(*SP(#12)), XAR2
         000055 AF   
     536 000056 ED20          MOV dbl(*SP(#16)), XAR3
         000058 BF   
     537 000059 EB4D          MOV XAR3, dbl(*AR2(#26))
         00005b B500 
         00005d 1A   
     538                      .dwpsn  file "../FreeRTOS/Source/tasks_sysStk.c",line 817,column 6,is_stmt
     539 00005e ED18          MOV dbl(*SP(#12)), XAR2
         000060 AF   
     540 000061 ED24          MOV dbl(*SP(#18)), XAR3
         000063 BF   
     541 000064 EB4D          MOV XAR3, dbl(*AR2(#28))
         000066 B500 
         000068 1C   
     542                      .dwpsn  file "../FreeRTOS/Source/tasks_sysStk.c",line 818,column 5,is_stmt
     543 000069 4A15          B $C$L3   ; |818| 
     544                                                      ; branch occurs ; |818| 
     545 00006b       $C$L1:    
     546                      .dwpsn  file "../FreeRTOS/Source/tasks_sysStk.c",line 823,column 6,is_stmt
     547 00006b ED20          MOV dbl(*SP(#16)), XAR0
         00006d 8F   
     548              $C$DW$75        .dwtag  DW_TAG_TI_branch
     549                      .dwattr $C$DW$75, DW_AT_low_pc(0x00)
     550                      .dwattr $C$DW$75, DW_AT_name("_vPortFree")
     551                      .dwattr $C$DW$75, DW_AT_TI_call
     552 00006e 6C00          CALL #_vPortFree ; |823| 
         000070 0000!
     553                                                      ; call occurs [#_vPortFree] ; |823| 
     554                      .dwpsn  file "../FreeRTOS/Source/tasks_sysStk.c",line 824,column 6,is_stmt
     555 000072 ED24          MOV dbl(*SP(#18)), XAR0
         000074 8F   
     556              $C$DW$76        .dwtag  DW_TAG_TI_branch
TMS320C55x Assembler PC v4.4.1 Sun Sep 09 04:48:39 2018

Tools Copyright (c) 1996-2012 Texas Instruments Incorporated
tasks_sysStk.asm                                                     PAGE   12

     557                      .dwattr $C$DW$76, DW_AT_low_pc(0x00)
     558                      .dwattr $C$DW$76, DW_AT_name("_vPortFree")
     559                      .dwattr $C$DW$76, DW_AT_TI_call
     560 000075 6C00          CALL #_vPortFree ; |824| 
         000077 0000!
     561                                                      ; call occurs [#_vPortFree] ; |824| 
     562                      .dwpsn  file "../FreeRTOS/Source/tasks_sysStk.c",line 826,column 4,is_stmt
     563 000079 4A05          B $C$L3   ; |826| 
     564                                                      ; branch occurs ; |826| 
     565 00007b       $C$L2:    
     566                      .dwpsn  file "../FreeRTOS/Source/tasks_sysStk.c",line 829,column 5,is_stmt
     567 00007b 3C00          MOV #0, AC0 ; |829| 
     568 00007d EB18          MOV AC0, dbl(*SP(#12))
         00007f 08   
     569 000080       $C$L3:    
     570                      .dwpsn  file "../FreeRTOS/Source/tasks_sysStk.c",line 834,column 3,is_stmt
     571 000080 ED18          MOV dbl(*SP(#12)), XAR3
         000082 BF   
     572 000083 90B0          MOV XAR3, AC0
     573 000085 0400          BCC $C$L4,AC0 == #0 ; |834| 
         000087 25   
     574                                                      ; branchcc occurs ; |834| 
     575                      .dwpsn  file "../FreeRTOS/Source/tasks_sysStk.c",line 844,column 4,is_stmt
     576 000088 DF08          MOV uns(*SP(#4)), AC1 ; |844| 
         00008a 15   
     577 00008b ED00          MOV dbl(*SP(#0)), AC0 ; |844| 
         00008d 08   
     578 00008e ED04          MOV dbl(*SP(#2)), XAR0
         000090 8F   
     579 000091 ED0C          MOV dbl(*SP(#6)), XAR1
         000093 9F   
     580 000094 A410          MOV *SP(#8), T0 ; |844| 
     581 000096 ED14          MOV dbl(*SP(#10)), XAR2
         000098 AF   
     582 000099 EC31          AMOV #0, XAR4 ; |844| 
         00009b CE00 
         00009d 0000 
     583              $C$DW$77        .dwtag  DW_TAG_TI_branch
     584                      .dwattr $C$DW$77, DW_AT_low_pc(0x00)
     585                      .dwattr $C$DW$77, DW_AT_name("_prvInitialiseNewTask")
     586                      .dwattr $C$DW$77, DW_AT_TI_call
     587 00009f 0800          CALL #_prvInitialiseNewTask ; |844| 
         0000a1 16   
     588                                                      ; call occurs [#_prvInitialiseNewTask] ; |844| 
     589                      .dwpsn  file "../FreeRTOS/Source/tasks_sysStk.c",line 845,column 4,is_stmt
     590 0000a2 ED18          MOV dbl(*SP(#12)), XAR0
         0000a4 8F   
     591              $C$DW$78        .dwtag  DW_TAG_TI_branch
     592                      .dwattr $C$DW$78, DW_AT_low_pc(0x00)
     593                      .dwattr $C$DW$78, DW_AT_name("_prvAddNewTaskToReadyList")
     594                      .dwattr $C$DW$78, DW_AT_TI_call
     595 0000a5 0801          CALL #_prvAddNewTaskToReadyList ; |845| 
         0000a7 74   
     596                                                      ; call occurs [#_prvAddNewTaskToReadyList] ; |845| 
     597                      .dwpsn  file "../FreeRTOS/Source/tasks_sysStk.c",line 846,column 4,is_stmt
TMS320C55x Assembler PC v4.4.1 Sun Sep 09 04:48:39 2018

Tools Copyright (c) 1996-2012 Texas Instruments Incorporated
tasks_sysStk.asm                                                     PAGE   13

     598 0000a8 E61C          MOV #1, *SP(#14) ; |846| 
         0000aa 01   
     599                      .dwpsn  file "../FreeRTOS/Source/tasks_sysStk.c",line 847,column 3,is_stmt
     600 0000ab 4A03          B $C$L5   ; |847| 
     601                                                      ; branch occurs ; |847| 
     602 0000ad       $C$L4:    
     603                      .dwpsn  file "../FreeRTOS/Source/tasks_sysStk.c",line 850,column 4,is_stmt
     604 0000ad E61C          MOV #-1, *SP(#14) ; |850| 
         0000af FF   
     605 0000b0       $C$L5:    
     606                      .dwpsn  file "../FreeRTOS/Source/tasks_sysStk.c",line 853,column 3,is_stmt
     607 0000b0 A41C          MOV *SP(#14), T0 ; |853| 
     608                      .dwpsn  file "../FreeRTOS/Source/tasks_sysStk.c",line 854,column 2,is_stmt
     609 0000b2 4E15          AADD #21, SP
     610                      .dwcfi  cfa_offset, 1
     611              $C$DW$79        .dwtag  DW_TAG_TI_branch
     612                      .dwattr $C$DW$79, DW_AT_low_pc(0x00)
     613                      .dwattr $C$DW$79, DW_AT_TI_return
     614 0000b4 4804          RET
     615                                                      ; return occurs
     616                      .dwattr $C$DW$54, DW_AT_TI_end_file("../FreeRTOS/Source/tasks_sysStk.c")
     617                      .dwattr $C$DW$54, DW_AT_TI_end_line(0x356)
     618                      .dwattr $C$DW$54, DW_AT_TI_end_column(0x02)
     619                      .dwendentry
     620                      .dwendtag $C$DW$54
     621              
     622 0000b6               .sect   ".text"
     623                      .align 4
     624              
     625              $C$DW$80        .dwtag  DW_TAG_subprogram, DW_AT_name("prvInitialiseNewTask")
     626                      .dwattr $C$DW$80, DW_AT_low_pc(_prvInitialiseNewTask)
     627                      .dwattr $C$DW$80, DW_AT_high_pc(0x00)
     628                      .dwattr $C$DW$80, DW_AT_TI_symbol_name("_prvInitialiseNewTask")
     629                      .dwattr $C$DW$80, DW_AT_TI_begin_file("../FreeRTOS/Source/tasks_sysStk.c")
     630                      .dwattr $C$DW$80, DW_AT_TI_begin_line(0x35b)
     631                      .dwattr $C$DW$80, DW_AT_TI_begin_column(0x0d)
     632                      .dwattr $C$DW$80, DW_AT_TI_max_frame_size(0x16)
     633                      .dwpsn  file "../FreeRTOS/Source/tasks_sysStk.c",line 867,column 1,is_stmt,address _prvInitialiseNewT
     634              
     635                      .dwfde $C$DW$CIE, _prvInitialiseNewTask
     636              $C$DW$81        .dwtag  DW_TAG_formal_parameter, DW_AT_name("pxTaskCode")
     637                      .dwattr $C$DW$81, DW_AT_TI_symbol_name("_pxTaskCode")
     638                      .dwattr $C$DW$81, DW_AT_type(*$C$DW$T$60)
     639                      .dwattr $C$DW$81, DW_AT_location[DW_OP_reg1]
     640              $C$DW$82        .dwtag  DW_TAG_formal_parameter, DW_AT_name("pcName")
     641                      .dwattr $C$DW$82, DW_AT_TI_symbol_name("_pcName")
     642                      .dwattr $C$DW$82, DW_AT_type(*$C$DW$T$75)
     643                      .dwattr $C$DW$82, DW_AT_location[DW_OP_reg17]
     644              $C$DW$83        .dwtag  DW_TAG_formal_parameter, DW_AT_name("ulStackDepth")
     645                      .dwattr $C$DW$83, DW_AT_TI_symbol_name("_ulStackDepth")
     646                      .dwattr $C$DW$83, DW_AT_type(*$C$DW$T$76)
     647                      .dwattr $C$DW$83, DW_AT_location[DW_OP_reg3]
     648              $C$DW$84        .dwtag  DW_TAG_formal_parameter, DW_AT_name("pvParameters")
     649                      .dwattr $C$DW$84, DW_AT_TI_symbol_name("_pvParameters")
     650                      .dwattr $C$DW$84, DW_AT_type(*$C$DW$T$55)
TMS320C55x Assembler PC v4.4.1 Sun Sep 09 04:48:39 2018

Tools Copyright (c) 1996-2012 Texas Instruments Incorporated
tasks_sysStk.asm                                                     PAGE   14

     651                      .dwattr $C$DW$84, DW_AT_location[DW_OP_reg19]
     652              $C$DW$85        .dwtag  DW_TAG_formal_parameter, DW_AT_name("uxPriority")
     653                      .dwattr $C$DW$85, DW_AT_TI_symbol_name("_uxPriority")
     654                      .dwattr $C$DW$85, DW_AT_type(*$C$DW$T$27)
     655                      .dwattr $C$DW$85, DW_AT_location[DW_OP_reg12]
     656              $C$DW$86        .dwtag  DW_TAG_formal_parameter, DW_AT_name("pxCreatedTask")
     657                      .dwattr $C$DW$86, DW_AT_TI_symbol_name("_pxCreatedTask")
     658                      .dwattr $C$DW$86, DW_AT_type(*$C$DW$T$80)
     659                      .dwattr $C$DW$86, DW_AT_location[DW_OP_reg21]
     660              $C$DW$87        .dwtag  DW_TAG_formal_parameter, DW_AT_name("pxNewTCB")
     661                      .dwattr $C$DW$87, DW_AT_TI_symbol_name("_pxNewTCB")
     662                      .dwattr $C$DW$87, DW_AT_type(*$C$DW$T$83)
     663                      .dwattr $C$DW$87, DW_AT_location[DW_OP_reg23]
     664              $C$DW$88        .dwtag  DW_TAG_formal_parameter, DW_AT_name("xRegions")
     665                      .dwattr $C$DW$88, DW_AT_TI_symbol_name("_xRegions")
     666                      .dwattr $C$DW$88, DW_AT_type(*$C$DW$T$87)
     667                      .dwattr $C$DW$88, DW_AT_location[DW_OP_reg25]
     668              ;*******************************************************************************
     669              ;* FUNCTION NAME: prvInitialiseNewTask                                         *
     670              ;*                                                                             *
     671              ;*   Function Uses Regs : AC0,AC0,AC1,AC1,T0,T1,AR0,XAR0,AR1,XAR1,AR2,XAR2,AR3,*
     672              ;*                        XAR3,AR4,XAR4,SP,CARRY,TC1,M40,SATA,SATD,RDM,FRCT,   *
     673              ;*                        SMUL                                                 *
     674              ;*   Stack Frame        : Compact (No Frame Pointer, w/ debug)                 *
     675              ;*   Total Frame Size   : 22 words                                             *
     676              ;*                        (1 return address/alignment)                         *
     677              ;*                        (21 local values)                                    *
     678              ;*   Min System Stack   : 1 word                                               *
     679              ;*******************************************************************************
     680 0000b8       _prvInitialiseNewTask:
     681                      .dwcfi  cfa_offset, 1
     682                      .dwcfi  save_reg_to_mem, 91, -1
     683 0000b8 4EEB          AADD #-21, SP
     684                      .dwcfi  cfa_offset, 22
     685              $C$DW$89        .dwtag  DW_TAG_variable, DW_AT_name("pxTaskCode")
     686                      .dwattr $C$DW$89, DW_AT_TI_symbol_name("_pxTaskCode")
     687                      .dwattr $C$DW$89, DW_AT_type(*$C$DW$T$60)
     688                      .dwattr $C$DW$89, DW_AT_location[DW_OP_bregx 0x24 0]
     689              $C$DW$90        .dwtag  DW_TAG_variable, DW_AT_name("pcName")
     690                      .dwattr $C$DW$90, DW_AT_TI_symbol_name("_pcName")
     691                      .dwattr $C$DW$90, DW_AT_type(*$C$DW$T$75)
     692                      .dwattr $C$DW$90, DW_AT_location[DW_OP_bregx 0x24 2]
     693              $C$DW$91        .dwtag  DW_TAG_variable, DW_AT_name("ulStackDepth")
     694                      .dwattr $C$DW$91, DW_AT_TI_symbol_name("_ulStackDepth")
     695                      .dwattr $C$DW$91, DW_AT_type(*$C$DW$T$76)
     696                      .dwattr $C$DW$91, DW_AT_location[DW_OP_bregx 0x24 4]
     697              $C$DW$92        .dwtag  DW_TAG_variable, DW_AT_name("pvParameters")
     698                      .dwattr $C$DW$92, DW_AT_TI_symbol_name("_pvParameters")
     699                      .dwattr $C$DW$92, DW_AT_type(*$C$DW$T$55)
     700                      .dwattr $C$DW$92, DW_AT_location[DW_OP_bregx 0x24 6]
     701              $C$DW$93        .dwtag  DW_TAG_variable, DW_AT_name("uxPriority")
     702                      .dwattr $C$DW$93, DW_AT_TI_symbol_name("_uxPriority")
     703                      .dwattr $C$DW$93, DW_AT_type(*$C$DW$T$27)
     704                      .dwattr $C$DW$93, DW_AT_location[DW_OP_bregx 0x24 8]
     705              $C$DW$94        .dwtag  DW_TAG_variable, DW_AT_name("pxCreatedTask")
TMS320C55x Assembler PC v4.4.1 Sun Sep 09 04:48:39 2018

Tools Copyright (c) 1996-2012 Texas Instruments Incorporated
tasks_sysStk.asm                                                     PAGE   15

     706                      .dwattr $C$DW$94, DW_AT_TI_symbol_name("_pxCreatedTask")
     707                      .dwattr $C$DW$94, DW_AT_type(*$C$DW$T$80)
     708                      .dwattr $C$DW$94, DW_AT_location[DW_OP_bregx 0x24 10]
     709              $C$DW$95        .dwtag  DW_TAG_variable, DW_AT_name("pxNewTCB")
     710                      .dwattr $C$DW$95, DW_AT_TI_symbol_name("_pxNewTCB")
     711                      .dwattr $C$DW$95, DW_AT_type(*$C$DW$T$83)
     712                      .dwattr $C$DW$95, DW_AT_location[DW_OP_bregx 0x24 12]
     713              $C$DW$96        .dwtag  DW_TAG_variable, DW_AT_name("xRegions")
     714                      .dwattr $C$DW$96, DW_AT_TI_symbol_name("_xRegions")
     715                      .dwattr $C$DW$96, DW_AT_type(*$C$DW$T$87)
     716                      .dwattr $C$DW$96, DW_AT_location[DW_OP_bregx 0x24 14]
     717              $C$DW$97        .dwtag  DW_TAG_variable, DW_AT_name("pxTopOfStack")
     718                      .dwattr $C$DW$97, DW_AT_TI_symbol_name("_pxTopOfStack")
     719                      .dwattr $C$DW$97, DW_AT_type(*$C$DW$T$28)
     720                      .dwattr $C$DW$97, DW_AT_location[DW_OP_bregx 0x24 16]
     721              $C$DW$98        .dwtag  DW_TAG_variable, DW_AT_name("pxTopOfSysStack")
     722                      .dwattr $C$DW$98, DW_AT_TI_symbol_name("_pxTopOfSysStack")
     723                      .dwattr $C$DW$98, DW_AT_type(*$C$DW$T$28)
     724                      .dwattr $C$DW$98, DW_AT_location[DW_OP_bregx 0x24 18]
     725              $C$DW$99        .dwtag  DW_TAG_variable, DW_AT_name("x")
     726                      .dwattr $C$DW$99, DW_AT_TI_symbol_name("_x")
     727                      .dwattr $C$DW$99, DW_AT_type(*$C$DW$T$27)
     728                      .dwattr $C$DW$99, DW_AT_location[DW_OP_bregx 0x24 20]
     729 0000ba EB1C          MOV XAR4, dbl(*SP(#14))
         0000bc C5   
     730 0000bd EB18          MOV XAR3, dbl(*SP(#12))
         0000bf B5   
     731 0000c0 EB14          MOV XAR2, dbl(*SP(#10))
         0000c2 A5   
     732 0000c3 C410          MOV T0, *SP(#8) ; |867| 
     733 0000c5 EB0C          MOV XAR1, dbl(*SP(#6))
         0000c7 95   
     734 0000c8 EB08          MOV AC1, dbl(*SP(#4)) ; |867| 
         0000ca 18   
     735 0000cb EB04          MOV XAR0, dbl(*SP(#2))
         0000cd 85   
     736 0000ce EB00          MOV AC0, dbl(*SP(#0)) ; |867| 
         0000d0 08   
     737                      .dwpsn  file "../FreeRTOS/Source/tasks_sysStk.c",line 892,column 3,is_stmt
     738 0000d1 ED18          MOV dbl(*SP(#12)), XAR3
         0000d3 BF   
     739 0000d4 7600          MOV #165, T0 ; |892| 
         0000d6 A548 
     740 0000d8 A50A          MOV *SP(#5), T1 ; |892| 
     741 0000da ED6D          MOV dbl(*AR3(#26)), XAR0
         0000dc 8F00 
         0000de 1A   
     742              $C$DW$100       .dwtag  DW_TAG_TI_branch
     743                      .dwattr $C$DW$100, DW_AT_low_pc(0x00)
     744                      .dwattr $C$DW$100, DW_AT_name("_memset")
     745                      .dwattr $C$DW$100, DW_AT_TI_call
     746 0000df 6C00          CALL #_memset ; |892| 
         0000e1 0000!
     747                                                      ; call occurs [#_memset] ; |892| 
     748                      .dwpsn  file "../FreeRTOS/Source/tasks_sysStk.c",line 893,column 3,is_stmt
TMS320C55x Assembler PC v4.4.1 Sun Sep 09 04:48:39 2018

Tools Copyright (c) 1996-2012 Texas Instruments Incorporated
tasks_sysStk.asm                                                     PAGE   16

     749 0000e3 ED18          MOV dbl(*SP(#12)), XAR3
         0000e5 BF   
     750 0000e6 7600          MOV #165, T0 ; |893| 
         0000e8 A548 
     751 0000ea A50A          MOV *SP(#5), T1 ; |893| 
     752 0000ec ED6D          MOV dbl(*AR3(#28)), XAR0
         0000ee 8F00 
         0000f0 1C   
     753              $C$DW$101       .dwtag  DW_TAG_TI_branch
     754                      .dwattr $C$DW$101, DW_AT_low_pc(0x00)
     755                      .dwattr $C$DW$101, DW_AT_name("_memset")
     756                      .dwattr $C$DW$101, DW_AT_TI_call
     757 0000f1 6C00          CALL #_memset ; |893| 
         0000f3 0000!
     758                                                      ; call occurs [#_memset] ; |893| 
     759                      .dwpsn  file "../FreeRTOS/Source/tasks_sysStk.c",line 903,column 3,is_stmt
     760 0000f5 ED18          MOV dbl(*SP(#12)), XAR3
         0000f7 BF   
     761 0000f8 ED6D          MOV dbl(*AR3(#26)), XAR3
         0000fa BF00 
         0000fc 1A   
     762 0000fd ED08          MOV dbl(*SP(#4)), AC0 ; |903| 
         0000ff 08   
     763 000100 4210          SUB #1, AC0 ; |903| 
     764 000102 2209          MOV AC0, AR1 ; |903| 
     765              
     766 000104 8E20          MOV XAR3, dbl(*SP(#16))
         000106 BB10 
         000108 B590 
     767              ||      AADD AR1, AR3 ; |903| 
     768              
     769                      .dwpsn  file "../FreeRTOS/Source/tasks_sysStk.c",line 904,column 3,is_stmt
     770 00010a 90B0          MOV XAR3, AC0
     771 00010c 7AFF          MOV #-1 << #16, AC1 ; |904| 
         00010e FF1A 
     772 000110 7EFF          OR #0xfffc, AC1, AC1 ; |904| 
         000112 FC11 
     773 000114 2801          AND AC0, AC1 ; |904| 
     774 000116 EB20          MOV AC1, dbl(*SP(#16))
         000118 18   
     775                      .dwpsn  file "../FreeRTOS/Source/tasks_sysStk.c",line 905,column 3,is_stmt
     776 000119 ED18          MOV dbl(*SP(#12)), XAR3
         00011b BF   
     777 00011c ED08          MOV dbl(*SP(#4)), AC0 ; |905| 
         00011e 08   
     778 00011f 4210          SUB #1, AC0 ; |905| 
     779 000121 2209          MOV AC0, AR1 ; |905| 
     780 000123 ED6D          MOV dbl(*AR3(#28)), XAR3
         000125 BF00 
         000127 1C   
     781              
     782 000128 8E24          MOV XAR3, dbl(*SP(#18))
         00012a BB10 
         00012c B590 
     783              ||      AADD AR1, AR3 ; |905| 
TMS320C55x Assembler PC v4.4.1 Sun Sep 09 04:48:39 2018

Tools Copyright (c) 1996-2012 Texas Instruments Incorporated
tasks_sysStk.asm                                                     PAGE   17

     784              
     785                      .dwpsn  file "../FreeRTOS/Source/tasks_sysStk.c",line 906,column 3,is_stmt
     786 00012e 7AFF          MOV #-1 << #16, AC1 ; |906| 
         000130 FF1A 
     787 000132 90B0          MOV XAR3, AC0
     788 000134 7EFF          OR #0xfffc, AC1, AC1 ; |906| 
         000136 FC11 
     789 000138 2801          AND AC0, AC1 ; |906| 
     790 00013a EB24          MOV AC1, dbl(*SP(#18))
         00013c 18   
     791                      .dwpsn  file "../FreeRTOS/Source/tasks_sysStk.c",line 937,column 7,is_stmt
     792 00013d E628          MOV #0, *SP(#20) ; |937| 
         00013f 00   
     793                      .dwpsn  file "../FreeRTOS/Source/tasks_sysStk.c",line 937,column 30,is_stmt
     794              
     795 000140 A928          MOV *SP(#20), AR1 ; |937| 
     796 000142 3D8A  ||      MOV #8, AR2
     797              
     798 000144 1298          CMPU AR1 >= AR2, TC1 ; |937| 
         000146 A4   
     799 000147 0464          BCC $C$L8,TC1 ; |937| 
         000149 2C   
     800                                                      ; branchcc occurs ; |937| 
     801 00014a       $C$L6:    
     802 00014a       $C$DW$L$_prvInitialiseNewTask$2$B:
     803                      .dwpsn  file "../FreeRTOS/Source/tasks_sysStk.c",line 939,column 3,is_stmt
     804 00014a A428          MOV *SP(#20), T0 ; |939| 
     805 00014c ED04          MOV dbl(*SP(#2)), XAR3
         00014e BF   
     806 00014f 2249          MOV T0, AR1
     807 000151 AA6B          MOV *AR3(T0), AR2 ; |939| 
     808 000153 ED18          MOV dbl(*SP(#12)), XAR3
         000155 BF   
     809 000156 1490          AADD AR1, AR3 ; |939| 
         000158 B0   
     810 000159 CA6D          MOV AR2, *AR3(#30) ; |939| 
         00015b 001E 
     811                      .dwpsn  file "../FreeRTOS/Source/tasks_sysStk.c",line 944,column 3,is_stmt
     812 00015d A428          MOV *SP(#20), T0 ; |944| 
     813 00015f ED04          MOV dbl(*SP(#2)), XAR3
         000161 BF   
     814 000162 A96B          MOV *AR3(T0), AR1 ; |944| 
     815 000164 6119          BCC $C$L7,AR1 != #0 ; |944| 
     816                                                      ; branchcc occurs ; |944| 
     817 000166       $C$DW$L$_prvInitialiseNewTask$2$E:
     818                      .dwpsn  file "../FreeRTOS/Source/tasks_sysStk.c",line 946,column 4,is_stmt
     819 000166 4A0E          B $C$L8   ; |946| 
     820                                                      ; branch occurs ; |946| 
     821 000168       $C$L7:    
     822 000168       $C$DW$L$_prvInitialiseNewTask$5$B:
     823                      .dwpsn  file "../FreeRTOS/Source/tasks_sysStk.c",line 937,column 75,is_stmt
     824 000168 F728          ADD #1, *SP(#20) ; |937| 
         00016a 0001 
     825                      .dwpsn  file "../FreeRTOS/Source/tasks_sysStk.c",line 937,column 30,is_stmt
     826              
TMS320C55x Assembler PC v4.4.1 Sun Sep 09 04:48:39 2018

Tools Copyright (c) 1996-2012 Texas Instruments Incorporated
tasks_sysStk.asm                                                     PAGE   18

     827 00016c A928          MOV *SP(#20), AR1 ; |937| 
     828 00016e 3D8A  ||      MOV #8, AR2
     829              
     830 000170 1294          CMPU AR1 < AR2, TC1 ; |937| 
         000172 A4   
     831 000173 0464          BCC $C$L6,TC1 ; |937| 
         000175 D4   
     832                                                      ; branchcc occurs ; |937| 
     833 000176       $C$DW$L$_prvInitialiseNewTask$5$E:
     834 000176       $C$L8:    
     835                      .dwpsn  file "../FreeRTOS/Source/tasks_sysStk.c",line 956,column 2,is_stmt
     836 000176 ED18          MOV dbl(*SP(#12)), XAR3
         000178 BF   
     837 000179 E66D          MOV #0, *AR3(#37) ; |956| 
         00017b 0000 
         00017d 25   
     838                      .dwpsn  file "../FreeRTOS/Source/tasks_sysStk.c",line 960,column 2,is_stmt
     839              
     840 00017e A910          MOV *SP(#8), AR1 ; |960| 
     841 000180 3D4A  ||      MOV #4, AR2
     842              
     843 000182 1294          CMPU AR1 < AR2, TC1 ; |960| 
         000184 A4   
     844 000185 61E4          BCC $C$L9,TC1 ; |960| 
     845                                                      ; branchcc occurs ; |960| 
     846                      .dwpsn  file "../FreeRTOS/Source/tasks_sysStk.c",line 962,column 3,is_stmt
     847 000187 E610          MOV #3, *SP(#8) ; |962| 
         000189 03   
     848                      .dwpsn  file "../FreeRTOS/Source/tasks_sysStk.c",line 963,column 2,is_stmt
     849 00018a       $C$L9:    
     850                      .dwpsn  file "../FreeRTOS/Source/tasks_sysStk.c",line 969,column 2,is_stmt
     851 00018a ED18          MOV dbl(*SP(#12)), XAR3
         00018c BF   
     852 00018d A910          MOV *SP(#8), AR1 ; |969| 
     853 00018f C96D          MOV AR1, *AR3(#24) ; |969| 
         000191 0018 
     854                      .dwpsn  file "../FreeRTOS/Source/tasks_sysStk.c",line 977,column 2,is_stmt
     855 000193 ED18          MOV dbl(*SP(#12)), XAR0
         000195 8F   
     856 000196 1404          AADD #4, AR0 ; |977| 
         000198 84   
     857              $C$DW$102       .dwtag  DW_TAG_TI_branch
     858                      .dwattr $C$DW$102, DW_AT_low_pc(0x00)
     859                      .dwattr $C$DW$102, DW_AT_name("_vListInitialiseItem")
     860                      .dwattr $C$DW$102, DW_AT_TI_call
     861 000199 6C00          CALL #_vListInitialiseItem ; |977| 
         00019b 0000!
     862                                                      ; call occurs [#_vListInitialiseItem] ; |977| 
     863                      .dwpsn  file "../FreeRTOS/Source/tasks_sysStk.c",line 978,column 2,is_stmt
     864 00019d ED18          MOV dbl(*SP(#12)), XAR0
         00019f 8F   
     865 0001a0 140E          AADD #14, AR0 ; |978| 
         0001a2 84   
     866              $C$DW$103       .dwtag  DW_TAG_TI_branch
     867                      .dwattr $C$DW$103, DW_AT_low_pc(0x00)
TMS320C55x Assembler PC v4.4.1 Sun Sep 09 04:48:39 2018

Tools Copyright (c) 1996-2012 Texas Instruments Incorporated
tasks_sysStk.asm                                                     PAGE   19

     868                      .dwattr $C$DW$103, DW_AT_name("_vListInitialiseItem")
     869                      .dwattr $C$DW$103, DW_AT_TI_call
     870 0001a3 6C00          CALL #_vListInitialiseItem ; |978| 
         0001a5 0000!
     871                                                      ; call occurs [#_vListInitialiseItem] ; |978| 
     872                      .dwpsn  file "../FreeRTOS/Source/tasks_sysStk.c",line 982,column 2,is_stmt
     873 0001a7 ED18          MOV dbl(*SP(#12)), XAR2
         0001a9 AF   
     874 0001aa ED18          MOV dbl(*SP(#12)), XAR3
         0001ac BF   
     875 0001ad EB4D          MOV XAR3, dbl(*AR2(#10))
         0001af B500 
         0001b1 0A   
     876                      .dwpsn  file "../FreeRTOS/Source/tasks_sysStk.c",line 985,column 2,is_stmt
     877 0001b2 ED18          MOV dbl(*SP(#12)), XAR3
         0001b4 BF   
     878 0001b5 3C40          MOV #4, AC0
     879 0001b7 DF10          SUB uns(*SP(#8)), AC0, AC0 ; |985| 
         0001b9 0F   
     880 0001ba C06D          MOV AC0, *AR3(#14) ; |985| 
         0001bc 000E 
     881                      .dwpsn  file "../FreeRTOS/Source/tasks_sysStk.c",line 986,column 2,is_stmt
     882 0001be ED18          MOV dbl(*SP(#12)), XAR2
         0001c0 AF   
     883 0001c1 ED18          MOV dbl(*SP(#12)), XAR3
         0001c3 BF   
     884 0001c4 EB4D          MOV XAR3, dbl(*AR2(#20))
         0001c6 B500 
         0001c8 14   
     885                      .dwpsn  file "../FreeRTOS/Source/tasks_sysStk.c",line 1013,column 3,is_stmt
     886                      .dwpsn  file "../FreeRTOS/Source/tasks_sysStk.c",line 1028,column 3,is_stmt
     887 0001c9 ED18          MOV dbl(*SP(#12)), XAR3
         0001cb BF   
     888 0001cc 3C00          MOV #0, AC0 ; |1028| 
     889 0001ce EB6D          MOV AC0, dbl(*AR3(#38)) ; |1028| 
         0001d0 0800 
         0001d2 26   
     890                      .dwpsn  file "../FreeRTOS/Source/tasks_sysStk.c",line 1029,column 3,is_stmt
     891 0001d3 ED18          MOV dbl(*SP(#12)), XAR3
         0001d5 BF   
     892 0001d6 E66D          MOV #0, *AR3(#40) ; |1029| 
         0001d8 0000 
         0001da 28   
     893                      .dwpsn  file "../FreeRTOS/Source/tasks_sysStk.c",line 1056,column 3,is_stmt
     894 0001db ED00          MOV dbl(*SP(#0)), AC0 ; |1056| 
         0001dd 08   
     895 0001de ED0C          MOV dbl(*SP(#6)), XAR2
         0001e0 AF   
     896 0001e1 ED20          MOV dbl(*SP(#16)), XAR0
         0001e3 8F   
     897 0001e4 ED24          MOV dbl(*SP(#18)), XAR1
         0001e6 9F   
     898              $C$DW$104       .dwtag  DW_TAG_TI_branch
     899                      .dwattr $C$DW$104, DW_AT_low_pc(0x00)
     900                      .dwattr $C$DW$104, DW_AT_name("_pxPortInitialiseStack")
TMS320C55x Assembler PC v4.4.1 Sun Sep 09 04:48:39 2018

Tools Copyright (c) 1996-2012 Texas Instruments Incorporated
tasks_sysStk.asm                                                     PAGE   20

     901                      .dwattr $C$DW$104, DW_AT_TI_call
     902 0001e7 6C00          CALL #_pxPortInitialiseStack ; |1056| 
         0001e9 0000!
     903                                                      ; call occurs [#_pxPortInitialiseStack] ; |1056| 
     904                      .dwpsn  file "../FreeRTOS/Source/tasks_sysStk.c",line 1057,column 3,is_stmt
     905 0001eb ED31          MOV dbl(*(#_stackStruct)), XAR3
         0001ed BF00 
         0001ef 0002-
     906 0001f1 ED18          MOV dbl(*SP(#12)), XAR2
         0001f3 AF   
     907 0001f4 8061          MOV dbl(*AR3), dbl(*AR2)
         0001f6 00   
     908                      .dwpsn  file "../FreeRTOS/Source/tasks_sysStk.c",line 1058,column 3,is_stmt
     909 0001f7 ED31          MOV dbl(*(#_stackStruct)), XAR3
         0001f9 BF00 
         0001fb 0002-
     910 0001fd ED75          MOV dbl(*AR3(short(#2))), XAR2
         0001ff AF   
     911 000200 ED18          MOV dbl(*SP(#12)), XAR3
         000202 BF   
     912 000203 EB75          MOV XAR2, dbl(*AR3(short(#2)))
         000205 A5   
     913                      .dwpsn  file "../FreeRTOS/Source/tasks_sysStk.c",line 1062,column 2,is_stmt
     914 000206 ED14          MOV dbl(*SP(#10)), XAR3
         000208 BF   
     915 000209 90B0          MOV XAR3, AC0
     916 00020b 6580          BCC $C$L10,AC0 == #0 ; |1062| 
     917                                                      ; branchcc occurs ; |1062| 
     918                      .dwpsn  file "../FreeRTOS/Source/tasks_sysStk.c",line 1066,column 3,is_stmt
     919 00020d ED14          MOV dbl(*SP(#10)), XAR2
         00020f AF   
     920 000210 ED18          MOV dbl(*SP(#12)), XAR3
         000212 BF   
     921 000213 EB41          MOV XAR3, dbl(*AR2)
         000215 B5   
     922                      .dwpsn  file "../FreeRTOS/Source/tasks_sysStk.c",line 1067,column 2,is_stmt
     923 000216 4A00          B $C$L10  ; |1067| 
     924                                                      ; branch occurs ; |1067| 
     925 000218       $C$L10:    
     926 000218 4E15          AADD #21, SP
     927                      .dwcfi  cfa_offset, 1
     928              $C$DW$105       .dwtag  DW_TAG_TI_branch
     929                      .dwattr $C$DW$105, DW_AT_low_pc(0x00)
     930                      .dwattr $C$DW$105, DW_AT_TI_return
     931 00021a 4804          RET
     932                                                      ; return occurs
     933              
     934              $C$DW$106       .dwtag  DW_TAG_TI_loop
     935                      .dwattr $C$DW$106, DW_AT_name("F:\eZdsp_DBG\eZDSP_5535_Files\ccsws2\test\Debug\tasks_sysStk.asm:$C$L6
     936                      .dwattr $C$DW$106, DW_AT_TI_begin_file("../FreeRTOS/Source/tasks_sysStk.c")
     937                      .dwattr $C$DW$106, DW_AT_TI_begin_line(0x3a9)
     938                      .dwattr $C$DW$106, DW_AT_TI_end_line(0x3b8)
     939              $C$DW$107       .dwtag  DW_TAG_TI_loop_range
     940                      .dwattr $C$DW$107, DW_AT_low_pc($C$DW$L$_prvInitialiseNewTask$2$B)
     941                      .dwattr $C$DW$107, DW_AT_high_pc($C$DW$L$_prvInitialiseNewTask$2$E)
TMS320C55x Assembler PC v4.4.1 Sun Sep 09 04:48:39 2018

Tools Copyright (c) 1996-2012 Texas Instruments Incorporated
tasks_sysStk.asm                                                     PAGE   21

     942              $C$DW$108       .dwtag  DW_TAG_TI_loop_range
     943                      .dwattr $C$DW$108, DW_AT_low_pc($C$DW$L$_prvInitialiseNewTask$5$B)
     944                      .dwattr $C$DW$108, DW_AT_high_pc($C$DW$L$_prvInitialiseNewTask$5$E)
     945                      .dwendtag $C$DW$106
     946              
     947                      .dwattr $C$DW$80, DW_AT_TI_end_file("../FreeRTOS/Source/tasks_sysStk.c")
     948                      .dwattr $C$DW$80, DW_AT_TI_end_line(0x430)
     949                      .dwattr $C$DW$80, DW_AT_TI_end_column(0x01)
     950                      .dwendentry
     951                      .dwendtag $C$DW$80
     952              
     953 00021c               .sect   ".text"
     954                      .align 4
     955              
     956              $C$DW$109       .dwtag  DW_TAG_subprogram, DW_AT_name("prvAddNewTaskToReadyList")
     957                      .dwattr $C$DW$109, DW_AT_low_pc(_prvAddNewTaskToReadyList)
     958                      .dwattr $C$DW$109, DW_AT_high_pc(0x00)
     959                      .dwattr $C$DW$109, DW_AT_TI_symbol_name("_prvAddNewTaskToReadyList")
     960                      .dwattr $C$DW$109, DW_AT_TI_begin_file("../FreeRTOS/Source/tasks_sysStk.c")
     961                      .dwattr $C$DW$109, DW_AT_TI_begin_line(0x433)
     962                      .dwattr $C$DW$109, DW_AT_TI_begin_column(0x0d)
     963                      .dwattr $C$DW$109, DW_AT_TI_max_frame_size(0x04)
     964                      .dwpsn  file "../FreeRTOS/Source/tasks_sysStk.c",line 1076,column 1,is_stmt,address _prvAddNewTaskToR
     965              
     966                      .dwfde $C$DW$CIE, _prvAddNewTaskToReadyList
     967              $C$DW$110       .dwtag  DW_TAG_formal_parameter, DW_AT_name("pxNewTCB")
     968                      .dwattr $C$DW$110, DW_AT_TI_symbol_name("_pxNewTCB")
     969                      .dwattr $C$DW$110, DW_AT_type(*$C$DW$T$83)
     970                      .dwattr $C$DW$110, DW_AT_location[DW_OP_reg17]
     971              ;*******************************************************************************
     972              ;* FUNCTION NAME: prvAddNewTaskToReadyList                                     *
     973              ;*                                                                             *
     974              ;*   Function Uses Regs : AC0,AC0,AR0,XAR0,AR1,XAR1,AR2,AR3,XAR3,SP,CARRY,TC1, *
     975              ;*                        M40,SATA,SATD,RDM,FRCT,SMUL                          *
     976              ;*   Stack Frame        : Compact (No Frame Pointer, w/ debug)                 *
     977              ;*   Total Frame Size   : 4 words                                              *
     978              ;*                        (2 return address/alignment)                         *
     979              ;*                        (2 local values)                                     *
     980              ;*   Min System Stack   : 1 word                                               *
     981              ;*******************************************************************************
     982 00021c       _prvAddNewTaskToReadyList:
     983                      .dwcfi  cfa_offset, 1
     984                      .dwcfi  save_reg_to_mem, 91, -1
     985 00021c 4EFD          AADD #-3, SP
     986                      .dwcfi  cfa_offset, 4
     987              $C$DW$111       .dwtag  DW_TAG_variable, DW_AT_name("pxNewTCB")
     988                      .dwattr $C$DW$111, DW_AT_TI_symbol_name("_pxNewTCB")
     989                      .dwattr $C$DW$111, DW_AT_type(*$C$DW$T$83)
     990                      .dwattr $C$DW$111, DW_AT_location[DW_OP_bregx 0x24 0]
     991 00021e EB00          MOV XAR0, dbl(*SP(#0))
         000220 85   
     992                      .dwpsn  file "../FreeRTOS/Source/tasks_sysStk.c",line 1079,column 2,is_stmt
     993 000221 20     nop
     994 000222 46B3   bset INTM
     995 000224 F731          ADD #1, *(#_usCriticalNesting) ; |1079| 
TMS320C55x Assembler PC v4.4.1 Sun Sep 09 04:48:39 2018

Tools Copyright (c) 1996-2012 Texas Instruments Incorporated
tasks_sysStk.asm                                                     PAGE   22

         000226 0001 
         000228 0000 
         00022a 00!  
     996                      .dwpsn  file "../FreeRTOS/Source/tasks_sysStk.c",line 1081,column 3,is_stmt
     997 00022b F731          ADD #1, *(#_uxCurrentNumberOfTasks) ; |1081| 
         00022d 0001 
         00022f 0000 
         000231 5B-  
     998 000232 20            NOP
     999 000233 20            NOP
    1000 000234 20            NOP
    1001                      .dwpsn  file "../FreeRTOS/Source/tasks_sysStk.c",line 1082,column 3,is_stmt
    1002 000235 ED31          MOV dbl(*(#_pxCurrentTCB)), XAR3
         000237 BF00 
         000239 0004-
    1003 00023b 90B0          MOV XAR3, AC0
    1004 00023d 0410          BCC $C$L11,AC0 != #0 ; |1082| 
         00023f 1B   
    1005                                                      ; branchcc occurs ; |1082| 
    1006                      .dwpsn  file "../FreeRTOS/Source/tasks_sysStk.c",line 1086,column 4,is_stmt
    1007 000240 ED00          MOV dbl(*SP(#0)), XAR3
         000242 BF   
    1008 000243 EB31          MOV XAR3, dbl(*(#_pxCurrentTCB))
         000245 B500 
         000247 0004-
    1009 000249 20            NOP
    1010 00024a 20            NOP
    1011 00024b 20            NOP
    1012                      .dwpsn  file "../FreeRTOS/Source/tasks_sysStk.c",line 1088,column 4,is_stmt
    1013 00024c F031          CMP *(#_uxCurrentNumberOfTasks) == #1, TC1 ; |1088| 
         00024e 0001 
         000250 0000 
         000252 5B-  
    1014 000253 0474          BCC $C$L12,!TC1 ; |1088| 
         000255 2E   
    1015                                                      ; branchcc occurs ; |1088| 
    1016                      .dwpsn  file "../FreeRTOS/Source/tasks_sysStk.c",line 1093,column 5,is_stmt
    1017              $C$DW$112       .dwtag  DW_TAG_TI_branch
    1018                      .dwattr $C$DW$112, DW_AT_low_pc(0x00)
    1019                      .dwattr $C$DW$112, DW_AT_name("_prvInitialiseTaskLists")
    1020                      .dwattr $C$DW$112, DW_AT_TI_call
    1021 000256 080C          CALL #_prvInitialiseTaskLists ; |1093| 
         000258 F7   
    1022                                                      ; call occurs [#_prvInitialiseTaskLists] ; |1093| 
    1023                      .dwpsn  file "../FreeRTOS/Source/tasks_sysStk.c",line 1094,column 4,is_stmt
    1024 000259 4A29          B $C$L12  ; |1094| 
    1025                                                      ; branch occurs ; |1094| 
    1026 00025b       $C$L11:    
    1027                      .dwpsn  file "../FreeRTOS/Source/tasks_sysStk.c",line 1105,column 4,is_stmt
    1028 00025b A931          MOV *(#_xSchedulerRunning), AR1 ; |1105| 
         00025d 0000 
         00025f 68-  
    1029 000260 0419          BCC $C$L12,AR1 != #0 ; |1105| 
         000262 21   
    1030                                                      ; branchcc occurs ; |1105| 
TMS320C55x Assembler PC v4.4.1 Sun Sep 09 04:48:39 2018

Tools Copyright (c) 1996-2012 Texas Instruments Incorporated
tasks_sysStk.asm                                                     PAGE   23

    1031                      .dwpsn  file "../FreeRTOS/Source/tasks_sysStk.c",line 1107,column 5,is_stmt
    1032 000263 ED00          MOV dbl(*SP(#0)), XAR3
         000265 BF   
    1033 000266 A96D          MOV *AR3(#24), AR1 ; |1107| 
         000268 0018 
    1034 00026a ED31          MOV dbl(*(#_pxCurrentTCB)), XAR3
         00026c BF00 
         00026e 0004-
    1035 000270 AA6D          MOV *AR3(#24), AR2 ; |1107| 
         000272 0018 
    1036 000274 1294          CMPU AR2 > AR1, TC1 ; |1107| 
         000276 A4   
    1037 000277 65E4          BCC $C$L12,TC1 ; |1107| 
    1038                                                      ; branchcc occurs ; |1107| 
    1039                      .dwpsn  file "../FreeRTOS/Source/tasks_sysStk.c",line 1109,column 6,is_stmt
    1040 000279 ED00          MOV dbl(*SP(#0)), XAR3
         00027b BF   
    1041 00027c EB31          MOV XAR3, dbl(*(#_pxCurrentTCB))
         00027e B500 
         000280 0004-
    1042                      .dwpsn  file "../FreeRTOS/Source/tasks_sysStk.c",line 1110,column 5,is_stmt
    1043 000282 4A00          B $C$L12  ; |1110| 
    1044                                                      ; branch occurs ; |1110| 
    1045 000284       $C$L12:    
    1046                      .dwpsn  file "../FreeRTOS/Source/tasks_sysStk.c",line 1122,column 3,is_stmt
    1047 000284 F731          ADD #1, *(#_uxTaskNumber) ; |1122| 
         000286 0001 
         000288 0000 
         00028a 6C-  
    1048                      .dwpsn  file "../FreeRTOS/Source/tasks_sysStk.c",line 1132,column 3,is_stmt
    1049 00028b ED00          MOV dbl(*SP(#0)), XAR3
         00028d BF   
    1050 00028e A931          MOV *(#_uxTopReadyPriority), AR1 ; |1132| 
         000290 0000 
         000292 67-  
    1051 000293 AA6D          MOV *AR3(#24), AR2 ; |1132| 
         000295 0018 
    1052 000297 1298          CMPU AR2 <= AR1, TC1 ; |1132| 
         000299 A4   
    1053 00029a 64E4          BCC $C$L13,TC1 ; |1132| 
    1054                                                      ; branchcc occurs ; |1132| 
    1055 00029c A96D          MOV *AR3(#24), AR1 ; |1132| 
         00029e 0018 
    1056 0002a0 C931          MOV AR1, *(#_uxTopReadyPriority) ; |1132| 
         0002a2 0000 
         0002a4 67-  
    1057 0002a5       $C$L13:    
    1058 0002a5 F86D          MPYMK *AR3(#24), #10, AC0 ; |1132| 
         0002a7 0A00 
         0002a9 0018 
    1059 0002ab 2209          MOV AC0, AR1 ; |1132| 
    1060 0002ad EC31          AMOV #_pxReadyTasksLists, XAR0 ; |1132| 
         0002af 8E00 
         0002b1 0006-
    1061 0002b3 1490          AADD AR1, AR0 ; |1132| 
TMS320C55x Assembler PC v4.4.1 Sun Sep 09 04:48:39 2018

Tools Copyright (c) 1996-2012 Texas Instruments Incorporated
tasks_sysStk.asm                                                     PAGE   24

         0002b5 80   
    1062 0002b6 ED00          MOV dbl(*SP(#0)), XAR1
         0002b8 9F   
    1063 0002b9 1404          AADD #4, AR1 ; |1132| 
         0002bb 94   
    1064              $C$DW$113       .dwtag  DW_TAG_TI_branch
    1065                      .dwattr $C$DW$113, DW_AT_low_pc(0x00)
    1066                      .dwattr $C$DW$113, DW_AT_name("_vListInsertEnd")
    1067                      .dwattr $C$DW$113, DW_AT_TI_call
    1068 0002bc 6C00          CALL #_vListInsertEnd ; |1132| 
         0002be 0000!
    1069                                                      ; call occurs [#_vListInsertEnd] ; |1132| 
    1070                      .dwpsn  file "../FreeRTOS/Source/tasks_sysStk.c",line 1134,column 3,is_stmt
    1071                      .dwpsn  file "../FreeRTOS/Source/tasks_sysStk.c",line 1136,column 2,is_stmt
    1072 0002c0 A931          MOV *(#_usCriticalNesting), AR1 ; |1136| 
         0002c2 0000 
         0002c4 00!  
    1073 0002c5 0409          BCC $C$L14,AR1 == #0 ; |1136| 
         0002c7 14   
    1074                                                      ; branchcc occurs ; |1136| 
    1075 0002c8 F731          SUB #1, *(#_usCriticalNesting) ; |1136| 
         0002ca FFFF 
         0002cc 0000 
         0002ce 00!  
    1076 0002cf 20            NOP
    1077 0002d0 20            NOP
    1078 0002d1 20            NOP
    1079 0002d2 A931          MOV *(#_usCriticalNesting), AR1 ; |1136| 
         0002d4 0000 
         0002d6 00!  
    1080 0002d7 6199          BCC $C$L14,AR1 != #0 ; |1136| 
    1081                                                      ; branchcc occurs ; |1136| 
    1082 0002d9 20     nop
    1083 0002da 46B2   bclr INTM
    1084 0002dc       $C$L14:    
    1085                      .dwpsn  file "../FreeRTOS/Source/tasks_sysStk.c",line 1138,column 2,is_stmt
    1086 0002dc A931          MOV *(#_xSchedulerRunning), AR1 ; |1138| 
         0002de 0000 
         0002e0 68-  
    1087 0002e1 0409          BCC $C$L15,AR1 == #0 ; |1138| 
         0002e3 1C   
    1088                                                      ; branchcc occurs ; |1138| 
    1089                      .dwpsn  file "../FreeRTOS/Source/tasks_sysStk.c",line 1142,column 3,is_stmt
    1090 0002e4 ED00          MOV dbl(*SP(#0)), XAR3
         0002e6 BF   
    1091 0002e7 A96D          MOV *AR3(#24), AR1 ; |1142| 
         0002e9 0018 
    1092 0002eb ED31          MOV dbl(*(#_pxCurrentTCB)), XAR3
         0002ed BF00 
         0002ef 0004-
    1093 0002f1 AA6D          MOV *AR3(#24), AR2 ; |1142| 
         0002f3 0018 
    1094 0002f5 12A8          CMPU AR2 >= AR1, TC1 ; |1142| 
         0002f7 94   
    1095 0002f8 6364          BCC $C$L15,TC1 ; |1142| 
TMS320C55x Assembler PC v4.4.1 Sun Sep 09 04:48:39 2018

Tools Copyright (c) 1996-2012 Texas Instruments Incorporated
tasks_sysStk.asm                                                     PAGE   25

    1096                                                      ; branchcc occurs ; |1142| 
    1097                      .dwpsn  file "../FreeRTOS/Source/tasks_sysStk.c",line 1144,column 4,is_stmt
    1098              $C$DW$114       .dwtag  DW_TAG_TI_branch
    1099                      .dwattr $C$DW$114, DW_AT_low_pc(0x00)
    1100                      .dwattr $C$DW$114, DW_AT_name("_vPortYield")
    1101                      .dwattr $C$DW$114, DW_AT_TI_call
    1102 0002fa 6C00          CALL #_vPortYield ; |1144| 
         0002fc 0000!
    1103                                                      ; call occurs [#_vPortYield] ; |1144| 
    1104                      .dwpsn  file "../FreeRTOS/Source/tasks_sysStk.c",line 1145,column 3,is_stmt
    1105 0002fe 4A00          B $C$L15  ; |1145| 
    1106                                                      ; branch occurs ; |1145| 
    1107 000300       $C$L15:    
    1108 000300 4E03          AADD #3, SP
    1109                      .dwcfi  cfa_offset, 1
    1110              $C$DW$115       .dwtag  DW_TAG_TI_branch
    1111                      .dwattr $C$DW$115, DW_AT_low_pc(0x00)
    1112                      .dwattr $C$DW$115, DW_AT_TI_return
    1113 000302 4804          RET
    1114                                                      ; return occurs
    1115                      .dwattr $C$DW$109, DW_AT_TI_end_file("../FreeRTOS/Source/tasks_sysStk.c")
    1116                      .dwattr $C$DW$109, DW_AT_TI_end_line(0x483)
    1117                      .dwattr $C$DW$109, DW_AT_TI_end_column(0x01)
    1118                      .dwendentry
    1119                      .dwendtag $C$DW$109
    1120              
    1121 000304               .sect   ".text"
    1122                      .align 4
    1123                      .global _vTaskDelete
    1124              
    1125              $C$DW$116       .dwtag  DW_TAG_subprogram, DW_AT_name("vTaskDelete")
    1126                      .dwattr $C$DW$116, DW_AT_low_pc(_vTaskDelete)
    1127                      .dwattr $C$DW$116, DW_AT_high_pc(0x00)
    1128                      .dwattr $C$DW$116, DW_AT_TI_symbol_name("_vTaskDelete")
    1129                      .dwattr $C$DW$116, DW_AT_external
    1130                      .dwattr $C$DW$116, DW_AT_TI_begin_file("../FreeRTOS/Source/tasks_sysStk.c")
    1131                      .dwattr $C$DW$116, DW_AT_TI_begin_line(0x488)
    1132                      .dwattr $C$DW$116, DW_AT_TI_begin_column(0x07)
    1133                      .dwattr $C$DW$116, DW_AT_TI_max_frame_size(0x06)
    1134                      .dwpsn  file "../FreeRTOS/Source/tasks_sysStk.c",line 1161,column 2,is_stmt,address _vTaskDelete
    1135              
    1136                      .dwfde $C$DW$CIE, _vTaskDelete
    1137              $C$DW$117       .dwtag  DW_TAG_formal_parameter, DW_AT_name("xTaskToDelete")
    1138                      .dwattr $C$DW$117, DW_AT_TI_symbol_name("_xTaskToDelete")
    1139                      .dwattr $C$DW$117, DW_AT_type(*$C$DW$T$78)
    1140                      .dwattr $C$DW$117, DW_AT_location[DW_OP_reg17]
    1141              ;*******************************************************************************
    1142              ;* FUNCTION NAME: vTaskDelete                                                  *
    1143              ;*                                                                             *
    1144              ;*   Function Uses Regs : AC0,AC0,AC1,AC1,T0,AR0,XAR0,AR1,XAR1,AR3,XAR3,SP,    *
    1145              ;*                        CARRY,TC1,M40,SATA,SATD,RDM,FRCT,SMUL                *
    1146              ;*   Stack Frame        : Compact (No Frame Pointer, w/ debug)                 *
    1147              ;*   Total Frame Size   : 6 words                                              *
    1148              ;*                        (2 return address/alignment)                         *
    1149              ;*                        (4 local values)                                     *
TMS320C55x Assembler PC v4.4.1 Sun Sep 09 04:48:39 2018

Tools Copyright (c) 1996-2012 Texas Instruments Incorporated
tasks_sysStk.asm                                                     PAGE   26

    1150              ;*   Min System Stack   : 1 word                                               *
    1151              ;*******************************************************************************
    1152 000304       _vTaskDelete:
    1153                      .dwcfi  cfa_offset, 1
    1154                      .dwcfi  save_reg_to_mem, 91, -1
    1155 000304 4EFB          AADD #-5, SP
    1156                      .dwcfi  cfa_offset, 6
    1157              $C$DW$118       .dwtag  DW_TAG_variable, DW_AT_name("xTaskToDelete")
    1158                      .dwattr $C$DW$118, DW_AT_TI_symbol_name("_xTaskToDelete")
    1159                      .dwattr $C$DW$118, DW_AT_type(*$C$DW$T$78)
    1160                      .dwattr $C$DW$118, DW_AT_location[DW_OP_bregx 0x24 0]
    1161              $C$DW$119       .dwtag  DW_TAG_variable, DW_AT_name("pxTCB")
    1162                      .dwattr $C$DW$119, DW_AT_TI_symbol_name("_pxTCB")
    1163                      .dwattr $C$DW$119, DW_AT_type(*$C$DW$T$83)
    1164                      .dwattr $C$DW$119, DW_AT_location[DW_OP_bregx 0x24 2]
    1165 000306 EB00          MOV XAR0, dbl(*SP(#0))
         000308 85   
    1166                      .dwpsn  file "../FreeRTOS/Source/tasks_sysStk.c",line 1164,column 3,is_stmt
    1167 000309 20     nop
    1168 00030a 46B3   bset INTM
    1169 00030c F731          ADD #1, *(#_usCriticalNesting) ; |1164| 
         00030e 0001 
         000310 0000 
         000312 00!  
    1170                      .dwpsn  file "../FreeRTOS/Source/tasks_sysStk.c",line 1168,column 4,is_stmt
    1171 000313 ED00          MOV dbl(*SP(#0)), XAR3
         000315 BF   
    1172 000316 90B0          MOV XAR3, AC0
    1173 000318 6310          BCC $C$L16,AC0 != #0 ; |1168| 
    1174                                                      ; branchcc occurs ; |1168| 
    1175 00031a ED31          MOV dbl(*(#_pxCurrentTCB)), XAR3
         00031c BF00 
         00031e 0004-
    1176 000320       $C$L16:    
    1177 000320 EB04          MOV XAR3, dbl(*SP(#2))
         000322 B5   
    1178                      .dwpsn  file "../FreeRTOS/Source/tasks_sysStk.c",line 1171,column 4,is_stmt
    1179 000323 ED04          MOV dbl(*SP(#2)), XAR0
         000325 8F   
    1180 000326 1404          AADD #4, AR0 ; |1171| 
         000328 84   
    1181              $C$DW$120       .dwtag  DW_TAG_TI_branch
    1182                      .dwattr $C$DW$120, DW_AT_low_pc(0x00)
    1183                      .dwattr $C$DW$120, DW_AT_name("_uxListRemove")
    1184                      .dwattr $C$DW$120, DW_AT_TI_call
    1185 000329 6C00          CALL #_uxListRemove ; |1171| 
         00032b 0000!
    1186                                                      ; call occurs [#_uxListRemove] ; |1171| 
    1187 00032d 6004          BCC $C$L17,T0 == #0 ; |1171| 
    1188                                                      ; branchcc occurs ; |1171| 
    1189                      .dwpsn  file "../FreeRTOS/Source/tasks_sysStk.c",line 1174,column 4,is_stmt
    1190 00032f       $C$L17:    
    1191                      .dwpsn  file "../FreeRTOS/Source/tasks_sysStk.c",line 1181,column 4,is_stmt
    1192 00032f ED04          MOV dbl(*SP(#2)), XAR3
         000331 BF   
TMS320C55x Assembler PC v4.4.1 Sun Sep 09 04:48:39 2018

Tools Copyright (c) 1996-2012 Texas Instruments Incorporated
tasks_sysStk.asm                                                     PAGE   27

    1193 000332 ED6D          MOV dbl(*AR3(#22)), XAR3
         000334 BF00 
         000336 16   
    1194 000337 90B0          MOV XAR3, AC0
    1195 000339 6500          BCC $C$L18,AC0 == #0 ; |1181| 
    1196                                                      ; branchcc occurs ; |1181| 
    1197                      .dwpsn  file "../FreeRTOS/Source/tasks_sysStk.c",line 1183,column 5,is_stmt
    1198 00033b ED04          MOV dbl(*SP(#2)), XAR0
         00033d 8F   
    1199 00033e 140E          AADD #14, AR0 ; |1183| 
         000340 84   
    1200              $C$DW$121       .dwtag  DW_TAG_TI_branch
    1201                      .dwattr $C$DW$121, DW_AT_low_pc(0x00)
    1202                      .dwattr $C$DW$121, DW_AT_name("_uxListRemove")
    1203                      .dwattr $C$DW$121, DW_AT_TI_call
    1204 000341 6C00          CALL #_uxListRemove ; |1183| 
         000343 0000!
    1205                                                      ; call occurs [#_uxListRemove] ; |1183| 
    1206                      .dwpsn  file "../FreeRTOS/Source/tasks_sysStk.c",line 1184,column 4,is_stmt
    1207 000345       $C$L18:    
    1208                      .dwpsn  file "../FreeRTOS/Source/tasks_sysStk.c",line 1194,column 4,is_stmt
    1209 000345 F731          ADD #1, *(#_uxTaskNumber) ; |1194| 
         000347 0001 
         000349 0000 
         00034b 6C-  
    1210                      .dwpsn  file "../FreeRTOS/Source/tasks_sysStk.c",line 1196,column 4,is_stmt
    1211 00034c ED31          MOV dbl(*(#_pxCurrentTCB)), XAR3
         00034e BF00 
         000350 0004-
    1212 000352 90B0          MOV XAR3, AC0
    1213 000354 ED04          MOV dbl(*SP(#2)), XAR3
         000356 BF   
    1214 000357 90B1          MOV XAR3, AC1
    1215 000359 121C          CMPU AC1 != AC0, TC1 ; |1196| 
         00035b 04   
    1216 00035c 0464          BCC $C$L19,TC1 ; |1196| 
         00035e 19   
    1217                                                      ; branchcc occurs ; |1196| 
    1218                      .dwpsn  file "../FreeRTOS/Source/tasks_sysStk.c",line 1203,column 5,is_stmt
    1219 00035f ED04          MOV dbl(*SP(#2)), XAR1
         000361 9F   
    1220 000362 EC31          AMOV #_xTasksWaitingTermination, XAR0 ; |1203| 
         000364 8E00 
         000366 0050-
    1221 000368 1404          AADD #4, AR1 ; |1203| 
         00036a 94   
    1222              $C$DW$122       .dwtag  DW_TAG_TI_branch
    1223                      .dwattr $C$DW$122, DW_AT_low_pc(0x00)
    1224                      .dwattr $C$DW$122, DW_AT_name("_vListInsertEnd")
    1225                      .dwattr $C$DW$122, DW_AT_TI_call
    1226 00036b 6C00          CALL #_vListInsertEnd ; |1203| 
         00036d 0000!
    1227                                                      ; call occurs [#_vListInsertEnd] ; |1203| 
    1228                      .dwpsn  file "../FreeRTOS/Source/tasks_sysStk.c",line 1208,column 5,is_stmt
    1229 00036f F731          ADD #1, *(#_uxDeletedTasksWaitingCleanUp) ; |1208| 
TMS320C55x Assembler PC v4.4.1 Sun Sep 09 04:48:39 2018

Tools Copyright (c) 1996-2012 Texas Instruments Incorporated
tasks_sysStk.asm                                                     PAGE   28

         000371 0001 
         000373 0000 
         000375 5A-  
    1230                      .dwpsn  file "../FreeRTOS/Source/tasks_sysStk.c",line 1216,column 4,is_stmt
    1231 000376 4A10          B $C$L20  ; |1216| 
    1232                                                      ; branch occurs ; |1216| 
    1233 000378       $C$L19:    
    1234                      .dwpsn  file "../FreeRTOS/Source/tasks_sysStk.c",line 1219,column 5,is_stmt
    1235 000378 F731          SUB #1, *(#_uxCurrentNumberOfTasks) ; |1219| 
         00037a FFFF 
         00037c 0000 
         00037e 5B-  
    1236                      .dwpsn  file "../FreeRTOS/Source/tasks_sysStk.c",line 1220,column 5,is_stmt
    1237 00037f ED04          MOV dbl(*SP(#2)), XAR0
         000381 8F   
    1238              $C$DW$123       .dwtag  DW_TAG_TI_branch
    1239                      .dwattr $C$DW$123, DW_AT_low_pc(0x00)
    1240                      .dwattr $C$DW$123, DW_AT_name("_prvDeleteTCB")
    1241                      .dwattr $C$DW$123, DW_AT_TI_call
    1242 000382 080D          CALL #_prvDeleteTCB ; |1220| 
         000384 1B   
    1243                                                      ; call occurs [#_prvDeleteTCB] ; |1220| 
    1244                      .dwpsn  file "../FreeRTOS/Source/tasks_sysStk.c",line 1224,column 5,is_stmt
    1245              $C$DW$124       .dwtag  DW_TAG_TI_branch
    1246                      .dwattr $C$DW$124, DW_AT_low_pc(0x00)
    1247                      .dwattr $C$DW$124, DW_AT_name("_prvResetNextTaskUnblockTime")
    1248                      .dwattr $C$DW$124, DW_AT_TI_call
    1249 000385 080D          CALL #_prvResetNextTaskUnblockTime ; |1224| 
         000387 40   
    1250                                                      ; call occurs [#_prvResetNextTaskUnblockTime] ; |1224| 
    1251 000388       $C$L20:    
    1252                      .dwpsn  file "../FreeRTOS/Source/tasks_sysStk.c",line 1229,column 3,is_stmt
    1253 000388 A931          MOV *(#_usCriticalNesting), AR1 ; |1229| 
         00038a 0000 
         00038c 00!  
    1254 00038d 0409          BCC $C$L21,AR1 == #0 ; |1229| 
         00038f 14   
    1255                                                      ; branchcc occurs ; |1229| 
    1256 000390 F731          SUB #1, *(#_usCriticalNesting) ; |1229| 
         000392 FFFF 
         000394 0000 
         000396 00!  
    1257 000397 20            NOP
    1258 000398 20            NOP
    1259 000399 20            NOP
    1260 00039a A931          MOV *(#_usCriticalNesting), AR1 ; |1229| 
         00039c 0000 
         00039e 00!  
    1261 00039f 6199          BCC $C$L21,AR1 != #0 ; |1229| 
    1262                                                      ; branchcc occurs ; |1229| 
    1263 0003a1 20     nop
    1264 0003a2 46B2   bclr INTM
    1265 0003a4       $C$L21:    
    1266                      .dwpsn  file "../FreeRTOS/Source/tasks_sysStk.c",line 1233,column 3,is_stmt
    1267 0003a4 A931          MOV *(#_xSchedulerRunning), AR1 ; |1233| 
TMS320C55x Assembler PC v4.4.1 Sun Sep 09 04:48:39 2018

Tools Copyright (c) 1996-2012 Texas Instruments Incorporated
tasks_sysStk.asm                                                     PAGE   29

         0003a6 0000 
         0003a8 68-  
    1268 0003a9 0409          BCC $C$L22,AR1 == #0 ; |1233| 
         0003ab 18   
    1269                                                      ; branchcc occurs ; |1233| 
    1270                      .dwpsn  file "../FreeRTOS/Source/tasks_sysStk.c",line 1235,column 4,is_stmt
    1271 0003ac ED31          MOV dbl(*(#_pxCurrentTCB)), XAR3
         0003ae BF00 
         0003b0 0004-
    1272 0003b2 90B0          MOV XAR3, AC0
    1273 0003b4 ED04          MOV dbl(*SP(#2)), XAR3
         0003b6 BF   
    1274 0003b7 90B1          MOV XAR3, AC1
    1275 0003b9 121C          CMPU AC1 != AC0, TC1 ; |1235| 
         0003bb 04   
    1276 0003bc 6364          BCC $C$L22,TC1 ; |1235| 
    1277                                                      ; branchcc occurs ; |1235| 
    1278                      .dwpsn  file "../FreeRTOS/Source/tasks_sysStk.c",line 1238,column 5,is_stmt
    1279              $C$DW$125       .dwtag  DW_TAG_TI_branch
    1280                      .dwattr $C$DW$125, DW_AT_low_pc(0x00)
    1281                      .dwattr $C$DW$125, DW_AT_name("_vPortYield")
    1282                      .dwattr $C$DW$125, DW_AT_TI_call
    1283 0003be 6C00          CALL #_vPortYield ; |1238| 
         0003c0 0000!
    1284                                                      ; call occurs [#_vPortYield] ; |1238| 
    1285                      .dwpsn  file "../FreeRTOS/Source/tasks_sysStk.c",line 1239,column 4,is_stmt
    1286 0003c2 4A00          B $C$L22  ; |1239| 
    1287                                                      ; branch occurs ; |1239| 
    1288 0003c4       $C$L22:    
    1289 0003c4 4E05          AADD #5, SP
    1290                      .dwcfi  cfa_offset, 1
    1291              $C$DW$126       .dwtag  DW_TAG_TI_branch
    1292                      .dwattr $C$DW$126, DW_AT_low_pc(0x00)
    1293                      .dwattr $C$DW$126, DW_AT_TI_return
    1294 0003c6 4804          RET
    1295                                                      ; return occurs
    1296                      .dwattr $C$DW$116, DW_AT_TI_end_file("../FreeRTOS/Source/tasks_sysStk.c")
    1297                      .dwattr $C$DW$116, DW_AT_TI_end_line(0x4dd)
    1298                      .dwattr $C$DW$116, DW_AT_TI_end_column(0x02)
    1299                      .dwendentry
    1300                      .dwendtag $C$DW$116
    1301              
    1302 0003c8               .sect   ".text"
    1303                      .align 4
    1304                      .global _vTaskDelayUntil
    1305              
    1306              $C$DW$127       .dwtag  DW_TAG_subprogram, DW_AT_name("vTaskDelayUntil")
    1307                      .dwattr $C$DW$127, DW_AT_low_pc(_vTaskDelayUntil)
    1308                      .dwattr $C$DW$127, DW_AT_high_pc(0x00)
    1309                      .dwattr $C$DW$127, DW_AT_TI_symbol_name("_vTaskDelayUntil")
    1310                      .dwattr $C$DW$127, DW_AT_external
    1311                      .dwattr $C$DW$127, DW_AT_TI_begin_file("../FreeRTOS/Source/tasks_sysStk.c")
    1312                      .dwattr $C$DW$127, DW_AT_TI_begin_line(0x4e4)
    1313                      .dwattr $C$DW$127, DW_AT_TI_begin_column(0x07)
    1314                      .dwattr $C$DW$127, DW_AT_TI_max_frame_size(0x08)
TMS320C55x Assembler PC v4.4.1 Sun Sep 09 04:48:39 2018

Tools Copyright (c) 1996-2012 Texas Instruments Incorporated
tasks_sysStk.asm                                                     PAGE   30

    1315                      .dwpsn  file "../FreeRTOS/Source/tasks_sysStk.c",line 1253,column 2,is_stmt,address _vTaskDelayUntil
    1316              
    1317                      .dwfde $C$DW$CIE, _vTaskDelayUntil
    1318              $C$DW$128       .dwtag  DW_TAG_formal_parameter, DW_AT_name("pxPreviousWakeTime")
    1319                      .dwattr $C$DW$128, DW_AT_TI_symbol_name("_pxPreviousWakeTime")
    1320                      .dwattr $C$DW$128, DW_AT_type(*$C$DW$T$94)
    1321                      .dwattr $C$DW$128, DW_AT_location[DW_OP_reg17]
    1322              $C$DW$129       .dwtag  DW_TAG_formal_parameter, DW_AT_name("xTimeIncrement")
    1323                      .dwattr $C$DW$129, DW_AT_TI_symbol_name("_xTimeIncrement")
    1324                      .dwattr $C$DW$129, DW_AT_type(*$C$DW$T$95)
    1325                      .dwattr $C$DW$129, DW_AT_location[DW_OP_reg12]
    1326              ;*******************************************************************************
    1327              ;* FUNCTION NAME: vTaskDelayUntil                                              *
    1328              ;*                                                                             *
    1329              ;*   Function Uses Regs : AC0,T0,T1,AR0,XAR0,AR1,AR2,AR3,XAR3,SP,CARRY,TC1,M40,*
    1330              ;*                        SATA,SATD,RDM,FRCT,SMUL                              *
    1331              ;*   Stack Frame        : Compact (No Frame Pointer, w/ debug)                 *
    1332              ;*   Total Frame Size   : 8 words                                              *
    1333              ;*                        (1 return address/alignment)                         *
    1334              ;*                        (7 local values)                                     *
    1335              ;*   Min System Stack   : 1 word                                               *
    1336              ;*******************************************************************************
    1337 0003c8       _vTaskDelayUntil:
    1338                      .dwcfi  cfa_offset, 1
    1339                      .dwcfi  save_reg_to_mem, 91, -1
    1340 0003c8 4EF9          AADD #-7, SP
    1341                      .dwcfi  cfa_offset, 8
    1342              $C$DW$130       .dwtag  DW_TAG_variable, DW_AT_name("pxPreviousWakeTime")
    1343                      .dwattr $C$DW$130, DW_AT_TI_symbol_name("_pxPreviousWakeTime")
    1344                      .dwattr $C$DW$130, DW_AT_type(*$C$DW$T$94)
    1345                      .dwattr $C$DW$130, DW_AT_location[DW_OP_bregx 0x24 0]
    1346              $C$DW$131       .dwtag  DW_TAG_variable, DW_AT_name("xTimeIncrement")
    1347                      .dwattr $C$DW$131, DW_AT_TI_symbol_name("_xTimeIncrement")
    1348                      .dwattr $C$DW$131, DW_AT_type(*$C$DW$T$95)
    1349                      .dwattr $C$DW$131, DW_AT_location[DW_OP_bregx 0x24 2]
    1350              $C$DW$132       .dwtag  DW_TAG_variable, DW_AT_name("xTimeToWake")
    1351                      .dwattr $C$DW$132, DW_AT_TI_symbol_name("_xTimeToWake")
    1352                      .dwattr $C$DW$132, DW_AT_type(*$C$DW$T$40)
    1353                      .dwattr $C$DW$132, DW_AT_location[DW_OP_bregx 0x24 3]
    1354              $C$DW$133       .dwtag  DW_TAG_variable, DW_AT_name("xAlreadyYielded")
    1355                      .dwattr $C$DW$133, DW_AT_TI_symbol_name("_xAlreadyYielded")
    1356                      .dwattr $C$DW$133, DW_AT_type(*$C$DW$T$46)
    1357                      .dwattr $C$DW$133, DW_AT_location[DW_OP_bregx 0x24 4]
    1358              $C$DW$134       .dwtag  DW_TAG_variable, DW_AT_name("xShouldDelay")
    1359                      .dwattr $C$DW$134, DW_AT_TI_symbol_name("_xShouldDelay")
    1360                      .dwattr $C$DW$134, DW_AT_type(*$C$DW$T$46)
    1361                      .dwattr $C$DW$134, DW_AT_location[DW_OP_bregx 0x24 5]
    1362 0003ca C404          MOV T0, *SP(#2) ; |1253| 
    1363 0003cc EB00          MOV XAR0, dbl(*SP(#0))
         0003ce 85   
    1364                      .dwpsn  file "../FreeRTOS/Source/tasks_sysStk.c",line 1255,column 30,is_stmt
    1365 0003cf E60A          MOV #0, *SP(#5) ; |1255| 
         0003d1 00   
    1366                      .dwpsn  file "../FreeRTOS/Source/tasks_sysStk.c",line 1261,column 3,is_stmt
    1367              $C$DW$135       .dwtag  DW_TAG_TI_branch
TMS320C55x Assembler PC v4.4.1 Sun Sep 09 04:48:39 2018

Tools Copyright (c) 1996-2012 Texas Instruments Incorporated
tasks_sysStk.asm                                                     PAGE   31

    1368                      .dwattr $C$DW$135, DW_AT_low_pc(0x00)
    1369                      .dwattr $C$DW$135, DW_AT_name("_vTaskSuspendAll")
    1370                      .dwattr $C$DW$135, DW_AT_TI_call
    1371 0003d2 0805          CALL #_vTaskSuspendAll ; |1261| 
         0003d4 57   
    1372                                                      ; call occurs [#_vTaskSuspendAll] ; |1261| 
    1373              
    1374              $C$DW$136       .dwtag  DW_TAG_lexical_block, DW_AT_low_pc(0x00), DW_AT_high_pc(0x00)
    1375              $C$DW$137       .dwtag  DW_TAG_variable, DW_AT_name("xConstTickCount")
    1376                      .dwattr $C$DW$137, DW_AT_TI_symbol_name("_xConstTickCount")
    1377                      .dwattr $C$DW$137, DW_AT_type(*$C$DW$T$95)
    1378                      .dwattr $C$DW$137, DW_AT_location[DW_OP_bregx 0x24 6]
    1379                      .dwpsn  file "../FreeRTOS/Source/tasks_sysStk.c",line 1265,column 21,is_stmt
    1380 0003d5 A931          MOV *(#_xTickCount), AR1 ; |1265| 
         0003d7 0000 
         0003d9 66-  
    1381 0003da C90C          MOV AR1, *SP(#6) ; |1265| 
    1382                      .dwpsn  file "../FreeRTOS/Source/tasks_sysStk.c",line 1268,column 4,is_stmt
    1383 0003dc ED00          MOV dbl(*SP(#0)), XAR3
         0003de BF   
    1384 0003df A904          MOV *SP(#2), AR1 ; |1268| 
    1385 0003e1 D661          ADD *AR3, AR1, AR1 ; |1268| 
         0003e3 99   
    1386 0003e4 C906          MOV AR1, *SP(#3) ; |1268| 
    1387                      .dwpsn  file "../FreeRTOS/Source/tasks_sysStk.c",line 1270,column 4,is_stmt
    1388 0003e6 ED00          MOV dbl(*SP(#0)), XAR3
         0003e8 BF   
    1389 0003e9 AA0C          MOV *SP(#6), AR2 ; |1270| 
    1390 0003eb A961          MOV *AR3, AR1 ; |1270| 
    1391 0003ed 12A8          CMPU AR2 >= AR1, TC1 ; |1270| 
         0003ef 94   
    1392 0003f0 0464          BCC $C$L23,TC1 ; |1270| 
         0003f2 17   
    1393                                                      ; branchcc occurs ; |1270| 
    1394                      .dwpsn  file "../FreeRTOS/Source/tasks_sysStk.c",line 1277,column 5,is_stmt
    1395 0003f3 A961          MOV *AR3, AR1 ; |1277| 
    1396 0003f5 AA06          MOV *SP(#3), AR2 ; |1277| 
    1397 0003f7 12A8          CMPU AR2 >= AR1, TC1 ; |1277| 
         0003f9 94   
    1398 0003fa 0464          BCC $C$L25,TC1 ; |1277| 
         0003fc 20   
    1399                                                      ; branchcc occurs ; |1277| 
    1400 0003fd A90C          MOV *SP(#6), AR1 ; |1277| 
    1401 0003ff 1298          CMPU AR2 <= AR1, TC1 ; |1277| 
         000401 A4   
    1402 000402 0464          BCC $C$L25,TC1 ; |1277| 
         000404 18   
    1403                                                      ; branchcc occurs ; |1277| 
    1404                      .dwpsn  file "../FreeRTOS/Source/tasks_sysStk.c",line 1279,column 6,is_stmt
    1405 000405 E60A          MOV #1, *SP(#5) ; |1279| 
         000407 01   
    1406                      .dwpsn  file "../FreeRTOS/Source/tasks_sysStk.c",line 1280,column 5,is_stmt
    1407 000408 4A13          B $C$L25  ; |1280| 
    1408                                                      ; branch occurs ; |1280| 
    1409 00040a       $C$L23:    
TMS320C55x Assembler PC v4.4.1 Sun Sep 09 04:48:39 2018

Tools Copyright (c) 1996-2012 Texas Instruments Incorporated
tasks_sysStk.asm                                                     PAGE   32

    1410                      .dwpsn  file "../FreeRTOS/Source/tasks_sysStk.c",line 1291,column 5,is_stmt
    1411 00040a A961          MOV *AR3, AR1 ; |1291| 
    1412 00040c AA06          MOV *SP(#3), AR2 ; |1291| 
    1413 00040e 12A4          CMPU AR2 < AR1, TC1 ; |1291| 
         000410 94   
    1414 000411 63E4          BCC $C$L24,TC1 ; |1291| 
    1415                                                      ; branchcc occurs ; |1291| 
    1416 000413 A90C          MOV *SP(#6), AR1 ; |1291| 
    1417 000415 1298          CMPU AR2 <= AR1, TC1 ; |1291| 
         000417 A4   
    1418 000418 61E4          BCC $C$L25,TC1 ; |1291| 
    1419                                                      ; branchcc occurs ; |1291| 
    1420 00041a       $C$L24:    
    1421                      .dwpsn  file "../FreeRTOS/Source/tasks_sysStk.c",line 1293,column 6,is_stmt
    1422 00041a E60A          MOV #1, *SP(#5) ; |1293| 
         00041c 01   
    1423                      .dwpsn  file "../FreeRTOS/Source/tasks_sysStk.c",line 1294,column 5,is_stmt
    1424 00041d       $C$L25:    
    1425                      .dwpsn  file "../FreeRTOS/Source/tasks_sysStk.c",line 1302,column 4,is_stmt
    1426 00041d ED00          MOV dbl(*SP(#0)), XAR3
         00041f BF   
    1427 000420 A906          MOV *SP(#3), AR1 ; |1302| 
    1428 000422 C961          MOV AR1, *AR3 ; |1302| 
    1429                      .dwpsn  file "../FreeRTOS/Source/tasks_sysStk.c",line 1304,column 4,is_stmt
    1430 000424 A90A          MOV *SP(#5), AR1 ; |1304| 
    1431 000426 6609          BCC $C$L26,AR1 == #0 ; |1304| 
    1432                                                      ; branchcc occurs ; |1304| 
    1433                      .dwpsn  file "../FreeRTOS/Source/tasks_sysStk.c",line 1310,column 5,is_stmt
    1434 000428 A006          MOV *SP(#3), AC0 ; |1310| 
    1435              
    1436 00042a DF0C          SUB uns(*SP(#6)), AC0, AC0 ; |1310| 
         00042c 0F   
    1437 00042d 3D05  ||      MOV #0, T1
    1438              
    1439              $C$DW$138       .dwtag  DW_TAG_TI_branch
    1440                      .dwattr $C$DW$138, DW_AT_low_pc(0x00)
    1441                      .dwattr $C$DW$138, DW_AT_name("_prvAddCurrentTaskToDelayedList")
    1442                      .dwattr $C$DW$138, DW_AT_TI_call
    1443              
    1444 00042f 0812          CALL #_prvAddCurrentTaskToDelayedList ; |1310| 
         000431 74   
    1445 000432 2304  ||      MOV AC0, T0 ; |1310| 
    1446              
    1447                                                      ; call occurs [#_prvAddCurrentTaskToDelayedList] ; |1310| 
    1448                      .dwpsn  file "../FreeRTOS/Source/tasks_sysStk.c",line 1311,column 4,is_stmt
    1449              $C$L26:    
    1450                      .dwendtag $C$DW$136
    1451              
    1452                      .dwpsn  file "../FreeRTOS/Source/tasks_sysStk.c",line 1317,column 3,is_stmt
    1453              $C$DW$139       .dwtag  DW_TAG_TI_branch
    1454                      .dwattr $C$DW$139, DW_AT_low_pc(0x00)
    1455                      .dwattr $C$DW$139, DW_AT_name("_xTaskResumeAll")
    1456                      .dwattr $C$DW$139, DW_AT_TI_call
    1457 000434 0805          CALL #_xTaskResumeAll ; |1317| 
         000436 01   
TMS320C55x Assembler PC v4.4.1 Sun Sep 09 04:48:39 2018

Tools Copyright (c) 1996-2012 Texas Instruments Incorporated
tasks_sysStk.asm                                                     PAGE   33

    1458                                                      ; call occurs [#_xTaskResumeAll] ; |1317| 
    1459 000437 C408          MOV T0, *SP(#4) ; |1317| 
    1460                      .dwpsn  file "../FreeRTOS/Source/tasks_sysStk.c",line 1321,column 3,is_stmt
    1461 000439 2249          MOV T0, AR1
    1462 00043b 6319          BCC $C$L27,AR1 != #0 ; |1321| 
    1463                                                      ; branchcc occurs ; |1321| 
    1464                      .dwpsn  file "../FreeRTOS/Source/tasks_sysStk.c",line 1323,column 4,is_stmt
    1465              $C$DW$140       .dwtag  DW_TAG_TI_branch
    1466                      .dwattr $C$DW$140, DW_AT_low_pc(0x00)
    1467                      .dwattr $C$DW$140, DW_AT_name("_vPortYield")
    1468                      .dwattr $C$DW$140, DW_AT_TI_call
    1469 00043d 6C00          CALL #_vPortYield ; |1323| 
         00043f 0000!
    1470                                                      ; call occurs [#_vPortYield] ; |1323| 
    1471                      .dwpsn  file "../FreeRTOS/Source/tasks_sysStk.c",line 1324,column 3,is_stmt
    1472 000441 4A00          B $C$L27  ; |1324| 
    1473                                                      ; branch occurs ; |1324| 
    1474 000443       $C$L27:    
    1475 000443 4E07          AADD #7, SP
    1476                      .dwcfi  cfa_offset, 1
    1477              $C$DW$141       .dwtag  DW_TAG_TI_branch
    1478                      .dwattr $C$DW$141, DW_AT_low_pc(0x00)
    1479                      .dwattr $C$DW$141, DW_AT_TI_return
    1480 000445 4804          RET
    1481                                                      ; return occurs
    1482                      .dwattr $C$DW$127, DW_AT_TI_end_file("../FreeRTOS/Source/tasks_sysStk.c")
    1483                      .dwattr $C$DW$127, DW_AT_TI_end_line(0x531)
    1484                      .dwattr $C$DW$127, DW_AT_TI_end_column(0x02)
    1485                      .dwendentry
    1486                      .dwendtag $C$DW$127
    1487              
    1488 000447               .sect   ".text"
    1489                      .align 4
    1490                      .global _vTaskDelay
    1491              
    1492              $C$DW$142       .dwtag  DW_TAG_subprogram, DW_AT_name("vTaskDelay")
    1493                      .dwattr $C$DW$142, DW_AT_low_pc(_vTaskDelay)
    1494                      .dwattr $C$DW$142, DW_AT_high_pc(0x00)
    1495                      .dwattr $C$DW$142, DW_AT_TI_symbol_name("_vTaskDelay")
    1496                      .dwattr $C$DW$142, DW_AT_external
    1497                      .dwattr $C$DW$142, DW_AT_TI_begin_file("../FreeRTOS/Source/tasks_sysStk.c")
    1498                      .dwattr $C$DW$142, DW_AT_TI_begin_line(0x538)
    1499                      .dwattr $C$DW$142, DW_AT_TI_begin_column(0x07)
    1500                      .dwattr $C$DW$142, DW_AT_TI_max_frame_size(0x04)
    1501                      .dwpsn  file "../FreeRTOS/Source/tasks_sysStk.c",line 1337,column 2,is_stmt,address _vTaskDelay
    1502              
    1503                      .dwfde $C$DW$CIE, _vTaskDelay
    1504              $C$DW$143       .dwtag  DW_TAG_formal_parameter, DW_AT_name("xTicksToDelay")
    1505                      .dwattr $C$DW$143, DW_AT_TI_symbol_name("_xTicksToDelay")
    1506                      .dwattr $C$DW$143, DW_AT_type(*$C$DW$T$95)
    1507                      .dwattr $C$DW$143, DW_AT_location[DW_OP_reg12]
    1508              ;*******************************************************************************
    1509              ;* FUNCTION NAME: vTaskDelay                                                   *
    1510              ;*                                                                             *
    1511              ;*   Function Uses Regs : T0,T1,AR1,SP,M40,SATA,SATD,RDM,FRCT,SMUL             *
TMS320C55x Assembler PC v4.4.1 Sun Sep 09 04:48:39 2018

Tools Copyright (c) 1996-2012 Texas Instruments Incorporated
tasks_sysStk.asm                                                     PAGE   34

    1512              ;*   Stack Frame        : Compact (No Frame Pointer, w/ debug)                 *
    1513              ;*   Total Frame Size   : 4 words                                              *
    1514              ;*                        (2 return address/alignment)                         *
    1515              ;*                        (2 local values)                                     *
    1516              ;*   Min System Stack   : 1 word                                               *
    1517              ;*******************************************************************************
    1518 000448       _vTaskDelay:
    1519                      .dwcfi  cfa_offset, 1
    1520                      .dwcfi  save_reg_to_mem, 91, -1
    1521 000448 4EFD          AADD #-3, SP
    1522                      .dwcfi  cfa_offset, 4
    1523              $C$DW$144       .dwtag  DW_TAG_variable, DW_AT_name("xTicksToDelay")
    1524                      .dwattr $C$DW$144, DW_AT_TI_symbol_name("_xTicksToDelay")
    1525                      .dwattr $C$DW$144, DW_AT_type(*$C$DW$T$95)
    1526                      .dwattr $C$DW$144, DW_AT_location[DW_OP_bregx 0x24 0]
    1527              $C$DW$145       .dwtag  DW_TAG_variable, DW_AT_name("xAlreadyYielded")
    1528                      .dwattr $C$DW$145, DW_AT_TI_symbol_name("_xAlreadyYielded")
    1529                      .dwattr $C$DW$145, DW_AT_type(*$C$DW$T$46)
    1530                      .dwattr $C$DW$145, DW_AT_location[DW_OP_bregx 0x24 1]
    1531 00044a C400          MOV T0, *SP(#0) ; |1337| 
    1532                      .dwpsn  file "../FreeRTOS/Source/tasks_sysStk.c",line 1338,column 13,is_stmt
    1533 00044c E602          MOV #0, *SP(#1) ; |1338| 
         00044e 00   
    1534                      .dwpsn  file "../FreeRTOS/Source/tasks_sysStk.c",line 1341,column 3,is_stmt
    1535 00044f A900          MOV *SP(#0), AR1 ; |1341| 
    1536 000451 6789          BCC $C$L28,AR1 == #0 ; |1341| 
    1537                                                      ; branchcc occurs ; |1341| 
    1538                      .dwpsn  file "../FreeRTOS/Source/tasks_sysStk.c",line 1344,column 4,is_stmt
    1539              $C$DW$146       .dwtag  DW_TAG_TI_branch
    1540                      .dwattr $C$DW$146, DW_AT_low_pc(0x00)
    1541                      .dwattr $C$DW$146, DW_AT_name("_vTaskSuspendAll")
    1542                      .dwattr $C$DW$146, DW_AT_TI_call
    1543 000453 0804          CALL #_vTaskSuspendAll ; |1344| 
         000455 D6   
    1544                                                      ; call occurs [#_vTaskSuspendAll] ; |1344| 
    1545                      .dwpsn  file "../FreeRTOS/Source/tasks_sysStk.c",line 1355,column 5,is_stmt
    1546 000456 A400          MOV *SP(#0), T0 ; |1355| 
    1547              $C$DW$147       .dwtag  DW_TAG_TI_branch
    1548                      .dwattr $C$DW$147, DW_AT_low_pc(0x00)
    1549                      .dwattr $C$DW$147, DW_AT_name("_prvAddCurrentTaskToDelayedList")
    1550                      .dwattr $C$DW$147, DW_AT_TI_call
    1551              
    1552 000458 0812          CALL #_prvAddCurrentTaskToDelayedList ; |1355| 
         00045a 4B   
    1553 00045b 3D05  ||      MOV #0, T1
    1554              
    1555                                                      ; call occurs [#_prvAddCurrentTaskToDelayedList] ; |1355| 
    1556                      .dwpsn  file "../FreeRTOS/Source/tasks_sysStk.c",line 1357,column 4,is_stmt
    1557              $C$DW$148       .dwtag  DW_TAG_TI_branch
    1558                      .dwattr $C$DW$148, DW_AT_low_pc(0x00)
    1559                      .dwattr $C$DW$148, DW_AT_name("_xTaskResumeAll")
    1560                      .dwattr $C$DW$148, DW_AT_TI_call
    1561 00045d 0804          CALL #_xTaskResumeAll ; |1357| 
         00045f D8   
    1562                                                      ; call occurs [#_xTaskResumeAll] ; |1357| 
TMS320C55x Assembler PC v4.4.1 Sun Sep 09 04:48:39 2018

Tools Copyright (c) 1996-2012 Texas Instruments Incorporated
tasks_sysStk.asm                                                     PAGE   35

    1563 000460 C402          MOV T0, *SP(#1) ; |1357| 
    1564                      .dwpsn  file "../FreeRTOS/Source/tasks_sysStk.c",line 1358,column 3,is_stmt
    1565 000462       $C$L28:    
    1566                      .dwpsn  file "../FreeRTOS/Source/tasks_sysStk.c",line 1366,column 3,is_stmt
    1567 000462 A902          MOV *SP(#1), AR1 ; |1366| 
    1568 000464 6319          BCC $C$L29,AR1 != #0 ; |1366| 
    1569                                                      ; branchcc occurs ; |1366| 
    1570                      .dwpsn  file "../FreeRTOS/Source/tasks_sysStk.c",line 1368,column 4,is_stmt
    1571              $C$DW$149       .dwtag  DW_TAG_TI_branch
    1572                      .dwattr $C$DW$149, DW_AT_low_pc(0x00)
    1573                      .dwattr $C$DW$149, DW_AT_name("_vPortYield")
    1574                      .dwattr $C$DW$149, DW_AT_TI_call
    1575 000466 6C00          CALL #_vPortYield ; |1368| 
         000468 0000!
    1576                                                      ; call occurs [#_vPortYield] ; |1368| 
    1577                      .dwpsn  file "../FreeRTOS/Source/tasks_sysStk.c",line 1369,column 3,is_stmt
    1578 00046a 4A00          B $C$L29  ; |1369| 
    1579                                                      ; branch occurs ; |1369| 
    1580 00046c       $C$L29:    
    1581 00046c 4E03          AADD #3, SP
    1582                      .dwcfi  cfa_offset, 1
    1583              $C$DW$150       .dwtag  DW_TAG_TI_branch
    1584                      .dwattr $C$DW$150, DW_AT_low_pc(0x00)
    1585                      .dwattr $C$DW$150, DW_AT_TI_return
    1586 00046e 4804          RET
    1587                                                      ; return occurs
    1588                      .dwattr $C$DW$142, DW_AT_TI_end_file("../FreeRTOS/Source/tasks_sysStk.c")
    1589                      .dwattr $C$DW$142, DW_AT_TI_end_line(0x55e)
    1590                      .dwattr $C$DW$142, DW_AT_TI_end_column(0x02)
    1591                      .dwendentry
    1592                      .dwendtag $C$DW$142
    1593              
    1594 000470               .sect   ".text"
    1595                      .align 4
    1596                      .global _uxTaskPriorityGet
    1597              
    1598              $C$DW$151       .dwtag  DW_TAG_subprogram, DW_AT_name("uxTaskPriorityGet")
    1599                      .dwattr $C$DW$151, DW_AT_low_pc(_uxTaskPriorityGet)
    1600                      .dwattr $C$DW$151, DW_AT_high_pc(0x00)
    1601                      .dwattr $C$DW$151, DW_AT_TI_symbol_name("_uxTaskPriorityGet")
    1602                      .dwattr $C$DW$151, DW_AT_external
    1603                      .dwattr $C$DW$151, DW_AT_type(*$C$DW$T$27)
    1604                      .dwattr $C$DW$151, DW_AT_TI_begin_file("../FreeRTOS/Source/tasks_sysStk.c")
    1605                      .dwattr $C$DW$151, DW_AT_TI_begin_line(0x5c1)
    1606                      .dwattr $C$DW$151, DW_AT_TI_begin_column(0x0e)
    1607                      .dwattr $C$DW$151, DW_AT_TI_max_frame_size(0x06)
    1608                      .dwpsn  file "../FreeRTOS/Source/tasks_sysStk.c",line 1474,column 2,is_stmt,address _uxTaskPriorityGe
    1609              
    1610                      .dwfde $C$DW$CIE, _uxTaskPriorityGet
    1611              $C$DW$152       .dwtag  DW_TAG_formal_parameter, DW_AT_name("xTask")
    1612                      .dwattr $C$DW$152, DW_AT_TI_symbol_name("_xTask")
    1613                      .dwattr $C$DW$152, DW_AT_type(*$C$DW$T$122)
    1614                      .dwattr $C$DW$152, DW_AT_location[DW_OP_reg17]
    1615              ;*******************************************************************************
    1616              ;* FUNCTION NAME: uxTaskPriorityGet                                            *
TMS320C55x Assembler PC v4.4.1 Sun Sep 09 04:48:39 2018

Tools Copyright (c) 1996-2012 Texas Instruments Incorporated
tasks_sysStk.asm                                                     PAGE   36

    1617              ;*                                                                             *
    1618              ;*   Function Uses Regs : AC0,AC0,T0,AR0,XAR0,AR1,AR3,XAR3,SP,CARRY,M40,SATA,  *
    1619              ;*                        SATD,RDM,FRCT,SMUL                                   *
    1620              ;*   Stack Frame        : Compact (No Frame Pointer, w/ debug)                 *
    1621              ;*   Total Frame Size   : 6 words                                              *
    1622              ;*                        (1 return address/alignment)                         *
    1623              ;*                        (5 local values)                                     *
    1624              ;*   Min System Stack   : 1 word                                               *
    1625              ;*******************************************************************************
    1626 000470       _uxTaskPriorityGet:
    1627                      .dwcfi  cfa_offset, 1
    1628                      .dwcfi  save_reg_to_mem, 91, -1
    1629 000470 4EFB          AADD #-5, SP
    1630                      .dwcfi  cfa_offset, 6
    1631              $C$DW$153       .dwtag  DW_TAG_variable, DW_AT_name("xTask")
    1632                      .dwattr $C$DW$153, DW_AT_TI_symbol_name("_xTask")
    1633                      .dwattr $C$DW$153, DW_AT_type(*$C$DW$T$122)
    1634                      .dwattr $C$DW$153, DW_AT_location[DW_OP_bregx 0x24 0]
    1635              $C$DW$154       .dwtag  DW_TAG_variable, DW_AT_name("pxTCB")
    1636                      .dwattr $C$DW$154, DW_AT_TI_symbol_name("_pxTCB")
    1637                      .dwattr $C$DW$154, DW_AT_type(*$C$DW$T$153)
    1638                      .dwattr $C$DW$154, DW_AT_location[DW_OP_bregx 0x24 2]
    1639              $C$DW$155       .dwtag  DW_TAG_variable, DW_AT_name("uxReturn")
    1640                      .dwattr $C$DW$155, DW_AT_TI_symbol_name("_uxReturn")
    1641                      .dwattr $C$DW$155, DW_AT_type(*$C$DW$T$27)
    1642                      .dwattr $C$DW$155, DW_AT_location[DW_OP_bregx 0x24 4]
    1643 000472 EB00          MOV XAR0, dbl(*SP(#0))
         000474 85   
    1644                      .dwpsn  file "../FreeRTOS/Source/tasks_sysStk.c",line 1478,column 3,is_stmt
    1645 000475 20     nop
    1646 000476 46B3   bset INTM
    1647 000478 F731          ADD #1, *(#_usCriticalNesting) ; |1478| 
         00047a 0001 
         00047c 0000 
         00047e 00!  
    1648                      .dwpsn  file "../FreeRTOS/Source/tasks_sysStk.c",line 1482,column 4,is_stmt
    1649 00047f ED00          MOV dbl(*SP(#0)), XAR3
         000481 BF   
    1650 000482 90B0          MOV XAR3, AC0
    1651 000484 6310          BCC $C$L30,AC0 != #0 ; |1482| 
    1652                                                      ; branchcc occurs ; |1482| 
    1653 000486 ED31          MOV dbl(*(#_pxCurrentTCB)), XAR3
         000488 BF00 
         00048a 0004-
    1654 00048c       $C$L30:    
    1655 00048c EB04          MOV XAR3, dbl(*SP(#2))
         00048e B5   
    1656                      .dwpsn  file "../FreeRTOS/Source/tasks_sysStk.c",line 1483,column 4,is_stmt
    1657 00048f A96D          MOV *AR3(#24), AR1 ; |1483| 
         000491 0018 
    1658 000493 C908          MOV AR1, *SP(#4) ; |1483| 
    1659                      .dwpsn  file "../FreeRTOS/Source/tasks_sysStk.c",line 1485,column 3,is_stmt
    1660 000495 A931          MOV *(#_usCriticalNesting), AR1 ; |1485| 
         000497 0000 
         000499 00!  
TMS320C55x Assembler PC v4.4.1 Sun Sep 09 04:48:39 2018

Tools Copyright (c) 1996-2012 Texas Instruments Incorporated
tasks_sysStk.asm                                                     PAGE   37

    1661 00049a 0409          BCC $C$L31,AR1 == #0 ; |1485| 
         00049c 14   
    1662                                                      ; branchcc occurs ; |1485| 
    1663 00049d F731          SUB #1, *(#_usCriticalNesting) ; |1485| 
         00049f FFFF 
         0004a1 0000 
         0004a3 00!  
    1664 0004a4 20            NOP
    1665 0004a5 20            NOP
    1666 0004a6 20            NOP
    1667 0004a7 A931          MOV *(#_usCriticalNesting), AR1 ; |1485| 
         0004a9 0000 
         0004ab 00!  
    1668 0004ac 6199          BCC $C$L31,AR1 != #0 ; |1485| 
    1669                                                      ; branchcc occurs ; |1485| 
    1670 0004ae 20     nop
    1671 0004af 46B2   bclr INTM
    1672 0004b1       $C$L31:    
    1673                      .dwpsn  file "../FreeRTOS/Source/tasks_sysStk.c",line 1487,column 3,is_stmt
    1674 0004b1 A408          MOV *SP(#4), T0 ; |1487| 
    1675                      .dwpsn  file "../FreeRTOS/Source/tasks_sysStk.c",line 1488,column 2,is_stmt
    1676 0004b3 4E05          AADD #5, SP
    1677                      .dwcfi  cfa_offset, 1
    1678              $C$DW$156       .dwtag  DW_TAG_TI_branch
    1679                      .dwattr $C$DW$156, DW_AT_low_pc(0x00)
    1680                      .dwattr $C$DW$156, DW_AT_TI_return
    1681 0004b5 4804          RET
    1682                                                      ; return occurs
    1683                      .dwattr $C$DW$151, DW_AT_TI_end_file("../FreeRTOS/Source/tasks_sysStk.c")
    1684                      .dwattr $C$DW$151, DW_AT_TI_end_line(0x5d0)
    1685                      .dwattr $C$DW$151, DW_AT_TI_end_column(0x02)
    1686                      .dwendentry
    1687                      .dwendtag $C$DW$151
    1688              
    1689 0004b7               .sect   ".text"
    1690                      .align 4
    1691                      .global _uxTaskPriorityGetFromISR
    1692              
    1693              $C$DW$157       .dwtag  DW_TAG_subprogram, DW_AT_name("uxTaskPriorityGetFromISR")
    1694                      .dwattr $C$DW$157, DW_AT_low_pc(_uxTaskPriorityGetFromISR)
    1695                      .dwattr $C$DW$157, DW_AT_high_pc(0x00)
    1696                      .dwattr $C$DW$157, DW_AT_TI_symbol_name("_uxTaskPriorityGetFromISR")
    1697                      .dwattr $C$DW$157, DW_AT_external
    1698                      .dwattr $C$DW$157, DW_AT_type(*$C$DW$T$27)
    1699                      .dwattr $C$DW$157, DW_AT_TI_begin_file("../FreeRTOS/Source/tasks_sysStk.c")
    1700                      .dwattr $C$DW$157, DW_AT_TI_begin_line(0x5d7)
    1701                      .dwattr $C$DW$157, DW_AT_TI_begin_column(0x0e)
    1702                      .dwattr $C$DW$157, DW_AT_TI_max_frame_size(0x08)
    1703                      .dwpsn  file "../FreeRTOS/Source/tasks_sysStk.c",line 1496,column 2,is_stmt,address _uxTaskPriorityGe
    1704              
    1705                      .dwfde $C$DW$CIE, _uxTaskPriorityGetFromISR
    1706              $C$DW$158       .dwtag  DW_TAG_formal_parameter, DW_AT_name("xTask")
    1707                      .dwattr $C$DW$158, DW_AT_TI_symbol_name("_xTask")
    1708                      .dwattr $C$DW$158, DW_AT_type(*$C$DW$T$122)
    1709                      .dwattr $C$DW$158, DW_AT_location[DW_OP_reg17]
TMS320C55x Assembler PC v4.4.1 Sun Sep 09 04:48:39 2018

Tools Copyright (c) 1996-2012 Texas Instruments Incorporated
tasks_sysStk.asm                                                     PAGE   38

    1710              ;*******************************************************************************
    1711              ;* FUNCTION NAME: uxTaskPriorityGetFromISR                                     *
    1712              ;*                                                                             *
    1713              ;*   Function Uses Regs : AC0,AC0,T0,AR0,XAR0,AR1,AR3,XAR3,SP,M40,SATA,SATD,   *
    1714              ;*                        RDM,FRCT,SMUL                                        *
    1715              ;*   Stack Frame        : Compact (No Frame Pointer, w/ debug)                 *
    1716              ;*   Total Frame Size   : 8 words                                              *
    1717              ;*                        (2 return address/alignment)                         *
    1718              ;*                        (6 local values)                                     *
    1719              ;*   Min System Stack   : 1 word                                               *
    1720              ;*******************************************************************************
    1721 0004b8       _uxTaskPriorityGetFromISR:
    1722                      .dwcfi  cfa_offset, 1
    1723                      .dwcfi  save_reg_to_mem, 91, -1
    1724 0004b8 4EF9          AADD #-7, SP
    1725                      .dwcfi  cfa_offset, 8
    1726              $C$DW$159       .dwtag  DW_TAG_variable, DW_AT_name("xTask")
    1727                      .dwattr $C$DW$159, DW_AT_TI_symbol_name("_xTask")
    1728                      .dwattr $C$DW$159, DW_AT_type(*$C$DW$T$122)
    1729                      .dwattr $C$DW$159, DW_AT_location[DW_OP_bregx 0x24 0]
    1730              $C$DW$160       .dwtag  DW_TAG_variable, DW_AT_name("pxTCB")
    1731                      .dwattr $C$DW$160, DW_AT_TI_symbol_name("_pxTCB")
    1732                      .dwattr $C$DW$160, DW_AT_type(*$C$DW$T$153)
    1733                      .dwattr $C$DW$160, DW_AT_location[DW_OP_bregx 0x24 2]
    1734              $C$DW$161       .dwtag  DW_TAG_variable, DW_AT_name("uxReturn")
    1735                      .dwattr $C$DW$161, DW_AT_TI_symbol_name("_uxReturn")
    1736                      .dwattr $C$DW$161, DW_AT_type(*$C$DW$T$27)
    1737                      .dwattr $C$DW$161, DW_AT_location[DW_OP_bregx 0x24 4]
    1738              $C$DW$162       .dwtag  DW_TAG_variable, DW_AT_name("uxSavedInterruptState")
    1739                      .dwattr $C$DW$162, DW_AT_TI_symbol_name("_uxSavedInterruptState")
    1740                      .dwattr $C$DW$162, DW_AT_type(*$C$DW$T$27)
    1741                      .dwattr $C$DW$162, DW_AT_location[DW_OP_bregx 0x24 5]
    1742 0004ba EB00          MOV XAR0, dbl(*SP(#0))
         0004bc 85   
    1743                      .dwpsn  file "../FreeRTOS/Source/tasks_sysStk.c",line 1518,column 3,is_stmt
    1744 0004bd E60A          MOV #0, *SP(#5) ; |1518| 
         0004bf 00   
    1745                      .dwpsn  file "../FreeRTOS/Source/tasks_sysStk.c",line 1522,column 4,is_stmt
    1746 0004c0 ED00          MOV dbl(*SP(#0)), XAR3
         0004c2 BF   
    1747 0004c3 90B0          MOV XAR3, AC0
    1748 0004c5 6310          BCC $C$L32,AC0 != #0 ; |1522| 
    1749                                                      ; branchcc occurs ; |1522| 
    1750 0004c7 ED31          MOV dbl(*(#_pxCurrentTCB)), XAR3
         0004c9 BF00 
         0004cb 0004-
    1751 0004cd       $C$L32:    
    1752 0004cd EB04          MOV XAR3, dbl(*SP(#2))
         0004cf B5   
    1753                      .dwpsn  file "../FreeRTOS/Source/tasks_sysStk.c",line 1523,column 4,is_stmt
    1754 0004d0 A96D          MOV *AR3(#24), AR1 ; |1523| 
         0004d2 0018 
    1755 0004d4 C908          MOV AR1, *SP(#4) ; |1523| 
    1756                      .dwpsn  file "../FreeRTOS/Source/tasks_sysStk.c",line 1525,column 3,is_stmt
    1757                      .dwpsn  file "../FreeRTOS/Source/tasks_sysStk.c",line 1527,column 3,is_stmt
TMS320C55x Assembler PC v4.4.1 Sun Sep 09 04:48:39 2018

Tools Copyright (c) 1996-2012 Texas Instruments Incorporated
tasks_sysStk.asm                                                     PAGE   39

    1758 0004d6 2294          MOV AR1, T0
    1759                      .dwpsn  file "../FreeRTOS/Source/tasks_sysStk.c",line 1528,column 2,is_stmt
    1760 0004d8 4E07          AADD #7, SP
    1761                      .dwcfi  cfa_offset, 1
    1762              $C$DW$163       .dwtag  DW_TAG_TI_branch
    1763                      .dwattr $C$DW$163, DW_AT_low_pc(0x00)
    1764                      .dwattr $C$DW$163, DW_AT_TI_return
    1765 0004da 4804          RET
    1766                                                      ; return occurs
    1767                      .dwattr $C$DW$157, DW_AT_TI_end_file("../FreeRTOS/Source/tasks_sysStk.c")
    1768                      .dwattr $C$DW$157, DW_AT_TI_end_line(0x5f8)
    1769                      .dwattr $C$DW$157, DW_AT_TI_end_column(0x02)
    1770                      .dwendentry
    1771                      .dwendtag $C$DW$157
    1772              
    1773 0004dc               .sect   ".text"
    1774                      .align 4
    1775                      .global _vTaskPrioritySet
    1776              
    1777              $C$DW$164       .dwtag  DW_TAG_subprogram, DW_AT_name("vTaskPrioritySet")
    1778                      .dwattr $C$DW$164, DW_AT_low_pc(_vTaskPrioritySet)
    1779                      .dwattr $C$DW$164, DW_AT_high_pc(0x00)
    1780                      .dwattr $C$DW$164, DW_AT_TI_symbol_name("_vTaskPrioritySet")
    1781                      .dwattr $C$DW$164, DW_AT_external
    1782                      .dwattr $C$DW$164, DW_AT_TI_begin_file("../FreeRTOS/Source/tasks_sysStk.c")
    1783                      .dwattr $C$DW$164, DW_AT_TI_begin_line(0x5ff)
    1784                      .dwattr $C$DW$164, DW_AT_TI_begin_column(0x07)
    1785                      .dwattr $C$DW$164, DW_AT_TI_max_frame_size(0x0a)
    1786                      .dwpsn  file "../FreeRTOS/Source/tasks_sysStk.c",line 1536,column 2,is_stmt,address _vTaskPrioritySet
    1787              
    1788                      .dwfde $C$DW$CIE, _vTaskPrioritySet
    1789              $C$DW$165       .dwtag  DW_TAG_formal_parameter, DW_AT_name("xTask")
    1790                      .dwattr $C$DW$165, DW_AT_TI_symbol_name("_xTask")
    1791                      .dwattr $C$DW$165, DW_AT_type(*$C$DW$T$78)
    1792                      .dwattr $C$DW$165, DW_AT_location[DW_OP_reg17]
    1793              $C$DW$166       .dwtag  DW_TAG_formal_parameter, DW_AT_name("uxNewPriority")
    1794                      .dwattr $C$DW$166, DW_AT_TI_symbol_name("_uxNewPriority")
    1795                      .dwattr $C$DW$166, DW_AT_type(*$C$DW$T$27)
    1796                      .dwattr $C$DW$166, DW_AT_location[DW_OP_reg12]
    1797              ;*******************************************************************************
    1798              ;* FUNCTION NAME: vTaskPrioritySet                                             *
    1799              ;*                                                                             *
    1800              ;*   Function Uses Regs : AC0,AC0,AC1,AC1,T0,AR0,XAR0,AR1,XAR1,AR2,AR3,XAR3,SP,*
    1801              ;*                        CARRY,TC1,M40,SATA,SATD,RDM,FRCT,SMUL                *
    1802              ;*   Stack Frame        : Compact (No Frame Pointer, w/ debug)                 *
    1803              ;*   Total Frame Size   : 10 words                                             *
    1804              ;*                        (1 return address/alignment)                         *
    1805              ;*                        (9 local values)                                     *
    1806              ;*   Min System Stack   : 1 word                                               *
    1807              ;*******************************************************************************
    1808 0004dc       _vTaskPrioritySet:
    1809                      .dwcfi  cfa_offset, 1
    1810                      .dwcfi  save_reg_to_mem, 91, -1
    1811 0004dc 4EF7          AADD #-9, SP
    1812                      .dwcfi  cfa_offset, 10
TMS320C55x Assembler PC v4.4.1 Sun Sep 09 04:48:39 2018

Tools Copyright (c) 1996-2012 Texas Instruments Incorporated
tasks_sysStk.asm                                                     PAGE   40

    1813              $C$DW$167       .dwtag  DW_TAG_variable, DW_AT_name("xTask")
    1814                      .dwattr $C$DW$167, DW_AT_TI_symbol_name("_xTask")
    1815                      .dwattr $C$DW$167, DW_AT_type(*$C$DW$T$78)
    1816                      .dwattr $C$DW$167, DW_AT_location[DW_OP_bregx 0x24 0]
    1817              $C$DW$168       .dwtag  DW_TAG_variable, DW_AT_name("uxNewPriority")
    1818                      .dwattr $C$DW$168, DW_AT_TI_symbol_name("_uxNewPriority")
    1819                      .dwattr $C$DW$168, DW_AT_type(*$C$DW$T$27)
    1820                      .dwattr $C$DW$168, DW_AT_location[DW_OP_bregx 0x24 2]
    1821              $C$DW$169       .dwtag  DW_TAG_variable, DW_AT_name("pxTCB")
    1822                      .dwattr $C$DW$169, DW_AT_TI_symbol_name("_pxTCB")
    1823                      .dwattr $C$DW$169, DW_AT_type(*$C$DW$T$83)
    1824                      .dwattr $C$DW$169, DW_AT_location[DW_OP_bregx 0x24 4]
    1825              $C$DW$170       .dwtag  DW_TAG_variable, DW_AT_name("uxCurrentBasePriority")
    1826                      .dwattr $C$DW$170, DW_AT_TI_symbol_name("_uxCurrentBasePriority")
    1827                      .dwattr $C$DW$170, DW_AT_type(*$C$DW$T$27)
    1828                      .dwattr $C$DW$170, DW_AT_location[DW_OP_bregx 0x24 6]
    1829              $C$DW$171       .dwtag  DW_TAG_variable, DW_AT_name("uxPriorityUsedOnEntry")
    1830                      .dwattr $C$DW$171, DW_AT_TI_symbol_name("_uxPriorityUsedOnEntry")
    1831                      .dwattr $C$DW$171, DW_AT_type(*$C$DW$T$27)
    1832                      .dwattr $C$DW$171, DW_AT_location[DW_OP_bregx 0x24 7]
    1833              $C$DW$172       .dwtag  DW_TAG_variable, DW_AT_name("xYieldRequired")
    1834                      .dwattr $C$DW$172, DW_AT_TI_symbol_name("_xYieldRequired")
    1835                      .dwattr $C$DW$172, DW_AT_type(*$C$DW$T$46)
    1836                      .dwattr $C$DW$172, DW_AT_location[DW_OP_bregx 0x24 8]
    1837 0004de C404          MOV T0, *SP(#2) ; |1536| 
    1838 0004e0 EB00          MOV XAR0, dbl(*SP(#0))
         0004e2 85   
    1839                      .dwpsn  file "../FreeRTOS/Source/tasks_sysStk.c",line 1539,column 13,is_stmt
    1840 0004e3 E610          MOV #0, *SP(#8) ; |1539| 
         0004e5 00   
    1841                      .dwpsn  file "../FreeRTOS/Source/tasks_sysStk.c",line 1544,column 3,is_stmt
    1842              
    1843 0004e6 A904          MOV *SP(#2), AR1 ; |1544| 
    1844 0004e8 3D4A  ||      MOV #4, AR2
    1845              
    1846 0004ea 1294          CMPU AR1 < AR2, TC1 ; |1544| 
         0004ec A4   
    1847 0004ed 61E4          BCC $C$L33,TC1 ; |1544| 
    1848                                                      ; branchcc occurs ; |1544| 
    1849                      .dwpsn  file "../FreeRTOS/Source/tasks_sysStk.c",line 1546,column 4,is_stmt
    1850 0004ef E604          MOV #3, *SP(#2) ; |1546| 
         0004f1 03   
    1851                      .dwpsn  file "../FreeRTOS/Source/tasks_sysStk.c",line 1547,column 3,is_stmt
    1852 0004f2       $C$L33:    
    1853                      .dwpsn  file "../FreeRTOS/Source/tasks_sysStk.c",line 1553,column 3,is_stmt
    1854 0004f2 20     nop
    1855 0004f3 46B3   bset INTM
    1856 0004f5 F731          ADD #1, *(#_usCriticalNesting) ; |1553| 
         0004f7 0001 
         0004f9 0000 
         0004fb 00!  
    1857                      .dwpsn  file "../FreeRTOS/Source/tasks_sysStk.c",line 1557,column 4,is_stmt
    1858 0004fc ED00          MOV dbl(*SP(#0)), XAR3
         0004fe BF   
    1859 0004ff 90B0          MOV XAR3, AC0
TMS320C55x Assembler PC v4.4.1 Sun Sep 09 04:48:39 2018

Tools Copyright (c) 1996-2012 Texas Instruments Incorporated
tasks_sysStk.asm                                                     PAGE   41

    1860 000501 6310          BCC $C$L34,AC0 != #0 ; |1557| 
    1861                                                      ; branchcc occurs ; |1557| 
    1862 000503 ED31          MOV dbl(*(#_pxCurrentTCB)), XAR3
         000505 BF00 
         000507 0004-
    1863 000509       $C$L34:    
    1864 000509 EB08          MOV XAR3, dbl(*SP(#4))
         00050b B5   
    1865                      .dwpsn  file "../FreeRTOS/Source/tasks_sysStk.c",line 1567,column 5,is_stmt
    1866 00050c A96D          MOV *AR3(#24), AR1 ; |1567| 
         00050e 0018 
    1867 000510 C90C          MOV AR1, *SP(#6) ; |1567| 
    1868                      .dwpsn  file "../FreeRTOS/Source/tasks_sysStk.c",line 1571,column 4,is_stmt
    1869 000512 AA0C          MOV *SP(#6), AR2 ; |1571| 
    1870 000514 A904          MOV *SP(#2), AR1 ; |1571| 
    1871 000516 12A0          CMPU AR2 == AR1, TC1 ; |1571| 
         000518 94   
    1872 000519 6D64          BCC $C$L44,TC1 ; |1571| 
         00051b 00E1 
    1873                                                      ; branchcc occurs ; |1571| 
    1874                      .dwpsn  file "../FreeRTOS/Source/tasks_sysStk.c",line 1575,column 5,is_stmt
    1875              
    1876 00051d AA04          MOV *SP(#2), AR2 ; |1575| 
    1877 00051f 23A9  ||      MOV AR2, AR1
    1878              
    1879 000521 1298          CMPU AR2 <= AR1, TC1 ; |1575| 
         000523 A4   
    1880 000524 0464          BCC $C$L35,TC1 ; |1575| 
         000526 28   
    1881                                                      ; branchcc occurs ; |1575| 
    1882                      .dwpsn  file "../FreeRTOS/Source/tasks_sysStk.c",line 1577,column 6,is_stmt
    1883 000527 ED31          MOV dbl(*(#_pxCurrentTCB)), XAR3
         000529 BF00 
         00052b 0004-
    1884 00052d 90B0          MOV XAR3, AC0
    1885 00052f ED08          MOV dbl(*SP(#4)), XAR3
         000531 BF   
    1886 000532 90B1          MOV XAR3, AC1
    1887 000534 1210          CMPU AC1 == AC0, TC1 ; |1577| 
         000536 04   
    1888 000537 0464          BCC $C$L36,TC1 ; |1577| 
         000539 2A   
    1889                                                      ; branchcc occurs ; |1577| 
    1890                      .dwpsn  file "../FreeRTOS/Source/tasks_sysStk.c",line 1582,column 7,is_stmt
    1891 00053a ED31          MOV dbl(*(#_pxCurrentTCB)), XAR3
         00053c BF00 
         00053e 0004-
    1892 000540 A96D          MOV *AR3(#24), AR1 ; |1582| 
         000542 0018 
    1893 000544 12A4          CMPU AR2 < AR1, TC1 ; |1582| 
         000546 94   
    1894 000547 0464          BCC $C$L36,TC1 ; |1582| 
         000549 1A   
    1895                                                      ; branchcc occurs ; |1582| 
    1896                      .dwpsn  file "../FreeRTOS/Source/tasks_sysStk.c",line 1584,column 8,is_stmt
TMS320C55x Assembler PC v4.4.1 Sun Sep 09 04:48:39 2018

Tools Copyright (c) 1996-2012 Texas Instruments Incorporated
tasks_sysStk.asm                                                     PAGE   42

    1897 00054a E610          MOV #1, *SP(#8) ; |1584| 
         00054c 01   
    1898                      .dwpsn  file "../FreeRTOS/Source/tasks_sysStk.c",line 1585,column 7,is_stmt
    1899 00054d 4A15          B $C$L36  ; |1585| 
    1900                                                      ; branch occurs ; |1585| 
    1901 00054f       $C$L35:    
    1902                      .dwpsn  file "../FreeRTOS/Source/tasks_sysStk.c",line 1598,column 10,is_stmt
    1903 00054f ED31          MOV dbl(*(#_pxCurrentTCB)), XAR3
         000551 BF00 
         000553 0004-
    1904 000555 90B0          MOV XAR3, AC0
    1905 000557 ED08          MOV dbl(*SP(#4)), XAR3
         000559 BF   
    1906 00055a 90B1          MOV XAR3, AC1
    1907 00055c 121C          CMPU AC1 != AC0, TC1 ; |1598| 
         00055e 04   
    1908 00055f 61E4          BCC $C$L36,TC1 ; |1598| 
    1909                                                      ; branchcc occurs ; |1598| 
    1910                      .dwpsn  file "../FreeRTOS/Source/tasks_sysStk.c",line 1603,column 6,is_stmt
    1911 000561 E610          MOV #1, *SP(#8) ; |1603| 
         000563 01   
    1912                      .dwpsn  file "../FreeRTOS/Source/tasks_sysStk.c",line 1604,column 5,is_stmt
    1913 000564       $C$L36:    
    1914                      .dwpsn  file "../FreeRTOS/Source/tasks_sysStk.c",line 1615,column 5,is_stmt
    1915 000564 ED08          MOV dbl(*SP(#4)), XAR3
         000566 BF   
    1916 000567 A96D          MOV *AR3(#24), AR1 ; |1615| 
         000569 0018 
    1917 00056b C90E          MOV AR1, *SP(#7) ; |1615| 
    1918                      .dwpsn  file "../FreeRTOS/Source/tasks_sysStk.c",line 1635,column 6,is_stmt
    1919 00056d ED08          MOV dbl(*SP(#4)), XAR3
         00056f BF   
    1920 000570 A904          MOV *SP(#2), AR1 ; |1635| 
    1921 000572 C96D          MOV AR1, *AR3(#24) ; |1635| 
         000574 0018 
    1922                      .dwpsn  file "../FreeRTOS/Source/tasks_sysStk.c",line 1641,column 5,is_stmt
    1923 000576 ED08          MOV dbl(*SP(#4)), XAR3
         000578 BF   
    1924 000579 A96D          MOV *AR3(#14), AR1 ; |1641| 
         00057b 000E 
    1925 00057d 7D80          AND #0x8000, AR1, AR1 ; |1641| 
         00057f 0099 
    1926 000581 6499          BCC $C$L37,AR1 != #0 ; |1641| 
    1927                                                      ; branchcc occurs ; |1641| 
    1928                      .dwpsn  file "../FreeRTOS/Source/tasks_sysStk.c",line 1643,column 6,is_stmt
    1929 000583 3C40          MOV #4, AC0
    1930 000585 DF04          SUB uns(*SP(#2)), AC0, AC0 ; |1643| 
         000587 0F   
    1931 000588 C06D          MOV AC0, *AR3(#14) ; |1643| 
         00058a 000E 
    1932                      .dwpsn  file "../FreeRTOS/Source/tasks_sysStk.c",line 1644,column 5,is_stmt
    1933 00058c       $C$L37:    
    1934                      .dwpsn  file "../FreeRTOS/Source/tasks_sysStk.c",line 1654,column 5,is_stmt
    1935 00058c F80E          MPYMK *SP(#7), #10, AC1 ; |1654| 
         00058e 0A10 
TMS320C55x Assembler PC v4.4.1 Sun Sep 09 04:48:39 2018

Tools Copyright (c) 1996-2012 Texas Instruments Incorporated
tasks_sysStk.asm                                                     PAGE   43

    1936 000590 2219          MOV AC1, AR1 ; |1654| 
    1937 000592 EC31          AMOV #_pxReadyTasksLists, XAR3 ; |1654| 
         000594 BE00 
         000596 0006-
    1938 000598 1490          AADD AR1, AR3 ; |1654| 
         00059a B0   
    1939 00059b 90B0          MOV XAR3, AC0
    1940 00059d ED08          MOV dbl(*SP(#4)), XAR3
         00059f BF   
    1941 0005a0 ED6D          MOV dbl(*AR3(#12)), XAR3
         0005a2 BF00 
         0005a4 0C   
    1942 0005a5 90B1          MOV XAR3, AC1
    1943 0005a7 121C          CMPU AC1 != AC0, TC1 ; |1654| 
         0005a9 04   
    1944 0005aa 6264          BCC $C$L38,TC1 ; |1654| 
    1945                                                      ; branchcc occurs ; |1654| 
    1946 0005ac 3C19          MOV #1, AR1
    1947 0005ae 4A02          B $C$L39  ; |1654| 
    1948                                                      ; branch occurs ; |1654| 
    1949 0005b0       $C$L38:    
    1950 0005b0 3C09          MOV #0, AR1
    1951 0005b2       $C$L39:    
    1952 0005b2 0409          BCC $C$L42,AR1 == #0 ; |1654| 
         0005b4 41   
    1953                                                      ; branchcc occurs ; |1654| 
    1954                      .dwpsn  file "../FreeRTOS/Source/tasks_sysStk.c",line 1659,column 6,is_stmt
    1955 0005b5 ED08          MOV dbl(*SP(#4)), XAR0
         0005b7 8F   
    1956 0005b8 1404          AADD #4, AR0 ; |1659| 
         0005ba 84   
    1957              $C$DW$173       .dwtag  DW_TAG_TI_branch
    1958                      .dwattr $C$DW$173, DW_AT_low_pc(0x00)
    1959                      .dwattr $C$DW$173, DW_AT_name("_uxListRemove")
    1960                      .dwattr $C$DW$173, DW_AT_TI_call
    1961 0005bb 6C00          CALL #_uxListRemove ; |1659| 
         0005bd 0000!
    1962                                                      ; call occurs [#_uxListRemove] ; |1659| 
    1963 0005bf 6004          BCC $C$L40,T0 == #0 ; |1659| 
    1964                                                      ; branchcc occurs ; |1659| 
    1965                      .dwpsn  file "../FreeRTOS/Source/tasks_sysStk.c",line 1665,column 6,is_stmt
    1966 0005c1       $C$L40:    
    1967                      .dwpsn  file "../FreeRTOS/Source/tasks_sysStk.c",line 1670,column 6,is_stmt
    1968 0005c1 ED08          MOV dbl(*SP(#4)), XAR3
         0005c3 BF   
    1969 0005c4 A931          MOV *(#_uxTopReadyPriority), AR1 ; |1670| 
         0005c6 0000 
         0005c8 67-  
    1970 0005c9 AA6D          MOV *AR3(#24), AR2 ; |1670| 
         0005cb 0018 
    1971 0005cd 1298          CMPU AR2 <= AR1, TC1 ; |1670| 
         0005cf A4   
    1972 0005d0 64E4          BCC $C$L41,TC1 ; |1670| 
    1973                                                      ; branchcc occurs ; |1670| 
    1974 0005d2 A96D          MOV *AR3(#24), AR1 ; |1670| 
TMS320C55x Assembler PC v4.4.1 Sun Sep 09 04:48:39 2018

Tools Copyright (c) 1996-2012 Texas Instruments Incorporated
tasks_sysStk.asm                                                     PAGE   44

         0005d4 0018 
    1975 0005d6 C931          MOV AR1, *(#_uxTopReadyPriority) ; |1670| 
         0005d8 0000 
         0005da 67-  
    1976 0005db       $C$L41:    
    1977 0005db F86D          MPYMK *AR3(#24), #10, AC0 ; |1670| 
         0005dd 0A00 
         0005df 0018 
    1978 0005e1 2209          MOV AC0, AR1 ; |1670| 
    1979 0005e3 EC31          AMOV #_pxReadyTasksLists, XAR0 ; |1670| 
         0005e5 8E00 
         0005e7 0006-
    1980 0005e9 1490          AADD AR1, AR0 ; |1670| 
         0005eb 80   
    1981 0005ec ED08          MOV dbl(*SP(#4)), XAR1
         0005ee 9F   
    1982 0005ef 1404          AADD #4, AR1 ; |1670| 
         0005f1 94   
    1983              $C$DW$174       .dwtag  DW_TAG_TI_branch
    1984                      .dwattr $C$DW$174, DW_AT_low_pc(0x00)
    1985                      .dwattr $C$DW$174, DW_AT_name("_vListInsertEnd")
    1986                      .dwattr $C$DW$174, DW_AT_TI_call
    1987 0005f2 6C00          CALL #_vListInsertEnd ; |1670| 
         0005f4 0000!
    1988                                                      ; call occurs [#_vListInsertEnd] ; |1670| 
    1989                      .dwpsn  file "../FreeRTOS/Source/tasks_sysStk.c",line 1671,column 5,is_stmt
    1990 0005f6       $C$L42:    
    1991                      .dwpsn  file "../FreeRTOS/Source/tasks_sysStk.c",line 1677,column 5,is_stmt
    1992 0005f6 A910          MOV *SP(#8), AR1 ; |1677| 
    1993 0005f8 6209          BCC $C$L43,AR1 == #0 ; |1677| 
    1994                                                      ; branchcc occurs ; |1677| 
    1995                      .dwpsn  file "../FreeRTOS/Source/tasks_sysStk.c",line 1679,column 6,is_stmt
    1996              $C$DW$175       .dwtag  DW_TAG_TI_branch
    1997                      .dwattr $C$DW$175, DW_AT_low_pc(0x00)
    1998                      .dwattr $C$DW$175, DW_AT_name("_vPortYield")
    1999                      .dwattr $C$DW$175, DW_AT_TI_call
    2000 0005fa 6C00          CALL #_vPortYield ; |1679| 
         0005fc 0000!
    2001                                                      ; call occurs [#_vPortYield] ; |1679| 
    2002                      .dwpsn  file "../FreeRTOS/Source/tasks_sysStk.c",line 1680,column 5,is_stmt
    2003 0005fe       $C$L43:    
    2004                      .dwpsn  file "../FreeRTOS/Source/tasks_sysStk.c",line 1688,column 5,is_stmt
    2005 0005fe       $C$L44:    
    2006                      .dwpsn  file "../FreeRTOS/Source/tasks_sysStk.c",line 1691,column 3,is_stmt
    2007 0005fe A931          MOV *(#_usCriticalNesting), AR1 ; |1691| 
         000600 0000 
         000602 00!  
    2008 000603 0409          BCC $C$L45,AR1 == #0 ; |1691| 
         000605 14   
    2009                                                      ; branchcc occurs ; |1691| 
    2010 000606 F731          SUB #1, *(#_usCriticalNesting) ; |1691| 
         000608 FFFF 
         00060a 0000 
         00060c 00!  
    2011 00060d 20            NOP
TMS320C55x Assembler PC v4.4.1 Sun Sep 09 04:48:39 2018

Tools Copyright (c) 1996-2012 Texas Instruments Incorporated
tasks_sysStk.asm                                                     PAGE   45

    2012 00060e 20            NOP
    2013 00060f 20            NOP
    2014 000610 A931          MOV *(#_usCriticalNesting), AR1 ; |1691| 
         000612 0000 
         000614 00!  
    2015 000615 6199          BCC $C$L45,AR1 != #0 ; |1691| 
    2016                                                      ; branchcc occurs ; |1691| 
    2017 000617 20     nop
    2018 000618 46B2   bclr INTM
    2019                      .dwpsn  file "../FreeRTOS/Source/tasks_sysStk.c",line 1692,column 2,is_stmt
    2020 00061a       $C$L45:    
    2021 00061a 4E09          AADD #9, SP
    2022                      .dwcfi  cfa_offset, 1
    2023              $C$DW$176       .dwtag  DW_TAG_TI_branch
    2024                      .dwattr $C$DW$176, DW_AT_low_pc(0x00)
    2025                      .dwattr $C$DW$176, DW_AT_TI_return
    2026 00061c 4804          RET
    2027                                                      ; return occurs
    2028                      .dwattr $C$DW$164, DW_AT_TI_end_file("../FreeRTOS/Source/tasks_sysStk.c")
    2029                      .dwattr $C$DW$164, DW_AT_TI_end_line(0x69c)
    2030                      .dwattr $C$DW$164, DW_AT_TI_end_column(0x02)
    2031                      .dwendentry
    2032                      .dwendtag $C$DW$164
    2033              
    2034 00061e               .sect   ".text"
    2035                      .align 4
    2036                      .global _vTaskSuspend
    2037              
    2038              $C$DW$177       .dwtag  DW_TAG_subprogram, DW_AT_name("vTaskSuspend")
    2039                      .dwattr $C$DW$177, DW_AT_low_pc(_vTaskSuspend)
    2040                      .dwattr $C$DW$177, DW_AT_high_pc(0x00)
    2041                      .dwattr $C$DW$177, DW_AT_TI_symbol_name("_vTaskSuspend")
    2042                      .dwattr $C$DW$177, DW_AT_external
    2043                      .dwattr $C$DW$177, DW_AT_TI_begin_file("../FreeRTOS/Source/tasks_sysStk.c")
    2044                      .dwattr $C$DW$177, DW_AT_TI_begin_line(0x6a3)
    2045                      .dwattr $C$DW$177, DW_AT_TI_begin_column(0x07)
    2046                      .dwattr $C$DW$177, DW_AT_TI_max_frame_size(0x06)
    2047                      .dwpsn  file "../FreeRTOS/Source/tasks_sysStk.c",line 1700,column 2,is_stmt,address _vTaskSuspend
    2048              
    2049                      .dwfde $C$DW$CIE, _vTaskSuspend
    2050              $C$DW$178       .dwtag  DW_TAG_formal_parameter, DW_AT_name("xTaskToSuspend")
    2051                      .dwattr $C$DW$178, DW_AT_TI_symbol_name("_xTaskToSuspend")
    2052                      .dwattr $C$DW$178, DW_AT_type(*$C$DW$T$78)
    2053                      .dwattr $C$DW$178, DW_AT_location[DW_OP_reg17]
    2054              ;*******************************************************************************
    2055              ;* FUNCTION NAME: vTaskSuspend                                                 *
    2056              ;*                                                                             *
    2057              ;*   Function Uses Regs : AC0,AC0,AC1,AC1,T0,AR0,XAR0,AR1,XAR1,AR2,AR3,XAR3,SP,*
    2058              ;*                        CARRY,TC1,M40,SATA,SATD,RDM,FRCT,SMUL                *
    2059              ;*   Stack Frame        : Compact (No Frame Pointer, w/ debug)                 *
    2060              ;*   Total Frame Size   : 6 words                                              *
    2061              ;*                        (2 return address/alignment)                         *
    2062              ;*                        (4 local values)                                     *
    2063              ;*   Min System Stack   : 1 word                                               *
    2064              ;*******************************************************************************
TMS320C55x Assembler PC v4.4.1 Sun Sep 09 04:48:39 2018

Tools Copyright (c) 1996-2012 Texas Instruments Incorporated
tasks_sysStk.asm                                                     PAGE   46

    2065 000620       _vTaskSuspend:
    2066                      .dwcfi  cfa_offset, 1
    2067                      .dwcfi  save_reg_to_mem, 91, -1
    2068 000620 4EFB          AADD #-5, SP
    2069                      .dwcfi  cfa_offset, 6
    2070              $C$DW$179       .dwtag  DW_TAG_variable, DW_AT_name("xTaskToSuspend")
    2071                      .dwattr $C$DW$179, DW_AT_TI_symbol_name("_xTaskToSuspend")
    2072                      .dwattr $C$DW$179, DW_AT_type(*$C$DW$T$78)
    2073                      .dwattr $C$DW$179, DW_AT_location[DW_OP_bregx 0x24 0]
    2074              $C$DW$180       .dwtag  DW_TAG_variable, DW_AT_name("pxTCB")
    2075                      .dwattr $C$DW$180, DW_AT_TI_symbol_name("_pxTCB")
    2076                      .dwattr $C$DW$180, DW_AT_type(*$C$DW$T$83)
    2077                      .dwattr $C$DW$180, DW_AT_location[DW_OP_bregx 0x24 2]
    2078 000622 EB00          MOV XAR0, dbl(*SP(#0))
         000624 85   
    2079                      .dwpsn  file "../FreeRTOS/Source/tasks_sysStk.c",line 1703,column 3,is_stmt
    2080 000625 20     nop
    2081 000626 46B3   bset INTM
    2082 000628 F731          ADD #1, *(#_usCriticalNesting) ; |1703| 
         00062a 0001 
         00062c 0000 
         00062e 00!  
    2083                      .dwpsn  file "../FreeRTOS/Source/tasks_sysStk.c",line 1707,column 4,is_stmt
    2084 00062f ED00          MOV dbl(*SP(#0)), XAR3
         000631 BF   
    2085 000632 90B0          MOV XAR3, AC0
    2086 000634 6310          BCC $C$L46,AC0 != #0 ; |1707| 
    2087                                                      ; branchcc occurs ; |1707| 
    2088 000636 ED31          MOV dbl(*(#_pxCurrentTCB)), XAR3
         000638 BF00 
         00063a 0004-
    2089 00063c       $C$L46:    
    2090 00063c EB04          MOV XAR3, dbl(*SP(#2))
         00063e B5   
    2091                      .dwpsn  file "../FreeRTOS/Source/tasks_sysStk.c",line 1713,column 4,is_stmt
    2092 00063f ED04          MOV dbl(*SP(#2)), XAR0
         000641 8F   
    2093 000642 1404          AADD #4, AR0 ; |1713| 
         000644 84   
    2094              $C$DW$181       .dwtag  DW_TAG_TI_branch
    2095                      .dwattr $C$DW$181, DW_AT_low_pc(0x00)
    2096                      .dwattr $C$DW$181, DW_AT_name("_uxListRemove")
    2097                      .dwattr $C$DW$181, DW_AT_TI_call
    2098 000645 6C00          CALL #_uxListRemove ; |1713| 
         000647 0000!
    2099                                                      ; call occurs [#_uxListRemove] ; |1713| 
    2100 000649 6004          BCC $C$L47,T0 == #0 ; |1713| 
    2101                                                      ; branchcc occurs ; |1713| 
    2102                      .dwpsn  file "../FreeRTOS/Source/tasks_sysStk.c",line 1716,column 4,is_stmt
    2103 00064b       $C$L47:    
    2104                      .dwpsn  file "../FreeRTOS/Source/tasks_sysStk.c",line 1723,column 4,is_stmt
    2105 00064b ED04          MOV dbl(*SP(#2)), XAR3
         00064d BF   
    2106 00064e ED6D          MOV dbl(*AR3(#22)), XAR3
         000650 BF00 
TMS320C55x Assembler PC v4.4.1 Sun Sep 09 04:48:39 2018

Tools Copyright (c) 1996-2012 Texas Instruments Incorporated
tasks_sysStk.asm                                                     PAGE   47

         000652 16   
    2107 000653 90B0          MOV XAR3, AC0
    2108 000655 6500          BCC $C$L48,AC0 == #0 ; |1723| 
    2109                                                      ; branchcc occurs ; |1723| 
    2110                      .dwpsn  file "../FreeRTOS/Source/tasks_sysStk.c",line 1725,column 5,is_stmt
    2111 000657 ED04          MOV dbl(*SP(#2)), XAR0
         000659 8F   
    2112 00065a 140E          AADD #14, AR0 ; |1725| 
         00065c 84   
    2113              $C$DW$182       .dwtag  DW_TAG_TI_branch
    2114                      .dwattr $C$DW$182, DW_AT_low_pc(0x00)
    2115                      .dwattr $C$DW$182, DW_AT_name("_uxListRemove")
    2116                      .dwattr $C$DW$182, DW_AT_TI_call
    2117 00065d 6C00          CALL #_uxListRemove ; |1725| 
         00065f 0000!
    2118                                                      ; call occurs [#_uxListRemove] ; |1725| 
    2119                      .dwpsn  file "../FreeRTOS/Source/tasks_sysStk.c",line 1726,column 4,is_stmt
    2120 000661       $C$L48:    
    2121                      .dwpsn  file "../FreeRTOS/Source/tasks_sysStk.c",line 1732,column 4,is_stmt
    2122 000661 ED04          MOV dbl(*SP(#2)), XAR1
         000663 9F   
    2123 000664 EC31          AMOV #_xSuspendedTaskList, XAR0 ; |1732| 
         000666 8E00 
         000668 005C-
    2124 00066a 1404          AADD #4, AR1 ; |1732| 
         00066c 94   
    2125              $C$DW$183       .dwtag  DW_TAG_TI_branch
    2126                      .dwattr $C$DW$183, DW_AT_low_pc(0x00)
    2127                      .dwattr $C$DW$183, DW_AT_name("_vListInsertEnd")
    2128                      .dwattr $C$DW$183, DW_AT_TI_call
    2129 00066d 6C00          CALL #_vListInsertEnd ; |1732| 
         00066f 0000!
    2130                                                      ; call occurs [#_vListInsertEnd] ; |1732| 
    2131                      .dwpsn  file "../FreeRTOS/Source/tasks_sysStk.c",line 1736,column 5,is_stmt
    2132 000671 ED04          MOV dbl(*SP(#2)), XAR3
         000673 BF   
    2133 000674 F06D          CMP *AR3(#40) == #1, TC1 ; |1736| 
         000676 0001 
         000678 0028 
    2134 00067a 62F4          BCC $C$L49,!TC1 ; |1736| 
    2135                                                      ; branchcc occurs ; |1736| 
    2136                      .dwpsn  file "../FreeRTOS/Source/tasks_sysStk.c",line 1740,column 6,is_stmt
    2137 00067c E66D          MOV #0, *AR3(#40) ; |1740| 
         00067e 0000 
         000680 28   
    2138 000681       $C$L49:    
    2139                      .dwpsn  file "../FreeRTOS/Source/tasks_sysStk.c",line 1745,column 3,is_stmt
    2140 000681 A931          MOV *(#_usCriticalNesting), AR1 ; |1745| 
         000683 0000 
         000685 00!  
    2141 000686 0409          BCC $C$L50,AR1 == #0 ; |1745| 
         000688 14   
    2142                                                      ; branchcc occurs ; |1745| 
    2143 000689 F731          SUB #1, *(#_usCriticalNesting) ; |1745| 
         00068b FFFF 
TMS320C55x Assembler PC v4.4.1 Sun Sep 09 04:48:39 2018

Tools Copyright (c) 1996-2012 Texas Instruments Incorporated
tasks_sysStk.asm                                                     PAGE   48

         00068d 0000 
         00068f 00!  
    2144 000690 20            NOP
    2145 000691 20            NOP
    2146 000692 20            NOP
    2147 000693 A931          MOV *(#_usCriticalNesting), AR1 ; |1745| 
         000695 0000 
         000697 00!  
    2148 000698 6199          BCC $C$L50,AR1 != #0 ; |1745| 
    2149                                                      ; branchcc occurs ; |1745| 
    2150 00069a 20     nop
    2151 00069b 46B2   bclr INTM
    2152 00069d       $C$L50:    
    2153                      .dwpsn  file "../FreeRTOS/Source/tasks_sysStk.c",line 1747,column 3,is_stmt
    2154 00069d A931          MOV *(#_xSchedulerRunning), AR1 ; |1747| 
         00069f 0000 
         0006a1 68-  
    2155 0006a2 0409          BCC $C$L51,AR1 == #0 ; |1747| 
         0006a4 29   
    2156                                                      ; branchcc occurs ; |1747| 
    2157                      .dwpsn  file "../FreeRTOS/Source/tasks_sysStk.c",line 1751,column 4,is_stmt
    2158 0006a5 20     nop
    2159 0006a6 46B3   bset INTM
    2160 0006a8 F731          ADD #1, *(#_usCriticalNesting) ; |1751| 
         0006aa 0001 
         0006ac 0000 
         0006ae 00!  
    2161                      .dwpsn  file "../FreeRTOS/Source/tasks_sysStk.c",line 1753,column 5,is_stmt
    2162              $C$DW$184       .dwtag  DW_TAG_TI_branch
    2163                      .dwattr $C$DW$184, DW_AT_low_pc(0x00)
    2164                      .dwattr $C$DW$184, DW_AT_name("_prvResetNextTaskUnblockTime")
    2165                      .dwattr $C$DW$184, DW_AT_TI_call
    2166 0006af 080A          CALL #_prvResetNextTaskUnblockTime ; |1753| 
         0006b1 16   
    2167                                                      ; call occurs [#_prvResetNextTaskUnblockTime] ; |1753| 
    2168                      .dwpsn  file "../FreeRTOS/Source/tasks_sysStk.c",line 1755,column 4,is_stmt
    2169 0006b2 A931          MOV *(#_usCriticalNesting), AR1 ; |1755| 
         0006b4 0000 
         0006b6 00!  
    2170 0006b7 0409          BCC $C$L51,AR1 == #0 ; |1755| 
         0006b9 14   
    2171                                                      ; branchcc occurs ; |1755| 
    2172 0006ba F731          SUB #1, *(#_usCriticalNesting) ; |1755| 
         0006bc FFFF 
         0006be 0000 
         0006c0 00!  
    2173 0006c1 20            NOP
    2174 0006c2 20            NOP
    2175 0006c3 20            NOP
    2176 0006c4 A931          MOV *(#_usCriticalNesting), AR1 ; |1755| 
         0006c6 0000 
         0006c8 00!  
    2177 0006c9 6199          BCC $C$L51,AR1 != #0 ; |1755| 
    2178                                                      ; branchcc occurs ; |1755| 
    2179 0006cb 20     nop
TMS320C55x Assembler PC v4.4.1 Sun Sep 09 04:48:39 2018

Tools Copyright (c) 1996-2012 Texas Instruments Incorporated
tasks_sysStk.asm                                                     PAGE   49

    2180 0006cc 46B2   bclr INTM
    2181                      .dwpsn  file "../FreeRTOS/Source/tasks_sysStk.c",line 1756,column 3,is_stmt
    2182 0006ce       $C$L51:    
    2183                      .dwpsn  file "../FreeRTOS/Source/tasks_sysStk.c",line 1762,column 3,is_stmt
    2184 0006ce ED31          MOV dbl(*(#_pxCurrentTCB)), XAR3
         0006d0 BF00 
         0006d2 0004-
    2185 0006d4 90B0          MOV XAR3, AC0
    2186 0006d6 ED04          MOV dbl(*SP(#2)), XAR3
         0006d8 BF   
    2187 0006d9 90B1          MOV XAR3, AC1
    2188 0006db 121C          CMPU AC1 != AC0, TC1 ; |1762| 
         0006dd 04   
    2189 0006de 0464          BCC $C$L54,TC1 ; |1762| 
         0006e0 2B   
    2190                                                      ; branchcc occurs ; |1762| 
    2191                      .dwpsn  file "../FreeRTOS/Source/tasks_sysStk.c",line 1764,column 4,is_stmt
    2192 0006e1 A931          MOV *(#_xSchedulerRunning), AR1 ; |1764| 
         0006e3 0000 
         0006e5 68-  
    2193 0006e6 6309          BCC $C$L52,AR1 == #0 ; |1764| 
    2194                                                      ; branchcc occurs ; |1764| 
    2195                      .dwpsn  file "../FreeRTOS/Source/tasks_sysStk.c",line 1768,column 5,is_stmt
    2196              $C$DW$185       .dwtag  DW_TAG_TI_branch
    2197                      .dwattr $C$DW$185, DW_AT_low_pc(0x00)
    2198                      .dwattr $C$DW$185, DW_AT_name("_vPortYield")
    2199                      .dwattr $C$DW$185, DW_AT_TI_call
    2200 0006e8 6C00          CALL #_vPortYield ; |1768| 
         0006ea 0000!
    2201                                                      ; call occurs [#_vPortYield] ; |1768| 
    2202                      .dwpsn  file "../FreeRTOS/Source/tasks_sysStk.c",line 1769,column 4,is_stmt
    2203 0006ec 4A1E          B $C$L54  ; |1769| 
    2204                                                      ; branch occurs ; |1769| 
    2205 0006ee       $C$L52:    
    2206                      .dwpsn  file "../FreeRTOS/Source/tasks_sysStk.c",line 1775,column 5,is_stmt
    2207 0006ee A931          MOV *(#_uxCurrentNumberOfTasks), AR1 ; |1775| 
         0006f0 0000 
         0006f2 5B-  
    2208 0006f3 AA31          MOV *(#_xSuspendedTaskList), AR2 ; |1775| 
         0006f5 0000 
         0006f7 5C-  
    2209 0006f8 12AC          CMPU AR2 != AR1, TC1 ; |1775| 
         0006fa 94   
    2210 0006fb 6564          BCC $C$L53,TC1 ; |1775| 
    2211                                                      ; branchcc occurs ; |1775| 
    2212                      .dwpsn  file "../FreeRTOS/Source/tasks_sysStk.c",line 1781,column 6,is_stmt
    2213 0006fd 3C00          MOV #0, AC0 ; |1781| 
    2214 0006ff EB31          MOV AC0, dbl(*(#_pxCurrentTCB))
         000701 0800 
         000703 0004-
    2215                      .dwpsn  file "../FreeRTOS/Source/tasks_sysStk.c",line 1782,column 5,is_stmt
    2216 000705 4A05          B $C$L54  ; |1782| 
    2217                                                      ; branch occurs ; |1782| 
    2218 000707       $C$L53:    
    2219                      .dwpsn  file "../FreeRTOS/Source/tasks_sysStk.c",line 1785,column 6,is_stmt
TMS320C55x Assembler PC v4.4.1 Sun Sep 09 04:48:39 2018

Tools Copyright (c) 1996-2012 Texas Instruments Incorporated
tasks_sysStk.asm                                                     PAGE   50

    2220              $C$DW$186       .dwtag  DW_TAG_TI_branch
    2221                      .dwattr $C$DW$186, DW_AT_low_pc(0x00)
    2222                      .dwattr $C$DW$186, DW_AT_name("_vTaskSwitchContext")
    2223                      .dwattr $C$DW$186, DW_AT_TI_call
    2224 000707 0804          CALL #_vTaskSwitchContext ; |1785| 
         000709 FA   
    2225                                                      ; call occurs [#_vTaskSwitchContext] ; |1785| 
    2226                      .dwpsn  file "../FreeRTOS/Source/tasks_sysStk.c",line 1788,column 3,is_stmt
    2227 00070a 4A00          B $C$L54  ; |1788| 
    2228                                                      ; branch occurs ; |1788| 
    2229 00070c       $C$L54:    
    2230 00070c 4E05          AADD #5, SP
    2231                      .dwcfi  cfa_offset, 1
    2232              $C$DW$187       .dwtag  DW_TAG_TI_branch
    2233                      .dwattr $C$DW$187, DW_AT_low_pc(0x00)
    2234                      .dwattr $C$DW$187, DW_AT_TI_return
    2235 00070e 4804          RET
    2236                                                      ; return occurs
    2237                      .dwattr $C$DW$177, DW_AT_TI_end_file("../FreeRTOS/Source/tasks_sysStk.c")
    2238                      .dwattr $C$DW$177, DW_AT_TI_end_line(0x701)
    2239                      .dwattr $C$DW$177, DW_AT_TI_end_column(0x02)
    2240                      .dwendentry
    2241                      .dwendtag $C$DW$177
    2242              
    2243 000710               .sect   ".text"
    2244                      .align 4
    2245              
    2246              $C$DW$188       .dwtag  DW_TAG_subprogram, DW_AT_name("prvTaskIsTaskSuspended")
    2247                      .dwattr $C$DW$188, DW_AT_low_pc(_prvTaskIsTaskSuspended)
    2248                      .dwattr $C$DW$188, DW_AT_high_pc(0x00)
    2249                      .dwattr $C$DW$188, DW_AT_TI_symbol_name("_prvTaskIsTaskSuspended")
    2250                      .dwattr $C$DW$188, DW_AT_type(*$C$DW$T$46)
    2251                      .dwattr $C$DW$188, DW_AT_TI_begin_file("../FreeRTOS/Source/tasks_sysStk.c")
    2252                      .dwattr $C$DW$188, DW_AT_TI_begin_line(0x708)
    2253                      .dwattr $C$DW$188, DW_AT_TI_begin_column(0x14)
    2254                      .dwattr $C$DW$188, DW_AT_TI_max_frame_size(0x08)
    2255                      .dwpsn  file "../FreeRTOS/Source/tasks_sysStk.c",line 1801,column 2,is_stmt,address _prvTaskIsTaskSus
    2256              
    2257                      .dwfde $C$DW$CIE, _prvTaskIsTaskSuspended
    2258              $C$DW$189       .dwtag  DW_TAG_formal_parameter, DW_AT_name("xTask")
    2259                      .dwattr $C$DW$189, DW_AT_TI_symbol_name("_xTask")
    2260                      .dwattr $C$DW$189, DW_AT_type(*$C$DW$T$122)
    2261                      .dwattr $C$DW$189, DW_AT_location[DW_OP_reg17]
    2262              ;*******************************************************************************
    2263              ;* FUNCTION NAME: prvTaskIsTaskSuspended                                       *
    2264              ;*                                                                             *
    2265              ;*   Function Uses Regs : AC0,AC0,AC1,AC1,T0,AR0,XAR0,AR1,AR3,XAR3,SP,TC1,M40, *
    2266              ;*                        SATA,SATD,RDM,FRCT,SMUL                              *
    2267              ;*   Stack Frame        : Compact (No Frame Pointer, w/ debug)                 *
    2268              ;*   Total Frame Size   : 8 words                                              *
    2269              ;*                        (2 return address/alignment)                         *
    2270              ;*                        (6 local values)                                     *
    2271              ;*   Min System Stack   : 1 word                                               *
    2272              ;*******************************************************************************
    2273 000710       _prvTaskIsTaskSuspended:
TMS320C55x Assembler PC v4.4.1 Sun Sep 09 04:48:39 2018

Tools Copyright (c) 1996-2012 Texas Instruments Incorporated
tasks_sysStk.asm                                                     PAGE   51

    2274                      .dwcfi  cfa_offset, 1
    2275                      .dwcfi  save_reg_to_mem, 91, -1
    2276 000710 4EF9          AADD #-7, SP
    2277                      .dwcfi  cfa_offset, 8
    2278              $C$DW$190       .dwtag  DW_TAG_variable, DW_AT_name("xTask")
    2279                      .dwattr $C$DW$190, DW_AT_TI_symbol_name("_xTask")
    2280                      .dwattr $C$DW$190, DW_AT_type(*$C$DW$T$122)
    2281                      .dwattr $C$DW$190, DW_AT_location[DW_OP_bregx 0x24 0]
    2282              $C$DW$191       .dwtag  DW_TAG_variable, DW_AT_name("xReturn")
    2283                      .dwattr $C$DW$191, DW_AT_TI_symbol_name("_xReturn")
    2284                      .dwattr $C$DW$191, DW_AT_type(*$C$DW$T$46)
    2285                      .dwattr $C$DW$191, DW_AT_location[DW_OP_bregx 0x24 2]
    2286              $C$DW$192       .dwtag  DW_TAG_variable, DW_AT_name("pxTCB")
    2287                      .dwattr $C$DW$192, DW_AT_TI_symbol_name("_pxTCB")
    2288                      .dwattr $C$DW$192, DW_AT_type(*$C$DW$T$154)
    2289                      .dwattr $C$DW$192, DW_AT_location[DW_OP_bregx 0x24 4]
    2290 000712 EB00          MOV XAR0, dbl(*SP(#0))
         000714 85   
    2291                      .dwpsn  file "../FreeRTOS/Source/tasks_sysStk.c",line 1802,column 13,is_stmt
    2292 000715 E604          MOV #0, *SP(#2) ; |1802| 
         000717 00   
    2293                      .dwpsn  file "../FreeRTOS/Source/tasks_sysStk.c",line 1803,column 22,is_stmt
    2294 000718 ED00          MOV dbl(*SP(#0)), XAR3
         00071a BF   
    2295 00071b EB08          MOV XAR3, dbl(*SP(#4))
         00071d B5   
    2296                      .dwpsn  file "../FreeRTOS/Source/tasks_sysStk.c",line 1812,column 3,is_stmt
    2297 00071e EC31          AMOV #_xSuspendedTaskList, XAR3 ; |1812| 
         000720 BE00 
         000722 005C-
    2298 000724 90B0          MOV XAR3, AC0
    2299 000726 ED08          MOV dbl(*SP(#4)), XAR3
         000728 BF   
    2300 000729 ED6D          MOV dbl(*AR3(#12)), XAR3
         00072b BF00 
         00072d 0C   
    2301 00072e 90B1          MOV XAR3, AC1
    2302 000730 121C          CMPU AC1 != AC0, TC1 ; |1812| 
         000732 04   
    2303 000733 6264          BCC $C$L55,TC1 ; |1812| 
    2304                                                      ; branchcc occurs ; |1812| 
    2305 000735 3C19          MOV #1, AR1
    2306 000737 4A02          B $C$L56  ; |1812| 
    2307                                                      ; branch occurs ; |1812| 
    2308 000739       $C$L55:    
    2309 000739 3C09          MOV #0, AR1
    2310 00073b       $C$L56:    
    2311 00073b 0409          BCC $C$L61,AR1 == #0 ; |1812| 
         00073d 39   
    2312                                                      ; branchcc occurs ; |1812| 
    2313                      .dwpsn  file "../FreeRTOS/Source/tasks_sysStk.c",line 1815,column 4,is_stmt
    2314 00073e EC31          AMOV #_xPendingReadyList, XAR3 ; |1815| 
         000740 BE00 
         000742 0046-
    2315 000744 90B0          MOV XAR3, AC0
TMS320C55x Assembler PC v4.4.1 Sun Sep 09 04:48:39 2018

Tools Copyright (c) 1996-2012 Texas Instruments Incorporated
tasks_sysStk.asm                                                     PAGE   52

    2316 000746 ED08          MOV dbl(*SP(#4)), XAR3
         000748 BF   
    2317 000749 ED6D          MOV dbl(*AR3(#22)), XAR3
         00074b BF00 
         00074d 16   
    2318 00074e 90B1          MOV XAR3, AC1
    2319 000750 121C          CMPU AC1 != AC0, TC1 ; |1815| 
         000752 04   
    2320 000753 6264          BCC $C$L57,TC1 ; |1815| 
    2321                                                      ; branchcc occurs ; |1815| 
    2322 000755 3C19          MOV #1, AR1
    2323 000757 4A02          B $C$L58  ; |1815| 
    2324                                                      ; branch occurs ; |1815| 
    2325 000759       $C$L57:    
    2326 000759 3C09          MOV #0, AR1
    2327 00075b       $C$L58:    
    2328 00075b 0419          BCC $C$L61,AR1 != #0 ; |1815| 
         00075d 19   
    2329                                                      ; branchcc occurs ; |1815| 
    2330                      .dwpsn  file "../FreeRTOS/Source/tasks_sysStk.c",line 1819,column 5,is_stmt
    2331 00075e ED08          MOV dbl(*SP(#4)), XAR3
         000760 BF   
    2332 000761 ED6D          MOV dbl(*AR3(#22)), XAR3
         000763 BF00 
         000765 16   
    2333 000766 90B0          MOV XAR3, AC0
    2334 000768 6210          BCC $C$L59,AC0 != #0 ; |1819| 
    2335                                                      ; branchcc occurs ; |1819| 
    2336 00076a 3C19          MOV #1, AR1
    2337 00076c 4A02          B $C$L60  ; |1819| 
    2338                                                      ; branch occurs ; |1819| 
    2339 00076e       $C$L59:    
    2340 00076e 3C09          MOV #0, AR1
    2341 000770       $C$L60:    
    2342 000770 6289          BCC $C$L61,AR1 == #0 ; |1819| 
    2343                                                      ; branchcc occurs ; |1819| 
    2344                      .dwpsn  file "../FreeRTOS/Source/tasks_sysStk.c",line 1821,column 6,is_stmt
    2345 000772 E604          MOV #1, *SP(#2) ; |1821| 
         000774 01   
    2346                      .dwpsn  file "../FreeRTOS/Source/tasks_sysStk.c",line 1822,column 5,is_stmt
    2347 000775 4A00          B $C$L61  ; |1822| 
    2348                                                      ; branch occurs ; |1822| 
    2349 000777       $C$L61:    
    2350                      .dwpsn  file "../FreeRTOS/Source/tasks_sysStk.c",line 1838,column 3,is_stmt
    2351 000777 A404          MOV *SP(#2), T0 ; |1838| 
    2352                      .dwpsn  file "../FreeRTOS/Source/tasks_sysStk.c",line 1839,column 2,is_stmt
    2353 000779 4E07          AADD #7, SP
    2354                      .dwcfi  cfa_offset, 1
    2355              $C$DW$193       .dwtag  DW_TAG_TI_branch
    2356                      .dwattr $C$DW$193, DW_AT_low_pc(0x00)
    2357                      .dwattr $C$DW$193, DW_AT_TI_return
    2358 00077b 4804          RET
    2359                                                      ; return occurs
    2360                      .dwattr $C$DW$188, DW_AT_TI_end_file("../FreeRTOS/Source/tasks_sysStk.c")
    2361                      .dwattr $C$DW$188, DW_AT_TI_end_line(0x72f)
TMS320C55x Assembler PC v4.4.1 Sun Sep 09 04:48:39 2018

Tools Copyright (c) 1996-2012 Texas Instruments Incorporated
tasks_sysStk.asm                                                     PAGE   53

    2362                      .dwattr $C$DW$188, DW_AT_TI_end_column(0x02)
    2363                      .dwendentry
    2364                      .dwendtag $C$DW$188
    2365              
    2366 00077d               .sect   ".text"
    2367                      .align 4
    2368                      .global _vTaskResume
    2369              
    2370              $C$DW$194       .dwtag  DW_TAG_subprogram, DW_AT_name("vTaskResume")
    2371                      .dwattr $C$DW$194, DW_AT_low_pc(_vTaskResume)
    2372                      .dwattr $C$DW$194, DW_AT_high_pc(0x00)
    2373                      .dwattr $C$DW$194, DW_AT_TI_symbol_name("_vTaskResume")
    2374                      .dwattr $C$DW$194, DW_AT_external
    2375                      .dwattr $C$DW$194, DW_AT_TI_begin_file("../FreeRTOS/Source/tasks_sysStk.c")
    2376                      .dwattr $C$DW$194, DW_AT_TI_begin_line(0x736)
    2377                      .dwattr $C$DW$194, DW_AT_TI_begin_column(0x07)
    2378                      .dwattr $C$DW$194, DW_AT_TI_max_frame_size(0x06)
    2379                      .dwpsn  file "../FreeRTOS/Source/tasks_sysStk.c",line 1847,column 2,is_stmt,address _vTaskResume
    2380              
    2381                      .dwfde $C$DW$CIE, _vTaskResume
    2382              $C$DW$195       .dwtag  DW_TAG_formal_parameter, DW_AT_name("xTaskToResume")
    2383                      .dwattr $C$DW$195, DW_AT_TI_symbol_name("_xTaskToResume")
    2384                      .dwattr $C$DW$195, DW_AT_type(*$C$DW$T$78)
    2385                      .dwattr $C$DW$195, DW_AT_location[DW_OP_reg17]
    2386              ;*******************************************************************************
    2387              ;* FUNCTION NAME: vTaskResume                                                  *
    2388              ;*                                                                             *
    2389              ;*   Function Uses Regs : AC0,AC0,AC1,AC1,T0,AR0,XAR0,AR1,XAR1,AR2,AR3,XAR3,SP,*
    2390              ;*                        CARRY,TC1,M40,SATA,SATD,RDM,FRCT,SMUL                *
    2391              ;*   Stack Frame        : Compact (No Frame Pointer, w/ debug)                 *
    2392              ;*   Total Frame Size   : 6 words                                              *
    2393              ;*                        (2 return address/alignment)                         *
    2394              ;*                        (4 local values)                                     *
    2395              ;*   Min System Stack   : 1 word                                               *
    2396              ;*******************************************************************************
    2397 000780       _vTaskResume:
    2398                      .dwcfi  cfa_offset, 1
    2399                      .dwcfi  save_reg_to_mem, 91, -1
    2400 000780 4EFB          AADD #-5, SP
    2401                      .dwcfi  cfa_offset, 6
    2402              $C$DW$196       .dwtag  DW_TAG_variable, DW_AT_name("xTaskToResume")
    2403                      .dwattr $C$DW$196, DW_AT_TI_symbol_name("_xTaskToResume")
    2404                      .dwattr $C$DW$196, DW_AT_type(*$C$DW$T$78)
    2405                      .dwattr $C$DW$196, DW_AT_location[DW_OP_bregx 0x24 0]
    2406              $C$DW$197       .dwtag  DW_TAG_variable, DW_AT_name("pxTCB")
    2407                      .dwattr $C$DW$197, DW_AT_TI_symbol_name("_pxTCB")
    2408                      .dwattr $C$DW$197, DW_AT_type(*$C$DW$T$156)
    2409                      .dwattr $C$DW$197, DW_AT_location[DW_OP_bregx 0x24 2]
    2410 000782 EB00          MOV XAR0, dbl(*SP(#0))
         000784 85   
    2411                      .dwpsn  file "../FreeRTOS/Source/tasks_sysStk.c",line 1848,column 16,is_stmt
    2412 000785 ED00          MOV dbl(*SP(#0)), XAR3
         000787 BF   
    2413 000788 EB04          MOV XAR3, dbl(*SP(#2))
         00078a B5   
TMS320C55x Assembler PC v4.4.1 Sun Sep 09 04:48:39 2018

Tools Copyright (c) 1996-2012 Texas Instruments Incorporated
tasks_sysStk.asm                                                     PAGE   54

    2414                      .dwpsn  file "../FreeRTOS/Source/tasks_sysStk.c",line 1855,column 3,is_stmt
    2415 00078b ED31          MOV dbl(*(#_pxCurrentTCB)), XAR3
         00078d BF00 
         00078f 0004-
    2416 000791 90B0          MOV XAR3, AC0
    2417 000793 ED04          MOV dbl(*SP(#2)), XAR3
         000795 BF   
    2418 000796 90B1          MOV XAR3, AC1
    2419 000798 1210          CMPU AC1 == AC0, TC1 ; |1855| 
         00079a 04   
    2420 00079b 6D64          BCC $C$L64,TC1 ; |1855| 
         00079d 008F 
    2421                                                      ; branchcc occurs ; |1855| 
    2422 00079f 90B0          MOV XAR3, AC0
    2423 0007a1 6D00          BCC $C$L64,AC0 == #0 ; |1855| 
         0007a3 0089 
    2424                                                      ; branchcc occurs ; |1855| 
    2425                      .dwpsn  file "../FreeRTOS/Source/tasks_sysStk.c",line 1857,column 4,is_stmt
    2426 0007a5 20     nop
    2427 0007a6 46B3   bset INTM
    2428 0007a8 F731          ADD #1, *(#_usCriticalNesting) ; |1857| 
         0007aa 0001 
         0007ac 0000 
         0007ae 00!  
    2429                      .dwpsn  file "../FreeRTOS/Source/tasks_sysStk.c",line 1859,column 5,is_stmt
    2430              $C$DW$198       .dwtag  DW_TAG_TI_branch
    2431                      .dwattr $C$DW$198, DW_AT_low_pc(0x00)
    2432                      .dwattr $C$DW$198, DW_AT_name("_prvTaskIsTaskSuspended")
    2433                      .dwattr $C$DW$198, DW_AT_TI_call
    2434 0007af 08FF          CALL #_prvTaskIsTaskSuspended ; |1859| 
         0007b1 5E   
    2435                                                      ; call occurs [#_prvTaskIsTaskSuspended] ; |1859| 
    2436 0007b2 0404          BCC $C$L63,T0 == #0 ; |1859| 
         0007b4 5B   
    2437                                                      ; branchcc occurs ; |1859| 
    2438                      .dwpsn  file "../FreeRTOS/Source/tasks_sysStk.c",line 1865,column 6,is_stmt
    2439 0007b5 ED04          MOV dbl(*SP(#2)), XAR0
         0007b7 8F   
    2440 0007b8 1404          AADD #4, AR0 ; |1865| 
         0007ba 84   
    2441              $C$DW$199       .dwtag  DW_TAG_TI_branch
    2442                      .dwattr $C$DW$199, DW_AT_low_pc(0x00)
    2443                      .dwattr $C$DW$199, DW_AT_name("_uxListRemove")
    2444                      .dwattr $C$DW$199, DW_AT_TI_call
    2445 0007bb 6C00          CALL #_uxListRemove ; |1865| 
         0007bd 0000!
    2446                                                      ; call occurs [#_uxListRemove] ; |1865| 
    2447                      .dwpsn  file "../FreeRTOS/Source/tasks_sysStk.c",line 1866,column 6,is_stmt
    2448 0007bf ED04          MOV dbl(*SP(#2)), XAR3
         0007c1 BF   
    2449 0007c2 A931          MOV *(#_uxTopReadyPriority), AR1 ; |1866| 
         0007c4 0000 
         0007c6 67-  
    2450 0007c7 AA6D          MOV *AR3(#24), AR2 ; |1866| 
         0007c9 0018 
TMS320C55x Assembler PC v4.4.1 Sun Sep 09 04:48:39 2018

Tools Copyright (c) 1996-2012 Texas Instruments Incorporated
tasks_sysStk.asm                                                     PAGE   55

    2451 0007cb 1298          CMPU AR2 <= AR1, TC1 ; |1866| 
         0007cd A4   
    2452 0007ce 64E4          BCC $C$L62,TC1 ; |1866| 
    2453                                                      ; branchcc occurs ; |1866| 
    2454 0007d0 A96D          MOV *AR3(#24), AR1 ; |1866| 
         0007d2 0018 
    2455 0007d4 C931          MOV AR1, *(#_uxTopReadyPriority) ; |1866| 
         0007d6 0000 
         0007d8 67-  
    2456 0007d9       $C$L62:    
    2457 0007d9 F86D          MPYMK *AR3(#24), #10, AC0 ; |1866| 
         0007db 0A00 
         0007dd 0018 
    2458 0007df 2209          MOV AC0, AR1 ; |1866| 
    2459 0007e1 EC31          AMOV #_pxReadyTasksLists, XAR0 ; |1866| 
         0007e3 8E00 
         0007e5 0006-
    2460 0007e7 1490          AADD AR1, AR0 ; |1866| 
         0007e9 80   
    2461 0007ea ED04          MOV dbl(*SP(#2)), XAR1
         0007ec 9F   
    2462 0007ed 1404          AADD #4, AR1 ; |1866| 
         0007ef 94   
    2463              $C$DW$200       .dwtag  DW_TAG_TI_branch
    2464                      .dwattr $C$DW$200, DW_AT_low_pc(0x00)
    2465                      .dwattr $C$DW$200, DW_AT_name("_vListInsertEnd")
    2466                      .dwattr $C$DW$200, DW_AT_TI_call
    2467 0007f0 6C00          CALL #_vListInsertEnd ; |1866| 
         0007f2 0000!
    2468                                                      ; call occurs [#_vListInsertEnd] ; |1866| 
    2469                      .dwpsn  file "../FreeRTOS/Source/tasks_sysStk.c",line 1869,column 6,is_stmt
    2470 0007f4 ED31          MOV dbl(*(#_pxCurrentTCB)), XAR3
         0007f6 BF00 
         0007f8 0004-
    2471 0007fa A96D          MOV *AR3(#24), AR1 ; |1869| 
         0007fc 0018 
    2472 0007fe ED04          MOV dbl(*SP(#2)), XAR3
         000800 BF   
    2473 000801 AA6D          MOV *AR3(#24), AR2 ; |1869| 
         000803 0018 
    2474 000805 12A4          CMPU AR2 < AR1, TC1 ; |1869| 
         000807 94   
    2475 000808 6364          BCC $C$L63,TC1 ; |1869| 
    2476                                                      ; branchcc occurs ; |1869| 
    2477                      .dwpsn  file "../FreeRTOS/Source/tasks_sysStk.c",line 1874,column 7,is_stmt
    2478              $C$DW$201       .dwtag  DW_TAG_TI_branch
    2479                      .dwattr $C$DW$201, DW_AT_low_pc(0x00)
    2480                      .dwattr $C$DW$201, DW_AT_name("_vPortYield")
    2481                      .dwattr $C$DW$201, DW_AT_TI_call
    2482 00080a 6C00          CALL #_vPortYield ; |1874| 
         00080c 0000!
    2483                                                      ; call occurs [#_vPortYield] ; |1874| 
    2484                      .dwpsn  file "../FreeRTOS/Source/tasks_sysStk.c",line 1875,column 6,is_stmt
    2485 00080e 4A00          B $C$L63  ; |1875| 
    2486                                                      ; branch occurs ; |1875| 
TMS320C55x Assembler PC v4.4.1 Sun Sep 09 04:48:39 2018

Tools Copyright (c) 1996-2012 Texas Instruments Incorporated
tasks_sysStk.asm                                                     PAGE   56

    2487 000810       $C$L63:    
    2488                      .dwpsn  file "../FreeRTOS/Source/tasks_sysStk.c",line 1886,column 4,is_stmt
    2489 000810 A931          MOV *(#_usCriticalNesting), AR1 ; |1886| 
         000812 0000 
         000814 00!  
    2490 000815 0409          BCC $C$L64,AR1 == #0 ; |1886| 
         000817 16   
    2491                                                      ; branchcc occurs ; |1886| 
    2492 000818 F731          SUB #1, *(#_usCriticalNesting) ; |1886| 
         00081a FFFF 
         00081c 0000 
         00081e 00!  
    2493 00081f 20            NOP
    2494 000820 20            NOP
    2495 000821 20            NOP
    2496 000822 A931          MOV *(#_usCriticalNesting), AR1 ; |1886| 
         000824 0000 
         000826 00!  
    2497 000827 6299          BCC $C$L64,AR1 != #0 ; |1886| 
    2498                                                      ; branchcc occurs ; |1886| 
    2499 000829 20     nop
    2500 00082a 46B2   bclr INTM
    2501                      .dwpsn  file "../FreeRTOS/Source/tasks_sysStk.c",line 1887,column 3,is_stmt
    2502 00082c 4A00          B $C$L64  ; |1887| 
    2503                                                      ; branch occurs ; |1887| 
    2504 00082e       $C$L64:    
    2505 00082e 4E05          AADD #5, SP
    2506                      .dwcfi  cfa_offset, 1
    2507              $C$DW$202       .dwtag  DW_TAG_TI_branch
    2508                      .dwattr $C$DW$202, DW_AT_low_pc(0x00)
    2509                      .dwattr $C$DW$202, DW_AT_TI_return
    2510 000830 4804          RET
    2511                                                      ; return occurs
    2512                      .dwattr $C$DW$194, DW_AT_TI_end_file("../FreeRTOS/Source/tasks_sysStk.c")
    2513                      .dwattr $C$DW$194, DW_AT_TI_end_line(0x764)
    2514                      .dwattr $C$DW$194, DW_AT_TI_end_column(0x02)
    2515                      .dwendentry
    2516                      .dwendtag $C$DW$194
    2517              
    2518 000832               .sect   ".text"
    2519                      .align 4
    2520                      .global _xTaskResumeFromISR
    2521              
    2522              $C$DW$203       .dwtag  DW_TAG_subprogram, DW_AT_name("xTaskResumeFromISR")
    2523                      .dwattr $C$DW$203, DW_AT_low_pc(_xTaskResumeFromISR)
    2524                      .dwattr $C$DW$203, DW_AT_high_pc(0x00)
    2525                      .dwattr $C$DW$203, DW_AT_TI_symbol_name("_xTaskResumeFromISR")
    2526                      .dwattr $C$DW$203, DW_AT_external
    2527                      .dwattr $C$DW$203, DW_AT_type(*$C$DW$T$46)
    2528                      .dwattr $C$DW$203, DW_AT_TI_begin_file("../FreeRTOS/Source/tasks_sysStk.c")
    2529                      .dwattr $C$DW$203, DW_AT_TI_begin_line(0x76c)
    2530                      .dwattr $C$DW$203, DW_AT_TI_begin_column(0x0d)
    2531                      .dwattr $C$DW$203, DW_AT_TI_max_frame_size(0x08)
    2532                      .dwpsn  file "../FreeRTOS/Source/tasks_sysStk.c",line 1901,column 2,is_stmt,address _xTaskResumeFromI
    2533              
TMS320C55x Assembler PC v4.4.1 Sun Sep 09 04:48:39 2018

Tools Copyright (c) 1996-2012 Texas Instruments Incorporated
tasks_sysStk.asm                                                     PAGE   57

    2534                      .dwfde $C$DW$CIE, _xTaskResumeFromISR
    2535              $C$DW$204       .dwtag  DW_TAG_formal_parameter, DW_AT_name("xTaskToResume")
    2536                      .dwattr $C$DW$204, DW_AT_TI_symbol_name("_xTaskToResume")
    2537                      .dwattr $C$DW$204, DW_AT_type(*$C$DW$T$78)
    2538                      .dwattr $C$DW$204, DW_AT_location[DW_OP_reg17]
    2539              ;*******************************************************************************
    2540              ;* FUNCTION NAME: xTaskResumeFromISR                                           *
    2541              ;*                                                                             *
    2542              ;*   Function Uses Regs : AC0,T0,AR0,XAR0,AR1,XAR1,AR2,AR3,XAR3,SP,TC1,M40,    *
    2543              ;*                        SATA,SATD,RDM,FRCT,SMUL                              *
    2544              ;*   Stack Frame        : Compact (No Frame Pointer, w/ debug)                 *
    2545              ;*   Total Frame Size   : 8 words                                              *
    2546              ;*                        (1 return address/alignment)                         *
    2547              ;*                        (7 local values)                                     *
    2548              ;*   Min System Stack   : 1 word                                               *
    2549              ;*******************************************************************************
    2550 000834       _xTaskResumeFromISR:
    2551                      .dwcfi  cfa_offset, 1
    2552                      .dwcfi  save_reg_to_mem, 91, -1
    2553 000834 4EF9          AADD #-7, SP
    2554                      .dwcfi  cfa_offset, 8
    2555              $C$DW$205       .dwtag  DW_TAG_variable, DW_AT_name("xTaskToResume")
    2556                      .dwattr $C$DW$205, DW_AT_TI_symbol_name("_xTaskToResume")
    2557                      .dwattr $C$DW$205, DW_AT_type(*$C$DW$T$78)
    2558                      .dwattr $C$DW$205, DW_AT_location[DW_OP_bregx 0x24 0]
    2559              $C$DW$206       .dwtag  DW_TAG_variable, DW_AT_name("xYieldRequired")
    2560                      .dwattr $C$DW$206, DW_AT_TI_symbol_name("_xYieldRequired")
    2561                      .dwattr $C$DW$206, DW_AT_type(*$C$DW$T$46)
    2562                      .dwattr $C$DW$206, DW_AT_location[DW_OP_bregx 0x24 2]
    2563              $C$DW$207       .dwtag  DW_TAG_variable, DW_AT_name("pxTCB")
    2564                      .dwattr $C$DW$207, DW_AT_TI_symbol_name("_pxTCB")
    2565                      .dwattr $C$DW$207, DW_AT_type(*$C$DW$T$156)
    2566                      .dwattr $C$DW$207, DW_AT_location[DW_OP_bregx 0x24 4]
    2567              $C$DW$208       .dwtag  DW_TAG_variable, DW_AT_name("uxSavedInterruptStatus")
    2568                      .dwattr $C$DW$208, DW_AT_TI_symbol_name("_uxSavedInterruptStatus")
    2569                      .dwattr $C$DW$208, DW_AT_type(*$C$DW$T$27)
    2570                      .dwattr $C$DW$208, DW_AT_location[DW_OP_bregx 0x24 6]
    2571 000836 EB00          MOV XAR0, dbl(*SP(#0))
         000838 85   
    2572                      .dwpsn  file "../FreeRTOS/Source/tasks_sysStk.c",line 1902,column 13,is_stmt
    2573 000839 E604          MOV #0, *SP(#2) ; |1902| 
         00083b 00   
    2574                      .dwpsn  file "../FreeRTOS/Source/tasks_sysStk.c",line 1903,column 16,is_stmt
    2575 00083c ED00          MOV dbl(*SP(#0)), XAR3
         00083e BF   
    2576 00083f EB08          MOV XAR3, dbl(*SP(#4))
         000841 B5   
    2577                      .dwpsn  file "../FreeRTOS/Source/tasks_sysStk.c",line 1926,column 3,is_stmt
    2578 000842 E60C          MOV #0, *SP(#6) ; |1926| 
         000844 00   
    2579                      .dwpsn  file "../FreeRTOS/Source/tasks_sysStk.c",line 1928,column 4,is_stmt
    2580 000845 ED08          MOV dbl(*SP(#4)), XAR0
         000847 8F   
    2581              $C$DW$209       .dwtag  DW_TAG_TI_branch
    2582                      .dwattr $C$DW$209, DW_AT_low_pc(0x00)
TMS320C55x Assembler PC v4.4.1 Sun Sep 09 04:48:39 2018

Tools Copyright (c) 1996-2012 Texas Instruments Incorporated
tasks_sysStk.asm                                                     PAGE   58

    2583                      .dwattr $C$DW$209, DW_AT_name("_prvTaskIsTaskSuspended")
    2584                      .dwattr $C$DW$209, DW_AT_TI_call
    2585 000848 08FE          CALL #_prvTaskIsTaskSuspended ; |1928| 
         00084a C5   
    2586                                                      ; call occurs [#_prvTaskIsTaskSuspended] ; |1928| 
    2587 00084b 0404          BCC $C$L68,T0 == #0 ; |1928| 
         00084d 72   
    2588                                                      ; branchcc occurs ; |1928| 
    2589                      .dwpsn  file "../FreeRTOS/Source/tasks_sysStk.c",line 1933,column 5,is_stmt
    2590 00084e A931          MOV *(#_uxSchedulerSuspended), AR1 ; |1933| 
         000850 0000 
         000852 70-  
    2591 000853 0419          BCC $C$L67,AR1 != #0 ; |1933| 
         000855 5A   
    2592                                                      ; branchcc occurs ; |1933| 
    2593                      .dwpsn  file "../FreeRTOS/Source/tasks_sysStk.c",line 1937,column 6,is_stmt
    2594 000856 ED31          MOV dbl(*(#_pxCurrentTCB)), XAR3
         000858 BF00 
         00085a 0004-
    2595 00085c A96D          MOV *AR3(#24), AR1 ; |1937| 
         00085e 0018 
    2596 000860 ED08          MOV dbl(*SP(#4)), XAR3
         000862 BF   
    2597 000863 AA6D          MOV *AR3(#24), AR2 ; |1937| 
         000865 0018 
    2598 000867 12A4          CMPU AR2 < AR1, TC1 ; |1937| 
         000869 94   
    2599 00086a 61E4          BCC $C$L65,TC1 ; |1937| 
    2600                                                      ; branchcc occurs ; |1937| 
    2601                      .dwpsn  file "../FreeRTOS/Source/tasks_sysStk.c",line 1939,column 7,is_stmt
    2602 00086c E604          MOV #1, *SP(#2) ; |1939| 
         00086e 01   
    2603                      .dwpsn  file "../FreeRTOS/Source/tasks_sysStk.c",line 1940,column 6,is_stmt
    2604 00086f       $C$L65:    
    2605                      .dwpsn  file "../FreeRTOS/Source/tasks_sysStk.c",line 1946,column 6,is_stmt
    2606 00086f ED08          MOV dbl(*SP(#4)), XAR0
         000871 8F   
    2607 000872 1404          AADD #4, AR0 ; |1946| 
         000874 84   
    2608              $C$DW$210       .dwtag  DW_TAG_TI_branch
    2609                      .dwattr $C$DW$210, DW_AT_low_pc(0x00)
    2610                      .dwattr $C$DW$210, DW_AT_name("_uxListRemove")
    2611                      .dwattr $C$DW$210, DW_AT_TI_call
    2612 000875 6C00          CALL #_uxListRemove ; |1946| 
         000877 0000!
    2613                                                      ; call occurs [#_uxListRemove] ; |1946| 
    2614                      .dwpsn  file "../FreeRTOS/Source/tasks_sysStk.c",line 1947,column 6,is_stmt
    2615 000879 ED08          MOV dbl(*SP(#4)), XAR3
         00087b BF   
    2616 00087c A931          MOV *(#_uxTopReadyPriority), AR1 ; |1947| 
         00087e 0000 
         000880 67-  
    2617 000881 AA6D          MOV *AR3(#24), AR2 ; |1947| 
         000883 0018 
    2618 000885 1298          CMPU AR2 <= AR1, TC1 ; |1947| 
TMS320C55x Assembler PC v4.4.1 Sun Sep 09 04:48:39 2018

Tools Copyright (c) 1996-2012 Texas Instruments Incorporated
tasks_sysStk.asm                                                     PAGE   59

         000887 A4   
    2619 000888 64E4          BCC $C$L66,TC1 ; |1947| 
    2620                                                      ; branchcc occurs ; |1947| 
    2621 00088a A96D          MOV *AR3(#24), AR1 ; |1947| 
         00088c 0018 
    2622 00088e C931          MOV AR1, *(#_uxTopReadyPriority) ; |1947| 
         000890 0000 
         000892 67-  
    2623 000893       $C$L66:    
    2624 000893 F86D          MPYMK *AR3(#24), #10, AC0 ; |1947| 
         000895 0A00 
         000897 0018 
    2625 000899 2209          MOV AC0, AR1 ; |1947| 
    2626 00089b EC31          AMOV #_pxReadyTasksLists, XAR0 ; |1947| 
         00089d 8E00 
         00089f 0006-
    2627 0008a1 1490          AADD AR1, AR0 ; |1947| 
         0008a3 80   
    2628 0008a4 ED08          MOV dbl(*SP(#4)), XAR1
         0008a6 9F   
    2629 0008a7 1404          AADD #4, AR1 ; |1947| 
         0008a9 94   
    2630              $C$DW$211       .dwtag  DW_TAG_TI_branch
    2631                      .dwattr $C$DW$211, DW_AT_low_pc(0x00)
    2632                      .dwattr $C$DW$211, DW_AT_name("_vListInsertEnd")
    2633                      .dwattr $C$DW$211, DW_AT_TI_call
    2634 0008aa 6C00          CALL #_vListInsertEnd ; |1947| 
         0008ac 0000!
    2635                                                      ; call occurs [#_vListInsertEnd] ; |1947| 
    2636                      .dwpsn  file "../FreeRTOS/Source/tasks_sysStk.c",line 1948,column 5,is_stmt
    2637 0008ae 4A10          B $C$L68  ; |1948| 
    2638                                                      ; branch occurs ; |1948| 
    2639 0008b0       $C$L67:    
    2640                      .dwpsn  file "../FreeRTOS/Source/tasks_sysStk.c",line 1954,column 6,is_stmt
    2641 0008b0 ED08          MOV dbl(*SP(#4)), XAR1
         0008b2 9F   
    2642 0008b3 EC31          AMOV #_xPendingReadyList, XAR0 ; |1954| 
         0008b5 8E00 
         0008b7 0046-
    2643 0008b9 140E          AADD #14, AR1 ; |1954| 
         0008bb 94   
    2644              $C$DW$212       .dwtag  DW_TAG_TI_branch
    2645                      .dwattr $C$DW$212, DW_AT_low_pc(0x00)
    2646                      .dwattr $C$DW$212, DW_AT_name("_vListInsertEnd")
    2647                      .dwattr $C$DW$212, DW_AT_TI_call
    2648 0008bc 6C00          CALL #_vListInsertEnd ; |1954| 
         0008be 0000!
    2649                                                      ; call occurs [#_vListInsertEnd] ; |1954| 
    2650                      .dwpsn  file "../FreeRTOS/Source/tasks_sysStk.c",line 1956,column 4,is_stmt
    2651 0008c0       $C$L68:    
    2652                      .dwpsn  file "../FreeRTOS/Source/tasks_sysStk.c",line 1962,column 3,is_stmt
    2653                      .dwpsn  file "../FreeRTOS/Source/tasks_sysStk.c",line 1964,column 3,is_stmt
    2654 0008c0 A404          MOV *SP(#2), T0 ; |1964| 
    2655                      .dwpsn  file "../FreeRTOS/Source/tasks_sysStk.c",line 1965,column 2,is_stmt
    2656 0008c2 4E07          AADD #7, SP
TMS320C55x Assembler PC v4.4.1 Sun Sep 09 04:48:39 2018

Tools Copyright (c) 1996-2012 Texas Instruments Incorporated
tasks_sysStk.asm                                                     PAGE   60

    2657                      .dwcfi  cfa_offset, 1
    2658              $C$DW$213       .dwtag  DW_TAG_TI_branch
    2659                      .dwattr $C$DW$213, DW_AT_low_pc(0x00)
    2660                      .dwattr $C$DW$213, DW_AT_TI_return
    2661 0008c4 4804          RET
    2662                                                      ; return occurs
    2663                      .dwattr $C$DW$203, DW_AT_TI_end_file("../FreeRTOS/Source/tasks_sysStk.c")
    2664                      .dwattr $C$DW$203, DW_AT_TI_end_line(0x7ad)
    2665                      .dwattr $C$DW$203, DW_AT_TI_end_column(0x02)
    2666                      .dwendentry
    2667                      .dwendtag $C$DW$203
    2668              
    2669 0008c6               .sect   ".text"
    2670                      .align 4
    2671                      .global _vTaskStartScheduler
    2672              
    2673              $C$DW$214       .dwtag  DW_TAG_subprogram, DW_AT_name("vTaskStartScheduler")
    2674                      .dwattr $C$DW$214, DW_AT_low_pc(_vTaskStartScheduler)
    2675                      .dwattr $C$DW$214, DW_AT_high_pc(0x00)
    2676                      .dwattr $C$DW$214, DW_AT_TI_symbol_name("_vTaskStartScheduler")
    2677                      .dwattr $C$DW$214, DW_AT_external
    2678                      .dwattr $C$DW$214, DW_AT_TI_begin_file("../FreeRTOS/Source/tasks_sysStk.c")
    2679                      .dwattr $C$DW$214, DW_AT_TI_begin_line(0x7b2)
    2680                      .dwattr $C$DW$214, DW_AT_TI_begin_column(0x06)
    2681                      .dwattr $C$DW$214, DW_AT_TI_max_frame_size(0x02)
    2682                      .dwpsn  file "../FreeRTOS/Source/tasks_sysStk.c",line 1971,column 1,is_stmt,address _vTaskStartSchedu
    2683              
    2684                      .dwfde $C$DW$CIE, _vTaskStartScheduler
    2685              ;*******************************************************************************
    2686              ;* FUNCTION NAME: vTaskStartScheduler                                          *
    2687              ;*                                                                             *
    2688              ;*   Function Uses Regs : AC0,AC0,T0,T1,AR0,XAR0,AR1,XAR1,AR2,XAR2,SP,TC1,M40, *
    2689              ;*                        SATA,SATD,RDM,FRCT,SMUL                              *
    2690              ;*   Stack Frame        : Compact (No Frame Pointer, w/ debug)                 *
    2691              ;*   Total Frame Size   : 2 words                                              *
    2692              ;*                        (1 return address/alignment)                         *
    2693              ;*                        (1 local values)                                     *
    2694              ;*   Min System Stack   : 1 word                                               *
    2695              ;*******************************************************************************
    2696 0008c8       _vTaskStartScheduler:
    2697                      .dwcfi  cfa_offset, 1
    2698                      .dwcfi  save_reg_to_mem, 91, -1
    2699 0008c8 4EFF          AADD #-1, SP
    2700                      .dwcfi  cfa_offset, 2
    2701              $C$DW$215       .dwtag  DW_TAG_variable, DW_AT_name("xReturn")
    2702                      .dwattr $C$DW$215, DW_AT_TI_symbol_name("_xReturn")
    2703                      .dwattr $C$DW$215, DW_AT_type(*$C$DW$T$46)
    2704                      .dwattr $C$DW$215, DW_AT_location[DW_OP_bregx 0x24 0]
    2705                      .dwpsn  file "../FreeRTOS/Source/tasks_sysStk.c",line 2004,column 3,is_stmt
    2706 0008ca 7A00          MOV #(_prvIdleTask >> 16) << #16, AC0 ; |2004| 
         0008cc 000A%
    2707 0008ce EC31          AMOV #_xIdleTaskHandle, XAR2 ; |2004| 
         0008d0 AE00 
         0008d2 006E-
    2708 0008d4 EC31          AMOV #0, XAR1 ; |2004| 
TMS320C55x Assembler PC v4.4.1 Sun Sep 09 04:48:39 2018

Tools Copyright (c) 1996-2012 Texas Instruments Incorporated
tasks_sysStk.asm                                                     PAGE   61

         0008d6 9E00 
         0008d8 0000 
    2709 0008da EC31          AMOV #$C$FSL1, XAR0 ; |2004| 
         0008dc 8E00 
         0008de 0000+
    2710 0008e0 7600          MOV #128, T0 ; |2004| 
         0008e2 8048 
    2711 0008e4 7E00          OR #(_prvIdleTask & 0xffff), AC0, AC0 ; |2004| 
         0008e6 0000%
    2712              $C$DW$216       .dwtag  DW_TAG_TI_branch
    2713                      .dwattr $C$DW$216, DW_AT_low_pc(0x00)
    2714                      .dwattr $C$DW$216, DW_AT_name("_xTaskCreate")
    2715                      .dwattr $C$DW$216, DW_AT_TI_call
    2716              
    2717 0008e8 08F7          CALL #_xTaskCreate ; |2004| 
         0008ea 13   
    2718 0008eb 3D05  ||      MOV #0, T1
    2719              
    2720                                                      ; call occurs [#_xTaskCreate] ; |2004| 
    2721 0008ed C400          MOV T0, *SP(#0) ; |2004| 
    2722                      .dwpsn  file "../FreeRTOS/Source/tasks_sysStk.c",line 2026,column 2,is_stmt
    2723 0008ef F000          CMP *SP(#0) == #1, TC1 ; |2026| 
         0008f1 0001 
    2724 0008f3 0474          BCC $C$L69,!TC1 ; |2026| 
         0008f5 1E   
    2725                                                      ; branchcc occurs ; |2026| 
    2726                      .dwpsn  file "../FreeRTOS/Source/tasks_sysStk.c",line 2042,column 3,is_stmt
    2727 0008f6 20     nop
    2728 0008f7 46B3   bset INTM
    2729                      .dwpsn  file "../FreeRTOS/Source/tasks_sysStk.c",line 2052,column 3,is_stmt
    2730 0008f9 FB31          MOV #65535, *(#_xNextTaskUnblockTime) ; |2052| 
         0008fb FFFF 
         0008fd 0000 
         0008ff 6D-  
    2731                      .dwpsn  file "../FreeRTOS/Source/tasks_sysStk.c",line 2053,column 3,is_stmt
    2732 000900 E631          MOV #1, *(#_xSchedulerRunning) ; |2053| 
         000902 0100 
         000904 0068-
    2733                      .dwpsn  file "../FreeRTOS/Source/tasks_sysStk.c",line 2054,column 3,is_stmt
    2734 000906 E631          MOV #0, *(#_xTickCount) ; |2054| 
         000908 0000 
         00090a 0066-
    2735                      .dwpsn  file "../FreeRTOS/Source/tasks_sysStk.c",line 2068,column 3,is_stmt
    2736              $C$DW$217       .dwtag  DW_TAG_TI_branch
    2737                      .dwattr $C$DW$217, DW_AT_low_pc(0x00)
    2738                      .dwattr $C$DW$217, DW_AT_name("_xPortStartScheduler")
    2739                      .dwattr $C$DW$217, DW_AT_TI_call
    2740 00090c 6C00          CALL #_xPortStartScheduler ; |2068| 
         00090e 0000!
    2741                                                      ; call occurs [#_xPortStartScheduler] ; |2068| 
    2742 000910 6114          BCC $C$L69,T0 != #0 ; |2068| 
    2743                                                      ; branchcc occurs ; |2068| 
    2744                      .dwpsn  file "../FreeRTOS/Source/tasks_sysStk.c",line 2072,column 3,is_stmt
    2745                      .dwpsn  file "../FreeRTOS/Source/tasks_sysStk.c",line 2077,column 2,is_stmt
    2746 000912 4A00          B $C$L69  ; |2077| 
TMS320C55x Assembler PC v4.4.1 Sun Sep 09 04:48:39 2018

Tools Copyright (c) 1996-2012 Texas Instruments Incorporated
tasks_sysStk.asm                                                     PAGE   62

    2747                                                      ; branch occurs ; |2077| 
    2748 000914       $C$L69:    
    2749 000914 4E01          AADD #1, SP
    2750                      .dwcfi  cfa_offset, 1
    2751              $C$DW$218       .dwtag  DW_TAG_TI_branch
    2752                      .dwattr $C$DW$218, DW_AT_low_pc(0x00)
    2753                      .dwattr $C$DW$218, DW_AT_TI_return
    2754 000916 4804          RET
    2755                                                      ; return occurs
    2756                      .dwattr $C$DW$214, DW_AT_TI_end_file("../FreeRTOS/Source/tasks_sysStk.c")
    2757                      .dwattr $C$DW$214, DW_AT_TI_end_line(0x829)
    2758                      .dwattr $C$DW$214, DW_AT_TI_end_column(0x01)
    2759                      .dwendentry
    2760                      .dwendtag $C$DW$214
    2761              
    2762 000918               .sect   ".text"
    2763                      .align 4
    2764                      .global _vTaskEndScheduler
    2765              
    2766              $C$DW$219       .dwtag  DW_TAG_subprogram, DW_AT_name("vTaskEndScheduler")
    2767                      .dwattr $C$DW$219, DW_AT_low_pc(_vTaskEndScheduler)
    2768                      .dwattr $C$DW$219, DW_AT_high_pc(0x00)
    2769                      .dwattr $C$DW$219, DW_AT_TI_symbol_name("_vTaskEndScheduler")
    2770                      .dwattr $C$DW$219, DW_AT_external
    2771                      .dwattr $C$DW$219, DW_AT_TI_begin_file("../FreeRTOS/Source/tasks_sysStk.c")
    2772                      .dwattr $C$DW$219, DW_AT_TI_begin_line(0x82c)
    2773                      .dwattr $C$DW$219, DW_AT_TI_begin_column(0x06)
    2774                      .dwattr $C$DW$219, DW_AT_TI_max_frame_size(0x02)
    2775                      .dwpsn  file "../FreeRTOS/Source/tasks_sysStk.c",line 2093,column 1,is_stmt,address _vTaskEndSchedule
    2776              
    2777                      .dwfde $C$DW$CIE, _vTaskEndScheduler
    2778              ;*******************************************************************************
    2779              ;* FUNCTION NAME: vTaskEndScheduler                                            *
    2780              ;*                                                                             *
    2781              ;*   Function Uses Regs : SP,M40,SATA,SATD,RDM,FRCT,SMUL                       *
    2782              ;*   Stack Frame        : Compact (No Frame Pointer, w/ debug)                 *
    2783              ;*   Total Frame Size   : 2 words                                              *
    2784              ;*                        (2 return address/alignment)                         *
    2785              ;*   Min System Stack   : 1 word                                               *
    2786              ;*******************************************************************************
    2787 000918       _vTaskEndScheduler:
    2788                      .dwcfi  cfa_offset, 1
    2789                      .dwcfi  save_reg_to_mem, 91, -1
    2790 000918 4EFF          AADD #-1, SP
    2791                      .dwcfi  cfa_offset, 2
    2792                      .dwpsn  file "../FreeRTOS/Source/tasks_sysStk.c",line 2097,column 2,is_stmt
    2793 00091a 20     nop
    2794 00091b 46B3   bset INTM
    2795                      .dwpsn  file "../FreeRTOS/Source/tasks_sysStk.c",line 2098,column 2,is_stmt
    2796 00091d E631          MOV #0, *(#_xSchedulerRunning) ; |2098| 
         00091f 0000 
         000921 0068-
    2797                      .dwpsn  file "../FreeRTOS/Source/tasks_sysStk.c",line 2099,column 2,is_stmt
    2798              $C$DW$220       .dwtag  DW_TAG_TI_branch
    2799                      .dwattr $C$DW$220, DW_AT_low_pc(0x00)
TMS320C55x Assembler PC v4.4.1 Sun Sep 09 04:48:39 2018

Tools Copyright (c) 1996-2012 Texas Instruments Incorporated
tasks_sysStk.asm                                                     PAGE   63

    2800                      .dwattr $C$DW$220, DW_AT_name("_vPortEndScheduler")
    2801                      .dwattr $C$DW$220, DW_AT_TI_call
    2802 000923 6C00          CALL #_vPortEndScheduler ; |2099| 
         000925 0000!
    2803                                                      ; call occurs [#_vPortEndScheduler] ; |2099| 
    2804                      .dwpsn  file "../FreeRTOS/Source/tasks_sysStk.c",line 2100,column 1,is_stmt
    2805 000927 4E01          AADD #1, SP
    2806                      .dwcfi  cfa_offset, 1
    2807              $C$DW$221       .dwtag  DW_TAG_TI_branch
    2808                      .dwattr $C$DW$221, DW_AT_low_pc(0x00)
    2809                      .dwattr $C$DW$221, DW_AT_TI_return
    2810 000929 4804          RET
    2811                                                      ; return occurs
    2812                      .dwattr $C$DW$219, DW_AT_TI_end_file("../FreeRTOS/Source/tasks_sysStk.c")
    2813                      .dwattr $C$DW$219, DW_AT_TI_end_line(0x834)
    2814                      .dwattr $C$DW$219, DW_AT_TI_end_column(0x01)
    2815                      .dwendentry
    2816                      .dwendtag $C$DW$219
    2817              
    2818 00092b               .sect   ".text"
    2819                      .align 4
    2820                      .global _vTaskSuspendAll
    2821              
    2822              $C$DW$222       .dwtag  DW_TAG_subprogram, DW_AT_name("vTaskSuspendAll")
    2823                      .dwattr $C$DW$222, DW_AT_low_pc(_vTaskSuspendAll)
    2824                      .dwattr $C$DW$222, DW_AT_high_pc(0x00)
    2825                      .dwattr $C$DW$222, DW_AT_TI_symbol_name("_vTaskSuspendAll")
    2826                      .dwattr $C$DW$222, DW_AT_external
    2827                      .dwattr $C$DW$222, DW_AT_TI_begin_file("../FreeRTOS/Source/tasks_sysStk.c")
    2828                      .dwattr $C$DW$222, DW_AT_TI_begin_line(0x837)
    2829                      .dwattr $C$DW$222, DW_AT_TI_begin_column(0x06)
    2830                      .dwattr $C$DW$222, DW_AT_TI_max_frame_size(0x01)
    2831                      .dwpsn  file "../FreeRTOS/Source/tasks_sysStk.c",line 2104,column 1,is_stmt,address _vTaskSuspendAll
    2832              
    2833                      .dwfde $C$DW$CIE, _vTaskSuspendAll
    2834              ;*******************************************************************************
    2835              ;* FUNCTION NAME: vTaskSuspendAll                                              *
    2836              ;*                                                                             *
    2837              ;*   Function Uses Regs : SP,CARRY,M40,SATA,SATD,RDM,FRCT,SMUL                 *
    2838              ;*   Stack Frame        : Compact (No Frame Pointer, w/ debug)                 *
    2839              ;*   Total Frame Size   : 1 word                                               *
    2840              ;*                        (1 return address/alignment)                         *
    2841              ;*   Min System Stack   : 1 word                                               *
    2842              ;*******************************************************************************
    2843 00092c       _vTaskSuspendAll:
    2844                      .dwcfi  cfa_offset, 1
    2845                      .dwcfi  save_reg_to_mem, 91, -1
    2846                      .dwpsn  file "../FreeRTOS/Source/tasks_sysStk.c",line 2109,column 2,is_stmt
    2847 00092c F731          ADD #1, *(#_uxSchedulerSuspended) ; |2109| 
         00092e 0001 
         000930 0000 
         000932 70-  
    2848                      .dwpsn  file "../FreeRTOS/Source/tasks_sysStk.c",line 2110,column 1,is_stmt
    2849              $C$DW$223       .dwtag  DW_TAG_TI_branch
    2850                      .dwattr $C$DW$223, DW_AT_low_pc(0x00)
TMS320C55x Assembler PC v4.4.1 Sun Sep 09 04:48:39 2018

Tools Copyright (c) 1996-2012 Texas Instruments Incorporated
tasks_sysStk.asm                                                     PAGE   64

    2851                      .dwattr $C$DW$223, DW_AT_TI_return
    2852 000933 4804          RET
    2853                                                      ; return occurs
    2854                      .dwattr $C$DW$222, DW_AT_TI_end_file("../FreeRTOS/Source/tasks_sysStk.c")
    2855                      .dwattr $C$DW$222, DW_AT_TI_end_line(0x83e)
    2856                      .dwattr $C$DW$222, DW_AT_TI_end_column(0x01)
    2857                      .dwendentry
    2858                      .dwendtag $C$DW$222
    2859              
    2860 000935               .sect   ".text"
    2861                      .align 4
    2862                      .global _xTaskResumeAll
    2863              
    2864              $C$DW$224       .dwtag  DW_TAG_subprogram, DW_AT_name("xTaskResumeAll")
    2865                      .dwattr $C$DW$224, DW_AT_low_pc(_xTaskResumeAll)
    2866                      .dwattr $C$DW$224, DW_AT_high_pc(0x00)
    2867                      .dwattr $C$DW$224, DW_AT_TI_symbol_name("_xTaskResumeAll")
    2868                      .dwattr $C$DW$224, DW_AT_external
    2869                      .dwattr $C$DW$224, DW_AT_type(*$C$DW$T$46)
    2870                      .dwattr $C$DW$224, DW_AT_TI_begin_file("../FreeRTOS/Source/tasks_sysStk.c")
    2871                      .dwattr $C$DW$224, DW_AT_TI_begin_line(0x880)
    2872                      .dwattr $C$DW$224, DW_AT_TI_begin_column(0x0c)
    2873                      .dwattr $C$DW$224, DW_AT_TI_max_frame_size(0x06)
    2874                      .dwpsn  file "../FreeRTOS/Source/tasks_sysStk.c",line 2177,column 1,is_stmt,address _xTaskResumeAll
    2875              
    2876                      .dwfde $C$DW$CIE, _xTaskResumeAll
    2877              ;*******************************************************************************
    2878              ;* FUNCTION NAME: xTaskResumeAll                                               *
    2879              ;*                                                                             *
    2880              ;*   Function Uses Regs : AC0,AC0,T0,AR0,XAR0,AR1,XAR1,AR2,AR3,XAR3,SP,CARRY,  *
    2881              ;*                        TC1,M40,SATA,SATD,RDM,FRCT,SMUL                      *
    2882              ;*   Stack Frame        : Compact (No Frame Pointer, w/ debug)                 *
    2883              ;*   Total Frame Size   : 6 words                                              *
    2884              ;*                        (2 return address/alignment)                         *
    2885              ;*                        (4 local values)                                     *
    2886              ;*   Min System Stack   : 1 word                                               *
    2887              ;*******************************************************************************
    2888 000938       _xTaskResumeAll:
    2889                      .dwcfi  cfa_offset, 1
    2890                      .dwcfi  save_reg_to_mem, 91, -1
    2891 000938 4EFB          AADD #-5, SP
    2892                      .dwcfi  cfa_offset, 6
    2893              $C$DW$225       .dwtag  DW_TAG_variable, DW_AT_name("pxTCB")
    2894                      .dwattr $C$DW$225, DW_AT_TI_symbol_name("_pxTCB")
    2895                      .dwattr $C$DW$225, DW_AT_type(*$C$DW$T$83)
    2896                      .dwattr $C$DW$225, DW_AT_location[DW_OP_bregx 0x24 0]
    2897              $C$DW$226       .dwtag  DW_TAG_variable, DW_AT_name("xAlreadyYielded")
    2898                      .dwattr $C$DW$226, DW_AT_TI_symbol_name("_xAlreadyYielded")
    2899                      .dwattr $C$DW$226, DW_AT_type(*$C$DW$T$46)
    2900                      .dwattr $C$DW$226, DW_AT_location[DW_OP_bregx 0x24 2]
    2901                      .dwpsn  file "../FreeRTOS/Source/tasks_sysStk.c",line 2178,column 8,is_stmt
    2902 00093a 3C00          MOV #0, AC0 ; |2178| 
    2903 00093c EB00          MOV AC0, dbl(*SP(#0))
         00093e 08   
    2904                      .dwpsn  file "../FreeRTOS/Source/tasks_sysStk.c",line 2179,column 12,is_stmt
TMS320C55x Assembler PC v4.4.1 Sun Sep 09 04:48:39 2018

Tools Copyright (c) 1996-2012 Texas Instruments Incorporated
tasks_sysStk.asm                                                     PAGE   65

    2905 00093f E604          MOV #0, *SP(#2) ; |2179| 
         000941 00   
    2906                      .dwpsn  file "../FreeRTOS/Source/tasks_sysStk.c",line 2190,column 2,is_stmt
    2907 000942 20     nop
    2908 000943 46B3   bset INTM
    2909 000945 F731          ADD #1, *(#_usCriticalNesting) ; |2190| 
         000947 0001 
         000949 0000 
         00094b 00!  
    2910                      .dwpsn  file "../FreeRTOS/Source/tasks_sysStk.c",line 2192,column 3,is_stmt
    2911 00094c F731          SUB #1, *(#_uxSchedulerSuspended) ; |2192| 
         00094e FFFF 
         000950 0000 
         000952 70-  
    2912 000953 20            NOP
    2913 000954 20            NOP
    2914 000955 20            NOP
    2915                      .dwpsn  file "../FreeRTOS/Source/tasks_sysStk.c",line 2194,column 3,is_stmt
    2916 000956 A931          MOV *(#_uxSchedulerSuspended), AR1 ; |2194| 
         000958 0000 
         00095a 70-  
    2917 00095b 6D19          BCC $C$L79,AR1 != #0 ; |2194| 
         00095d 00CC 
    2918                                                      ; branchcc occurs ; |2194| 
    2919                      .dwpsn  file "../FreeRTOS/Source/tasks_sysStk.c",line 2196,column 4,is_stmt
    2920 00095f A931          MOV *(#_uxCurrentNumberOfTasks), AR1 ; |2196| 
         000961 0000 
         000963 5B-  
    2921 000964 6D09          BCC $C$L79,AR1 == #0 ; |2196| 
         000966 00C3 
    2922                                                      ; branchcc occurs ; |2196| 
    2923                      .dwpsn  file "../FreeRTOS/Source/tasks_sysStk.c",line 2200,column 5,is_stmt
    2924 000968 0600          B $C$L72  ; |2200| 
         00096a 71   
    2925                                                      ; branch occurs ; |2200| 
    2926 00096b       $C$L70:    
    2927 00096b       $C$DW$L$_xTaskResumeAll$4$B:
    2928                      .dwpsn  file "../FreeRTOS/Source/tasks_sysStk.c",line 2202,column 6,is_stmt
    2929 00096b ED31          MOV dbl(*(#(_xPendingReadyList+6))), XAR3
         00096d BF00 
         00096f 004C-
    2930 000971 ED7D          MOV dbl(*AR3(short(#6))), XAR3
         000973 BF   
    2931 000974 EB00          MOV XAR3, dbl(*SP(#0))
         000976 B5   
    2932                      .dwpsn  file "../FreeRTOS/Source/tasks_sysStk.c",line 2203,column 6,is_stmt
    2933 000977 ED00          MOV dbl(*SP(#0)), XAR0
         000979 8F   
    2934 00097a 140E          AADD #14, AR0 ; |2203| 
         00097c 84   
    2935              $C$DW$227       .dwtag  DW_TAG_TI_branch
    2936                      .dwattr $C$DW$227, DW_AT_low_pc(0x00)
    2937                      .dwattr $C$DW$227, DW_AT_name("_uxListRemove")
    2938                      .dwattr $C$DW$227, DW_AT_TI_call
    2939 00097d 6C00          CALL #_uxListRemove ; |2203| 
TMS320C55x Assembler PC v4.4.1 Sun Sep 09 04:48:39 2018

Tools Copyright (c) 1996-2012 Texas Instruments Incorporated
tasks_sysStk.asm                                                     PAGE   66

         00097f 0000!
    2940                                                      ; call occurs [#_uxListRemove] ; |2203| 
    2941                      .dwpsn  file "../FreeRTOS/Source/tasks_sysStk.c",line 2204,column 6,is_stmt
    2942 000981 ED00          MOV dbl(*SP(#0)), XAR0
         000983 8F   
    2943 000984 1404          AADD #4, AR0 ; |2204| 
         000986 84   
    2944              $C$DW$228       .dwtag  DW_TAG_TI_branch
    2945                      .dwattr $C$DW$228, DW_AT_low_pc(0x00)
    2946                      .dwattr $C$DW$228, DW_AT_name("_uxListRemove")
    2947                      .dwattr $C$DW$228, DW_AT_TI_call
    2948 000987 6C00          CALL #_uxListRemove ; |2204| 
         000989 0000!
    2949                                                      ; call occurs [#_uxListRemove] ; |2204| 
    2950                      .dwpsn  file "../FreeRTOS/Source/tasks_sysStk.c",line 2205,column 6,is_stmt
    2951 00098b ED00          MOV dbl(*SP(#0)), XAR3
         00098d BF   
    2952 00098e A931          MOV *(#_uxTopReadyPriority), AR1 ; |2205| 
         000990 0000 
         000992 67-  
    2953 000993 AA6D          MOV *AR3(#24), AR2 ; |2205| 
         000995 0018 
    2954 000997 1298          CMPU AR2 <= AR1, TC1 ; |2205| 
         000999 A4   
    2955 00099a 64E4          BCC $C$L71,TC1 ; |2205| 
    2956                                                      ; branchcc occurs ; |2205| 
    2957 00099c       $C$DW$L$_xTaskResumeAll$4$E:
    2958 00099c       $C$DW$L$_xTaskResumeAll$5$B:
    2959 00099c A96D          MOV *AR3(#24), AR1 ; |2205| 
         00099e 0018 
    2960 0009a0 C931          MOV AR1, *(#_uxTopReadyPriority) ; |2205| 
         0009a2 0000 
         0009a4 67-  
    2961 0009a5       $C$DW$L$_xTaskResumeAll$5$E:
    2962 0009a5       $C$L71:    
    2963 0009a5       $C$DW$L$_xTaskResumeAll$6$B:
    2964 0009a5 F86D          MPYMK *AR3(#24), #10, AC0 ; |2205| 
         0009a7 0A00 
         0009a9 0018 
    2965 0009ab 2209          MOV AC0, AR1 ; |2205| 
    2966 0009ad EC31          AMOV #_pxReadyTasksLists, XAR0 ; |2205| 
         0009af 8E00 
         0009b1 0006-
    2967 0009b3 1490          AADD AR1, AR0 ; |2205| 
         0009b5 80   
    2968 0009b6 ED00          MOV dbl(*SP(#0)), XAR1
         0009b8 9F   
    2969 0009b9 1404          AADD #4, AR1 ; |2205| 
         0009bb 94   
    2970              $C$DW$229       .dwtag  DW_TAG_TI_branch
    2971                      .dwattr $C$DW$229, DW_AT_low_pc(0x00)
    2972                      .dwattr $C$DW$229, DW_AT_name("_vListInsertEnd")
    2973                      .dwattr $C$DW$229, DW_AT_TI_call
    2974 0009bc 6C00          CALL #_vListInsertEnd ; |2205| 
         0009be 0000!
TMS320C55x Assembler PC v4.4.1 Sun Sep 09 04:48:39 2018

Tools Copyright (c) 1996-2012 Texas Instruments Incorporated
tasks_sysStk.asm                                                     PAGE   67

    2975                                                      ; call occurs [#_vListInsertEnd] ; |2205| 
    2976                      .dwpsn  file "../FreeRTOS/Source/tasks_sysStk.c",line 2209,column 6,is_stmt
    2977 0009c0 ED31          MOV dbl(*(#_pxCurrentTCB)), XAR3
         0009c2 BF00 
         0009c4 0004-
    2978 0009c6 A96D          MOV *AR3(#24), AR1 ; |2209| 
         0009c8 0018 
    2979 0009ca ED00          MOV dbl(*SP(#0)), XAR3
         0009cc BF   
    2980 0009cd AA6D          MOV *AR3(#24), AR2 ; |2209| 
         0009cf 0018 
    2981 0009d1 12A4          CMPU AR2 < AR1, TC1 ; |2209| 
         0009d3 94   
    2982 0009d4 6364          BCC $C$L72,TC1 ; |2209| 
    2983                                                      ; branchcc occurs ; |2209| 
    2984 0009d6       $C$DW$L$_xTaskResumeAll$6$E:
    2985 0009d6       $C$DW$L$_xTaskResumeAll$7$B:
    2986                      .dwpsn  file "../FreeRTOS/Source/tasks_sysStk.c",line 2211,column 7,is_stmt
    2987 0009d6 E631          MOV #1, *(#_xYieldPending) ; |2211| 
         0009d8 0100 
         0009da 006A-
    2988                      .dwpsn  file "../FreeRTOS/Source/tasks_sysStk.c",line 2212,column 6,is_stmt
    2989 0009dc       $C$DW$L$_xTaskResumeAll$7$E:
    2990 0009dc       $C$L72:    
    2991 0009dc       $C$DW$L$_xTaskResumeAll$8$B:
    2992                      .dwpsn  file "../FreeRTOS/Source/tasks_sysStk.c",line 2200,column 12,is_stmt
    2993 0009dc A931          MOV *(#_xPendingReadyList), AR1 ; |2200| 
         0009de 0000 
         0009e0 46-  
    2994 0009e1 6219          BCC $C$L73,AR1 != #0 ; |2200| 
    2995                                                      ; branchcc occurs ; |2200| 
    2996 0009e3       $C$DW$L$_xTaskResumeAll$8$E:
    2997 0009e3       $C$DW$L$_xTaskResumeAll$9$B:
    2998 0009e3 3C19          MOV #1, AR1
    2999 0009e5 4A02          B $C$L74  ; |2200| 
    3000                                                      ; branch occurs ; |2200| 
    3001 0009e7       $C$DW$L$_xTaskResumeAll$9$E:
    3002 0009e7       $C$L73:    
    3003 0009e7       $C$DW$L$_xTaskResumeAll$10$B:
    3004 0009e7 3C09          MOV #0, AR1
    3005 0009e9       $C$DW$L$_xTaskResumeAll$10$E:
    3006 0009e9       $C$L74:    
    3007 0009e9       $C$DW$L$_xTaskResumeAll$11$B:
    3008 0009e9 6D09          BCC $C$L70,AR1 == #0 ; |2200| 
         0009eb FF7E 
    3009                                                      ; branchcc occurs ; |2200| 
    3010 0009ed       $C$DW$L$_xTaskResumeAll$11$E:
    3011                      .dwpsn  file "../FreeRTOS/Source/tasks_sysStk.c",line 2219,column 5,is_stmt
    3012 0009ed ED00          MOV dbl(*SP(#0)), XAR3
         0009ef BF   
    3013 0009f0 90B0          MOV XAR3, AC0
    3014 0009f2 6180          BCC $C$L75,AC0 == #0 ; |2219| 
    3015                                                      ; branchcc occurs ; |2219| 
    3016                      .dwpsn  file "../FreeRTOS/Source/tasks_sysStk.c",line 2227,column 6,is_stmt
    3017              $C$DW$230       .dwtag  DW_TAG_TI_branch
TMS320C55x Assembler PC v4.4.1 Sun Sep 09 04:48:39 2018

Tools Copyright (c) 1996-2012 Texas Instruments Incorporated
tasks_sysStk.asm                                                     PAGE   68

    3018                      .dwattr $C$DW$230, DW_AT_low_pc(0x00)
    3019                      .dwattr $C$DW$230, DW_AT_name("_prvResetNextTaskUnblockTime")
    3020                      .dwattr $C$DW$230, DW_AT_TI_call
    3021 0009f4 0806          CALL #_prvResetNextTaskUnblockTime ; |2227| 
         0009f6 D1   
    3022                                                      ; call occurs [#_prvResetNextTaskUnblockTime] ; |2227| 
    3023 0009f7       $C$L75:    
    3024              
    3025              $C$DW$231       .dwtag  DW_TAG_lexical_block, DW_AT_low_pc(0x00), DW_AT_high_pc(0x00)
    3026              $C$DW$232       .dwtag  DW_TAG_variable, DW_AT_name("uxPendedCounts")
    3027                      .dwattr $C$DW$232, DW_AT_TI_symbol_name("_uxPendedCounts")
    3028                      .dwattr $C$DW$232, DW_AT_type(*$C$DW$T$27)
    3029                      .dwattr $C$DW$232, DW_AT_location[DW_OP_bregx 0x24 3]
    3030                      .dwpsn  file "../FreeRTOS/Source/tasks_sysStk.c",line 2235,column 18,is_stmt
    3031 0009f7 A931          MOV *(#_uxPendedTicks), AR1 ; |2235| 
         0009f9 0000 
         0009fb 69-  
    3032 0009fc C906          MOV AR1, *SP(#3) ; |2235| 
    3033                      .dwpsn  file "../FreeRTOS/Source/tasks_sysStk.c",line 2237,column 6,is_stmt
    3034 0009fe 0409          BCC $C$L78,AR1 == #0 ; |2237| 
         000a00 1A   
    3035                                                      ; branchcc occurs ; |2237| 
    3036 000a01       $C$L76:    
    3037 000a01       $C$DW$L$_xTaskResumeAll$15$B:
    3038                      .dwpsn  file "../FreeRTOS/Source/tasks_sysStk.c",line 2241,column 8,is_stmt
    3039              $C$DW$233       .dwtag  DW_TAG_TI_branch
    3040                      .dwattr $C$DW$233, DW_AT_low_pc(0x00)
    3041                      .dwattr $C$DW$233, DW_AT_name("_xTaskIncrementTick")
    3042                      .dwattr $C$DW$233, DW_AT_TI_call
    3043 000a01 0800          CALL #_xTaskIncrementTick ; |2241| 
         000a03 C0   
    3044                                                      ; call occurs [#_xTaskIncrementTick] ; |2241| 
    3045 000a04 6304          BCC $C$L77,T0 == #0 ; |2241| 
    3046                                                      ; branchcc occurs ; |2241| 
    3047 000a06       $C$DW$L$_xTaskResumeAll$15$E:
    3048 000a06       $C$DW$L$_xTaskResumeAll$16$B:
    3049                      .dwpsn  file "../FreeRTOS/Source/tasks_sysStk.c",line 2243,column 9,is_stmt
    3050 000a06 E631          MOV #1, *(#_xYieldPending) ; |2243| 
         000a08 0100 
         000a0a 006A-
    3051                      .dwpsn  file "../FreeRTOS/Source/tasks_sysStk.c",line 2244,column 8,is_stmt
    3052 000a0c       $C$DW$L$_xTaskResumeAll$16$E:
    3053 000a0c       $C$L77:    
    3054 000a0c       $C$DW$L$_xTaskResumeAll$17$B:
    3055                      .dwpsn  file "../FreeRTOS/Source/tasks_sysStk.c",line 2249,column 8,is_stmt
    3056 000a0c F706          SUB #1, *SP(#3) ; |2249| 
         000a0e FFFF 
    3057                      .dwpsn  file "../FreeRTOS/Source/tasks_sysStk.c",line 2250,column 16,is_stmt
    3058 000a10 A906          MOV *SP(#3), AR1 ; |2250| 
    3059 000a12 0419          BCC $C$L76,AR1 != #0 ; |2250| 
         000a14 EC   
    3060                                                      ; branchcc occurs ; |2250| 
    3061 000a15       $C$DW$L$_xTaskResumeAll$17$E:
    3062                      .dwpsn  file "../FreeRTOS/Source/tasks_sysStk.c",line 2252,column 7,is_stmt
    3063 000a15 E631          MOV #0, *(#_uxPendedTicks) ; |2252| 
TMS320C55x Assembler PC v4.4.1 Sun Sep 09 04:48:39 2018

Tools Copyright (c) 1996-2012 Texas Instruments Incorporated
tasks_sysStk.asm                                                     PAGE   69

         000a17 0000 
         000a19 0069-
    3064                      .dwpsn  file "../FreeRTOS/Source/tasks_sysStk.c",line 2253,column 6,is_stmt
    3065              $C$L78:    
    3066                      .dwendtag $C$DW$231
    3067              
    3068                      .dwpsn  file "../FreeRTOS/Source/tasks_sysStk.c",line 2260,column 5,is_stmt
    3069 000a1b A931          MOV *(#_xYieldPending), AR1 ; |2260| 
         000a1d 0000 
         000a1f 6A-  
    3070 000a20 6489          BCC $C$L79,AR1 == #0 ; |2260| 
    3071                                                      ; branchcc occurs ; |2260| 
    3072                      .dwpsn  file "../FreeRTOS/Source/tasks_sysStk.c",line 2264,column 7,is_stmt
    3073 000a22 E604          MOV #1, *SP(#2) ; |2264| 
         000a24 01   
    3074                      .dwpsn  file "../FreeRTOS/Source/tasks_sysStk.c",line 2267,column 6,is_stmt
    3075              $C$DW$234       .dwtag  DW_TAG_TI_branch
    3076                      .dwattr $C$DW$234, DW_AT_low_pc(0x00)
    3077                      .dwattr $C$DW$234, DW_AT_name("_vPortYield")
    3078                      .dwattr $C$DW$234, DW_AT_TI_call
    3079 000a25 6C00          CALL #_vPortYield ; |2267| 
         000a27 0000!
    3080                                                      ; call occurs [#_vPortYield] ; |2267| 
    3081                      .dwpsn  file "../FreeRTOS/Source/tasks_sysStk.c",line 2268,column 5,is_stmt
    3082 000a29 4A00          B $C$L79  ; |2268| 
    3083                                                      ; branch occurs ; |2268| 
    3084 000a2b       $C$L79:    
    3085                      .dwpsn  file "../FreeRTOS/Source/tasks_sysStk.c",line 2280,column 2,is_stmt
    3086 000a2b A931          MOV *(#_usCriticalNesting), AR1 ; |2280| 
         000a2d 0000 
         000a2f 00!  
    3087 000a30 0409          BCC $C$L80,AR1 == #0 ; |2280| 
         000a32 14   
    3088                                                      ; branchcc occurs ; |2280| 
    3089 000a33 F731          SUB #1, *(#_usCriticalNesting) ; |2280| 
         000a35 FFFF 
         000a37 0000 
         000a39 00!  
    3090 000a3a 20            NOP
    3091 000a3b 20            NOP
    3092 000a3c 20            NOP
    3093 000a3d A931          MOV *(#_usCriticalNesting), AR1 ; |2280| 
         000a3f 0000 
         000a41 00!  
    3094 000a42 6199          BCC $C$L80,AR1 != #0 ; |2280| 
    3095                                                      ; branchcc occurs ; |2280| 
    3096 000a44 20     nop
    3097 000a45 46B2   bclr INTM
    3098 000a47       $C$L80:    
    3099                      .dwpsn  file "../FreeRTOS/Source/tasks_sysStk.c",line 2282,column 2,is_stmt
    3100 000a47 A404          MOV *SP(#2), T0 ; |2282| 
    3101                      .dwpsn  file "../FreeRTOS/Source/tasks_sysStk.c",line 2283,column 1,is_stmt
    3102 000a49 4E05          AADD #5, SP
    3103                      .dwcfi  cfa_offset, 1
    3104              $C$DW$235       .dwtag  DW_TAG_TI_branch
TMS320C55x Assembler PC v4.4.1 Sun Sep 09 04:48:39 2018

