TMS320C55x Assembler PC v4.3.8 Fri Jan 21 01:13:33 2011

Tools Copyright (c) 1996-2010 Texas Instruments Incorporated
blocktim.asm                                                         PAGE    1

       1              ;*******************************************************************************
       2              ;* TMS320C55x C/C++ Codegen                                          PC v4.3.8 *
       3              ;* Date/Time created: Fri Jan 21 01:13:33 2011                                 *
       4              ;*******************************************************************************
       5                      .compiler_opts --hll_source=on --mem_model:code=flat --mem_model:data=huge --silicon_core_3_3 --symde
       6                      .mmregs
       7                      .cpl_on
       8                      .arms_on
       9                      .c54cm_off
      10                      .asg AR6, FP
      11                      .asg XAR6, XFP
      12                      .model call=c55_std
      13                      .model mem=huge
      14                      .noremark 5002  ; code respects overwrite rules
      15              ;*******************************************************************************
      16              ;* GLOBAL FILE PARAMETERS                                                      *
      17              ;*                                                                             *
      18              ;*   Architecture       : TMS320C55x                                           *
      19              ;*   Optimizing for     : Speed                                                *
      20              ;*   Memory             : Huge Model (23-Bit Data Pointers)                    *
      21              ;*   Calls              : Normal Library ASM calls                             *
      22              ;*   Debug Info         : Standard TI Debug Information                        *
      23              ;*******************************************************************************
      24              
      25              $C$DW$CU        .dwtag  DW_TAG_compile_unit
      26                      .dwattr $C$DW$CU, DW_AT_name("../FreeRTOS/Demo/Common/Minimal/blocktim.c")
      27                      .dwattr $C$DW$CU, DW_AT_producer("TMS320C55x C/C++ Codegen PC v4.3.8 Copyright (c) 1996-2010 Texas In
      28                      .dwattr $C$DW$CU, DW_AT_TI_version(0x01)
      29                      .dwattr $C$DW$CU, DW_AT_comp_dir("E:\temp\c5515_eZdsp_FreeRTOS_Demo\EZDSP_Sample\Debug")
      30              ;******************************************************************************
      31              ;* CINIT RECORDS                                                              *
      32              ;******************************************************************************
      33 000000               .sect   ".cinit"
      34                      .align  1
      35 000000 0001          .field          1,16
      36 000001 0000-         .field          _xPrimaryCycles+0,24
         000002 0400 
      37 000002 0400          .field          0,8
      38 000003 0000          .field          0,16                    ; _xPrimaryCycles @ 0
      39              
      40 000004               .sect   ".cinit"
      41                      .align  1
      42 000004 0001          .field          1,16
      43 000005 0000-         .field          _xSecondaryCycles+0,24
         000006 0500 
      44 000006 0500          .field          0,8
      45 000007 0000          .field          0,16                    ; _xSecondaryCycles @ 0
      46              
      47 000008               .sect   ".cinit"
      48                      .align  1
      49 000008 0001          .field          1,16
      50 000009 0000-         .field          _xErrorOccurred+0,24
         00000a 0600 
      51 00000a 0600          .field          0,8
      52 00000b 0000          .field          0,16                    ; _xErrorOccurred @ 0
TMS320C55x Assembler PC v4.3.8 Fri Jan 21 01:13:33 2011

Tools Copyright (c) 1996-2010 Texas Instruments Incorporated
blocktim.asm                                                         PAGE    2

      53              
      54 00000c               .sect   ".cinit"
      55                      .align  1
      56 00000c 0001          .field          1,16
      57 00000d 0000-         .field          _xLastPrimaryCycleCount$1+0,24
         00000e 0800 
      58 00000e 0800          .field          0,8
      59 00000f 0000          .field          0,16                    ; _xLastPrimaryCycleCount$1 @ 0
      60              
      61 000010               .sect   ".cinit"
      62                      .align  1
      63 000010 0001          .field          1,16
      64 000011 0000-         .field          _xLastSecondaryCycleCount$2+0,24
         000012 0900 
      65 000012 0900          .field          0,8
      66 000013 0000          .field          0,16                    ; _xLastSecondaryCycleCount$2 @ 0
      67              
      68              
      69              $C$DW$1 .dwtag  DW_TAG_subprogram, DW_AT_name("vTaskDelay")
      70                      .dwattr $C$DW$1, DW_AT_TI_symbol_name("_vTaskDelay")
      71                      .dwattr $C$DW$1, DW_AT_declaration
      72                      .dwattr $C$DW$1, DW_AT_external
      73                      .dwattr $C$DW$1, DW_AT_decl_file("E:/temp/c5515_eZdsp_FreeRTOS_Demo/EZDSP_Sample/FreeRTOS/Source/incl
      74                      .dwattr $C$DW$1, DW_AT_decl_line(0x1e5)
      75                      .dwattr $C$DW$1, DW_AT_decl_column(0x06)
      76              $C$DW$2 .dwtag  DW_TAG_formal_parameter
      77                      .dwattr $C$DW$2, DW_AT_type(*$C$DW$T$20)
      78                      .dwendtag $C$DW$1
      79              
      80              
      81              $C$DW$3 .dwtag  DW_TAG_subprogram, DW_AT_name("vTaskPrioritySet")
      82                      .dwattr $C$DW$3, DW_AT_TI_symbol_name("_vTaskPrioritySet")
      83                      .dwattr $C$DW$3, DW_AT_declaration
      84                      .dwattr $C$DW$3, DW_AT_external
      85                      .dwattr $C$DW$3, DW_AT_decl_file("E:/temp/c5515_eZdsp_FreeRTOS_Demo/EZDSP_Sample/FreeRTOS/Source/incl
      86                      .dwattr $C$DW$3, DW_AT_decl_line(0x279)
      87                      .dwattr $C$DW$3, DW_AT_decl_column(0x06)
      88              $C$DW$4 .dwtag  DW_TAG_formal_parameter
      89                      .dwattr $C$DW$4, DW_AT_type(*$C$DW$T$43)
      90              $C$DW$5 .dwtag  DW_TAG_formal_parameter
      91                      .dwattr $C$DW$5, DW_AT_type(*$C$DW$T$11)
      92                      .dwendtag $C$DW$3
      93              
      94              
      95              $C$DW$6 .dwtag  DW_TAG_subprogram, DW_AT_name("vTaskSuspend")
      96                      .dwattr $C$DW$6, DW_AT_TI_symbol_name("_vTaskSuspend")
      97                      .dwattr $C$DW$6, DW_AT_declaration
      98                      .dwattr $C$DW$6, DW_AT_external
      99                      .dwattr $C$DW$6, DW_AT_decl_file("E:/temp/c5515_eZdsp_FreeRTOS_Demo/EZDSP_Sample/FreeRTOS/Source/incl
     100                      .dwattr $C$DW$6, DW_AT_decl_line(0x2ac)
     101                      .dwattr $C$DW$6, DW_AT_decl_column(0x06)
     102              $C$DW$7 .dwtag  DW_TAG_formal_parameter
     103                      .dwattr $C$DW$7, DW_AT_type(*$C$DW$T$43)
     104                      .dwendtag $C$DW$6
     105              
TMS320C55x Assembler PC v4.3.8 Fri Jan 21 01:13:33 2011

Tools Copyright (c) 1996-2010 Texas Instruments Incorporated
blocktim.asm                                                         PAGE    3

     106              
     107              $C$DW$8 .dwtag  DW_TAG_subprogram, DW_AT_name("vTaskResume")
     108                      .dwattr $C$DW$8, DW_AT_TI_symbol_name("_vTaskResume")
     109                      .dwattr $C$DW$8, DW_AT_declaration
     110                      .dwattr $C$DW$8, DW_AT_external
     111                      .dwattr $C$DW$8, DW_AT_decl_file("E:/temp/c5515_eZdsp_FreeRTOS_Demo/EZDSP_Sample/FreeRTOS/Source/incl
     112                      .dwattr $C$DW$8, DW_AT_decl_line(0x2dd)
     113                      .dwattr $C$DW$8, DW_AT_decl_column(0x06)
     114              $C$DW$9 .dwtag  DW_TAG_formal_parameter
     115                      .dwattr $C$DW$9, DW_AT_type(*$C$DW$T$43)
     116                      .dwendtag $C$DW$8
     117              
     118              
     119              $C$DW$10        .dwtag  DW_TAG_subprogram, DW_AT_name("xTaskGetTickCount")
     120                      .dwattr $C$DW$10, DW_AT_TI_symbol_name("_xTaskGetTickCount")
     121                      .dwattr $C$DW$10, DW_AT_type(*$C$DW$T$20)
     122                      .dwattr $C$DW$10, DW_AT_declaration
     123                      .dwattr $C$DW$10, DW_AT_external
     124                      .dwattr $C$DW$10, DW_AT_decl_file("E:/temp/c5515_eZdsp_FreeRTOS_Demo/EZDSP_Sample/FreeRTOS/Source/inc
     125                      .dwattr $C$DW$10, DW_AT_decl_line(0x3cd)
     126                      .dwattr $C$DW$10, DW_AT_decl_column(0x0e)
     127              
     128              $C$DW$11        .dwtag  DW_TAG_subprogram, DW_AT_name("xTaskGenericCreate")
     129                      .dwattr $C$DW$11, DW_AT_TI_symbol_name("_xTaskGenericCreate")
     130                      .dwattr $C$DW$11, DW_AT_type(*$C$DW$T$10)
     131                      .dwattr $C$DW$11, DW_AT_declaration
     132                      .dwattr $C$DW$11, DW_AT_external
     133                      .dwattr $C$DW$11, DW_AT_decl_file("E:/temp/c5515_eZdsp_FreeRTOS_Demo/EZDSP_Sample/FreeRTOS/Source/inc
     134                      .dwattr $C$DW$11, DW_AT_decl_line(0x4e7)
     135                      .dwattr $C$DW$11, DW_AT_decl_column(0x16)
     136              $C$DW$12        .dwtag  DW_TAG_formal_parameter
     137                      .dwattr $C$DW$12, DW_AT_type(*$C$DW$T$35)
     138              $C$DW$13        .dwtag  DW_TAG_formal_parameter
     139                      .dwattr $C$DW$13, DW_AT_type(*$C$DW$T$38)
     140              $C$DW$14        .dwtag  DW_TAG_formal_parameter
     141                      .dwattr $C$DW$14, DW_AT_type(*$C$DW$T$9)
     142              $C$DW$15        .dwtag  DW_TAG_formal_parameter
     143                      .dwattr $C$DW$15, DW_AT_type(*$C$DW$T$3)
     144              $C$DW$16        .dwtag  DW_TAG_formal_parameter
     145                      .dwattr $C$DW$16, DW_AT_type(*$C$DW$T$11)
     146              $C$DW$17        .dwtag  DW_TAG_formal_parameter
     147                      .dwattr $C$DW$17, DW_AT_type(*$C$DW$T$44)
     148              $C$DW$18        .dwtag  DW_TAG_formal_parameter
     149                      .dwattr $C$DW$18, DW_AT_type(*$C$DW$T$39)
     150              $C$DW$19        .dwtag  DW_TAG_formal_parameter
     151                      .dwattr $C$DW$19, DW_AT_type(*$C$DW$T$64)
     152                      .dwendtag $C$DW$11
     153              
     154              
     155              $C$DW$20        .dwtag  DW_TAG_subprogram, DW_AT_name("xQueueCreate")
     156                      .dwattr $C$DW$20, DW_AT_TI_symbol_name("_xQueueCreate")
     157                      .dwattr $C$DW$20, DW_AT_type(*$C$DW$T$45)
     158                      .dwattr $C$DW$20, DW_AT_declaration
     159                      .dwattr $C$DW$20, DW_AT_external
     160                      .dwattr $C$DW$20, DW_AT_decl_file("E:/temp/c5515_eZdsp_FreeRTOS_Demo/EZDSP_Sample/FreeRTOS/Source/inc
TMS320C55x Assembler PC v4.3.8 Fri Jan 21 01:13:33 2011

Tools Copyright (c) 1996-2010 Texas Instruments Incorporated
blocktim.asm                                                         PAGE    4

     161                      .dwattr $C$DW$20, DW_AT_decl_line(0x88)
     162                      .dwattr $C$DW$20, DW_AT_decl_column(0x0e)
     163              $C$DW$21        .dwtag  DW_TAG_formal_parameter
     164                      .dwattr $C$DW$21, DW_AT_type(*$C$DW$T$11)
     165              $C$DW$22        .dwtag  DW_TAG_formal_parameter
     166                      .dwattr $C$DW$22, DW_AT_type(*$C$DW$T$11)
     167                      .dwendtag $C$DW$20
     168              
     169              
     170              $C$DW$23        .dwtag  DW_TAG_subprogram, DW_AT_name("xQueueGenericSend")
     171                      .dwattr $C$DW$23, DW_AT_TI_symbol_name("_xQueueGenericSend")
     172                      .dwattr $C$DW$23, DW_AT_type(*$C$DW$T$10)
     173                      .dwattr $C$DW$23, DW_AT_declaration
     174                      .dwattr $C$DW$23, DW_AT_external
     175                      .dwattr $C$DW$23, DW_AT_decl_file("E:/temp/c5515_eZdsp_FreeRTOS_Demo/EZDSP_Sample/FreeRTOS/Source/inc
     176                      .dwattr $C$DW$23, DW_AT_decl_line(0x1d8)
     177                      .dwattr $C$DW$23, DW_AT_decl_column(0x16)
     178              $C$DW$24        .dwtag  DW_TAG_formal_parameter
     179                      .dwattr $C$DW$24, DW_AT_type(*$C$DW$T$45)
     180              $C$DW$25        .dwtag  DW_TAG_formal_parameter
     181                      .dwattr $C$DW$25, DW_AT_type(*$C$DW$T$59)
     182              $C$DW$26        .dwtag  DW_TAG_formal_parameter
     183                      .dwattr $C$DW$26, DW_AT_type(*$C$DW$T$20)
     184              $C$DW$27        .dwtag  DW_TAG_formal_parameter
     185                      .dwattr $C$DW$27, DW_AT_type(*$C$DW$T$10)
     186                      .dwendtag $C$DW$23
     187              
     188              
     189              $C$DW$28        .dwtag  DW_TAG_subprogram, DW_AT_name("xQueueGenericReceive")
     190                      .dwattr $C$DW$28, DW_AT_TI_symbol_name("_xQueueGenericReceive")
     191                      .dwattr $C$DW$28, DW_AT_type(*$C$DW$T$10)
     192                      .dwattr $C$DW$28, DW_AT_declaration
     193                      .dwattr $C$DW$28, DW_AT_external
     194                      .dwattr $C$DW$28, DW_AT_decl_file("E:/temp/c5515_eZdsp_FreeRTOS_Demo/EZDSP_Sample/FreeRTOS/Source/inc
     195                      .dwattr $C$DW$28, DW_AT_decl_line(0x2f6)
     196                      .dwattr $C$DW$28, DW_AT_decl_column(0x16)
     197              $C$DW$29        .dwtag  DW_TAG_formal_parameter
     198                      .dwattr $C$DW$29, DW_AT_type(*$C$DW$T$45)
     199              $C$DW$30        .dwtag  DW_TAG_formal_parameter
     200                      .dwattr $C$DW$30, DW_AT_type(*$C$DW$T$47)
     201              $C$DW$31        .dwtag  DW_TAG_formal_parameter
     202                      .dwattr $C$DW$31, DW_AT_type(*$C$DW$T$20)
     203              $C$DW$32        .dwtag  DW_TAG_formal_parameter
     204                      .dwattr $C$DW$32, DW_AT_type(*$C$DW$T$10)
     205                      .dwendtag $C$DW$28
     206              
     207 000000               .bss    _xTestQueue,2,0,2
     208              $C$DW$33        .dwtag  DW_TAG_variable, DW_AT_name("xTestQueue")
     209                      .dwattr $C$DW$33, DW_AT_TI_symbol_name("_xTestQueue")
     210                      .dwattr $C$DW$33, DW_AT_type(*$C$DW$T$45)
     211                      .dwattr $C$DW$33, DW_AT_location[DW_OP_addr _xTestQueue]
     212                      .dwattr $C$DW$33, DW_AT_decl_file("../FreeRTOS/Demo/Common/Minimal/blocktim.c")
     213                      .dwattr $C$DW$33, DW_AT_decl_line(0x57)
     214                      .dwattr $C$DW$33, DW_AT_decl_column(0x15)
     215 000002               .bss    _xSecondary,2,0,2
TMS320C55x Assembler PC v4.3.8 Fri Jan 21 01:13:33 2011

Tools Copyright (c) 1996-2010 Texas Instruments Incorporated
blocktim.asm                                                         PAGE    5

     216              $C$DW$34        .dwtag  DW_TAG_variable, DW_AT_name("xSecondary")
     217                      .dwattr $C$DW$34, DW_AT_TI_symbol_name("_xSecondary")
     218                      .dwattr $C$DW$34, DW_AT_type(*$C$DW$T$43)
     219                      .dwattr $C$DW$34, DW_AT_location[DW_OP_addr _xSecondary]
     220                      .dwattr $C$DW$34, DW_AT_decl_file("../FreeRTOS/Demo/Common/Minimal/blocktim.c")
     221                      .dwattr $C$DW$34, DW_AT_decl_line(0x5b)
     222                      .dwattr $C$DW$34, DW_AT_decl_column(0x14)
     223 000004               .bss    _xPrimaryCycles,1,0,0
     224              $C$DW$35        .dwtag  DW_TAG_variable, DW_AT_name("xPrimaryCycles")
     225                      .dwattr $C$DW$35, DW_AT_TI_symbol_name("_xPrimaryCycles")
     226                      .dwattr $C$DW$35, DW_AT_type(*$C$DW$T$72)
     227                      .dwattr $C$DW$35, DW_AT_location[DW_OP_addr _xPrimaryCycles]
     228                      .dwattr $C$DW$35, DW_AT_decl_file("../FreeRTOS/Demo/Common/Minimal/blocktim.c")
     229                      .dwattr $C$DW$35, DW_AT_decl_line(0x5e)
     230                      .dwattr $C$DW$35, DW_AT_decl_column(0x1f)
     231 000005               .bss    _xSecondaryCycles,1,0,0
     232              $C$DW$36        .dwtag  DW_TAG_variable, DW_AT_name("xSecondaryCycles")
     233                      .dwattr $C$DW$36, DW_AT_TI_symbol_name("_xSecondaryCycles")
     234                      .dwattr $C$DW$36, DW_AT_type(*$C$DW$T$72)
     235                      .dwattr $C$DW$36, DW_AT_location[DW_OP_addr _xSecondaryCycles]
     236                      .dwattr $C$DW$36, DW_AT_decl_file("../FreeRTOS/Demo/Common/Minimal/blocktim.c")
     237                      .dwattr $C$DW$36, DW_AT_decl_line(0x5e)
     238                      .dwattr $C$DW$36, DW_AT_decl_column(0x33)
     239 000006               .bss    _xErrorOccurred,1,0,0
     240              $C$DW$37        .dwtag  DW_TAG_variable, DW_AT_name("xErrorOccurred")
     241                      .dwattr $C$DW$37, DW_AT_TI_symbol_name("_xErrorOccurred")
     242                      .dwattr $C$DW$37, DW_AT_type(*$C$DW$T$72)
     243                      .dwattr $C$DW$37, DW_AT_location[DW_OP_addr _xErrorOccurred]
     244                      .dwattr $C$DW$37, DW_AT_decl_file("../FreeRTOS/Demo/Common/Minimal/blocktim.c")
     245                      .dwattr $C$DW$37, DW_AT_decl_line(0x5f)
     246                      .dwattr $C$DW$37, DW_AT_decl_column(0x1f)
     247 000007               .bss    _xRunIndicator,1,0,0
     248              $C$DW$38        .dwtag  DW_TAG_variable, DW_AT_name("xRunIndicator")
     249                      .dwattr $C$DW$38, DW_AT_TI_symbol_name("_xRunIndicator")
     250                      .dwattr $C$DW$38, DW_AT_type(*$C$DW$T$25)
     251                      .dwattr $C$DW$38, DW_AT_location[DW_OP_addr _xRunIndicator]
     252                      .dwattr $C$DW$38, DW_AT_decl_file("../FreeRTOS/Demo/Common/Minimal/blocktim.c")
     253                      .dwattr $C$DW$38, DW_AT_decl_line(0x63)
     254                      .dwattr $C$DW$38, DW_AT_decl_column(0x28)
     255 000008               .bss    _xLastPrimaryCycleCount$1,1,0,0
     256 000009               .bss    _xLastSecondaryCycleCount$2,1,0,0
     257              ;       C:\Texas Instruments Tools\ccsv4\tools\compiler\C5500 Code Generation Tools 4.3.8\bin\opt55.exe C:\\U
     258 000000               .sect   ".text"
     259                      .global _vCreateBlockTimeTasks
     260              
     261              $C$DW$39        .dwtag  DW_TAG_subprogram, DW_AT_name("vCreateBlockTimeTasks")
     262                      .dwattr $C$DW$39, DW_AT_low_pc(_vCreateBlockTimeTasks)
     263                      .dwattr $C$DW$39, DW_AT_high_pc(0x00)
     264                      .dwattr $C$DW$39, DW_AT_TI_symbol_name("_vCreateBlockTimeTasks")
     265                      .dwattr $C$DW$39, DW_AT_external
     266                      .dwattr $C$DW$39, DW_AT_TI_begin_file("../FreeRTOS/Demo/Common/Minimal/blocktim.c")
     267                      .dwattr $C$DW$39, DW_AT_TI_begin_line(0x6b)
     268                      .dwattr $C$DW$39, DW_AT_TI_begin_column(0x06)
     269                      .dwattr $C$DW$39, DW_AT_decl_file("../FreeRTOS/Demo/Common/Minimal/blocktim.c")
     270                      .dwattr $C$DW$39, DW_AT_decl_line(0x6b)
TMS320C55x Assembler PC v4.3.8 Fri Jan 21 01:13:33 2011

Tools Copyright (c) 1996-2010 Texas Instruments Incorporated
blocktim.asm                                                         PAGE    6

     271                      .dwattr $C$DW$39, DW_AT_decl_column(0x06)
     272                      .dwattr $C$DW$39, DW_AT_TI_max_frame_size(0x02)
     273                      .dwpsn  file "../FreeRTOS/Demo/Common/Minimal/blocktim.c",line 108,column 1,is_stmt,address _vCreateB
     274              
     275                      .dwfde $C$DW$CIE, _vCreateBlockTimeTasks
     276              ;*******************************************************************************
     277              ;* FUNCTION NAME: vCreateBlockTimeTasks                                        *
     278              ;*                                                                             *
     279              ;*   Function Uses Regs : AC0,AC0,T0,T1,AR0,XAR0,AR1,XAR1,AR2,XAR2,AR3,XAR3,   *
     280              ;*                        AR4,XAR4,SP,M40,SATA,SATD,RDM,FRCT,SMUL              *
     281              ;*   Stack Frame        : Compact (No Frame Pointer, w/ debug)                 *
     282              ;*   Total Frame Size   : 2 words                                              *
     283              ;*                        (2 return address/alignment)                         *
     284              ;*   Min System Stack   : 1 word                                               *
     285              ;*******************************************************************************
     286              
     287              ;*******************************************************************************
     288              ;*                                                                             *
     289              ;* Using -g (debug) with optimization (-o0) may disable key optimizations!     *
     290              ;*                                                                             *
     291              ;*******************************************************************************
     292 000000       _vCreateBlockTimeTasks:
     293              ;** 110 -----------------------    xTestQueue = xQueueCreate(5u, 1u);
     294              ;** 121 -----------------------    xTaskGenericCreate(&vPrimaryBlockTimeTestTask, (char *)(char *)"BTest1", 6
     295              ;** 122 -----------------------    xTaskGenericCreate(&vSecondaryBlockTimeTestTask, (char *)(char *)"BTest2",
     296              ;**     -----------------------    return;
     297                      .dwcfi  cfa_offset, 1
     298                      .dwcfi  save_reg_to_mem, 91, -1
     299 000000 4EFF          SP = SP + #-1
     300                      .dwcfi  cfa_offset, 2
     301                      .dwpsn  file "../FreeRTOS/Demo/Common/Minimal/blocktim.c",line 110,column 5,is_stmt
     302 000002 3C54          T0 = #5
     303              $C$DW$40        .dwtag  DW_TAG_TI_branch
     304                      .dwattr $C$DW$40, DW_AT_low_pc(0x00)
     305                      .dwattr $C$DW$40, DW_AT_name("_xQueueCreate")
     306                      .dwattr $C$DW$40, DW_AT_TI_call
     307              
     308 000004 6C00          call #_xQueueCreate ; |110| 
         000006 0000!
     309 000008 3D15  ||      T1 = #1
     310              
     311                                                      ; call occurs [#_xQueueCreate] ; |110| 
     312 00000a EB31          dbl(*(#_xTestQueue)) = XAR0
         00000c 8500 
         00000e 0000-
     313                      .dwpsn  file "../FreeRTOS/Demo/Common/Minimal/blocktim.c",line 121,column 2,is_stmt
     314 000010 7A00          AC0 = #(_vPrimaryBlockTimeTestTask >> 16) << #16 ; |121| 
         000012 000A%
     315 000014 EC31          XAR4 = #0 ; |121| 
         000016 CE00 
         000018 0000 
     316 00001a EC31          XAR3 = #0 ; |121| 
         00001c BE00 
         00001e 0000 
     317 000020 EC31          XAR2 = #0 ; |121| 
TMS320C55x Assembler PC v4.3.8 Fri Jan 21 01:13:33 2011

Tools Copyright (c) 1996-2010 Texas Instruments Incorporated
blocktim.asm                                                         PAGE    7

         000022 AE00 
         000024 0000 
     318 000026 EC31          XAR1 = #0 ; |121| 
         000028 9E00 
         00002a 0000 
     319 00002c 7600          T0 = #64  ; |121| 
         00002e 4048 
     320 000030 7E00          AC0 = AC0 | #(_vPrimaryBlockTimeTestTask & 0xffff) ; |121| 
         000032 0000%
     321 000034 EC31          XAR0 = #$C$FSL1 ; |121| 
         000036 8E00 
         000038 0000+
     322              $C$DW$41        .dwtag  DW_TAG_TI_branch
     323                      .dwattr $C$DW$41, DW_AT_low_pc(0x00)
     324                      .dwattr $C$DW$41, DW_AT_name("_xTaskGenericCreate")
     325                      .dwattr $C$DW$41, DW_AT_TI_call
     326              
     327 00003a 6C00          call #_xTaskGenericCreate ; |121| 
         00003c 0000!
     328 00003e 3D35  ||      T1 = #3
     329              
     330                                                      ; call occurs [#_xTaskGenericCreate] ; |121| 
     331                      .dwpsn  file "../FreeRTOS/Demo/Common/Minimal/blocktim.c",line 122,column 2,is_stmt
     332 000040 7600          T0 = #64  ; |122| 
         000042 4048 
     333 000044 EC31          XAR4 = #0 ; |122| 
         000046 CE00 
         000048 0000 
     334 00004a EC31          XAR3 = #0 ; |122| 
         00004c BE00 
         00004e 0000 
     335 000050 EC31          XAR2 = #_xSecondary ; |122| 
         000052 AE00 
         000054 0002-
     336 000056 EC31          XAR1 = #0 ; |122| 
         000058 9E00 
         00005a 0000 
     337 00005c EC31          XAR0 = #$C$FSL2 ; |122| 
         00005e 8E00 
         000060 0008+
     338 000062 7A00          AC0 = #(_vSecondaryBlockTimeTestTask >> 16) << #16 ; |122| 
         000064 000A%
     339              
     340 000066 7E00          AC0 = AC0 | #(_vSecondaryBlockTimeTestTask & 0xffff) ; |122| 
         000068 0000%
     341 00006a 3D25  ||      T1 = #2
     342              
     343              $C$DW$42        .dwtag  DW_TAG_TI_branch
     344                      .dwattr $C$DW$42, DW_AT_low_pc(0x00)
     345                      .dwattr $C$DW$42, DW_AT_name("_xTaskGenericCreate")
     346                      .dwattr $C$DW$42, DW_AT_TI_call
     347 00006c 6C00          call #_xTaskGenericCreate ; |122| 
         00006e 0000!
     348                                                      ; call occurs [#_xTaskGenericCreate] ; |122| 
     349                      .dwpsn  file "../FreeRTOS/Demo/Common/Minimal/blocktim.c",line 123,column 1,is_stmt
TMS320C55x Assembler PC v4.3.8 Fri Jan 21 01:13:33 2011

Tools Copyright (c) 1996-2010 Texas Instruments Incorporated
blocktim.asm                                                         PAGE    8

     350 000070 4E01          SP = SP + #1
     351                      .dwcfi  cfa_offset, 1
     352              $C$DW$43        .dwtag  DW_TAG_TI_branch
     353                      .dwattr $C$DW$43, DW_AT_low_pc(0x00)
     354                      .dwattr $C$DW$43, DW_AT_TI_return
     355 000072 4804          return
     356                                                      ; return occurs
     357                      .dwattr $C$DW$39, DW_AT_TI_end_file("../FreeRTOS/Demo/Common/Minimal/blocktim.c")
     358                      .dwattr $C$DW$39, DW_AT_TI_end_line(0x7b)
     359                      .dwattr $C$DW$39, DW_AT_TI_end_column(0x01)
     360                      .dwendentry
     361                      .dwendtag $C$DW$39
     362              
     363 000074               .sect   ".text"
     364              
     365              $C$DW$44        .dwtag  DW_TAG_subprogram, DW_AT_name("vPrimaryBlockTimeTestTask")
     366                      .dwattr $C$DW$44, DW_AT_low_pc(_vPrimaryBlockTimeTestTask)
     367                      .dwattr $C$DW$44, DW_AT_high_pc(0x00)
     368                      .dwattr $C$DW$44, DW_AT_TI_symbol_name("_vPrimaryBlockTimeTestTask")
     369                      .dwattr $C$DW$44, DW_AT_TI_begin_file("../FreeRTOS/Demo/Common/Minimal/blocktim.c")
     370                      .dwattr $C$DW$44, DW_AT_TI_begin_line(0x7e)
     371                      .dwattr $C$DW$44, DW_AT_TI_begin_column(0x0d)
     372                      .dwattr $C$DW$44, DW_AT_decl_file("../FreeRTOS/Demo/Common/Minimal/blocktim.c")
     373                      .dwattr $C$DW$44, DW_AT_decl_line(0x7e)
     374                      .dwattr $C$DW$44, DW_AT_decl_column(0x0d)
     375                      .dwattr $C$DW$44, DW_AT_TI_max_frame_size(0x0c)
     376                      .dwpsn  file "../FreeRTOS/Demo/Common/Minimal/blocktim.c",line 127,column 1,is_stmt,address _vPrimary
     377              
     378                      .dwfde $C$DW$CIE, _vPrimaryBlockTimeTestTask
     379              $C$DW$45        .dwtag  DW_TAG_formal_parameter, DW_AT_name("pvParameters")
     380                      .dwattr $C$DW$45, DW_AT_TI_symbol_name("_pvParameters")
     381                      .dwattr $C$DW$45, DW_AT_type(*$C$DW$T$3)
     382                      .dwattr $C$DW$45, DW_AT_location[DW_OP_reg17]
     383              ;*******************************************************************************
     384              ;* FUNCTION NAME: vPrimaryBlockTimeTestTask                                    *
     385              ;*                                                                             *
     386              ;*   Function Uses Regs : AC0,AC0,AC1,AC1,T0,T1,T2,T3,AR0,XAR0,AR1,XAR1,AR2,   *
     387              ;*                        AR5,AR6,AR7,SP,CARRY,TC1,M40,SATA,SATD,RDM,FRCT,SMUL *
     388              ;*   Save On Entry Regs : T2,T3,AR5,AR6,AR7                                    *
     389              ;*   Stack Frame        : Compact (No Frame Pointer, w/ debug)                 *
     390              ;*   Total Frame Size   : 12 words                                             *
     391              ;*                        (1 return address/alignment)                         *
     392              ;*                        (6 local values)                                     *
     393              ;*                        (5 register save area)                               *
     394              ;*   Min System Stack   : 4 words                                              *
     395              ;*******************************************************************************
     396              
     397              ;*******************************************************************************
     398              ;*                                                                             *
     399              ;* Using -g (debug) with optimization (-o0) may disable key optimizations!     *
     400              ;*                                                                             *
     401              ;*******************************************************************************
     402 000074       _vPrimaryBlockTimeTestTask:
     403                      .dwcfi  cfa_offset, 1
     404                      .dwcfi  save_reg_to_mem, 91, -1
TMS320C55x Assembler PC v4.3.8 Fri Jan 21 01:13:33 2011

Tools Copyright (c) 1996-2010 Texas Instruments Incorporated
blocktim.asm                                                         PAGE    9

     405 000074 5066          push(T2)
     406                      .dwcfi  cfa_offset, 2
     407                      .dwcfi  save_reg_to_mem, 14, -2
     408 000076 5076          push(T3)
     409                      .dwcfi  cfa_offset, 3
     410                      .dwcfi  save_reg_to_mem, 15, -3
     411 000078 50D5          pshboth(XAR5)
     412                      .dwcfi  cfa_offset, 4
     413                      .dwcfi  save_reg_to_mem, 26, -4
     414 00007a 50E5          pshboth(XAR6)
     415                      .dwcfi  cfa_offset, 5
     416                      .dwcfi  save_reg_to_mem, 28, -5
     417 00007c 50F5          pshboth(XAR7)
     418                      .dwcfi  cfa_offset, 6
     419                      .dwcfi  save_reg_to_mem, 30, -6
     420 00007e 4EFA          SP = SP + #-6
     421                      .dwcfi  cfa_offset, 12
     422 000080 3C5D          AR5 = #5
     423              
     424 000082 3C5E          AR6 = #5
     425 000084 3D57  ||      T3 = #5
     426              
     427 000086 3C5F          AR7 = #5
     428 000088 3D56  ||      T2 = #5
     429              
     430              $C$L1:    
     431              $C$DW$L$_vPrimaryBlockTimeTestTask$2$B:
     432              ;**     -----------------------g2:
     433              ;** 140 -----------------------    xItem = 0;
     434              ;** 140 -----------------------    if ( xItem >= 5 ) goto g10;
     435              ;* AC0   assigned to _xBlockedTime
     436              $C$DW$46        .dwtag  DW_TAG_variable, DW_AT_name("xBlockedTime")
     437                      .dwattr $C$DW$46, DW_AT_TI_symbol_name("_xBlockedTime")
     438                      .dwattr $C$DW$46, DW_AT_type(*$C$DW$T$20)
     439                      .dwattr $C$DW$46, DW_AT_location[DW_OP_reg0]
     440              $C$DW$47        .dwtag  DW_TAG_variable, DW_AT_name("xTimeToBlock")
     441                      .dwattr $C$DW$47, DW_AT_TI_symbol_name("_xTimeToBlock")
     442                      .dwattr $C$DW$47, DW_AT_type(*$C$DW$T$20)
     443                      .dwattr $C$DW$47, DW_AT_location[DW_OP_bregx 0x24 2]
     444              $C$DW$48        .dwtag  DW_TAG_variable, DW_AT_name("xTimeWhenBlocking")
     445                      .dwattr $C$DW$48, DW_AT_TI_symbol_name("_xTimeWhenBlocking")
     446                      .dwattr $C$DW$48, DW_AT_type(*$C$DW$T$20)
     447                      .dwattr $C$DW$48, DW_AT_location[DW_OP_bregx 0x24 4]
     448              $C$DW$49        .dwtag  DW_TAG_variable, DW_AT_name("xData")
     449                      .dwattr $C$DW$49, DW_AT_TI_symbol_name("_xData")
     450                      .dwattr $C$DW$49, DW_AT_type(*$C$DW$T$10)
     451                      .dwattr $C$DW$49, DW_AT_location[DW_OP_bregx 0x24 0]
     452              $C$DW$50        .dwtag  DW_TAG_variable, DW_AT_name("xItem")
     453                      .dwattr $C$DW$50, DW_AT_TI_symbol_name("_xItem")
     454                      .dwattr $C$DW$50, DW_AT_type(*$C$DW$T$10)
     455                      .dwattr $C$DW$50, DW_AT_location[DW_OP_bregx 0x24 1]
     456                      .dwpsn  file "../FreeRTOS/Demo/Common/Minimal/blocktim.c",line 140,column 8,is_stmt
     457 00008a E602          *SP(#1) = #0 ; |140| 
         00008c 00   
     458                      .dwpsn  file "../FreeRTOS/Demo/Common/Minimal/blocktim.c",line 140,column 19,is_stmt
TMS320C55x Assembler PC v4.3.8 Fri Jan 21 01:13:33 2011

Tools Copyright (c) 1996-2010 Texas Instruments Incorporated
blocktim.asm                                                         PAGE   10

     459              
     460 00008d A902          AR1 = *SP(#1) ; |140| 
     461 00008f 3D5A  ||      AR2 = #5
     462              
     463 000091 1298          TC1 = (AR1 >= AR2) ; |140| 
         000093 A0   
     464 000094 0464          if (TC1) goto $C$L6 ; |140| 
         000096 60   
     465                                                      ; branchcc occurs ; |140| 
     466 000097       $C$DW$L$_vPrimaryBlockTimeTestTask$2$E:
     467 000097       $C$L2:    
     468 000097       $C$DW$L$_vPrimaryBlockTimeTestTask$3$B:
     469              ;**     -----------------------g3:
     470              ;** 144 -----------------------    xTimeToBlock = 10<<xItem;
     471              ;** 146 -----------------------    xTimeWhenBlocking = xTaskGetTickCount();
     472              ;** 150 -----------------------    if ( !xQueueGenericReceive(xTestQueue, &xData, xTimeToBlock, 0) ) goto g5;
     473                      .dwpsn  file "../FreeRTOS/Demo/Common/Minimal/blocktim.c",line 144,column 4,is_stmt
     474              
     475 000097 2295          T1 = AR1
     476 000099 3DA0  ||      AC0 = #10
     477              
     478 00009b 5C05          AC0 = AC0 << T1 ; |144| 
     479              
     480 00009d A010          AC0 = @AC0_L ; |144| 
     481 00009f 98    ||      mmap()
     482              
     483 0000a0 EB04          dbl(*SP(#2)) = AC0 ; |144| 
         0000a2 08   
     484                      .dwpsn  file "../FreeRTOS/Demo/Common/Minimal/blocktim.c",line 146,column 4,is_stmt
     485              $C$DW$51        .dwtag  DW_TAG_TI_branch
     486                      .dwattr $C$DW$51, DW_AT_low_pc(0x00)
     487                      .dwattr $C$DW$51, DW_AT_name("_xTaskGetTickCount")
     488                      .dwattr $C$DW$51, DW_AT_TI_call
     489 0000a3 6C00          call #_xTaskGetTickCount ; |146| 
         0000a5 0000!
     490                                                      ; call occurs [#_xTaskGetTickCount] ; |146| 
     491 0000a7 EB08          dbl(*SP(#4)) = AC0 ; |146| 
         0000a9 08   
     492                      .dwpsn  file "../FreeRTOS/Demo/Common/Minimal/blocktim.c",line 150,column 4,is_stmt
     493 0000aa ED31          XAR0 = dbl(*(#_xTestQueue))
         0000ac 8F00 
         0000ae 0000-
     494 0000b0 ED04          AC0 = dbl(*SP(#2)) ; |150| 
         0000b2 08   
     495 0000b3 EC00          XAR1 = mar(*SP(#0))
         0000b5 9E   
     496              $C$DW$52        .dwtag  DW_TAG_TI_branch
     497                      .dwattr $C$DW$52, DW_AT_low_pc(0x00)
     498                      .dwattr $C$DW$52, DW_AT_name("_xQueueGenericReceive")
     499                      .dwattr $C$DW$52, DW_AT_TI_call
     500              
     501 0000b6 6C00          call #_xQueueGenericReceive ; |150| 
         0000b8 0000!
     502 0000ba 3D04  ||      T0 = #0
     503              
TMS320C55x Assembler PC v4.3.8 Fri Jan 21 01:13:33 2011

Tools Copyright (c) 1996-2010 Texas Instruments Incorporated
blocktim.asm                                                         PAGE   11

     504                                                      ; call occurs [#_xQueueGenericReceive] ; |150| 
     505 0000bc 6304          if (T0 == #0) goto $C$L3 ; |150| 
     506                                                      ; branchcc occurs ; |150| 
     507 0000be       $C$DW$L$_vPrimaryBlockTimeTestTask$3$E:
     508 0000be       $C$DW$L$_vPrimaryBlockTimeTestTask$4$B:
     509              ;** 152 -----------------------    xErrorOccurred = 1;
     510                      .dwpsn  file "../FreeRTOS/Demo/Common/Minimal/blocktim.c",line 152,column 5,is_stmt
     511 0000be E631          *(#_xErrorOccurred) = #1 ; |152| 
         0000c0 0100 
         0000c2 0006-
     512 0000c4       $C$DW$L$_vPrimaryBlockTimeTestTask$4$E:
     513 0000c4       $C$L3:    
     514 0000c4       $C$DW$L$_vPrimaryBlockTimeTestTask$5$B:
     515              ;**     -----------------------g5:
     516              ;** 156 -----------------------    xBlockedTime = xTaskGetTickCount()-xTimeWhenBlocking;
     517              ;** 158 -----------------------    if ( xBlockedTime >= xTimeToBlock ) goto g7;
     518                      .dwpsn  file "../FreeRTOS/Demo/Common/Minimal/blocktim.c",line 156,column 4,is_stmt
     519              $C$DW$53        .dwtag  DW_TAG_TI_branch
     520                      .dwattr $C$DW$53, DW_AT_low_pc(0x00)
     521                      .dwattr $C$DW$53, DW_AT_name("_xTaskGetTickCount")
     522                      .dwattr $C$DW$53, DW_AT_TI_call
     523 0000c4 6C00          call #_xTaskGetTickCount ; |156| 
         0000c6 0000!
     524                                                      ; call occurs [#_xTaskGetTickCount] ; |156| 
     525 0000c8 ED08          AC0 = AC0 - dbl(*SP(#4)) ; |156| 
         0000ca 02   
     526                      .dwpsn  file "../FreeRTOS/Demo/Common/Minimal/blocktim.c",line 158,column 4,is_stmt
     527 0000cb ED04          AC1 = dbl(*SP(#2))
         0000cd 18   
     528 0000ce 1208          TC1 = uns(AC0 >= AC1) ; |158| 
         0000d0 14   
     529 0000d1 6364          if (TC1) goto $C$L4 ; |158| 
     530                                                      ; branchcc occurs ; |158| 
     531 0000d3       $C$DW$L$_vPrimaryBlockTimeTestTask$5$E:
     532 0000d3       $C$DW$L$_vPrimaryBlockTimeTestTask$6$B:
     533              ;** 161 -----------------------    xErrorOccurred = 1;
     534                      .dwpsn  file "../FreeRTOS/Demo/Common/Minimal/blocktim.c",line 161,column 5,is_stmt
     535 0000d3 E631          *(#_xErrorOccurred) = #1 ; |161| 
         0000d5 0100 
         0000d7 0006-
     536 0000d9       $C$DW$L$_vPrimaryBlockTimeTestTask$6$E:
     537 0000d9       $C$L4:    
     538 0000d9       $C$DW$L$_vPrimaryBlockTimeTestTask$7$B:
     539              ;**     -----------------------g7:
     540              ;** 164 -----------------------    if ( xBlockedTime <= xTimeToBlock+15uL ) goto g9;
     541                      .dwpsn  file "../FreeRTOS/Demo/Common/Minimal/blocktim.c",line 164,column 4,is_stmt
     542 0000d9 ED04          AC1 = dbl(*SP(#2))
         0000db 18   
     543 0000dc 40F1          AC1 = AC1 + #15 ; |164| 
     544 0000de 1218          TC1 = uns(AC0 <= AC1) ; |164| 
         0000e0 04   
     545 0000e1 6364          if (TC1) goto $C$L5 ; |164| 
     546                                                      ; branchcc occurs ; |164| 
     547 0000e3       $C$DW$L$_vPrimaryBlockTimeTestTask$7$E:
     548 0000e3       $C$DW$L$_vPrimaryBlockTimeTestTask$8$B:
TMS320C55x Assembler PC v4.3.8 Fri Jan 21 01:13:33 2011

Tools Copyright (c) 1996-2010 Texas Instruments Incorporated
blocktim.asm                                                         PAGE   12

     549              ;** 169 -----------------------    xErrorOccurred = 1;
     550                      .dwpsn  file "../FreeRTOS/Demo/Common/Minimal/blocktim.c",line 169,column 5,is_stmt
     551 0000e3 E631          *(#_xErrorOccurred) = #1 ; |169| 
         0000e5 0100 
         0000e7 0006-
     552 0000e9       $C$DW$L$_vPrimaryBlockTimeTestTask$8$E:
     553 0000e9       $C$L5:    
     554 0000e9       $C$DW$L$_vPrimaryBlockTimeTestTask$9$B:
     555              ;**     -----------------------g9:
     556              ;** 140 -----------------------    if ( (++xItem) < 5 ) goto g3;
     557                      .dwpsn  file "../FreeRTOS/Demo/Common/Minimal/blocktim.c",line 140,column 44,is_stmt
     558 0000e9 A902          AR1 = *SP(#1) ; |140| 
     559              
     560 0000eb 4019          AR1 = AR1 + #1 ; |140| 
     561 0000ed 3D5A  ||      AR2 = #5
     562              
     563 0000ef 1294          TC1 = (AR1 < AR2) ; |140| 
         0000f1 A0   
     564 0000f2 C902          *SP(#1) = AR1 ; |140| 
     565 0000f4 0464          if (TC1) goto $C$L2 ; |140| 
         0000f6 A0   
     566                                                      ; branchcc occurs ; |140| 
     567 0000f7       $C$DW$L$_vPrimaryBlockTimeTestTask$9$E:
     568 0000f7       $C$L6:    
     569 0000f7       $C$DW$L$_vPrimaryBlockTimeTestTask$10$B:
     570              ;**     -----------------------g10:
     571              ;** 179 -----------------------    xItem = 0;
     572              ;** 179 -----------------------    if ( xItem >= 5 ) goto g14;
     573                      .dwpsn  file "../FreeRTOS/Demo/Common/Minimal/blocktim.c",line 179,column 8,is_stmt
     574 0000f7 E602          *SP(#1) = #0 ; |179| 
         0000f9 00   
     575                      .dwpsn  file "../FreeRTOS/Demo/Common/Minimal/blocktim.c",line 179,column 19,is_stmt
     576 0000fa A902          AR1 = *SP(#1) ; |179| 
     577 0000fc 1298          TC1 = (AR1 >= AR7) ; |179| 
         0000fe F0   
     578 0000ff 0464          if (TC1) goto $C$L9 ; |179| 
         000101 2C   
     579                                                      ; branchcc occurs ; |179| 
     580 000102       $C$DW$L$_vPrimaryBlockTimeTestTask$10$E:
     581 000102       $C$L7:    
     582 000102       $C$DW$L$_vPrimaryBlockTimeTestTask$11$B:
     583              ;**     -----------------------g11:
     584              ;** 181 -----------------------    if ( xQueueGenericSend(xTestQueue, &xItem, 0uL, 0) == 1 ) goto g13;
     585                      .dwpsn  file "../FreeRTOS/Demo/Common/Minimal/blocktim.c",line 181,column 4,is_stmt
     586 000102 ED31          XAR0 = dbl(*(#_xTestQueue))
         000104 8F00 
         000106 0000-
     587              
     588 00010b 3D00          AC0 = #0  ; |181| 
     589 000108 EC02  ||      XAR1 = mar(*SP(#1))
         00010a 9E   
     590              
     591              $C$DW$54        .dwtag  DW_TAG_TI_branch
     592                      .dwattr $C$DW$54, DW_AT_low_pc(0x00)
     593                      .dwattr $C$DW$54, DW_AT_name("_xQueueGenericSend")
TMS320C55x Assembler PC v4.3.8 Fri Jan 21 01:13:33 2011

Tools Copyright (c) 1996-2010 Texas Instruments Incorporated
blocktim.asm                                                         PAGE   13

     594                      .dwattr $C$DW$54, DW_AT_TI_call
     595              
     596 00010d 6C00          call #_xQueueGenericSend ; |181| 
         00010f 0000!
     597 000111 3D04  ||      T0 = #0
     598              
     599                                                      ; call occurs [#_xQueueGenericSend] ; |181| 
     600 000113 3C19          AR1 = #1
     601 000115 1240          TC1 = (T0 == AR1) ; |181| 
         000117 90   
     602 000118 6364          if (TC1) goto $C$L8 ; |181| 
     603                                                      ; branchcc occurs ; |181| 
     604 00011a       $C$DW$L$_vPrimaryBlockTimeTestTask$11$E:
     605 00011a       $C$DW$L$_vPrimaryBlockTimeTestTask$12$B:
     606              ;** 183 -----------------------    xErrorOccurred = 1;
     607                      .dwpsn  file "../FreeRTOS/Demo/Common/Minimal/blocktim.c",line 183,column 5,is_stmt
     608 00011a E631          *(#_xErrorOccurred) = #1 ; |183| 
         00011c 0100 
         00011e 0006-
     609 000120       $C$DW$L$_vPrimaryBlockTimeTestTask$12$E:
     610 000120       $C$L8:    
     611 000120       $C$DW$L$_vPrimaryBlockTimeTestTask$13$B:
     612              ;**     -----------------------g13:
     613              ;** 179 -----------------------    if ( (++xItem) < 5 ) goto g11;
     614                      .dwpsn  file "../FreeRTOS/Demo/Common/Minimal/blocktim.c",line 179,column 44,is_stmt
     615 000120 A902          AR1 = *SP(#1) ; |179| 
     616              
     617 000122 4019          AR1 = AR1 + #1 ; |179| 
     618 000124 3D5A  ||      AR2 = #5
     619              
     620 000126 1294          TC1 = (AR1 < AR2) ; |179| 
         000128 A0   
     621 000129 C902          *SP(#1) = AR1 ; |179| 
     622 00012b 0464          if (TC1) goto $C$L7 ; |179| 
         00012d D4   
     623                                                      ; branchcc occurs ; |179| 
     624 00012e       $C$DW$L$_vPrimaryBlockTimeTestTask$13$E:
     625 00012e       $C$L9:    
     626 00012e       $C$DW$L$_vPrimaryBlockTimeTestTask$14$B:
     627              ;**     -----------------------g14:
     628              ;** 191 -----------------------    xItem = 0;
     629              ;** 191 -----------------------    if ( xItem >= 5 ) goto g22;
     630                      .dwpsn  file "../FreeRTOS/Demo/Common/Minimal/blocktim.c",line 191,column 8,is_stmt
     631 00012e E602          *SP(#1) = #0 ; |191| 
         000130 00   
     632                      .dwpsn  file "../FreeRTOS/Demo/Common/Minimal/blocktim.c",line 191,column 19,is_stmt
     633 000131 A902          AR1 = *SP(#1) ; |191| 
     634 000133 1298          TC1 = (AR1 >= AR6) ; |191| 
         000135 E0   
     635 000136 0464          if (TC1) goto $C$L14 ; |191| 
         000138 60   
     636                                                      ; branchcc occurs ; |191| 
     637 000139       $C$DW$L$_vPrimaryBlockTimeTestTask$14$E:
     638 000139       $C$L10:    
     639 000139       $C$DW$L$_vPrimaryBlockTimeTestTask$15$B:
TMS320C55x Assembler PC v4.3.8 Fri Jan 21 01:13:33 2011

Tools Copyright (c) 1996-2010 Texas Instruments Incorporated
blocktim.asm                                                         PAGE   14

     640              ;**     -----------------------g15:
     641              ;** 195 -----------------------    xTimeToBlock = 10<<xItem;
     642              ;** 197 -----------------------    xTimeWhenBlocking = xTaskGetTickCount();
     643              ;** 201 -----------------------    if ( !xQueueGenericSend(xTestQueue, &xItem, xTimeToBlock, 0) ) goto g17;
     644                      .dwpsn  file "../FreeRTOS/Demo/Common/Minimal/blocktim.c",line 195,column 4,is_stmt
     645              
     646 000139 2295          T1 = AR1
     647 00013b 3DA0  ||      AC0 = #10
     648              
     649 00013d 5C05          AC0 = AC0 << T1 ; |195| 
     650              
     651 00013f A010          AC0 = @AC0_L ; |195| 
     652 000141 98    ||      mmap()
     653              
     654 000142 EB04          dbl(*SP(#2)) = AC0 ; |195| 
         000144 08   
     655                      .dwpsn  file "../FreeRTOS/Demo/Common/Minimal/blocktim.c",line 197,column 4,is_stmt
     656              $C$DW$55        .dwtag  DW_TAG_TI_branch
     657                      .dwattr $C$DW$55, DW_AT_low_pc(0x00)
     658                      .dwattr $C$DW$55, DW_AT_name("_xTaskGetTickCount")
     659                      .dwattr $C$DW$55, DW_AT_TI_call
     660 000145 6C00          call #_xTaskGetTickCount ; |197| 
         000147 0000!
     661                                                      ; call occurs [#_xTaskGetTickCount] ; |197| 
     662 000149 EB08          dbl(*SP(#4)) = AC0 ; |197| 
         00014b 08   
     663                      .dwpsn  file "../FreeRTOS/Demo/Common/Minimal/blocktim.c",line 201,column 4,is_stmt
     664 00014c ED31          XAR0 = dbl(*(#_xTestQueue))
         00014e 8F00 
         000150 0000-
     665 000152 ED04          AC0 = dbl(*SP(#2)) ; |201| 
         000154 08   
     666 000155 EC02          XAR1 = mar(*SP(#1))
         000157 9E   
     667              $C$DW$56        .dwtag  DW_TAG_TI_branch
     668                      .dwattr $C$DW$56, DW_AT_low_pc(0x00)
     669                      .dwattr $C$DW$56, DW_AT_name("_xQueueGenericSend")
     670                      .dwattr $C$DW$56, DW_AT_TI_call
     671              
     672 000158 6C00          call #_xQueueGenericSend ; |201| 
         00015a 0000!
     673 00015c 3D04  ||      T0 = #0
     674              
     675                                                      ; call occurs [#_xQueueGenericSend] ; |201| 
     676 00015e 6304          if (T0 == #0) goto $C$L11 ; |201| 
     677                                                      ; branchcc occurs ; |201| 
     678 000160       $C$DW$L$_vPrimaryBlockTimeTestTask$15$E:
     679 000160       $C$DW$L$_vPrimaryBlockTimeTestTask$16$B:
     680              ;** 203 -----------------------    xErrorOccurred = 1;
     681                      .dwpsn  file "../FreeRTOS/Demo/Common/Minimal/blocktim.c",line 203,column 5,is_stmt
     682 000160 E631          *(#_xErrorOccurred) = #1 ; |203| 
         000162 0100 
         000164 0006-
     683 000166       $C$DW$L$_vPrimaryBlockTimeTestTask$16$E:
     684 000166       $C$L11:    
TMS320C55x Assembler PC v4.3.8 Fri Jan 21 01:13:33 2011

Tools Copyright (c) 1996-2010 Texas Instruments Incorporated
blocktim.asm                                                         PAGE   15

     685 000166       $C$DW$L$_vPrimaryBlockTimeTestTask$17$B:
     686              ;**     -----------------------g17:
     687              ;** 207 -----------------------    xBlockedTime = xTaskGetTickCount()-xTimeWhenBlocking;
     688              ;** 209 -----------------------    if ( xBlockedTime >= xTimeToBlock ) goto g19;
     689                      .dwpsn  file "../FreeRTOS/Demo/Common/Minimal/blocktim.c",line 207,column 4,is_stmt
     690              $C$DW$57        .dwtag  DW_TAG_TI_branch
     691                      .dwattr $C$DW$57, DW_AT_low_pc(0x00)
     692                      .dwattr $C$DW$57, DW_AT_name("_xTaskGetTickCount")
     693                      .dwattr $C$DW$57, DW_AT_TI_call
     694 000166 6C00          call #_xTaskGetTickCount ; |207| 
         000168 0000!
     695                                                      ; call occurs [#_xTaskGetTickCount] ; |207| 
     696 00016a ED08          AC0 = AC0 - dbl(*SP(#4)) ; |207| 
         00016c 02   
     697                      .dwpsn  file "../FreeRTOS/Demo/Common/Minimal/blocktim.c",line 209,column 4,is_stmt
     698 00016d ED04          AC1 = dbl(*SP(#2))
         00016f 18   
     699 000170 1208          TC1 = uns(AC0 >= AC1) ; |209| 
         000172 14   
     700 000173 6364          if (TC1) goto $C$L12 ; |209| 
     701                                                      ; branchcc occurs ; |209| 
     702 000175       $C$DW$L$_vPrimaryBlockTimeTestTask$17$E:
     703 000175       $C$DW$L$_vPrimaryBlockTimeTestTask$18$B:
     704              ;** 212 -----------------------    xErrorOccurred = 1;
     705                      .dwpsn  file "../FreeRTOS/Demo/Common/Minimal/blocktim.c",line 212,column 5,is_stmt
     706 000175 E631          *(#_xErrorOccurred) = #1 ; |212| 
         000177 0100 
         000179 0006-
     707 00017b       $C$DW$L$_vPrimaryBlockTimeTestTask$18$E:
     708 00017b       $C$L12:    
     709 00017b       $C$DW$L$_vPrimaryBlockTimeTestTask$19$B:
     710              ;**     -----------------------g19:
     711              ;** 215 -----------------------    if ( xBlockedTime <= xTimeToBlock+15uL ) goto g21;
     712                      .dwpsn  file "../FreeRTOS/Demo/Common/Minimal/blocktim.c",line 215,column 4,is_stmt
     713 00017b ED04          AC1 = dbl(*SP(#2))
         00017d 18   
     714 00017e 40F1          AC1 = AC1 + #15 ; |215| 
     715 000180 1218          TC1 = uns(AC0 <= AC1) ; |215| 
         000182 04   
     716 000183 6364          if (TC1) goto $C$L13 ; |215| 
     717                                                      ; branchcc occurs ; |215| 
     718 000185       $C$DW$L$_vPrimaryBlockTimeTestTask$19$E:
     719 000185       $C$DW$L$_vPrimaryBlockTimeTestTask$20$B:
     720              ;** 220 -----------------------    xErrorOccurred = 1;
     721                      .dwpsn  file "../FreeRTOS/Demo/Common/Minimal/blocktim.c",line 220,column 5,is_stmt
     722 000185 E631          *(#_xErrorOccurred) = #1 ; |220| 
         000187 0100 
         000189 0006-
     723 00018b       $C$DW$L$_vPrimaryBlockTimeTestTask$20$E:
     724 00018b       $C$L13:    
     725 00018b       $C$DW$L$_vPrimaryBlockTimeTestTask$21$B:
     726              ;**     -----------------------g21:
     727              ;** 191 -----------------------    if ( (++xItem) < 5 ) goto g15;
     728                      .dwpsn  file "../FreeRTOS/Demo/Common/Minimal/blocktim.c",line 191,column 44,is_stmt
     729 00018b A902          AR1 = *SP(#1) ; |191| 
TMS320C55x Assembler PC v4.3.8 Fri Jan 21 01:13:33 2011

Tools Copyright (c) 1996-2010 Texas Instruments Incorporated
blocktim.asm                                                         PAGE   16

     730              
     731 00018d 4019          AR1 = AR1 + #1 ; |191| 
     732 00018f 3D5A  ||      AR2 = #5
     733              
     734 000191 1294          TC1 = (AR1 < AR2) ; |191| 
         000193 A0   
     735 000194 C902          *SP(#1) = AR1 ; |191| 
     736 000196 0464          if (TC1) goto $C$L10 ; |191| 
         000198 A0   
     737                                                      ; branchcc occurs ; |191| 
     738 000199       $C$DW$L$_vPrimaryBlockTimeTestTask$21$E:
     739 000199       $C$L14:    
     740 000199       $C$DW$L$_vPrimaryBlockTimeTestTask$22$B:
     741              ;**     -----------------------g22:
     742              ;** 236 -----------------------    xRunIndicator = 0u;
     743              ;** 237 -----------------------    vTaskResume(xSecondary);
     744              ;** 240 -----------------------    if ( xRunIndicator == 85u ) goto g24;
     745                      .dwpsn  file "../FreeRTOS/Demo/Common/Minimal/blocktim.c",line 236,column 3,is_stmt
     746 000199 E631          *(#_xRunIndicator) = #0 ; |236| 
         00019b 0000 
         00019d 0007-
     747                      .dwpsn  file "../FreeRTOS/Demo/Common/Minimal/blocktim.c",line 237,column 3,is_stmt
     748 00019f ED31          XAR0 = dbl(*(#_xSecondary))
         0001a1 8F00 
         0001a3 0002-
     749              $C$DW$58        .dwtag  DW_TAG_TI_branch
     750                      .dwattr $C$DW$58, DW_AT_low_pc(0x00)
     751                      .dwattr $C$DW$58, DW_AT_name("_vTaskResume")
     752                      .dwattr $C$DW$58, DW_AT_TI_call
     753 0001a5 6C00          call #_vTaskResume ; |237| 
         0001a7 0000!
     754                                                      ; call occurs [#_vTaskResume] ; |237| 
     755                      .dwpsn  file "../FreeRTOS/Demo/Common/Minimal/blocktim.c",line 240,column 10,is_stmt
     756 0001a9 F031          TC1 = (*(#_xRunIndicator) == #85) ; |240| 
         0001ab 0055 
         0001ad 0000 
         0001af 07-  
     757 0001b0 0464          if (TC1) goto $C$L16 ; |240| 
         0001b2 12   
     758                                                      ; branchcc occurs ; |240| 
     759 0001b3       $C$DW$L$_vPrimaryBlockTimeTestTask$22$E:
     760 0001b3       $C$L15:    
     761 0001b3       $C$DW$L$_vPrimaryBlockTimeTestTask$23$B:
     762              ;**     -----------------------g23:
     763              ;** 243 -----------------------    vTaskDelay(20uL);
     764              ;** 240 -----------------------    if ( xRunIndicator != 85u ) goto g23;
     765                      .dwpsn  file "../FreeRTOS/Demo/Common/Minimal/blocktim.c",line 243,column 4,is_stmt
     766 0001b3 7600          AC0 = #20 ; |243| 
         0001b5 1408 
     767              $C$DW$59        .dwtag  DW_TAG_TI_branch
     768                      .dwattr $C$DW$59, DW_AT_low_pc(0x00)
     769                      .dwattr $C$DW$59, DW_AT_name("_vTaskDelay")
     770                      .dwattr $C$DW$59, DW_AT_TI_call
     771 0001b7 6C00          call #_vTaskDelay ; |243| 
         0001b9 0000!
TMS320C55x Assembler PC v4.3.8 Fri Jan 21 01:13:33 2011

Tools Copyright (c) 1996-2010 Texas Instruments Incorporated
blocktim.asm                                                         PAGE   17

     772                                                      ; call occurs [#_vTaskDelay] ; |243| 
     773                      .dwpsn  file "../FreeRTOS/Demo/Common/Minimal/blocktim.c",line 240,column 10,is_stmt
     774 0001bb F031          TC1 = (*(#_xRunIndicator) == #85) ; |240| 
         0001bd 0055 
         0001bf 0000 
         0001c1 07-  
     775 0001c2 0474          if (!TC1) goto $C$L15 ; |240| 
         0001c4 EE   
     776                                                      ; branchcc occurs ; |240| 
     777 0001c5       $C$DW$L$_vPrimaryBlockTimeTestTask$23$E:
     778 0001c5       $C$L16:    
     779 0001c5       $C$DW$L$_vPrimaryBlockTimeTestTask$24$B:
     780              ;**     -----------------------g24:
     781              ;** 246 -----------------------    vTaskDelay(20uL);
     782              ;** 247 -----------------------    xRunIndicator = 0u;
     783              ;** 249 -----------------------    xItem = 0;
     784              ;** 249 -----------------------    if ( xItem >= 5 ) goto g34;
     785                      .dwpsn  file "../FreeRTOS/Demo/Common/Minimal/blocktim.c",line 246,column 3,is_stmt
     786 0001c5 7600          AC0 = #20 ; |246| 
         0001c7 1408 
     787              $C$DW$60        .dwtag  DW_TAG_TI_branch
     788                      .dwattr $C$DW$60, DW_AT_low_pc(0x00)
     789                      .dwattr $C$DW$60, DW_AT_name("_vTaskDelay")
     790                      .dwattr $C$DW$60, DW_AT_TI_call
     791 0001c9 6C00          call #_vTaskDelay ; |246| 
         0001cb 0000!
     792                                                      ; call occurs [#_vTaskDelay] ; |246| 
     793                      .dwpsn  file "../FreeRTOS/Demo/Common/Minimal/blocktim.c",line 247,column 3,is_stmt
     794 0001cd E631          *(#_xRunIndicator) = #0 ; |247| 
         0001cf 0000 
         0001d1 0007-
     795                      .dwpsn  file "../FreeRTOS/Demo/Common/Minimal/blocktim.c",line 249,column 8,is_stmt
     796 0001d3 E602          *SP(#1) = #0 ; |249| 
         0001d5 00   
     797                      .dwpsn  file "../FreeRTOS/Demo/Common/Minimal/blocktim.c",line 249,column 19,is_stmt
     798 0001d6 A902          AR1 = *SP(#1) ; |249| 
     799 0001d8 1298          TC1 = (AR1 >= AR5) ; |249| 
         0001da D0   
     800 0001db 6D64          if (TC1) goto $C$L22 ; |249| 
         0001dd 0081 
     801                                                      ; branchcc occurs ; |249| 
     802 0001df       $C$DW$L$_vPrimaryBlockTimeTestTask$24$E:
     803 0001df       $C$L17:    
     804 0001df       $C$DW$L$_vPrimaryBlockTimeTestTask$25$B:
     805              ;**     -----------------------g25:
     806              ;** 253 -----------------------    if ( xQueueGenericReceive(xTestQueue, &xData, 0uL, 0) == 1 ) goto g27;
     807                      .dwpsn  file "../FreeRTOS/Demo/Common/Minimal/blocktim.c",line 253,column 4,is_stmt
     808 0001df ED31          XAR0 = dbl(*(#_xTestQueue))
         0001e1 8F00 
         0001e3 0000-
     809              
     810 0001e8 3D00          AC0 = #0  ; |253| 
     811 0001e5 EC00  ||      XAR1 = mar(*SP(#0))
         0001e7 9E   
     812              
TMS320C55x Assembler PC v4.3.8 Fri Jan 21 01:13:33 2011

Tools Copyright (c) 1996-2010 Texas Instruments Incorporated
blocktim.asm                                                         PAGE   18

     813              $C$DW$61        .dwtag  DW_TAG_TI_branch
     814                      .dwattr $C$DW$61, DW_AT_low_pc(0x00)
     815                      .dwattr $C$DW$61, DW_AT_name("_xQueueGenericReceive")
     816                      .dwattr $C$DW$61, DW_AT_TI_call
     817              
     818 0001ea 6C00          call #_xQueueGenericReceive ; |253| 
         0001ec 0000!
     819 0001ee 3D04  ||      T0 = #0
     820              
     821                                                      ; call occurs [#_xQueueGenericReceive] ; |253| 
     822 0001f0 3C19          AR1 = #1
     823 0001f2 1240          TC1 = (T0 == AR1) ; |253| 
         0001f4 90   
     824 0001f5 6364          if (TC1) goto $C$L18 ; |253| 
     825                                                      ; branchcc occurs ; |253| 
     826 0001f7       $C$DW$L$_vPrimaryBlockTimeTestTask$25$E:
     827 0001f7       $C$DW$L$_vPrimaryBlockTimeTestTask$26$B:
     828              ;** 255 -----------------------    xErrorOccurred = 1;
     829                      .dwpsn  file "../FreeRTOS/Demo/Common/Minimal/blocktim.c",line 255,column 5,is_stmt
     830 0001f7 E631          *(#_xErrorOccurred) = #1 ; |255| 
         0001f9 0100 
         0001fb 0006-
     831 0001fd       $C$DW$L$_vPrimaryBlockTimeTestTask$26$E:
     832 0001fd       $C$L18:    
     833 0001fd       $C$DW$L$_vPrimaryBlockTimeTestTask$27$B:
     834              ;**     -----------------------g27:
     835              ;** 261 -----------------------    if ( xQueueGenericSend(xTestQueue, &xItem, 0uL, 0) == 1 ) goto g29;
     836                      .dwpsn  file "../FreeRTOS/Demo/Common/Minimal/blocktim.c",line 261,column 4,is_stmt
     837 0001fd ED31          XAR0 = dbl(*(#_xTestQueue))
         0001ff 8F00 
         000201 0000-
     838              
     839 000206 3D00          AC0 = #0  ; |261| 
     840 000203 EC02  ||      XAR1 = mar(*SP(#1))
         000205 9E   
     841              
     842              $C$DW$62        .dwtag  DW_TAG_TI_branch
     843                      .dwattr $C$DW$62, DW_AT_low_pc(0x00)
     844                      .dwattr $C$DW$62, DW_AT_name("_xQueueGenericSend")
     845                      .dwattr $C$DW$62, DW_AT_TI_call
     846              
     847 000208 6C00          call #_xQueueGenericSend ; |261| 
         00020a 0000!
     848 00020c 3D04  ||      T0 = #0
     849              
     850                                                      ; call occurs [#_xQueueGenericSend] ; |261| 
     851 00020e 3C19          AR1 = #1
     852 000210 1240          TC1 = (T0 == AR1) ; |261| 
         000212 90   
     853 000213 6364          if (TC1) goto $C$L19 ; |261| 
     854                                                      ; branchcc occurs ; |261| 
     855 000215       $C$DW$L$_vPrimaryBlockTimeTestTask$27$E:
     856 000215       $C$DW$L$_vPrimaryBlockTimeTestTask$28$B:
     857              ;** 263 -----------------------    xErrorOccurred = 1;
     858                      .dwpsn  file "../FreeRTOS/Demo/Common/Minimal/blocktim.c",line 263,column 5,is_stmt
TMS320C55x Assembler PC v4.3.8 Fri Jan 21 01:13:33 2011

Tools Copyright (c) 1996-2010 Texas Instruments Incorporated
blocktim.asm                                                         PAGE   19

     859 000215 E631          *(#_xErrorOccurred) = #1 ; |263| 
         000217 0100 
         000219 0006-
     860 00021b       $C$DW$L$_vPrimaryBlockTimeTestTask$28$E:
     861 00021b       $C$L19:    
     862 00021b       $C$DW$L$_vPrimaryBlockTimeTestTask$29$B:
     863              ;**     -----------------------g29:
     864              ;** 266 -----------------------    if ( xRunIndicator != 85u ) goto g31;
     865                      .dwpsn  file "../FreeRTOS/Demo/Common/Minimal/blocktim.c",line 266,column 4,is_stmt
     866 00021b F031          TC1 = (*(#_xRunIndicator) == #85) ; |266| 
         00021d 0055 
         00021f 0000 
         000221 07-  
     867 000222 6374          if (!TC1) goto $C$L20 ; |266| 
     868                                                      ; branchcc occurs ; |266| 
     869 000224       $C$DW$L$_vPrimaryBlockTimeTestTask$29$E:
     870 000224       $C$DW$L$_vPrimaryBlockTimeTestTask$30$B:
     871              ;** 269 -----------------------    xErrorOccurred = 1;
     872                      .dwpsn  file "../FreeRTOS/Demo/Common/Minimal/blocktim.c",line 269,column 5,is_stmt
     873 000224 E631          *(#_xErrorOccurred) = #1 ; |269| 
         000226 0100 
         000228 0006-
     874 00022a       $C$DW$L$_vPrimaryBlockTimeTestTask$30$E:
     875 00022a       $C$L20:    
     876 00022a       $C$DW$L$_vPrimaryBlockTimeTestTask$31$B:
     877              ;**     -----------------------g31:
     878              ;** 274 -----------------------    vTaskPrioritySet(xSecondary, 5u);
     879              ;** 278 -----------------------    if ( xRunIndicator != 85u ) goto g33;
     880                      .dwpsn  file "../FreeRTOS/Demo/Common/Minimal/blocktim.c",line 274,column 4,is_stmt
     881 00022a ED31          XAR0 = dbl(*(#_xSecondary))
         00022c 8F00 
         00022e 0002-
     882              $C$DW$63        .dwtag  DW_TAG_TI_branch
     883                      .dwattr $C$DW$63, DW_AT_low_pc(0x00)
     884                      .dwattr $C$DW$63, DW_AT_name("_vTaskPrioritySet")
     885                      .dwattr $C$DW$63, DW_AT_TI_call
     886              
     887 000230 6C00          call #_vTaskPrioritySet ; |274| 
         000232 0000!
     888 000234 3D54  ||      T0 = #5
     889              
     890                                                      ; call occurs [#_vTaskPrioritySet] ; |274| 
     891                      .dwpsn  file "../FreeRTOS/Demo/Common/Minimal/blocktim.c",line 278,column 4,is_stmt
     892 000236 F031          TC1 = (*(#_xRunIndicator) == #85) ; |278| 
         000238 0055 
         00023a 0000 
         00023c 07-  
     893 00023d 6374          if (!TC1) goto $C$L21 ; |278| 
     894                                                      ; branchcc occurs ; |278| 
     895 00023f       $C$DW$L$_vPrimaryBlockTimeTestTask$31$E:
     896 00023f       $C$DW$L$_vPrimaryBlockTimeTestTask$32$B:
     897              ;** 282 -----------------------    xErrorOccurred = 1;
     898                      .dwpsn  file "../FreeRTOS/Demo/Common/Minimal/blocktim.c",line 282,column 5,is_stmt
     899 00023f E631          *(#_xErrorOccurred) = #1 ; |282| 
         000241 0100 
TMS320C55x Assembler PC v4.3.8 Fri Jan 21 01:13:33 2011

Tools Copyright (c) 1996-2010 Texas Instruments Incorporated
blocktim.asm                                                         PAGE   20

         000243 0006-
     900 000245       $C$DW$L$_vPrimaryBlockTimeTestTask$32$E:
     901 000245       $C$L21:    
     902 000245       $C$DW$L$_vPrimaryBlockTimeTestTask$33$B:
     903              ;**     -----------------------g33:
     904              ;** 286 -----------------------    vTaskPrioritySet(xSecondary, 2u);
     905              ;** 249 -----------------------    if ( (++xItem) < 5 ) goto g25;
     906                      .dwpsn  file "../FreeRTOS/Demo/Common/Minimal/blocktim.c",line 286,column 4,is_stmt
     907 000245 ED31          XAR0 = dbl(*(#_xSecondary))
         000247 8F00 
         000249 0002-
     908              $C$DW$64        .dwtag  DW_TAG_TI_branch
     909                      .dwattr $C$DW$64, DW_AT_low_pc(0x00)
     910                      .dwattr $C$DW$64, DW_AT_name("_vTaskPrioritySet")
     911                      .dwattr $C$DW$64, DW_AT_TI_call
     912              
     913 00024b 6C00          call #_vTaskPrioritySet ; |286| 
         00024d 0000!
     914 00024f 3D24  ||      T0 = #2
     915              
     916                                                      ; call occurs [#_vTaskPrioritySet] ; |286| 
     917                      .dwpsn  file "../FreeRTOS/Demo/Common/Minimal/blocktim.c",line 249,column 44,is_stmt
     918 000251 A902          AR1 = *SP(#1) ; |249| 
     919              
     920 000253 4019          AR1 = AR1 + #1 ; |249| 
     921 000255 3D5A  ||      AR2 = #5
     922              
     923 000257 1294          TC1 = (AR1 < AR2) ; |249| 
         000259 A0   
     924 00025a C902          *SP(#1) = AR1 ; |249| 
     925 00025c 6D64          if (TC1) goto $C$L17 ; |249| 
         00025e FF7F 
     926                                                      ; branchcc occurs ; |249| 
     927 000260       $C$DW$L$_vPrimaryBlockTimeTestTask$33$E:
     928 000260       $C$L22:    
     929 000260       $C$DW$L$_vPrimaryBlockTimeTestTask$34$B:
     930              ;**     -----------------------g34:
     931              ;** 291 -----------------------    if ( xRunIndicator == 85u ) goto g36;
     932                      .dwpsn  file "../FreeRTOS/Demo/Common/Minimal/blocktim.c",line 291,column 10,is_stmt
     933 000260 F031          TC1 = (*(#_xRunIndicator) == #85) ; |291| 
         000262 0055 
         000264 0000 
         000266 07-  
     934 000267 0464          if (TC1) goto $C$L24 ; |291| 
         000269 12   
     935                                                      ; branchcc occurs ; |291| 
     936 00026a       $C$DW$L$_vPrimaryBlockTimeTestTask$34$E:
     937 00026a       $C$L23:    
     938 00026a       $C$DW$L$_vPrimaryBlockTimeTestTask$35$B:
     939              ;**     -----------------------g35:
     940              ;** 293 -----------------------    vTaskDelay(20uL);
     941              ;** 291 -----------------------    if ( xRunIndicator != 85u ) goto g35;
     942                      .dwpsn  file "../FreeRTOS/Demo/Common/Minimal/blocktim.c",line 293,column 4,is_stmt
     943 00026a 7600          AC0 = #20 ; |293| 
         00026c 1408 
TMS320C55x Assembler PC v4.3.8 Fri Jan 21 01:13:33 2011

Tools Copyright (c) 1996-2010 Texas Instruments Incorporated
blocktim.asm                                                         PAGE   21

     944              $C$DW$65        .dwtag  DW_TAG_TI_branch
     945                      .dwattr $C$DW$65, DW_AT_low_pc(0x00)
     946                      .dwattr $C$DW$65, DW_AT_name("_vTaskDelay")
     947                      .dwattr $C$DW$65, DW_AT_TI_call
     948 00026e 6C00          call #_vTaskDelay ; |293| 
         000270 0000!
     949                                                      ; call occurs [#_vTaskDelay] ; |293| 
     950                      .dwpsn  file "../FreeRTOS/Demo/Common/Minimal/blocktim.c",line 291,column 10,is_stmt
     951 000272 F031          TC1 = (*(#_xRunIndicator) == #85) ; |291| 
         000274 0055 
         000276 0000 
         000278 07-  
     952 000279 0474          if (!TC1) goto $C$L23 ; |291| 
         00027b EE   
     953                                                      ; branchcc occurs ; |291| 
     954 00027c       $C$DW$L$_vPrimaryBlockTimeTestTask$35$E:
     955 00027c       $C$L24:    
     956 00027c       $C$DW$L$_vPrimaryBlockTimeTestTask$36$B:
     957              ;**     -----------------------g36:
     958              ;** 295 -----------------------    vTaskDelay(20uL);
     959              ;** 296 -----------------------    xRunIndicator = 0u;
     960              ;** 306 -----------------------    xItem = 0;
     961              ;** 306 -----------------------    if ( xItem >= 5 ) goto g40;
     962                      .dwpsn  file "../FreeRTOS/Demo/Common/Minimal/blocktim.c",line 295,column 3,is_stmt
     963 00027c 7600          AC0 = #20 ; |295| 
         00027e 1408 
     964              $C$DW$66        .dwtag  DW_TAG_TI_branch
     965                      .dwattr $C$DW$66, DW_AT_low_pc(0x00)
     966                      .dwattr $C$DW$66, DW_AT_name("_vTaskDelay")
     967                      .dwattr $C$DW$66, DW_AT_TI_call
     968 000280 6C00          call #_vTaskDelay ; |295| 
         000282 0000!
     969                                                      ; call occurs [#_vTaskDelay] ; |295| 
     970                      .dwpsn  file "../FreeRTOS/Demo/Common/Minimal/blocktim.c",line 296,column 3,is_stmt
     971 000284 E631          *(#_xRunIndicator) = #0 ; |296| 
         000286 0000 
         000288 0007-
     972                      .dwpsn  file "../FreeRTOS/Demo/Common/Minimal/blocktim.c",line 306,column 8,is_stmt
     973 00028a E602          *SP(#1) = #0 ; |306| 
         00028c 00   
     974                      .dwpsn  file "../FreeRTOS/Demo/Common/Minimal/blocktim.c",line 306,column 19,is_stmt
     975 00028d A902          AR1 = *SP(#1) ; |306| 
     976 00028f 1298          TC1 = (AR1 >= T3) ; |306| 
         000291 70   
     977 000292 0464          if (TC1) goto $C$L27 ; |306| 
         000294 2C   
     978                                                      ; branchcc occurs ; |306| 
     979 000295       $C$DW$L$_vPrimaryBlockTimeTestTask$36$E:
     980 000295       $C$L25:    
     981 000295       $C$DW$L$_vPrimaryBlockTimeTestTask$37$B:
     982              ;**     -----------------------g37:
     983              ;** 308 -----------------------    if ( xQueueGenericReceive(xTestQueue, &xData, 0uL, 0) == 1 ) goto g39;
     984                      .dwpsn  file "../FreeRTOS/Demo/Common/Minimal/blocktim.c",line 308,column 4,is_stmt
     985 000295 ED31          XAR0 = dbl(*(#_xTestQueue))
         000297 8F00 
TMS320C55x Assembler PC v4.3.8 Fri Jan 21 01:13:33 2011

Tools Copyright (c) 1996-2010 Texas Instruments Incorporated
blocktim.asm                                                         PAGE   22

         000299 0000-
     986              
     987 00029e 3D00          AC0 = #0  ; |308| 
     988 00029b EC00  ||      XAR1 = mar(*SP(#0))
         00029d 9E   
     989              
     990              $C$DW$67        .dwtag  DW_TAG_TI_branch
     991                      .dwattr $C$DW$67, DW_AT_low_pc(0x00)
     992                      .dwattr $C$DW$67, DW_AT_name("_xQueueGenericReceive")
     993                      .dwattr $C$DW$67, DW_AT_TI_call
     994              
     995 0002a0 6C00          call #_xQueueGenericReceive ; |308| 
         0002a2 0000!
     996 0002a4 3D04  ||      T0 = #0
     997              
     998                                                      ; call occurs [#_xQueueGenericReceive] ; |308| 
     999 0002a6 3C19          AR1 = #1
    1000 0002a8 1240          TC1 = (T0 == AR1) ; |308| 
         0002aa 90   
    1001 0002ab 6364          if (TC1) goto $C$L26 ; |308| 
    1002                                                      ; branchcc occurs ; |308| 
    1003 0002ad       $C$DW$L$_vPrimaryBlockTimeTestTask$37$E:
    1004 0002ad       $C$DW$L$_vPrimaryBlockTimeTestTask$38$B:
    1005              ;** 310 -----------------------    xErrorOccurred = 1;
    1006                      .dwpsn  file "../FreeRTOS/Demo/Common/Minimal/blocktim.c",line 310,column 5,is_stmt
    1007 0002ad E631          *(#_xErrorOccurred) = #1 ; |310| 
         0002af 0100 
         0002b1 0006-
    1008 0002b3       $C$DW$L$_vPrimaryBlockTimeTestTask$38$E:
    1009 0002b3       $C$L26:    
    1010 0002b3       $C$DW$L$_vPrimaryBlockTimeTestTask$39$B:
    1011              ;**     -----------------------g39:
    1012              ;** 306 -----------------------    if ( (++xItem) < 5 ) goto g37;
    1013                      .dwpsn  file "../FreeRTOS/Demo/Common/Minimal/blocktim.c",line 306,column 44,is_stmt
    1014 0002b3 A902          AR1 = *SP(#1) ; |306| 
    1015              
    1016 0002b5 4019          AR1 = AR1 + #1 ; |306| 
    1017 0002b7 3D5A  ||      AR2 = #5
    1018              
    1019 0002b9 1294          TC1 = (AR1 < AR2) ; |306| 
         0002bb A0   
    1020 0002bc C902          *SP(#1) = AR1 ; |306| 
    1021 0002be 0464          if (TC1) goto $C$L25 ; |306| 
         0002c0 D4   
    1022                                                      ; branchcc occurs ; |306| 
    1023 0002c1       $C$DW$L$_vPrimaryBlockTimeTestTask$39$E:
    1024 0002c1       $C$L27:    
    1025 0002c1       $C$DW$L$_vPrimaryBlockTimeTestTask$40$B:
    1026              ;**     -----------------------g40:
    1027              ;** 316 -----------------------    vTaskResume(xSecondary);
    1028              ;** 319 -----------------------    if ( xRunIndicator == 85u ) goto g42;
    1029                      .dwpsn  file "../FreeRTOS/Demo/Common/Minimal/blocktim.c",line 316,column 3,is_stmt
    1030 0002c1 ED31          XAR0 = dbl(*(#_xSecondary))
         0002c3 8F00 
         0002c5 0002-
TMS320C55x Assembler PC v4.3.8 Fri Jan 21 01:13:33 2011

Tools Copyright (c) 1996-2010 Texas Instruments Incorporated
blocktim.asm                                                         PAGE   23

    1031              $C$DW$68        .dwtag  DW_TAG_TI_branch
    1032                      .dwattr $C$DW$68, DW_AT_low_pc(0x00)
    1033                      .dwattr $C$DW$68, DW_AT_name("_vTaskResume")
    1034                      .dwattr $C$DW$68, DW_AT_TI_call
    1035 0002c7 6C00          call #_vTaskResume ; |316| 
         0002c9 0000!
    1036                                                      ; call occurs [#_vTaskResume] ; |316| 
    1037                      .dwpsn  file "../FreeRTOS/Demo/Common/Minimal/blocktim.c",line 319,column 10,is_stmt
    1038 0002cb F031          TC1 = (*(#_xRunIndicator) == #85) ; |319| 
         0002cd 0055 
         0002cf 0000 
         0002d1 07-  
    1039 0002d2 0464          if (TC1) goto $C$L29 ; |319| 
         0002d4 12   
    1040                                                      ; branchcc occurs ; |319| 
    1041 0002d5       $C$DW$L$_vPrimaryBlockTimeTestTask$40$E:
    1042 0002d5       $C$L28:    
    1043 0002d5       $C$DW$L$_vPrimaryBlockTimeTestTask$41$B:
    1044              ;**     -----------------------g41:
    1045              ;** 321 -----------------------    vTaskDelay(20uL);
    1046              ;** 319 -----------------------    if ( xRunIndicator != 85u ) goto g41;
    1047                      .dwpsn  file "../FreeRTOS/Demo/Common/Minimal/blocktim.c",line 321,column 4,is_stmt
    1048 0002d5 7600          AC0 = #20 ; |321| 
         0002d7 1408 
    1049              $C$DW$69        .dwtag  DW_TAG_TI_branch
    1050                      .dwattr $C$DW$69, DW_AT_low_pc(0x00)
    1051                      .dwattr $C$DW$69, DW_AT_name("_vTaskDelay")
    1052                      .dwattr $C$DW$69, DW_AT_TI_call
    1053 0002d9 6C00          call #_vTaskDelay ; |321| 
         0002db 0000!
    1054                                                      ; call occurs [#_vTaskDelay] ; |321| 
    1055                      .dwpsn  file "../FreeRTOS/Demo/Common/Minimal/blocktim.c",line 319,column 10,is_stmt
    1056 0002dd F031          TC1 = (*(#_xRunIndicator) == #85) ; |319| 
         0002df 0055 
         0002e1 0000 
         0002e3 07-  
    1057 0002e4 0474          if (!TC1) goto $C$L28 ; |319| 
         0002e6 EE   
    1058                                                      ; branchcc occurs ; |319| 
    1059 0002e7       $C$DW$L$_vPrimaryBlockTimeTestTask$41$E:
    1060 0002e7       $C$L29:    
    1061 0002e7       $C$DW$L$_vPrimaryBlockTimeTestTask$42$B:
    1062              ;**     -----------------------g42:
    1063              ;** 323 -----------------------    vTaskDelay(20uL);
    1064              ;** 324 -----------------------    xRunIndicator = 0u;
    1065              ;** 326 -----------------------    xItem = 0;
    1066              ;** 326 -----------------------    if ( xItem >= 5 ) goto g52;
    1067                      .dwpsn  file "../FreeRTOS/Demo/Common/Minimal/blocktim.c",line 323,column 3,is_stmt
    1068 0002e7 7600          AC0 = #20 ; |323| 
         0002e9 1408 
    1069              $C$DW$70        .dwtag  DW_TAG_TI_branch
    1070                      .dwattr $C$DW$70, DW_AT_low_pc(0x00)
    1071                      .dwattr $C$DW$70, DW_AT_name("_vTaskDelay")
    1072                      .dwattr $C$DW$70, DW_AT_TI_call
    1073 0002eb 6C00          call #_vTaskDelay ; |323| 
TMS320C55x Assembler PC v4.3.8 Fri Jan 21 01:13:33 2011

Tools Copyright (c) 1996-2010 Texas Instruments Incorporated
blocktim.asm                                                         PAGE   24

         0002ed 0000!
    1074                                                      ; call occurs [#_vTaskDelay] ; |323| 
    1075                      .dwpsn  file "../FreeRTOS/Demo/Common/Minimal/blocktim.c",line 324,column 3,is_stmt
    1076 0002ef E631          *(#_xRunIndicator) = #0 ; |324| 
         0002f1 0000 
         0002f3 0007-
    1077                      .dwpsn  file "../FreeRTOS/Demo/Common/Minimal/blocktim.c",line 326,column 8,is_stmt
    1078 0002f5 E602          *SP(#1) = #0 ; |326| 
         0002f7 00   
    1079                      .dwpsn  file "../FreeRTOS/Demo/Common/Minimal/blocktim.c",line 326,column 19,is_stmt
    1080 0002f8 A902          AR1 = *SP(#1) ; |326| 
    1081 0002fa 1298          TC1 = (AR1 >= T2) ; |326| 
         0002fc 60   
    1082 0002fd 6D64          if (TC1) goto $C$L35 ; |326| 
         0002ff 0081 
    1083                                                      ; branchcc occurs ; |326| 
    1084 000301       $C$DW$L$_vPrimaryBlockTimeTestTask$42$E:
    1085 000301       $C$L30:    
    1086 000301       $C$DW$L$_vPrimaryBlockTimeTestTask$43$B:
    1087              ;**     -----------------------g43:
    1088              ;** 330 -----------------------    if ( xQueueGenericSend(xTestQueue, &xItem, 0uL, 0) == 1 ) goto g45;
    1089                      .dwpsn  file "../FreeRTOS/Demo/Common/Minimal/blocktim.c",line 330,column 4,is_stmt
    1090 000301 ED31          XAR0 = dbl(*(#_xTestQueue))
         000303 8F00 
         000305 0000-
    1091              
    1092 00030a 3D00          AC0 = #0  ; |330| 
    1093 000307 EC02  ||      XAR1 = mar(*SP(#1))
         000309 9E   
    1094              
    1095              $C$DW$71        .dwtag  DW_TAG_TI_branch
    1096                      .dwattr $C$DW$71, DW_AT_low_pc(0x00)
    1097                      .dwattr $C$DW$71, DW_AT_name("_xQueueGenericSend")
    1098                      .dwattr $C$DW$71, DW_AT_TI_call
    1099              
    1100 00030c 6C00          call #_xQueueGenericSend ; |330| 
         00030e 0000!
    1101 000310 3D04  ||      T0 = #0
    1102              
    1103                                                      ; call occurs [#_xQueueGenericSend] ; |330| 
    1104 000312 3C19          AR1 = #1
    1105 000314 1240          TC1 = (T0 == AR1) ; |330| 
         000316 90   
    1106 000317 6364          if (TC1) goto $C$L31 ; |330| 
    1107                                                      ; branchcc occurs ; |330| 
    1108 000319       $C$DW$L$_vPrimaryBlockTimeTestTask$43$E:
    1109 000319       $C$DW$L$_vPrimaryBlockTimeTestTask$44$B:
    1110              ;** 332 -----------------------    xErrorOccurred = 1;
    1111                      .dwpsn  file "../FreeRTOS/Demo/Common/Minimal/blocktim.c",line 332,column 5,is_stmt
    1112 000319 E631          *(#_xErrorOccurred) = #1 ; |332| 
         00031b 0100 
         00031d 0006-
    1113 00031f       $C$DW$L$_vPrimaryBlockTimeTestTask$44$E:
    1114 00031f       $C$L31:    
    1115 00031f       $C$DW$L$_vPrimaryBlockTimeTestTask$45$B:
TMS320C55x Assembler PC v4.3.8 Fri Jan 21 01:13:33 2011

Tools Copyright (c) 1996-2010 Texas Instruments Incorporated
blocktim.asm                                                         PAGE   25

    1116              ;**     -----------------------g45:
    1117              ;** 338 -----------------------    if ( xQueueGenericReceive(xTestQueue, &xData, 0uL, 0) == 1 ) goto g47;
    1118                      .dwpsn  file "../FreeRTOS/Demo/Common/Minimal/blocktim.c",line 338,column 4,is_stmt
    1119 00031f ED31          XAR0 = dbl(*(#_xTestQueue))
         000321 8F00 
         000323 0000-
    1120              
    1121 000328 3D00          AC0 = #0  ; |338| 
    1122 000325 EC00  ||      XAR1 = mar(*SP(#0))
         000327 9E   
    1123              
    1124              $C$DW$72        .dwtag  DW_TAG_TI_branch
    1125                      .dwattr $C$DW$72, DW_AT_low_pc(0x00)
    1126                      .dwattr $C$DW$72, DW_AT_name("_xQueueGenericReceive")
    1127                      .dwattr $C$DW$72, DW_AT_TI_call
    1128              
    1129 00032a 6C00          call #_xQueueGenericReceive ; |338| 
         00032c 0000!
    1130 00032e 3D04  ||      T0 = #0
    1131              
    1132                                                      ; call occurs [#_xQueueGenericReceive] ; |338| 
    1133 000330 3C19          AR1 = #1
    1134 000332 1240          TC1 = (T0 == AR1) ; |338| 
         000334 90   
    1135 000335 6364          if (TC1) goto $C$L32 ; |338| 
    1136                                                      ; branchcc occurs ; |338| 
    1137 000337       $C$DW$L$_vPrimaryBlockTimeTestTask$45$E:
    1138 000337       $C$DW$L$_vPrimaryBlockTimeTestTask$46$B:
    1139              ;** 340 -----------------------    xErrorOccurred = 1;
    1140                      .dwpsn  file "../FreeRTOS/Demo/Common/Minimal/blocktim.c",line 340,column 5,is_stmt
    1141 000337 E631          *(#_xErrorOccurred) = #1 ; |340| 
         000339 0100 
         00033b 0006-
    1142 00033d       $C$DW$L$_vPrimaryBlockTimeTestTask$46$E:
    1143 00033d       $C$L32:    
    1144 00033d       $C$DW$L$_vPrimaryBlockTimeTestTask$47$B:
    1145              ;**     -----------------------g47:
    1146              ;** 343 -----------------------    if ( xRunIndicator != 85u ) goto g49;
    1147                      .dwpsn  file "../FreeRTOS/Demo/Common/Minimal/blocktim.c",line 343,column 4,is_stmt
    1148 00033d F031          TC1 = (*(#_xRunIndicator) == #85) ; |343| 
         00033f 0055 
         000341 0000 
         000343 07-  
    1149 000344 6374          if (!TC1) goto $C$L33 ; |343| 
    1150                                                      ; branchcc occurs ; |343| 
    1151 000346       $C$DW$L$_vPrimaryBlockTimeTestTask$47$E:
    1152 000346       $C$DW$L$_vPrimaryBlockTimeTestTask$48$B:
    1153              ;** 346 -----------------------    xErrorOccurred = 1;
    1154                      .dwpsn  file "../FreeRTOS/Demo/Common/Minimal/blocktim.c",line 346,column 5,is_stmt
    1155 000346 E631          *(#_xErrorOccurred) = #1 ; |346| 
         000348 0100 
         00034a 0006-
    1156 00034c       $C$DW$L$_vPrimaryBlockTimeTestTask$48$E:
    1157 00034c       $C$L33:    
    1158 00034c       $C$DW$L$_vPrimaryBlockTimeTestTask$49$B:
TMS320C55x Assembler PC v4.3.8 Fri Jan 21 01:13:33 2011

Tools Copyright (c) 1996-2010 Texas Instruments Incorporated
blocktim.asm                                                         PAGE   26

    1159              ;**     -----------------------g49:
    1160              ;** 351 -----------------------    vTaskPrioritySet(xSecondary, 5u);
    1161              ;** 355 -----------------------    if ( xRunIndicator != 85u ) goto g51;
    1162                      .dwpsn  file "../FreeRTOS/Demo/Common/Minimal/blocktim.c",line 351,column 4,is_stmt
    1163 00034c ED31          XAR0 = dbl(*(#_xSecondary))
         00034e 8F00 
         000350 0002-
    1164              $C$DW$73        .dwtag  DW_TAG_TI_branch
    1165                      .dwattr $C$DW$73, DW_AT_low_pc(0x00)
    1166                      .dwattr $C$DW$73, DW_AT_name("_vTaskPrioritySet")
    1167                      .dwattr $C$DW$73, DW_AT_TI_call
    1168              
    1169 000352 6C00          call #_vTaskPrioritySet ; |351| 
         000354 0000!
    1170 000356 3D54  ||      T0 = #5
    1171              
    1172                                                      ; call occurs [#_vTaskPrioritySet] ; |351| 
    1173                      .dwpsn  file "../FreeRTOS/Demo/Common/Minimal/blocktim.c",line 355,column 4,is_stmt
    1174 000358 F031          TC1 = (*(#_xRunIndicator) == #85) ; |355| 
         00035a 0055 
         00035c 0000 
         00035e 07-  
    1175 00035f 6374          if (!TC1) goto $C$L34 ; |355| 
    1176                                                      ; branchcc occurs ; |355| 
    1177 000361       $C$DW$L$_vPrimaryBlockTimeTestTask$49$E:
    1178 000361       $C$DW$L$_vPrimaryBlockTimeTestTask$50$B:
    1179              ;** 359 -----------------------    xErrorOccurred = 1;
    1180                      .dwpsn  file "../FreeRTOS/Demo/Common/Minimal/blocktim.c",line 359,column 5,is_stmt
    1181 000361 E631          *(#_xErrorOccurred) = #1 ; |359| 
         000363 0100 
         000365 0006-
    1182 000367       $C$DW$L$_vPrimaryBlockTimeTestTask$50$E:
    1183 000367       $C$L34:    
    1184 000367       $C$DW$L$_vPrimaryBlockTimeTestTask$51$B:
    1185              ;**     -----------------------g51:
    1186              ;** 361 -----------------------    vTaskPrioritySet(xSecondary, 2u);
    1187              ;** 326 -----------------------    if ( (++xItem) < 5 ) goto g43;
    1188                      .dwpsn  file "../FreeRTOS/Demo/Common/Minimal/blocktim.c",line 361,column 4,is_stmt
    1189 000367 ED31          XAR0 = dbl(*(#_xSecondary))
         000369 8F00 
         00036b 0002-
    1190              $C$DW$74        .dwtag  DW_TAG_TI_branch
    1191                      .dwattr $C$DW$74, DW_AT_low_pc(0x00)
    1192                      .dwattr $C$DW$74, DW_AT_name("_vTaskPrioritySet")
    1193                      .dwattr $C$DW$74, DW_AT_TI_call
    1194              
    1195 00036d 6C00          call #_vTaskPrioritySet ; |361| 
         00036f 0000!
    1196 000371 3D24  ||      T0 = #2
    1197              
    1198                                                      ; call occurs [#_vTaskPrioritySet] ; |361| 
    1199                      .dwpsn  file "../FreeRTOS/Demo/Common/Minimal/blocktim.c",line 326,column 44,is_stmt
    1200 000373 A902          AR1 = *SP(#1) ; |326| 
    1201              
    1202 000375 4019          AR1 = AR1 + #1 ; |326| 
TMS320C55x Assembler PC v4.3.8 Fri Jan 21 01:13:33 2011

Tools Copyright (c) 1996-2010 Texas Instruments Incorporated
blocktim.asm                                                         PAGE   27

    1203 000377 3D5A  ||      AR2 = #5
    1204              
    1205 000379 1294          TC1 = (AR1 < AR2) ; |326| 
         00037b A0   
    1206 00037c C902          *SP(#1) = AR1 ; |326| 
    1207 00037e 6D64          if (TC1) goto $C$L30 ; |326| 
         000380 FF7F 
    1208                                                      ; branchcc occurs ; |326| 
    1209 000382       $C$DW$L$_vPrimaryBlockTimeTestTask$51$E:
    1210 000382       $C$L35:    
    1211 000382       $C$DW$L$_vPrimaryBlockTimeTestTask$52$B:
    1212              ;**     -----------------------g52:
    1213              ;** 366 -----------------------    if ( xRunIndicator == 85u ) goto g54;
    1214                      .dwpsn  file "../FreeRTOS/Demo/Common/Minimal/blocktim.c",line 366,column 10,is_stmt
    1215 000382 F031          TC1 = (*(#_xRunIndicator) == #85) ; |366| 
         000384 0055 
         000386 0000 
         000388 07-  
    1216 000389 0464          if (TC1) goto $C$L37 ; |366| 
         00038b 12   
    1217                                                      ; branchcc occurs ; |366| 
    1218 00038c       $C$DW$L$_vPrimaryBlockTimeTestTask$52$E:
    1219 00038c       $C$L36:    
    1220 00038c       $C$DW$L$_vPrimaryBlockTimeTestTask$53$B:
    1221              ;**     -----------------------g53:
    1222              ;** 368 -----------------------    vTaskDelay(20uL);
    1223              ;** 366 -----------------------    if ( xRunIndicator != 85u ) goto g53;
    1224                      .dwpsn  file "../FreeRTOS/Demo/Common/Minimal/blocktim.c",line 368,column 4,is_stmt
    1225 00038c 7600          AC0 = #20 ; |368| 
         00038e 1408 
    1226              $C$DW$75        .dwtag  DW_TAG_TI_branch
    1227                      .dwattr $C$DW$75, DW_AT_low_pc(0x00)
    1228                      .dwattr $C$DW$75, DW_AT_name("_vTaskDelay")
    1229                      .dwattr $C$DW$75, DW_AT_TI_call
    1230 000390 6C00          call #_vTaskDelay ; |368| 
         000392 0000!
    1231                                                      ; call occurs [#_vTaskDelay] ; |368| 
    1232                      .dwpsn  file "../FreeRTOS/Demo/Common/Minimal/blocktim.c",line 366,column 10,is_stmt
    1233 000394 F031          TC1 = (*(#_xRunIndicator) == #85) ; |366| 
         000396 0055 
         000398 0000 
         00039a 07-  
    1234 00039b 0474          if (!TC1) goto $C$L36 ; |366| 
         00039d EE   
    1235                                                      ; branchcc occurs ; |366| 
    1236 00039e       $C$DW$L$_vPrimaryBlockTimeTestTask$53$E:
    1237 00039e       $C$L37:    
    1238 00039e       $C$DW$L$_vPrimaryBlockTimeTestTask$54$B:
    1239              ;**     -----------------------g54:
    1240              ;** 370 -----------------------    vTaskDelay(20uL);
    1241              ;** 372 -----------------------    xPrimaryCycles = xPrimaryCycles+1;
    1242              ;** 373 -----------------------    goto g2;
    1243                      .dwpsn  file "../FreeRTOS/Demo/Common/Minimal/blocktim.c",line 370,column 3,is_stmt
    1244 00039e 7600          AC0 = #20 ; |370| 
         0003a0 1408 
TMS320C55x Assembler PC v4.3.8 Fri Jan 21 01:13:33 2011

Tools Copyright (c) 1996-2010 Texas Instruments Incorporated
blocktim.asm                                                         PAGE   28

    1245              $C$DW$76        .dwtag  DW_TAG_TI_branch
    1246                      .dwattr $C$DW$76, DW_AT_low_pc(0x00)
    1247                      .dwattr $C$DW$76, DW_AT_name("_vTaskDelay")
    1248                      .dwattr $C$DW$76, DW_AT_TI_call
    1249 0003a2 6C00          call #_vTaskDelay ; |370| 
         0003a4 0000!
    1250                                                      ; call occurs [#_vTaskDelay] ; |370| 
    1251                      .dwpsn  file "../FreeRTOS/Demo/Common/Minimal/blocktim.c",line 372,column 3,is_stmt
    1252 0003a6 F731          *(#_xPrimaryCycles) = *(#_xPrimaryCycles) + #1 ; |372| 
         0003a8 0001 
         0003aa 0000 
         0003ac 04-  
    1253                      .dwpsn  file "../FreeRTOS/Demo/Common/Minimal/blocktim.c",line 373,column 2,is_stmt
    1254 0003ad 06FC          goto $C$L1 ; |373| 
         0003af DA   
    1255                                                      ; branch occurs ; |373| 
    1256 0003b0       $C$DW$L$_vPrimaryBlockTimeTestTask$54$E:
    1257                      .dwcfi  cfa_offset, 6
    1258                      .dwcfi  restore_reg, 30
    1259                      .dwcfi  cfa_offset, 5
    1260                      .dwcfi  restore_reg, 28
    1261                      .dwcfi  cfa_offset, 4
    1262                      .dwcfi  restore_reg, 26
    1263                      .dwcfi  cfa_offset, 3
    1264                      .dwcfi  restore_reg, 15
    1265                      .dwcfi  cfa_offset, 2
    1266                      .dwcfi  restore_reg, 14
    1267                      .dwcfi  cfa_offset, 1
    1268              
    1269              $C$DW$77        .dwtag  DW_TAG_TI_loop
    1270                      .dwattr $C$DW$77, DW_AT_name("E:\temp\c5515_eZdsp_FreeRTOS_Demo\EZDSP_Sample\Debug\blocktim.asm:$C$L1
    1271                      .dwattr $C$DW$77, DW_AT_TI_begin_file("../FreeRTOS/Demo/Common/Minimal/blocktim.c")
    1272                      .dwattr $C$DW$77, DW_AT_TI_begin_line(0x86)
    1273                      .dwattr $C$DW$77, DW_AT_TI_end_line(0x175)
    1274              $C$DW$78        .dwtag  DW_TAG_TI_loop_range
    1275                      .dwattr $C$DW$78, DW_AT_low_pc($C$DW$L$_vPrimaryBlockTimeTestTask$2$B)
    1276                      .dwattr $C$DW$78, DW_AT_high_pc($C$DW$L$_vPrimaryBlockTimeTestTask$2$E)
    1277              $C$DW$79        .dwtag  DW_TAG_TI_loop_range
    1278                      .dwattr $C$DW$79, DW_AT_low_pc($C$DW$L$_vPrimaryBlockTimeTestTask$10$B)
    1279                      .dwattr $C$DW$79, DW_AT_high_pc($C$DW$L$_vPrimaryBlockTimeTestTask$10$E)
    1280              $C$DW$80        .dwtag  DW_TAG_TI_loop_range
    1281                      .dwattr $C$DW$80, DW_AT_low_pc($C$DW$L$_vPrimaryBlockTimeTestTask$14$B)
    1282                      .dwattr $C$DW$80, DW_AT_high_pc($C$DW$L$_vPrimaryBlockTimeTestTask$14$E)
    1283              $C$DW$81        .dwtag  DW_TAG_TI_loop_range
    1284                      .dwattr $C$DW$81, DW_AT_low_pc($C$DW$L$_vPrimaryBlockTimeTestTask$22$B)
    1285                      .dwattr $C$DW$81, DW_AT_high_pc($C$DW$L$_vPrimaryBlockTimeTestTask$22$E)
    1286              $C$DW$82        .dwtag  DW_TAG_TI_loop_range
    1287                      .dwattr $C$DW$82, DW_AT_low_pc($C$DW$L$_vPrimaryBlockTimeTestTask$24$B)
    1288                      .dwattr $C$DW$82, DW_AT_high_pc($C$DW$L$_vPrimaryBlockTimeTestTask$24$E)
    1289              $C$DW$83        .dwtag  DW_TAG_TI_loop_range
    1290                      .dwattr $C$DW$83, DW_AT_low_pc($C$DW$L$_vPrimaryBlockTimeTestTask$34$B)
    1291                      .dwattr $C$DW$83, DW_AT_high_pc($C$DW$L$_vPrimaryBlockTimeTestTask$34$E)
    1292              $C$DW$84        .dwtag  DW_TAG_TI_loop_range
    1293                      .dwattr $C$DW$84, DW_AT_low_pc($C$DW$L$_vPrimaryBlockTimeTestTask$36$B)
    1294                      .dwattr $C$DW$84, DW_AT_high_pc($C$DW$L$_vPrimaryBlockTimeTestTask$36$E)
TMS320C55x Assembler PC v4.3.8 Fri Jan 21 01:13:33 2011

Tools Copyright (c) 1996-2010 Texas Instruments Incorporated
blocktim.asm                                                         PAGE   29

    1295              $C$DW$85        .dwtag  DW_TAG_TI_loop_range
    1296                      .dwattr $C$DW$85, DW_AT_low_pc($C$DW$L$_vPrimaryBlockTimeTestTask$40$B)
    1297                      .dwattr $C$DW$85, DW_AT_high_pc($C$DW$L$_vPrimaryBlockTimeTestTask$40$E)
    1298              $C$DW$86        .dwtag  DW_TAG_TI_loop_range
    1299                      .dwattr $C$DW$86, DW_AT_low_pc($C$DW$L$_vPrimaryBlockTimeTestTask$42$B)
    1300                      .dwattr $C$DW$86, DW_AT_high_pc($C$DW$L$_vPrimaryBlockTimeTestTask$42$E)
    1301              $C$DW$87        .dwtag  DW_TAG_TI_loop_range
    1302                      .dwattr $C$DW$87, DW_AT_low_pc($C$DW$L$_vPrimaryBlockTimeTestTask$52$B)
    1303                      .dwattr $C$DW$87, DW_AT_high_pc($C$DW$L$_vPrimaryBlockTimeTestTask$52$E)
    1304              $C$DW$88        .dwtag  DW_TAG_TI_loop_range
    1305                      .dwattr $C$DW$88, DW_AT_low_pc($C$DW$L$_vPrimaryBlockTimeTestTask$54$B)
    1306                      .dwattr $C$DW$88, DW_AT_high_pc($C$DW$L$_vPrimaryBlockTimeTestTask$54$E)
    1307              
    1308              $C$DW$89        .dwtag  DW_TAG_TI_loop
    1309                      .dwattr $C$DW$89, DW_AT_name("E:\temp\c5515_eZdsp_FreeRTOS_Demo\EZDSP_Sample\Debug\blocktim.asm:$C$L2
    1310                      .dwattr $C$DW$89, DW_AT_TI_begin_file("../FreeRTOS/Demo/Common/Minimal/blocktim.c")
    1311                      .dwattr $C$DW$89, DW_AT_TI_begin_line(0x8c)
    1312                      .dwattr $C$DW$89, DW_AT_TI_end_line(0xab)
    1313              $C$DW$90        .dwtag  DW_TAG_TI_loop_range
    1314                      .dwattr $C$DW$90, DW_AT_low_pc($C$DW$L$_vPrimaryBlockTimeTestTask$3$B)
    1315                      .dwattr $C$DW$90, DW_AT_high_pc($C$DW$L$_vPrimaryBlockTimeTestTask$3$E)
    1316              $C$DW$91        .dwtag  DW_TAG_TI_loop_range
    1317                      .dwattr $C$DW$91, DW_AT_low_pc($C$DW$L$_vPrimaryBlockTimeTestTask$4$B)
    1318                      .dwattr $C$DW$91, DW_AT_high_pc($C$DW$L$_vPrimaryBlockTimeTestTask$4$E)
    1319              $C$DW$92        .dwtag  DW_TAG_TI_loop_range
    1320                      .dwattr $C$DW$92, DW_AT_low_pc($C$DW$L$_vPrimaryBlockTimeTestTask$5$B)
    1321                      .dwattr $C$DW$92, DW_AT_high_pc($C$DW$L$_vPrimaryBlockTimeTestTask$5$E)
    1322              $C$DW$93        .dwtag  DW_TAG_TI_loop_range
    1323                      .dwattr $C$DW$93, DW_AT_low_pc($C$DW$L$_vPrimaryBlockTimeTestTask$6$B)
    1324                      .dwattr $C$DW$93, DW_AT_high_pc($C$DW$L$_vPrimaryBlockTimeTestTask$6$E)
    1325              $C$DW$94        .dwtag  DW_TAG_TI_loop_range
    1326                      .dwattr $C$DW$94, DW_AT_low_pc($C$DW$L$_vPrimaryBlockTimeTestTask$7$B)
    1327                      .dwattr $C$DW$94, DW_AT_high_pc($C$DW$L$_vPrimaryBlockTimeTestTask$7$E)
    1328              $C$DW$95        .dwtag  DW_TAG_TI_loop_range
    1329                      .dwattr $C$DW$95, DW_AT_low_pc($C$DW$L$_vPrimaryBlockTimeTestTask$8$B)
    1330                      .dwattr $C$DW$95, DW_AT_high_pc($C$DW$L$_vPrimaryBlockTimeTestTask$8$E)
    1331              $C$DW$96        .dwtag  DW_TAG_TI_loop_range
    1332                      .dwattr $C$DW$96, DW_AT_low_pc($C$DW$L$_vPrimaryBlockTimeTestTask$9$B)
    1333                      .dwattr $C$DW$96, DW_AT_high_pc($C$DW$L$_vPrimaryBlockTimeTestTask$9$E)
    1334                      .dwendtag $C$DW$89
    1335              
    1336              
    1337              $C$DW$97        .dwtag  DW_TAG_TI_loop
    1338                      .dwattr $C$DW$97, DW_AT_name("E:\temp\c5515_eZdsp_FreeRTOS_Demo\EZDSP_Sample\Debug\blocktim.asm:$C$L7
    1339                      .dwattr $C$DW$97, DW_AT_TI_begin_file("../FreeRTOS/Demo/Common/Minimal/blocktim.c")
    1340                      .dwattr $C$DW$97, DW_AT_TI_begin_line(0xb3)
    1341                      .dwattr $C$DW$97, DW_AT_TI_end_line(0xbd)
    1342              $C$DW$98        .dwtag  DW_TAG_TI_loop_range
    1343                      .dwattr $C$DW$98, DW_AT_low_pc($C$DW$L$_vPrimaryBlockTimeTestTask$11$B)
    1344                      .dwattr $C$DW$98, DW_AT_high_pc($C$DW$L$_vPrimaryBlockTimeTestTask$11$E)
    1345              $C$DW$99        .dwtag  DW_TAG_TI_loop_range
    1346                      .dwattr $C$DW$99, DW_AT_low_pc($C$DW$L$_vPrimaryBlockTimeTestTask$12$B)
    1347                      .dwattr $C$DW$99, DW_AT_high_pc($C$DW$L$_vPrimaryBlockTimeTestTask$12$E)
    1348              $C$DW$100       .dwtag  DW_TAG_TI_loop_range
    1349                      .dwattr $C$DW$100, DW_AT_low_pc($C$DW$L$_vPrimaryBlockTimeTestTask$13$B)
TMS320C55x Assembler PC v4.3.8 Fri Jan 21 01:13:33 2011

Tools Copyright (c) 1996-2010 Texas Instruments Incorporated
blocktim.asm                                                         PAGE   30

    1350                      .dwattr $C$DW$100, DW_AT_high_pc($C$DW$L$_vPrimaryBlockTimeTestTask$13$E)
    1351                      .dwendtag $C$DW$97
    1352              
    1353              
    1354              $C$DW$101       .dwtag  DW_TAG_TI_loop
    1355                      .dwattr $C$DW$101, DW_AT_name("E:\temp\c5515_eZdsp_FreeRTOS_Demo\EZDSP_Sample\Debug\blocktim.asm:$C$L
    1356                      .dwattr $C$DW$101, DW_AT_TI_begin_file("../FreeRTOS/Demo/Common/Minimal/blocktim.c")
    1357                      .dwattr $C$DW$101, DW_AT_TI_begin_line(0xbf)
    1358                      .dwattr $C$DW$101, DW_AT_TI_end_line(0xde)
    1359              $C$DW$102       .dwtag  DW_TAG_TI_loop_range
    1360                      .dwattr $C$DW$102, DW_AT_low_pc($C$DW$L$_vPrimaryBlockTimeTestTask$15$B)
    1361                      .dwattr $C$DW$102, DW_AT_high_pc($C$DW$L$_vPrimaryBlockTimeTestTask$15$E)
    1362              $C$DW$103       .dwtag  DW_TAG_TI_loop_range
    1363                      .dwattr $C$DW$103, DW_AT_low_pc($C$DW$L$_vPrimaryBlockTimeTestTask$16$B)
    1364                      .dwattr $C$DW$103, DW_AT_high_pc($C$DW$L$_vPrimaryBlockTimeTestTask$16$E)
    1365              $C$DW$104       .dwtag  DW_TAG_TI_loop_range
    1366                      .dwattr $C$DW$104, DW_AT_low_pc($C$DW$L$_vPrimaryBlockTimeTestTask$17$B)
    1367                      .dwattr $C$DW$104, DW_AT_high_pc($C$DW$L$_vPrimaryBlockTimeTestTask$17$E)
    1368              $C$DW$105       .dwtag  DW_TAG_TI_loop_range
    1369                      .dwattr $C$DW$105, DW_AT_low_pc($C$DW$L$_vPrimaryBlockTimeTestTask$18$B)
    1370                      .dwattr $C$DW$105, DW_AT_high_pc($C$DW$L$_vPrimaryBlockTimeTestTask$18$E)
    1371              $C$DW$106       .dwtag  DW_TAG_TI_loop_range
    1372                      .dwattr $C$DW$106, DW_AT_low_pc($C$DW$L$_vPrimaryBlockTimeTestTask$19$B)
    1373                      .dwattr $C$DW$106, DW_AT_high_pc($C$DW$L$_vPrimaryBlockTimeTestTask$19$E)
    1374              $C$DW$107       .dwtag  DW_TAG_TI_loop_range
    1375                      .dwattr $C$DW$107, DW_AT_low_pc($C$DW$L$_vPrimaryBlockTimeTestTask$20$B)
    1376                      .dwattr $C$DW$107, DW_AT_high_pc($C$DW$L$_vPrimaryBlockTimeTestTask$20$E)
    1377              $C$DW$108       .dwtag  DW_TAG_TI_loop_range
    1378                      .dwattr $C$DW$108, DW_AT_low_pc($C$DW$L$_vPrimaryBlockTimeTestTask$21$B)
    1379                      .dwattr $C$DW$108, DW_AT_high_pc($C$DW$L$_vPrimaryBlockTimeTestTask$21$E)
    1380                      .dwendtag $C$DW$101
    1381              
    1382              
    1383              $C$DW$109       .dwtag  DW_TAG_TI_loop
    1384                      .dwattr $C$DW$109, DW_AT_name("E:\temp\c5515_eZdsp_FreeRTOS_Demo\EZDSP_Sample\Debug\blocktim.asm:$C$L
    1385                      .dwattr $C$DW$109, DW_AT_TI_begin_file("../FreeRTOS/Demo/Common/Minimal/blocktim.c")
    1386                      .dwattr $C$DW$109, DW_AT_TI_begin_line(0xf0)
    1387                      .dwattr $C$DW$109, DW_AT_TI_end_line(0xf4)
    1388              $C$DW$110       .dwtag  DW_TAG_TI_loop_range
    1389                      .dwattr $C$DW$110, DW_AT_low_pc($C$DW$L$_vPrimaryBlockTimeTestTask$23$B)
    1390                      .dwattr $C$DW$110, DW_AT_high_pc($C$DW$L$_vPrimaryBlockTimeTestTask$23$E)
    1391                      .dwendtag $C$DW$109
    1392              
    1393              
    1394              $C$DW$111       .dwtag  DW_TAG_TI_loop
    1395                      .dwattr $C$DW$111, DW_AT_name("E:\temp\c5515_eZdsp_FreeRTOS_Demo\EZDSP_Sample\Debug\blocktim.asm:$C$L
    1396                      .dwattr $C$DW$111, DW_AT_TI_begin_file("../FreeRTOS/Demo/Common/Minimal/blocktim.c")
    1397                      .dwattr $C$DW$111, DW_AT_TI_begin_line(0xf9)
    1398                      .dwattr $C$DW$111, DW_AT_TI_end_line(0x11f)
    1399              $C$DW$112       .dwtag  DW_TAG_TI_loop_range
    1400                      .dwattr $C$DW$112, DW_AT_low_pc($C$DW$L$_vPrimaryBlockTimeTestTask$25$B)
    1401                      .dwattr $C$DW$112, DW_AT_high_pc($C$DW$L$_vPrimaryBlockTimeTestTask$25$E)
    1402              $C$DW$113       .dwtag  DW_TAG_TI_loop_range
    1403                      .dwattr $C$DW$113, DW_AT_low_pc($C$DW$L$_vPrimaryBlockTimeTestTask$26$B)
    1404                      .dwattr $C$DW$113, DW_AT_high_pc($C$DW$L$_vPrimaryBlockTimeTestTask$26$E)
TMS320C55x Assembler PC v4.3.8 Fri Jan 21 01:13:33 2011

Tools Copyright (c) 1996-2010 Texas Instruments Incorporated
blocktim.asm                                                         PAGE   31

    1405              $C$DW$114       .dwtag  DW_TAG_TI_loop_range
    1406                      .dwattr $C$DW$114, DW_AT_low_pc($C$DW$L$_vPrimaryBlockTimeTestTask$27$B)
    1407                      .dwattr $C$DW$114, DW_AT_high_pc($C$DW$L$_vPrimaryBlockTimeTestTask$27$E)
    1408              $C$DW$115       .dwtag  DW_TAG_TI_loop_range
    1409                      .dwattr $C$DW$115, DW_AT_low_pc($C$DW$L$_vPrimaryBlockTimeTestTask$28$B)
    1410                      .dwattr $C$DW$115, DW_AT_high_pc($C$DW$L$_vPrimaryBlockTimeTestTask$28$E)
    1411              $C$DW$116       .dwtag  DW_TAG_TI_loop_range
    1412                      .dwattr $C$DW$116, DW_AT_low_pc($C$DW$L$_vPrimaryBlockTimeTestTask$29$B)
    1413                      .dwattr $C$DW$116, DW_AT_high_pc($C$DW$L$_vPrimaryBlockTimeTestTask$29$E)
    1414              $C$DW$117       .dwtag  DW_TAG_TI_loop_range
    1415                      .dwattr $C$DW$117, DW_AT_low_pc($C$DW$L$_vPrimaryBlockTimeTestTask$30$B)
    1416                      .dwattr $C$DW$117, DW_AT_high_pc($C$DW$L$_vPrimaryBlockTimeTestTask$30$E)
    1417              $C$DW$118       .dwtag  DW_TAG_TI_loop_range
    1418                      .dwattr $C$DW$118, DW_AT_low_pc($C$DW$L$_vPrimaryBlockTimeTestTask$31$B)
    1419                      .dwattr $C$DW$118, DW_AT_high_pc($C$DW$L$_vPrimaryBlockTimeTestTask$31$E)
    1420              $C$DW$119       .dwtag  DW_TAG_TI_loop_range
    1421                      .dwattr $C$DW$119, DW_AT_low_pc($C$DW$L$_vPrimaryBlockTimeTestTask$32$B)
    1422                      .dwattr $C$DW$119, DW_AT_high_pc($C$DW$L$_vPrimaryBlockTimeTestTask$32$E)
    1423              $C$DW$120       .dwtag  DW_TAG_TI_loop_range
    1424                      .dwattr $C$DW$120, DW_AT_low_pc($C$DW$L$_vPrimaryBlockTimeTestTask$33$B)
    1425                      .dwattr $C$DW$120, DW_AT_high_pc($C$DW$L$_vPrimaryBlockTimeTestTask$33$E)
    1426                      .dwendtag $C$DW$111
    1427              
    1428              
    1429              $C$DW$121       .dwtag  DW_TAG_TI_loop
    1430                      .dwattr $C$DW$121, DW_AT_name("E:\temp\c5515_eZdsp_FreeRTOS_Demo\EZDSP_Sample\Debug\blocktim.asm:$C$L
    1431                      .dwattr $C$DW$121, DW_AT_TI_begin_file("../FreeRTOS/Demo/Common/Minimal/blocktim.c")
    1432                      .dwattr $C$DW$121, DW_AT_TI_begin_line(0x123)
    1433                      .dwattr $C$DW$121, DW_AT_TI_end_line(0x126)
    1434              $C$DW$122       .dwtag  DW_TAG_TI_loop_range
    1435                      .dwattr $C$DW$122, DW_AT_low_pc($C$DW$L$_vPrimaryBlockTimeTestTask$35$B)
    1436                      .dwattr $C$DW$122, DW_AT_high_pc($C$DW$L$_vPrimaryBlockTimeTestTask$35$E)
    1437                      .dwendtag $C$DW$121
    1438              
    1439              
    1440              $C$DW$123       .dwtag  DW_TAG_TI_loop
    1441                      .dwattr $C$DW$123, DW_AT_name("E:\temp\c5515_eZdsp_FreeRTOS_Demo\EZDSP_Sample\Debug\blocktim.asm:$C$L
    1442                      .dwattr $C$DW$123, DW_AT_TI_begin_file("../FreeRTOS/Demo/Common/Minimal/blocktim.c")
    1443                      .dwattr $C$DW$123, DW_AT_TI_begin_line(0x132)
    1444                      .dwattr $C$DW$123, DW_AT_TI_end_line(0x138)
    1445              $C$DW$124       .dwtag  DW_TAG_TI_loop_range
    1446                      .dwattr $C$DW$124, DW_AT_low_pc($C$DW$L$_vPrimaryBlockTimeTestTask$37$B)
    1447                      .dwattr $C$DW$124, DW_AT_high_pc($C$DW$L$_vPrimaryBlockTimeTestTask$37$E)
    1448              $C$DW$125       .dwtag  DW_TAG_TI_loop_range
    1449                      .dwattr $C$DW$125, DW_AT_low_pc($C$DW$L$_vPrimaryBlockTimeTestTask$38$B)
    1450                      .dwattr $C$DW$125, DW_AT_high_pc($C$DW$L$_vPrimaryBlockTimeTestTask$38$E)
    1451              $C$DW$126       .dwtag  DW_TAG_TI_loop_range
    1452                      .dwattr $C$DW$126, DW_AT_low_pc($C$DW$L$_vPrimaryBlockTimeTestTask$39$B)
    1453                      .dwattr $C$DW$126, DW_AT_high_pc($C$DW$L$_vPrimaryBlockTimeTestTask$39$E)
    1454                      .dwendtag $C$DW$123
    1455              
    1456              
    1457              $C$DW$127       .dwtag  DW_TAG_TI_loop
    1458                      .dwattr $C$DW$127, DW_AT_name("E:\temp\c5515_eZdsp_FreeRTOS_Demo\EZDSP_Sample\Debug\blocktim.asm:$C$L
    1459                      .dwattr $C$DW$127, DW_AT_TI_begin_file("../FreeRTOS/Demo/Common/Minimal/blocktim.c")
TMS320C55x Assembler PC v4.3.8 Fri Jan 21 01:13:33 2011

Tools Copyright (c) 1996-2010 Texas Instruments Incorporated
blocktim.asm                                                         PAGE   32

    1460                      .dwattr $C$DW$127, DW_AT_TI_begin_line(0x13f)
    1461                      .dwattr $C$DW$127, DW_AT_TI_end_line(0x142)
    1462              $C$DW$128       .dwtag  DW_TAG_TI_loop_range
    1463                      .dwattr $C$DW$128, DW_AT_low_pc($C$DW$L$_vPrimaryBlockTimeTestTask$41$B)
    1464                      .dwattr $C$DW$128, DW_AT_high_pc($C$DW$L$_vPrimaryBlockTimeTestTask$41$E)
    1465                      .dwendtag $C$DW$127
    1466              
    1467              
    1468              $C$DW$129       .dwtag  DW_TAG_TI_loop
    1469                      .dwattr $C$DW$129, DW_AT_name("E:\temp\c5515_eZdsp_FreeRTOS_Demo\EZDSP_Sample\Debug\blocktim.asm:$C$L
    1470                      .dwattr $C$DW$129, DW_AT_TI_begin_file("../FreeRTOS/Demo/Common/Minimal/blocktim.c")
    1471                      .dwattr $C$DW$129, DW_AT_TI_begin_line(0x146)
    1472                      .dwattr $C$DW$129, DW_AT_TI_end_line(0x16a)
    1473              $C$DW$130       .dwtag  DW_TAG_TI_loop_range
    1474                      .dwattr $C$DW$130, DW_AT_low_pc($C$DW$L$_vPrimaryBlockTimeTestTask$43$B)
    1475                      .dwattr $C$DW$130, DW_AT_high_pc($C$DW$L$_vPrimaryBlockTimeTestTask$43$E)
    1476              $C$DW$131       .dwtag  DW_TAG_TI_loop_range
    1477                      .dwattr $C$DW$131, DW_AT_low_pc($C$DW$L$_vPrimaryBlockTimeTestTask$44$B)
    1478                      .dwattr $C$DW$131, DW_AT_high_pc($C$DW$L$_vPrimaryBlockTimeTestTask$44$E)
    1479              $C$DW$132       .dwtag  DW_TAG_TI_loop_range
    1480                      .dwattr $C$DW$132, DW_AT_low_pc($C$DW$L$_vPrimaryBlockTimeTestTask$45$B)
    1481                      .dwattr $C$DW$132, DW_AT_high_pc($C$DW$L$_vPrimaryBlockTimeTestTask$45$E)
    1482              $C$DW$133       .dwtag  DW_TAG_TI_loop_range
    1483                      .dwattr $C$DW$133, DW_AT_low_pc($C$DW$L$_vPrimaryBlockTimeTestTask$46$B)
    1484                      .dwattr $C$DW$133, DW_AT_high_pc($C$DW$L$_vPrimaryBlockTimeTestTask$46$E)
    1485              $C$DW$134       .dwtag  DW_TAG_TI_loop_range
    1486                      .dwattr $C$DW$134, DW_AT_low_pc($C$DW$L$_vPrimaryBlockTimeTestTask$47$B)
    1487                      .dwattr $C$DW$134, DW_AT_high_pc($C$DW$L$_vPrimaryBlockTimeTestTask$47$E)
    1488              $C$DW$135       .dwtag  DW_TAG_TI_loop_range
    1489                      .dwattr $C$DW$135, DW_AT_low_pc($C$DW$L$_vPrimaryBlockTimeTestTask$48$B)
    1490                      .dwattr $C$DW$135, DW_AT_high_pc($C$DW$L$_vPrimaryBlockTimeTestTask$48$E)
    1491              $C$DW$136       .dwtag  DW_TAG_TI_loop_range
    1492                      .dwattr $C$DW$136, DW_AT_low_pc($C$DW$L$_vPrimaryBlockTimeTestTask$49$B)
    1493                      .dwattr $C$DW$136, DW_AT_high_pc($C$DW$L$_vPrimaryBlockTimeTestTask$49$E)
    1494              $C$DW$137       .dwtag  DW_TAG_TI_loop_range
    1495                      .dwattr $C$DW$137, DW_AT_low_pc($C$DW$L$_vPrimaryBlockTimeTestTask$50$B)
    1496                      .dwattr $C$DW$137, DW_AT_high_pc($C$DW$L$_vPrimaryBlockTimeTestTask$50$E)
    1497              $C$DW$138       .dwtag  DW_TAG_TI_loop_range
    1498                      .dwattr $C$DW$138, DW_AT_low_pc($C$DW$L$_vPrimaryBlockTimeTestTask$51$B)
    1499                      .dwattr $C$DW$138, DW_AT_high_pc($C$DW$L$_vPrimaryBlockTimeTestTask$51$E)
    1500                      .dwendtag $C$DW$129
    1501              
    1502              
    1503              $C$DW$139       .dwtag  DW_TAG_TI_loop
    1504                      .dwattr $C$DW$139, DW_AT_name("E:\temp\c5515_eZdsp_FreeRTOS_Demo\EZDSP_Sample\Debug\blocktim.asm:$C$L
    1505                      .dwattr $C$DW$139, DW_AT_TI_begin_file("../FreeRTOS/Demo/Common/Minimal/blocktim.c")
    1506                      .dwattr $C$DW$139, DW_AT_TI_begin_line(0x16e)
    1507                      .dwattr $C$DW$139, DW_AT_TI_end_line(0x171)
    1508              $C$DW$140       .dwtag  DW_TAG_TI_loop_range
    1509                      .dwattr $C$DW$140, DW_AT_low_pc($C$DW$L$_vPrimaryBlockTimeTestTask$53$B)
    1510                      .dwattr $C$DW$140, DW_AT_high_pc($C$DW$L$_vPrimaryBlockTimeTestTask$53$E)
    1511                      .dwendtag $C$DW$139
    1512              
    1513                      .dwendtag $C$DW$77
    1514              
TMS320C55x Assembler PC v4.3.8 Fri Jan 21 01:13:33 2011

Tools Copyright (c) 1996-2010 Texas Instruments Incorporated
blocktim.asm                                                         PAGE   33

    1515                      .dwattr $C$DW$44, DW_AT_TI_end_file("../FreeRTOS/Demo/Common/Minimal/blocktim.c")
    1516                      .dwattr $C$DW$44, DW_AT_TI_end_line(0x176)
    1517                      .dwattr $C$DW$44, DW_AT_TI_end_column(0x01)
    1518                      .dwendentry
    1519                      .dwendtag $C$DW$44
    1520              
    1521 0003b0               .sect   ".text"
    1522              
    1523              $C$DW$141       .dwtag  DW_TAG_subprogram, DW_AT_name("vSecondaryBlockTimeTestTask")
    1524                      .dwattr $C$DW$141, DW_AT_low_pc(_vSecondaryBlockTimeTestTask)
    1525                      .dwattr $C$DW$141, DW_AT_high_pc(0x00)
    1526                      .dwattr $C$DW$141, DW_AT_TI_symbol_name("_vSecondaryBlockTimeTestTask")
    1527                      .dwattr $C$DW$141, DW_AT_TI_begin_file("../FreeRTOS/Demo/Common/Minimal/blocktim.c")
    1528                      .dwattr $C$DW$141, DW_AT_TI_begin_line(0x179)
    1529                      .dwattr $C$DW$141, DW_AT_TI_begin_column(0x0d)
    1530                      .dwattr $C$DW$141, DW_AT_decl_file("../FreeRTOS/Demo/Common/Minimal/blocktim.c")
    1531                      .dwattr $C$DW$141, DW_AT_decl_line(0x179)
    1532                      .dwattr $C$DW$141, DW_AT_decl_column(0x0d)
    1533                      .dwattr $C$DW$141, DW_AT_TI_max_frame_size(0x06)
    1534                      .dwpsn  file "../FreeRTOS/Demo/Common/Minimal/blocktim.c",line 378,column 1,is_stmt,address _vSeconda
    1535              
    1536                      .dwfde $C$DW$CIE, _vSecondaryBlockTimeTestTask
    1537              $C$DW$142       .dwtag  DW_TAG_formal_parameter, DW_AT_name("pvParameters")
    1538                      .dwattr $C$DW$142, DW_AT_TI_symbol_name("_pvParameters")
    1539                      .dwattr $C$DW$142, DW_AT_type(*$C$DW$T$3)
    1540                      .dwattr $C$DW$142, DW_AT_location[DW_OP_reg17]
    1541              ;*******************************************************************************
    1542              ;* FUNCTION NAME: vSecondaryBlockTimeTestTask                                  *
    1543              ;*                                                                             *
    1544              ;*   Function Uses Regs : AC0,AC0,AC1,AC1,T0,AR0,XAR0,AR1,XAR1,SP,CARRY,TC1,   *
    1545              ;*                        M40,SATA,SATD,RDM,FRCT,SMUL                          *
    1546              ;*   Stack Frame        : Compact (No Frame Pointer, w/ debug)                 *
    1547              ;*   Total Frame Size   : 6 words                                              *
    1548              ;*                        (2 return address/alignment)                         *
    1549              ;*                        (4 local values)                                     *
    1550              ;*   Min System Stack   : 1 word                                               *
    1551              ;*******************************************************************************
    1552              
    1553              ;*******************************************************************************
    1554              ;*                                                                             *
    1555              ;* Using -g (debug) with optimization (-o0) may disable key optimizations!     *
    1556              ;*                                                                             *
    1557              ;*******************************************************************************
    1558 0003b0       _vSecondaryBlockTimeTestTask:
    1559                      .dwcfi  cfa_offset, 1
    1560                      .dwcfi  save_reg_to_mem, 91, -1
    1561 0003b0 4EFB          SP = SP + #-5
    1562                      .dwcfi  cfa_offset, 6
    1563              $C$L38:    
    1564              $C$DW$L$_vSecondaryBlockTimeTestTask$2$B:
    1565              ;**     -----------------------g2:
    1566              ;** 390 -----------------------    vTaskSuspend(NULL);
    1567              ;** 398 -----------------------    xTimeWhenBlocking = xTaskGetTickCount();
    1568              ;** 402 -----------------------    xData = 0;
    1569              ;** 403 -----------------------    xRunIndicator = 85u;
TMS320C55x Assembler PC v4.3.8 Fri Jan 21 01:13:33 2011

Tools Copyright (c) 1996-2010 Texas Instruments Incorporated
blocktim.asm                                                         PAGE   34

    1570              ;** 404 -----------------------    if ( !xQueueGenericSend(xTestQueue, &xData, 175uL, 0) ) goto g4;
    1571              $C$DW$143       .dwtag  DW_TAG_variable, DW_AT_name("xData")
    1572                      .dwattr $C$DW$143, DW_AT_TI_symbol_name("_xData")
    1573                      .dwattr $C$DW$143, DW_AT_type(*$C$DW$T$10)
    1574                      .dwattr $C$DW$143, DW_AT_location[DW_OP_bregx 0x24 0]
    1575              ;* AC0   assigned to _xBlockedTime
    1576              $C$DW$144       .dwtag  DW_TAG_variable, DW_AT_name("xBlockedTime")
    1577                      .dwattr $C$DW$144, DW_AT_TI_symbol_name("_xBlockedTime")
    1578                      .dwattr $C$DW$144, DW_AT_type(*$C$DW$T$20)
    1579                      .dwattr $C$DW$144, DW_AT_location[DW_OP_reg0]
    1580              $C$DW$145       .dwtag  DW_TAG_variable, DW_AT_name("xTimeWhenBlocking")
    1581                      .dwattr $C$DW$145, DW_AT_TI_symbol_name("_xTimeWhenBlocking")
    1582                      .dwattr $C$DW$145, DW_AT_type(*$C$DW$T$20)
    1583                      .dwattr $C$DW$145, DW_AT_location[DW_OP_bregx 0x24 2]
    1584                      .dwpsn  file "../FreeRTOS/Demo/Common/Minimal/blocktim.c",line 390,column 3,is_stmt
    1585 0003b2 EC31          XAR0 = #0 ; |390| 
         0003b4 8E00 
         0003b6 0000 
    1586              $C$DW$146       .dwtag  DW_TAG_TI_branch
    1587                      .dwattr $C$DW$146, DW_AT_low_pc(0x00)
    1588                      .dwattr $C$DW$146, DW_AT_name("_vTaskSuspend")
    1589                      .dwattr $C$DW$146, DW_AT_TI_call
    1590 0003b8 6C00          call #_vTaskSuspend ; |390| 
         0003ba 0000!
    1591                                                      ; call occurs [#_vTaskSuspend] ; |390| 
    1592                      .dwpsn  file "../FreeRTOS/Demo/Common/Minimal/blocktim.c",line 398,column 3,is_stmt
    1593              $C$DW$147       .dwtag  DW_TAG_TI_branch
    1594                      .dwattr $C$DW$147, DW_AT_low_pc(0x00)
    1595                      .dwattr $C$DW$147, DW_AT_name("_xTaskGetTickCount")
    1596                      .dwattr $C$DW$147, DW_AT_TI_call
    1597 0003bc 6C00          call #_xTaskGetTickCount ; |398| 
         0003be 0000!
    1598                                                      ; call occurs [#_xTaskGetTickCount] ; |398| 
    1599 0003c0 EB04          dbl(*SP(#2)) = AC0 ; |398| 
         0003c2 08   
    1600                      .dwpsn  file "../FreeRTOS/Demo/Common/Minimal/blocktim.c",line 402,column 3,is_stmt
    1601 0003c3 E600          *SP(#0) = #0 ; |402| 
         0003c5 00   
    1602                      .dwpsn  file "../FreeRTOS/Demo/Common/Minimal/blocktim.c",line 403,column 3,is_stmt
    1603 0003c6 E631          *(#_xRunIndicator) = #85 ; |403| 
         0003c8 5500 
         0003ca 0007-
    1604                      .dwpsn  file "../FreeRTOS/Demo/Common/Minimal/blocktim.c",line 404,column 3,is_stmt
    1605 0003cc 7600          AC0 = #175 ; |404| 
         0003ce AF08 
    1606 0003d0 EC00          XAR1 = mar(*SP(#0))
         0003d2 9E   
    1607 0003d3 ED31          XAR0 = dbl(*(#_xTestQueue))
         0003d5 8F00 
         0003d7 0000-
    1608              $C$DW$148       .dwtag  DW_TAG_TI_branch
    1609                      .dwattr $C$DW$148, DW_AT_low_pc(0x00)
    1610                      .dwattr $C$DW$148, DW_AT_name("_xQueueGenericSend")
    1611                      .dwattr $C$DW$148, DW_AT_TI_call
    1612              
TMS320C55x Assembler PC v4.3.8 Fri Jan 21 01:13:33 2011

Tools Copyright (c) 1996-2010 Texas Instruments Incorporated
blocktim.asm                                                         PAGE   35

    1613 0003d9 6C00          call #_xQueueGenericSend ; |404| 
         0003db 0000!
    1614 0003dd 3D04  ||      T0 = #0
    1615              
    1616                                                      ; call occurs [#_xQueueGenericSend] ; |404| 
    1617 0003df 6304          if (T0 == #0) goto $C$L39 ; |404| 
    1618                                                      ; branchcc occurs ; |404| 
    1619 0003e1       $C$DW$L$_vSecondaryBlockTimeTestTask$2$E:
    1620 0003e1       $C$DW$L$_vSecondaryBlockTimeTestTask$3$B:
    1621              ;** 406 -----------------------    xErrorOccurred = 1;
    1622                      .dwpsn  file "../FreeRTOS/Demo/Common/Minimal/blocktim.c",line 406,column 4,is_stmt
    1623 0003e1 E631          *(#_xErrorOccurred) = #1 ; |406| 
         0003e3 0100 
         0003e5 0006-
    1624 0003e7       $C$DW$L$_vSecondaryBlockTimeTestTask$3$E:
    1625 0003e7       $C$L39:    
    1626 0003e7       $C$DW$L$_vSecondaryBlockTimeTestTask$4$B:
    1627              ;**     -----------------------g4:
    1628              ;** 410 -----------------------    if ( (xBlockedTime = xTaskGetTickCount()-xTimeWhenBlocking) >= 175uL ) got
    1629                      .dwpsn  file "../FreeRTOS/Demo/Common/Minimal/blocktim.c",line 410,column 3,is_stmt
    1630              $C$DW$149       .dwtag  DW_TAG_TI_branch
    1631                      .dwattr $C$DW$149, DW_AT_low_pc(0x00)
    1632                      .dwattr $C$DW$149, DW_AT_name("_xTaskGetTickCount")
    1633                      .dwattr $C$DW$149, DW_AT_TI_call
    1634 0003e7 6C00          call #_xTaskGetTickCount ; |410| 
         0003e9 0000!
    1635                                                      ; call occurs [#_xTaskGetTickCount] ; |410| 
    1636 0003eb 7600          AC1 = #175 ; |410| 
         0003ed AF18 
    1637 0003ef ED04          AC0 = AC0 - dbl(*SP(#2)) ; |410| 
         0003f1 02   
    1638 0003f2 1208          TC1 = uns(AC0 >= AC1) ; |410| 
         0003f4 14   
    1639 0003f5 6364          if (TC1) goto $C$L40 ; |410| 
    1640                                                      ; branchcc occurs ; |410| 
    1641 0003f7       $C$DW$L$_vSecondaryBlockTimeTestTask$4$E:
    1642 0003f7       $C$DW$L$_vSecondaryBlockTimeTestTask$5$B:
    1643              ;** 415 -----------------------    xErrorOccurred = 1;
    1644                      .dwpsn  file "../FreeRTOS/Demo/Common/Minimal/blocktim.c",line 415,column 4,is_stmt
    1645 0003f7 E631          *(#_xErrorOccurred) = #1 ; |415| 
         0003f9 0100 
         0003fb 0006-
    1646 0003fd       $C$DW$L$_vSecondaryBlockTimeTestTask$5$E:
    1647 0003fd       $C$L40:    
    1648 0003fd       $C$DW$L$_vSecondaryBlockTimeTestTask$6$B:
    1649              ;**     -----------------------g6:
    1650              ;** 421 -----------------------    if ( xBlockedTime <= 190uL ) goto g8;
    1651                      .dwpsn  file "../FreeRTOS/Demo/Common/Minimal/blocktim.c",line 421,column 3,is_stmt
    1652 0003fd 7600          AC1 = #190 ; |421| 
         0003ff BE18 
    1653 000401 1218          TC1 = uns(AC0 <= AC1) ; |421| 
         000403 04   
    1654 000404 6364          if (TC1) goto $C$L41 ; |421| 
    1655                                                      ; branchcc occurs ; |421| 
    1656 000406       $C$DW$L$_vSecondaryBlockTimeTestTask$6$E:
TMS320C55x Assembler PC v4.3.8 Fri Jan 21 01:13:33 2011

Tools Copyright (c) 1996-2010 Texas Instruments Incorporated
blocktim.asm                                                         PAGE   36

    1657 000406       $C$DW$L$_vSecondaryBlockTimeTestTask$7$B:
    1658              ;** 423 -----------------------    xErrorOccurred = 1;
    1659                      .dwpsn  file "../FreeRTOS/Demo/Common/Minimal/blocktim.c",line 423,column 4,is_stmt
    1660 000406 E631          *(#_xErrorOccurred) = #1 ; |423| 
         000408 0100 
         00040a 0006-
    1661 00040c       $C$DW$L$_vSecondaryBlockTimeTestTask$7$E:
    1662 00040c       $C$L41:    
    1663 00040c       $C$DW$L$_vSecondaryBlockTimeTestTask$8$B:
    1664              ;**     -----------------------g8:
    1665              ;** 427 -----------------------    xRunIndicator = 85u;
    1666              ;** 428 -----------------------    vTaskSuspend(NULL);
    1667              ;** 434 -----------------------    xTimeWhenBlocking = xTaskGetTickCount();
    1668              ;** 438 -----------------------    xRunIndicator = 85u;
    1669              ;** 439 -----------------------    if ( !xQueueGenericReceive(xTestQueue, &xData, 175uL, 0) ) goto g10;
    1670                      .dwpsn  file "../FreeRTOS/Demo/Common/Minimal/blocktim.c",line 427,column 3,is_stmt
    1671 00040c E631          *(#_xRunIndicator) = #85 ; |427| 
         00040e 5500 
         000410 0007-
    1672                      .dwpsn  file "../FreeRTOS/Demo/Common/Minimal/blocktim.c",line 428,column 3,is_stmt
    1673 000412 EC31          XAR0 = #0 ; |428| 
         000414 8E00 
         000416 0000 
    1674              $C$DW$150       .dwtag  DW_TAG_TI_branch
    1675                      .dwattr $C$DW$150, DW_AT_low_pc(0x00)
    1676                      .dwattr $C$DW$150, DW_AT_name("_vTaskSuspend")
    1677                      .dwattr $C$DW$150, DW_AT_TI_call
    1678 000418 6C00          call #_vTaskSuspend ; |428| 
         00041a 0000!
    1679                                                      ; call occurs [#_vTaskSuspend] ; |428| 
    1680                      .dwpsn  file "../FreeRTOS/Demo/Common/Minimal/blocktim.c",line 434,column 3,is_stmt
    1681              $C$DW$151       .dwtag  DW_TAG_TI_branch
    1682                      .dwattr $C$DW$151, DW_AT_low_pc(0x00)
    1683                      .dwattr $C$DW$151, DW_AT_name("_xTaskGetTickCount")
    1684                      .dwattr $C$DW$151, DW_AT_TI_call
    1685 00041c 6C00          call #_xTaskGetTickCount ; |434| 
         00041e 0000!
    1686                                                      ; call occurs [#_xTaskGetTickCount] ; |434| 
    1687 000420 EB04          dbl(*SP(#2)) = AC0 ; |434| 
         000422 08   
    1688                      .dwpsn  file "../FreeRTOS/Demo/Common/Minimal/blocktim.c",line 438,column 3,is_stmt
    1689 000423 E631          *(#_xRunIndicator) = #85 ; |438| 
         000425 5500 
         000427 0007-
    1690                      .dwpsn  file "../FreeRTOS/Demo/Common/Minimal/blocktim.c",line 439,column 3,is_stmt
    1691 000429 7600          AC0 = #175 ; |439| 
         00042b AF08 
    1692 00042d EC00          XAR1 = mar(*SP(#0))
         00042f 9E   
    1693 000430 ED31          XAR0 = dbl(*(#_xTestQueue))
         000432 8F00 
         000434 0000-
    1694              $C$DW$152       .dwtag  DW_TAG_TI_branch
    1695                      .dwattr $C$DW$152, DW_AT_low_pc(0x00)
    1696                      .dwattr $C$DW$152, DW_AT_name("_xQueueGenericReceive")
TMS320C55x Assembler PC v4.3.8 Fri Jan 21 01:13:33 2011

Tools Copyright (c) 1996-2010 Texas Instruments Incorporated
blocktim.asm                                                         PAGE   37

    1697                      .dwattr $C$DW$152, DW_AT_TI_call
    1698              
    1699 000436 6C00          call #_xQueueGenericReceive ; |439| 
         000438 0000!
    1700 00043a 3D04  ||      T0 = #0
    1701              
    1702                                                      ; call occurs [#_xQueueGenericReceive] ; |439| 
    1703 00043c 6304          if (T0 == #0) goto $C$L42 ; |439| 
    1704                                                      ; branchcc occurs ; |439| 
    1705 00043e       $C$DW$L$_vSecondaryBlockTimeTestTask$8$E:
    1706 00043e       $C$DW$L$_vSecondaryBlockTimeTestTask$9$B:
    1707              ;** 441 -----------------------    xErrorOccurred = 1;
    1708                      .dwpsn  file "../FreeRTOS/Demo/Common/Minimal/blocktim.c",line 441,column 4,is_stmt
    1709 00043e E631          *(#_xErrorOccurred) = #1 ; |441| 
         000440 0100 
         000442 0006-
    1710 000444       $C$DW$L$_vSecondaryBlockTimeTestTask$9$E:
    1711 000444       $C$L42:    
    1712 000444       $C$DW$L$_vSecondaryBlockTimeTestTask$10$B:
    1713              ;**     -----------------------g10:
    1714              ;** 444 -----------------------    if ( (xBlockedTime = xTaskGetTickCount()-xTimeWhenBlocking) >= 175uL ) got
    1715                      .dwpsn  file "../FreeRTOS/Demo/Common/Minimal/blocktim.c",line 444,column 3,is_stmt
    1716              $C$DW$153       .dwtag  DW_TAG_TI_branch
    1717                      .dwattr $C$DW$153, DW_AT_low_pc(0x00)
    1718                      .dwattr $C$DW$153, DW_AT_name("_xTaskGetTickCount")
    1719                      .dwattr $C$DW$153, DW_AT_TI_call
    1720 000444 6C00          call #_xTaskGetTickCount ; |444| 
         000446 0000!
    1721                                                      ; call occurs [#_xTaskGetTickCount] ; |444| 
    1722 000448 7600          AC1 = #175 ; |444| 
         00044a AF18 
    1723 00044c ED04          AC0 = AC0 - dbl(*SP(#2)) ; |444| 
         00044e 02   
    1724 00044f 1208          TC1 = uns(AC0 >= AC1) ; |444| 
         000451 14   
    1725 000452 6364          if (TC1) goto $C$L43 ; |444| 
    1726                                                      ; branchcc occurs ; |444| 
    1727 000454       $C$DW$L$_vSecondaryBlockTimeTestTask$10$E:
    1728 000454       $C$DW$L$_vSecondaryBlockTimeTestTask$11$B:
    1729              ;** 449 -----------------------    xErrorOccurred = 1;
    1730                      .dwpsn  file "../FreeRTOS/Demo/Common/Minimal/blocktim.c",line 449,column 4,is_stmt
    1731 000454 E631          *(#_xErrorOccurred) = #1 ; |449| 
         000456 0100 
         000458 0006-
    1732 00045a       $C$DW$L$_vSecondaryBlockTimeTestTask$11$E:
    1733 00045a       $C$L43:    
    1734 00045a       $C$DW$L$_vSecondaryBlockTimeTestTask$12$B:
    1735              ;**     -----------------------g12:
    1736              ;** 455 -----------------------    if ( xBlockedTime <= 190uL ) goto g14;
    1737                      .dwpsn  file "../FreeRTOS/Demo/Common/Minimal/blocktim.c",line 455,column 3,is_stmt
    1738 00045a 7600          AC1 = #190 ; |455| 
         00045c BE18 
    1739 00045e 1218          TC1 = uns(AC0 <= AC1) ; |455| 
         000460 04   
    1740 000461 6364          if (TC1) goto $C$L44 ; |455| 
TMS320C55x Assembler PC v4.3.8 Fri Jan 21 01:13:33 2011

Tools Copyright (c) 1996-2010 Texas Instruments Incorporated
blocktim.asm                                                         PAGE   38

    1741                                                      ; branchcc occurs ; |455| 
    1742 000463       $C$DW$L$_vSecondaryBlockTimeTestTask$12$E:
    1743 000463       $C$DW$L$_vSecondaryBlockTimeTestTask$13$B:
    1744              ;** 457 -----------------------    xErrorOccurred = 1;
    1745                      .dwpsn  file "../FreeRTOS/Demo/Common/Minimal/blocktim.c",line 457,column 4,is_stmt
    1746 000463 E631          *(#_xErrorOccurred) = #1 ; |457| 
         000465 0100 
         000467 0006-
    1747 000469       $C$DW$L$_vSecondaryBlockTimeTestTask$13$E:
    1748 000469       $C$L44:    
    1749 000469       $C$DW$L$_vSecondaryBlockTimeTestTask$14$B:
    1750              ;**     -----------------------g14:
    1751              ;** 460 -----------------------    xRunIndicator = 85u;
    1752              ;** 462 -----------------------    xSecondaryCycles = xSecondaryCycles+1;
    1753              ;** 463 -----------------------    goto g2;
    1754                      .dwpsn  file "../FreeRTOS/Demo/Common/Minimal/blocktim.c",line 460,column 3,is_stmt
    1755 000469 E631          *(#_xRunIndicator) = #85 ; |460| 
         00046b 5500 
         00046d 0007-
    1756                      .dwpsn  file "../FreeRTOS/Demo/Common/Minimal/blocktim.c",line 462,column 3,is_stmt
    1757 00046f F731          *(#_xSecondaryCycles) = *(#_xSecondaryCycles) + #1 ; |462| 
         000471 0001 
         000473 0000 
         000475 05-  
    1758                      .dwpsn  file "../FreeRTOS/Demo/Common/Minimal/blocktim.c",line 463,column 2,is_stmt
    1759 000476 06FF          goto $C$L38 ; |463| 
         000478 39   
    1760                                                      ; branch occurs ; |463| 
    1761 000479       $C$DW$L$_vSecondaryBlockTimeTestTask$14$E:
    1762                      .dwcfi  cfa_offset, 1
    1763              
    1764              $C$DW$154       .dwtag  DW_TAG_TI_loop
    1765                      .dwattr $C$DW$154, DW_AT_name("E:\temp\c5515_eZdsp_FreeRTOS_Demo\EZDSP_Sample\Debug\blocktim.asm:$C$L
    1766                      .dwattr $C$DW$154, DW_AT_TI_begin_file("../FreeRTOS/Demo/Common/Minimal/blocktim.c")
    1767                      .dwattr $C$DW$154, DW_AT_TI_begin_line(0x180)
    1768                      .dwattr $C$DW$154, DW_AT_TI_end_line(0x1cf)
    1769              $C$DW$155       .dwtag  DW_TAG_TI_loop_range
    1770                      .dwattr $C$DW$155, DW_AT_low_pc($C$DW$L$_vSecondaryBlockTimeTestTask$2$B)
    1771                      .dwattr $C$DW$155, DW_AT_high_pc($C$DW$L$_vSecondaryBlockTimeTestTask$2$E)
    1772              $C$DW$156       .dwtag  DW_TAG_TI_loop_range
    1773                      .dwattr $C$DW$156, DW_AT_low_pc($C$DW$L$_vSecondaryBlockTimeTestTask$3$B)
    1774                      .dwattr $C$DW$156, DW_AT_high_pc($C$DW$L$_vSecondaryBlockTimeTestTask$3$E)
    1775              $C$DW$157       .dwtag  DW_TAG_TI_loop_range
    1776                      .dwattr $C$DW$157, DW_AT_low_pc($C$DW$L$_vSecondaryBlockTimeTestTask$4$B)
    1777                      .dwattr $C$DW$157, DW_AT_high_pc($C$DW$L$_vSecondaryBlockTimeTestTask$4$E)
    1778              $C$DW$158       .dwtag  DW_TAG_TI_loop_range
    1779                      .dwattr $C$DW$158, DW_AT_low_pc($C$DW$L$_vSecondaryBlockTimeTestTask$5$B)
    1780                      .dwattr $C$DW$158, DW_AT_high_pc($C$DW$L$_vSecondaryBlockTimeTestTask$5$E)
    1781              $C$DW$159       .dwtag  DW_TAG_TI_loop_range
    1782                      .dwattr $C$DW$159, DW_AT_low_pc($C$DW$L$_vSecondaryBlockTimeTestTask$6$B)
    1783                      .dwattr $C$DW$159, DW_AT_high_pc($C$DW$L$_vSecondaryBlockTimeTestTask$6$E)
    1784              $C$DW$160       .dwtag  DW_TAG_TI_loop_range
    1785                      .dwattr $C$DW$160, DW_AT_low_pc($C$DW$L$_vSecondaryBlockTimeTestTask$7$B)
    1786                      .dwattr $C$DW$160, DW_AT_high_pc($C$DW$L$_vSecondaryBlockTimeTestTask$7$E)
    1787              $C$DW$161       .dwtag  DW_TAG_TI_loop_range
TMS320C55x Assembler PC v4.3.8 Fri Jan 21 01:13:33 2011

Tools Copyright (c) 1996-2010 Texas Instruments Incorporated
blocktim.asm                                                         PAGE   39

    1788                      .dwattr $C$DW$161, DW_AT_low_pc($C$DW$L$_vSecondaryBlockTimeTestTask$8$B)
    1789                      .dwattr $C$DW$161, DW_AT_high_pc($C$DW$L$_vSecondaryBlockTimeTestTask$8$E)
    1790              $C$DW$162       .dwtag  DW_TAG_TI_loop_range
    1791                      .dwattr $C$DW$162, DW_AT_low_pc($C$DW$L$_vSecondaryBlockTimeTestTask$9$B)
    1792                      .dwattr $C$DW$162, DW_AT_high_pc($C$DW$L$_vSecondaryBlockTimeTestTask$9$E)
    1793              $C$DW$163       .dwtag  DW_TAG_TI_loop_range
    1794                      .dwattr $C$DW$163, DW_AT_low_pc($C$DW$L$_vSecondaryBlockTimeTestTask$10$B)
    1795                      .dwattr $C$DW$163, DW_AT_high_pc($C$DW$L$_vSecondaryBlockTimeTestTask$10$E)
    1796              $C$DW$164       .dwtag  DW_TAG_TI_loop_range
    1797                      .dwattr $C$DW$164, DW_AT_low_pc($C$DW$L$_vSecondaryBlockTimeTestTask$11$B)
    1798                      .dwattr $C$DW$164, DW_AT_high_pc($C$DW$L$_vSecondaryBlockTimeTestTask$11$E)
    1799              $C$DW$165       .dwtag  DW_TAG_TI_loop_range
    1800                      .dwattr $C$DW$165, DW_AT_low_pc($C$DW$L$_vSecondaryBlockTimeTestTask$12$B)
    1801                      .dwattr $C$DW$165, DW_AT_high_pc($C$DW$L$_vSecondaryBlockTimeTestTask$12$E)
    1802              $C$DW$166       .dwtag  DW_TAG_TI_loop_range
    1803                      .dwattr $C$DW$166, DW_AT_low_pc($C$DW$L$_vSecondaryBlockTimeTestTask$13$B)
    1804                      .dwattr $C$DW$166, DW_AT_high_pc($C$DW$L$_vSecondaryBlockTimeTestTask$13$E)
    1805              $C$DW$167       .dwtag  DW_TAG_TI_loop_range
    1806                      .dwattr $C$DW$167, DW_AT_low_pc($C$DW$L$_vSecondaryBlockTimeTestTask$14$B)
    1807                      .dwattr $C$DW$167, DW_AT_high_pc($C$DW$L$_vSecondaryBlockTimeTestTask$14$E)
    1808                      .dwendtag $C$DW$154
    1809              
    1810                      .dwattr $C$DW$141, DW_AT_TI_end_file("../FreeRTOS/Demo/Common/Minimal/blocktim.c")
    1811                      .dwattr $C$DW$141, DW_AT_TI_end_line(0x1d0)
    1812                      .dwattr $C$DW$141, DW_AT_TI_end_column(0x01)
    1813                      .dwendentry
    1814                      .dwendtag $C$DW$141
    1815              
    1816 000479               .sect   ".text"
    1817                      .global _xAreBlockTimeTestTasksStillRunning
    1818              
    1819              $C$DW$168       .dwtag  DW_TAG_subprogram, DW_AT_name("xAreBlockTimeTestTasksStillRunning")
    1820                      .dwattr $C$DW$168, DW_AT_low_pc(_xAreBlockTimeTestTasksStillRunning)
    1821                      .dwattr $C$DW$168, DW_AT_high_pc(0x00)
    1822                      .dwattr $C$DW$168, DW_AT_TI_symbol_name("_xAreBlockTimeTestTasksStillRunning")
    1823                      .dwattr $C$DW$168, DW_AT_external
    1824                      .dwattr $C$DW$168, DW_AT_type(*$C$DW$T$10)
    1825                      .dwattr $C$DW$168, DW_AT_TI_begin_file("../FreeRTOS/Demo/Common/Minimal/blocktim.c")
    1826                      .dwattr $C$DW$168, DW_AT_TI_begin_line(0x1d3)
    1827                      .dwattr $C$DW$168, DW_AT_TI_begin_column(0x0f)
    1828                      .dwattr $C$DW$168, DW_AT_decl_file("../FreeRTOS/Demo/Common/Minimal/blocktim.c")
    1829                      .dwattr $C$DW$168, DW_AT_decl_line(0x1d3)
    1830                      .dwattr $C$DW$168, DW_AT_decl_column(0x0f)
    1831                      .dwattr $C$DW$168, DW_AT_TI_max_frame_size(0x01)
    1832                      .dwpsn  file "../FreeRTOS/Demo/Common/Minimal/blocktim.c",line 468,column 1,is_stmt,address _xAreBloc
    1833              
    1834                      .dwfde $C$DW$CIE, _xAreBlockTimeTestTasksStillRunning
    1835              $C$DW$169       .dwtag  DW_TAG_variable, DW_AT_name("xLastPrimaryCycleCount")
    1836                      .dwattr $C$DW$169, DW_AT_TI_symbol_name("_xLastPrimaryCycleCount$1")
    1837                      .dwattr $C$DW$169, DW_AT_type(*$C$DW$T$10)
    1838                      .dwattr $C$DW$169, DW_AT_location[DW_OP_addr _xLastPrimaryCycleCount$1]
    1839              $C$DW$170       .dwtag  DW_TAG_variable, DW_AT_name("xLastSecondaryCycleCount")
    1840                      .dwattr $C$DW$170, DW_AT_TI_symbol_name("_xLastSecondaryCycleCount$2")
    1841                      .dwattr $C$DW$170, DW_AT_type(*$C$DW$T$10)
    1842                      .dwattr $C$DW$170, DW_AT_location[DW_OP_addr _xLastSecondaryCycleCount$2]
TMS320C55x Assembler PC v4.3.8 Fri Jan 21 01:13:33 2011

Tools Copyright (c) 1996-2010 Texas Instruments Incorporated
blocktim.asm                                                         PAGE   40

    1843              ;*******************************************************************************
    1844              ;* FUNCTION NAME: xAreBlockTimeTestTasksStillRunning                           *
    1845              ;*                                                                             *
    1846              ;*   Function Uses Regs : T0,AR1,AR2,SP,TC1,M40,SATA,SATD,RDM,FRCT,SMUL        *
    1847              ;*   Stack Frame        : Compact (No Frame Pointer, w/ debug)                 *
    1848              ;*   Total Frame Size   : 1 word                                               *
    1849              ;*                        (1 return address/alignment)                         *
    1850              ;*   Min System Stack   : 1 word                                               *
    1851              ;*******************************************************************************
    1852              
    1853              ;*******************************************************************************
    1854              ;*                                                                             *
    1855              ;* Using -g (debug) with optimization (-o0) may disable key optimizations!     *
    1856              ;*                                                                             *
    1857              ;*******************************************************************************
    1858 000479       _xAreBlockTimeTestTasksStillRunning:
    1859              ;** 470 -----------------------    xReturn = 1;
    1860              ;** 474 -----------------------    if ( xPrimaryCycles != xLastPrimaryCycleCount ) goto g3;
    1861                      .dwcfi  cfa_offset, 1
    1862                      .dwcfi  save_reg_to_mem, 91, -1
    1863              ;* T0    assigned to _xReturn
    1864              $C$DW$171       .dwtag  DW_TAG_variable, DW_AT_name("xReturn")
    1865                      .dwattr $C$DW$171, DW_AT_TI_symbol_name("_xReturn")
    1866                      .dwattr $C$DW$171, DW_AT_type(*$C$DW$T$10)
    1867                      .dwattr $C$DW$171, DW_AT_location[DW_OP_reg12]
    1868                      .dwpsn  file "../FreeRTOS/Demo/Common/Minimal/blocktim.c",line 470,column 15,is_stmt
    1869 000479 3C14          T0 = #1
    1870                      .dwpsn  file "../FreeRTOS/Demo/Common/Minimal/blocktim.c",line 474,column 2,is_stmt
    1871 00047b A931          AR1 = *(#_xLastPrimaryCycleCount$1) ; |474| 
         00047d 0000 
         00047f 08-  
    1872 000480 AA31          AR2 = *(#_xPrimaryCycles) ; |474| 
         000482 0000 
         000484 04-  
    1873 000485 12AC          TC1 = (AR2 != AR1) ; |474| 
         000487 90   
    1874 000488 6164          if (TC1) goto $C$L45 ; |474| 
    1875                                                      ; branchcc occurs ; |474| 
    1876              ;** 476 -----------------------    xReturn = 0;
    1877                      .dwpsn  file "../FreeRTOS/Demo/Common/Minimal/blocktim.c",line 476,column 3,is_stmt
    1878 00048a 3C04          T0 = #0
    1879 00048c       $C$L45:    
    1880              ;**     -----------------------g3:
    1881              ;** 479 -----------------------    if ( xSecondaryCycles != xLastSecondaryCycleCount ) goto g5;
    1882                      .dwpsn  file "../FreeRTOS/Demo/Common/Minimal/blocktim.c",line 479,column 2,is_stmt
    1883 00048c A931          AR1 = *(#_xLastSecondaryCycleCount$2) ; |479| 
         00048e 0000 
         000490 09-  
    1884 000491 AA31          AR2 = *(#_xSecondaryCycles) ; |479| 
         000493 0000 
         000495 05-  
    1885 000496 12AC          TC1 = (AR2 != AR1) ; |479| 
         000498 90   
    1886 000499 6164          if (TC1) goto $C$L46 ; |479| 
    1887                                                      ; branchcc occurs ; |479| 
TMS320C55x Assembler PC v4.3.8 Fri Jan 21 01:13:33 2011

Tools Copyright (c) 1996-2010 Texas Instruments Incorporated
blocktim.asm                                                         PAGE   41

    1888              ;** 481 -----------------------    xReturn = 0;
    1889                      .dwpsn  file "../FreeRTOS/Demo/Common/Minimal/blocktim.c",line 481,column 3,is_stmt
    1890 00049b 3C04          T0 = #0
    1891 00049d       $C$L46:    
    1892              ;**     -----------------------g5:
    1893              ;** 484 -----------------------    if ( xErrorOccurred != 1 ) goto g7;
    1894                      .dwpsn  file "../FreeRTOS/Demo/Common/Minimal/blocktim.c",line 484,column 2,is_stmt
    1895 00049d F031          TC1 = (*(#_xErrorOccurred) == #1) ; |484| 
         00049f 0001 
         0004a1 0000 
         0004a3 06-  
    1896 0004a4 6174          if (!TC1) goto $C$L47 ; |484| 
    1897                                                      ; branchcc occurs ; |484| 
    1898              ;** 486 -----------------------    xReturn = 0;
    1899                      .dwpsn  file "../FreeRTOS/Demo/Common/Minimal/blocktim.c",line 486,column 3,is_stmt
    1900 0004a6 3C04          T0 = #0
    1901 0004a8       $C$L47:    
    1902              ;**     -----------------------g7:
    1903              ;** 489 -----------------------    xLastSecondaryCycleCount = xSecondaryCycles;
    1904              ;** 490 -----------------------    xLastPrimaryCycleCount = xPrimaryCycles;
    1905              ;** 492 -----------------------    return xReturn;
    1906                      .dwpsn  file "../FreeRTOS/Demo/Common/Minimal/blocktim.c",line 489,column 2,is_stmt
    1907 0004a8 A931          AR1 = *(#_xSecondaryCycles) ; |489| 
         0004aa 0000 
         0004ac 05-  
    1908 0004ad C931          *(#_xLastSecondaryCycleCount$2) = AR1 ; |489| 
         0004af 0000 
         0004b1 09-  
    1909                      .dwpsn  file "../FreeRTOS/Demo/Common/Minimal/blocktim.c",line 490,column 2,is_stmt
    1910 0004b2 A931          AR1 = *(#_xPrimaryCycles) ; |490| 
         0004b4 0000 
         0004b6 04-  
    1911 0004b7 C931          *(#_xLastPrimaryCycleCount$1) = AR1 ; |490| 
         0004b9 0000 
         0004bb 08-  
    1912                      .dwpsn  file "../FreeRTOS/Demo/Common/Minimal/blocktim.c",line 492,column 2,is_stmt
    1913                      .dwpsn  file "../FreeRTOS/Demo/Common/Minimal/blocktim.c",line 493,column 1,is_stmt
    1914              $C$DW$172       .dwtag  DW_TAG_TI_branch
    1915                      .dwattr $C$DW$172, DW_AT_low_pc(0x00)
    1916                      .dwattr $C$DW$172, DW_AT_TI_return
    1917 0004bc 4804          return
    1918                                                      ; return occurs
    1919                      .dwattr $C$DW$168, DW_AT_TI_end_file("../FreeRTOS/Demo/Common/Minimal/blocktim.c")
    1920                      .dwattr $C$DW$168, DW_AT_TI_end_line(0x1ed)
    1921                      .dwattr $C$DW$168, DW_AT_TI_end_column(0x01)
    1922                      .dwendentry
    1923                      .dwendtag $C$DW$168
    1924              
    1925              ;*******************************************************************************
    1926              ;* FAR STRINGS                                                                 *
    1927              ;*******************************************************************************
    1928 000000               .sect   ".const:.string"
    1929                      .align  2
    1930 000000 0042  $C$FSL1:        .string "BTest1",0
         000001 0054 
TMS320C55x Assembler PC v4.3.8 Fri Jan 21 01:13:33 2011

Tools Copyright (c) 1996-2010 Texas Instruments Incorporated
blocktim.asm                                                         PAGE   42

         000002 0065 
         000003 0073 
         000004 0074 
         000005 0031 
         000006 0000 
    1931                      .align  2
    1932 000008 0042  $C$FSL2:        .string "BTest2",0
         000009 0054 
         00000a 0065 
         00000b 0073 
         00000c 0074 
         00000d 0032 
         00000e 0000 
    1933              ;******************************************************************************
    1934              ;* UNDEFINED EXTERNAL REFERENCES                                              *
    1935              ;******************************************************************************
    1936                      .global _vTaskDelay
    1937                      .global _vTaskPrioritySet
    1938                      .global _vTaskSuspend
    1939                      .global _vTaskResume
    1940                      .global _xTaskGetTickCount
    1941                      .global _xTaskGenericCreate
    1942                      .global _xQueueCreate
    1943                      .global _xQueueGenericSend
    1944                      .global _xQueueGenericReceive
    1945              
    1946              ;*******************************************************************************
    1947              ;* TYPE INFORMATION                                                            *
    1948              ;*******************************************************************************
    1949              $C$DW$T$3       .dwtag  DW_TAG_pointer_type
    1950                      .dwattr $C$DW$T$3, DW_AT_address_class(0x17)
    1951              $C$DW$T$43      .dwtag  DW_TAG_typedef, DW_AT_name("xTaskHandle")
    1952                      .dwattr $C$DW$T$43, DW_AT_type(*$C$DW$T$3)
    1953                      .dwattr $C$DW$T$43, DW_AT_language(DW_LANG_C)
    1954                      .dwattr $C$DW$T$43, DW_AT_decl_file("E:/temp/c5515_eZdsp_FreeRTOS_Demo/EZDSP_Sample/FreeRTOS/Source/i
    1955                      .dwattr $C$DW$T$43, DW_AT_decl_line(0x57)
    1956                      .dwattr $C$DW$T$43, DW_AT_decl_column(0x10)
    1957              $C$DW$T$44      .dwtag  DW_TAG_pointer_type
    1958                      .dwattr $C$DW$T$44, DW_AT_type(*$C$DW$T$43)
    1959                      .dwattr $C$DW$T$44, DW_AT_address_class(0x17)
    1960              $C$DW$T$45      .dwtag  DW_TAG_typedef, DW_AT_name("xQueueHandle")
    1961                      .dwattr $C$DW$T$45, DW_AT_type(*$C$DW$T$3)
    1962                      .dwattr $C$DW$T$45, DW_AT_language(DW_LANG_C)
    1963                      .dwattr $C$DW$T$45, DW_AT_decl_file("E:/temp/c5515_eZdsp_FreeRTOS_Demo/EZDSP_Sample/FreeRTOS/Source/i
    1964                      .dwattr $C$DW$T$45, DW_AT_decl_line(0x48)
    1965                      .dwattr $C$DW$T$45, DW_AT_decl_column(0x10)
    1966              $C$DW$173       .dwtag  DW_TAG_TI_far_type
    1967                      .dwattr $C$DW$173, DW_AT_type(*$C$DW$T$3)
    1968              $C$DW$T$47      .dwtag  DW_TAG_const_type
    1969                      .dwattr $C$DW$T$47, DW_AT_type(*$C$DW$173)
    1970              
    1971              $C$DW$T$33      .dwtag  DW_TAG_subroutine_type
    1972                      .dwattr $C$DW$T$33, DW_AT_language(DW_LANG_C)
    1973              $C$DW$174       .dwtag  DW_TAG_formal_parameter
    1974                      .dwattr $C$DW$174, DW_AT_type(*$C$DW$T$3)
TMS320C55x Assembler PC v4.3.8 Fri Jan 21 01:13:33 2011

Tools Copyright (c) 1996-2010 Texas Instruments Incorporated
blocktim.asm                                                         PAGE   43

    1975                      .dwendtag $C$DW$T$33
    1976              
    1977              $C$DW$T$34      .dwtag  DW_TAG_pointer_type
    1978                      .dwattr $C$DW$T$34, DW_AT_type(*$C$DW$T$33)
    1979                      .dwattr $C$DW$T$34, DW_AT_address_class(0x20)
    1980              $C$DW$T$35      .dwtag  DW_TAG_typedef, DW_AT_name("pdTASK_CODE")
    1981                      .dwattr $C$DW$T$35, DW_AT_type(*$C$DW$T$34)
    1982                      .dwattr $C$DW$T$35, DW_AT_language(DW_LANG_C)
    1983                      .dwattr $C$DW$T$35, DW_AT_decl_file("E:\temp\c5515_eZdsp_FreeRTOS_Demo\EZDSP_Sample\FreeRTOS\Source\i
    1984                      .dwattr $C$DW$T$35, DW_AT_decl_line(0x3a)
    1985                      .dwattr $C$DW$T$35, DW_AT_decl_column(0x10)
    1986              $C$DW$175       .dwtag  DW_TAG_TI_far_type
    1987              $C$DW$T$57      .dwtag  DW_TAG_const_type
    1988                      .dwattr $C$DW$T$57, DW_AT_type(*$C$DW$175)
    1989              $C$DW$T$58      .dwtag  DW_TAG_pointer_type
    1990                      .dwattr $C$DW$T$58, DW_AT_type(*$C$DW$T$57)
    1991                      .dwattr $C$DW$T$58, DW_AT_address_class(0x17)
    1992              $C$DW$176       .dwtag  DW_TAG_TI_far_type
    1993                      .dwattr $C$DW$176, DW_AT_type(*$C$DW$T$58)
    1994              $C$DW$T$59      .dwtag  DW_TAG_const_type
    1995                      .dwattr $C$DW$T$59, DW_AT_type(*$C$DW$176)
    1996              $C$DW$T$4       .dwtag  DW_TAG_base_type
    1997                      .dwattr $C$DW$T$4, DW_AT_encoding(DW_ATE_boolean)
    1998                      .dwattr $C$DW$T$4, DW_AT_name("bool")
    1999                      .dwattr $C$DW$T$4, DW_AT_byte_size(0x01)
    2000              $C$DW$T$5       .dwtag  DW_TAG_base_type
    2001                      .dwattr $C$DW$T$5, DW_AT_encoding(DW_ATE_signed_char)
    2002                      .dwattr $C$DW$T$5, DW_AT_name("signed char")
    2003                      .dwattr $C$DW$T$5, DW_AT_byte_size(0x01)
    2004              $C$DW$177       .dwtag  DW_TAG_TI_far_type
    2005                      .dwattr $C$DW$177, DW_AT_type(*$C$DW$T$5)
    2006              $C$DW$T$36      .dwtag  DW_TAG_const_type
    2007                      .dwattr $C$DW$T$36, DW_AT_type(*$C$DW$177)
    2008              $C$DW$T$37      .dwtag  DW_TAG_pointer_type
    2009                      .dwattr $C$DW$T$37, DW_AT_type(*$C$DW$T$36)
    2010                      .dwattr $C$DW$T$37, DW_AT_address_class(0x17)
    2011              $C$DW$178       .dwtag  DW_TAG_TI_far_type
    2012                      .dwattr $C$DW$178, DW_AT_type(*$C$DW$T$37)
    2013              $C$DW$T$38      .dwtag  DW_TAG_const_type
    2014                      .dwattr $C$DW$T$38, DW_AT_type(*$C$DW$178)
    2015              $C$DW$T$6       .dwtag  DW_TAG_base_type
    2016                      .dwattr $C$DW$T$6, DW_AT_encoding(DW_ATE_unsigned_char)
    2017                      .dwattr $C$DW$T$6, DW_AT_name("unsigned char")
    2018                      .dwattr $C$DW$T$6, DW_AT_byte_size(0x01)
    2019              $C$DW$T$7       .dwtag  DW_TAG_base_type
    2020                      .dwattr $C$DW$T$7, DW_AT_encoding(DW_ATE_signed_char)
    2021                      .dwattr $C$DW$T$7, DW_AT_name("wchar_t")
    2022                      .dwattr $C$DW$T$7, DW_AT_byte_size(0x01)
    2023              $C$DW$T$8       .dwtag  DW_TAG_base_type
    2024                      .dwattr $C$DW$T$8, DW_AT_encoding(DW_ATE_signed)
    2025                      .dwattr $C$DW$T$8, DW_AT_name("short")
    2026                      .dwattr $C$DW$T$8, DW_AT_byte_size(0x01)
    2027              $C$DW$T$9       .dwtag  DW_TAG_base_type
    2028                      .dwattr $C$DW$T$9, DW_AT_encoding(DW_ATE_unsigned)
    2029                      .dwattr $C$DW$T$9, DW_AT_name("unsigned short")
TMS320C55x Assembler PC v4.3.8 Fri Jan 21 01:13:33 2011

Tools Copyright (c) 1996-2010 Texas Instruments Incorporated
blocktim.asm                                                         PAGE   44

    2030                      .dwattr $C$DW$T$9, DW_AT_byte_size(0x01)
    2031              $C$DW$T$10      .dwtag  DW_TAG_base_type
    2032                      .dwattr $C$DW$T$10, DW_AT_encoding(DW_ATE_signed)
    2033                      .dwattr $C$DW$T$10, DW_AT_name("int")
    2034                      .dwattr $C$DW$T$10, DW_AT_byte_size(0x01)
    2035              $C$DW$179       .dwtag  DW_TAG_TI_far_type
    2036                      .dwattr $C$DW$179, DW_AT_type(*$C$DW$T$10)
    2037              $C$DW$T$72      .dwtag  DW_TAG_volatile_type
    2038                      .dwattr $C$DW$T$72, DW_AT_type(*$C$DW$179)
    2039              
    2040              $C$DW$T$73      .dwtag  DW_TAG_subroutine_type
    2041                      .dwattr $C$DW$T$73, DW_AT_type(*$C$DW$T$10)
    2042                      .dwattr $C$DW$T$73, DW_AT_language(DW_LANG_C)
    2043              $C$DW$180       .dwtag  DW_TAG_formal_parameter
    2044                      .dwattr $C$DW$180, DW_AT_type(*$C$DW$T$3)
    2045                      .dwendtag $C$DW$T$73
    2046              
    2047              $C$DW$T$74      .dwtag  DW_TAG_pointer_type
    2048                      .dwattr $C$DW$T$74, DW_AT_type(*$C$DW$T$73)
    2049                      .dwattr $C$DW$T$74, DW_AT_address_class(0x20)
    2050              $C$DW$T$75      .dwtag  DW_TAG_typedef, DW_AT_name("pdTASK_HOOK_CODE")
    2051                      .dwattr $C$DW$T$75, DW_AT_type(*$C$DW$T$74)
    2052                      .dwattr $C$DW$T$75, DW_AT_language(DW_LANG_C)
    2053                      .dwattr $C$DW$T$75, DW_AT_decl_file("E:/temp/c5515_eZdsp_FreeRTOS_Demo/EZDSP_Sample/FreeRTOS/Source/i
    2054                      .dwattr $C$DW$T$75, DW_AT_decl_line(0x4b)
    2055                      .dwattr $C$DW$T$75, DW_AT_decl_column(0x19)
    2056              $C$DW$T$11      .dwtag  DW_TAG_base_type
    2057                      .dwattr $C$DW$T$11, DW_AT_encoding(DW_ATE_unsigned)
    2058                      .dwattr $C$DW$T$11, DW_AT_name("unsigned int")
    2059                      .dwattr $C$DW$T$11, DW_AT_byte_size(0x01)
    2060              $C$DW$181       .dwtag  DW_TAG_TI_far_type
    2061                      .dwattr $C$DW$181, DW_AT_type(*$C$DW$T$11)
    2062              $C$DW$T$25      .dwtag  DW_TAG_volatile_type
    2063                      .dwattr $C$DW$T$25, DW_AT_type(*$C$DW$181)
    2064              $C$DW$T$39      .dwtag  DW_TAG_pointer_type
    2065                      .dwattr $C$DW$T$39, DW_AT_type(*$C$DW$T$11)
    2066                      .dwattr $C$DW$T$39, DW_AT_address_class(0x17)
    2067              $C$DW$T$78      .dwtag  DW_TAG_typedef, DW_AT_name("wchar_t")
    2068                      .dwattr $C$DW$T$78, DW_AT_type(*$C$DW$T$11)
    2069                      .dwattr $C$DW$T$78, DW_AT_language(DW_LANG_C)
    2070                      .dwattr $C$DW$T$78, DW_AT_decl_file("C:/Texas Instruments Tools/ccsv4/tools/compiler/C5500 Code Gener
    2071                      .dwattr $C$DW$T$78, DW_AT_decl_line(0x1c)
    2072                      .dwattr $C$DW$T$78, DW_AT_decl_column(0x1a)
    2073              $C$DW$T$12      .dwtag  DW_TAG_base_type
    2074                      .dwattr $C$DW$T$12, DW_AT_encoding(DW_ATE_signed)
    2075                      .dwattr $C$DW$T$12, DW_AT_name("long")
    2076                      .dwattr $C$DW$T$12, DW_AT_byte_size(0x02)
    2077              $C$DW$T$79      .dwtag  DW_TAG_typedef, DW_AT_name("ptrdiff_t")
    2078                      .dwattr $C$DW$T$79, DW_AT_type(*$C$DW$T$12)
    2079                      .dwattr $C$DW$T$79, DW_AT_language(DW_LANG_C)
    2080                      .dwattr $C$DW$T$79, DW_AT_decl_file("C:/Texas Instruments Tools/ccsv4/tools/compiler/C5500 Code Gener
    2081                      .dwattr $C$DW$T$79, DW_AT_decl_line(0x11)
    2082                      .dwattr $C$DW$T$79, DW_AT_decl_column(0x1c)
    2083              $C$DW$T$13      .dwtag  DW_TAG_base_type
    2084                      .dwattr $C$DW$T$13, DW_AT_encoding(DW_ATE_unsigned)
TMS320C55x Assembler PC v4.3.8 Fri Jan 21 01:13:33 2011

Tools Copyright (c) 1996-2010 Texas Instruments Incorporated
blocktim.asm                                                         PAGE   45

    2085                      .dwattr $C$DW$T$13, DW_AT_name("unsigned long")
    2086                      .dwattr $C$DW$T$13, DW_AT_byte_size(0x02)
    2087              $C$DW$T$20      .dwtag  DW_TAG_typedef, DW_AT_name("portTickType")
    2088                      .dwattr $C$DW$T$20, DW_AT_type(*$C$DW$T$13)
    2089                      .dwattr $C$DW$T$20, DW_AT_language(DW_LANG_C)
    2090                      .dwattr $C$DW$T$20, DW_AT_decl_file("E:\temp\c5515_eZdsp_FreeRTOS_Demo\EZDSP_Sample\FreeRTOS\Source\i
    2091                      .dwattr $C$DW$T$20, DW_AT_decl_line(0x55)
    2092                      .dwattr $C$DW$T$20, DW_AT_decl_column(0x1c)
    2093              $C$DW$T$81      .dwtag  DW_TAG_typedef, DW_AT_name("size_t")
    2094                      .dwattr $C$DW$T$81, DW_AT_type(*$C$DW$T$13)
    2095                      .dwattr $C$DW$T$81, DW_AT_language(DW_LANG_C)
    2096                      .dwattr $C$DW$T$81, DW_AT_decl_file("C:/Texas Instruments Tools/ccsv4/tools/compiler/C5500 Code Gener
    2097                      .dwattr $C$DW$T$81, DW_AT_decl_line(0x15)
    2098                      .dwattr $C$DW$T$81, DW_AT_decl_column(0x19)
    2099              $C$DW$T$14      .dwtag  DW_TAG_base_type
    2100                      .dwattr $C$DW$T$14, DW_AT_encoding(DW_ATE_signed)
    2101                      .dwattr $C$DW$T$14, DW_AT_name("long long")
    2102                      .dwattr $C$DW$T$14, DW_AT_byte_size(0x04)
    2103                      .dwattr $C$DW$T$14, DW_AT_bit_size(0x28)
    2104                      .dwattr $C$DW$T$14, DW_AT_bit_offset(0x18)
    2105              $C$DW$T$15      .dwtag  DW_TAG_base_type
    2106                      .dwattr $C$DW$T$15, DW_AT_encoding(DW_ATE_unsigned)
    2107                      .dwattr $C$DW$T$15, DW_AT_name("unsigned long long")
    2108                      .dwattr $C$DW$T$15, DW_AT_byte_size(0x04)
    2109                      .dwattr $C$DW$T$15, DW_AT_bit_size(0x28)
    2110                      .dwattr $C$DW$T$15, DW_AT_bit_offset(0x18)
    2111              $C$DW$T$16      .dwtag  DW_TAG_base_type
    2112                      .dwattr $C$DW$T$16, DW_AT_encoding(DW_ATE_float)
    2113                      .dwattr $C$DW$T$16, DW_AT_name("float")
    2114                      .dwattr $C$DW$T$16, DW_AT_byte_size(0x02)
    2115              $C$DW$T$17      .dwtag  DW_TAG_base_type
    2116                      .dwattr $C$DW$T$17, DW_AT_encoding(DW_ATE_float)
    2117                      .dwattr $C$DW$T$17, DW_AT_name("double")
    2118                      .dwattr $C$DW$T$17, DW_AT_byte_size(0x02)
    2119              $C$DW$T$18      .dwtag  DW_TAG_base_type
    2120                      .dwattr $C$DW$T$18, DW_AT_encoding(DW_ATE_float)
    2121                      .dwattr $C$DW$T$18, DW_AT_name("long double")
    2122                      .dwattr $C$DW$T$18, DW_AT_byte_size(0x02)
    2123              
    2124              $C$DW$T$19      .dwtag  DW_TAG_structure_type
    2125                      .dwattr $C$DW$T$19, DW_AT_name("xMEMORY_REGION")
    2126                      .dwattr $C$DW$T$19, DW_AT_byte_size(0x06)
    2127              $C$DW$182       .dwtag  DW_TAG_member
    2128                      .dwattr $C$DW$182, DW_AT_type(*$C$DW$T$3)
    2129                      .dwattr $C$DW$182, DW_AT_name("pvBaseAddress")
    2130                      .dwattr $C$DW$182, DW_AT_TI_symbol_name("_pvBaseAddress")
    2131                      .dwattr $C$DW$182, DW_AT_data_member_location[DW_OP_plus_uconst 0x0]
    2132                      .dwattr $C$DW$182, DW_AT_accessibility(DW_ACCESS_public)
    2133                      .dwattr $C$DW$182, DW_AT_decl_file("E:/temp/c5515_eZdsp_FreeRTOS_Demo/EZDSP_Sample/FreeRTOS/Source/in
    2134                      .dwattr $C$DW$182, DW_AT_decl_line(0x67)
    2135                      .dwattr $C$DW$182, DW_AT_decl_column(0x08)
    2136              $C$DW$183       .dwtag  DW_TAG_member
    2137                      .dwattr $C$DW$183, DW_AT_type(*$C$DW$T$13)
    2138                      .dwattr $C$DW$183, DW_AT_name("ulLengthInBytes")
    2139                      .dwattr $C$DW$183, DW_AT_TI_symbol_name("_ulLengthInBytes")
TMS320C55x Assembler PC v4.3.8 Fri Jan 21 01:13:33 2011

Tools Copyright (c) 1996-2010 Texas Instruments Incorporated
blocktim.asm                                                         PAGE   46

    2140                      .dwattr $C$DW$183, DW_AT_data_member_location[DW_OP_plus_uconst 0x2]
    2141                      .dwattr $C$DW$183, DW_AT_accessibility(DW_ACCESS_public)
    2142                      .dwattr $C$DW$183, DW_AT_decl_file("E:/temp/c5515_eZdsp_FreeRTOS_Demo/EZDSP_Sample/FreeRTOS/Source/in
    2143                      .dwattr $C$DW$183, DW_AT_decl_line(0x68)
    2144                      .dwattr $C$DW$183, DW_AT_decl_column(0x10)
    2145              $C$DW$184       .dwtag  DW_TAG_member
    2146                      .dwattr $C$DW$184, DW_AT_type(*$C$DW$T$13)
    2147                      .dwattr $C$DW$184, DW_AT_name("ulParameters")
    2148                      .dwattr $C$DW$184, DW_AT_TI_symbol_name("_ulParameters")
    2149                      .dwattr $C$DW$184, DW_AT_data_member_location[DW_OP_plus_uconst 0x4]
    2150                      .dwattr $C$DW$184, DW_AT_accessibility(DW_ACCESS_public)
    2151                      .dwattr $C$DW$184, DW_AT_decl_file("E:/temp/c5515_eZdsp_FreeRTOS_Demo/EZDSP_Sample/FreeRTOS/Source/in
    2152                      .dwattr $C$DW$184, DW_AT_decl_line(0x69)
    2153                      .dwattr $C$DW$184, DW_AT_decl_column(0x10)
    2154                      .dwendtag $C$DW$T$19
    2155              
    2156                      .dwattr $C$DW$T$19, DW_AT_decl_file("E:/temp/c5515_eZdsp_FreeRTOS_Demo/EZDSP_Sample/FreeRTOS/Source/i
    2157                      .dwattr $C$DW$T$19, DW_AT_decl_line(0x65)
    2158                      .dwattr $C$DW$T$19, DW_AT_decl_column(0x10)
    2159              $C$DW$T$40      .dwtag  DW_TAG_typedef, DW_AT_name("xMemoryRegion")
    2160                      .dwattr $C$DW$T$40, DW_AT_type(*$C$DW$T$19)
    2161                      .dwattr $C$DW$T$40, DW_AT_language(DW_LANG_C)
    2162                      .dwattr $C$DW$T$40, DW_AT_decl_file("E:/temp/c5515_eZdsp_FreeRTOS_Demo/EZDSP_Sample/FreeRTOS/Source/i
    2163                      .dwattr $C$DW$T$40, DW_AT_decl_line(0x6a)
    2164                      .dwattr $C$DW$T$40, DW_AT_decl_column(0x03)
    2165              
    2166              $C$DW$T$41      .dwtag  DW_TAG_array_type
    2167                      .dwattr $C$DW$T$41, DW_AT_type(*$C$DW$T$40)
    2168                      .dwattr $C$DW$T$41, DW_AT_language(DW_LANG_C)
    2169                      .dwattr $C$DW$T$41, DW_AT_byte_size(0x06)
    2170              $C$DW$185       .dwtag  DW_TAG_subrange_type
    2171                      .dwattr $C$DW$185, DW_AT_upper_bound(0x00)
    2172                      .dwendtag $C$DW$T$41
    2173              
    2174              $C$DW$186       .dwtag  DW_TAG_TI_far_type
    2175                      .dwattr $C$DW$186, DW_AT_type(*$C$DW$T$40)
    2176              $C$DW$T$62      .dwtag  DW_TAG_const_type
    2177                      .dwattr $C$DW$T$62, DW_AT_type(*$C$DW$186)
    2178              $C$DW$T$63      .dwtag  DW_TAG_pointer_type
    2179                      .dwattr $C$DW$T$63, DW_AT_type(*$C$DW$T$62)
    2180                      .dwattr $C$DW$T$63, DW_AT_address_class(0x17)
    2181              $C$DW$187       .dwtag  DW_TAG_TI_far_type
    2182                      .dwattr $C$DW$187, DW_AT_type(*$C$DW$T$63)
    2183              $C$DW$T$64      .dwtag  DW_TAG_const_type
    2184                      .dwattr $C$DW$T$64, DW_AT_type(*$C$DW$187)
    2185              
    2186              $C$DW$T$23      .dwtag  DW_TAG_structure_type
    2187                      .dwattr $C$DW$T$23, DW_AT_name("xLIST_ITEM")
    2188                      .dwattr $C$DW$T$23, DW_AT_byte_size(0x0a)
    2189              $C$DW$188       .dwtag  DW_TAG_member
    2190                      .dwattr $C$DW$188, DW_AT_type(*$C$DW$T$20)
    2191                      .dwattr $C$DW$188, DW_AT_name("xItemValue")
    2192                      .dwattr $C$DW$188, DW_AT_TI_symbol_name("_xItemValue")
    2193                      .dwattr $C$DW$188, DW_AT_data_member_location[DW_OP_plus_uconst 0x0]
    2194                      .dwattr $C$DW$188, DW_AT_accessibility(DW_ACCESS_public)
TMS320C55x Assembler PC v4.3.8 Fri Jan 21 01:13:33 2011

Tools Copyright (c) 1996-2010 Texas Instruments Incorporated
blocktim.asm                                                         PAGE   47

    2195                      .dwattr $C$DW$188, DW_AT_decl_file("E:\temp\c5515_eZdsp_FreeRTOS_Demo\EZDSP_Sample\FreeRTOS\Source\in
    2196                      .dwattr $C$DW$188, DW_AT_decl_line(0x64)
    2197                      .dwattr $C$DW$188, DW_AT_decl_column(0x0f)
    2198              $C$DW$189       .dwtag  DW_TAG_member
    2199                      .dwattr $C$DW$189, DW_AT_type(*$C$DW$T$22)
    2200                      .dwattr $C$DW$189, DW_AT_name("pxNext")
    2201                      .dwattr $C$DW$189, DW_AT_TI_symbol_name("_pxNext")
    2202                      .dwattr $C$DW$189, DW_AT_data_member_location[DW_OP_plus_uconst 0x2]
    2203                      .dwattr $C$DW$189, DW_AT_accessibility(DW_ACCESS_public)
    2204                      .dwattr $C$DW$189, DW_AT_decl_file("E:\temp\c5515_eZdsp_FreeRTOS_Demo\EZDSP_Sample\FreeRTOS\Source\in
    2205                      .dwattr $C$DW$189, DW_AT_decl_line(0x65)
    2206                      .dwattr $C$DW$189, DW_AT_decl_column(0x1f)
    2207              $C$DW$190       .dwtag  DW_TAG_member
    2208                      .dwattr $C$DW$190, DW_AT_type(*$C$DW$T$22)
    2209                      .dwattr $C$DW$190, DW_AT_name("pxPrevious")
    2210                      .dwattr $C$DW$190, DW_AT_TI_symbol_name("_pxPrevious")
    2211                      .dwattr $C$DW$190, DW_AT_data_member_location[DW_OP_plus_uconst 0x4]
    2212                      .dwattr $C$DW$190, DW_AT_accessibility(DW_ACCESS_public)
    2213                      .dwattr $C$DW$190, DW_AT_decl_file("E:\temp\c5515_eZdsp_FreeRTOS_Demo\EZDSP_Sample\FreeRTOS\Source\in
    2214                      .dwattr $C$DW$190, DW_AT_decl_line(0x66)
    2215                      .dwattr $C$DW$190, DW_AT_decl_column(0x1f)
    2216              $C$DW$191       .dwtag  DW_TAG_member
    2217                      .dwattr $C$DW$191, DW_AT_type(*$C$DW$T$3)
    2218                      .dwattr $C$DW$191, DW_AT_name("pvOwner")
    2219                      .dwattr $C$DW$191, DW_AT_TI_symbol_name("_pvOwner")
    2220                      .dwattr $C$DW$191, DW_AT_data_member_location[DW_OP_plus_uconst 0x6]
    2221                      .dwattr $C$DW$191, DW_AT_accessibility(DW_ACCESS_public)
    2222                      .dwattr $C$DW$191, DW_AT_decl_file("E:\temp\c5515_eZdsp_FreeRTOS_Demo\EZDSP_Sample\FreeRTOS\Source\in
    2223                      .dwattr $C$DW$191, DW_AT_decl_line(0x67)
    2224                      .dwattr $C$DW$191, DW_AT_decl_column(0x09)
    2225              $C$DW$192       .dwtag  DW_TAG_member
    2226                      .dwattr $C$DW$192, DW_AT_type(*$C$DW$T$3)
    2227                      .dwattr $C$DW$192, DW_AT_name("pvContainer")
    2228                      .dwattr $C$DW$192, DW_AT_TI_symbol_name("_pvContainer")
    2229                      .dwattr $C$DW$192, DW_AT_data_member_location[DW_OP_plus_uconst 0x8]
    2230                      .dwattr $C$DW$192, DW_AT_accessibility(DW_ACCESS_public)
    2231                      .dwattr $C$DW$192, DW_AT_decl_file("E:\temp\c5515_eZdsp_FreeRTOS_Demo\EZDSP_Sample\FreeRTOS\Source\in
    2232                      .dwattr $C$DW$192, DW_AT_decl_line(0x68)
    2233                      .dwattr $C$DW$192, DW_AT_decl_column(0x09)
    2234                      .dwendtag $C$DW$T$23
    2235              
    2236                      .dwattr $C$DW$T$23, DW_AT_decl_file("E:\temp\c5515_eZdsp_FreeRTOS_Demo\EZDSP_Sample\FreeRTOS\Source\i
    2237                      .dwattr $C$DW$T$23, DW_AT_decl_line(0x62)
    2238                      .dwattr $C$DW$T$23, DW_AT_decl_column(0x08)
    2239              $C$DW$193       .dwtag  DW_TAG_TI_far_type
    2240                      .dwattr $C$DW$193, DW_AT_type(*$C$DW$T$23)
    2241              $C$DW$T$21      .dwtag  DW_TAG_volatile_type
    2242                      .dwattr $C$DW$T$21, DW_AT_type(*$C$DW$193)
    2243              $C$DW$T$22      .dwtag  DW_TAG_pointer_type
    2244                      .dwattr $C$DW$T$22, DW_AT_type(*$C$DW$T$21)
    2245                      .dwattr $C$DW$T$22, DW_AT_address_class(0x17)
    2246              $C$DW$T$26      .dwtag  DW_TAG_typedef, DW_AT_name("xListItem")
    2247                      .dwattr $C$DW$T$26, DW_AT_type(*$C$DW$T$23)
    2248                      .dwattr $C$DW$T$26, DW_AT_language(DW_LANG_C)
    2249                      .dwattr $C$DW$T$26, DW_AT_decl_file("E:\temp\c5515_eZdsp_FreeRTOS_Demo\EZDSP_Sample\FreeRTOS\Source\i
TMS320C55x Assembler PC v4.3.8 Fri Jan 21 01:13:33 2011

Tools Copyright (c) 1996-2010 Texas Instruments Incorporated
blocktim.asm                                                         PAGE   48

    2250                      .dwattr $C$DW$T$26, DW_AT_decl_line(0x6a)
    2251                      .dwattr $C$DW$T$26, DW_AT_decl_column(0x1b)
    2252              $C$DW$194       .dwtag  DW_TAG_TI_far_type
    2253                      .dwattr $C$DW$194, DW_AT_type(*$C$DW$T$26)
    2254              $C$DW$T$27      .dwtag  DW_TAG_volatile_type
    2255                      .dwattr $C$DW$T$27, DW_AT_type(*$C$DW$194)
    2256              $C$DW$T$28      .dwtag  DW_TAG_pointer_type
    2257                      .dwattr $C$DW$T$28, DW_AT_type(*$C$DW$T$27)
    2258                      .dwattr $C$DW$T$28, DW_AT_address_class(0x17)
    2259              
    2260              $C$DW$T$24      .dwtag  DW_TAG_structure_type
    2261                      .dwattr $C$DW$T$24, DW_AT_name("xMINI_LIST_ITEM")
    2262                      .dwattr $C$DW$T$24, DW_AT_byte_size(0x06)
    2263              $C$DW$195       .dwtag  DW_TAG_member
    2264                      .dwattr $C$DW$195, DW_AT_type(*$C$DW$T$20)
    2265                      .dwattr $C$DW$195, DW_AT_name("xItemValue")
    2266                      .dwattr $C$DW$195, DW_AT_TI_symbol_name("_xItemValue")
    2267                      .dwattr $C$DW$195, DW_AT_data_member_location[DW_OP_plus_uconst 0x0]
    2268                      .dwattr $C$DW$195, DW_AT_accessibility(DW_ACCESS_public)
    2269                      .dwattr $C$DW$195, DW_AT_decl_file("E:\temp\c5515_eZdsp_FreeRTOS_Demo\EZDSP_Sample\FreeRTOS\Source\in
    2270                      .dwattr $C$DW$195, DW_AT_decl_line(0x6e)
    2271                      .dwattr $C$DW$195, DW_AT_decl_column(0x0f)
    2272              $C$DW$196       .dwtag  DW_TAG_member
    2273                      .dwattr $C$DW$196, DW_AT_type(*$C$DW$T$22)
    2274                      .dwattr $C$DW$196, DW_AT_name("pxNext")
    2275                      .dwattr $C$DW$196, DW_AT_TI_symbol_name("_pxNext")
    2276                      .dwattr $C$DW$196, DW_AT_data_member_location[DW_OP_plus_uconst 0x2]
    2277                      .dwattr $C$DW$196, DW_AT_accessibility(DW_ACCESS_public)
    2278                      .dwattr $C$DW$196, DW_AT_decl_file("E:\temp\c5515_eZdsp_FreeRTOS_Demo\EZDSP_Sample\FreeRTOS\Source\in
    2279                      .dwattr $C$DW$196, DW_AT_decl_line(0x6f)
    2280                      .dwattr $C$DW$196, DW_AT_decl_column(0x1e)
    2281              $C$DW$197       .dwtag  DW_TAG_member
    2282                      .dwattr $C$DW$197, DW_AT_type(*$C$DW$T$22)
    2283                      .dwattr $C$DW$197, DW_AT_name("pxPrevious")
    2284                      .dwattr $C$DW$197, DW_AT_TI_symbol_name("_pxPrevious")
    2285                      .dwattr $C$DW$197, DW_AT_data_member_location[DW_OP_plus_uconst 0x4]
    2286                      .dwattr $C$DW$197, DW_AT_accessibility(DW_ACCESS_public)
    2287                      .dwattr $C$DW$197, DW_AT_decl_file("E:\temp\c5515_eZdsp_FreeRTOS_Demo\EZDSP_Sample\FreeRTOS\Source\in
    2288                      .dwattr $C$DW$197, DW_AT_decl_line(0x70)
    2289                      .dwattr $C$DW$197, DW_AT_decl_column(0x1e)
    2290                      .dwendtag $C$DW$T$24
    2291              
    2292                      .dwattr $C$DW$T$24, DW_AT_decl_file("E:\temp\c5515_eZdsp_FreeRTOS_Demo\EZDSP_Sample\FreeRTOS\Source\i
    2293                      .dwattr $C$DW$T$24, DW_AT_decl_line(0x6c)
    2294                      .dwattr $C$DW$T$24, DW_AT_decl_column(0x08)
    2295              $C$DW$T$29      .dwtag  DW_TAG_typedef, DW_AT_name("xMiniListItem")
    2296                      .dwattr $C$DW$T$29, DW_AT_type(*$C$DW$T$24)
    2297                      .dwattr $C$DW$T$29, DW_AT_language(DW_LANG_C)
    2298                      .dwattr $C$DW$T$29, DW_AT_decl_file("E:\temp\c5515_eZdsp_FreeRTOS_Demo\EZDSP_Sample\FreeRTOS\Source\i
    2299                      .dwattr $C$DW$T$29, DW_AT_decl_line(0x72)
    2300                      .dwattr $C$DW$T$29, DW_AT_decl_column(0x20)
    2301              $C$DW$198       .dwtag  DW_TAG_TI_far_type
    2302                      .dwattr $C$DW$198, DW_AT_type(*$C$DW$T$29)
    2303              $C$DW$T$30      .dwtag  DW_TAG_volatile_type
    2304                      .dwattr $C$DW$T$30, DW_AT_type(*$C$DW$198)
TMS320C55x Assembler PC v4.3.8 Fri Jan 21 01:13:33 2011

Tools Copyright (c) 1996-2010 Texas Instruments Incorporated
blocktim.asm                                                         PAGE   49

    2305              
    2306              $C$DW$T$31      .dwtag  DW_TAG_structure_type
    2307                      .dwattr $C$DW$T$31, DW_AT_name("xLIST")
    2308                      .dwattr $C$DW$T$31, DW_AT_byte_size(0x0a)
    2309              $C$DW$199       .dwtag  DW_TAG_member
    2310                      .dwattr $C$DW$199, DW_AT_type(*$C$DW$T$25)
    2311                      .dwattr $C$DW$199, DW_AT_name("uxNumberOfItems")
    2312                      .dwattr $C$DW$199, DW_AT_TI_symbol_name("_uxNumberOfItems")
    2313                      .dwattr $C$DW$199, DW_AT_data_member_location[DW_OP_plus_uconst 0x0]
    2314                      .dwattr $C$DW$199, DW_AT_accessibility(DW_ACCESS_public)
    2315                      .dwattr $C$DW$199, DW_AT_decl_file("E:\temp\c5515_eZdsp_FreeRTOS_Demo\EZDSP_Sample\FreeRTOS\Source\in
    2316                      .dwattr $C$DW$199, DW_AT_decl_line(0x79)
    2317                      .dwattr $C$DW$199, DW_AT_decl_column(0x22)
    2318              $C$DW$200       .dwtag  DW_TAG_member
    2319                      .dwattr $C$DW$200, DW_AT_type(*$C$DW$T$28)
    2320                      .dwattr $C$DW$200, DW_AT_name("pxIndex")
    2321                      .dwattr $C$DW$200, DW_AT_TI_symbol_name("_pxIndex")
    2322                      .dwattr $C$DW$200, DW_AT_data_member_location[DW_OP_plus_uconst 0x2]
    2323                      .dwattr $C$DW$200, DW_AT_accessibility(DW_ACCESS_public)
    2324                      .dwattr $C$DW$200, DW_AT_decl_file("E:\temp\c5515_eZdsp_FreeRTOS_Demo\EZDSP_Sample\FreeRTOS\Source\in
    2325                      .dwattr $C$DW$200, DW_AT_decl_line(0x7a)
    2326                      .dwattr $C$DW$200, DW_AT_decl_column(0x17)
    2327              $C$DW$201       .dwtag  DW_TAG_member
    2328                      .dwattr $C$DW$201, DW_AT_type(*$C$DW$T$30)
    2329                      .dwattr $C$DW$201, DW_AT_name("xListEnd")
    2330                      .dwattr $C$DW$201, DW_AT_TI_symbol_name("_xListEnd")
    2331                      .dwattr $C$DW$201, DW_AT_data_member_location[DW_OP_plus_uconst 0x4]
    2332                      .dwattr $C$DW$201, DW_AT_accessibility(DW_ACCESS_public)
    2333                      .dwattr $C$DW$201, DW_AT_decl_file("E:\temp\c5515_eZdsp_FreeRTOS_Demo\EZDSP_Sample\FreeRTOS\Source\in
    2334                      .dwattr $C$DW$201, DW_AT_decl_line(0x7b)
    2335                      .dwattr $C$DW$201, DW_AT_decl_column(0x19)
    2336                      .dwendtag $C$DW$T$31
    2337              
    2338                      .dwattr $C$DW$T$31, DW_AT_decl_file("E:\temp\c5515_eZdsp_FreeRTOS_Demo\EZDSP_Sample\FreeRTOS\Source\i
    2339                      .dwattr $C$DW$T$31, DW_AT_decl_line(0x77)
    2340                      .dwattr $C$DW$T$31, DW_AT_decl_column(0x10)
    2341              $C$DW$T$86      .dwtag  DW_TAG_typedef, DW_AT_name("xList")
    2342                      .dwattr $C$DW$T$86, DW_AT_type(*$C$DW$T$31)
    2343                      .dwattr $C$DW$T$86, DW_AT_language(DW_LANG_C)
    2344                      .dwattr $C$DW$T$86, DW_AT_decl_file("E:\temp\c5515_eZdsp_FreeRTOS_Demo\EZDSP_Sample\FreeRTOS\Source\i
    2345                      .dwattr $C$DW$T$86, DW_AT_decl_line(0x7c)
    2346                      .dwattr $C$DW$T$86, DW_AT_decl_column(0x03)
    2347              
    2348              $C$DW$T$32      .dwtag  DW_TAG_structure_type
    2349                      .dwattr $C$DW$T$32, DW_AT_name("xTIME_OUT")
    2350                      .dwattr $C$DW$T$32, DW_AT_byte_size(0x04)
    2351              $C$DW$202       .dwtag  DW_TAG_member
    2352                      .dwattr $C$DW$202, DW_AT_type(*$C$DW$T$10)
    2353                      .dwattr $C$DW$202, DW_AT_name("xOverflowCount")
    2354                      .dwattr $C$DW$202, DW_AT_TI_symbol_name("_xOverflowCount")
    2355                      .dwattr $C$DW$202, DW_AT_data_member_location[DW_OP_plus_uconst 0x0]
    2356                      .dwattr $C$DW$202, DW_AT_accessibility(DW_ACCESS_public)
    2357                      .dwattr $C$DW$202, DW_AT_decl_file("E:/temp/c5515_eZdsp_FreeRTOS_Demo/EZDSP_Sample/FreeRTOS/Source/in
    2358                      .dwattr $C$DW$202, DW_AT_decl_line(0x5e)
    2359                      .dwattr $C$DW$202, DW_AT_decl_column(0x10)
TMS320C55x Assembler PC v4.3.8 Fri Jan 21 01:13:33 2011

Tools Copyright (c) 1996-2010 Texas Instruments Incorporated
blocktim.asm                                                         PAGE   50

    2360              $C$DW$203       .dwtag  DW_TAG_member
    2361                      .dwattr $C$DW$203, DW_AT_type(*$C$DW$T$20)
    2362                      .dwattr $C$DW$203, DW_AT_name("xTimeOnEntering")
    2363                      .dwattr $C$DW$203, DW_AT_TI_symbol_name("_xTimeOnEntering")
    2364                      .dwattr $C$DW$203, DW_AT_data_member_location[DW_OP_plus_uconst 0x2]
    2365                      .dwattr $C$DW$203, DW_AT_accessibility(DW_ACCESS_public)
    2366                      .dwattr $C$DW$203, DW_AT_decl_file("E:/temp/c5515_eZdsp_FreeRTOS_Demo/EZDSP_Sample/FreeRTOS/Source/in
    2367                      .dwattr $C$DW$203, DW_AT_decl_line(0x5f)
    2368                      .dwattr $C$DW$203, DW_AT_decl_column(0x10)
    2369                      .dwendtag $C$DW$T$32
    2370              
    2371                      .dwattr $C$DW$T$32, DW_AT_decl_file("E:/temp/c5515_eZdsp_FreeRTOS_Demo/EZDSP_Sample/FreeRTOS/Source/i
    2372                      .dwattr $C$DW$T$32, DW_AT_decl_line(0x5c)
    2373                      .dwattr $C$DW$T$32, DW_AT_decl_column(0x10)
    2374              $C$DW$T$87      .dwtag  DW_TAG_typedef, DW_AT_name("xTimeOutType")
    2375                      .dwattr $C$DW$T$87, DW_AT_type(*$C$DW$T$32)
    2376                      .dwattr $C$DW$T$87, DW_AT_language(DW_LANG_C)
    2377                      .dwattr $C$DW$T$87, DW_AT_decl_file("E:/temp/c5515_eZdsp_FreeRTOS_Demo/EZDSP_Sample/FreeRTOS/Source/i
    2378                      .dwattr $C$DW$T$87, DW_AT_decl_line(0x60)
    2379                      .dwattr $C$DW$T$87, DW_AT_decl_column(0x03)
    2380              
    2381              $C$DW$T$42      .dwtag  DW_TAG_structure_type
    2382                      .dwattr $C$DW$T$42, DW_AT_name("xTASK_PARAMTERS")
    2383                      .dwattr $C$DW$T$42, DW_AT_byte_size(0x12)
    2384              $C$DW$204       .dwtag  DW_TAG_member
    2385                      .dwattr $C$DW$204, DW_AT_type(*$C$DW$T$35)
    2386                      .dwattr $C$DW$204, DW_AT_name("pvTaskCode")
    2387                      .dwattr $C$DW$204, DW_AT_TI_symbol_name("_pvTaskCode")
    2388                      .dwattr $C$DW$204, DW_AT_data_member_location[DW_OP_plus_uconst 0x0]
    2389                      .dwattr $C$DW$204, DW_AT_accessibility(DW_ACCESS_public)
    2390                      .dwattr $C$DW$204, DW_AT_decl_file("E:/temp/c5515_eZdsp_FreeRTOS_Demo/EZDSP_Sample/FreeRTOS/Source/in
    2391                      .dwattr $C$DW$204, DW_AT_decl_line(0x71)
    2392                      .dwattr $C$DW$204, DW_AT_decl_column(0x0e)
    2393              $C$DW$205       .dwtag  DW_TAG_member
    2394                      .dwattr $C$DW$205, DW_AT_type(*$C$DW$T$38)
    2395                      .dwattr $C$DW$205, DW_AT_name("pcName")
    2396                      .dwattr $C$DW$205, DW_AT_TI_symbol_name("_pcName")
    2397                      .dwattr $C$DW$205, DW_AT_data_member_location[DW_OP_plus_uconst 0x2]
    2398                      .dwattr $C$DW$205, DW_AT_accessibility(DW_ACCESS_public)
    2399                      .dwattr $C$DW$205, DW_AT_decl_file("E:/temp/c5515_eZdsp_FreeRTOS_Demo/EZDSP_Sample/FreeRTOS/Source/in
    2400                      .dwattr $C$DW$205, DW_AT_decl_line(0x72)
    2401                      .dwattr $C$DW$205, DW_AT_decl_column(0x1c)
    2402              $C$DW$206       .dwtag  DW_TAG_member
    2403                      .dwattr $C$DW$206, DW_AT_type(*$C$DW$T$9)
    2404                      .dwattr $C$DW$206, DW_AT_name("usStackDepth")
    2405                      .dwattr $C$DW$206, DW_AT_TI_symbol_name("_usStackDepth")
    2406                      .dwattr $C$DW$206, DW_AT_data_member_location[DW_OP_plus_uconst 0x4]
    2407                      .dwattr $C$DW$206, DW_AT_accessibility(DW_ACCESS_public)
    2408                      .dwattr $C$DW$206, DW_AT_decl_file("E:/temp/c5515_eZdsp_FreeRTOS_Demo/EZDSP_Sample/FreeRTOS/Source/in
    2409                      .dwattr $C$DW$206, DW_AT_decl_line(0x73)
    2410                      .dwattr $C$DW$206, DW_AT_decl_column(0x11)
    2411              $C$DW$207       .dwtag  DW_TAG_member
    2412                      .dwattr $C$DW$207, DW_AT_type(*$C$DW$T$3)
    2413                      .dwattr $C$DW$207, DW_AT_name("pvParameters")
    2414                      .dwattr $C$DW$207, DW_AT_TI_symbol_name("_pvParameters")
TMS320C55x Assembler PC v4.3.8 Fri Jan 21 01:13:33 2011

Tools Copyright (c) 1996-2010 Texas Instruments Incorporated
blocktim.asm                                                         PAGE   51

    2415                      .dwattr $C$DW$207, DW_AT_data_member_location[DW_OP_plus_uconst 0x6]
    2416                      .dwattr $C$DW$207, DW_AT_accessibility(DW_ACCESS_public)
    2417                      .dwattr $C$DW$207, DW_AT_decl_file("E:/temp/c5515_eZdsp_FreeRTOS_Demo/EZDSP_Sample/FreeRTOS/Source/in
    2418                      .dwattr $C$DW$207, DW_AT_decl_line(0x74)
    2419                      .dwattr $C$DW$207, DW_AT_decl_column(0x08)
    2420              $C$DW$208       .dwtag  DW_TAG_member
    2421                      .dwattr $C$DW$208, DW_AT_type(*$C$DW$T$11)
    2422                      .dwattr $C$DW$208, DW_AT_name("uxPriority")
    2423                      .dwattr $C$DW$208, DW_AT_TI_symbol_name("_uxPriority")
    2424                      .dwattr $C$DW$208, DW_AT_data_member_location[DW_OP_plus_uconst 0x8]
    2425                      .dwattr $C$DW$208, DW_AT_accessibility(DW_ACCESS_public)
    2426                      .dwattr $C$DW$208, DW_AT_decl_file("E:/temp/c5515_eZdsp_FreeRTOS_Demo/EZDSP_Sample/FreeRTOS/Source/in
    2427                      .dwattr $C$DW$208, DW_AT_decl_line(0x75)
    2428                      .dwattr $C$DW$208, DW_AT_decl_column(0x19)
    2429              $C$DW$209       .dwtag  DW_TAG_member
    2430                      .dwattr $C$DW$209, DW_AT_type(*$C$DW$T$39)
    2431                      .dwattr $C$DW$209, DW_AT_name("puxStackBuffer")
    2432                      .dwattr $C$DW$209, DW_AT_TI_symbol_name("_puxStackBuffer")
    2433                      .dwattr $C$DW$209, DW_AT_data_member_location[DW_OP_plus_uconst 0xa]
    2434                      .dwattr $C$DW$209, DW_AT_accessibility(DW_ACCESS_public)
    2435                      .dwattr $C$DW$209, DW_AT_decl_file("E:/temp/c5515_eZdsp_FreeRTOS_Demo/EZDSP_Sample/FreeRTOS/Source/in
    2436                      .dwattr $C$DW$209, DW_AT_decl_line(0x76)
    2437                      .dwattr $C$DW$209, DW_AT_decl_column(0x12)
    2438              $C$DW$210       .dwtag  DW_TAG_member
    2439                      .dwattr $C$DW$210, DW_AT_type(*$C$DW$T$41)
    2440                      .dwattr $C$DW$210, DW_AT_name("xRegions")
    2441                      .dwattr $C$DW$210, DW_AT_TI_symbol_name("_xRegions")
    2442                      .dwattr $C$DW$210, DW_AT_data_member_location[DW_OP_plus_uconst 0xc]
    2443                      .dwattr $C$DW$210, DW_AT_accessibility(DW_ACCESS_public)
    2444                      .dwattr $C$DW$210, DW_AT_decl_file("E:/temp/c5515_eZdsp_FreeRTOS_Demo/EZDSP_Sample/FreeRTOS/Source/in
    2445                      .dwattr $C$DW$210, DW_AT_decl_line(0x77)
    2446                      .dwattr $C$DW$210, DW_AT_decl_column(0x10)
    2447                      .dwendtag $C$DW$T$42
    2448              
    2449                      .dwattr $C$DW$T$42, DW_AT_decl_file("E:/temp/c5515_eZdsp_FreeRTOS_Demo/EZDSP_Sample/FreeRTOS/Source/i
    2450                      .dwattr $C$DW$T$42, DW_AT_decl_line(0x6f)
    2451                      .dwattr $C$DW$T$42, DW_AT_decl_column(0x10)
    2452              $C$DW$T$88      .dwtag  DW_TAG_typedef, DW_AT_name("xTaskParameters")
    2453                      .dwattr $C$DW$T$88, DW_AT_type(*$C$DW$T$42)
    2454                      .dwattr $C$DW$T$88, DW_AT_language(DW_LANG_C)
    2455                      .dwattr $C$DW$T$88, DW_AT_decl_file("E:/temp/c5515_eZdsp_FreeRTOS_Demo/EZDSP_Sample/FreeRTOS/Source/i
    2456                      .dwattr $C$DW$T$88, DW_AT_decl_line(0x78)
    2457                      .dwattr $C$DW$T$88, DW_AT_decl_column(0x03)
    2458                      .dwattr $C$DW$CU, DW_AT_language(DW_LANG_C)
    2459              
    2460              ;***************************************************************
    2461              ;* DWARF CIE ENTRIES                                           *
    2462              ;***************************************************************
    2463              
    2464              $C$DW$CIE       .dwcie 91
    2465                      .dwcfi  cfa_register, 36
    2466                      .dwcfi  cfa_offset, 0
    2467                      .dwcfi  undefined, 0
    2468                      .dwcfi  undefined, 1
    2469                      .dwcfi  undefined, 2
TMS320C55x Assembler PC v4.3.8 Fri Jan 21 01:13:33 2011

Tools Copyright (c) 1996-2010 Texas Instruments Incorporated
blocktim.asm                                                         PAGE   52

    2470                      .dwcfi  undefined, 3
    2471                      .dwcfi  undefined, 4
    2472                      .dwcfi  undefined, 5
    2473                      .dwcfi  undefined, 6
    2474                      .dwcfi  undefined, 7
    2475                      .dwcfi  undefined, 8
    2476                      .dwcfi  undefined, 9
    2477                      .dwcfi  undefined, 10
    2478                      .dwcfi  undefined, 11
    2479                      .dwcfi  undefined, 12
    2480                      .dwcfi  undefined, 13
    2481                      .dwcfi  same_value, 14
    2482                      .dwcfi  same_value, 15
    2483                      .dwcfi  undefined, 16
    2484                      .dwcfi  undefined, 17
    2485                      .dwcfi  undefined, 18
    2486                      .dwcfi  undefined, 19
    2487                      .dwcfi  undefined, 20
    2488                      .dwcfi  undefined, 21
    2489                      .dwcfi  undefined, 22
    2490                      .dwcfi  undefined, 23
    2491                      .dwcfi  undefined, 24
    2492                      .dwcfi  undefined, 25
    2493                      .dwcfi  same_value, 26
    2494                      .dwcfi  same_value, 27
    2495                      .dwcfi  same_value, 28
    2496                      .dwcfi  same_value, 29
    2497                      .dwcfi  same_value, 30
    2498                      .dwcfi  same_value, 31
    2499                      .dwcfi  undefined, 32
    2500                      .dwcfi  undefined, 33
    2501                      .dwcfi  undefined, 34
    2502                      .dwcfi  undefined, 35
    2503                      .dwcfi  undefined, 36
    2504                      .dwcfi  undefined, 37
    2505                      .dwcfi  undefined, 38
    2506                      .dwcfi  undefined, 39
    2507                      .dwcfi  undefined, 40
    2508                      .dwcfi  undefined, 41
    2509                      .dwcfi  undefined, 42
    2510                      .dwcfi  undefined, 43
    2511                      .dwcfi  undefined, 44
    2512                      .dwcfi  undefined, 45
    2513                      .dwcfi  undefined, 46
    2514                      .dwcfi  undefined, 47
    2515                      .dwcfi  undefined, 48
    2516                      .dwcfi  undefined, 49
    2517                      .dwcfi  undefined, 50
    2518                      .dwcfi  undefined, 51
    2519                      .dwcfi  undefined, 52
    2520                      .dwcfi  undefined, 53
    2521                      .dwcfi  undefined, 54
    2522                      .dwcfi  undefined, 55
    2523                      .dwcfi  undefined, 56
    2524                      .dwcfi  undefined, 57
TMS320C55x Assembler PC v4.3.8 Fri Jan 21 01:13:33 2011

Tools Copyright (c) 1996-2010 Texas Instruments Incorporated
blocktim.asm                                                         PAGE   53

    2525                      .dwcfi  undefined, 58
    2526                      .dwcfi  undefined, 59
    2527                      .dwcfi  undefined, 60
    2528                      .dwcfi  undefined, 61
    2529                      .dwcfi  undefined, 62
    2530                      .dwcfi  undefined, 63
    2531                      .dwcfi  undefined, 64
    2532                      .dwcfi  undefined, 65
    2533                      .dwcfi  undefined, 66
    2534                      .dwcfi  undefined, 67
    2535                      .dwcfi  undefined, 68
    2536                      .dwcfi  undefined, 69
    2537                      .dwcfi  undefined, 70
    2538                      .dwcfi  undefined, 71
    2539                      .dwcfi  undefined, 72
    2540                      .dwcfi  undefined, 73
    2541                      .dwcfi  undefined, 74
    2542                      .dwcfi  undefined, 75
    2543                      .dwcfi  undefined, 76
    2544                      .dwcfi  undefined, 77
    2545                      .dwcfi  undefined, 78
    2546                      .dwcfi  undefined, 79
    2547                      .dwcfi  undefined, 80
    2548                      .dwcfi  undefined, 81
    2549                      .dwcfi  undefined, 82
    2550                      .dwcfi  undefined, 83
    2551                      .dwcfi  undefined, 84
    2552                      .dwcfi  undefined, 85
    2553                      .dwcfi  undefined, 86
    2554                      .dwcfi  undefined, 87
    2555                      .dwcfi  undefined, 88
    2556                      .dwcfi  undefined, 89
    2557                      .dwcfi  undefined, 90
    2558                      .dwcfi  undefined, 91
    2559                      .dwendentry
    2560              
    2561              ;***************************************************************
    2562              ;* DWARF REGISTER MAP                                          *
    2563              ;***************************************************************
    2564              
    2565              $C$DW$211       .dwtag  DW_TAG_TI_assign_register, DW_AT_name("AC0")
    2566                      .dwattr $C$DW$211, DW_AT_location[DW_OP_reg0]
    2567              $C$DW$212       .dwtag  DW_TAG_TI_assign_register, DW_AT_name("AC0")
    2568                      .dwattr $C$DW$212, DW_AT_location[DW_OP_reg1]
    2569              $C$DW$213       .dwtag  DW_TAG_TI_assign_register, DW_AT_name("AC0_G")
    2570                      .dwattr $C$DW$213, DW_AT_location[DW_OP_reg2]
    2571              $C$DW$214       .dwtag  DW_TAG_TI_assign_register, DW_AT_name("AC1")
    2572                      .dwattr $C$DW$214, DW_AT_location[DW_OP_reg3]
    2573              $C$DW$215       .dwtag  DW_TAG_TI_assign_register, DW_AT_name("AC1")
    2574                      .dwattr $C$DW$215, DW_AT_location[DW_OP_reg4]
    2575              $C$DW$216       .dwtag  DW_TAG_TI_assign_register, DW_AT_name("AC1_G")
    2576                      .dwattr $C$DW$216, DW_AT_location[DW_OP_reg5]
    2577              $C$DW$217       .dwtag  DW_TAG_TI_assign_register, DW_AT_name("AC2")
    2578                      .dwattr $C$DW$217, DW_AT_location[DW_OP_reg6]
    2579              $C$DW$218       .dwtag  DW_TAG_TI_assign_register, DW_AT_name("AC2")
TMS320C55x Assembler PC v4.3.8 Fri Jan 21 01:13:33 2011

Tools Copyright (c) 1996-2010 Texas Instruments Incorporated
blocktim.asm                                                         PAGE   54

    2580                      .dwattr $C$DW$218, DW_AT_location[DW_OP_reg7]
    2581              $C$DW$219       .dwtag  DW_TAG_TI_assign_register, DW_AT_name("AC2_G")
    2582                      .dwattr $C$DW$219, DW_AT_location[DW_OP_reg8]
    2583              $C$DW$220       .dwtag  DW_TAG_TI_assign_register, DW_AT_name("AC3")
    2584                      .dwattr $C$DW$220, DW_AT_location[DW_OP_reg9]
    2585              $C$DW$221       .dwtag  DW_TAG_TI_assign_register, DW_AT_name("AC3")
    2586                      .dwattr $C$DW$221, DW_AT_location[DW_OP_reg10]
    2587              $C$DW$222       .dwtag  DW_TAG_TI_assign_register, DW_AT_name("AC3_G")
    2588                      .dwattr $C$DW$222, DW_AT_location[DW_OP_reg11]
    2589              $C$DW$223       .dwtag  DW_TAG_TI_assign_register, DW_AT_name("T0")
    2590                      .dwattr $C$DW$223, DW_AT_location[DW_OP_reg12]
    2591              $C$DW$224       .dwtag  DW_TAG_TI_assign_register, DW_AT_name("T1")
    2592                      .dwattr $C$DW$224, DW_AT_location[DW_OP_reg13]
    2593              $C$DW$225       .dwtag  DW_TAG_TI_assign_register, DW_AT_name("T2")
    2594                      .dwattr $C$DW$225, DW_AT_location[DW_OP_reg14]
    2595              $C$DW$226       .dwtag  DW_TAG_TI_assign_register, DW_AT_name("T3")
    2596                      .dwattr $C$DW$226, DW_AT_location[DW_OP_reg15]
    2597              $C$DW$227       .dwtag  DW_TAG_TI_assign_register, DW_AT_name("AR0")
    2598                      .dwattr $C$DW$227, DW_AT_location[DW_OP_reg16]
    2599              $C$DW$228       .dwtag  DW_TAG_TI_assign_register, DW_AT_name("XAR0")
    2600                      .dwattr $C$DW$228, DW_AT_location[DW_OP_reg17]
    2601              $C$DW$229       .dwtag  DW_TAG_TI_assign_register, DW_AT_name("AR1")
    2602                      .dwattr $C$DW$229, DW_AT_location[DW_OP_reg18]
    2603              $C$DW$230       .dwtag  DW_TAG_TI_assign_register, DW_AT_name("XAR1")
    2604                      .dwattr $C$DW$230, DW_AT_location[DW_OP_reg19]
    2605              $C$DW$231       .dwtag  DW_TAG_TI_assign_register, DW_AT_name("AR2")
    2606                      .dwattr $C$DW$231, DW_AT_location[DW_OP_reg20]
    2607              $C$DW$232       .dwtag  DW_TAG_TI_assign_register, DW_AT_name("XAR2")
    2608                      .dwattr $C$DW$232, DW_AT_location[DW_OP_reg21]
    2609              $C$DW$233       .dwtag  DW_TAG_TI_assign_register, DW_AT_name("AR3")
    2610                      .dwattr $C$DW$233, DW_AT_location[DW_OP_reg22]
    2611              $C$DW$234       .dwtag  DW_TAG_TI_assign_register, DW_AT_name("XAR3")
    2612                      .dwattr $C$DW$234, DW_AT_location[DW_OP_reg23]
    2613              $C$DW$235       .dwtag  DW_TAG_TI_assign_register, DW_AT_name("AR4")
    2614                      .dwattr $C$DW$235, DW_AT_location[DW_OP_reg24]
    2615              $C$DW$236       .dwtag  DW_TAG_TI_assign_register, DW_AT_name("XAR4")
    2616                      .dwattr $C$DW$236, DW_AT_location[DW_OP_reg25]
    2617              $C$DW$237       .dwtag  DW_TAG_TI_assign_register, DW_AT_name("AR5")
    2618                      .dwattr $C$DW$237, DW_AT_location[DW_OP_reg26]
    2619              $C$DW$238       .dwtag  DW_TAG_TI_assign_register, DW_AT_name("XAR5")
    2620                      .dwattr $C$DW$238, DW_AT_location[DW_OP_reg27]
    2621              $C$DW$239       .dwtag  DW_TAG_TI_assign_register, DW_AT_name("AR6")
    2622                      .dwattr $C$DW$239, DW_AT_location[DW_OP_reg28]
    2623              $C$DW$240       .dwtag  DW_TAG_TI_assign_register, DW_AT_name("XAR6")
    2624                      .dwattr $C$DW$240, DW_AT_location[DW_OP_reg29]
    2625              $C$DW$241       .dwtag  DW_TAG_TI_assign_register, DW_AT_name("AR7")
    2626                      .dwattr $C$DW$241, DW_AT_location[DW_OP_reg30]
    2627              $C$DW$242       .dwtag  DW_TAG_TI_assign_register, DW_AT_name("XAR7")
    2628                      .dwattr $C$DW$242, DW_AT_location[DW_OP_reg31]
    2629              $C$DW$243       .dwtag  DW_TAG_TI_assign_register, DW_AT_name("FP")
    2630                      .dwattr $C$DW$243, DW_AT_location[DW_OP_regx 0x20]
    2631              $C$DW$244       .dwtag  DW_TAG_TI_assign_register, DW_AT_name("XFP")
    2632                      .dwattr $C$DW$244, DW_AT_location[DW_OP_regx 0x21]
    2633              $C$DW$245       .dwtag  DW_TAG_TI_assign_register, DW_AT_name("PC")
    2634                      .dwattr $C$DW$245, DW_AT_location[DW_OP_regx 0x22]
TMS320C55x Assembler PC v4.3.8 Fri Jan 21 01:13:33 2011

Tools Copyright (c) 1996-2010 Texas Instruments Incorporated
blocktim.asm                                                         PAGE   55

    2635              $C$DW$246       .dwtag  DW_TAG_TI_assign_register, DW_AT_name("SP")
    2636                      .dwattr $C$DW$246, DW_AT_location[DW_OP_regx 0x23]
    2637              $C$DW$247       .dwtag  DW_TAG_TI_assign_register, DW_AT_name("XSP")
    2638                      .dwattr $C$DW$247, DW_AT_location[DW_OP_regx 0x24]
    2639              $C$DW$248       .dwtag  DW_TAG_TI_assign_register, DW_AT_name("BKC")
    2640                      .dwattr $C$DW$248, DW_AT_location[DW_OP_regx 0x25]
    2641              $C$DW$249       .dwtag  DW_TAG_TI_assign_register, DW_AT_name("BK03")
    2642                      .dwattr $C$DW$249, DW_AT_location[DW_OP_regx 0x26]
    2643              $C$DW$250       .dwtag  DW_TAG_TI_assign_register, DW_AT_name("BK47")
    2644                      .dwattr $C$DW$250, DW_AT_location[DW_OP_regx 0x27]
    2645              $C$DW$251       .dwtag  DW_TAG_TI_assign_register, DW_AT_name("ST0")
    2646                      .dwattr $C$DW$251, DW_AT_location[DW_OP_regx 0x28]
    2647              $C$DW$252       .dwtag  DW_TAG_TI_assign_register, DW_AT_name("ST1")
    2648                      .dwattr $C$DW$252, DW_AT_location[DW_OP_regx 0x29]
    2649              $C$DW$253       .dwtag  DW_TAG_TI_assign_register, DW_AT_name("ST2")
    2650                      .dwattr $C$DW$253, DW_AT_location[DW_OP_regx 0x2a]
    2651              $C$DW$254       .dwtag  DW_TAG_TI_assign_register, DW_AT_name("ST3")
    2652                      .dwattr $C$DW$254, DW_AT_location[DW_OP_regx 0x2b]
    2653              $C$DW$255       .dwtag  DW_TAG_TI_assign_register, DW_AT_name("MDP")
    2654                      .dwattr $C$DW$255, DW_AT_location[DW_OP_regx 0x2c]
    2655              $C$DW$256       .dwtag  DW_TAG_TI_assign_register, DW_AT_name("MDP05")
    2656                      .dwattr $C$DW$256, DW_AT_location[DW_OP_regx 0x2d]
    2657              $C$DW$257       .dwtag  DW_TAG_TI_assign_register, DW_AT_name("MDP67")
    2658                      .dwattr $C$DW$257, DW_AT_location[DW_OP_regx 0x2e]
    2659              $C$DW$258       .dwtag  DW_TAG_TI_assign_register, DW_AT_name("BRC0")
    2660                      .dwattr $C$DW$258, DW_AT_location[DW_OP_regx 0x2f]
    2661              $C$DW$259       .dwtag  DW_TAG_TI_assign_register, DW_AT_name("RSA0")
    2662                      .dwattr $C$DW$259, DW_AT_location[DW_OP_regx 0x30]
    2663              $C$DW$260       .dwtag  DW_TAG_TI_assign_register, DW_AT_name("RSA0_H")
    2664                      .dwattr $C$DW$260, DW_AT_location[DW_OP_regx 0x31]
    2665              $C$DW$261       .dwtag  DW_TAG_TI_assign_register, DW_AT_name("REA0")
    2666                      .dwattr $C$DW$261, DW_AT_location[DW_OP_regx 0x32]
    2667              $C$DW$262       .dwtag  DW_TAG_TI_assign_register, DW_AT_name("REA0_H")
    2668                      .dwattr $C$DW$262, DW_AT_location[DW_OP_regx 0x33]
    2669              $C$DW$263       .dwtag  DW_TAG_TI_assign_register, DW_AT_name("BRS1")
    2670                      .dwattr $C$DW$263, DW_AT_location[DW_OP_regx 0x34]
    2671              $C$DW$264       .dwtag  DW_TAG_TI_assign_register, DW_AT_name("BRC1")
    2672                      .dwattr $C$DW$264, DW_AT_location[DW_OP_regx 0x35]
    2673              $C$DW$265       .dwtag  DW_TAG_TI_assign_register, DW_AT_name("RSA1")
    2674                      .dwattr $C$DW$265, DW_AT_location[DW_OP_regx 0x36]
    2675              $C$DW$266       .dwtag  DW_TAG_TI_assign_register, DW_AT_name("RSA1_H")
    2676                      .dwattr $C$DW$266, DW_AT_location[DW_OP_regx 0x37]
    2677              $C$DW$267       .dwtag  DW_TAG_TI_assign_register, DW_AT_name("REA1")
    2678                      .dwattr $C$DW$267, DW_AT_location[DW_OP_regx 0x38]
    2679              $C$DW$268       .dwtag  DW_TAG_TI_assign_register, DW_AT_name("REA1_H")
    2680                      .dwattr $C$DW$268, DW_AT_location[DW_OP_regx 0x39]
    2681              $C$DW$269       .dwtag  DW_TAG_TI_assign_register, DW_AT_name("CSR")
    2682                      .dwattr $C$DW$269, DW_AT_location[DW_OP_regx 0x3a]
    2683              $C$DW$270       .dwtag  DW_TAG_TI_assign_register, DW_AT_name("RPTC")
    2684                      .dwattr $C$DW$270, DW_AT_location[DW_OP_regx 0x3b]
    2685              $C$DW$271       .dwtag  DW_TAG_TI_assign_register, DW_AT_name("CDP")
    2686                      .dwattr $C$DW$271, DW_AT_location[DW_OP_regx 0x3c]
    2687              $C$DW$272       .dwtag  DW_TAG_TI_assign_register, DW_AT_name("XCDP")
    2688                      .dwattr $C$DW$272, DW_AT_location[DW_OP_regx 0x3d]
    2689              $C$DW$273       .dwtag  DW_TAG_TI_assign_register, DW_AT_name("TRN0")
TMS320C55x Assembler PC v4.3.8 Fri Jan 21 01:13:33 2011

Tools Copyright (c) 1996-2010 Texas Instruments Incorporated
blocktim.asm                                                         PAGE   56

    2690                      .dwattr $C$DW$273, DW_AT_location[DW_OP_regx 0x3e]
    2691              $C$DW$274       .dwtag  DW_TAG_TI_assign_register, DW_AT_name("TRN1")
    2692                      .dwattr $C$DW$274, DW_AT_location[DW_OP_regx 0x3f]
    2693              $C$DW$275       .dwtag  DW_TAG_TI_assign_register, DW_AT_name("BSA01")
    2694                      .dwattr $C$DW$275, DW_AT_location[DW_OP_regx 0x40]
    2695              $C$DW$276       .dwtag  DW_TAG_TI_assign_register, DW_AT_name("BSA23")
    2696                      .dwattr $C$DW$276, DW_AT_location[DW_OP_regx 0x41]
    2697              $C$DW$277       .dwtag  DW_TAG_TI_assign_register, DW_AT_name("BSA45")
    2698                      .dwattr $C$DW$277, DW_AT_location[DW_OP_regx 0x42]
    2699              $C$DW$278       .dwtag  DW_TAG_TI_assign_register, DW_AT_name("BSA67")
    2700                      .dwattr $C$DW$278, DW_AT_location[DW_OP_regx 0x43]
    2701              $C$DW$279       .dwtag  DW_TAG_TI_assign_register, DW_AT_name("BSAC")
    2702                      .dwattr $C$DW$279, DW_AT_location[DW_OP_regx 0x44]
    2703              $C$DW$280       .dwtag  DW_TAG_TI_assign_register, DW_AT_name("CARRY")
    2704                      .dwattr $C$DW$280, DW_AT_location[DW_OP_regx 0x45]
    2705              $C$DW$281       .dwtag  DW_TAG_TI_assign_register, DW_AT_name("TC1")
    2706                      .dwattr $C$DW$281, DW_AT_location[DW_OP_regx 0x46]
    2707              $C$DW$282       .dwtag  DW_TAG_TI_assign_register, DW_AT_name("TC2")
    2708                      .dwattr $C$DW$282, DW_AT_location[DW_OP_regx 0x47]
    2709              $C$DW$283       .dwtag  DW_TAG_TI_assign_register, DW_AT_name("M40")
    2710                      .dwattr $C$DW$283, DW_AT_location[DW_OP_regx 0x48]
    2711              $C$DW$284       .dwtag  DW_TAG_TI_assign_register, DW_AT_name("SXMD")
    2712                      .dwattr $C$DW$284, DW_AT_location[DW_OP_regx 0x49]
    2713              $C$DW$285       .dwtag  DW_TAG_TI_assign_register, DW_AT_name("ARMS")
    2714                      .dwattr $C$DW$285, DW_AT_location[DW_OP_regx 0x4a]
    2715              $C$DW$286       .dwtag  DW_TAG_TI_assign_register, DW_AT_name("C54CM")
    2716                      .dwattr $C$DW$286, DW_AT_location[DW_OP_regx 0x4b]
    2717              $C$DW$287       .dwtag  DW_TAG_TI_assign_register, DW_AT_name("SATA")
    2718                      .dwattr $C$DW$287, DW_AT_location[DW_OP_regx 0x4c]
    2719              $C$DW$288       .dwtag  DW_TAG_TI_assign_register, DW_AT_name("SATD")
    2720                      .dwattr $C$DW$288, DW_AT_location[DW_OP_regx 0x4d]
    2721              $C$DW$289       .dwtag  DW_TAG_TI_assign_register, DW_AT_name("RDM")
    2722                      .dwattr $C$DW$289, DW_AT_location[DW_OP_regx 0x4e]
    2723              $C$DW$290       .dwtag  DW_TAG_TI_assign_register, DW_AT_name("FRCT")
    2724                      .dwattr $C$DW$290, DW_AT_location[DW_OP_regx 0x4f]
    2725              $C$DW$291       .dwtag  DW_TAG_TI_assign_register, DW_AT_name("SMUL")
    2726                      .dwattr $C$DW$291, DW_AT_location[DW_OP_regx 0x50]
    2727              $C$DW$292       .dwtag  DW_TAG_TI_assign_register, DW_AT_name("INTM")
    2728                      .dwattr $C$DW$292, DW_AT_location[DW_OP_regx 0x51]
    2729              $C$DW$293       .dwtag  DW_TAG_TI_assign_register, DW_AT_name("AR0LC")
    2730                      .dwattr $C$DW$293, DW_AT_location[DW_OP_regx 0x52]
    2731              $C$DW$294       .dwtag  DW_TAG_TI_assign_register, DW_AT_name("AR1LC")
    2732                      .dwattr $C$DW$294, DW_AT_location[DW_OP_regx 0x53]
    2733              $C$DW$295       .dwtag  DW_TAG_TI_assign_register, DW_AT_name("AR2LC")
    2734                      .dwattr $C$DW$295, DW_AT_location[DW_OP_regx 0x54]
    2735              $C$DW$296       .dwtag  DW_TAG_TI_assign_register, DW_AT_name("AR3LC")
    2736                      .dwattr $C$DW$296, DW_AT_location[DW_OP_regx 0x55]
    2737              $C$DW$297       .dwtag  DW_TAG_TI_assign_register, DW_AT_name("AR4LC")
    2738                      .dwattr $C$DW$297, DW_AT_location[DW_OP_regx 0x56]
    2739              $C$DW$298       .dwtag  DW_TAG_TI_assign_register, DW_AT_name("AR5LC")
    2740                      .dwattr $C$DW$298, DW_AT_location[DW_OP_regx 0x57]
    2741              $C$DW$299       .dwtag  DW_TAG_TI_assign_register, DW_AT_name("AR6LC")
    2742                      .dwattr $C$DW$299, DW_AT_location[DW_OP_regx 0x58]
    2743              $C$DW$300       .dwtag  DW_TAG_TI_assign_register, DW_AT_name("AR7LC")
    2744                      .dwattr $C$DW$300, DW_AT_location[DW_OP_regx 0x59]
TMS320C55x Assembler PC v4.3.8 Fri Jan 21 01:13:33 2011

Tools Copyright (c) 1996-2010 Texas Instruments Incorporated
blocktim.asm                                                         PAGE   57

    2745              $C$DW$301       .dwtag  DW_TAG_TI_assign_register, DW_AT_name("CDPLC")
    2746                      .dwattr $C$DW$301, DW_AT_location[DW_OP_regx 0x5a]
    2747              $C$DW$302       .dwtag  DW_TAG_TI_assign_register, DW_AT_name("CIE_RETA")
    2748                      .dwattr $C$DW$302, DW_AT_location[DW_OP_regx 0x5b]
    2749                      .dwendtag $C$DW$CU
    2750              

No Assembly Errors, No Assembly Warnings
