TMS320C55x Assembler PC v4.3.8 Fri Jan 21 01:13:24 2011

Tools Copyright (c) 1996-2010 Texas Instruments Incorporated
croutine.asm                                                         PAGE    1

       1              ;*******************************************************************************
       2              ;* TMS320C55x C/C++ Codegen                                          PC v4.3.8 *
       3              ;* Date/Time created: Fri Jan 21 01:13:24 2011                                 *
       4              ;*******************************************************************************
       5                      .compiler_opts --hll_source=on --mem_model:code=flat --mem_model:data=huge --silicon_core_3_3 --symde
       6                      .mmregs
       7                      .cpl_on
       8                      .arms_on
       9                      .c54cm_off
      10                      .asg AR6, FP
      11                      .asg XAR6, XFP
      12                      .model call=c55_std
      13                      .model mem=huge
      14                      .noremark 5002  ; code respects overwrite rules
      15              ;*******************************************************************************
      16              ;* GLOBAL FILE PARAMETERS                                                      *
      17              ;*                                                                             *
      18              ;*   Architecture       : TMS320C55x                                           *
      19              ;*   Optimizing for     : Speed                                                *
      20              ;*   Memory             : Huge Model (23-Bit Data Pointers)                    *
      21              ;*   Calls              : Normal Library ASM calls                             *
      22              ;*   Debug Info         : Standard TI Debug Information                        *
      23              ;*******************************************************************************
      24              
      25              $C$DW$CU        .dwtag  DW_TAG_compile_unit
      26                      .dwattr $C$DW$CU, DW_AT_name("../FreeRTOS/Source/croutine.c")
      27                      .dwattr $C$DW$CU, DW_AT_producer("TMS320C55x C/C++ Codegen PC v4.3.8 Copyright (c) 1996-2010 Texas In
      28                      .dwattr $C$DW$CU, DW_AT_TI_version(0x01)
      29                      .dwattr $C$DW$CU, DW_AT_comp_dir("E:\temp\c5515_eZdsp_FreeRTOS_Demo\EZDSP_Sample\Debug")
      30              ;******************************************************************************
      31              ;* CINIT RECORDS                                                              *
      32              ;******************************************************************************
      33 000000               .sect   ".cinit"
      34                      .align  1
      35 000000 0002          .field          2,16
      36 000001 0000-         .field          _pxCurrentCoRoutine+0,24
         000002 3600 
      37 000002 3600          .field          0,8
      38 000003 0000          .field          0,32                    ; _pxCurrentCoRoutine @ 0
         000004 0000 
      39              
      40 000005               .sect   ".cinit"
      41                      .align  1
      42 000005 0001          .field          1,16
      43 000006 0000-         .field          _uxTopCoRoutineReadyPriority+0,24
         000007 3800 
      44 000007 3800          .field          0,8
      45 000008 0000          .field          0,16                    ; _uxTopCoRoutineReadyPriority @ 0
      46              
      47 000009               .sect   ".cinit"
      48                      .align  1
      49 000009 0002          .field          2,16
      50 00000a 0000-         .field          _xCoRoutineTickCount+0,24
         00000b 3A00 
      51 00000b 3A00          .field          0,8
TMS320C55x Assembler PC v4.3.8 Fri Jan 21 01:13:24 2011

Tools Copyright (c) 1996-2010 Texas Instruments Incorporated
croutine.asm                                                         PAGE    2

      52 00000c 0000          .field          0,32                    ; _xCoRoutineTickCount @ 0
         00000d 0000 
      53              
      54 00000e               .sect   ".cinit"
      55                      .align  1
      56 00000e 0002          .field          2,16
      57 00000f 0000-         .field          _xLastTickCount+0,24
         000010 3C00 
      58 000010 3C00          .field          0,8
      59 000011 0000          .field          0,32                    ; _xLastTickCount @ 0
         000012 0000 
      60              
      61 000013               .sect   ".cinit"
      62                      .align  1
      63 000013 0002          .field          2,16
      64 000014 0000-         .field          _xPassedTicks+0,24
         000015 3E00 
      65 000015 3E00          .field          0,8
      66 000016 0000          .field          0,32                    ; _xPassedTicks @ 0
         000017 0000 
      67              
      68              
      69              $C$DW$1 .dwtag  DW_TAG_subprogram, DW_AT_name("_enable_interrupts")
      70                      .dwattr $C$DW$1, DW_AT_TI_symbol_name("__enable_interrupts")
      71                      .dwattr $C$DW$1, DW_AT_declaration
      72                      .dwattr $C$DW$1, DW_AT_external
      73                      .dwattr $C$DW$1, DW_AT_decl_file("C:/Texas Instruments Tools/ccsv4/tools/compiler/C5500 Code Generati
      74                      .dwattr $C$DW$1, DW_AT_decl_line(0x78)
      75                      .dwattr $C$DW$1, DW_AT_decl_column(0x0e)
      76              
      77              $C$DW$2 .dwtag  DW_TAG_subprogram, DW_AT_name("_disable_interrupts")
      78                      .dwattr $C$DW$2, DW_AT_TI_symbol_name("__disable_interrupts")
      79                      .dwattr $C$DW$2, DW_AT_type(*$C$DW$T$11)
      80                      .dwattr $C$DW$2, DW_AT_declaration
      81                      .dwattr $C$DW$2, DW_AT_external
      82                      .dwattr $C$DW$2, DW_AT_decl_file("C:/Texas Instruments Tools/ccsv4/tools/compiler/C5500 Code Generati
      83                      .dwattr $C$DW$2, DW_AT_decl_line(0x79)
      84                      .dwattr $C$DW$2, DW_AT_decl_column(0x0e)
      85              
      86              $C$DW$3 .dwtag  DW_TAG_subprogram, DW_AT_name("pvPortMalloc")
      87                      .dwattr $C$DW$3, DW_AT_TI_symbol_name("_pvPortMalloc")
      88                      .dwattr $C$DW$3, DW_AT_type(*$C$DW$T$3)
      89                      .dwattr $C$DW$3, DW_AT_declaration
      90                      .dwattr $C$DW$3, DW_AT_external
      91                      .dwattr $C$DW$3, DW_AT_decl_file("E:\temp\c5515_eZdsp_FreeRTOS_Demo\EZDSP_Sample\FreeRTOS\Source\incl
      92                      .dwattr $C$DW$3, DW_AT_decl_line(0x167)
      93                      .dwattr $C$DW$3, DW_AT_decl_column(0x07)
      94              $C$DW$4 .dwtag  DW_TAG_formal_parameter
      95                      .dwattr $C$DW$4, DW_AT_type(*$C$DW$T$48)
      96                      .dwendtag $C$DW$3
      97              
      98              
      99              $C$DW$5 .dwtag  DW_TAG_subprogram, DW_AT_name("vListInitialise")
     100                      .dwattr $C$DW$5, DW_AT_TI_symbol_name("_vListInitialise")
     101                      .dwattr $C$DW$5, DW_AT_declaration
TMS320C55x Assembler PC v4.3.8 Fri Jan 21 01:13:24 2011

Tools Copyright (c) 1996-2010 Texas Instruments Incorporated
croutine.asm                                                         PAGE    3

     102                      .dwattr $C$DW$5, DW_AT_external
     103                      .dwattr $C$DW$5, DW_AT_decl_file("E:\temp\c5515_eZdsp_FreeRTOS_Demo\EZDSP_Sample\FreeRTOS\Source\incl
     104                      .dwattr $C$DW$5, DW_AT_decl_line(0xf1)
     105                      .dwattr $C$DW$5, DW_AT_decl_column(0x06)
     106              $C$DW$6 .dwtag  DW_TAG_formal_parameter
     107                      .dwattr $C$DW$6, DW_AT_type(*$C$DW$T$56)
     108                      .dwendtag $C$DW$5
     109              
     110              
     111              $C$DW$7 .dwtag  DW_TAG_subprogram, DW_AT_name("vListInitialiseItem")
     112                      .dwattr $C$DW$7, DW_AT_TI_symbol_name("_vListInitialiseItem")
     113                      .dwattr $C$DW$7, DW_AT_declaration
     114                      .dwattr $C$DW$7, DW_AT_external
     115                      .dwattr $C$DW$7, DW_AT_decl_file("E:\temp\c5515_eZdsp_FreeRTOS_Demo\EZDSP_Sample\FreeRTOS\Source\incl
     116                      .dwattr $C$DW$7, DW_AT_decl_line(0xfc)
     117                      .dwattr $C$DW$7, DW_AT_decl_column(0x06)
     118              $C$DW$8 .dwtag  DW_TAG_formal_parameter
     119                      .dwattr $C$DW$8, DW_AT_type(*$C$DW$T$59)
     120                      .dwendtag $C$DW$7
     121              
     122              
     123              $C$DW$9 .dwtag  DW_TAG_subprogram, DW_AT_name("vListInsert")
     124                      .dwattr $C$DW$9, DW_AT_TI_symbol_name("_vListInsert")
     125                      .dwattr $C$DW$9, DW_AT_declaration
     126                      .dwattr $C$DW$9, DW_AT_external
     127                      .dwattr $C$DW$9, DW_AT_decl_file("E:\temp\c5515_eZdsp_FreeRTOS_Demo\EZDSP_Sample\FreeRTOS\Source\incl
     128                      .dwattr $C$DW$9, DW_AT_decl_line(0x109)
     129                      .dwattr $C$DW$9, DW_AT_decl_column(0x06)
     130              $C$DW$10        .dwtag  DW_TAG_formal_parameter
     131                      .dwattr $C$DW$10, DW_AT_type(*$C$DW$T$56)
     132              $C$DW$11        .dwtag  DW_TAG_formal_parameter
     133                      .dwattr $C$DW$11, DW_AT_type(*$C$DW$T$59)
     134                      .dwendtag $C$DW$9
     135              
     136              
     137              $C$DW$12        .dwtag  DW_TAG_subprogram, DW_AT_name("vListInsertEnd")
     138                      .dwattr $C$DW$12, DW_AT_TI_symbol_name("_vListInsertEnd")
     139                      .dwattr $C$DW$12, DW_AT_declaration
     140                      .dwattr $C$DW$12, DW_AT_external
     141                      .dwattr $C$DW$12, DW_AT_decl_file("E:\temp\c5515_eZdsp_FreeRTOS_Demo\EZDSP_Sample\FreeRTOS\Source\inc
     142                      .dwattr $C$DW$12, DW_AT_decl_line(0x11e)
     143                      .dwattr $C$DW$12, DW_AT_decl_column(0x06)
     144              $C$DW$13        .dwtag  DW_TAG_formal_parameter
     145                      .dwattr $C$DW$13, DW_AT_type(*$C$DW$T$56)
     146              $C$DW$14        .dwtag  DW_TAG_formal_parameter
     147                      .dwattr $C$DW$14, DW_AT_type(*$C$DW$T$59)
     148                      .dwendtag $C$DW$12
     149              
     150              
     151              $C$DW$15        .dwtag  DW_TAG_subprogram, DW_AT_name("vListRemove")
     152                      .dwattr $C$DW$15, DW_AT_TI_symbol_name("_vListRemove")
     153                      .dwattr $C$DW$15, DW_AT_declaration
     154                      .dwattr $C$DW$15, DW_AT_external
     155                      .dwattr $C$DW$15, DW_AT_decl_file("E:\temp\c5515_eZdsp_FreeRTOS_Demo\EZDSP_Sample\FreeRTOS\Source\inc
     156                      .dwattr $C$DW$15, DW_AT_decl_line(0x12a)
TMS320C55x Assembler PC v4.3.8 Fri Jan 21 01:13:24 2011

Tools Copyright (c) 1996-2010 Texas Instruments Incorporated
croutine.asm                                                         PAGE    4

     157                      .dwattr $C$DW$15, DW_AT_decl_column(0x06)
     158              $C$DW$16        .dwtag  DW_TAG_formal_parameter
     159                      .dwattr $C$DW$16, DW_AT_type(*$C$DW$T$59)
     160                      .dwendtag $C$DW$15
     161              
     162              
     163              $C$DW$17        .dwtag  DW_TAG_subprogram, DW_AT_name("xTaskGetTickCount")
     164                      .dwattr $C$DW$17, DW_AT_TI_symbol_name("_xTaskGetTickCount")
     165                      .dwattr $C$DW$17, DW_AT_type(*$C$DW$T$19)
     166                      .dwattr $C$DW$17, DW_AT_declaration
     167                      .dwattr $C$DW$17, DW_AT_external
     168                      .dwattr $C$DW$17, DW_AT_decl_file("E:/temp/c5515_eZdsp_FreeRTOS_Demo/EZDSP_Sample/FreeRTOS/Source/inc
     169                      .dwattr $C$DW$17, DW_AT_decl_line(0x3cd)
     170                      .dwattr $C$DW$17, DW_AT_decl_column(0x0e)
     171 000000               .bss    _pxReadyCoRoutineLists,20,0,2
     172              $C$DW$18        .dwtag  DW_TAG_variable, DW_AT_name("pxReadyCoRoutineLists")
     173                      .dwattr $C$DW$18, DW_AT_TI_symbol_name("_pxReadyCoRoutineLists")
     174                      .dwattr $C$DW$18, DW_AT_type(*$C$DW$T$88)
     175                      .dwattr $C$DW$18, DW_AT_location[DW_OP_addr _pxReadyCoRoutineLists]
     176                      .dwattr $C$DW$18, DW_AT_decl_file("../FreeRTOS/Source/croutine.c")
     177                      .dwattr $C$DW$18, DW_AT_decl_line(0x44)
     178                      .dwattr $C$DW$18, DW_AT_decl_column(0x0e)
     179 000014               .bss    _xDelayedCoRoutineList1,10,0,2
     180              $C$DW$19        .dwtag  DW_TAG_variable, DW_AT_name("xDelayedCoRoutineList1")
     181                      .dwattr $C$DW$19, DW_AT_TI_symbol_name("_xDelayedCoRoutineList1")
     182                      .dwattr $C$DW$19, DW_AT_type(*$C$DW$T$55)
     183                      .dwattr $C$DW$19, DW_AT_location[DW_OP_addr _xDelayedCoRoutineList1]
     184                      .dwattr $C$DW$19, DW_AT_decl_file("../FreeRTOS/Source/croutine.c")
     185                      .dwattr $C$DW$19, DW_AT_decl_line(0x45)
     186                      .dwattr $C$DW$19, DW_AT_decl_column(0x0e)
     187 00001e               .bss    _xDelayedCoRoutineList2,10,0,2
     188              $C$DW$20        .dwtag  DW_TAG_variable, DW_AT_name("xDelayedCoRoutineList2")
     189                      .dwattr $C$DW$20, DW_AT_TI_symbol_name("_xDelayedCoRoutineList2")
     190                      .dwattr $C$DW$20, DW_AT_type(*$C$DW$T$55)
     191                      .dwattr $C$DW$20, DW_AT_location[DW_OP_addr _xDelayedCoRoutineList2]
     192                      .dwattr $C$DW$20, DW_AT_decl_file("../FreeRTOS/Source/croutine.c")
     193                      .dwattr $C$DW$20, DW_AT_decl_line(0x46)
     194                      .dwattr $C$DW$20, DW_AT_decl_column(0x0e)
     195 000028               .bss    _pxDelayedCoRoutineList,2,0,2
     196              $C$DW$21        .dwtag  DW_TAG_variable, DW_AT_name("pxDelayedCoRoutineList")
     197                      .dwattr $C$DW$21, DW_AT_TI_symbol_name("_pxDelayedCoRoutineList")
     198                      .dwattr $C$DW$21, DW_AT_type(*$C$DW$T$56)
     199                      .dwattr $C$DW$21, DW_AT_location[DW_OP_addr _pxDelayedCoRoutineList]
     200                      .dwattr $C$DW$21, DW_AT_decl_file("../FreeRTOS/Source/croutine.c")
     201                      .dwattr $C$DW$21, DW_AT_decl_line(0x47)
     202                      .dwattr $C$DW$21, DW_AT_decl_column(0x10)
     203 00002a               .bss    _pxOverflowDelayedCoRoutineList,2,0,2
     204              $C$DW$22        .dwtag  DW_TAG_variable, DW_AT_name("pxOverflowDelayedCoRoutineList")
     205                      .dwattr $C$DW$22, DW_AT_TI_symbol_name("_pxOverflowDelayedCoRoutineList")
     206                      .dwattr $C$DW$22, DW_AT_type(*$C$DW$T$56)
     207                      .dwattr $C$DW$22, DW_AT_location[DW_OP_addr _pxOverflowDelayedCoRoutineList]
     208                      .dwattr $C$DW$22, DW_AT_decl_file("../FreeRTOS/Source/croutine.c")
     209                      .dwattr $C$DW$22, DW_AT_decl_line(0x48)
     210                      .dwattr $C$DW$22, DW_AT_decl_column(0x10)
     211 00002c               .bss    _xPendingReadyCoRoutineList,10,0,2
TMS320C55x Assembler PC v4.3.8 Fri Jan 21 01:13:24 2011

Tools Copyright (c) 1996-2010 Texas Instruments Incorporated
croutine.asm                                                         PAGE    5

     212              $C$DW$23        .dwtag  DW_TAG_variable, DW_AT_name("xPendingReadyCoRoutineList")
     213                      .dwattr $C$DW$23, DW_AT_TI_symbol_name("_xPendingReadyCoRoutineList")
     214                      .dwattr $C$DW$23, DW_AT_type(*$C$DW$T$55)
     215                      .dwattr $C$DW$23, DW_AT_location[DW_OP_addr _xPendingReadyCoRoutineList]
     216                      .dwattr $C$DW$23, DW_AT_decl_file("../FreeRTOS/Source/croutine.c")
     217                      .dwattr $C$DW$23, DW_AT_decl_line(0x49)
     218                      .dwattr $C$DW$23, DW_AT_decl_column(0x0e)
     219                      .global _pxCurrentCoRoutine
     220 000036               .bss    _pxCurrentCoRoutine,2,0,2
     221              $C$DW$24        .dwtag  DW_TAG_variable, DW_AT_name("pxCurrentCoRoutine")
     222                      .dwattr $C$DW$24, DW_AT_TI_symbol_name("_pxCurrentCoRoutine")
     223                      .dwattr $C$DW$24, DW_AT_location[DW_OP_addr _pxCurrentCoRoutine]
     224                      .dwattr $C$DW$24, DW_AT_type(*$C$DW$T$95)
     225                      .dwattr $C$DW$24, DW_AT_external
     226                      .dwattr $C$DW$24, DW_AT_decl_file("../FreeRTOS/Source/croutine.c")
     227                      .dwattr $C$DW$24, DW_AT_decl_line(0x4c)
     228                      .dwattr $C$DW$24, DW_AT_decl_column(0x0b)
     229 000038               .bss    _uxTopCoRoutineReadyPriority,1,0,0
     230              $C$DW$25        .dwtag  DW_TAG_variable, DW_AT_name("uxTopCoRoutineReadyPriority")
     231                      .dwattr $C$DW$25, DW_AT_TI_symbol_name("_uxTopCoRoutineReadyPriority")
     232                      .dwattr $C$DW$25, DW_AT_type(*$C$DW$T$11)
     233                      .dwattr $C$DW$25, DW_AT_location[DW_OP_addr _uxTopCoRoutineReadyPriority]
     234                      .dwattr $C$DW$25, DW_AT_decl_file("../FreeRTOS/Source/croutine.c")
     235                      .dwattr $C$DW$25, DW_AT_decl_line(0x4d)
     236                      .dwattr $C$DW$25, DW_AT_decl_column(0x1f)
     237 00003a               .bss    _xCoRoutineTickCount,2,0,2
     238              $C$DW$26        .dwtag  DW_TAG_variable, DW_AT_name("xCoRoutineTickCount")
     239                      .dwattr $C$DW$26, DW_AT_TI_symbol_name("_xCoRoutineTickCount")
     240                      .dwattr $C$DW$26, DW_AT_type(*$C$DW$T$19)
     241                      .dwattr $C$DW$26, DW_AT_location[DW_OP_addr _xCoRoutineTickCount]
     242                      .dwattr $C$DW$26, DW_AT_decl_file("../FreeRTOS/Source/croutine.c")
     243                      .dwattr $C$DW$26, DW_AT_decl_line(0x4e)
     244                      .dwattr $C$DW$26, DW_AT_decl_column(0x15)
     245 00003c               .bss    _xLastTickCount,2,0,2
     246              $C$DW$27        .dwtag  DW_TAG_variable, DW_AT_name("xLastTickCount")
     247                      .dwattr $C$DW$27, DW_AT_TI_symbol_name("_xLastTickCount")
     248                      .dwattr $C$DW$27, DW_AT_type(*$C$DW$T$19)
     249                      .dwattr $C$DW$27, DW_AT_location[DW_OP_addr _xLastTickCount]
     250                      .dwattr $C$DW$27, DW_AT_decl_file("../FreeRTOS/Source/croutine.c")
     251                      .dwattr $C$DW$27, DW_AT_decl_line(0x4e)
     252                      .dwattr $C$DW$27, DW_AT_decl_column(0x2e)
     253 00003e               .bss    _xPassedTicks,2,0,2
     254              $C$DW$28        .dwtag  DW_TAG_variable, DW_AT_name("xPassedTicks")
     255                      .dwattr $C$DW$28, DW_AT_TI_symbol_name("_xPassedTicks")
     256                      .dwattr $C$DW$28, DW_AT_type(*$C$DW$T$19)
     257                      .dwattr $C$DW$28, DW_AT_location[DW_OP_addr _xPassedTicks]
     258                      .dwattr $C$DW$28, DW_AT_decl_file("../FreeRTOS/Source/croutine.c")
     259                      .dwattr $C$DW$28, DW_AT_decl_line(0x4e)
     260                      .dwattr $C$DW$28, DW_AT_decl_column(0x42)
     261              ;       C:\Texas Instruments Tools\ccsv4\tools\compiler\C5500 Code Generation Tools 4.3.8\bin\opt55.exe C:\\U
     262 000000               .sect   ".text"
     263                      .global _xCoRoutineCreate
     264              
     265              $C$DW$29        .dwtag  DW_TAG_subprogram, DW_AT_name("xCoRoutineCreate")
     266                      .dwattr $C$DW$29, DW_AT_low_pc(_xCoRoutineCreate)
TMS320C55x Assembler PC v4.3.8 Fri Jan 21 01:13:24 2011

Tools Copyright (c) 1996-2010 Texas Instruments Incorporated
croutine.asm                                                         PAGE    6

     267                      .dwattr $C$DW$29, DW_AT_high_pc(0x00)
     268                      .dwattr $C$DW$29, DW_AT_TI_symbol_name("_xCoRoutineCreate")
     269                      .dwattr $C$DW$29, DW_AT_external
     270                      .dwattr $C$DW$29, DW_AT_type(*$C$DW$T$10)
     271                      .dwattr $C$DW$29, DW_AT_TI_begin_file("../FreeRTOS/Source/croutine.c")
     272                      .dwattr $C$DW$29, DW_AT_TI_begin_line(0x7d)
     273                      .dwattr $C$DW$29, DW_AT_TI_begin_column(0x16)
     274                      .dwattr $C$DW$29, DW_AT_decl_file("../FreeRTOS/Source/croutine.c")
     275                      .dwattr $C$DW$29, DW_AT_decl_line(0x7d)
     276                      .dwattr $C$DW$29, DW_AT_decl_column(0x16)
     277                      .dwattr $C$DW$29, DW_AT_TI_max_frame_size(0x06)
     278                      .dwpsn  file "../FreeRTOS/Source/croutine.c",line 126,column 1,is_stmt,address _xCoRoutineCreate
     279              
     280                      .dwfde $C$DW$CIE, _xCoRoutineCreate
     281              $C$DW$30        .dwtag  DW_TAG_formal_parameter, DW_AT_name("pxCoRoutineCode")
     282                      .dwattr $C$DW$30, DW_AT_TI_symbol_name("_pxCoRoutineCode")
     283                      .dwattr $C$DW$30, DW_AT_type(*$C$DW$T$34)
     284                      .dwattr $C$DW$30, DW_AT_location[DW_OP_reg1]
     285              $C$DW$31        .dwtag  DW_TAG_formal_parameter, DW_AT_name("uxPriority")
     286                      .dwattr $C$DW$31, DW_AT_TI_symbol_name("_uxPriority")
     287                      .dwattr $C$DW$31, DW_AT_type(*$C$DW$T$11)
     288                      .dwattr $C$DW$31, DW_AT_location[DW_OP_reg12]
     289              $C$DW$32        .dwtag  DW_TAG_formal_parameter, DW_AT_name("uxIndex")
     290                      .dwattr $C$DW$32, DW_AT_TI_symbol_name("_uxIndex")
     291                      .dwattr $C$DW$32, DW_AT_type(*$C$DW$T$11)
     292                      .dwattr $C$DW$32, DW_AT_location[DW_OP_reg13]
     293              ;*******************************************************************************
     294              ;* FUNCTION NAME: xCoRoutineCreate                                             *
     295              ;*                                                                             *
     296              ;*   Function Uses Regs : AC0,AC0,AC1,AC1,T0,T1,T2,T3,AR0,XAR0,AR1,XAR1,AR2,   *
     297              ;*                        AR3,XAR3,AR5,XAR5,SP,CARRY,TC1,M40,SATA,SATD,RDM,    *
     298              ;*                        FRCT,SMUL                                            *
     299              ;*   Save On Entry Regs : T2,T3,AR5                                            *
     300              ;*   Stack Frame        : Compact (No Frame Pointer, w/ debug)                 *
     301              ;*   Total Frame Size   : 6 words                                              *
     302              ;*                        (1 return address/alignment)                         *
     303              ;*                        (2 local values)                                     *
     304              ;*                        (3 register save area)                               *
     305              ;*   Min System Stack   : 2 words                                              *
     306              ;*******************************************************************************
     307              
     308              ;*******************************************************************************
     309              ;*                                                                             *
     310              ;* Using -g (debug) with optimization (-o0) may disable key optimizations!     *
     311              ;*                                                                             *
     312              ;*******************************************************************************
     313 000000       _xCoRoutineCreate:
     314              ;** 131 -----------------------    pxCoRoutine = (struct _corCoRoutineControlBlock *)pvPortMalloc(26uL);
     315              ;** 132 -----------------------    if ( pxCoRoutine == NULL ) goto g9;
     316                      .dwcfi  cfa_offset, 1
     317                      .dwcfi  save_reg_to_mem, 91, -1
     318 000000 5066          push(T2)
     319                      .dwcfi  cfa_offset, 2
     320                      .dwcfi  save_reg_to_mem, 14, -2
     321 000002 5076          push(T3)
TMS320C55x Assembler PC v4.3.8 Fri Jan 21 01:13:24 2011

Tools Copyright (c) 1996-2010 Texas Instruments Incorporated
croutine.asm                                                         PAGE    7

     322                      .dwcfi  cfa_offset, 3
     323                      .dwcfi  save_reg_to_mem, 15, -3
     324 000004 50D5          pshboth(XAR5)
     325                      .dwcfi  cfa_offset, 4
     326                      .dwcfi  save_reg_to_mem, 26, -4
     327 000006 4EFE          SP = SP + #-2
     328                      .dwcfi  cfa_offset, 6
     329              ;* AR5   assigned to _pxCoRoutine
     330              $C$DW$33        .dwtag  DW_TAG_variable, DW_AT_name("pxCoRoutine")
     331                      .dwattr $C$DW$33, DW_AT_TI_symbol_name("_pxCoRoutine")
     332                      .dwattr $C$DW$33, DW_AT_type(*$C$DW$T$95)
     333                      .dwattr $C$DW$33, DW_AT_location[DW_OP_reg27]
     334              ;* T0    assigned to _xReturn
     335              $C$DW$34        .dwtag  DW_TAG_variable, DW_AT_name("xReturn")
     336                      .dwattr $C$DW$34, DW_AT_TI_symbol_name("_xReturn")
     337                      .dwattr $C$DW$34, DW_AT_type(*$C$DW$T$10)
     338                      .dwattr $C$DW$34, DW_AT_location[DW_OP_reg12]
     339              ;* T3    assigned to _uxIndex
     340              $C$DW$35        .dwtag  DW_TAG_variable, DW_AT_name("uxIndex")
     341                      .dwattr $C$DW$35, DW_AT_TI_symbol_name("_uxIndex")
     342                      .dwattr $C$DW$35, DW_AT_type(*$C$DW$T$11)
     343                      .dwattr $C$DW$35, DW_AT_location[DW_OP_reg15]
     344              ;* T2    assigned to _uxPriority
     345              $C$DW$36        .dwtag  DW_TAG_variable, DW_AT_name("uxPriority")
     346                      .dwattr $C$DW$36, DW_AT_TI_symbol_name("_uxPriority")
     347                      .dwattr $C$DW$36, DW_AT_type(*$C$DW$T$11)
     348                      .dwattr $C$DW$36, DW_AT_location[DW_OP_reg14]
     349              $C$DW$37        .dwtag  DW_TAG_variable, DW_AT_name("pxCoRoutineCode")
     350                      .dwattr $C$DW$37, DW_AT_TI_symbol_name("_pxCoRoutineCode")
     351                      .dwattr $C$DW$37, DW_AT_type(*$C$DW$T$34)
     352                      .dwattr $C$DW$37, DW_AT_location[DW_OP_bregx 0x24 0]
     353 000008 2257          T3 = T1   ; |126| 
     354              
     355 00000a EB00          dbl(*SP(#0)) = AC0 ; |126| 
         00000c 08   
     356 00000d 2346  ||      T2 = T0   ; |126| 
     357              
     358                      .dwpsn  file "../FreeRTOS/Source/croutine.c",line 131,column 2,is_stmt
     359 00000f 7600          AC0 = #26 ; |131| 
         000011 1A08 
     360              $C$DW$38        .dwtag  DW_TAG_TI_branch
     361                      .dwattr $C$DW$38, DW_AT_low_pc(0x00)
     362                      .dwattr $C$DW$38, DW_AT_name("_pvPortMalloc")
     363                      .dwattr $C$DW$38, DW_AT_TI_call
     364 000013 6C00          call #_pvPortMalloc ; |131| 
         000015 0000!
     365                                                      ; call occurs [#_pvPortMalloc] ; |131| 
     366 000017 EC01          XAR5 = mar(*AR0)
         000019 DE   
     367                      .dwpsn  file "../FreeRTOS/Source/croutine.c",line 132,column 2,is_stmt
     368 00001a 90D0          AC0 = XAR5
     369 00001c 6D00          if (AC0 == #0) goto $C$L4 ; |132| 
         00001e 0095 
     370                                                      ; branchcc occurs ; |132| 
     371              ;** 136 -----------------------    if ( pxCurrentCoRoutine ) goto g4;
TMS320C55x Assembler PC v4.3.8 Fri Jan 21 01:13:24 2011

Tools Copyright (c) 1996-2010 Texas Instruments Incorporated
croutine.asm                                                         PAGE    8

     372                      .dwpsn  file "../FreeRTOS/Source/croutine.c",line 136,column 3,is_stmt
     373 000020 ED31          XAR3 = dbl(*(#_pxCurrentCoRoutine))
         000022 BF00 
         000024 0036-
     374 000026 90B0          AC0 = XAR3
     375 000028 6490          if (AC0 != #0) goto $C$L1 ; |136| 
     376                                                      ; branchcc occurs ; |136| 
     377              ;** 138 -----------------------    pxCurrentCoRoutine = pxCoRoutine;
     378              ;** 139 -----------------------    prvInitialiseCoRoutineLists();
     379                      .dwpsn  file "../FreeRTOS/Source/croutine.c",line 138,column 4,is_stmt
     380 00002a EB31          dbl(*(#_pxCurrentCoRoutine)) = XAR5
         00002c D500 
         00002e 0036-
     381                      .dwpsn  file "../FreeRTOS/Source/croutine.c",line 139,column 4,is_stmt
     382              $C$DW$39        .dwtag  DW_TAG_TI_branch
     383                      .dwattr $C$DW$39, DW_AT_low_pc(0x00)
     384                      .dwattr $C$DW$39, DW_AT_name("_prvInitialiseCoRoutineLists")
     385                      .dwattr $C$DW$39, DW_AT_TI_call
     386 000030 0803          call #_prvInitialiseCoRoutineLists ; |139| 
         000032 2B   
     387                                                      ; call occurs [#_prvInitialiseCoRoutineLists] ; |139| 
     388 000033       $C$L1:    
     389              ;**     -----------------------g4:
     390              ;** 143 -----------------------    if ( uxPriority < 2u ) goto g6;
     391                      .dwpsn  file "../FreeRTOS/Source/croutine.c",line 143,column 3,is_stmt
     392 000033 3C29          AR1 = #2
     393 000035 1264          TC1 = uns(T2 < AR1) ; |143| 
         000037 94   
     394 000038 6164          if (TC1) goto $C$L2 ; |143| 
     395                                                      ; branchcc occurs ; |143| 
     396              ;** 145 -----------------------    uxPriority = 1u;
     397                      .dwpsn  file "../FreeRTOS/Source/croutine.c",line 145,column 4,is_stmt
     398 00003a 3C16          T2 = #1
     399 00003c       $C$L2:    
     400              ;**     -----------------------g6:
     401              ;** 149 -----------------------    (*pxCoRoutine).uxState = 0u;
     402              ;** 150 -----------------------    (*pxCoRoutine).uxPriority = uxPriority;
     403              ;** 151 -----------------------    (*pxCoRoutine).uxIndex = uxIndex;
     404              ;** 152 -----------------------    (*pxCoRoutine).pxCoRoutineFunction = pxCoRoutineCode;
     405              ;** 155 -----------------------    vListInitialiseItem((struct _xLIST_ITEM *)pxCoRoutine+2L);
     406              ;** 156 -----------------------    vListInitialiseItem((struct _xLIST_ITEM *)pxCoRoutine+12L);
     407              ;** 161 -----------------------    (*pxCoRoutine).xGenericListItem.pvOwner = (void *)pxCoRoutine;
     408              ;** 162 -----------------------    (*pxCoRoutine).xEventListItem.pvOwner = (void *)pxCoRoutine;
     409              ;** 165 -----------------------    (*pxCoRoutine).xEventListItem.xItemValue = 4uL-(unsigned long)uxPriority;
     410              ;** 169 -----------------------    if ( (*pxCoRoutine).uxPriority <= uxTopCoRoutineReadyPriority ) goto g8;
     411                      .dwpsn  file "../FreeRTOS/Source/croutine.c",line 149,column 3,is_stmt
     412 00003c E6AD          *AR5(#24) = #0 ; |149| 
         00003e 0000 
         000040 18   
     413                      .dwpsn  file "../FreeRTOS/Source/croutine.c",line 150,column 3,is_stmt
     414 000041 C6AD          *AR5(#22) = T2 ; |150| 
         000043 0016 
     415                      .dwpsn  file "../FreeRTOS/Source/croutine.c",line 151,column 3,is_stmt
     416 000045 C7AD          *AR5(#23) = T3 ; |151| 
         000047 0017 
TMS320C55x Assembler PC v4.3.8 Fri Jan 21 01:13:24 2011

Tools Copyright (c) 1996-2010 Texas Instruments Incorporated
croutine.asm                                                         PAGE    9

     417                      .dwpsn  file "../FreeRTOS/Source/croutine.c",line 152,column 3,is_stmt
     418 000049 ED00          AC0 = dbl(*SP(#0))
         00004b 08   
     419 00004c EBA1          dbl(*AR5) = AC0 ; |152| 
         00004e 08   
     420                      .dwpsn  file "../FreeRTOS/Source/croutine.c",line 155,column 3,is_stmt
     421 00004f ECA1          XAR0 = mar(*AR5)
         000051 8E   
     422 000052 1402          mar(AR0 + #2) ; |155| 
         000054 84   
     423              $C$DW$40        .dwtag  DW_TAG_TI_branch
     424                      .dwattr $C$DW$40, DW_AT_low_pc(0x00)
     425                      .dwattr $C$DW$40, DW_AT_name("_vListInitialiseItem")
     426                      .dwattr $C$DW$40, DW_AT_TI_call
     427 000055 6C00          call #_vListInitialiseItem ; |155| 
         000057 0000!
     428                                                      ; call occurs [#_vListInitialiseItem] ; |155| 
     429                      .dwpsn  file "../FreeRTOS/Source/croutine.c",line 156,column 3,is_stmt
     430 000059 ECA1          XAR0 = mar(*AR5)
         00005b 8E   
     431 00005c 140C          mar(AR0 + #12) ; |156| 
         00005e 84   
     432              $C$DW$41        .dwtag  DW_TAG_TI_branch
     433                      .dwattr $C$DW$41, DW_AT_low_pc(0x00)
     434                      .dwattr $C$DW$41, DW_AT_name("_vListInitialiseItem")
     435                      .dwattr $C$DW$41, DW_AT_TI_call
     436 00005f 6C00          call #_vListInitialiseItem ; |156| 
         000061 0000!
     437                                                      ; call occurs [#_vListInitialiseItem] ; |156| 
     438                      .dwpsn  file "../FreeRTOS/Source/croutine.c",line 161,column 3,is_stmt
     439 000063 EBAD          dbl(*AR5(#8)) = XAR5
         000065 D500 
         000067 08   
     440                      .dwpsn  file "../FreeRTOS/Source/croutine.c",line 162,column 3,is_stmt
     441 000068 EBAD          dbl(*AR5(#18)) = XAR5
         00006a D500 
         00006c 12   
     442                      .dwpsn  file "../FreeRTOS/Source/croutine.c",line 165,column 3,is_stmt
     443              
     444 000071 3D40          AC0 = #4  ; |165| 
     445 00006d 7DFF  ||      AC1 = T2 & #0xffff ; |165| 
         00006f FF16 
     446              
     447 000073 2610          AC0 = AC0 - AC1 ; |165| 
     448 000075 EBAD          dbl(*AR5(#12)) = AC0 ; |165| 
         000077 0800 
         000079 0C   
     449                      .dwpsn  file "../FreeRTOS/Source/croutine.c",line 169,column 3,is_stmt
     450 00007a A931          AR1 = *(#_uxTopCoRoutineReadyPriority) ; |169| 
         00007c 0000 
         00007e 38-  
     451 00007f AAAD          AR2 = *AR5(#22) ; |169| 
         000081 0016 
     452 000083 1298          TC1 = uns(AR2 <= AR1) ; |169| 
         000085 A4   
TMS320C55x Assembler PC v4.3.8 Fri Jan 21 01:13:24 2011

Tools Copyright (c) 1996-2010 Texas Instruments Incorporated
croutine.asm                                                         PAGE   10

     453 000086 64E4          if (TC1) goto $C$L3 ; |169| 
     454                                                      ; branchcc occurs ; |169| 
     455              ;** 169 -----------------------    uxTopCoRoutineReadyPriority = (*pxCoRoutine).uxPriority;
     456 000088 A9AD          AR1 = *AR5(#22) ; |169| 
         00008a 0016 
     457 00008c C931          *(#_uxTopCoRoutineReadyPriority) = AR1 ; |169| 
         00008e 0000 
         000090 38-  
     458 000091       $C$L3:    
     459              ;**     -----------------------g8:
     460              ;** 169 -----------------------    vListInsertEnd((long)(*pxCoRoutine).uxPriority*10+&pxReadyCoRoutineLists, 
     461              ;** 171 -----------------------    xReturn = 1;
     462              ;** 172 -----------------------    goto g10;
     463 000091 DFAD          AC1 = uns(*AR5(#22)) ; |169| 
         000093 1500 
         000095 16   
     464 000096 1015          AC0 = AC1 << #1 ; |169| 
         000098 01   
     465 000099 1013          AC0 = AC0 + (AC1 << #3) ; |169| 
         00009b 03   
     466 00009c 900B          XAR3 = AC0
     467 00009e 1402          mar(AR5 + #2) ; |169| 
         0000a0 D4   
     468 0000a1 EC31          XAR0 = #_pxReadyCoRoutineLists ; |169| 
         0000a3 8E00 
         0000a5 0000-
     469 0000a7 ECA1          XAR1 = mar(*AR5)
         0000a9 9E   
     470 0000aa 14B1          mar(XAR0 + XAR3) ; |169| 
         0000ac 80   
     471              $C$DW$42        .dwtag  DW_TAG_TI_branch
     472                      .dwattr $C$DW$42, DW_AT_low_pc(0x00)
     473                      .dwattr $C$DW$42, DW_AT_name("_vListInsertEnd")
     474                      .dwattr $C$DW$42, DW_AT_TI_call
     475 0000ad 6C00          call #_vListInsertEnd ; |169| 
         0000af 0000!
     476                                                      ; call occurs [#_vListInsertEnd] ; |169| 
     477                      .dwpsn  file "../FreeRTOS/Source/croutine.c",line 171,column 3,is_stmt
     478 0000b1 3C14          T0 = #1
     479                      .dwpsn  file "../FreeRTOS/Source/croutine.c",line 172,column 2,is_stmt
     480 0000b3 4A02          goto $C$L5 ; |172| 
     481                                                      ; branch occurs ; |172| 
     482 0000b5       $C$L4:    
     483              ;**     -----------------------g9:
     484              ;** 175 -----------------------    xReturn = (-1);
     485                      .dwpsn  file "../FreeRTOS/Source/croutine.c",line 175,column 3,is_stmt
     486 0000b5 3E14          T0 = #-1
     487 0000b7       $C$L5:    
     488              ;**     -----------------------g10:
     489              ;** 178 -----------------------    return xReturn;
     490                      .dwpsn  file "../FreeRTOS/Source/croutine.c",line 178,column 2,is_stmt
     491                      .dwpsn  file "../FreeRTOS/Source/croutine.c",line 179,column 1,is_stmt
     492 0000b7 4E02          SP = SP + #2
     493                      .dwcfi  cfa_offset, 4
     494 0000b9 50D4          XAR5 = popboth()
TMS320C55x Assembler PC v4.3.8 Fri Jan 21 01:13:24 2011

Tools Copyright (c) 1996-2010 Texas Instruments Incorporated
croutine.asm                                                         PAGE   11

     495                      .dwcfi  restore_reg, 26
     496                      .dwcfi  cfa_offset, 3
     497 0000bb 5072          T3 = pop()
     498                      .dwcfi  restore_reg, 15
     499                      .dwcfi  cfa_offset, 2
     500 0000bd 5062          T2 = pop()
     501                      .dwcfi  restore_reg, 14
     502                      .dwcfi  cfa_offset, 1
     503              $C$DW$43        .dwtag  DW_TAG_TI_branch
     504                      .dwattr $C$DW$43, DW_AT_low_pc(0x00)
     505                      .dwattr $C$DW$43, DW_AT_TI_return
     506 0000bf 4804          return
     507                                                      ; return occurs
     508                      .dwattr $C$DW$29, DW_AT_TI_end_file("../FreeRTOS/Source/croutine.c")
     509                      .dwattr $C$DW$29, DW_AT_TI_end_line(0xb3)
     510                      .dwattr $C$DW$29, DW_AT_TI_end_column(0x01)
     511                      .dwendentry
     512                      .dwendtag $C$DW$29
     513              
     514 0000c1               .sect   ".text"
     515                      .global _vCoRoutineAddToDelayedList
     516              
     517              $C$DW$44        .dwtag  DW_TAG_subprogram, DW_AT_name("vCoRoutineAddToDelayedList")
     518                      .dwattr $C$DW$44, DW_AT_low_pc(_vCoRoutineAddToDelayedList)
     519                      .dwattr $C$DW$44, DW_AT_high_pc(0x00)
     520                      .dwattr $C$DW$44, DW_AT_TI_symbol_name("_vCoRoutineAddToDelayedList")
     521                      .dwattr $C$DW$44, DW_AT_external
     522                      .dwattr $C$DW$44, DW_AT_TI_begin_file("../FreeRTOS/Source/croutine.c")
     523                      .dwattr $C$DW$44, DW_AT_TI_begin_line(0xb6)
     524                      .dwattr $C$DW$44, DW_AT_TI_begin_column(0x06)
     525                      .dwattr $C$DW$44, DW_AT_decl_file("../FreeRTOS/Source/croutine.c")
     526                      .dwattr $C$DW$44, DW_AT_decl_line(0xb6)
     527                      .dwattr $C$DW$44, DW_AT_decl_column(0x06)
     528                      .dwattr $C$DW$44, DW_AT_TI_max_frame_size(0x04)
     529                      .dwpsn  file "../FreeRTOS/Source/croutine.c",line 183,column 1,is_stmt,address _vCoRoutineAddToDelaye
     530              
     531                      .dwfde $C$DW$CIE, _vCoRoutineAddToDelayedList
     532              $C$DW$45        .dwtag  DW_TAG_formal_parameter, DW_AT_name("xTicksToDelay")
     533                      .dwattr $C$DW$45, DW_AT_TI_symbol_name("_xTicksToDelay")
     534                      .dwattr $C$DW$45, DW_AT_type(*$C$DW$T$19)
     535                      .dwattr $C$DW$45, DW_AT_location[DW_OP_reg0]
     536              $C$DW$46        .dwtag  DW_TAG_formal_parameter, DW_AT_name("pxEventList")
     537                      .dwattr $C$DW$46, DW_AT_TI_symbol_name("_pxEventList")
     538                      .dwattr $C$DW$46, DW_AT_type(*$C$DW$T$56)
     539                      .dwattr $C$DW$46, DW_AT_location[DW_OP_reg17]
     540              ;*******************************************************************************
     541              ;* FUNCTION NAME: vCoRoutineAddToDelayedList                                   *
     542              ;*                                                                             *
     543              ;*   Function Uses Regs : AC0,AC0,AC1,AC1,AR0,XAR0,AR1,XAR1,AR3,XAR3,AR5,XAR5, *
     544              ;*                        SP,CARRY,TC1,M40,SATA,SATD,RDM,FRCT,SMUL             *
     545              ;*   Save On Entry Regs : AR5                                                  *
     546              ;*   Stack Frame        : Compact (No Frame Pointer, w/ debug)                 *
     547              ;*   Total Frame Size   : 4 words                                              *
     548              ;*                        (1 return address/alignment)                         *
     549              ;*                        (2 local values)                                     *
TMS320C55x Assembler PC v4.3.8 Fri Jan 21 01:13:24 2011

Tools Copyright (c) 1996-2010 Texas Instruments Incorporated
croutine.asm                                                         PAGE   12

     550              ;*                        (1 register save area)                               *
     551              ;*   Min System Stack   : 2 words                                              *
     552              ;*******************************************************************************
     553              
     554              ;*******************************************************************************
     555              ;*                                                                             *
     556              ;* Using -g (debug) with optimization (-o0) may disable key optimizations!     *
     557              ;*                                                                             *
     558              ;*******************************************************************************
     559 0000c1       _vCoRoutineAddToDelayedList:
     560              ;** 188 -----------------------    xTimeToWake = xCoRoutineTickCount+xTicksToDelay;
     561              ;** 193 -----------------------    vListRemove((struct _xLIST_ITEM *)pxCurrentCoRoutine+2L);
     562              ;** 196 -----------------------    (*pxCurrentCoRoutine).xGenericListItem.xItemValue = xTimeToWake;
     563              ;** 198 -----------------------    if ( xTimeToWake < xCoRoutineTickCount ) goto g3;
     564                      .dwcfi  cfa_offset, 1
     565                      .dwcfi  save_reg_to_mem, 91, -1
     566 0000c1 50D5          pshboth(XAR5)
     567                      .dwcfi  cfa_offset, 2
     568                      .dwcfi  save_reg_to_mem, 26, -2
     569 0000c3 4EFE          SP = SP + #-2
     570                      .dwcfi  cfa_offset, 4
     571              $C$DW$47        .dwtag  DW_TAG_variable, DW_AT_name("xTimeToWake")
     572                      .dwattr $C$DW$47, DW_AT_TI_symbol_name("_xTimeToWake")
     573                      .dwattr $C$DW$47, DW_AT_type(*$C$DW$T$19)
     574                      .dwattr $C$DW$47, DW_AT_location[DW_OP_bregx 0x24 0]
     575              ;* AR5   assigned to _pxEventList
     576              $C$DW$48        .dwtag  DW_TAG_variable, DW_AT_name("pxEventList")
     577                      .dwattr $C$DW$48, DW_AT_TI_symbol_name("_pxEventList")
     578                      .dwattr $C$DW$48, DW_AT_type(*$C$DW$T$56)
     579                      .dwattr $C$DW$48, DW_AT_location[DW_OP_reg27]
     580              ;* AC0   assigned to _xTicksToDelay
     581              $C$DW$49        .dwtag  DW_TAG_variable, DW_AT_name("xTicksToDelay")
     582                      .dwattr $C$DW$49, DW_AT_TI_symbol_name("_xTicksToDelay")
     583                      .dwattr $C$DW$49, DW_AT_type(*$C$DW$T$19)
     584                      .dwattr $C$DW$49, DW_AT_location[DW_OP_reg0]
     585 0000c5 EC01          XAR5 = mar(*AR0)
         0000c7 DE   
     586                      .dwpsn  file "../FreeRTOS/Source/croutine.c",line 188,column 2,is_stmt
     587 0000c8 ED31          AC0 = AC0 + dbl(*(#_xCoRoutineTickCount)) ; |188| 
         0000ca 0000 
         0000cc 003A-
     588 0000ce EB00          dbl(*SP(#0)) = AC0 ; |188| 
         0000d0 08   
     589                      .dwpsn  file "../FreeRTOS/Source/croutine.c",line 193,column 2,is_stmt
     590 0000d1 ED31          XAR0 = dbl(*(#_pxCurrentCoRoutine))
         0000d3 8F00 
         0000d5 0036-
     591 0000d7 1402          mar(AR0 + #2) ; |193| 
         0000d9 84   
     592              $C$DW$50        .dwtag  DW_TAG_TI_branch
     593                      .dwattr $C$DW$50, DW_AT_low_pc(0x00)
     594                      .dwattr $C$DW$50, DW_AT_name("_vListRemove")
     595                      .dwattr $C$DW$50, DW_AT_TI_call
     596 0000da 6C00          call #_vListRemove ; |193| 
         0000dc 0000!
TMS320C55x Assembler PC v4.3.8 Fri Jan 21 01:13:24 2011

Tools Copyright (c) 1996-2010 Texas Instruments Incorporated
croutine.asm                                                         PAGE   13

     597                                                      ; call occurs [#_vListRemove] ; |193| 
     598                      .dwpsn  file "../FreeRTOS/Source/croutine.c",line 196,column 2,is_stmt
     599 0000de ED31          XAR3 = dbl(*(#_pxCurrentCoRoutine))
         0000e0 BF00 
         0000e2 0036-
     600 0000e4 ED00          AC0 = dbl(*SP(#0)) ; |196| 
         0000e6 08   
     601 0000e7 EB75          dbl(*AR3(short(#2))) = AC0 ; |196| 
         0000e9 08   
     602                      .dwpsn  file "../FreeRTOS/Source/croutine.c",line 198,column 2,is_stmt
     603 0000ea ED31          AC1 = dbl(*(#_xCoRoutineTickCount)) ; |198| 
         0000ec 1800 
         0000ee 003A-
     604 0000f0 ED00          AC0 = dbl(*SP(#0)) ; |198| 
         0000f2 08   
     605 0000f3 1204          TC1 = uns(AC0 < AC1) ; |198| 
         0000f5 14   
     606 0000f6 0464          if (TC1) goto $C$L6 ; |198| 
         0000f8 15   
     607                                                      ; branchcc occurs ; |198| 
     608              ;** 208 -----------------------    vListInsert(pxDelayedCoRoutineList, (struct _xLIST_ITEM *)pxCurrentCoRouti
     609              ;** 208 -----------------------    goto g4;
     610                      .dwpsn  file "../FreeRTOS/Source/croutine.c",line 208,column 3,is_stmt
     611 0000f9 ED31          XAR1 = dbl(*(#_pxCurrentCoRoutine))
         0000fb 9F00 
         0000fd 0036-
     612 0000ff ED31          XAR0 = dbl(*(#_pxDelayedCoRoutineList))
         000101 8F00 
         000103 0028-
     613 000105 1402          mar(AR1 + #2) ; |208| 
         000107 94   
     614              $C$DW$51        .dwtag  DW_TAG_TI_branch
     615                      .dwattr $C$DW$51, DW_AT_low_pc(0x00)
     616                      .dwattr $C$DW$51, DW_AT_name("_vListInsert")
     617                      .dwattr $C$DW$51, DW_AT_TI_call
     618 000108 6C00          call #_vListInsert ; |208| 
         00010a 0000!
     619                                                      ; call occurs [#_vListInsert] ; |208| 
     620 00010c 4A13          goto $C$L7 ; |208| 
     621                                                      ; branch occurs ; |208| 
     622 00010e       $C$L6:    
     623              ;**     -----------------------g3:
     624              ;** 202 -----------------------    vListInsert(pxOverflowDelayedCoRoutineList, (struct _xLIST_ITEM *)pxCurren
     625                      .dwpsn  file "../FreeRTOS/Source/croutine.c",line 202,column 3,is_stmt
     626 00010e ED31          XAR1 = dbl(*(#_pxCurrentCoRoutine))
         000110 9F00 
         000112 0036-
     627 000114 ED31          XAR0 = dbl(*(#_pxOverflowDelayedCoRoutineList))
         000116 8F00 
         000118 002A-
     628 00011a 1402          mar(AR1 + #2) ; |202| 
         00011c 94   
     629              $C$DW$52        .dwtag  DW_TAG_TI_branch
     630                      .dwattr $C$DW$52, DW_AT_low_pc(0x00)
     631                      .dwattr $C$DW$52, DW_AT_name("_vListInsert")
TMS320C55x Assembler PC v4.3.8 Fri Jan 21 01:13:24 2011

Tools Copyright (c) 1996-2010 Texas Instruments Incorporated
croutine.asm                                                         PAGE   14

     632                      .dwattr $C$DW$52, DW_AT_TI_call
     633 00011d 6C00          call #_vListInsert ; |202| 
         00011f 0000!
     634                                                      ; call occurs [#_vListInsert] ; |202| 
     635 000121       $C$L7:    
     636              ;**     -----------------------g4:
     637              ;** 211 -----------------------    if ( pxEventList == NULL ) goto g6;
     638                      .dwpsn  file "../FreeRTOS/Source/croutine.c",line 211,column 2,is_stmt
     639 000121 90D0          AC0 = XAR5
     640 000123 0400          if (AC0 == #0) goto $C$L8 ; |211| 
         000125 10   
     641                                                      ; branchcc occurs ; |211| 
     642              ;** 215 -----------------------    vListInsert(pxEventList, (struct _xLIST_ITEM *)pxCurrentCoRoutine+12L);
     643              ;**     -----------------------g6:
     644              ;**     -----------------------    return;
     645                      .dwpsn  file "../FreeRTOS/Source/croutine.c",line 215,column 3,is_stmt
     646 000126 ED31          XAR1 = dbl(*(#_pxCurrentCoRoutine))
         000128 9F00 
         00012a 0036-
     647 00012c ECA1          XAR0 = mar(*AR5)
         00012e 8E   
     648 00012f 140C          mar(AR1 + #12) ; |215| 
         000131 94   
     649              $C$DW$53        .dwtag  DW_TAG_TI_branch
     650                      .dwattr $C$DW$53, DW_AT_low_pc(0x00)
     651                      .dwattr $C$DW$53, DW_AT_name("_vListInsert")
     652                      .dwattr $C$DW$53, DW_AT_TI_call
     653 000132 6C00          call #_vListInsert ; |215| 
         000134 0000!
     654                                                      ; call occurs [#_vListInsert] ; |215| 
     655 000136       $C$L8:    
     656                      .dwpsn  file "../FreeRTOS/Source/croutine.c",line 217,column 1,is_stmt
     657 000136 4E02          SP = SP + #2
     658                      .dwcfi  cfa_offset, 2
     659 000138 50D4          XAR5 = popboth()
     660                      .dwcfi  restore_reg, 26
     661                      .dwcfi  cfa_offset, 1
     662              $C$DW$54        .dwtag  DW_TAG_TI_branch
     663                      .dwattr $C$DW$54, DW_AT_low_pc(0x00)
     664                      .dwattr $C$DW$54, DW_AT_TI_return
     665 00013a 4804          return
     666                                                      ; return occurs
     667                      .dwattr $C$DW$44, DW_AT_TI_end_file("../FreeRTOS/Source/croutine.c")
     668                      .dwattr $C$DW$44, DW_AT_TI_end_line(0xd9)
     669                      .dwattr $C$DW$44, DW_AT_TI_end_column(0x01)
     670                      .dwendentry
     671                      .dwendtag $C$DW$44
     672              
     673 00013c               .sect   ".text"
     674              
     675              $C$DW$55        .dwtag  DW_TAG_subprogram, DW_AT_name("prvCheckPendingReadyList")
     676                      .dwattr $C$DW$55, DW_AT_low_pc(_prvCheckPendingReadyList)
     677                      .dwattr $C$DW$55, DW_AT_high_pc(0x00)
     678                      .dwattr $C$DW$55, DW_AT_TI_symbol_name("_prvCheckPendingReadyList")
     679                      .dwattr $C$DW$55, DW_AT_TI_begin_file("../FreeRTOS/Source/croutine.c")
TMS320C55x Assembler PC v4.3.8 Fri Jan 21 01:13:24 2011

Tools Copyright (c) 1996-2010 Texas Instruments Incorporated
croutine.asm                                                         PAGE   15

     680                      .dwattr $C$DW$55, DW_AT_TI_begin_line(0xdc)
     681                      .dwattr $C$DW$55, DW_AT_TI_begin_column(0x0d)
     682                      .dwattr $C$DW$55, DW_AT_decl_file("../FreeRTOS/Source/croutine.c")
     683                      .dwattr $C$DW$55, DW_AT_decl_line(0xdc)
     684                      .dwattr $C$DW$55, DW_AT_decl_column(0x0d)
     685                      .dwattr $C$DW$55, DW_AT_TI_max_frame_size(0x02)
     686                      .dwpsn  file "../FreeRTOS/Source/croutine.c",line 221,column 1,is_stmt,address _prvCheckPendingReadyL
     687              
     688                      .dwfde $C$DW$CIE, _prvCheckPendingReadyList
     689              ;*******************************************************************************
     690              ;* FUNCTION NAME: prvCheckPendingReadyList                                     *
     691              ;*                                                                             *
     692              ;*   Function Uses Regs : AC0,AC0,AC1,AC1,AR0,XAR0,AR1,XAR1,AR2,AR3,XAR3,AR5,  *
     693              ;*                        XAR5,SP,CARRY,TC1,M40,SATA,SATD,RDM,FRCT,SMUL,INTM   *
     694              ;*   Save On Entry Regs : AR5                                                  *
     695              ;*   Stack Frame        : Compact (No Frame Pointer, w/ debug)                 *
     696              ;*   Total Frame Size   : 2 words                                              *
     697              ;*                        (1 return address/alignment)                         *
     698              ;*                        (1 register save area)                               *
     699              ;*   Min System Stack   : 2 words                                              *
     700              ;*******************************************************************************
     701              
     702              ;*******************************************************************************
     703              ;*                                                                             *
     704              ;* Using -g (debug) with optimization (-o0) may disable key optimizations!     *
     705              ;*                                                                             *
     706              ;*******************************************************************************
     707 00013c       _prvCheckPendingReadyList:
     708              ;** 225 -----------------------    if ( !xPendingReadyCoRoutineList.uxNumberOfItems ) goto g8;
     709                      .dwcfi  cfa_offset, 1
     710                      .dwcfi  save_reg_to_mem, 91, -1
     711 00013c 50D5          pshboth(XAR5)
     712                      .dwcfi  cfa_offset, 2
     713                      .dwcfi  save_reg_to_mem, 26, -2
     714                      .dwcfi  cfa_offset, 2
     715              ;* AR5   assigned to _pxUnblockedCRCB
     716              $C$DW$56        .dwtag  DW_TAG_variable, DW_AT_name("pxUnblockedCRCB")
     717                      .dwattr $C$DW$56, DW_AT_TI_symbol_name("_pxUnblockedCRCB")
     718                      .dwattr $C$DW$56, DW_AT_type(*$C$DW$T$95)
     719                      .dwattr $C$DW$56, DW_AT_location[DW_OP_reg27]
     720                      .dwpsn  file "../FreeRTOS/Source/croutine.c",line 225,column 9,is_stmt
     721 00013e A931          AR1 = *(#_xPendingReadyCoRoutineList) ; |225| 
         000140 0000 
         000142 2C-  
     722 000143 0409          if (AR1 == #0) goto $C$L13 ; |225| 
         000145 6F   
     723                                                      ; branchcc occurs ; |225| 
     724 000146       $C$L9:    
     725 000146       $C$DW$L$_prvCheckPendingReadyList$2$B:
     726              ;**     -----------------------g2:
     727              ;** 230 -----------------------    _disable_interrupts();
     728              ;** 232 -----------------------    if ( xPendingReadyCoRoutineList.uxNumberOfItems ) goto g4;
     729                      .dwpsn  file "../FreeRTOS/Source/croutine.c",line 230,column 3,is_stmt
     730 000146 46B3          bit(ST1, #ST1_INTM) = #1 ; |230| 
     731                                                      ; interrupts disabled ; |230| 
TMS320C55x Assembler PC v4.3.8 Fri Jan 21 01:13:24 2011

Tools Copyright (c) 1996-2010 Texas Instruments Incorporated
croutine.asm                                                         PAGE   16

     732                      .dwpsn  file "../FreeRTOS/Source/croutine.c",line 232,column 4,is_stmt
     733 000148 A931          AR1 = *(#_xPendingReadyCoRoutineList) ; |232| 
         00014a 0000 
         00014c 2C-  
     734 00014d 6419          if (AR1 != #0) goto $C$L10 ; |232| 
     735                                                      ; branchcc occurs ; |232| 
     736 00014f       $C$DW$L$_prvCheckPendingReadyList$2$E:
     737 00014f       $C$DW$L$_prvCheckPendingReadyList$3$B:
     738              ;** 232 -----------------------    pxUnblockedCRCB = (struct _corCoRoutineControlBlock *)NULL;
     739              ;** 232 -----------------------    goto g5;
     740 00014f EC31          XAR5 = #0 ; |232| 
         000151 DE00 
         000153 0000 
     741 000155 4A09          goto $C$L11 ; |232| 
     742                                                      ; branch occurs ; |232| 
     743 000157       $C$DW$L$_prvCheckPendingReadyList$3$E:
     744 000157       $C$L10:    
     745 000157       $C$DW$L$_prvCheckPendingReadyList$4$B:
     746              ;**     -----------------------g4:
     747              ;** 232 -----------------------    pxUnblockedCRCB = (struct _corCoRoutineControlBlock *)(*xPendingReadyCoRou
     748 000157 ED31          XAR3 = dbl(*(#(_xPendingReadyCoRoutineList+6)))
         000159 BF00 
         00015b 0032-
     749 00015d ED7D          XAR5 = dbl(*AR3(short(#6)))
         00015f DF   
     750 000160       $C$DW$L$_prvCheckPendingReadyList$4$E:
     751 000160       $C$L11:    
     752 000160       $C$DW$L$_prvCheckPendingReadyList$5$B:
     753              ;**     -----------------------g5:
     754              ;** 233 -----------------------    vListRemove((struct _xLIST_ITEM *)pxUnblockedCRCB+12L);
     755              ;** 235 -----------------------    _enable_interrupts();
     756              ;** 237 -----------------------    vListRemove((struct _xLIST_ITEM *)pxUnblockedCRCB+2L);
     757              ;** 238 -----------------------    if ( (*pxUnblockedCRCB).uxPriority <= uxTopCoRoutineReadyPriority ) goto g
     758                      .dwpsn  file "../FreeRTOS/Source/croutine.c",line 233,column 4,is_stmt
     759 000160 ECA1          XAR0 = mar(*AR5)
         000162 8E   
     760 000163 140C          mar(AR0 + #12) ; |233| 
         000165 84   
     761              $C$DW$57        .dwtag  DW_TAG_TI_branch
     762                      .dwattr $C$DW$57, DW_AT_low_pc(0x00)
     763                      .dwattr $C$DW$57, DW_AT_name("_vListRemove")
     764                      .dwattr $C$DW$57, DW_AT_TI_call
     765 000166 6C00          call #_vListRemove ; |233| 
         000168 0000!
     766                                                      ; call occurs [#_vListRemove] ; |233| 
     767                      .dwpsn  file "../FreeRTOS/Source/croutine.c",line 235,column 3,is_stmt
     768 00016a 46B2          bit(ST1, #ST1_INTM) = #0 ; |235| 
     769                      .dwpsn  file "../FreeRTOS/Source/croutine.c",line 237,column 3,is_stmt
     770 00016c ECA1          XAR0 = mar(*AR5)
         00016e 8E   
     771 00016f 1402          mar(AR0 + #2) ; |237| 
         000171 84   
     772              $C$DW$58        .dwtag  DW_TAG_TI_branch
     773                      .dwattr $C$DW$58, DW_AT_low_pc(0x00)
     774                      .dwattr $C$DW$58, DW_AT_name("_vListRemove")
TMS320C55x Assembler PC v4.3.8 Fri Jan 21 01:13:24 2011

Tools Copyright (c) 1996-2010 Texas Instruments Incorporated
croutine.asm                                                         PAGE   17

     775                      .dwattr $C$DW$58, DW_AT_TI_call
     776 000172 6C00          call #_vListRemove ; |237| 
         000174 0000!
     777                                                      ; call occurs [#_vListRemove] ; |237| 
     778                      .dwpsn  file "../FreeRTOS/Source/croutine.c",line 238,column 3,is_stmt
     779 000176 A931          AR1 = *(#_uxTopCoRoutineReadyPriority) ; |238| 
         000178 0000 
         00017a 38-  
     780 00017b AAAD          AR2 = *AR5(#22) ; |238| 
         00017d 0016 
     781 00017f 1298          TC1 = uns(AR2 <= AR1) ; |238| 
         000181 A4   
     782 000182 64E4          if (TC1) goto $C$L12 ; |238| 
     783                                                      ; branchcc occurs ; |238| 
     784 000184       $C$DW$L$_prvCheckPendingReadyList$5$E:
     785 000184       $C$DW$L$_prvCheckPendingReadyList$6$B:
     786              ;** 238 -----------------------    uxTopCoRoutineReadyPriority = (*pxUnblockedCRCB).uxPriority;
     787 000184 A9AD          AR1 = *AR5(#22) ; |238| 
         000186 0016 
     788 000188 C931          *(#_uxTopCoRoutineReadyPriority) = AR1 ; |238| 
         00018a 0000 
         00018c 38-  
     789 00018d       $C$DW$L$_prvCheckPendingReadyList$6$E:
     790 00018d       $C$L12:    
     791 00018d       $C$DW$L$_prvCheckPendingReadyList$7$B:
     792              ;**     -----------------------g7:
     793              ;** 238 -----------------------    vListInsertEnd((long)(*pxUnblockedCRCB).uxPriority*10+&pxReadyCoRoutineLis
     794              ;** 225 -----------------------    if ( xPendingReadyCoRoutineList.uxNumberOfItems ) goto g2;
     795              ;**     -----------------------g8:
     796              ;**     -----------------------    return;
     797 00018d DFAD          AC1 = uns(*AR5(#22)) ; |238| 
         00018f 1500 
         000191 16   
     798 000192 1015          AC0 = AC1 << #1 ; |238| 
         000194 01   
     799 000195 1013          AC0 = AC0 + (AC1 << #3) ; |238| 
         000197 03   
     800 000198 900B          XAR3 = AC0
     801 00019a 1402          mar(AR5 + #2) ; |238| 
         00019c D4   
     802 00019d EC31          XAR0 = #_pxReadyCoRoutineLists ; |238| 
         00019f 8E00 
         0001a1 0000-
     803 0001a3 ECA1          XAR1 = mar(*AR5)
         0001a5 9E   
     804 0001a6 14B1          mar(XAR0 + XAR3) ; |238| 
         0001a8 80   
     805              $C$DW$59        .dwtag  DW_TAG_TI_branch
     806                      .dwattr $C$DW$59, DW_AT_low_pc(0x00)
     807                      .dwattr $C$DW$59, DW_AT_name("_vListInsertEnd")
     808                      .dwattr $C$DW$59, DW_AT_TI_call
     809 0001a9 6C00          call #_vListInsertEnd ; |238| 
         0001ab 0000!
     810                                                      ; call occurs [#_vListInsertEnd] ; |238| 
     811                      .dwpsn  file "../FreeRTOS/Source/croutine.c",line 225,column 9,is_stmt
TMS320C55x Assembler PC v4.3.8 Fri Jan 21 01:13:24 2011

Tools Copyright (c) 1996-2010 Texas Instruments Incorporated
croutine.asm                                                         PAGE   18

     812 0001ad A931          AR1 = *(#_xPendingReadyCoRoutineList) ; |225| 
         0001af 0000 
         0001b1 2C-  
     813 0001b2 0419          if (AR1 != #0) goto $C$L9 ; |225| 
         0001b4 91   
     814                                                      ; branchcc occurs ; |225| 
     815 0001b5       $C$DW$L$_prvCheckPendingReadyList$7$E:
     816 0001b5       $C$L13:    
     817                      .dwpsn  file "../FreeRTOS/Source/croutine.c",line 240,column 1,is_stmt
     818                      .dwcfi  cfa_offset, 2
     819 0001b5 50D4          XAR5 = popboth()
     820                      .dwcfi  restore_reg, 26
     821                      .dwcfi  cfa_offset, 1
     822              $C$DW$60        .dwtag  DW_TAG_TI_branch
     823                      .dwattr $C$DW$60, DW_AT_low_pc(0x00)
     824                      .dwattr $C$DW$60, DW_AT_TI_return
     825 0001b7 4804          return
     826                                                      ; return occurs
     827              
     828              $C$DW$61        .dwtag  DW_TAG_TI_loop
     829                      .dwattr $C$DW$61, DW_AT_name("E:\temp\c5515_eZdsp_FreeRTOS_Demo\EZDSP_Sample\Debug\croutine.asm:$C$L9
     830                      .dwattr $C$DW$61, DW_AT_TI_begin_file("../FreeRTOS/Source/croutine.c")
     831                      .dwattr $C$DW$61, DW_AT_TI_begin_line(0xe1)
     832                      .dwattr $C$DW$61, DW_AT_TI_end_line(0xef)
     833              $C$DW$62        .dwtag  DW_TAG_TI_loop_range
     834                      .dwattr $C$DW$62, DW_AT_low_pc($C$DW$L$_prvCheckPendingReadyList$2$B)
     835                      .dwattr $C$DW$62, DW_AT_high_pc($C$DW$L$_prvCheckPendingReadyList$2$E)
     836              $C$DW$63        .dwtag  DW_TAG_TI_loop_range
     837                      .dwattr $C$DW$63, DW_AT_low_pc($C$DW$L$_prvCheckPendingReadyList$3$B)
     838                      .dwattr $C$DW$63, DW_AT_high_pc($C$DW$L$_prvCheckPendingReadyList$3$E)
     839              $C$DW$64        .dwtag  DW_TAG_TI_loop_range
     840                      .dwattr $C$DW$64, DW_AT_low_pc($C$DW$L$_prvCheckPendingReadyList$4$B)
     841                      .dwattr $C$DW$64, DW_AT_high_pc($C$DW$L$_prvCheckPendingReadyList$4$E)
     842              $C$DW$65        .dwtag  DW_TAG_TI_loop_range
     843                      .dwattr $C$DW$65, DW_AT_low_pc($C$DW$L$_prvCheckPendingReadyList$5$B)
     844                      .dwattr $C$DW$65, DW_AT_high_pc($C$DW$L$_prvCheckPendingReadyList$5$E)
     845              $C$DW$66        .dwtag  DW_TAG_TI_loop_range
     846                      .dwattr $C$DW$66, DW_AT_low_pc($C$DW$L$_prvCheckPendingReadyList$6$B)
     847                      .dwattr $C$DW$66, DW_AT_high_pc($C$DW$L$_prvCheckPendingReadyList$6$E)
     848              $C$DW$67        .dwtag  DW_TAG_TI_loop_range
     849                      .dwattr $C$DW$67, DW_AT_low_pc($C$DW$L$_prvCheckPendingReadyList$7$B)
     850                      .dwattr $C$DW$67, DW_AT_high_pc($C$DW$L$_prvCheckPendingReadyList$7$E)
     851                      .dwendtag $C$DW$61
     852              
     853                      .dwattr $C$DW$55, DW_AT_TI_end_file("../FreeRTOS/Source/croutine.c")
     854                      .dwattr $C$DW$55, DW_AT_TI_end_line(0xf0)
     855                      .dwattr $C$DW$55, DW_AT_TI_end_column(0x01)
     856                      .dwendentry
     857                      .dwendtag $C$DW$55
     858              
     859 0001b9               .sect   ".text"
     860              
     861              $C$DW$68        .dwtag  DW_TAG_subprogram, DW_AT_name("prvCheckDelayedList")
     862                      .dwattr $C$DW$68, DW_AT_low_pc(_prvCheckDelayedList)
     863                      .dwattr $C$DW$68, DW_AT_high_pc(0x00)
TMS320C55x Assembler PC v4.3.8 Fri Jan 21 01:13:24 2011

Tools Copyright (c) 1996-2010 Texas Instruments Incorporated
croutine.asm                                                         PAGE   19

     864                      .dwattr $C$DW$68, DW_AT_TI_symbol_name("_prvCheckDelayedList")
     865                      .dwattr $C$DW$68, DW_AT_TI_begin_file("../FreeRTOS/Source/croutine.c")
     866                      .dwattr $C$DW$68, DW_AT_TI_begin_line(0xf3)
     867                      .dwattr $C$DW$68, DW_AT_TI_begin_column(0x0d)
     868                      .dwattr $C$DW$68, DW_AT_decl_file("../FreeRTOS/Source/croutine.c")
     869                      .dwattr $C$DW$68, DW_AT_decl_line(0xf3)
     870                      .dwattr $C$DW$68, DW_AT_decl_column(0x0d)
     871                      .dwattr $C$DW$68, DW_AT_TI_max_frame_size(0x02)
     872                      .dwpsn  file "../FreeRTOS/Source/croutine.c",line 244,column 1,is_stmt,address _prvCheckDelayedList
     873              
     874                      .dwfde $C$DW$CIE, _prvCheckDelayedList
     875              ;*******************************************************************************
     876              ;* FUNCTION NAME: prvCheckDelayedList                                          *
     877              ;*                                                                             *
     878              ;*   Function Uses Regs : AC0,AC0,AC1,AC1,AR0,XAR0,AR1,XAR1,AR2,XAR2,AR3,XAR3, *
     879              ;*                        AR5,XAR5,SP,CARRY,TC1,M40,SATA,SATD,RDM,FRCT,SMUL,   *
     880              ;*                        INTM                                                 *
     881              ;*   Save On Entry Regs : AR5                                                  *
     882              ;*   Stack Frame        : Compact (No Frame Pointer, w/ debug)                 *
     883              ;*   Total Frame Size   : 2 words                                              *
     884              ;*                        (1 return address/alignment)                         *
     885              ;*                        (1 register save area)                               *
     886              ;*   Min System Stack   : 2 words                                              *
     887              ;*******************************************************************************
     888              
     889              ;*******************************************************************************
     890              ;*                                                                             *
     891              ;* Using -g (debug) with optimization (-o0) may disable key optimizations!     *
     892              ;*                                                                             *
     893              ;*******************************************************************************
     894 0001b9       _prvCheckDelayedList:
     895              ;** 247 -----------------------    xPassedTicks = xTaskGetTickCount()-xLastTickCount;
     896              ;** 248 -----------------------    if ( xPassedTicks == 0uL ) goto g16;
     897                      .dwcfi  cfa_offset, 1
     898                      .dwcfi  save_reg_to_mem, 91, -1
     899 0001b9 50D5          pshboth(XAR5)
     900                      .dwcfi  cfa_offset, 2
     901                      .dwcfi  save_reg_to_mem, 26, -2
     902                      .dwcfi  cfa_offset, 2
     903              ;* AR2   assigned to _pxTemp
     904              $C$DW$69        .dwtag  DW_TAG_variable, DW_AT_name("pxTemp")
     905                      .dwattr $C$DW$69, DW_AT_TI_symbol_name("_pxTemp")
     906                      .dwattr $C$DW$69, DW_AT_type(*$C$DW$T$56)
     907                      .dwattr $C$DW$69, DW_AT_location[DW_OP_reg21]
     908              ;* AR5   assigned to _pxCRCB
     909              $C$DW$70        .dwtag  DW_TAG_variable, DW_AT_name("pxCRCB")
     910                      .dwattr $C$DW$70, DW_AT_TI_symbol_name("_pxCRCB")
     911                      .dwattr $C$DW$70, DW_AT_type(*$C$DW$T$95)
     912                      .dwattr $C$DW$70, DW_AT_location[DW_OP_reg27]
     913              ;* AR5   assigned to $O$S1
     914              $C$DW$71        .dwtag  DW_TAG_variable, DW_AT_name("$O$S1")
     915                      .dwattr $C$DW$71, DW_AT_TI_symbol_name("$O$S1")
     916                      .dwattr $C$DW$71, DW_AT_type(*$C$DW$T$96)
     917                      .dwattr $C$DW$71, DW_AT_location[DW_OP_reg27]
     918                      .dwpsn  file "../FreeRTOS/Source/croutine.c",line 247,column 2,is_stmt
TMS320C55x Assembler PC v4.3.8 Fri Jan 21 01:13:24 2011

Tools Copyright (c) 1996-2010 Texas Instruments Incorporated
croutine.asm                                                         PAGE   20

     919              $C$DW$72        .dwtag  DW_TAG_TI_branch
     920                      .dwattr $C$DW$72, DW_AT_low_pc(0x00)
     921                      .dwattr $C$DW$72, DW_AT_name("_xTaskGetTickCount")
     922                      .dwattr $C$DW$72, DW_AT_TI_call
     923 0001bb 6C00          call #_xTaskGetTickCount ; |247| 
         0001bd 0000!
     924                                                      ; call occurs [#_xTaskGetTickCount] ; |247| 
     925 0001bf ED31          AC0 = AC0 - dbl(*(#_xLastTickCount)) ; |247| 
         0001c1 0200 
         0001c3 003C-
     926 0001c5 EB31          dbl(*(#_xPassedTicks)) = AC0 ; |247| 
         0001c7 0800 
         0001c9 003E-
     927                      .dwpsn  file "../FreeRTOS/Source/croutine.c",line 248,column 2,is_stmt
     928 0001cb ED31          AC0 = dbl(*(#_xPassedTicks)) ; |248| 
         0001cd 0800 
         0001cf 003E-
     929 0001d1 6D00          if (AC0 == #0) goto $C$L22 ; |248| 
         0001d3 00CF 
     930                                                      ; branchcc occurs ; |248| 
     931 0001d5       $C$L14:    
     932 0001d5       $C$DW$L$_prvCheckDelayedList$2$B:
     933              ;**     -----------------------g2:
     934              ;** 250 -----------------------    ++xCoRoutineTickCount;
     935              ;** 251 -----------------------    --xPassedTicks;
     936              ;** 254 -----------------------    if ( xCoRoutineTickCount ) goto g4;
     937                      .dwpsn  file "../FreeRTOS/Source/croutine.c",line 250,column 3,is_stmt
     938 0001d5 ED31          AC0 = dbl(*(#_xCoRoutineTickCount)) ; |250| 
         0001d7 0800 
         0001d9 003A-
     939 0001db 4010          AC0 = AC0 + #1 ; |250| 
     940 0001dd EB31          dbl(*(#_xCoRoutineTickCount)) = AC0 ; |250| 
         0001df 0800 
         0001e1 003A-
     941                      .dwpsn  file "../FreeRTOS/Source/croutine.c",line 251,column 3,is_stmt
     942 0001e3 ED31          AC0 = dbl(*(#_xPassedTicks)) ; |251| 
         0001e5 0800 
         0001e7 003E-
     943 0001e9 4210          AC0 = AC0 - #1 ; |251| 
     944 0001eb EB31          dbl(*(#_xPassedTicks)) = AC0 ; |251| 
         0001ed 0800 
         0001ef 003E-
     945                      .dwpsn  file "../FreeRTOS/Source/croutine.c",line 254,column 3,is_stmt
     946 0001f1 ED31          AC0 = dbl(*(#_xCoRoutineTickCount)) ; |254| 
         0001f3 0800 
         0001f5 003A-
     947 0001f7 0410          if (AC0 != #0) goto $C$L18 ; |254| 
         0001f9 73   
     948                                                      ; branchcc occurs ; |254| 
     949 0001fa       $C$DW$L$_prvCheckDelayedList$2$E:
     950 0001fa       $C$DW$L$_prvCheckDelayedList$3$B:
     951              ;** 260 -----------------------    pxTemp = pxDelayedCoRoutineList;
     952              ;** 261 -----------------------    pxDelayedCoRoutineList = pxOverflowDelayedCoRoutineList;
     953              ;** 262 -----------------------    pxOverflowDelayedCoRoutineList = pxTemp;
     954              ;**     -----------------------g4:
TMS320C55x Assembler PC v4.3.8 Fri Jan 21 01:13:24 2011

Tools Copyright (c) 1996-2010 Texas Instruments Incorporated
croutine.asm                                                         PAGE   21

     955              ;** 266 -----------------------    goto g10;
     956                      .dwpsn  file "../FreeRTOS/Source/croutine.c",line 260,column 4,is_stmt
     957 0001fa ED31          XAR2 = dbl(*(#_pxDelayedCoRoutineList))
         0001fc AF00 
         0001fe 0028-
     958                      .dwpsn  file "../FreeRTOS/Source/croutine.c",line 261,column 4,is_stmt
     959 000200 ED31          XAR3 = dbl(*(#_pxOverflowDelayedCoRoutineList))
         000202 BF00 
         000204 002A-
     960 000206 EB31          dbl(*(#_pxDelayedCoRoutineList)) = XAR3
         000208 B500 
         00020a 0028-
     961                      .dwpsn  file "../FreeRTOS/Source/croutine.c",line 262,column 4,is_stmt
     962 00020c EB31          dbl(*(#_pxOverflowDelayedCoRoutineList)) = XAR2
         00020e A500 
         000210 002A-
     963                      .dwpsn  file "../FreeRTOS/Source/croutine.c",line 266,column 3,is_stmt
     964 000212 0600          goto $C$L18 ; |266| 
         000214 58   
     965                                                      ; branch occurs ; |266| 
     966 000215       $C$DW$L$_prvCheckDelayedList$3$E:
     967 000215       $C$L15:    
     968 000215       $C$DW$L$_prvCheckDelayedList$4$B:
     969              ;**     -----------------------g5:
     970              ;** 274 -----------------------    _disable_interrupts();
     971              ;** 281 -----------------------    vListRemove((struct _xLIST_ITEM *)pxCRCB+2L);
     972              ;** 284 -----------------------    if ( (*pxCRCB).xEventListItem.pvContainer == NULL ) goto g7;
     973                      .dwpsn  file "../FreeRTOS/Source/croutine.c",line 274,column 4,is_stmt
     974 000215 46B3          bit(ST1, #ST1_INTM) = #1 ; |274| 
     975                                                      ; interrupts disabled ; |274| 
     976                      .dwpsn  file "../FreeRTOS/Source/croutine.c",line 281,column 5,is_stmt
     977 000217 ECA1          XAR0 = mar(*AR5)
         000219 8E   
     978 00021a 1402          mar(AR0 + #2) ; |281| 
         00021c 84   
     979              $C$DW$73        .dwtag  DW_TAG_TI_branch
     980                      .dwattr $C$DW$73, DW_AT_low_pc(0x00)
     981                      .dwattr $C$DW$73, DW_AT_name("_vListRemove")
     982                      .dwattr $C$DW$73, DW_AT_TI_call
     983 00021d 6C00          call #_vListRemove ; |281| 
         00021f 0000!
     984                                                      ; call occurs [#_vListRemove] ; |281| 
     985                      .dwpsn  file "../FreeRTOS/Source/croutine.c",line 284,column 5,is_stmt
     986 000221 EDAD          XAR3 = dbl(*AR5(#20))
         000223 BF00 
         000225 14   
     987 000226 90B0          AC0 = XAR3
     988 000228 6500          if (AC0 == #0) goto $C$L16 ; |284| 
     989                                                      ; branchcc occurs ; |284| 
     990 00022a       $C$DW$L$_prvCheckDelayedList$4$E:
     991 00022a       $C$DW$L$_prvCheckDelayedList$5$B:
     992              ;** 286 -----------------------    vListRemove((struct _xLIST_ITEM *)pxCRCB+12L);
     993                      .dwpsn  file "../FreeRTOS/Source/croutine.c",line 286,column 6,is_stmt
     994 00022a ECA1          XAR0 = mar(*AR5)
         00022c 8E   
TMS320C55x Assembler PC v4.3.8 Fri Jan 21 01:13:24 2011

Tools Copyright (c) 1996-2010 Texas Instruments Incorporated
croutine.asm                                                         PAGE   22

     995 00022d 140C          mar(AR0 + #12) ; |286| 
         00022f 84   
     996              $C$DW$74        .dwtag  DW_TAG_TI_branch
     997                      .dwattr $C$DW$74, DW_AT_low_pc(0x00)
     998                      .dwattr $C$DW$74, DW_AT_name("_vListRemove")
     999                      .dwattr $C$DW$74, DW_AT_TI_call
    1000 000230 6C00          call #_vListRemove ; |286| 
         000232 0000!
    1001                                                      ; call occurs [#_vListRemove] ; |286| 
    1002 000234       $C$DW$L$_prvCheckDelayedList$5$E:
    1003 000234       $C$L16:    
    1004 000234       $C$DW$L$_prvCheckDelayedList$6$B:
    1005              ;**     -----------------------g7:
    1006              ;** 289 -----------------------    _enable_interrupts();
    1007              ;** 291 -----------------------    if ( (*pxCRCB).uxPriority <= uxTopCoRoutineReadyPriority ) goto g9;
    1008                      .dwpsn  file "../FreeRTOS/Source/croutine.c",line 289,column 4,is_stmt
    1009 000234 46B2          bit(ST1, #ST1_INTM) = #0 ; |289| 
    1010                      .dwpsn  file "../FreeRTOS/Source/croutine.c",line 291,column 4,is_stmt
    1011 000236 A931          AR1 = *(#_uxTopCoRoutineReadyPriority) ; |291| 
         000238 0000 
         00023a 38-  
    1012 00023b AAAD          AR2 = *AR5(#22) ; |291| 
         00023d 0016 
    1013 00023f 1298          TC1 = uns(AR2 <= AR1) ; |291| 
         000241 A4   
    1014 000242 64E4          if (TC1) goto $C$L17 ; |291| 
    1015                                                      ; branchcc occurs ; |291| 
    1016 000244       $C$DW$L$_prvCheckDelayedList$6$E:
    1017 000244       $C$DW$L$_prvCheckDelayedList$7$B:
    1018              ;** 291 -----------------------    uxTopCoRoutineReadyPriority = (*pxCRCB).uxPriority;
    1019 000244 A9AD          AR1 = *AR5(#22) ; |291| 
         000246 0016 
    1020 000248 C931          *(#_uxTopCoRoutineReadyPriority) = AR1 ; |291| 
         00024a 0000 
         00024c 38-  
    1021 00024d       $C$DW$L$_prvCheckDelayedList$7$E:
    1022 00024d       $C$L17:    
    1023 00024d       $C$DW$L$_prvCheckDelayedList$8$B:
    1024              ;**     -----------------------g9:
    1025              ;** 291 -----------------------    vListInsertEnd((long)(*pxCRCB).uxPriority*10+&pxReadyCoRoutineLists, (stru
    1026 00024d DFAD          AC1 = uns(*AR5(#22)) ; |291| 
         00024f 1500 
         000251 16   
    1027 000252 1015          AC0 = AC1 << #1 ; |291| 
         000254 01   
    1028 000255 1013          AC0 = AC0 + (AC1 << #3) ; |291| 
         000257 03   
    1029 000258 900B          XAR3 = AC0
    1030 00025a 1402          mar(AR5 + #2) ; |291| 
         00025c D4   
    1031 00025d EC31          XAR0 = #_pxReadyCoRoutineLists ; |291| 
         00025f 8E00 
         000261 0000-
    1032 000263 ECA1          XAR1 = mar(*AR5)
         000265 9E   
TMS320C55x Assembler PC v4.3.8 Fri Jan 21 01:13:24 2011

Tools Copyright (c) 1996-2010 Texas Instruments Incorporated
croutine.asm                                                         PAGE   23

    1033 000266 14B1          mar(XAR0 + XAR3) ; |291| 
         000268 80   
    1034              $C$DW$75        .dwtag  DW_TAG_TI_branch
    1035                      .dwattr $C$DW$75, DW_AT_low_pc(0x00)
    1036                      .dwattr $C$DW$75, DW_AT_name("_vListInsertEnd")
    1037                      .dwattr $C$DW$75, DW_AT_TI_call
    1038 000269 6C00          call #_vListInsertEnd ; |291| 
         00026b 0000!
    1039                                                      ; call occurs [#_vListInsertEnd] ; |291| 
    1040 00026d       $C$DW$L$_prvCheckDelayedList$8$E:
    1041 00026d       $C$L18:    
    1042 00026d       $C$DW$L$_prvCheckDelayedList$9$B:
    1043              ;**     -----------------------g10:
    1044              ;** 266 -----------------------    if ( (*pxDelayedCoRoutineList).uxNumberOfItems ) goto g12;
    1045                      .dwpsn  file "../FreeRTOS/Source/croutine.c",line 266,column 10,is_stmt
    1046 00026d ED31          XAR3 = dbl(*(#_pxDelayedCoRoutineList))
         00026f BF00 
         000271 0028-
    1047 000273 A961          AR1 = *AR3 ; |266| 
    1048 000275 6419          if (AR1 != #0) goto $C$L19 ; |266| 
    1049                                                      ; branchcc occurs ; |266| 
    1050 000277       $C$DW$L$_prvCheckDelayedList$9$E:
    1051 000277       $C$DW$L$_prvCheckDelayedList$10$B:
    1052              ;** 266 -----------------------    S$1 = (struct _corCoRoutineControlBlock *)NULL;
    1053              ;** 266 -----------------------    goto g13;
    1054 000277 EC31          XAR5 = #0 ; |266| 
         000279 DE00 
         00027b 0000 
    1055 00027d 4A06          goto $C$L20 ; |266| 
    1056                                                      ; branch occurs ; |266| 
    1057 00027f       $C$DW$L$_prvCheckDelayedList$10$E:
    1058 00027f       $C$L19:    
    1059 00027f       $C$DW$L$_prvCheckDelayedList$11$B:
    1060              ;**     -----------------------g12:
    1061              ;** 266 -----------------------    S$1 = (struct _corCoRoutineControlBlock *)(*(*pxDelayedCoRoutineList).xLis
    1062 00027f ED7D          XAR3 = dbl(*AR3(short(#6)))
         000281 BF   
    1063 000282 ED7D          XAR5 = dbl(*AR3(short(#6)))
         000284 DF   
    1064 000285       $C$DW$L$_prvCheckDelayedList$11$E:
    1065 000285       $C$L20:    
    1066 000285       $C$DW$L$_prvCheckDelayedList$12$B:
    1067              ;**     -----------------------g13:
    1068              ;** 266 -----------------------    if ( !(pxCRCB = S$1) ) goto g15;
    1069 000285 90D0          AC0 = XAR5
    1070 000287 0400          if (AC0 == #0) goto $C$L21 ; |266| 
         000289 10   
    1071                                                      ; branchcc occurs ; |266| 
    1072 00028a       $C$DW$L$_prvCheckDelayedList$12$E:
    1073 00028a       $C$DW$L$_prvCheckDelayedList$13$B:
    1074              ;** 271 -----------------------    if ( xCoRoutineTickCount >= (*pxCRCB).xGenericListItem.xItemValue ) goto g
    1075                      .dwpsn  file "../FreeRTOS/Source/croutine.c",line 271,column 5,is_stmt
    1076 00028a EDB5          AC0 = dbl(*AR5(short(#2))) ; |271| 
         00028c 08   
    1077 00028d ED31          AC1 = dbl(*(#_xCoRoutineTickCount)) ; |271| 
TMS320C55x Assembler PC v4.3.8 Fri Jan 21 01:13:24 2011

Tools Copyright (c) 1996-2010 Texas Instruments Incorporated
croutine.asm                                                         PAGE   24

         00028f 1800 
         000291 003A-
    1078 000293 1218          TC1 = uns(AC1 >= AC0) ; |271| 
         000295 04   
    1079 000296 6D64          if (TC1) goto $C$L15 ; |271| 
         000298 FF7B 
    1080                                                      ; branchcc occurs ; |271| 
    1081 00029a       $C$DW$L$_prvCheckDelayedList$13$E:
    1082 00029a       $C$L21:    
    1083 00029a       $C$DW$L$_prvCheckDelayedList$14$B:
    1084              ;**     -----------------------g15:
    1085              ;** 293 -----------------------    if ( xPassedTicks ) goto g2;
    1086                      .dwpsn  file "../FreeRTOS/Source/croutine.c",line 293,column 2,is_stmt
    1087 00029a ED31          AC0 = dbl(*(#_xPassedTicks)) ; |293| 
         00029c 0800 
         00029e 003E-
    1088 0002a0 6D10          if (AC0 != #0) goto $C$L14 ; |293| 
         0002a2 FF31 
    1089                                                      ; branchcc occurs ; |293| 
    1090 0002a4       $C$DW$L$_prvCheckDelayedList$14$E:
    1091 0002a4       $C$L22:    
    1092              ;**     -----------------------g16:
    1093              ;** 295 -----------------------    xLastTickCount = xCoRoutineTickCount;
    1094              ;**     -----------------------    return;
    1095                      .dwpsn  file "../FreeRTOS/Source/croutine.c",line 295,column 2,is_stmt
    1096 0002a4 ED31          AC0 = dbl(*(#_xCoRoutineTickCount)) ; |295| 
         0002a6 0800 
         0002a8 003A-
    1097 0002aa EB31          dbl(*(#_xLastTickCount)) = AC0 ; |295| 
         0002ac 0800 
         0002ae 003C-
    1098                      .dwpsn  file "../FreeRTOS/Source/croutine.c",line 296,column 1,is_stmt
    1099                      .dwcfi  cfa_offset, 2
    1100 0002b0 50D4          XAR5 = popboth()
    1101                      .dwcfi  restore_reg, 26
    1102                      .dwcfi  cfa_offset, 1
    1103              $C$DW$76        .dwtag  DW_TAG_TI_branch
    1104                      .dwattr $C$DW$76, DW_AT_low_pc(0x00)
    1105                      .dwattr $C$DW$76, DW_AT_TI_return
    1106 0002b2 4804          return
    1107                                                      ; return occurs
    1108              
    1109              $C$DW$77        .dwtag  DW_TAG_TI_loop
    1110                      .dwattr $C$DW$77, DW_AT_name("E:\temp\c5515_eZdsp_FreeRTOS_Demo\EZDSP_Sample\Debug\croutine.asm:$C$L1
    1111                      .dwattr $C$DW$77, DW_AT_TI_begin_file("../FreeRTOS/Source/croutine.c")
    1112                      .dwattr $C$DW$77, DW_AT_TI_begin_line(0xf8)
    1113                      .dwattr $C$DW$77, DW_AT_TI_end_line(0x125)
    1114              $C$DW$78        .dwtag  DW_TAG_TI_loop_range
    1115                      .dwattr $C$DW$78, DW_AT_low_pc($C$DW$L$_prvCheckDelayedList$2$B)
    1116                      .dwattr $C$DW$78, DW_AT_high_pc($C$DW$L$_prvCheckDelayedList$2$E)
    1117              $C$DW$79        .dwtag  DW_TAG_TI_loop_range
    1118                      .dwattr $C$DW$79, DW_AT_low_pc($C$DW$L$_prvCheckDelayedList$3$B)
    1119                      .dwattr $C$DW$79, DW_AT_high_pc($C$DW$L$_prvCheckDelayedList$3$E)
    1120              $C$DW$80        .dwtag  DW_TAG_TI_loop_range
    1121                      .dwattr $C$DW$80, DW_AT_low_pc($C$DW$L$_prvCheckDelayedList$14$B)
TMS320C55x Assembler PC v4.3.8 Fri Jan 21 01:13:24 2011

Tools Copyright (c) 1996-2010 Texas Instruments Incorporated
croutine.asm                                                         PAGE   25

    1122                      .dwattr $C$DW$80, DW_AT_high_pc($C$DW$L$_prvCheckDelayedList$14$E)
    1123              
    1124              $C$DW$81        .dwtag  DW_TAG_TI_loop
    1125                      .dwattr $C$DW$81, DW_AT_name("E:\temp\c5515_eZdsp_FreeRTOS_Demo\EZDSP_Sample\Debug\croutine.asm:$C$L1
    1126                      .dwattr $C$DW$81, DW_AT_TI_begin_file("../FreeRTOS/Source/croutine.c")
    1127                      .dwattr $C$DW$81, DW_AT_TI_begin_line(0x10a)
    1128                      .dwattr $C$DW$81, DW_AT_TI_end_line(0x123)
    1129              $C$DW$82        .dwtag  DW_TAG_TI_loop_range
    1130                      .dwattr $C$DW$82, DW_AT_low_pc($C$DW$L$_prvCheckDelayedList$9$B)
    1131                      .dwattr $C$DW$82, DW_AT_high_pc($C$DW$L$_prvCheckDelayedList$9$E)
    1132              $C$DW$83        .dwtag  DW_TAG_TI_loop_range
    1133                      .dwattr $C$DW$83, DW_AT_low_pc($C$DW$L$_prvCheckDelayedList$10$B)
    1134                      .dwattr $C$DW$83, DW_AT_high_pc($C$DW$L$_prvCheckDelayedList$10$E)
    1135              $C$DW$84        .dwtag  DW_TAG_TI_loop_range
    1136                      .dwattr $C$DW$84, DW_AT_low_pc($C$DW$L$_prvCheckDelayedList$11$B)
    1137                      .dwattr $C$DW$84, DW_AT_high_pc($C$DW$L$_prvCheckDelayedList$11$E)
    1138              $C$DW$85        .dwtag  DW_TAG_TI_loop_range
    1139                      .dwattr $C$DW$85, DW_AT_low_pc($C$DW$L$_prvCheckDelayedList$12$B)
    1140                      .dwattr $C$DW$85, DW_AT_high_pc($C$DW$L$_prvCheckDelayedList$12$E)
    1141              $C$DW$86        .dwtag  DW_TAG_TI_loop_range
    1142                      .dwattr $C$DW$86, DW_AT_low_pc($C$DW$L$_prvCheckDelayedList$13$B)
    1143                      .dwattr $C$DW$86, DW_AT_high_pc($C$DW$L$_prvCheckDelayedList$13$E)
    1144              $C$DW$87        .dwtag  DW_TAG_TI_loop_range
    1145                      .dwattr $C$DW$87, DW_AT_low_pc($C$DW$L$_prvCheckDelayedList$4$B)
    1146                      .dwattr $C$DW$87, DW_AT_high_pc($C$DW$L$_prvCheckDelayedList$4$E)
    1147              $C$DW$88        .dwtag  DW_TAG_TI_loop_range
    1148                      .dwattr $C$DW$88, DW_AT_low_pc($C$DW$L$_prvCheckDelayedList$5$B)
    1149                      .dwattr $C$DW$88, DW_AT_high_pc($C$DW$L$_prvCheckDelayedList$5$E)
    1150              $C$DW$89        .dwtag  DW_TAG_TI_loop_range
    1151                      .dwattr $C$DW$89, DW_AT_low_pc($C$DW$L$_prvCheckDelayedList$6$B)
    1152                      .dwattr $C$DW$89, DW_AT_high_pc($C$DW$L$_prvCheckDelayedList$6$E)
    1153              $C$DW$90        .dwtag  DW_TAG_TI_loop_range
    1154                      .dwattr $C$DW$90, DW_AT_low_pc($C$DW$L$_prvCheckDelayedList$7$B)
    1155                      .dwattr $C$DW$90, DW_AT_high_pc($C$DW$L$_prvCheckDelayedList$7$E)
    1156              $C$DW$91        .dwtag  DW_TAG_TI_loop_range
    1157                      .dwattr $C$DW$91, DW_AT_low_pc($C$DW$L$_prvCheckDelayedList$8$B)
    1158                      .dwattr $C$DW$91, DW_AT_high_pc($C$DW$L$_prvCheckDelayedList$8$E)
    1159                      .dwendtag $C$DW$81
    1160              
    1161                      .dwendtag $C$DW$77
    1162              
    1163                      .dwattr $C$DW$68, DW_AT_TI_end_file("../FreeRTOS/Source/croutine.c")
    1164                      .dwattr $C$DW$68, DW_AT_TI_end_line(0x128)
    1165                      .dwattr $C$DW$68, DW_AT_TI_end_column(0x01)
    1166                      .dwendentry
    1167                      .dwendtag $C$DW$68
    1168              
    1169 0002b4               .sect   ".text"
    1170                      .global _vCoRoutineSchedule
    1171              
    1172              $C$DW$92        .dwtag  DW_TAG_subprogram, DW_AT_name("vCoRoutineSchedule")
    1173                      .dwattr $C$DW$92, DW_AT_low_pc(_vCoRoutineSchedule)
    1174                      .dwattr $C$DW$92, DW_AT_high_pc(0x00)
    1175                      .dwattr $C$DW$92, DW_AT_TI_symbol_name("_vCoRoutineSchedule")
    1176                      .dwattr $C$DW$92, DW_AT_external
TMS320C55x Assembler PC v4.3.8 Fri Jan 21 01:13:24 2011

Tools Copyright (c) 1996-2010 Texas Instruments Incorporated
croutine.asm                                                         PAGE   26

    1177                      .dwattr $C$DW$92, DW_AT_TI_begin_file("../FreeRTOS/Source/croutine.c")
    1178                      .dwattr $C$DW$92, DW_AT_TI_begin_line(0x12b)
    1179                      .dwattr $C$DW$92, DW_AT_TI_begin_column(0x06)
    1180                      .dwattr $C$DW$92, DW_AT_decl_file("../FreeRTOS/Source/croutine.c")
    1181                      .dwattr $C$DW$92, DW_AT_decl_line(0x12b)
    1182                      .dwattr $C$DW$92, DW_AT_decl_column(0x06)
    1183                      .dwattr $C$DW$92, DW_AT_TI_max_frame_size(0x02)
    1184                      .dwpsn  file "../FreeRTOS/Source/croutine.c",line 300,column 1,is_stmt,address _vCoRoutineSchedule
    1185              
    1186                      .dwfde $C$DW$CIE, _vCoRoutineSchedule
    1187              ;*******************************************************************************
    1188              ;* FUNCTION NAME: vCoRoutineSchedule                                           *
    1189              ;*                                                                             *
    1190              ;*   Function Uses Regs : AC0,AC0,AC1,AC1,T0,AR0,XAR0,AR1,AR2,XAR2,AR3,XAR3,SP,*
    1191              ;*                        CARRY,TC1,M40,SATA,SATD,RDM,FRCT,SMUL                *
    1192              ;*   Stack Frame        : Compact (No Frame Pointer, w/ debug)                 *
    1193              ;*   Total Frame Size   : 2 words                                              *
    1194              ;*                        (2 return address/alignment)                         *
    1195              ;*   Min System Stack   : 1 word                                               *
    1196              ;*******************************************************************************
    1197              
    1198              ;*******************************************************************************
    1199              ;*                                                                             *
    1200              ;* Using -g (debug) with optimization (-o0) may disable key optimizations!     *
    1201              ;*                                                                             *
    1202              ;*******************************************************************************
    1203 0002b4       _vCoRoutineSchedule:
    1204              ;** 302 -----------------------    prvCheckPendingReadyList();
    1205              ;** 305 -----------------------    prvCheckDelayedList();
    1206              ;** 308 -----------------------    if ( (pxReadyCoRoutineLists[(long)uxTopCoRoutineReadyPriority]).uxNumberOf
    1207                      .dwcfi  cfa_offset, 1
    1208                      .dwcfi  save_reg_to_mem, 91, -1
    1209 0002b4 4EFF          SP = SP + #-1
    1210                      .dwcfi  cfa_offset, 2
    1211              ;* AR3   assigned to _pxConstList
    1212              $C$DW$93        .dwtag  DW_TAG_variable, DW_AT_name("pxConstList")
    1213                      .dwattr $C$DW$93, DW_AT_TI_symbol_name("_pxConstList")
    1214                      .dwattr $C$DW$93, DW_AT_type(*$C$DW$T$87)
    1215                      .dwattr $C$DW$93, DW_AT_location[DW_OP_reg23]
    1216                      .dwpsn  file "../FreeRTOS/Source/croutine.c",line 302,column 2,is_stmt
    1217              $C$DW$94        .dwtag  DW_TAG_TI_branch
    1218                      .dwattr $C$DW$94, DW_AT_low_pc(0x00)
    1219                      .dwattr $C$DW$94, DW_AT_name("_prvCheckPendingReadyList")
    1220                      .dwattr $C$DW$94, DW_AT_TI_call
    1221 0002b6 08FE          call #_prvCheckPendingReadyList ; |302| 
         0002b8 83   
    1222                                                      ; call occurs [#_prvCheckPendingReadyList] ; |302| 
    1223                      .dwpsn  file "../FreeRTOS/Source/croutine.c",line 305,column 2,is_stmt
    1224              $C$DW$95        .dwtag  DW_TAG_TI_branch
    1225                      .dwattr $C$DW$95, DW_AT_low_pc(0x00)
    1226                      .dwattr $C$DW$95, DW_AT_name("_prvCheckDelayedList")
    1227                      .dwattr $C$DW$95, DW_AT_TI_call
    1228 0002b9 08FE          call #_prvCheckDelayedList ; |305| 
         0002bb FD   
    1229                                                      ; call occurs [#_prvCheckDelayedList] ; |305| 
TMS320C55x Assembler PC v4.3.8 Fri Jan 21 01:13:24 2011

Tools Copyright (c) 1996-2010 Texas Instruments Incorporated
croutine.asm                                                         PAGE   27

    1230                      .dwpsn  file "../FreeRTOS/Source/croutine.c",line 308,column 9,is_stmt
    1231 0002bc DF31          AC1 = uns(*(#_uxTopCoRoutineReadyPriority)) ; |308| 
         0002be 1500 
         0002c0 0038-
    1232 0002c2 1015          AC0 = AC1 << #1 ; |308| 
         0002c4 01   
    1233 0002c5 1013          AC0 = AC0 + (AC1 << #3) ; |308| 
         0002c7 03   
    1234 0002c8 900A          XAR2 = AC0
    1235 0002ca EC31          XAR3 = #_pxReadyCoRoutineLists ; |308| 
         0002cc BE00 
         0002ce 0000-
    1236 0002d0 14A1          mar(XAR3 + XAR2) ; |308| 
         0002d2 B0   
    1237 0002d3 A961          AR1 = *AR3 ; |308| 
    1238 0002d5 0419          if (AR1 != #0) goto $C$L24 ; |308| 
         0002d7 2B   
    1239                                                      ; branchcc occurs ; |308| 
    1240 0002d8       $C$L23:    
    1241 0002d8       $C$DW$L$_vCoRoutineSchedule$2$B:
    1242              ;**     -----------------------g2:
    1243              ;** 310 -----------------------    if ( !uxTopCoRoutineReadyPriority ) goto g7;
    1244                      .dwpsn  file "../FreeRTOS/Source/croutine.c",line 310,column 3,is_stmt
    1245 0002d8 A931          AR1 = *(#_uxTopCoRoutineReadyPriority) ; |310| 
         0002da 0000 
         0002dc 38-  
    1246 0002dd 0409          if (AR1 == #0) goto $C$L26 ; |310| 
         0002df 7A   
    1247                                                      ; branchcc occurs ; |310| 
    1248 0002e0       $C$DW$L$_vCoRoutineSchedule$2$E:
    1249 0002e0       $C$DW$L$_vCoRoutineSchedule$3$B:
    1250              ;** 315 -----------------------    --uxTopCoRoutineReadyPriority;
    1251              ;** 308 -----------------------    if ( !(pxReadyCoRoutineLists[(long)uxTopCoRoutineReadyPriority]).uxNumberO
    1252                      .dwpsn  file "../FreeRTOS/Source/croutine.c",line 315,column 3,is_stmt
    1253 0002e0 F731          *(#_uxTopCoRoutineReadyPriority) = *(#_uxTopCoRoutineReadyPriority) - #1 ; |315| 
         0002e2 FFFF 
         0002e4 0000 
         0002e6 38-  
    1254                      .dwpsn  file "../FreeRTOS/Source/croutine.c",line 308,column 9,is_stmt
    1255 0002e7 DF31          AC1 = uns(*(#_uxTopCoRoutineReadyPriority)) ; |308| 
         0002e9 1500 
         0002eb 0038-
    1256 0002ed 1015          AC0 = AC1 << #1 ; |308| 
         0002ef 01   
    1257 0002f0 1013          AC0 = AC0 + (AC1 << #3) ; |308| 
         0002f2 03   
    1258 0002f3 900A          XAR2 = AC0
    1259 0002f5 EC31          XAR3 = #_pxReadyCoRoutineLists ; |308| 
         0002f7 BE00 
         0002f9 0000-
    1260 0002fb 14A1          mar(XAR3 + XAR2) ; |308| 
         0002fd B0   
    1261 0002fe A961          AR1 = *AR3 ; |308| 
    1262 000300 0409          if (AR1 == #0) goto $C$L23 ; |308| 
         000302 D5   
TMS320C55x Assembler PC v4.3.8 Fri Jan 21 01:13:24 2011

Tools Copyright (c) 1996-2010 Texas Instruments Incorporated
croutine.asm                                                         PAGE   28

    1263                                                      ; branchcc occurs ; |308| 
    1264 000303       $C$DW$L$_vCoRoutineSchedule$3$E:
    1265 000303       $C$L24:    
    1266              ;**     -----------------------g4:
    1267              ;** 320 -----------------------    pxConstList = &pxReadyCoRoutineLists[(long)uxTopCoRoutineReadyPriority];
    1268              ;** 320 -----------------------    (*pxConstList).pxIndex = (*(*pxConstList).pxIndex).pxNext;
    1269              ;** 320 -----------------------    if ( (*pxConstList).pxIndex != (volatile struct _xLIST_ITEM *)((volatile s
    1270                      .dwpsn  file "../FreeRTOS/Source/croutine.c",line 320,column 2,is_stmt
    1271 000303 DF31          AC1 = uns(*(#_uxTopCoRoutineReadyPriority)) ; |320| 
         000305 1500 
         000307 0038-
    1272 000309 1015          AC0 = AC1 << #1 ; |320| 
         00030b 01   
    1273 00030c 1013          AC0 = AC0 + (AC1 << #3) ; |320| 
         00030e 03   
    1274 00030f 900A          XAR2 = AC0
    1275 000311 EC31          XAR3 = #_pxReadyCoRoutineLists ; |320| 
         000313 BE00 
         000315 0000-
    1276 000317 14A1          mar(XAR3 + XAR2) ; |320| 
         000319 B0   
    1277 00031a ED75          XAR2 = dbl(*AR3(short(#2)))
         00031c AF   
    1278 00031d 90B0          AC0 = XAR3
    1279 00031f ED55          XAR2 = dbl(*AR2(short(#2)))
         000321 AF   
    1280 000322 EB75          dbl(*AR3(short(#2))) = XAR2
         000324 A5   
    1281 000325 900A          XAR2 = AC0
    1282 000327 1404          mar(AR2 + #4) ; |320| 
         000329 A4   
    1283 00032a 90A0          AC0 = XAR2
    1284 00032c ED75          XAR2 = dbl(*AR3(short(#2)))
         00032e AF   
    1285 00032f 90A1          AC1 = XAR2
    1286 000331 121C          TC1 = uns(AC1 != AC0) ; |320| 
         000333 04   
    1287 000334 64E4          if (TC1) goto $C$L25 ; |320| 
    1288                                                      ; branchcc occurs ; |320| 
    1289              ;** 320 -----------------------    (*pxConstList).pxIndex = (*(*pxConstList).pxIndex).pxNext;
    1290 000336 ED75          XAR2 = dbl(*AR3(short(#2)))
         000338 AF   
    1291 000339 ED55          XAR2 = dbl(*AR2(short(#2)))
         00033b AF   
    1292 00033c EB75          dbl(*AR3(short(#2))) = XAR2
         00033e A5   
    1293 00033f       $C$L25:    
    1294              ;**     -----------------------g6:
    1295              ;** 320 -----------------------    pxCurrentCoRoutine = (struct _corCoRoutineControlBlock *)(*(*pxConstList).
    1296              ;** 323 -----------------------    (*(*pxCurrentCoRoutine).pxCoRoutineFunction)((void *)pxCurrentCoRoutine, (
    1297              ;**     -----------------------g7:
    1298              ;**     -----------------------    return;
    1299 00033f ED75          XAR3 = dbl(*AR3(short(#2)))
         000341 BF   
    1300 000342 ED7D          XAR3 = dbl(*AR3(short(#6)))
TMS320C55x Assembler PC v4.3.8 Fri Jan 21 01:13:24 2011

Tools Copyright (c) 1996-2010 Texas Instruments Incorporated
croutine.asm                                                         PAGE   29

         000344 BF   
    1301 000345 EB31          dbl(*(#_pxCurrentCoRoutine)) = XAR3
         000347 B500 
         000349 0036-
    1302                      .dwpsn  file "../FreeRTOS/Source/croutine.c",line 323,column 2,is_stmt
    1303 00034b ED31          XAR0 = dbl(*(#_pxCurrentCoRoutine))
         00034d 8F00 
         00034f 0036-
    1304 000351 ED61          AC0 = dbl(*AR3) ; |323| 
         000353 08   
    1305 000354 A46D          T0 = *AR3(#23) ; |323| 
         000356 0017 
    1306              $C$DW$96        .dwtag  DW_TAG_TI_branch
    1307                      .dwattr $C$DW$96, DW_AT_low_pc(0x00)
    1308                      .dwattr $C$DW$96, DW_AT_TI_call
    1309                      .dwattr $C$DW$96, DW_AT_TI_indirect
    1310 000358 9200          call AC0  ; |323| 
    1311                                                      ; call occurs [AC0] ; |323| 
    1312 00035a       $C$L26:    
    1313                      .dwpsn  file "../FreeRTOS/Source/croutine.c",line 326,column 1,is_stmt
    1314 00035a 4E01          SP = SP + #1
    1315                      .dwcfi  cfa_offset, 1
    1316              $C$DW$97        .dwtag  DW_TAG_TI_branch
    1317                      .dwattr $C$DW$97, DW_AT_low_pc(0x00)
    1318                      .dwattr $C$DW$97, DW_AT_TI_return
    1319 00035c 4804          return
    1320                                                      ; return occurs
    1321              
    1322              $C$DW$98        .dwtag  DW_TAG_TI_loop
    1323                      .dwattr $C$DW$98, DW_AT_name("E:\temp\c5515_eZdsp_FreeRTOS_Demo\EZDSP_Sample\Debug\croutine.asm:$C$L2
    1324                      .dwattr $C$DW$98, DW_AT_TI_begin_file("../FreeRTOS/Source/croutine.c")
    1325                      .dwattr $C$DW$98, DW_AT_TI_begin_line(0x134)
    1326                      .dwattr $C$DW$98, DW_AT_TI_end_line(0x13c)
    1327              $C$DW$99        .dwtag  DW_TAG_TI_loop_range
    1328                      .dwattr $C$DW$99, DW_AT_low_pc($C$DW$L$_vCoRoutineSchedule$2$B)
    1329                      .dwattr $C$DW$99, DW_AT_high_pc($C$DW$L$_vCoRoutineSchedule$2$E)
    1330              $C$DW$100       .dwtag  DW_TAG_TI_loop_range
    1331                      .dwattr $C$DW$100, DW_AT_low_pc($C$DW$L$_vCoRoutineSchedule$3$B)
    1332                      .dwattr $C$DW$100, DW_AT_high_pc($C$DW$L$_vCoRoutineSchedule$3$E)
    1333                      .dwendtag $C$DW$98
    1334              
    1335                      .dwattr $C$DW$92, DW_AT_TI_end_file("../FreeRTOS/Source/croutine.c")
    1336                      .dwattr $C$DW$92, DW_AT_TI_end_line(0x146)
    1337                      .dwattr $C$DW$92, DW_AT_TI_end_column(0x01)
    1338                      .dwendentry
    1339                      .dwendtag $C$DW$92
    1340              
    1341 00035e               .sect   ".text"
    1342              
    1343              $C$DW$101       .dwtag  DW_TAG_subprogram, DW_AT_name("prvInitialiseCoRoutineLists")
    1344                      .dwattr $C$DW$101, DW_AT_low_pc(_prvInitialiseCoRoutineLists)
    1345                      .dwattr $C$DW$101, DW_AT_high_pc(0x00)
    1346                      .dwattr $C$DW$101, DW_AT_TI_symbol_name("_prvInitialiseCoRoutineLists")
    1347                      .dwattr $C$DW$101, DW_AT_TI_begin_file("../FreeRTOS/Source/croutine.c")
    1348                      .dwattr $C$DW$101, DW_AT_TI_begin_line(0x149)
TMS320C55x Assembler PC v4.3.8 Fri Jan 21 01:13:24 2011

Tools Copyright (c) 1996-2010 Texas Instruments Incorporated
croutine.asm                                                         PAGE   30

    1349                      .dwattr $C$DW$101, DW_AT_TI_begin_column(0x0d)
    1350                      .dwattr $C$DW$101, DW_AT_decl_file("../FreeRTOS/Source/croutine.c")
    1351                      .dwattr $C$DW$101, DW_AT_decl_line(0x149)
    1352                      .dwattr $C$DW$101, DW_AT_decl_column(0x0d)
    1353                      .dwattr $C$DW$101, DW_AT_TI_max_frame_size(0x02)
    1354                      .dwpsn  file "../FreeRTOS/Source/croutine.c",line 330,column 1,is_stmt,address _prvInitialiseCoRoutin
    1355              
    1356                      .dwfde $C$DW$CIE, _prvInitialiseCoRoutineLists
    1357              ;*******************************************************************************
    1358              ;* FUNCTION NAME: prvInitialiseCoRoutineLists                                  *
    1359              ;*                                                                             *
    1360              ;*   Function Uses Regs : AC0,AC0,AC1,AC1,T2,AR0,XAR0,AR1,AR3,XAR3,SP,CARRY,   *
    1361              ;*                        TC1,M40,SATA,SATD,RDM,FRCT,SMUL                      *
    1362              ;*   Save On Entry Regs : T2                                                   *
    1363              ;*   Stack Frame        : Compact (No Frame Pointer, w/ debug)                 *
    1364              ;*   Total Frame Size   : 2 words                                              *
    1365              ;*                        (1 return address/alignment)                         *
    1366              ;*                        (1 register save area)                               *
    1367              ;*   Min System Stack   : 1 word                                               *
    1368              ;*******************************************************************************
    1369              
    1370              ;*******************************************************************************
    1371              ;*                                                                             *
    1372              ;* Using -g (debug) with optimization (-o0) may disable key optimizations!     *
    1373              ;*                                                                             *
    1374              ;*******************************************************************************
    1375 00035e       _prvInitialiseCoRoutineLists:
    1376              ;** 333 -----------------------    if ( (uxPriority = 0u) >= 2u ) goto g3;
    1377                      .dwcfi  cfa_offset, 1
    1378                      .dwcfi  save_reg_to_mem, 91, -1
    1379 00035e 5066          push(T2)
    1380                      .dwcfi  cfa_offset, 2
    1381                      .dwcfi  save_reg_to_mem, 14, -2
    1382                      .dwcfi  cfa_offset, 2
    1383              ;* T2    assigned to _uxPriority
    1384              $C$DW$102       .dwtag  DW_TAG_variable, DW_AT_name("uxPriority")
    1385                      .dwattr $C$DW$102, DW_AT_TI_symbol_name("_uxPriority")
    1386                      .dwattr $C$DW$102, DW_AT_type(*$C$DW$T$11)
    1387                      .dwattr $C$DW$102, DW_AT_location[DW_OP_reg14]
    1388                      .dwpsn  file "../FreeRTOS/Source/croutine.c",line 333,column 23,is_stmt
    1389              
    1390 000360 3C06          T2 = #0
    1391 000362 3D29  ||      AR1 = #2
    1392              
    1393 000364 1268          TC1 = uns(T2 >= AR1) ; |333| 
         000366 94   
    1394 000367 0464          if (TC1) goto $C$L28 ; |333| 
         000369 23   
    1395                                                      ; branchcc occurs ; |333| 
    1396 00036a       $C$L27:    
    1397 00036a       $C$DW$L$_prvInitialiseCoRoutineLists$2$B:
    1398              ;**     -----------------------g2:
    1399              ;** 335 -----------------------    vListInitialise((long)uxPriority*10+&pxReadyCoRoutineLists);
    1400              ;** 333 -----------------------    if ( (++uxPriority) < 2u ) goto g2;
    1401                      .dwpsn  file "../FreeRTOS/Source/croutine.c",line 335,column 3,is_stmt
TMS320C55x Assembler PC v4.3.8 Fri Jan 21 01:13:24 2011

Tools Copyright (c) 1996-2010 Texas Instruments Incorporated
croutine.asm                                                         PAGE   31

    1402 00036a 7DFF          AC1 = T2 & #0xffff ; |335| 
         00036c FF16 
    1403 00036e 1015          AC0 = AC1 << #1 ; |335| 
         000370 01   
    1404 000371 1013          AC0 = AC0 + (AC1 << #3) ; |335| 
         000373 03   
    1405 000374 900B          XAR3 = AC0
    1406 000376 EC31          XAR0 = #_pxReadyCoRoutineLists ; |335| 
         000378 8E00 
         00037a 0000-
    1407 00037c 14B1          mar(XAR0 + XAR3) ; |335| 
         00037e 80   
    1408              $C$DW$103       .dwtag  DW_TAG_TI_branch
    1409                      .dwattr $C$DW$103, DW_AT_low_pc(0x00)
    1410                      .dwattr $C$DW$103, DW_AT_name("_vListInitialise")
    1411                      .dwattr $C$DW$103, DW_AT_TI_call
    1412 00037f 6C00          call #_vListInitialise ; |335| 
         000381 0000!
    1413                                                      ; call occurs [#_vListInitialise] ; |335| 
    1414                      .dwpsn  file "../FreeRTOS/Source/croutine.c",line 333,column 69,is_stmt
    1415              
    1416 000383 4016          T2 = T2 + #1 ; |333| 
    1417 000385 3D29  ||      AR1 = #2
    1418              
    1419 000387 1264          TC1 = uns(T2 < AR1) ; |333| 
         000389 94   
    1420 00038a 0464          if (TC1) goto $C$L27 ; |333| 
         00038c DD   
    1421                                                      ; branchcc occurs ; |333| 
    1422 00038d       $C$DW$L$_prvInitialiseCoRoutineLists$2$E:
    1423 00038d       $C$L28:    
    1424              ;**     -----------------------g3:
    1425              ;** 338 -----------------------    vListInitialise(&xDelayedCoRoutineList1);
    1426              ;** 339 -----------------------    vListInitialise(&xDelayedCoRoutineList2);
    1427              ;** 340 -----------------------    vListInitialise(&xPendingReadyCoRoutineList);
    1428              ;** 344 -----------------------    pxDelayedCoRoutineList = &xDelayedCoRoutineList1;
    1429              ;** 345 -----------------------    pxOverflowDelayedCoRoutineList = &xDelayedCoRoutineList2;
    1430              ;**     -----------------------    return;
    1431                      .dwpsn  file "../FreeRTOS/Source/croutine.c",line 338,column 2,is_stmt
    1432 00038d EC31          XAR0 = #_xDelayedCoRoutineList1 ; |338| 
         00038f 8E00 
         000391 0014-
    1433              $C$DW$104       .dwtag  DW_TAG_TI_branch
    1434                      .dwattr $C$DW$104, DW_AT_low_pc(0x00)
    1435                      .dwattr $C$DW$104, DW_AT_name("_vListInitialise")
    1436                      .dwattr $C$DW$104, DW_AT_TI_call
    1437 000393 6C00          call #_vListInitialise ; |338| 
         000395 0000!
    1438                                                      ; call occurs [#_vListInitialise] ; |338| 
    1439                      .dwpsn  file "../FreeRTOS/Source/croutine.c",line 339,column 2,is_stmt
    1440 000397 EC31          XAR0 = #_xDelayedCoRoutineList2 ; |339| 
         000399 8E00 
         00039b 001E-
    1441              $C$DW$105       .dwtag  DW_TAG_TI_branch
    1442                      .dwattr $C$DW$105, DW_AT_low_pc(0x00)
TMS320C55x Assembler PC v4.3.8 Fri Jan 21 01:13:24 2011

Tools Copyright (c) 1996-2010 Texas Instruments Incorporated
croutine.asm                                                         PAGE   32

    1443                      .dwattr $C$DW$105, DW_AT_name("_vListInitialise")
    1444                      .dwattr $C$DW$105, DW_AT_TI_call
    1445 00039d 6C00          call #_vListInitialise ; |339| 
         00039f 0000!
    1446                                                      ; call occurs [#_vListInitialise] ; |339| 
    1447                      .dwpsn  file "../FreeRTOS/Source/croutine.c",line 340,column 2,is_stmt
    1448 0003a1 EC31          XAR0 = #_xPendingReadyCoRoutineList ; |340| 
         0003a3 8E00 
         0003a5 002C-
    1449              $C$DW$106       .dwtag  DW_TAG_TI_branch
    1450                      .dwattr $C$DW$106, DW_AT_low_pc(0x00)
    1451                      .dwattr $C$DW$106, DW_AT_name("_vListInitialise")
    1452                      .dwattr $C$DW$106, DW_AT_TI_call
    1453 0003a7 6C00          call #_vListInitialise ; |340| 
         0003a9 0000!
    1454                                                      ; call occurs [#_vListInitialise] ; |340| 
    1455                      .dwpsn  file "../FreeRTOS/Source/croutine.c",line 344,column 2,is_stmt
    1456 0003ab EC31          XAR3 = #_xDelayedCoRoutineList1 ; |344| 
         0003ad BE00 
         0003af 0014-
    1457 0003b1 EB31          dbl(*(#_pxDelayedCoRoutineList)) = XAR3
         0003b3 B500 
         0003b5 0028-
    1458                      .dwpsn  file "../FreeRTOS/Source/croutine.c",line 345,column 2,is_stmt
    1459 0003b7 EC31          XAR3 = #_xDelayedCoRoutineList2 ; |345| 
         0003b9 BE00 
         0003bb 001E-
    1460 0003bd EB31          dbl(*(#_pxOverflowDelayedCoRoutineList)) = XAR3
         0003bf B500 
         0003c1 002A-
    1461                      .dwpsn  file "../FreeRTOS/Source/croutine.c",line 346,column 1,is_stmt
    1462                      .dwcfi  cfa_offset, 2
    1463 0003c3 5062          T2 = pop()
    1464                      .dwcfi  restore_reg, 14
    1465                      .dwcfi  cfa_offset, 1
    1466              $C$DW$107       .dwtag  DW_TAG_TI_branch
    1467                      .dwattr $C$DW$107, DW_AT_low_pc(0x00)
    1468                      .dwattr $C$DW$107, DW_AT_TI_return
    1469 0003c5 4804          return
    1470                                                      ; return occurs
    1471              
    1472              $C$DW$108       .dwtag  DW_TAG_TI_loop
    1473                      .dwattr $C$DW$108, DW_AT_name("E:\temp\c5515_eZdsp_FreeRTOS_Demo\EZDSP_Sample\Debug\croutine.asm:$C$L
    1474                      .dwattr $C$DW$108, DW_AT_TI_begin_file("../FreeRTOS/Source/croutine.c")
    1475                      .dwattr $C$DW$108, DW_AT_TI_begin_line(0x14d)
    1476                      .dwattr $C$DW$108, DW_AT_TI_end_line(0x150)
    1477              $C$DW$109       .dwtag  DW_TAG_TI_loop_range
    1478                      .dwattr $C$DW$109, DW_AT_low_pc($C$DW$L$_prvInitialiseCoRoutineLists$2$B)
    1479                      .dwattr $C$DW$109, DW_AT_high_pc($C$DW$L$_prvInitialiseCoRoutineLists$2$E)
    1480                      .dwendtag $C$DW$108
    1481              
    1482                      .dwattr $C$DW$101, DW_AT_TI_end_file("../FreeRTOS/Source/croutine.c")
    1483                      .dwattr $C$DW$101, DW_AT_TI_end_line(0x15a)
    1484                      .dwattr $C$DW$101, DW_AT_TI_end_column(0x01)
    1485                      .dwendentry
TMS320C55x Assembler PC v4.3.8 Fri Jan 21 01:13:24 2011

Tools Copyright (c) 1996-2010 Texas Instruments Incorporated
croutine.asm                                                         PAGE   33

    1486                      .dwendtag $C$DW$101
    1487              
    1488 0003c7               .sect   ".text"
    1489                      .global _xCoRoutineRemoveFromEventList
    1490              
    1491              $C$DW$110       .dwtag  DW_TAG_subprogram, DW_AT_name("xCoRoutineRemoveFromEventList")
    1492                      .dwattr $C$DW$110, DW_AT_low_pc(_xCoRoutineRemoveFromEventList)
    1493                      .dwattr $C$DW$110, DW_AT_high_pc(0x00)
    1494                      .dwattr $C$DW$110, DW_AT_TI_symbol_name("_xCoRoutineRemoveFromEventList")
    1495                      .dwattr $C$DW$110, DW_AT_external
    1496                      .dwattr $C$DW$110, DW_AT_type(*$C$DW$T$10)
    1497                      .dwattr $C$DW$110, DW_AT_TI_begin_file("../FreeRTOS/Source/croutine.c")
    1498                      .dwattr $C$DW$110, DW_AT_TI_begin_line(0x15d)
    1499                      .dwattr $C$DW$110, DW_AT_TI_begin_column(0x16)
    1500                      .dwattr $C$DW$110, DW_AT_decl_file("../FreeRTOS/Source/croutine.c")
    1501                      .dwattr $C$DW$110, DW_AT_decl_line(0x15d)
    1502                      .dwattr $C$DW$110, DW_AT_decl_column(0x16)
    1503                      .dwattr $C$DW$110, DW_AT_TI_max_frame_size(0x02)
    1504                      .dwpsn  file "../FreeRTOS/Source/croutine.c",line 350,column 1,is_stmt,address _xCoRoutineRemoveFromE
    1505              
    1506                      .dwfde $C$DW$CIE, _xCoRoutineRemoveFromEventList
    1507              $C$DW$111       .dwtag  DW_TAG_formal_parameter, DW_AT_name("pxEventList")
    1508                      .dwattr $C$DW$111, DW_AT_TI_symbol_name("_pxEventList")
    1509                      .dwattr $C$DW$111, DW_AT_type(*$C$DW$T$67)
    1510                      .dwattr $C$DW$111, DW_AT_location[DW_OP_reg17]
    1511              ;*******************************************************************************
    1512              ;* FUNCTION NAME: xCoRoutineRemoveFromEventList                                *
    1513              ;*                                                                             *
    1514              ;*   Function Uses Regs : T0,AR0,XAR0,AR1,XAR1,AR2,AR3,XAR3,AR5,XAR5,SP,TC1,   *
    1515              ;*                        M40,SATA,SATD,RDM,FRCT,SMUL                          *
    1516              ;*   Save On Entry Regs : AR5                                                  *
    1517              ;*   Stack Frame        : Compact (No Frame Pointer, w/ debug)                 *
    1518              ;*   Total Frame Size   : 2 words                                              *
    1519              ;*                        (1 return address/alignment)                         *
    1520              ;*                        (1 register save area)                               *
    1521              ;*   Min System Stack   : 2 words                                              *
    1522              ;*******************************************************************************
    1523              
    1524              ;*******************************************************************************
    1525              ;*                                                                             *
    1526              ;* Using -g (debug) with optimization (-o0) may disable key optimizations!     *
    1527              ;*                                                                             *
    1528              ;*******************************************************************************
    1529 0003c7       _xCoRoutineRemoveFromEventList:
    1530              ;** 356 -----------------------    if ( (*pxEventList).uxNumberOfItems ) goto g3;
    1531                      .dwcfi  cfa_offset, 1
    1532                      .dwcfi  save_reg_to_mem, 91, -1
    1533 0003c7 50D5          pshboth(XAR5)
    1534                      .dwcfi  cfa_offset, 2
    1535                      .dwcfi  save_reg_to_mem, 26, -2
    1536                      .dwcfi  cfa_offset, 2
    1537              ;* T0    assigned to _xReturn
    1538              $C$DW$112       .dwtag  DW_TAG_variable, DW_AT_name("xReturn")
    1539                      .dwattr $C$DW$112, DW_AT_TI_symbol_name("_xReturn")
    1540                      .dwattr $C$DW$112, DW_AT_type(*$C$DW$T$10)
TMS320C55x Assembler PC v4.3.8 Fri Jan 21 01:13:24 2011

Tools Copyright (c) 1996-2010 Texas Instruments Incorporated
croutine.asm                                                         PAGE   34

    1541                      .dwattr $C$DW$112, DW_AT_location[DW_OP_reg12]
    1542              ;* AR5   assigned to _pxUnblockedCRCB
    1543              $C$DW$113       .dwtag  DW_TAG_variable, DW_AT_name("pxUnblockedCRCB")
    1544                      .dwattr $C$DW$113, DW_AT_TI_symbol_name("_pxUnblockedCRCB")
    1545                      .dwattr $C$DW$113, DW_AT_type(*$C$DW$T$95)
    1546                      .dwattr $C$DW$113, DW_AT_location[DW_OP_reg27]
    1547              ;* AR0   assigned to _pxEventList
    1548              $C$DW$114       .dwtag  DW_TAG_variable, DW_AT_name("pxEventList")
    1549                      .dwattr $C$DW$114, DW_AT_TI_symbol_name("_pxEventList")
    1550                      .dwattr $C$DW$114, DW_AT_type(*$C$DW$T$67)
    1551                      .dwattr $C$DW$114, DW_AT_location[DW_OP_reg17]
    1552                      .dwpsn  file "../FreeRTOS/Source/croutine.c",line 356,column 2,is_stmt
    1553 0003c9 A901          AR1 = *AR0 ; |356| 
    1554 0003cb 6419          if (AR1 != #0) goto $C$L29 ; |356| 
    1555                                                      ; branchcc occurs ; |356| 
    1556              ;** 356 -----------------------    pxUnblockedCRCB = (struct _corCoRoutineControlBlock *)NULL;
    1557              ;** 356 -----------------------    goto g4;
    1558 0003cd EC31          XAR5 = #0 ; |356| 
         0003cf DE00 
         0003d1 0000 
    1559 0003d3 4A06          goto $C$L30 ; |356| 
    1560                                                      ; branch occurs ; |356| 
    1561 0003d5       $C$L29:    
    1562              ;**     -----------------------g3:
    1563              ;** 356 -----------------------    pxUnblockedCRCB = (struct _corCoRoutineControlBlock *)(*(*pxEventList).xLi
    1564 0003d5 ED1D          XAR3 = dbl(*AR0(short(#6)))
         0003d7 BF   
    1565 0003d8 ED7D          XAR5 = dbl(*AR3(short(#6)))
         0003da DF   
    1566 0003db       $C$L30:    
    1567              ;**     -----------------------g4:
    1568              ;** 357 -----------------------    vListRemove((struct _xLIST_ITEM *)pxUnblockedCRCB+12L);
    1569              ;** 358 -----------------------    vListInsertEnd(&xPendingReadyCoRoutineList, (struct _xLIST_ITEM *)pxUnbloc
    1570              ;** 360 -----------------------    if ( (*pxUnblockedCRCB).uxPriority >= (*pxCurrentCoRoutine).uxPriority ) g
    1571                      .dwpsn  file "../FreeRTOS/Source/croutine.c",line 357,column 2,is_stmt
    1572 0003db ECA1          XAR0 = mar(*AR5)
         0003dd 8E   
    1573 0003de 140C          mar(AR0 + #12) ; |357| 
         0003e0 84   
    1574              $C$DW$115       .dwtag  DW_TAG_TI_branch
    1575                      .dwattr $C$DW$115, DW_AT_low_pc(0x00)
    1576                      .dwattr $C$DW$115, DW_AT_name("_vListRemove")
    1577                      .dwattr $C$DW$115, DW_AT_TI_call
    1578 0003e1 6C00          call #_vListRemove ; |357| 
         0003e3 0000!
    1579                                                      ; call occurs [#_vListRemove] ; |357| 
    1580                      .dwpsn  file "../FreeRTOS/Source/croutine.c",line 358,column 2,is_stmt
    1581 0003e5 ECA1          XAR1 = mar(*AR5)
         0003e7 9E   
    1582 0003e8 EC31          XAR0 = #_xPendingReadyCoRoutineList ; |358| 
         0003ea 8E00 
         0003ec 002C-
    1583 0003ee 140C          mar(AR1 + #12) ; |358| 
         0003f0 94   
    1584              $C$DW$116       .dwtag  DW_TAG_TI_branch
TMS320C55x Assembler PC v4.3.8 Fri Jan 21 01:13:24 2011

Tools Copyright (c) 1996-2010 Texas Instruments Incorporated
croutine.asm                                                         PAGE   35

    1585                      .dwattr $C$DW$116, DW_AT_low_pc(0x00)
    1586                      .dwattr $C$DW$116, DW_AT_name("_vListInsertEnd")
    1587                      .dwattr $C$DW$116, DW_AT_TI_call
    1588 0003f1 6C00          call #_vListInsertEnd ; |358| 
         0003f3 0000!
    1589                                                      ; call occurs [#_vListInsertEnd] ; |358| 
    1590                      .dwpsn  file "../FreeRTOS/Source/croutine.c",line 360,column 2,is_stmt
    1591 0003f5 ED31          XAR3 = dbl(*(#_pxCurrentCoRoutine))
         0003f7 BF00 
         0003f9 0036-
    1592 0003fb AAAD          AR2 = *AR5(#22) ; |360| 
         0003fd 0016 
    1593 0003ff A96D          AR1 = *AR3(#22) ; |360| 
         000401 0016 
    1594 000403 12A8          TC1 = uns(AR2 >= AR1) ; |360| 
         000405 94   
    1595 000406 6264          if (TC1) goto $C$L31 ; |360| 
    1596                                                      ; branchcc occurs ; |360| 
    1597              ;** 366 -----------------------    xReturn = 0;
    1598              ;** 366 -----------------------    goto g7;
    1599                      .dwpsn  file "../FreeRTOS/Source/croutine.c",line 366,column 3,is_stmt
    1600 000408 3C04          T0 = #0
    1601 00040a 4A02          goto $C$L32 ; |366| 
    1602                                                      ; branch occurs ; |366| 
    1603 00040c       $C$L31:    
    1604              ;**     -----------------------g6:
    1605              ;** 362 -----------------------    xReturn = 1;
    1606                      .dwpsn  file "../FreeRTOS/Source/croutine.c",line 362,column 3,is_stmt
    1607 00040c 3C14          T0 = #1
    1608 00040e       $C$L32:    
    1609              ;**     -----------------------g7:
    1610              ;** 369 -----------------------    return xReturn;
    1611                      .dwpsn  file "../FreeRTOS/Source/croutine.c",line 369,column 2,is_stmt
    1612                      .dwpsn  file "../FreeRTOS/Source/croutine.c",line 370,column 1,is_stmt
    1613                      .dwcfi  cfa_offset, 2
    1614 00040e 50D4          XAR5 = popboth()
    1615                      .dwcfi  restore_reg, 26
    1616                      .dwcfi  cfa_offset, 1
    1617              $C$DW$117       .dwtag  DW_TAG_TI_branch
    1618                      .dwattr $C$DW$117, DW_AT_low_pc(0x00)
    1619                      .dwattr $C$DW$117, DW_AT_TI_return
    1620 000410 4804          return
    1621                                                      ; return occurs
    1622                      .dwattr $C$DW$110, DW_AT_TI_end_file("../FreeRTOS/Source/croutine.c")
    1623                      .dwattr $C$DW$110, DW_AT_TI_end_line(0x172)
    1624                      .dwattr $C$DW$110, DW_AT_TI_end_column(0x01)
    1625                      .dwendentry
    1626                      .dwendtag $C$DW$110
    1627              
    1628              ;******************************************************************************
    1629              ;* UNDEFINED EXTERNAL REFERENCES                                              *
    1630              ;******************************************************************************
    1631                      .global _pvPortMalloc
    1632                      .global _vListInitialise
    1633                      .global _vListInitialiseItem
TMS320C55x Assembler PC v4.3.8 Fri Jan 21 01:13:24 2011

Tools Copyright (c) 1996-2010 Texas Instruments Incorporated
croutine.asm                                                         PAGE   36

    1634                      .global _vListInsert
    1635                      .global _vListInsertEnd
    1636                      .global _vListRemove
    1637                      .global _xTaskGetTickCount
    1638              
    1639              ;*******************************************************************************
    1640              ;* TYPE INFORMATION                                                            *
    1641              ;*******************************************************************************
    1642              $C$DW$T$3       .dwtag  DW_TAG_pointer_type
    1643                      .dwattr $C$DW$T$3, DW_AT_address_class(0x17)
    1644              $C$DW$T$31      .dwtag  DW_TAG_typedef, DW_AT_name("xCoRoutineHandle")
    1645                      .dwattr $C$DW$T$31, DW_AT_type(*$C$DW$T$3)
    1646                      .dwattr $C$DW$T$31, DW_AT_language(DW_LANG_C)
    1647                      .dwattr $C$DW$T$31, DW_AT_decl_file("E:/temp/c5515_eZdsp_FreeRTOS_Demo/EZDSP_Sample/FreeRTOS/Source/i
    1648                      .dwattr $C$DW$T$31, DW_AT_decl_line(0x49)
    1649                      .dwattr $C$DW$T$31, DW_AT_decl_column(0x10)
    1650              $C$DW$T$52      .dwtag  DW_TAG_typedef, DW_AT_name("xTaskHandle")
    1651                      .dwattr $C$DW$T$52, DW_AT_type(*$C$DW$T$3)
    1652                      .dwattr $C$DW$T$52, DW_AT_language(DW_LANG_C)
    1653                      .dwattr $C$DW$T$52, DW_AT_decl_file("E:/temp/c5515_eZdsp_FreeRTOS_Demo/EZDSP_Sample/FreeRTOS/Source/i
    1654                      .dwattr $C$DW$T$52, DW_AT_decl_line(0x57)
    1655                      .dwattr $C$DW$T$52, DW_AT_decl_column(0x10)
    1656              
    1657              $C$DW$T$32      .dwtag  DW_TAG_subroutine_type
    1658                      .dwattr $C$DW$T$32, DW_AT_language(DW_LANG_C)
    1659              $C$DW$118       .dwtag  DW_TAG_formal_parameter
    1660                      .dwattr $C$DW$118, DW_AT_type(*$C$DW$T$31)
    1661              $C$DW$119       .dwtag  DW_TAG_formal_parameter
    1662                      .dwattr $C$DW$119, DW_AT_type(*$C$DW$T$11)
    1663                      .dwendtag $C$DW$T$32
    1664              
    1665              $C$DW$T$33      .dwtag  DW_TAG_pointer_type
    1666                      .dwattr $C$DW$T$33, DW_AT_type(*$C$DW$T$32)
    1667                      .dwattr $C$DW$T$33, DW_AT_address_class(0x20)
    1668              $C$DW$T$34      .dwtag  DW_TAG_typedef, DW_AT_name("crCOROUTINE_CODE")
    1669                      .dwattr $C$DW$T$34, DW_AT_type(*$C$DW$T$33)
    1670                      .dwattr $C$DW$T$34, DW_AT_language(DW_LANG_C)
    1671                      .dwattr $C$DW$T$34, DW_AT_decl_file("E:/temp/c5515_eZdsp_FreeRTOS_Demo/EZDSP_Sample/FreeRTOS/Source/i
    1672                      .dwattr $C$DW$T$34, DW_AT_decl_line(0x4c)
    1673                      .dwattr $C$DW$T$34, DW_AT_decl_column(0x10)
    1674              
    1675              $C$DW$T$38      .dwtag  DW_TAG_subroutine_type
    1676                      .dwattr $C$DW$T$38, DW_AT_language(DW_LANG_C)
    1677              $C$DW$120       .dwtag  DW_TAG_formal_parameter
    1678                      .dwattr $C$DW$120, DW_AT_type(*$C$DW$T$3)
    1679                      .dwendtag $C$DW$T$38
    1680              
    1681              $C$DW$T$39      .dwtag  DW_TAG_pointer_type
    1682                      .dwattr $C$DW$T$39, DW_AT_type(*$C$DW$T$38)
    1683                      .dwattr $C$DW$T$39, DW_AT_address_class(0x20)
    1684              $C$DW$T$40      .dwtag  DW_TAG_typedef, DW_AT_name("pdTASK_CODE")
    1685                      .dwattr $C$DW$T$40, DW_AT_type(*$C$DW$T$39)
    1686                      .dwattr $C$DW$T$40, DW_AT_language(DW_LANG_C)
    1687                      .dwattr $C$DW$T$40, DW_AT_decl_file("E:\temp\c5515_eZdsp_FreeRTOS_Demo\EZDSP_Sample\FreeRTOS\Source\i
    1688                      .dwattr $C$DW$T$40, DW_AT_decl_line(0x3a)
TMS320C55x Assembler PC v4.3.8 Fri Jan 21 01:13:24 2011

Tools Copyright (c) 1996-2010 Texas Instruments Incorporated
croutine.asm                                                         PAGE   37

    1689                      .dwattr $C$DW$T$40, DW_AT_decl_column(0x10)
    1690              $C$DW$T$4       .dwtag  DW_TAG_base_type
    1691                      .dwattr $C$DW$T$4, DW_AT_encoding(DW_ATE_boolean)
    1692                      .dwattr $C$DW$T$4, DW_AT_name("bool")
    1693                      .dwattr $C$DW$T$4, DW_AT_byte_size(0x01)
    1694              $C$DW$T$5       .dwtag  DW_TAG_base_type
    1695                      .dwattr $C$DW$T$5, DW_AT_encoding(DW_ATE_signed_char)
    1696                      .dwattr $C$DW$T$5, DW_AT_name("signed char")
    1697                      .dwattr $C$DW$T$5, DW_AT_byte_size(0x01)
    1698              $C$DW$121       .dwtag  DW_TAG_TI_far_type
    1699                      .dwattr $C$DW$121, DW_AT_type(*$C$DW$T$5)
    1700              $C$DW$T$41      .dwtag  DW_TAG_const_type
    1701                      .dwattr $C$DW$T$41, DW_AT_type(*$C$DW$121)
    1702              $C$DW$T$42      .dwtag  DW_TAG_pointer_type
    1703                      .dwattr $C$DW$T$42, DW_AT_type(*$C$DW$T$41)
    1704                      .dwattr $C$DW$T$42, DW_AT_address_class(0x17)
    1705              $C$DW$122       .dwtag  DW_TAG_TI_far_type
    1706                      .dwattr $C$DW$122, DW_AT_type(*$C$DW$T$42)
    1707              $C$DW$T$43      .dwtag  DW_TAG_const_type
    1708                      .dwattr $C$DW$T$43, DW_AT_type(*$C$DW$122)
    1709              $C$DW$T$6       .dwtag  DW_TAG_base_type
    1710                      .dwattr $C$DW$T$6, DW_AT_encoding(DW_ATE_unsigned_char)
    1711                      .dwattr $C$DW$T$6, DW_AT_name("unsigned char")
    1712                      .dwattr $C$DW$T$6, DW_AT_byte_size(0x01)
    1713              $C$DW$T$7       .dwtag  DW_TAG_base_type
    1714                      .dwattr $C$DW$T$7, DW_AT_encoding(DW_ATE_signed_char)
    1715                      .dwattr $C$DW$T$7, DW_AT_name("wchar_t")
    1716                      .dwattr $C$DW$T$7, DW_AT_byte_size(0x01)
    1717              $C$DW$T$8       .dwtag  DW_TAG_base_type
    1718                      .dwattr $C$DW$T$8, DW_AT_encoding(DW_ATE_signed)
    1719                      .dwattr $C$DW$T$8, DW_AT_name("short")
    1720                      .dwattr $C$DW$T$8, DW_AT_byte_size(0x01)
    1721              $C$DW$T$9       .dwtag  DW_TAG_base_type
    1722                      .dwattr $C$DW$T$9, DW_AT_encoding(DW_ATE_unsigned)
    1723                      .dwattr $C$DW$T$9, DW_AT_name("unsigned short")
    1724                      .dwattr $C$DW$T$9, DW_AT_byte_size(0x01)
    1725              $C$DW$T$10      .dwtag  DW_TAG_base_type
    1726                      .dwattr $C$DW$T$10, DW_AT_encoding(DW_ATE_signed)
    1727                      .dwattr $C$DW$T$10, DW_AT_name("int")
    1728                      .dwattr $C$DW$T$10, DW_AT_byte_size(0x01)
    1729              
    1730              $C$DW$T$69      .dwtag  DW_TAG_subroutine_type
    1731                      .dwattr $C$DW$T$69, DW_AT_type(*$C$DW$T$10)
    1732                      .dwattr $C$DW$T$69, DW_AT_language(DW_LANG_C)
    1733              $C$DW$123       .dwtag  DW_TAG_formal_parameter
    1734                      .dwattr $C$DW$123, DW_AT_type(*$C$DW$T$3)
    1735                      .dwendtag $C$DW$T$69
    1736              
    1737              $C$DW$T$70      .dwtag  DW_TAG_pointer_type
    1738                      .dwattr $C$DW$T$70, DW_AT_type(*$C$DW$T$69)
    1739                      .dwattr $C$DW$T$70, DW_AT_address_class(0x20)
    1740              $C$DW$T$71      .dwtag  DW_TAG_typedef, DW_AT_name("pdTASK_HOOK_CODE")
    1741                      .dwattr $C$DW$T$71, DW_AT_type(*$C$DW$T$70)
    1742                      .dwattr $C$DW$T$71, DW_AT_language(DW_LANG_C)
    1743                      .dwattr $C$DW$T$71, DW_AT_decl_file("E:/temp/c5515_eZdsp_FreeRTOS_Demo/EZDSP_Sample/FreeRTOS/Source/i
TMS320C55x Assembler PC v4.3.8 Fri Jan 21 01:13:24 2011

Tools Copyright (c) 1996-2010 Texas Instruments Incorporated
croutine.asm                                                         PAGE   38

    1744                      .dwattr $C$DW$T$71, DW_AT_decl_line(0x4b)
    1745                      .dwattr $C$DW$T$71, DW_AT_decl_column(0x19)
    1746              $C$DW$T$11      .dwtag  DW_TAG_base_type
    1747                      .dwattr $C$DW$T$11, DW_AT_encoding(DW_ATE_unsigned)
    1748                      .dwattr $C$DW$T$11, DW_AT_name("unsigned int")
    1749                      .dwattr $C$DW$T$11, DW_AT_byte_size(0x01)
    1750              $C$DW$124       .dwtag  DW_TAG_TI_far_type
    1751                      .dwattr $C$DW$124, DW_AT_type(*$C$DW$T$11)
    1752              $C$DW$T$24      .dwtag  DW_TAG_volatile_type
    1753                      .dwattr $C$DW$T$24, DW_AT_type(*$C$DW$124)
    1754              $C$DW$T$44      .dwtag  DW_TAG_pointer_type
    1755                      .dwattr $C$DW$T$44, DW_AT_type(*$C$DW$T$11)
    1756                      .dwattr $C$DW$T$44, DW_AT_address_class(0x17)
    1757              $C$DW$T$74      .dwtag  DW_TAG_typedef, DW_AT_name("wchar_t")
    1758                      .dwattr $C$DW$T$74, DW_AT_type(*$C$DW$T$11)
    1759                      .dwattr $C$DW$T$74, DW_AT_language(DW_LANG_C)
    1760                      .dwattr $C$DW$T$74, DW_AT_decl_file("C:/Texas Instruments Tools/ccsv4/tools/compiler/C5500 Code Gener
    1761                      .dwattr $C$DW$T$74, DW_AT_decl_line(0x1c)
    1762                      .dwattr $C$DW$T$74, DW_AT_decl_column(0x1a)
    1763              $C$DW$T$12      .dwtag  DW_TAG_base_type
    1764                      .dwattr $C$DW$T$12, DW_AT_encoding(DW_ATE_signed)
    1765                      .dwattr $C$DW$T$12, DW_AT_name("long")
    1766                      .dwattr $C$DW$T$12, DW_AT_byte_size(0x02)
    1767              $C$DW$T$75      .dwtag  DW_TAG_typedef, DW_AT_name("ptrdiff_t")
    1768                      .dwattr $C$DW$T$75, DW_AT_type(*$C$DW$T$12)
    1769                      .dwattr $C$DW$T$75, DW_AT_language(DW_LANG_C)
    1770                      .dwattr $C$DW$T$75, DW_AT_decl_file("C:/Texas Instruments Tools/ccsv4/tools/compiler/C5500 Code Gener
    1771                      .dwattr $C$DW$T$75, DW_AT_decl_line(0x11)
    1772                      .dwattr $C$DW$T$75, DW_AT_decl_column(0x1c)
    1773              $C$DW$T$13      .dwtag  DW_TAG_base_type
    1774                      .dwattr $C$DW$T$13, DW_AT_encoding(DW_ATE_unsigned)
    1775                      .dwattr $C$DW$T$13, DW_AT_name("unsigned long")
    1776                      .dwattr $C$DW$T$13, DW_AT_byte_size(0x02)
    1777              $C$DW$T$19      .dwtag  DW_TAG_typedef, DW_AT_name("portTickType")
    1778                      .dwattr $C$DW$T$19, DW_AT_type(*$C$DW$T$13)
    1779                      .dwattr $C$DW$T$19, DW_AT_language(DW_LANG_C)
    1780                      .dwattr $C$DW$T$19, DW_AT_decl_file("E:\temp\c5515_eZdsp_FreeRTOS_Demo\EZDSP_Sample\FreeRTOS\Source\i
    1781                      .dwattr $C$DW$T$19, DW_AT_decl_line(0x55)
    1782                      .dwattr $C$DW$T$19, DW_AT_decl_column(0x1c)
    1783              $C$DW$T$48      .dwtag  DW_TAG_typedef, DW_AT_name("size_t")
    1784                      .dwattr $C$DW$T$48, DW_AT_type(*$C$DW$T$13)
    1785                      .dwattr $C$DW$T$48, DW_AT_language(DW_LANG_C)
    1786                      .dwattr $C$DW$T$48, DW_AT_decl_file("C:/Texas Instruments Tools/ccsv4/tools/compiler/C5500 Code Gener
    1787                      .dwattr $C$DW$T$48, DW_AT_decl_line(0x15)
    1788                      .dwattr $C$DW$T$48, DW_AT_decl_column(0x19)
    1789              $C$DW$T$14      .dwtag  DW_TAG_base_type
    1790                      .dwattr $C$DW$T$14, DW_AT_encoding(DW_ATE_signed)
    1791                      .dwattr $C$DW$T$14, DW_AT_name("long long")
    1792                      .dwattr $C$DW$T$14, DW_AT_byte_size(0x04)
    1793                      .dwattr $C$DW$T$14, DW_AT_bit_size(0x28)
    1794                      .dwattr $C$DW$T$14, DW_AT_bit_offset(0x18)
    1795              $C$DW$T$15      .dwtag  DW_TAG_base_type
    1796                      .dwattr $C$DW$T$15, DW_AT_encoding(DW_ATE_unsigned)
    1797                      .dwattr $C$DW$T$15, DW_AT_name("unsigned long long")
    1798                      .dwattr $C$DW$T$15, DW_AT_byte_size(0x04)
TMS320C55x Assembler PC v4.3.8 Fri Jan 21 01:13:24 2011

Tools Copyright (c) 1996-2010 Texas Instruments Incorporated
croutine.asm                                                         PAGE   39

    1799                      .dwattr $C$DW$T$15, DW_AT_bit_size(0x28)
    1800                      .dwattr $C$DW$T$15, DW_AT_bit_offset(0x18)
    1801              $C$DW$T$16      .dwtag  DW_TAG_base_type
    1802                      .dwattr $C$DW$T$16, DW_AT_encoding(DW_ATE_float)
    1803                      .dwattr $C$DW$T$16, DW_AT_name("float")
    1804                      .dwattr $C$DW$T$16, DW_AT_byte_size(0x02)
    1805              $C$DW$T$17      .dwtag  DW_TAG_base_type
    1806                      .dwattr $C$DW$T$17, DW_AT_encoding(DW_ATE_float)
    1807                      .dwattr $C$DW$T$17, DW_AT_name("double")
    1808                      .dwattr $C$DW$T$17, DW_AT_byte_size(0x02)
    1809              $C$DW$T$18      .dwtag  DW_TAG_base_type
    1810                      .dwattr $C$DW$T$18, DW_AT_encoding(DW_ATE_float)
    1811                      .dwattr $C$DW$T$18, DW_AT_name("long double")
    1812                      .dwattr $C$DW$T$18, DW_AT_byte_size(0x02)
    1813              
    1814              $C$DW$T$22      .dwtag  DW_TAG_structure_type
    1815                      .dwattr $C$DW$T$22, DW_AT_name("xLIST_ITEM")
    1816                      .dwattr $C$DW$T$22, DW_AT_byte_size(0x0a)
    1817              $C$DW$125       .dwtag  DW_TAG_member
    1818                      .dwattr $C$DW$125, DW_AT_type(*$C$DW$T$19)
    1819                      .dwattr $C$DW$125, DW_AT_name("xItemValue")
    1820                      .dwattr $C$DW$125, DW_AT_TI_symbol_name("_xItemValue")
    1821                      .dwattr $C$DW$125, DW_AT_data_member_location[DW_OP_plus_uconst 0x0]
    1822                      .dwattr $C$DW$125, DW_AT_accessibility(DW_ACCESS_public)
    1823                      .dwattr $C$DW$125, DW_AT_decl_file("E:\temp\c5515_eZdsp_FreeRTOS_Demo\EZDSP_Sample\FreeRTOS\Source\in
    1824                      .dwattr $C$DW$125, DW_AT_decl_line(0x64)
    1825                      .dwattr $C$DW$125, DW_AT_decl_column(0x0f)
    1826              $C$DW$126       .dwtag  DW_TAG_member
    1827                      .dwattr $C$DW$126, DW_AT_type(*$C$DW$T$21)
    1828                      .dwattr $C$DW$126, DW_AT_name("pxNext")
    1829                      .dwattr $C$DW$126, DW_AT_TI_symbol_name("_pxNext")
    1830                      .dwattr $C$DW$126, DW_AT_data_member_location[DW_OP_plus_uconst 0x2]
    1831                      .dwattr $C$DW$126, DW_AT_accessibility(DW_ACCESS_public)
    1832                      .dwattr $C$DW$126, DW_AT_decl_file("E:\temp\c5515_eZdsp_FreeRTOS_Demo\EZDSP_Sample\FreeRTOS\Source\in
    1833                      .dwattr $C$DW$126, DW_AT_decl_line(0x65)
    1834                      .dwattr $C$DW$126, DW_AT_decl_column(0x1f)
    1835              $C$DW$127       .dwtag  DW_TAG_member
    1836                      .dwattr $C$DW$127, DW_AT_type(*$C$DW$T$21)
    1837                      .dwattr $C$DW$127, DW_AT_name("pxPrevious")
    1838                      .dwattr $C$DW$127, DW_AT_TI_symbol_name("_pxPrevious")
    1839                      .dwattr $C$DW$127, DW_AT_data_member_location[DW_OP_plus_uconst 0x4]
    1840                      .dwattr $C$DW$127, DW_AT_accessibility(DW_ACCESS_public)
    1841                      .dwattr $C$DW$127, DW_AT_decl_file("E:\temp\c5515_eZdsp_FreeRTOS_Demo\EZDSP_Sample\FreeRTOS\Source\in
    1842                      .dwattr $C$DW$127, DW_AT_decl_line(0x66)
    1843                      .dwattr $C$DW$127, DW_AT_decl_column(0x1f)
    1844              $C$DW$128       .dwtag  DW_TAG_member
    1845                      .dwattr $C$DW$128, DW_AT_type(*$C$DW$T$3)
    1846                      .dwattr $C$DW$128, DW_AT_name("pvOwner")
    1847                      .dwattr $C$DW$128, DW_AT_TI_symbol_name("_pvOwner")
    1848                      .dwattr $C$DW$128, DW_AT_data_member_location[DW_OP_plus_uconst 0x6]
    1849                      .dwattr $C$DW$128, DW_AT_accessibility(DW_ACCESS_public)
    1850                      .dwattr $C$DW$128, DW_AT_decl_file("E:\temp\c5515_eZdsp_FreeRTOS_Demo\EZDSP_Sample\FreeRTOS\Source\in
    1851                      .dwattr $C$DW$128, DW_AT_decl_line(0x67)
    1852                      .dwattr $C$DW$128, DW_AT_decl_column(0x09)
    1853              $C$DW$129       .dwtag  DW_TAG_member
TMS320C55x Assembler PC v4.3.8 Fri Jan 21 01:13:24 2011

Tools Copyright (c) 1996-2010 Texas Instruments Incorporated
croutine.asm                                                         PAGE   40

    1854                      .dwattr $C$DW$129, DW_AT_type(*$C$DW$T$3)
    1855                      .dwattr $C$DW$129, DW_AT_name("pvContainer")
    1856                      .dwattr $C$DW$129, DW_AT_TI_symbol_name("_pvContainer")
    1857                      .dwattr $C$DW$129, DW_AT_data_member_location[DW_OP_plus_uconst 0x8]
    1858                      .dwattr $C$DW$129, DW_AT_accessibility(DW_ACCESS_public)
    1859                      .dwattr $C$DW$129, DW_AT_decl_file("E:\temp\c5515_eZdsp_FreeRTOS_Demo\EZDSP_Sample\FreeRTOS\Source\in
    1860                      .dwattr $C$DW$129, DW_AT_decl_line(0x68)
    1861                      .dwattr $C$DW$129, DW_AT_decl_column(0x09)
    1862                      .dwendtag $C$DW$T$22
    1863              
    1864                      .dwattr $C$DW$T$22, DW_AT_decl_file("E:\temp\c5515_eZdsp_FreeRTOS_Demo\EZDSP_Sample\FreeRTOS\Source\i
    1865                      .dwattr $C$DW$T$22, DW_AT_decl_line(0x62)
    1866                      .dwattr $C$DW$T$22, DW_AT_decl_column(0x08)
    1867              $C$DW$130       .dwtag  DW_TAG_TI_far_type
    1868                      .dwattr $C$DW$130, DW_AT_type(*$C$DW$T$22)
    1869              $C$DW$T$20      .dwtag  DW_TAG_volatile_type
    1870                      .dwattr $C$DW$T$20, DW_AT_type(*$C$DW$130)
    1871              $C$DW$T$21      .dwtag  DW_TAG_pointer_type
    1872                      .dwattr $C$DW$T$21, DW_AT_type(*$C$DW$T$20)
    1873                      .dwattr $C$DW$T$21, DW_AT_address_class(0x17)
    1874              $C$DW$T$25      .dwtag  DW_TAG_typedef, DW_AT_name("xListItem")
    1875                      .dwattr $C$DW$T$25, DW_AT_type(*$C$DW$T$22)
    1876                      .dwattr $C$DW$T$25, DW_AT_language(DW_LANG_C)
    1877                      .dwattr $C$DW$T$25, DW_AT_decl_file("E:\temp\c5515_eZdsp_FreeRTOS_Demo\EZDSP_Sample\FreeRTOS\Source\i
    1878                      .dwattr $C$DW$T$25, DW_AT_decl_line(0x6a)
    1879                      .dwattr $C$DW$T$25, DW_AT_decl_column(0x1b)
    1880              $C$DW$131       .dwtag  DW_TAG_TI_far_type
    1881                      .dwattr $C$DW$131, DW_AT_type(*$C$DW$T$25)
    1882              $C$DW$T$26      .dwtag  DW_TAG_volatile_type
    1883                      .dwattr $C$DW$T$26, DW_AT_type(*$C$DW$131)
    1884              $C$DW$T$27      .dwtag  DW_TAG_pointer_type
    1885                      .dwattr $C$DW$T$27, DW_AT_type(*$C$DW$T$26)
    1886                      .dwattr $C$DW$T$27, DW_AT_address_class(0x17)
    1887              $C$DW$T$59      .dwtag  DW_TAG_pointer_type
    1888                      .dwattr $C$DW$T$59, DW_AT_type(*$C$DW$T$25)
    1889                      .dwattr $C$DW$T$59, DW_AT_address_class(0x17)
    1890              
    1891              $C$DW$T$23      .dwtag  DW_TAG_structure_type
    1892                      .dwattr $C$DW$T$23, DW_AT_name("xMINI_LIST_ITEM")
    1893                      .dwattr $C$DW$T$23, DW_AT_byte_size(0x06)
    1894              $C$DW$132       .dwtag  DW_TAG_member
    1895                      .dwattr $C$DW$132, DW_AT_type(*$C$DW$T$19)
    1896                      .dwattr $C$DW$132, DW_AT_name("xItemValue")
    1897                      .dwattr $C$DW$132, DW_AT_TI_symbol_name("_xItemValue")
    1898                      .dwattr $C$DW$132, DW_AT_data_member_location[DW_OP_plus_uconst 0x0]
    1899                      .dwattr $C$DW$132, DW_AT_accessibility(DW_ACCESS_public)
    1900                      .dwattr $C$DW$132, DW_AT_decl_file("E:\temp\c5515_eZdsp_FreeRTOS_Demo\EZDSP_Sample\FreeRTOS\Source\in
    1901                      .dwattr $C$DW$132, DW_AT_decl_line(0x6e)
    1902                      .dwattr $C$DW$132, DW_AT_decl_column(0x0f)
    1903              $C$DW$133       .dwtag  DW_TAG_member
    1904                      .dwattr $C$DW$133, DW_AT_type(*$C$DW$T$21)
    1905                      .dwattr $C$DW$133, DW_AT_name("pxNext")
    1906                      .dwattr $C$DW$133, DW_AT_TI_symbol_name("_pxNext")
    1907                      .dwattr $C$DW$133, DW_AT_data_member_location[DW_OP_plus_uconst 0x2]
    1908                      .dwattr $C$DW$133, DW_AT_accessibility(DW_ACCESS_public)
TMS320C55x Assembler PC v4.3.8 Fri Jan 21 01:13:24 2011

Tools Copyright (c) 1996-2010 Texas Instruments Incorporated
croutine.asm                                                         PAGE   41

    1909                      .dwattr $C$DW$133, DW_AT_decl_file("E:\temp\c5515_eZdsp_FreeRTOS_Demo\EZDSP_Sample\FreeRTOS\Source\in
    1910                      .dwattr $C$DW$133, DW_AT_decl_line(0x6f)
    1911                      .dwattr $C$DW$133, DW_AT_decl_column(0x1e)
    1912              $C$DW$134       .dwtag  DW_TAG_member
    1913                      .dwattr $C$DW$134, DW_AT_type(*$C$DW$T$21)
    1914                      .dwattr $C$DW$134, DW_AT_name("pxPrevious")
    1915                      .dwattr $C$DW$134, DW_AT_TI_symbol_name("_pxPrevious")
    1916                      .dwattr $C$DW$134, DW_AT_data_member_location[DW_OP_plus_uconst 0x4]
    1917                      .dwattr $C$DW$134, DW_AT_accessibility(DW_ACCESS_public)
    1918                      .dwattr $C$DW$134, DW_AT_decl_file("E:\temp\c5515_eZdsp_FreeRTOS_Demo\EZDSP_Sample\FreeRTOS\Source\in
    1919                      .dwattr $C$DW$134, DW_AT_decl_line(0x70)
    1920                      .dwattr $C$DW$134, DW_AT_decl_column(0x1e)
    1921                      .dwendtag $C$DW$T$23
    1922              
    1923                      .dwattr $C$DW$T$23, DW_AT_decl_file("E:\temp\c5515_eZdsp_FreeRTOS_Demo\EZDSP_Sample\FreeRTOS\Source\i
    1924                      .dwattr $C$DW$T$23, DW_AT_decl_line(0x6c)
    1925                      .dwattr $C$DW$T$23, DW_AT_decl_column(0x08)
    1926              $C$DW$T$28      .dwtag  DW_TAG_typedef, DW_AT_name("xMiniListItem")
    1927                      .dwattr $C$DW$T$28, DW_AT_type(*$C$DW$T$23)
    1928                      .dwattr $C$DW$T$28, DW_AT_language(DW_LANG_C)
    1929                      .dwattr $C$DW$T$28, DW_AT_decl_file("E:\temp\c5515_eZdsp_FreeRTOS_Demo\EZDSP_Sample\FreeRTOS\Source\i
    1930                      .dwattr $C$DW$T$28, DW_AT_decl_line(0x72)
    1931                      .dwattr $C$DW$T$28, DW_AT_decl_column(0x20)
    1932              $C$DW$135       .dwtag  DW_TAG_TI_far_type
    1933                      .dwattr $C$DW$135, DW_AT_type(*$C$DW$T$28)
    1934              $C$DW$T$29      .dwtag  DW_TAG_volatile_type
    1935                      .dwattr $C$DW$T$29, DW_AT_type(*$C$DW$135)
    1936              
    1937              $C$DW$T$30      .dwtag  DW_TAG_structure_type
    1938                      .dwattr $C$DW$T$30, DW_AT_name("xLIST")
    1939                      .dwattr $C$DW$T$30, DW_AT_byte_size(0x0a)
    1940              $C$DW$136       .dwtag  DW_TAG_member
    1941                      .dwattr $C$DW$136, DW_AT_type(*$C$DW$T$24)
    1942                      .dwattr $C$DW$136, DW_AT_name("uxNumberOfItems")
    1943                      .dwattr $C$DW$136, DW_AT_TI_symbol_name("_uxNumberOfItems")
    1944                      .dwattr $C$DW$136, DW_AT_data_member_location[DW_OP_plus_uconst 0x0]
    1945                      .dwattr $C$DW$136, DW_AT_accessibility(DW_ACCESS_public)
    1946                      .dwattr $C$DW$136, DW_AT_decl_file("E:\temp\c5515_eZdsp_FreeRTOS_Demo\EZDSP_Sample\FreeRTOS\Source\in
    1947                      .dwattr $C$DW$136, DW_AT_decl_line(0x79)
    1948                      .dwattr $C$DW$136, DW_AT_decl_column(0x22)
    1949              $C$DW$137       .dwtag  DW_TAG_member
    1950                      .dwattr $C$DW$137, DW_AT_type(*$C$DW$T$27)
    1951                      .dwattr $C$DW$137, DW_AT_name("pxIndex")
    1952                      .dwattr $C$DW$137, DW_AT_TI_symbol_name("_pxIndex")
    1953                      .dwattr $C$DW$137, DW_AT_data_member_location[DW_OP_plus_uconst 0x2]
    1954                      .dwattr $C$DW$137, DW_AT_accessibility(DW_ACCESS_public)
    1955                      .dwattr $C$DW$137, DW_AT_decl_file("E:\temp\c5515_eZdsp_FreeRTOS_Demo\EZDSP_Sample\FreeRTOS\Source\in
    1956                      .dwattr $C$DW$137, DW_AT_decl_line(0x7a)
    1957                      .dwattr $C$DW$137, DW_AT_decl_column(0x17)
    1958              $C$DW$138       .dwtag  DW_TAG_member
    1959                      .dwattr $C$DW$138, DW_AT_type(*$C$DW$T$29)
    1960                      .dwattr $C$DW$138, DW_AT_name("xListEnd")
    1961                      .dwattr $C$DW$138, DW_AT_TI_symbol_name("_xListEnd")
    1962                      .dwattr $C$DW$138, DW_AT_data_member_location[DW_OP_plus_uconst 0x4]
    1963                      .dwattr $C$DW$138, DW_AT_accessibility(DW_ACCESS_public)
TMS320C55x Assembler PC v4.3.8 Fri Jan 21 01:13:24 2011

Tools Copyright (c) 1996-2010 Texas Instruments Incorporated
croutine.asm                                                         PAGE   42

    1964                      .dwattr $C$DW$138, DW_AT_decl_file("E:\temp\c5515_eZdsp_FreeRTOS_Demo\EZDSP_Sample\FreeRTOS\Source\in
    1965                      .dwattr $C$DW$138, DW_AT_decl_line(0x7b)
    1966                      .dwattr $C$DW$138, DW_AT_decl_column(0x19)
    1967                      .dwendtag $C$DW$T$30
    1968              
    1969                      .dwattr $C$DW$T$30, DW_AT_decl_file("E:\temp\c5515_eZdsp_FreeRTOS_Demo\EZDSP_Sample\FreeRTOS\Source\i
    1970                      .dwattr $C$DW$T$30, DW_AT_decl_line(0x77)
    1971                      .dwattr $C$DW$T$30, DW_AT_decl_column(0x10)
    1972              $C$DW$T$55      .dwtag  DW_TAG_typedef, DW_AT_name("xList")
    1973                      .dwattr $C$DW$T$55, DW_AT_type(*$C$DW$T$30)
    1974                      .dwattr $C$DW$T$55, DW_AT_language(DW_LANG_C)
    1975                      .dwattr $C$DW$T$55, DW_AT_decl_file("E:\temp\c5515_eZdsp_FreeRTOS_Demo\EZDSP_Sample\FreeRTOS\Source\i
    1976                      .dwattr $C$DW$T$55, DW_AT_decl_line(0x7c)
    1977                      .dwattr $C$DW$T$55, DW_AT_decl_column(0x03)
    1978              $C$DW$T$56      .dwtag  DW_TAG_pointer_type
    1979                      .dwattr $C$DW$T$56, DW_AT_type(*$C$DW$T$55)
    1980                      .dwattr $C$DW$T$56, DW_AT_address_class(0x17)
    1981              $C$DW$139       .dwtag  DW_TAG_TI_far_type
    1982                      .dwattr $C$DW$139, DW_AT_type(*$C$DW$T$56)
    1983              $C$DW$T$87      .dwtag  DW_TAG_const_type
    1984                      .dwattr $C$DW$T$87, DW_AT_type(*$C$DW$139)
    1985              $C$DW$140       .dwtag  DW_TAG_TI_far_type
    1986                      .dwattr $C$DW$140, DW_AT_type(*$C$DW$T$55)
    1987              $C$DW$T$66      .dwtag  DW_TAG_const_type
    1988                      .dwattr $C$DW$T$66, DW_AT_type(*$C$DW$140)
    1989              $C$DW$T$67      .dwtag  DW_TAG_pointer_type
    1990                      .dwattr $C$DW$T$67, DW_AT_type(*$C$DW$T$66)
    1991                      .dwattr $C$DW$T$67, DW_AT_address_class(0x17)
    1992              
    1993              $C$DW$T$88      .dwtag  DW_TAG_array_type
    1994                      .dwattr $C$DW$T$88, DW_AT_type(*$C$DW$T$55)
    1995                      .dwattr $C$DW$T$88, DW_AT_language(DW_LANG_C)
    1996                      .dwattr $C$DW$T$88, DW_AT_byte_size(0x14)
    1997              $C$DW$141       .dwtag  DW_TAG_subrange_type
    1998                      .dwattr $C$DW$141, DW_AT_upper_bound(0x01)
    1999                      .dwendtag $C$DW$T$88
    2000              
    2001              
    2002              $C$DW$T$35      .dwtag  DW_TAG_structure_type
    2003                      .dwattr $C$DW$T$35, DW_AT_name("corCoRoutineControlBlock")
    2004                      .dwattr $C$DW$T$35, DW_AT_byte_size(0x1a)
    2005              $C$DW$142       .dwtag  DW_TAG_member
    2006                      .dwattr $C$DW$142, DW_AT_type(*$C$DW$T$34)
    2007                      .dwattr $C$DW$142, DW_AT_name("pxCoRoutineFunction")
    2008                      .dwattr $C$DW$142, DW_AT_TI_symbol_name("_pxCoRoutineFunction")
    2009                      .dwattr $C$DW$142, DW_AT_data_member_location[DW_OP_plus_uconst 0x0]
    2010                      .dwattr $C$DW$142, DW_AT_accessibility(DW_ACCESS_public)
    2011                      .dwattr $C$DW$142, DW_AT_decl_file("E:/temp/c5515_eZdsp_FreeRTOS_Demo/EZDSP_Sample/FreeRTOS/Source/in
    2012                      .dwattr $C$DW$142, DW_AT_decl_line(0x50)
    2013                      .dwattr $C$DW$142, DW_AT_decl_column(0x15)
    2014              $C$DW$143       .dwtag  DW_TAG_member
    2015                      .dwattr $C$DW$143, DW_AT_type(*$C$DW$T$25)
    2016                      .dwattr $C$DW$143, DW_AT_name("xGenericListItem")
    2017                      .dwattr $C$DW$143, DW_AT_TI_symbol_name("_xGenericListItem")
    2018                      .dwattr $C$DW$143, DW_AT_data_member_location[DW_OP_plus_uconst 0x2]
TMS320C55x Assembler PC v4.3.8 Fri Jan 21 01:13:24 2011

Tools Copyright (c) 1996-2010 Texas Instruments Incorporated
croutine.asm                                                         PAGE   43

    2019                      .dwattr $C$DW$143, DW_AT_accessibility(DW_ACCESS_public)
    2020                      .dwattr $C$DW$143, DW_AT_decl_file("E:/temp/c5515_eZdsp_FreeRTOS_Demo/EZDSP_Sample/FreeRTOS/Source/in
    2021                      .dwattr $C$DW$143, DW_AT_decl_line(0x51)
    2022                      .dwattr $C$DW$143, DW_AT_decl_column(0x0f)
    2023              $C$DW$144       .dwtag  DW_TAG_member
    2024                      .dwattr $C$DW$144, DW_AT_type(*$C$DW$T$25)
    2025                      .dwattr $C$DW$144, DW_AT_name("xEventListItem")
    2026                      .dwattr $C$DW$144, DW_AT_TI_symbol_name("_xEventListItem")
    2027                      .dwattr $C$DW$144, DW_AT_data_member_location[DW_OP_plus_uconst 0xc]
    2028                      .dwattr $C$DW$144, DW_AT_accessibility(DW_ACCESS_public)
    2029                      .dwattr $C$DW$144, DW_AT_decl_file("E:/temp/c5515_eZdsp_FreeRTOS_Demo/EZDSP_Sample/FreeRTOS/Source/in
    2030                      .dwattr $C$DW$144, DW_AT_decl_line(0x52)
    2031                      .dwattr $C$DW$144, DW_AT_decl_column(0x0f)
    2032              $C$DW$145       .dwtag  DW_TAG_member
    2033                      .dwattr $C$DW$145, DW_AT_type(*$C$DW$T$11)
    2034                      .dwattr $C$DW$145, DW_AT_name("uxPriority")
    2035                      .dwattr $C$DW$145, DW_AT_TI_symbol_name("_uxPriority")
    2036                      .dwattr $C$DW$145, DW_AT_data_member_location[DW_OP_plus_uconst 0x16]
    2037                      .dwattr $C$DW$145, DW_AT_accessibility(DW_ACCESS_public)
    2038                      .dwattr $C$DW$145, DW_AT_decl_file("E:/temp/c5515_eZdsp_FreeRTOS_Demo/EZDSP_Sample/FreeRTOS/Source/in
    2039                      .dwattr $C$DW$145, DW_AT_decl_line(0x53)
    2040                      .dwattr $C$DW$145, DW_AT_decl_column(0x1a)
    2041              $C$DW$146       .dwtag  DW_TAG_member
    2042                      .dwattr $C$DW$146, DW_AT_type(*$C$DW$T$11)
    2043                      .dwattr $C$DW$146, DW_AT_name("uxIndex")
    2044                      .dwattr $C$DW$146, DW_AT_TI_symbol_name("_uxIndex")
    2045                      .dwattr $C$DW$146, DW_AT_data_member_location[DW_OP_plus_uconst 0x17]
    2046                      .dwattr $C$DW$146, DW_AT_accessibility(DW_ACCESS_public)
    2047                      .dwattr $C$DW$146, DW_AT_decl_file("E:/temp/c5515_eZdsp_FreeRTOS_Demo/EZDSP_Sample/FreeRTOS/Source/in
    2048                      .dwattr $C$DW$146, DW_AT_decl_line(0x54)
    2049                      .dwattr $C$DW$146, DW_AT_decl_column(0x1a)
    2050              $C$DW$147       .dwtag  DW_TAG_member
    2051                      .dwattr $C$DW$147, DW_AT_type(*$C$DW$T$9)
    2052                      .dwattr $C$DW$147, DW_AT_name("uxState")
    2053                      .dwattr $C$DW$147, DW_AT_TI_symbol_name("_uxState")
    2054                      .dwattr $C$DW$147, DW_AT_data_member_location[DW_OP_plus_uconst 0x18]
    2055                      .dwattr $C$DW$147, DW_AT_accessibility(DW_ACCESS_public)
    2056                      .dwattr $C$DW$147, DW_AT_decl_file("E:/temp/c5515_eZdsp_FreeRTOS_Demo/EZDSP_Sample/FreeRTOS/Source/in
    2057                      .dwattr $C$DW$147, DW_AT_decl_line(0x55)
    2058                      .dwattr $C$DW$147, DW_AT_decl_column(0x13)
    2059                      .dwendtag $C$DW$T$35
    2060              
    2061                      .dwattr $C$DW$T$35, DW_AT_decl_file("E:/temp/c5515_eZdsp_FreeRTOS_Demo/EZDSP_Sample/FreeRTOS/Source/i
    2062                      .dwattr $C$DW$T$35, DW_AT_decl_line(0x4e)
    2063                      .dwattr $C$DW$T$35, DW_AT_decl_column(0x10)
    2064              $C$DW$T$94      .dwtag  DW_TAG_typedef, DW_AT_name("corCRCB")
    2065                      .dwattr $C$DW$T$94, DW_AT_type(*$C$DW$T$35)
    2066                      .dwattr $C$DW$T$94, DW_AT_language(DW_LANG_C)
    2067                      .dwattr $C$DW$T$94, DW_AT_decl_file("E:/temp/c5515_eZdsp_FreeRTOS_Demo/EZDSP_Sample/FreeRTOS/Source/i
    2068                      .dwattr $C$DW$T$94, DW_AT_decl_line(0x56)
    2069                      .dwattr $C$DW$T$94, DW_AT_decl_column(0x03)
    2070              $C$DW$T$95      .dwtag  DW_TAG_pointer_type
    2071                      .dwattr $C$DW$T$95, DW_AT_type(*$C$DW$T$94)
    2072                      .dwattr $C$DW$T$95, DW_AT_address_class(0x17)
    2073              $C$DW$T$96      .dwtag  DW_TAG_pointer_type
TMS320C55x Assembler PC v4.3.8 Fri Jan 21 01:13:24 2011

Tools Copyright (c) 1996-2010 Texas Instruments Incorporated
croutine.asm                                                         PAGE   44

    2074                      .dwattr $C$DW$T$96, DW_AT_type(*$C$DW$T$35)
    2075                      .dwattr $C$DW$T$96, DW_AT_address_class(0x17)
    2076              
    2077              $C$DW$T$36      .dwtag  DW_TAG_structure_type
    2078                      .dwattr $C$DW$T$36, DW_AT_name("xTIME_OUT")
    2079                      .dwattr $C$DW$T$36, DW_AT_byte_size(0x04)
    2080              $C$DW$148       .dwtag  DW_TAG_member
    2081                      .dwattr $C$DW$148, DW_AT_type(*$C$DW$T$10)
    2082                      .dwattr $C$DW$148, DW_AT_name("xOverflowCount")
    2083                      .dwattr $C$DW$148, DW_AT_TI_symbol_name("_xOverflowCount")
    2084                      .dwattr $C$DW$148, DW_AT_data_member_location[DW_OP_plus_uconst 0x0]
    2085                      .dwattr $C$DW$148, DW_AT_accessibility(DW_ACCESS_public)
    2086                      .dwattr $C$DW$148, DW_AT_decl_file("E:/temp/c5515_eZdsp_FreeRTOS_Demo/EZDSP_Sample/FreeRTOS/Source/in
    2087                      .dwattr $C$DW$148, DW_AT_decl_line(0x5e)
    2088                      .dwattr $C$DW$148, DW_AT_decl_column(0x10)
    2089              $C$DW$149       .dwtag  DW_TAG_member
    2090                      .dwattr $C$DW$149, DW_AT_type(*$C$DW$T$19)
    2091                      .dwattr $C$DW$149, DW_AT_name("xTimeOnEntering")
    2092                      .dwattr $C$DW$149, DW_AT_TI_symbol_name("_xTimeOnEntering")
    2093                      .dwattr $C$DW$149, DW_AT_data_member_location[DW_OP_plus_uconst 0x2]
    2094                      .dwattr $C$DW$149, DW_AT_accessibility(DW_ACCESS_public)
    2095                      .dwattr $C$DW$149, DW_AT_decl_file("E:/temp/c5515_eZdsp_FreeRTOS_Demo/EZDSP_Sample/FreeRTOS/Source/in
    2096                      .dwattr $C$DW$149, DW_AT_decl_line(0x5f)
    2097                      .dwattr $C$DW$149, DW_AT_decl_column(0x10)
    2098                      .dwendtag $C$DW$T$36
    2099              
    2100                      .dwattr $C$DW$T$36, DW_AT_decl_file("E:/temp/c5515_eZdsp_FreeRTOS_Demo/EZDSP_Sample/FreeRTOS/Source/i
    2101                      .dwattr $C$DW$T$36, DW_AT_decl_line(0x5c)
    2102                      .dwattr $C$DW$T$36, DW_AT_decl_column(0x10)
    2103              $C$DW$T$97      .dwtag  DW_TAG_typedef, DW_AT_name("xTimeOutType")
    2104                      .dwattr $C$DW$T$97, DW_AT_type(*$C$DW$T$36)
    2105                      .dwattr $C$DW$T$97, DW_AT_language(DW_LANG_C)
    2106                      .dwattr $C$DW$T$97, DW_AT_decl_file("E:/temp/c5515_eZdsp_FreeRTOS_Demo/EZDSP_Sample/FreeRTOS/Source/i
    2107                      .dwattr $C$DW$T$97, DW_AT_decl_line(0x60)
    2108                      .dwattr $C$DW$T$97, DW_AT_decl_column(0x03)
    2109              
    2110              $C$DW$T$37      .dwtag  DW_TAG_structure_type
    2111                      .dwattr $C$DW$T$37, DW_AT_name("xMEMORY_REGION")
    2112                      .dwattr $C$DW$T$37, DW_AT_byte_size(0x06)
    2113              $C$DW$150       .dwtag  DW_TAG_member
    2114                      .dwattr $C$DW$150, DW_AT_type(*$C$DW$T$3)
    2115                      .dwattr $C$DW$150, DW_AT_name("pvBaseAddress")
    2116                      .dwattr $C$DW$150, DW_AT_TI_symbol_name("_pvBaseAddress")
    2117                      .dwattr $C$DW$150, DW_AT_data_member_location[DW_OP_plus_uconst 0x0]
    2118                      .dwattr $C$DW$150, DW_AT_accessibility(DW_ACCESS_public)
    2119                      .dwattr $C$DW$150, DW_AT_decl_file("E:/temp/c5515_eZdsp_FreeRTOS_Demo/EZDSP_Sample/FreeRTOS/Source/in
    2120                      .dwattr $C$DW$150, DW_AT_decl_line(0x67)
    2121                      .dwattr $C$DW$150, DW_AT_decl_column(0x08)
    2122              $C$DW$151       .dwtag  DW_TAG_member
    2123                      .dwattr $C$DW$151, DW_AT_type(*$C$DW$T$13)
    2124                      .dwattr $C$DW$151, DW_AT_name("ulLengthInBytes")
    2125                      .dwattr $C$DW$151, DW_AT_TI_symbol_name("_ulLengthInBytes")
    2126                      .dwattr $C$DW$151, DW_AT_data_member_location[DW_OP_plus_uconst 0x2]
    2127                      .dwattr $C$DW$151, DW_AT_accessibility(DW_ACCESS_public)
    2128                      .dwattr $C$DW$151, DW_AT_decl_file("E:/temp/c5515_eZdsp_FreeRTOS_Demo/EZDSP_Sample/FreeRTOS/Source/in
TMS320C55x Assembler PC v4.3.8 Fri Jan 21 01:13:24 2011

Tools Copyright (c) 1996-2010 Texas Instruments Incorporated
croutine.asm                                                         PAGE   45

    2129                      .dwattr $C$DW$151, DW_AT_decl_line(0x68)
    2130                      .dwattr $C$DW$151, DW_AT_decl_column(0x10)
    2131              $C$DW$152       .dwtag  DW_TAG_member
    2132                      .dwattr $C$DW$152, DW_AT_type(*$C$DW$T$13)
    2133                      .dwattr $C$DW$152, DW_AT_name("ulParameters")
    2134                      .dwattr $C$DW$152, DW_AT_TI_symbol_name("_ulParameters")
    2135                      .dwattr $C$DW$152, DW_AT_data_member_location[DW_OP_plus_uconst 0x4]
    2136                      .dwattr $C$DW$152, DW_AT_accessibility(DW_ACCESS_public)
    2137                      .dwattr $C$DW$152, DW_AT_decl_file("E:/temp/c5515_eZdsp_FreeRTOS_Demo/EZDSP_Sample/FreeRTOS/Source/in
    2138                      .dwattr $C$DW$152, DW_AT_decl_line(0x69)
    2139                      .dwattr $C$DW$152, DW_AT_decl_column(0x10)
    2140                      .dwendtag $C$DW$T$37
    2141              
    2142                      .dwattr $C$DW$T$37, DW_AT_decl_file("E:/temp/c5515_eZdsp_FreeRTOS_Demo/EZDSP_Sample/FreeRTOS/Source/i
    2143                      .dwattr $C$DW$T$37, DW_AT_decl_line(0x65)
    2144                      .dwattr $C$DW$T$37, DW_AT_decl_column(0x10)
    2145              $C$DW$T$45      .dwtag  DW_TAG_typedef, DW_AT_name("xMemoryRegion")
    2146                      .dwattr $C$DW$T$45, DW_AT_type(*$C$DW$T$37)
    2147                      .dwattr $C$DW$T$45, DW_AT_language(DW_LANG_C)
    2148                      .dwattr $C$DW$T$45, DW_AT_decl_file("E:/temp/c5515_eZdsp_FreeRTOS_Demo/EZDSP_Sample/FreeRTOS/Source/i
    2149                      .dwattr $C$DW$T$45, DW_AT_decl_line(0x6a)
    2150                      .dwattr $C$DW$T$45, DW_AT_decl_column(0x03)
    2151              
    2152              $C$DW$T$46      .dwtag  DW_TAG_array_type
    2153                      .dwattr $C$DW$T$46, DW_AT_type(*$C$DW$T$45)
    2154                      .dwattr $C$DW$T$46, DW_AT_language(DW_LANG_C)
    2155                      .dwattr $C$DW$T$46, DW_AT_byte_size(0x06)
    2156              $C$DW$153       .dwtag  DW_TAG_subrange_type
    2157                      .dwattr $C$DW$153, DW_AT_upper_bound(0x00)
    2158                      .dwendtag $C$DW$T$46
    2159              
    2160              
    2161              $C$DW$T$47      .dwtag  DW_TAG_structure_type
    2162                      .dwattr $C$DW$T$47, DW_AT_name("xTASK_PARAMTERS")
    2163                      .dwattr $C$DW$T$47, DW_AT_byte_size(0x12)
    2164              $C$DW$154       .dwtag  DW_TAG_member
    2165                      .dwattr $C$DW$154, DW_AT_type(*$C$DW$T$40)
    2166                      .dwattr $C$DW$154, DW_AT_name("pvTaskCode")
    2167                      .dwattr $C$DW$154, DW_AT_TI_symbol_name("_pvTaskCode")
    2168                      .dwattr $C$DW$154, DW_AT_data_member_location[DW_OP_plus_uconst 0x0]
    2169                      .dwattr $C$DW$154, DW_AT_accessibility(DW_ACCESS_public)
    2170                      .dwattr $C$DW$154, DW_AT_decl_file("E:/temp/c5515_eZdsp_FreeRTOS_Demo/EZDSP_Sample/FreeRTOS/Source/in
    2171                      .dwattr $C$DW$154, DW_AT_decl_line(0x71)
    2172                      .dwattr $C$DW$154, DW_AT_decl_column(0x0e)
    2173              $C$DW$155       .dwtag  DW_TAG_member
    2174                      .dwattr $C$DW$155, DW_AT_type(*$C$DW$T$43)
    2175                      .dwattr $C$DW$155, DW_AT_name("pcName")
    2176                      .dwattr $C$DW$155, DW_AT_TI_symbol_name("_pcName")
    2177                      .dwattr $C$DW$155, DW_AT_data_member_location[DW_OP_plus_uconst 0x2]
    2178                      .dwattr $C$DW$155, DW_AT_accessibility(DW_ACCESS_public)
    2179                      .dwattr $C$DW$155, DW_AT_decl_file("E:/temp/c5515_eZdsp_FreeRTOS_Demo/EZDSP_Sample/FreeRTOS/Source/in
    2180                      .dwattr $C$DW$155, DW_AT_decl_line(0x72)
    2181                      .dwattr $C$DW$155, DW_AT_decl_column(0x1c)
    2182              $C$DW$156       .dwtag  DW_TAG_member
    2183                      .dwattr $C$DW$156, DW_AT_type(*$C$DW$T$9)
TMS320C55x Assembler PC v4.3.8 Fri Jan 21 01:13:24 2011

Tools Copyright (c) 1996-2010 Texas Instruments Incorporated
croutine.asm                                                         PAGE   46

    2184                      .dwattr $C$DW$156, DW_AT_name("usStackDepth")
    2185                      .dwattr $C$DW$156, DW_AT_TI_symbol_name("_usStackDepth")
    2186                      .dwattr $C$DW$156, DW_AT_data_member_location[DW_OP_plus_uconst 0x4]
    2187                      .dwattr $C$DW$156, DW_AT_accessibility(DW_ACCESS_public)
    2188                      .dwattr $C$DW$156, DW_AT_decl_file("E:/temp/c5515_eZdsp_FreeRTOS_Demo/EZDSP_Sample/FreeRTOS/Source/in
    2189                      .dwattr $C$DW$156, DW_AT_decl_line(0x73)
    2190                      .dwattr $C$DW$156, DW_AT_decl_column(0x11)
    2191              $C$DW$157       .dwtag  DW_TAG_member
    2192                      .dwattr $C$DW$157, DW_AT_type(*$C$DW$T$3)
    2193                      .dwattr $C$DW$157, DW_AT_name("pvParameters")
    2194                      .dwattr $C$DW$157, DW_AT_TI_symbol_name("_pvParameters")
    2195                      .dwattr $C$DW$157, DW_AT_data_member_location[DW_OP_plus_uconst 0x6]
    2196                      .dwattr $C$DW$157, DW_AT_accessibility(DW_ACCESS_public)
    2197                      .dwattr $C$DW$157, DW_AT_decl_file("E:/temp/c5515_eZdsp_FreeRTOS_Demo/EZDSP_Sample/FreeRTOS/Source/in
    2198                      .dwattr $C$DW$157, DW_AT_decl_line(0x74)
    2199                      .dwattr $C$DW$157, DW_AT_decl_column(0x08)
    2200              $C$DW$158       .dwtag  DW_TAG_member
    2201                      .dwattr $C$DW$158, DW_AT_type(*$C$DW$T$11)
    2202                      .dwattr $C$DW$158, DW_AT_name("uxPriority")
    2203                      .dwattr $C$DW$158, DW_AT_TI_symbol_name("_uxPriority")
    2204                      .dwattr $C$DW$158, DW_AT_data_member_location[DW_OP_plus_uconst 0x8]
    2205                      .dwattr $C$DW$158, DW_AT_accessibility(DW_ACCESS_public)
    2206                      .dwattr $C$DW$158, DW_AT_decl_file("E:/temp/c5515_eZdsp_FreeRTOS_Demo/EZDSP_Sample/FreeRTOS/Source/in
    2207                      .dwattr $C$DW$158, DW_AT_decl_line(0x75)
    2208                      .dwattr $C$DW$158, DW_AT_decl_column(0x19)
    2209              $C$DW$159       .dwtag  DW_TAG_member
    2210                      .dwattr $C$DW$159, DW_AT_type(*$C$DW$T$44)
    2211                      .dwattr $C$DW$159, DW_AT_name("puxStackBuffer")
    2212                      .dwattr $C$DW$159, DW_AT_TI_symbol_name("_puxStackBuffer")
    2213                      .dwattr $C$DW$159, DW_AT_data_member_location[DW_OP_plus_uconst 0xa]
    2214                      .dwattr $C$DW$159, DW_AT_accessibility(DW_ACCESS_public)
    2215                      .dwattr $C$DW$159, DW_AT_decl_file("E:/temp/c5515_eZdsp_FreeRTOS_Demo/EZDSP_Sample/FreeRTOS/Source/in
    2216                      .dwattr $C$DW$159, DW_AT_decl_line(0x76)
    2217                      .dwattr $C$DW$159, DW_AT_decl_column(0x12)
    2218              $C$DW$160       .dwtag  DW_TAG_member
    2219                      .dwattr $C$DW$160, DW_AT_type(*$C$DW$T$46)
    2220                      .dwattr $C$DW$160, DW_AT_name("xRegions")
    2221                      .dwattr $C$DW$160, DW_AT_TI_symbol_name("_xRegions")
    2222                      .dwattr $C$DW$160, DW_AT_data_member_location[DW_OP_plus_uconst 0xc]
    2223                      .dwattr $C$DW$160, DW_AT_accessibility(DW_ACCESS_public)
    2224                      .dwattr $C$DW$160, DW_AT_decl_file("E:/temp/c5515_eZdsp_FreeRTOS_Demo/EZDSP_Sample/FreeRTOS/Source/in
    2225                      .dwattr $C$DW$160, DW_AT_decl_line(0x77)
    2226                      .dwattr $C$DW$160, DW_AT_decl_column(0x10)
    2227                      .dwendtag $C$DW$T$47
    2228              
    2229                      .dwattr $C$DW$T$47, DW_AT_decl_file("E:/temp/c5515_eZdsp_FreeRTOS_Demo/EZDSP_Sample/FreeRTOS/Source/i
    2230                      .dwattr $C$DW$T$47, DW_AT_decl_line(0x6f)
    2231                      .dwattr $C$DW$T$47, DW_AT_decl_column(0x10)
    2232              $C$DW$T$98      .dwtag  DW_TAG_typedef, DW_AT_name("xTaskParameters")
    2233                      .dwattr $C$DW$T$98, DW_AT_type(*$C$DW$T$47)
    2234                      .dwattr $C$DW$T$98, DW_AT_language(DW_LANG_C)
    2235                      .dwattr $C$DW$T$98, DW_AT_decl_file("E:/temp/c5515_eZdsp_FreeRTOS_Demo/EZDSP_Sample/FreeRTOS/Source/i
    2236                      .dwattr $C$DW$T$98, DW_AT_decl_line(0x78)
    2237                      .dwattr $C$DW$T$98, DW_AT_decl_column(0x03)
    2238                      .dwattr $C$DW$CU, DW_AT_language(DW_LANG_C)
TMS320C55x Assembler PC v4.3.8 Fri Jan 21 01:13:24 2011

Tools Copyright (c) 1996-2010 Texas Instruments Incorporated
croutine.asm                                                         PAGE   47

    2239              
    2240              ;***************************************************************
    2241              ;* DWARF CIE ENTRIES                                           *
    2242              ;***************************************************************
    2243              
    2244              $C$DW$CIE       .dwcie 91
    2245                      .dwcfi  cfa_register, 36
    2246                      .dwcfi  cfa_offset, 0
    2247                      .dwcfi  undefined, 0
    2248                      .dwcfi  undefined, 1
    2249                      .dwcfi  undefined, 2
    2250                      .dwcfi  undefined, 3
    2251                      .dwcfi  undefined, 4
    2252                      .dwcfi  undefined, 5
    2253                      .dwcfi  undefined, 6
    2254                      .dwcfi  undefined, 7
    2255                      .dwcfi  undefined, 8
    2256                      .dwcfi  undefined, 9
    2257                      .dwcfi  undefined, 10
    2258                      .dwcfi  undefined, 11
    2259                      .dwcfi  undefined, 12
    2260                      .dwcfi  undefined, 13
    2261                      .dwcfi  same_value, 14
    2262                      .dwcfi  same_value, 15
    2263                      .dwcfi  undefined, 16
    2264                      .dwcfi  undefined, 17
    2265                      .dwcfi  undefined, 18
    2266                      .dwcfi  undefined, 19
    2267                      .dwcfi  undefined, 20
    2268                      .dwcfi  undefined, 21
    2269                      .dwcfi  undefined, 22
    2270                      .dwcfi  undefined, 23
    2271                      .dwcfi  undefined, 24
    2272                      .dwcfi  undefined, 25
    2273                      .dwcfi  same_value, 26
    2274                      .dwcfi  same_value, 27
    2275                      .dwcfi  same_value, 28
    2276                      .dwcfi  same_value, 29
    2277                      .dwcfi  same_value, 30
    2278                      .dwcfi  same_value, 31
    2279                      .dwcfi  undefined, 32
    2280                      .dwcfi  undefined, 33
    2281                      .dwcfi  undefined, 34
    2282                      .dwcfi  undefined, 35
    2283                      .dwcfi  undefined, 36
    2284                      .dwcfi  undefined, 37
    2285                      .dwcfi  undefined, 38
    2286                      .dwcfi  undefined, 39
    2287                      .dwcfi  undefined, 40
    2288                      .dwcfi  undefined, 41
    2289                      .dwcfi  undefined, 42
    2290                      .dwcfi  undefined, 43
    2291                      .dwcfi  undefined, 44
    2292                      .dwcfi  undefined, 45
    2293                      .dwcfi  undefined, 46
TMS320C55x Assembler PC v4.3.8 Fri Jan 21 01:13:24 2011

Tools Copyright (c) 1996-2010 Texas Instruments Incorporated
croutine.asm                                                         PAGE   48

    2294                      .dwcfi  undefined, 47
    2295                      .dwcfi  undefined, 48
    2296                      .dwcfi  undefined, 49
    2297                      .dwcfi  undefined, 50
    2298                      .dwcfi  undefined, 51
    2299                      .dwcfi  undefined, 52
    2300                      .dwcfi  undefined, 53
    2301                      .dwcfi  undefined, 54
    2302                      .dwcfi  undefined, 55
    2303                      .dwcfi  undefined, 56
    2304                      .dwcfi  undefined, 57
    2305                      .dwcfi  undefined, 58
    2306                      .dwcfi  undefined, 59
    2307                      .dwcfi  undefined, 60
    2308                      .dwcfi  undefined, 61
    2309                      .dwcfi  undefined, 62
    2310                      .dwcfi  undefined, 63
    2311                      .dwcfi  undefined, 64
    2312                      .dwcfi  undefined, 65
    2313                      .dwcfi  undefined, 66
    2314                      .dwcfi  undefined, 67
    2315                      .dwcfi  undefined, 68
    2316                      .dwcfi  undefined, 69
    2317                      .dwcfi  undefined, 70
    2318                      .dwcfi  undefined, 71
    2319                      .dwcfi  undefined, 72
    2320                      .dwcfi  undefined, 73
    2321                      .dwcfi  undefined, 74
    2322                      .dwcfi  undefined, 75
    2323                      .dwcfi  undefined, 76
    2324                      .dwcfi  undefined, 77
    2325                      .dwcfi  undefined, 78
    2326                      .dwcfi  undefined, 79
    2327                      .dwcfi  undefined, 80
    2328                      .dwcfi  undefined, 81
    2329                      .dwcfi  undefined, 82
    2330                      .dwcfi  undefined, 83
    2331                      .dwcfi  undefined, 84
    2332                      .dwcfi  undefined, 85
    2333                      .dwcfi  undefined, 86
    2334                      .dwcfi  undefined, 87
    2335                      .dwcfi  undefined, 88
    2336                      .dwcfi  undefined, 89
    2337                      .dwcfi  undefined, 90
    2338                      .dwcfi  undefined, 91
    2339                      .dwendentry
    2340              
    2341              ;***************************************************************
    2342              ;* DWARF REGISTER MAP                                          *
    2343              ;***************************************************************
    2344              
    2345              $C$DW$161       .dwtag  DW_TAG_TI_assign_register, DW_AT_name("AC0")
    2346                      .dwattr $C$DW$161, DW_AT_location[DW_OP_reg0]
    2347              $C$DW$162       .dwtag  DW_TAG_TI_assign_register, DW_AT_name("AC0")
    2348                      .dwattr $C$DW$162, DW_AT_location[DW_OP_reg1]
TMS320C55x Assembler PC v4.3.8 Fri Jan 21 01:13:24 2011

Tools Copyright (c) 1996-2010 Texas Instruments Incorporated
croutine.asm                                                         PAGE   49

    2349              $C$DW$163       .dwtag  DW_TAG_TI_assign_register, DW_AT_name("AC0_G")
    2350                      .dwattr $C$DW$163, DW_AT_location[DW_OP_reg2]
    2351              $C$DW$164       .dwtag  DW_TAG_TI_assign_register, DW_AT_name("AC1")
    2352                      .dwattr $C$DW$164, DW_AT_location[DW_OP_reg3]
    2353              $C$DW$165       .dwtag  DW_TAG_TI_assign_register, DW_AT_name("AC1")
    2354                      .dwattr $C$DW$165, DW_AT_location[DW_OP_reg4]
    2355              $C$DW$166       .dwtag  DW_TAG_TI_assign_register, DW_AT_name("AC1_G")
    2356                      .dwattr $C$DW$166, DW_AT_location[DW_OP_reg5]
    2357              $C$DW$167       .dwtag  DW_TAG_TI_assign_register, DW_AT_name("AC2")
    2358                      .dwattr $C$DW$167, DW_AT_location[DW_OP_reg6]
    2359              $C$DW$168       .dwtag  DW_TAG_TI_assign_register, DW_AT_name("AC2")
    2360                      .dwattr $C$DW$168, DW_AT_location[DW_OP_reg7]
    2361              $C$DW$169       .dwtag  DW_TAG_TI_assign_register, DW_AT_name("AC2_G")
    2362                      .dwattr $C$DW$169, DW_AT_location[DW_OP_reg8]
    2363              $C$DW$170       .dwtag  DW_TAG_TI_assign_register, DW_AT_name("AC3")
    2364                      .dwattr $C$DW$170, DW_AT_location[DW_OP_reg9]
    2365              $C$DW$171       .dwtag  DW_TAG_TI_assign_register, DW_AT_name("AC3")
    2366                      .dwattr $C$DW$171, DW_AT_location[DW_OP_reg10]
    2367              $C$DW$172       .dwtag  DW_TAG_TI_assign_register, DW_AT_name("AC3_G")
    2368                      .dwattr $C$DW$172, DW_AT_location[DW_OP_reg11]
    2369              $C$DW$173       .dwtag  DW_TAG_TI_assign_register, DW_AT_name("T0")
    2370                      .dwattr $C$DW$173, DW_AT_location[DW_OP_reg12]
    2371              $C$DW$174       .dwtag  DW_TAG_TI_assign_register, DW_AT_name("T1")
    2372                      .dwattr $C$DW$174, DW_AT_location[DW_OP_reg13]
    2373              $C$DW$175       .dwtag  DW_TAG_TI_assign_register, DW_AT_name("T2")
    2374                      .dwattr $C$DW$175, DW_AT_location[DW_OP_reg14]
    2375              $C$DW$176       .dwtag  DW_TAG_TI_assign_register, DW_AT_name("T3")
    2376                      .dwattr $C$DW$176, DW_AT_location[DW_OP_reg15]
    2377              $C$DW$177       .dwtag  DW_TAG_TI_assign_register, DW_AT_name("AR0")
    2378                      .dwattr $C$DW$177, DW_AT_location[DW_OP_reg16]
    2379              $C$DW$178       .dwtag  DW_TAG_TI_assign_register, DW_AT_name("XAR0")
    2380                      .dwattr $C$DW$178, DW_AT_location[DW_OP_reg17]
    2381              $C$DW$179       .dwtag  DW_TAG_TI_assign_register, DW_AT_name("AR1")
    2382                      .dwattr $C$DW$179, DW_AT_location[DW_OP_reg18]
    2383              $C$DW$180       .dwtag  DW_TAG_TI_assign_register, DW_AT_name("XAR1")
    2384                      .dwattr $C$DW$180, DW_AT_location[DW_OP_reg19]
    2385              $C$DW$181       .dwtag  DW_TAG_TI_assign_register, DW_AT_name("AR2")
    2386                      .dwattr $C$DW$181, DW_AT_location[DW_OP_reg20]
    2387              $C$DW$182       .dwtag  DW_TAG_TI_assign_register, DW_AT_name("XAR2")
    2388                      .dwattr $C$DW$182, DW_AT_location[DW_OP_reg21]
    2389              $C$DW$183       .dwtag  DW_TAG_TI_assign_register, DW_AT_name("AR3")
    2390                      .dwattr $C$DW$183, DW_AT_location[DW_OP_reg22]
    2391              $C$DW$184       .dwtag  DW_TAG_TI_assign_register, DW_AT_name("XAR3")
    2392                      .dwattr $C$DW$184, DW_AT_location[DW_OP_reg23]
    2393              $C$DW$185       .dwtag  DW_TAG_TI_assign_register, DW_AT_name("AR4")
    2394                      .dwattr $C$DW$185, DW_AT_location[DW_OP_reg24]
    2395              $C$DW$186       .dwtag  DW_TAG_TI_assign_register, DW_AT_name("XAR4")
    2396                      .dwattr $C$DW$186, DW_AT_location[DW_OP_reg25]
    2397              $C$DW$187       .dwtag  DW_TAG_TI_assign_register, DW_AT_name("AR5")
    2398                      .dwattr $C$DW$187, DW_AT_location[DW_OP_reg26]
    2399              $C$DW$188       .dwtag  DW_TAG_TI_assign_register, DW_AT_name("XAR5")
    2400                      .dwattr $C$DW$188, DW_AT_location[DW_OP_reg27]
    2401              $C$DW$189       .dwtag  DW_TAG_TI_assign_register, DW_AT_name("AR6")
    2402                      .dwattr $C$DW$189, DW_AT_location[DW_OP_reg28]
    2403              $C$DW$190       .dwtag  DW_TAG_TI_assign_register, DW_AT_name("XAR6")
TMS320C55x Assembler PC v4.3.8 Fri Jan 21 01:13:24 2011

Tools Copyright (c) 1996-2010 Texas Instruments Incorporated
croutine.asm                                                         PAGE   50

    2404                      .dwattr $C$DW$190, DW_AT_location[DW_OP_reg29]
    2405              $C$DW$191       .dwtag  DW_TAG_TI_assign_register, DW_AT_name("AR7")
    2406                      .dwattr $C$DW$191, DW_AT_location[DW_OP_reg30]
    2407              $C$DW$192       .dwtag  DW_TAG_TI_assign_register, DW_AT_name("XAR7")
    2408                      .dwattr $C$DW$192, DW_AT_location[DW_OP_reg31]
    2409              $C$DW$193       .dwtag  DW_TAG_TI_assign_register, DW_AT_name("FP")
    2410                      .dwattr $C$DW$193, DW_AT_location[DW_OP_regx 0x20]
    2411              $C$DW$194       .dwtag  DW_TAG_TI_assign_register, DW_AT_name("XFP")
    2412                      .dwattr $C$DW$194, DW_AT_location[DW_OP_regx 0x21]
    2413              $C$DW$195       .dwtag  DW_TAG_TI_assign_register, DW_AT_name("PC")
    2414                      .dwattr $C$DW$195, DW_AT_location[DW_OP_regx 0x22]
    2415              $C$DW$196       .dwtag  DW_TAG_TI_assign_register, DW_AT_name("SP")
    2416                      .dwattr $C$DW$196, DW_AT_location[DW_OP_regx 0x23]
    2417              $C$DW$197       .dwtag  DW_TAG_TI_assign_register, DW_AT_name("XSP")
    2418                      .dwattr $C$DW$197, DW_AT_location[DW_OP_regx 0x24]
    2419              $C$DW$198       .dwtag  DW_TAG_TI_assign_register, DW_AT_name("BKC")
    2420                      .dwattr $C$DW$198, DW_AT_location[DW_OP_regx 0x25]
    2421              $C$DW$199       .dwtag  DW_TAG_TI_assign_register, DW_AT_name("BK03")
    2422                      .dwattr $C$DW$199, DW_AT_location[DW_OP_regx 0x26]
    2423              $C$DW$200       .dwtag  DW_TAG_TI_assign_register, DW_AT_name("BK47")
    2424                      .dwattr $C$DW$200, DW_AT_location[DW_OP_regx 0x27]
    2425              $C$DW$201       .dwtag  DW_TAG_TI_assign_register, DW_AT_name("ST0")
    2426                      .dwattr $C$DW$201, DW_AT_location[DW_OP_regx 0x28]
    2427              $C$DW$202       .dwtag  DW_TAG_TI_assign_register, DW_AT_name("ST1")
    2428                      .dwattr $C$DW$202, DW_AT_location[DW_OP_regx 0x29]
    2429              $C$DW$203       .dwtag  DW_TAG_TI_assign_register, DW_AT_name("ST2")
    2430                      .dwattr $C$DW$203, DW_AT_location[DW_OP_regx 0x2a]
    2431              $C$DW$204       .dwtag  DW_TAG_TI_assign_register, DW_AT_name("ST3")
    2432                      .dwattr $C$DW$204, DW_AT_location[DW_OP_regx 0x2b]
    2433              $C$DW$205       .dwtag  DW_TAG_TI_assign_register, DW_AT_name("MDP")
    2434                      .dwattr $C$DW$205, DW_AT_location[DW_OP_regx 0x2c]
    2435              $C$DW$206       .dwtag  DW_TAG_TI_assign_register, DW_AT_name("MDP05")
    2436                      .dwattr $C$DW$206, DW_AT_location[DW_OP_regx 0x2d]
    2437              $C$DW$207       .dwtag  DW_TAG_TI_assign_register, DW_AT_name("MDP67")
    2438                      .dwattr $C$DW$207, DW_AT_location[DW_OP_regx 0x2e]
    2439              $C$DW$208       .dwtag  DW_TAG_TI_assign_register, DW_AT_name("BRC0")
    2440                      .dwattr $C$DW$208, DW_AT_location[DW_OP_regx 0x2f]
    2441              $C$DW$209       .dwtag  DW_TAG_TI_assign_register, DW_AT_name("RSA0")
    2442                      .dwattr $C$DW$209, DW_AT_location[DW_OP_regx 0x30]
    2443              $C$DW$210       .dwtag  DW_TAG_TI_assign_register, DW_AT_name("RSA0_H")
    2444                      .dwattr $C$DW$210, DW_AT_location[DW_OP_regx 0x31]
    2445              $C$DW$211       .dwtag  DW_TAG_TI_assign_register, DW_AT_name("REA0")
    2446                      .dwattr $C$DW$211, DW_AT_location[DW_OP_regx 0x32]
    2447              $C$DW$212       .dwtag  DW_TAG_TI_assign_register, DW_AT_name("REA0_H")
    2448                      .dwattr $C$DW$212, DW_AT_location[DW_OP_regx 0x33]
    2449              $C$DW$213       .dwtag  DW_TAG_TI_assign_register, DW_AT_name("BRS1")
    2450                      .dwattr $C$DW$213, DW_AT_location[DW_OP_regx 0x34]
    2451              $C$DW$214       .dwtag  DW_TAG_TI_assign_register, DW_AT_name("BRC1")
    2452                      .dwattr $C$DW$214, DW_AT_location[DW_OP_regx 0x35]
    2453              $C$DW$215       .dwtag  DW_TAG_TI_assign_register, DW_AT_name("RSA1")
    2454                      .dwattr $C$DW$215, DW_AT_location[DW_OP_regx 0x36]
    2455              $C$DW$216       .dwtag  DW_TAG_TI_assign_register, DW_AT_name("RSA1_H")
    2456                      .dwattr $C$DW$216, DW_AT_location[DW_OP_regx 0x37]
    2457              $C$DW$217       .dwtag  DW_TAG_TI_assign_register, DW_AT_name("REA1")
    2458                      .dwattr $C$DW$217, DW_AT_location[DW_OP_regx 0x38]
TMS320C55x Assembler PC v4.3.8 Fri Jan 21 01:13:24 2011

Tools Copyright (c) 1996-2010 Texas Instruments Incorporated
croutine.asm                                                         PAGE   51

    2459              $C$DW$218       .dwtag  DW_TAG_TI_assign_register, DW_AT_name("REA1_H")
    2460                      .dwattr $C$DW$218, DW_AT_location[DW_OP_regx 0x39]
    2461              $C$DW$219       .dwtag  DW_TAG_TI_assign_register, DW_AT_name("CSR")
    2462                      .dwattr $C$DW$219, DW_AT_location[DW_OP_regx 0x3a]
    2463              $C$DW$220       .dwtag  DW_TAG_TI_assign_register, DW_AT_name("RPTC")
    2464                      .dwattr $C$DW$220, DW_AT_location[DW_OP_regx 0x3b]
    2465              $C$DW$221       .dwtag  DW_TAG_TI_assign_register, DW_AT_name("CDP")
    2466                      .dwattr $C$DW$221, DW_AT_location[DW_OP_regx 0x3c]
    2467              $C$DW$222       .dwtag  DW_TAG_TI_assign_register, DW_AT_name("XCDP")
    2468                      .dwattr $C$DW$222, DW_AT_location[DW_OP_regx 0x3d]
    2469              $C$DW$223       .dwtag  DW_TAG_TI_assign_register, DW_AT_name("TRN0")
    2470                      .dwattr $C$DW$223, DW_AT_location[DW_OP_regx 0x3e]
    2471              $C$DW$224       .dwtag  DW_TAG_TI_assign_register, DW_AT_name("TRN1")
    2472                      .dwattr $C$DW$224, DW_AT_location[DW_OP_regx 0x3f]
    2473              $C$DW$225       .dwtag  DW_TAG_TI_assign_register, DW_AT_name("BSA01")
    2474                      .dwattr $C$DW$225, DW_AT_location[DW_OP_regx 0x40]
    2475              $C$DW$226       .dwtag  DW_TAG_TI_assign_register, DW_AT_name("BSA23")
    2476                      .dwattr $C$DW$226, DW_AT_location[DW_OP_regx 0x41]
    2477              $C$DW$227       .dwtag  DW_TAG_TI_assign_register, DW_AT_name("BSA45")
    2478                      .dwattr $C$DW$227, DW_AT_location[DW_OP_regx 0x42]
    2479              $C$DW$228       .dwtag  DW_TAG_TI_assign_register, DW_AT_name("BSA67")
    2480                      .dwattr $C$DW$228, DW_AT_location[DW_OP_regx 0x43]
    2481              $C$DW$229       .dwtag  DW_TAG_TI_assign_register, DW_AT_name("BSAC")
    2482                      .dwattr $C$DW$229, DW_AT_location[DW_OP_regx 0x44]
    2483              $C$DW$230       .dwtag  DW_TAG_TI_assign_register, DW_AT_name("CARRY")
    2484                      .dwattr $C$DW$230, DW_AT_location[DW_OP_regx 0x45]
    2485              $C$DW$231       .dwtag  DW_TAG_TI_assign_register, DW_AT_name("TC1")
    2486                      .dwattr $C$DW$231, DW_AT_location[DW_OP_regx 0x46]
    2487              $C$DW$232       .dwtag  DW_TAG_TI_assign_register, DW_AT_name("TC2")
    2488                      .dwattr $C$DW$232, DW_AT_location[DW_OP_regx 0x47]
    2489              $C$DW$233       .dwtag  DW_TAG_TI_assign_register, DW_AT_name("M40")
    2490                      .dwattr $C$DW$233, DW_AT_location[DW_OP_regx 0x48]
    2491              $C$DW$234       .dwtag  DW_TAG_TI_assign_register, DW_AT_name("SXMD")
    2492                      .dwattr $C$DW$234, DW_AT_location[DW_OP_regx 0x49]
    2493              $C$DW$235       .dwtag  DW_TAG_TI_assign_register, DW_AT_name("ARMS")
    2494                      .dwattr $C$DW$235, DW_AT_location[DW_OP_regx 0x4a]
    2495              $C$DW$236       .dwtag  DW_TAG_TI_assign_register, DW_AT_name("C54CM")
    2496                      .dwattr $C$DW$236, DW_AT_location[DW_OP_regx 0x4b]
    2497              $C$DW$237       .dwtag  DW_TAG_TI_assign_register, DW_AT_name("SATA")
    2498                      .dwattr $C$DW$237, DW_AT_location[DW_OP_regx 0x4c]
    2499              $C$DW$238       .dwtag  DW_TAG_TI_assign_register, DW_AT_name("SATD")
    2500                      .dwattr $C$DW$238, DW_AT_location[DW_OP_regx 0x4d]
    2501              $C$DW$239       .dwtag  DW_TAG_TI_assign_register, DW_AT_name("RDM")
    2502                      .dwattr $C$DW$239, DW_AT_location[DW_OP_regx 0x4e]
    2503              $C$DW$240       .dwtag  DW_TAG_TI_assign_register, DW_AT_name("FRCT")
    2504                      .dwattr $C$DW$240, DW_AT_location[DW_OP_regx 0x4f]
    2505              $C$DW$241       .dwtag  DW_TAG_TI_assign_register, DW_AT_name("SMUL")
    2506                      .dwattr $C$DW$241, DW_AT_location[DW_OP_regx 0x50]
    2507              $C$DW$242       .dwtag  DW_TAG_TI_assign_register, DW_AT_name("INTM")
    2508                      .dwattr $C$DW$242, DW_AT_location[DW_OP_regx 0x51]
    2509              $C$DW$243       .dwtag  DW_TAG_TI_assign_register, DW_AT_name("AR0LC")
    2510                      .dwattr $C$DW$243, DW_AT_location[DW_OP_regx 0x52]
    2511              $C$DW$244       .dwtag  DW_TAG_TI_assign_register, DW_AT_name("AR1LC")
    2512                      .dwattr $C$DW$244, DW_AT_location[DW_OP_regx 0x53]
    2513              $C$DW$245       .dwtag  DW_TAG_TI_assign_register, DW_AT_name("AR2LC")
TMS320C55x Assembler PC v4.3.8 Fri Jan 21 01:13:24 2011

Tools Copyright (c) 1996-2010 Texas Instruments Incorporated
croutine.asm                                                         PAGE   52

    2514                      .dwattr $C$DW$245, DW_AT_location[DW_OP_regx 0x54]
    2515              $C$DW$246       .dwtag  DW_TAG_TI_assign_register, DW_AT_name("AR3LC")
    2516                      .dwattr $C$DW$246, DW_AT_location[DW_OP_regx 0x55]
    2517              $C$DW$247       .dwtag  DW_TAG_TI_assign_register, DW_AT_name("AR4LC")
    2518                      .dwattr $C$DW$247, DW_AT_location[DW_OP_regx 0x56]
    2519              $C$DW$248       .dwtag  DW_TAG_TI_assign_register, DW_AT_name("AR5LC")
    2520                      .dwattr $C$DW$248, DW_AT_location[DW_OP_regx 0x57]
    2521              $C$DW$249       .dwtag  DW_TAG_TI_assign_register, DW_AT_name("AR6LC")
    2522                      .dwattr $C$DW$249, DW_AT_location[DW_OP_regx 0x58]
    2523              $C$DW$250       .dwtag  DW_TAG_TI_assign_register, DW_AT_name("AR7LC")
    2524                      .dwattr $C$DW$250, DW_AT_location[DW_OP_regx 0x59]
    2525              $C$DW$251       .dwtag  DW_TAG_TI_assign_register, DW_AT_name("CDPLC")
    2526                      .dwattr $C$DW$251, DW_AT_location[DW_OP_regx 0x5a]
    2527              $C$DW$252       .dwtag  DW_TAG_TI_assign_register, DW_AT_name("CIE_RETA")
    2528                      .dwattr $C$DW$252, DW_AT_location[DW_OP_regx 0x5b]
    2529                      .dwendtag $C$DW$CU
    2530              

No Assembly Errors, No Assembly Warnings
