TMS320C55x Assembler PC v4.3.8 Fri Jan 21 01:13:25 2011

Tools Copyright (c) 1996-2010 Texas Instruments Incorporated
list.asm                                                             PAGE    1

       1              ;*******************************************************************************
       2              ;* TMS320C55x C/C++ Codegen                                          PC v4.3.8 *
       3              ;* Date/Time created: Fri Jan 21 01:13:25 2011                                 *
       4              ;*******************************************************************************
       5                      .compiler_opts --hll_source=on --mem_model:code=flat --mem_model:data=huge --silicon_core_3_3 --symde
       6                      .mmregs
       7                      .cpl_on
       8                      .arms_on
       9                      .c54cm_off
      10                      .asg AR6, FP
      11                      .asg XAR6, XFP
      12                      .model call=c55_std
      13                      .model mem=huge
      14                      .noremark 5002  ; code respects overwrite rules
      15              ;*******************************************************************************
      16              ;* GLOBAL FILE PARAMETERS                                                      *
      17              ;*                                                                             *
      18              ;*   Architecture       : TMS320C55x                                           *
      19              ;*   Optimizing for     : Speed                                                *
      20              ;*   Memory             : Huge Model (23-Bit Data Pointers)                    *
      21              ;*   Calls              : Normal Library ASM calls                             *
      22              ;*   Debug Info         : Standard TI Debug Information                        *
      23              ;*******************************************************************************
      24              
      25              $C$DW$CU        .dwtag  DW_TAG_compile_unit
      26                      .dwattr $C$DW$CU, DW_AT_name("../FreeRTOS/Source/list.c")
      27                      .dwattr $C$DW$CU, DW_AT_producer("TMS320C55x C/C++ Codegen PC v4.3.8 Copyright (c) 1996-2010 Texas In
      28                      .dwattr $C$DW$CU, DW_AT_TI_version(0x01)
      29                      .dwattr $C$DW$CU, DW_AT_comp_dir("E:\temp\c5515_eZdsp_FreeRTOS_Demo\EZDSP_Sample\Debug")
      30              ;       C:\Texas Instruments Tools\ccsv4\tools\compiler\C5500 Code Generation Tools 4.3.8\bin\opt55.exe C:\\U
      31 000000               .sect   ".text"
      32                      .global _vListInitialise
      33              
      34              $C$DW$1 .dwtag  DW_TAG_subprogram, DW_AT_name("vListInitialise")
      35                      .dwattr $C$DW$1, DW_AT_low_pc(_vListInitialise)
      36                      .dwattr $C$DW$1, DW_AT_high_pc(0x00)
      37                      .dwattr $C$DW$1, DW_AT_TI_symbol_name("_vListInitialise")
      38                      .dwattr $C$DW$1, DW_AT_external
      39                      .dwattr $C$DW$1, DW_AT_TI_begin_file("../FreeRTOS/Source/list.c")
      40                      .dwattr $C$DW$1, DW_AT_TI_begin_line(0x3f)
      41                      .dwattr $C$DW$1, DW_AT_TI_begin_column(0x06)
      42                      .dwattr $C$DW$1, DW_AT_decl_file("../FreeRTOS/Source/list.c")
      43                      .dwattr $C$DW$1, DW_AT_decl_line(0x3f)
      44                      .dwattr $C$DW$1, DW_AT_decl_column(0x06)
      45                      .dwattr $C$DW$1, DW_AT_TI_max_frame_size(0x01)
      46                      .dwpsn  file "../FreeRTOS/Source/list.c",line 64,column 1,is_stmt,address _vListInitialise
      47              
      48                      .dwfde $C$DW$CIE, _vListInitialise
      49              $C$DW$2 .dwtag  DW_TAG_formal_parameter, DW_AT_name("pxList")
      50                      .dwattr $C$DW$2, DW_AT_TI_symbol_name("_pxList")
      51                      .dwattr $C$DW$2, DW_AT_type(*$C$DW$T$35)
      52                      .dwattr $C$DW$2, DW_AT_location[DW_OP_reg17]
      53              ;*******************************************************************************
      54              ;* FUNCTION NAME: vListInitialise                                              *
      55              ;*                                                                             *
TMS320C55x Assembler PC v4.3.8 Fri Jan 21 01:13:25 2011

Tools Copyright (c) 1996-2010 Texas Instruments Incorporated
list.asm                                                             PAGE    2

      56              ;*   Function Uses Regs : AC0,AC0,AR0,XAR0,AR3,XAR3,SP,M40,SATA,SATD,RDM,FRCT, *
      57              ;*                        SMUL                                                 *
      58              ;*   Stack Frame        : Compact (No Frame Pointer, w/ debug)                 *
      59              ;*   Total Frame Size   : 1 word                                               *
      60              ;*                        (1 return address/alignment)                         *
      61              ;*   Min System Stack   : 1 word                                               *
      62              ;*******************************************************************************
      63              
      64              ;*******************************************************************************
      65              ;*                                                                             *
      66              ;* Using -g (debug) with optimization (-o0) may disable key optimizations!     *
      67              ;*                                                                             *
      68              ;*******************************************************************************
      69 000000       _vListInitialise:
      70              ;** 68  -----------------------    (*pxList).pxIndex = (volatile struct _xLIST_ITEM *)((volatile struct _xMIN
      71              ;** 72  -----------------------    (*pxList).xListEnd.xItemValue = 0xffffffffuL;
      72              ;** 76  -----------------------    (*pxList).xListEnd.pxNext = (volatile struct _xLIST_ITEM *)((volatile stru
      73              ;** 77  -----------------------    (*pxList).xListEnd.pxPrevious = (volatile struct _xLIST_ITEM *)((volatile 
      74              ;** 79  -----------------------    (*pxList).uxNumberOfItems = 0u;
      75              ;**     -----------------------    return;
      76                      .dwcfi  cfa_offset, 1
      77                      .dwcfi  save_reg_to_mem, 91, -1
      78              ;* AR0   assigned to _pxList
      79              $C$DW$3 .dwtag  DW_TAG_variable, DW_AT_name("pxList")
      80                      .dwattr $C$DW$3, DW_AT_TI_symbol_name("_pxList")
      81                      .dwattr $C$DW$3, DW_AT_type(*$C$DW$T$35)
      82                      .dwattr $C$DW$3, DW_AT_location[DW_OP_reg17]
      83                      .dwpsn  file "../FreeRTOS/Source/list.c",line 68,column 2,is_stmt
      84 000000 EC01          XAR3 = mar(*AR0)
         000002 BE   
      85              
      86 000003 8E15          dbl(*AR0(short(#2))) = XAR3
         000005 BB14 
         000007 B504 
      87              ||      mar(AR3 + #4) ; |68| 
      88              
      89                      .dwpsn  file "../FreeRTOS/Source/list.c",line 72,column 2,is_stmt
      90 000009 7AFF          AC0 = #-1 << #16 ; |72| 
         00000b FF0A 
      91 00000d 7EFF          AC0 = AC0 | #0xffff ; |72| 
         00000f FF00 
      92 000011 EB19          dbl(*AR0(short(#4))) = AC0 ; |72| 
         000013 08   
      93                      .dwpsn  file "../FreeRTOS/Source/list.c",line 76,column 2,is_stmt
      94 000014 EC01          XAR3 = mar(*AR0)
         000016 BE   
      95              
      96 000017 8E1D          dbl(*AR0(short(#6))) = XAR3
         000019 BB14 
         00001b B504 
      97              ||      mar(AR3 + #4) ; |76| 
      98              
      99                      .dwpsn  file "../FreeRTOS/Source/list.c",line 77,column 2,is_stmt
     100 00001d EC01          XAR3 = mar(*AR0)
         00001f BE   
TMS320C55x Assembler PC v4.3.8 Fri Jan 21 01:13:25 2011

Tools Copyright (c) 1996-2010 Texas Instruments Incorporated
list.asm                                                             PAGE    3

     101 000020 1404          mar(AR3 + #4) ; |77| 
         000022 B4   
     102 000023 EB0D          dbl(*AR0(#8)) = XAR3
         000025 B500 
         000027 08   
     103                      .dwpsn  file "../FreeRTOS/Source/list.c",line 79,column 2,is_stmt
     104 000028 E601          *AR0 = #0 ; |79| 
         00002a 00   
     105                      .dwpsn  file "../FreeRTOS/Source/list.c",line 80,column 1,is_stmt
     106              $C$DW$4 .dwtag  DW_TAG_TI_branch
     107                      .dwattr $C$DW$4, DW_AT_low_pc(0x00)
     108                      .dwattr $C$DW$4, DW_AT_TI_return
     109 00002b 4804          return
     110                                                      ; return occurs
     111                      .dwattr $C$DW$1, DW_AT_TI_end_file("../FreeRTOS/Source/list.c")
     112                      .dwattr $C$DW$1, DW_AT_TI_end_line(0x50)
     113                      .dwattr $C$DW$1, DW_AT_TI_end_column(0x01)
     114                      .dwendentry
     115                      .dwendtag $C$DW$1
     116              
     117 00002d               .sect   ".text"
     118                      .global _vListInitialiseItem
     119              
     120              $C$DW$5 .dwtag  DW_TAG_subprogram, DW_AT_name("vListInitialiseItem")
     121                      .dwattr $C$DW$5, DW_AT_low_pc(_vListInitialiseItem)
     122                      .dwattr $C$DW$5, DW_AT_high_pc(0x00)
     123                      .dwattr $C$DW$5, DW_AT_TI_symbol_name("_vListInitialiseItem")
     124                      .dwattr $C$DW$5, DW_AT_external
     125                      .dwattr $C$DW$5, DW_AT_TI_begin_file("../FreeRTOS/Source/list.c")
     126                      .dwattr $C$DW$5, DW_AT_TI_begin_line(0x53)
     127                      .dwattr $C$DW$5, DW_AT_TI_begin_column(0x06)
     128                      .dwattr $C$DW$5, DW_AT_decl_file("../FreeRTOS/Source/list.c")
     129                      .dwattr $C$DW$5, DW_AT_decl_line(0x53)
     130                      .dwattr $C$DW$5, DW_AT_decl_column(0x06)
     131                      .dwattr $C$DW$5, DW_AT_TI_max_frame_size(0x01)
     132                      .dwpsn  file "../FreeRTOS/Source/list.c",line 84,column 1,is_stmt,address _vListInitialiseItem
     133              
     134                      .dwfde $C$DW$CIE, _vListInitialiseItem
     135              $C$DW$6 .dwtag  DW_TAG_formal_parameter, DW_AT_name("pxItem")
     136                      .dwattr $C$DW$6, DW_AT_TI_symbol_name("_pxItem")
     137                      .dwattr $C$DW$6, DW_AT_type(*$C$DW$T$37)
     138                      .dwattr $C$DW$6, DW_AT_location[DW_OP_reg17]
     139              ;*******************************************************************************
     140              ;* FUNCTION NAME: vListInitialiseItem                                          *
     141              ;*                                                                             *
     142              ;*   Function Uses Regs : AC0,AC0,AR0,XAR0,SP,M40,SATA,SATD,RDM,FRCT,SMUL      *
     143              ;*   Stack Frame        : Compact (No Frame Pointer, w/ debug)                 *
     144              ;*   Total Frame Size   : 1 word                                               *
     145              ;*                        (1 return address/alignment)                         *
     146              ;*   Min System Stack   : 1 word                                               *
     147              ;*******************************************************************************
     148              
     149              ;*******************************************************************************
     150              ;*                                                                             *
     151              ;* Using -g (debug) with optimization (-o0) may disable key optimizations!     *
TMS320C55x Assembler PC v4.3.8 Fri Jan 21 01:13:25 2011

Tools Copyright (c) 1996-2010 Texas Instruments Incorporated
list.asm                                                             PAGE    4

     152              ;*                                                                             *
     153              ;*******************************************************************************
     154 00002d       _vListInitialiseItem:
     155              ;** 86  -----------------------    (*pxItem).pvContainer = NULL;
     156              ;**     -----------------------    return;
     157                      .dwcfi  cfa_offset, 1
     158                      .dwcfi  save_reg_to_mem, 91, -1
     159              ;* AR0   assigned to _pxItem
     160              $C$DW$7 .dwtag  DW_TAG_variable, DW_AT_name("pxItem")
     161                      .dwattr $C$DW$7, DW_AT_TI_symbol_name("_pxItem")
     162                      .dwattr $C$DW$7, DW_AT_type(*$C$DW$T$37)
     163                      .dwattr $C$DW$7, DW_AT_location[DW_OP_reg17]
     164                      .dwpsn  file "../FreeRTOS/Source/list.c",line 86,column 2,is_stmt
     165 00002d 3C00          AC0 = #0  ; |86| 
     166 00002f EB0D          dbl(*AR0(#8)) = AC0
         000031 0800 
         000033 08   
     167                      .dwpsn  file "../FreeRTOS/Source/list.c",line 87,column 1,is_stmt
     168              $C$DW$8 .dwtag  DW_TAG_TI_branch
     169                      .dwattr $C$DW$8, DW_AT_low_pc(0x00)
     170                      .dwattr $C$DW$8, DW_AT_TI_return
     171 000034 4804          return
     172                                                      ; return occurs
     173                      .dwattr $C$DW$5, DW_AT_TI_end_file("../FreeRTOS/Source/list.c")
     174                      .dwattr $C$DW$5, DW_AT_TI_end_line(0x57)
     175                      .dwattr $C$DW$5, DW_AT_TI_end_column(0x01)
     176                      .dwendentry
     177                      .dwendtag $C$DW$5
     178              
     179 000036               .sect   ".text"
     180                      .global _vListInsertEnd
     181              
     182              $C$DW$9 .dwtag  DW_TAG_subprogram, DW_AT_name("vListInsertEnd")
     183                      .dwattr $C$DW$9, DW_AT_low_pc(_vListInsertEnd)
     184                      .dwattr $C$DW$9, DW_AT_high_pc(0x00)
     185                      .dwattr $C$DW$9, DW_AT_TI_symbol_name("_vListInsertEnd")
     186                      .dwattr $C$DW$9, DW_AT_external
     187                      .dwattr $C$DW$9, DW_AT_TI_begin_file("../FreeRTOS/Source/list.c")
     188                      .dwattr $C$DW$9, DW_AT_TI_begin_line(0x5a)
     189                      .dwattr $C$DW$9, DW_AT_TI_begin_column(0x06)
     190                      .dwattr $C$DW$9, DW_AT_decl_file("../FreeRTOS/Source/list.c")
     191                      .dwattr $C$DW$9, DW_AT_decl_line(0x5a)
     192                      .dwattr $C$DW$9, DW_AT_decl_column(0x06)
     193                      .dwattr $C$DW$9, DW_AT_TI_max_frame_size(0x01)
     194                      .dwpsn  file "../FreeRTOS/Source/list.c",line 91,column 1,is_stmt,address _vListInsertEnd
     195              
     196                      .dwfde $C$DW$CIE, _vListInsertEnd
     197              $C$DW$10        .dwtag  DW_TAG_formal_parameter, DW_AT_name("pxList")
     198                      .dwattr $C$DW$10, DW_AT_TI_symbol_name("_pxList")
     199                      .dwattr $C$DW$10, DW_AT_type(*$C$DW$T$35)
     200                      .dwattr $C$DW$10, DW_AT_location[DW_OP_reg17]
     201              $C$DW$11        .dwtag  DW_TAG_formal_parameter, DW_AT_name("pxNewListItem")
     202                      .dwattr $C$DW$11, DW_AT_TI_symbol_name("_pxNewListItem")
     203                      .dwattr $C$DW$11, DW_AT_type(*$C$DW$T$37)
     204                      .dwattr $C$DW$11, DW_AT_location[DW_OP_reg19]
TMS320C55x Assembler PC v4.3.8 Fri Jan 21 01:13:25 2011

Tools Copyright (c) 1996-2010 Texas Instruments Incorporated
list.asm                                                             PAGE    5

     205              ;*******************************************************************************
     206              ;* FUNCTION NAME: vListInsertEnd                                               *
     207              ;*                                                                             *
     208              ;*   Function Uses Regs : AR0,XAR0,AR1,XAR1,AR2,XAR2,AR3,XAR3,SP,CARRY,M40,    *
     209              ;*                        SATA,SATD,RDM,FRCT,SMUL                              *
     210              ;*   Stack Frame        : Compact (No Frame Pointer, w/ debug)                 *
     211              ;*   Total Frame Size   : 1 word                                               *
     212              ;*                        (1 return address/alignment)                         *
     213              ;*   Min System Stack   : 1 word                                               *
     214              ;*******************************************************************************
     215              
     216              ;*******************************************************************************
     217              ;*                                                                             *
     218              ;* Using -g (debug) with optimization (-o0) may disable key optimizations!     *
     219              ;*                                                                             *
     220              ;*******************************************************************************
     221 000036       _vListInsertEnd:
     222              ;** 98  -----------------------    pxIndex = (*pxList).pxIndex;
     223              ;** 100 -----------------------    (*pxNewListItem).pxNext = (*pxIndex).pxNext;
     224              ;** 101 -----------------------    (*pxNewListItem).pxPrevious = (*pxList).pxIndex;
     225              ;** 102 -----------------------    (*(*pxIndex).pxNext).pxPrevious = pxNewListItem;
     226              ;** 103 -----------------------    (*pxIndex).pxNext = pxNewListItem;
     227              ;** 104 -----------------------    (*pxList).pxIndex = pxNewListItem;
     228              ;** 107 -----------------------    (*pxNewListItem).pvContainer = (void *)pxList;
     229              ;** 109 -----------------------    ++(*pxList).uxNumberOfItems;
     230              ;**     -----------------------    return;
     231                      .dwcfi  cfa_offset, 1
     232                      .dwcfi  save_reg_to_mem, 91, -1
     233              ;* AR3   assigned to _pxIndex
     234              $C$DW$12        .dwtag  DW_TAG_variable, DW_AT_name("pxIndex")
     235                      .dwattr $C$DW$12, DW_AT_TI_symbol_name("_pxIndex")
     236                      .dwattr $C$DW$12, DW_AT_type(*$C$DW$T$27)
     237                      .dwattr $C$DW$12, DW_AT_location[DW_OP_reg23]
     238              ;* AR1   assigned to _pxNewListItem
     239              $C$DW$13        .dwtag  DW_TAG_variable, DW_AT_name("pxNewListItem")
     240                      .dwattr $C$DW$13, DW_AT_TI_symbol_name("_pxNewListItem")
     241                      .dwattr $C$DW$13, DW_AT_type(*$C$DW$T$37)
     242                      .dwattr $C$DW$13, DW_AT_location[DW_OP_reg19]
     243              ;* AR0   assigned to _pxList
     244              $C$DW$14        .dwtag  DW_TAG_variable, DW_AT_name("pxList")
     245                      .dwattr $C$DW$14, DW_AT_TI_symbol_name("_pxList")
     246                      .dwattr $C$DW$14, DW_AT_type(*$C$DW$T$35)
     247                      .dwattr $C$DW$14, DW_AT_location[DW_OP_reg17]
     248                      .dwpsn  file "../FreeRTOS/Source/list.c",line 98,column 2,is_stmt
     249 000036 ED15          XAR3 = dbl(*AR0(short(#2)))
         000038 BF   
     250                      .dwpsn  file "../FreeRTOS/Source/list.c",line 100,column 2,is_stmt
     251 000039 ED75          XAR2 = dbl(*AR3(short(#2)))
         00003b AF   
     252 00003c EB35          dbl(*AR1(short(#2))) = XAR2
         00003e A5   
     253                      .dwpsn  file "../FreeRTOS/Source/list.c",line 101,column 2,is_stmt
     254 00003f ED15          XAR2 = dbl(*AR0(short(#2)))
         000041 AF   
     255 000042 EB39          dbl(*AR1(short(#4))) = XAR2
TMS320C55x Assembler PC v4.3.8 Fri Jan 21 01:13:25 2011

Tools Copyright (c) 1996-2010 Texas Instruments Incorporated
list.asm                                                             PAGE    6

         000044 A5   
     256                      .dwpsn  file "../FreeRTOS/Source/list.c",line 102,column 2,is_stmt
     257 000045 ED75          XAR2 = dbl(*AR3(short(#2)))
         000047 AF   
     258 000048 EB59          dbl(*AR2(short(#4))) = XAR1
         00004a 95   
     259                      .dwpsn  file "../FreeRTOS/Source/list.c",line 103,column 2,is_stmt
     260 00004b EB75          dbl(*AR3(short(#2))) = XAR1
         00004d 95   
     261                      .dwpsn  file "../FreeRTOS/Source/list.c",line 104,column 2,is_stmt
     262 00004e EB15          dbl(*AR0(short(#2))) = XAR1
         000050 95   
     263                      .dwpsn  file "../FreeRTOS/Source/list.c",line 107,column 2,is_stmt
     264 000051 EB2D          dbl(*AR1(#8)) = XAR0
         000053 8500 
         000055 08   
     265                      .dwpsn  file "../FreeRTOS/Source/list.c",line 109,column 2,is_stmt
     266 000056 F701          *AR0 = *AR0 + #1 ; |109| 
         000058 0001 
     267                      .dwpsn  file "../FreeRTOS/Source/list.c",line 110,column 1,is_stmt
     268              $C$DW$15        .dwtag  DW_TAG_TI_branch
     269                      .dwattr $C$DW$15, DW_AT_low_pc(0x00)
     270                      .dwattr $C$DW$15, DW_AT_TI_return
     271 00005a 4804          return
     272                                                      ; return occurs
     273                      .dwattr $C$DW$9, DW_AT_TI_end_file("../FreeRTOS/Source/list.c")
     274                      .dwattr $C$DW$9, DW_AT_TI_end_line(0x6e)
     275                      .dwattr $C$DW$9, DW_AT_TI_end_column(0x01)
     276                      .dwendentry
     277                      .dwendtag $C$DW$9
     278              
     279 00005c               .sect   ".text"
     280                      .global _vListInsert
     281              
     282              $C$DW$16        .dwtag  DW_TAG_subprogram, DW_AT_name("vListInsert")
     283                      .dwattr $C$DW$16, DW_AT_low_pc(_vListInsert)
     284                      .dwattr $C$DW$16, DW_AT_high_pc(0x00)
     285                      .dwattr $C$DW$16, DW_AT_TI_symbol_name("_vListInsert")
     286                      .dwattr $C$DW$16, DW_AT_external
     287                      .dwattr $C$DW$16, DW_AT_TI_begin_file("../FreeRTOS/Source/list.c")
     288                      .dwattr $C$DW$16, DW_AT_TI_begin_line(0x71)
     289                      .dwattr $C$DW$16, DW_AT_TI_begin_column(0x06)
     290                      .dwattr $C$DW$16, DW_AT_decl_file("../FreeRTOS/Source/list.c")
     291                      .dwattr $C$DW$16, DW_AT_decl_line(0x71)
     292                      .dwattr $C$DW$16, DW_AT_decl_column(0x06)
     293                      .dwattr $C$DW$16, DW_AT_TI_max_frame_size(0x01)
     294                      .dwpsn  file "../FreeRTOS/Source/list.c",line 114,column 1,is_stmt,address _vListInsert
     295              
     296                      .dwfde $C$DW$CIE, _vListInsert
     297              $C$DW$17        .dwtag  DW_TAG_formal_parameter, DW_AT_name("pxList")
     298                      .dwattr $C$DW$17, DW_AT_TI_symbol_name("_pxList")
     299                      .dwattr $C$DW$17, DW_AT_type(*$C$DW$T$35)
     300                      .dwattr $C$DW$17, DW_AT_location[DW_OP_reg17]
     301              $C$DW$18        .dwtag  DW_TAG_formal_parameter, DW_AT_name("pxNewListItem")
     302                      .dwattr $C$DW$18, DW_AT_TI_symbol_name("_pxNewListItem")
TMS320C55x Assembler PC v4.3.8 Fri Jan 21 01:13:25 2011

Tools Copyright (c) 1996-2010 Texas Instruments Incorporated
list.asm                                                             PAGE    7

     303                      .dwattr $C$DW$18, DW_AT_type(*$C$DW$T$37)
     304                      .dwattr $C$DW$18, DW_AT_location[DW_OP_reg19]
     305              ;*******************************************************************************
     306              ;* FUNCTION NAME: vListInsert                                                  *
     307              ;*                                                                             *
     308              ;*   Function Uses Regs : AC0,AC0,AC1,AC1,AR0,XAR0,AR1,XAR1,AR2,XAR2,AR3,XAR3, *
     309              ;*                        SP,CARRY,TC1,M40,SATA,SATD,RDM,FRCT,SMUL             *
     310              ;*   Stack Frame        : Compact (No Frame Pointer, w/ debug)                 *
     311              ;*   Total Frame Size   : 1 word                                               *
     312              ;*                        (1 return address/alignment)                         *
     313              ;*   Min System Stack   : 1 word                                               *
     314              ;*******************************************************************************
     315              
     316              ;*******************************************************************************
     317              ;*                                                                             *
     318              ;* Using -g (debug) with optimization (-o0) may disable key optimizations!     *
     319              ;*                                                                             *
     320              ;*******************************************************************************
     321 00005c       _vListInsert:
     322              ;** 119 -----------------------    if ( (xValueOfInsertion = (*pxNewListItem).xItemValue) == 0xffffffffuL ) g
     323                      .dwcfi  cfa_offset, 1
     324                      .dwcfi  save_reg_to_mem, 91, -1
     325              ;* AC1   assigned to _xValueOfInsertion
     326              $C$DW$19        .dwtag  DW_TAG_variable, DW_AT_name("xValueOfInsertion")
     327                      .dwattr $C$DW$19, DW_AT_TI_symbol_name("_xValueOfInsertion")
     328                      .dwattr $C$DW$19, DW_AT_type(*$C$DW$T$19)
     329                      .dwattr $C$DW$19, DW_AT_location[DW_OP_reg3]
     330              ;* AR3   assigned to _pxIterator
     331              $C$DW$20        .dwtag  DW_TAG_variable, DW_AT_name("pxIterator")
     332                      .dwattr $C$DW$20, DW_AT_TI_symbol_name("_pxIterator")
     333                      .dwattr $C$DW$20, DW_AT_type(*$C$DW$T$27)
     334                      .dwattr $C$DW$20, DW_AT_location[DW_OP_reg23]
     335              ;* AR1   assigned to _pxNewListItem
     336              $C$DW$21        .dwtag  DW_TAG_variable, DW_AT_name("pxNewListItem")
     337                      .dwattr $C$DW$21, DW_AT_TI_symbol_name("_pxNewListItem")
     338                      .dwattr $C$DW$21, DW_AT_type(*$C$DW$T$37)
     339                      .dwattr $C$DW$21, DW_AT_location[DW_OP_reg19]
     340              ;* AR0   assigned to _pxList
     341              $C$DW$22        .dwtag  DW_TAG_variable, DW_AT_name("pxList")
     342                      .dwattr $C$DW$22, DW_AT_TI_symbol_name("_pxList")
     343                      .dwattr $C$DW$22, DW_AT_type(*$C$DW$T$35)
     344                      .dwattr $C$DW$22, DW_AT_location[DW_OP_reg17]
     345                      .dwpsn  file "../FreeRTOS/Source/list.c",line 119,column 2,is_stmt
     346 00005c 7AFF          AC0 = #-1 << #16 ; |119| 
         00005e FF0A 
     347 000060 ED21          AC1 = dbl(*AR1) ; |119| 
         000062 18   
     348 000063 7EFF          AC0 = AC0 | #0xffff ; |119| 
         000065 FF00 
     349 000067 1210          TC1 = uns(AC1 == AC0) ; |119| 
         000069 04   
     350 00006a 0464          if (TC1) goto $C$L2 ; |119| 
         00006c 23   
     351                                                      ; branchcc occurs ; |119| 
     352              ;** 150 -----------------------    pxIterator = (volatile struct _xLIST_ITEM *)((volatile struct _xMINI_LIST_
TMS320C55x Assembler PC v4.3.8 Fri Jan 21 01:13:25 2011

Tools Copyright (c) 1996-2010 Texas Instruments Incorporated
list.asm                                                             PAGE    8

     353              ;** 150 -----------------------    if ( (*(*pxIterator).pxNext).xItemValue > xValueOfInsertion ) goto g5;
     354                      .dwpsn  file "../FreeRTOS/Source/list.c",line 150,column 8,is_stmt
     355 00006d EC01          XAR3 = mar(*AR0)
         00006f BE   
     356 000070 1404          mar(AR3 + #4) ; |150| 
         000072 B4   
     357                      .dwpsn  file "../FreeRTOS/Source/list.c",line 150,column 60,is_stmt
     358 000073 ED75          XAR2 = dbl(*AR3(short(#2)))
         000075 AF   
     359 000076 ED41          AC0 = dbl(*AR2) ; |150| 
         000078 08   
     360 000079 1214          TC1 = uns(AC0 > AC1) ; |150| 
         00007b 04   
     361 00007c 0464          if (TC1) goto $C$L3 ; |150| 
         00007e 16   
     362                                                      ; branchcc occurs ; |150| 
     363 00007f       $C$L1:    
     364 00007f       $C$DW$L$_vListInsert$3$B:
     365              ;**     -----------------------g3:
     366              ;** 150 -----------------------    pxIterator = (*pxIterator).pxNext;
     367              ;** 150 -----------------------    if ( (*(*pxIterator).pxNext).xItemValue <= xValueOfInsertion ) goto g3;
     368                      .dwpsn  file "../FreeRTOS/Source/list.c",line 150,column 113,is_stmt
     369 00007f ED75          XAR3 = dbl(*AR3(short(#2)))
         000081 BF   
     370                      .dwpsn  file "../FreeRTOS/Source/list.c",line 150,column 60,is_stmt
     371 000082 ED75          XAR2 = dbl(*AR3(short(#2)))
         000084 AF   
     372 000085 ED41          AC0 = dbl(*AR2) ; |150| 
         000087 08   
     373 000088 1218          TC1 = uns(AC0 <= AC1) ; |150| 
         00008a 04   
     374 00008b 0464          if (TC1) goto $C$L1 ; |150| 
         00008d F1   
     375                                                      ; branchcc occurs ; |150| 
     376 00008e       $C$DW$L$_vListInsert$3$E:
     377              ;** 150 -----------------------    goto g5;
     378 00008e 4A05          goto $C$L3 ; |150| 
     379                                                      ; branch occurs ; |150| 
     380 000090       $C$L2:    
     381              ;**     -----------------------g4:
     382              ;** 130 -----------------------    pxIterator = (*pxList).xListEnd.pxPrevious;
     383                      .dwpsn  file "../FreeRTOS/Source/list.c",line 130,column 3,is_stmt
     384 000090 ED0D          XAR3 = dbl(*AR0(#8))
         000092 BF00 
         000094 08   
     385 000095       $C$L3:    
     386              ;**     -----------------------g5:
     387              ;** 157 -----------------------    (*pxNewListItem).pxNext = (*pxIterator).pxNext;
     388              ;** 158 -----------------------    (*(*pxNewListItem).pxNext).pxPrevious = pxNewListItem;
     389              ;** 159 -----------------------    (*pxNewListItem).pxPrevious = pxIterator;
     390              ;** 160 -----------------------    (*pxIterator).pxNext = pxNewListItem;
     391              ;** 164 -----------------------    (*pxNewListItem).pvContainer = (void *)pxList;
     392              ;** 166 -----------------------    ++(*pxList).uxNumberOfItems;
     393              ;**     -----------------------    return;
     394                      .dwpsn  file "../FreeRTOS/Source/list.c",line 157,column 2,is_stmt
TMS320C55x Assembler PC v4.3.8 Fri Jan 21 01:13:25 2011

Tools Copyright (c) 1996-2010 Texas Instruments Incorporated
list.asm                                                             PAGE    9

     395 000095 ED75          XAR2 = dbl(*AR3(short(#2)))
         000097 AF   
     396 000098 EB35          dbl(*AR1(short(#2))) = XAR2
         00009a A5   
     397                      .dwpsn  file "../FreeRTOS/Source/list.c",line 158,column 2,is_stmt
     398 00009b ED35          XAR2 = dbl(*AR1(short(#2)))
         00009d AF   
     399 00009e EB59          dbl(*AR2(short(#4))) = XAR1
         0000a0 95   
     400                      .dwpsn  file "../FreeRTOS/Source/list.c",line 159,column 2,is_stmt
     401 0000a1 EB39          dbl(*AR1(short(#4))) = XAR3
         0000a3 B5   
     402                      .dwpsn  file "../FreeRTOS/Source/list.c",line 160,column 2,is_stmt
     403 0000a4 EB75          dbl(*AR3(short(#2))) = XAR1
         0000a6 95   
     404                      .dwpsn  file "../FreeRTOS/Source/list.c",line 164,column 2,is_stmt
     405 0000a7 EB2D          dbl(*AR1(#8)) = XAR0
         0000a9 8500 
         0000ab 08   
     406                      .dwpsn  file "../FreeRTOS/Source/list.c",line 166,column 2,is_stmt
     407 0000ac F701          *AR0 = *AR0 + #1 ; |166| 
         0000ae 0001 
     408                      .dwpsn  file "../FreeRTOS/Source/list.c",line 167,column 1,is_stmt
     409              $C$DW$23        .dwtag  DW_TAG_TI_branch
     410                      .dwattr $C$DW$23, DW_AT_low_pc(0x00)
     411                      .dwattr $C$DW$23, DW_AT_TI_return
     412 0000b0 4804          return
     413                                                      ; return occurs
     414              
     415              $C$DW$24        .dwtag  DW_TAG_TI_loop
     416                      .dwattr $C$DW$24, DW_AT_name("E:\temp\c5515_eZdsp_FreeRTOS_Demo\EZDSP_Sample\Debug\list.asm:$C$L1:1:1
     417                      .dwattr $C$DW$24, DW_AT_TI_begin_file("../FreeRTOS/Source/list.c")
     418                      .dwattr $C$DW$24, DW_AT_TI_begin_line(0x96)
     419                      .dwattr $C$DW$24, DW_AT_TI_end_line(0x9a)
     420              $C$DW$25        .dwtag  DW_TAG_TI_loop_range
     421                      .dwattr $C$DW$25, DW_AT_low_pc($C$DW$L$_vListInsert$3$B)
     422                      .dwattr $C$DW$25, DW_AT_high_pc($C$DW$L$_vListInsert$3$E)
     423                      .dwendtag $C$DW$24
     424              
     425                      .dwattr $C$DW$16, DW_AT_TI_end_file("../FreeRTOS/Source/list.c")
     426                      .dwattr $C$DW$16, DW_AT_TI_end_line(0xa7)
     427                      .dwattr $C$DW$16, DW_AT_TI_end_column(0x01)
     428                      .dwendentry
     429                      .dwendtag $C$DW$16
     430              
     431 0000b2               .sect   ".text"
     432                      .global _vListRemove
     433              
     434              $C$DW$26        .dwtag  DW_TAG_subprogram, DW_AT_name("vListRemove")
     435                      .dwattr $C$DW$26, DW_AT_low_pc(_vListRemove)
     436                      .dwattr $C$DW$26, DW_AT_high_pc(0x00)
     437                      .dwattr $C$DW$26, DW_AT_TI_symbol_name("_vListRemove")
     438                      .dwattr $C$DW$26, DW_AT_external
     439                      .dwattr $C$DW$26, DW_AT_TI_begin_file("../FreeRTOS/Source/list.c")
     440                      .dwattr $C$DW$26, DW_AT_TI_begin_line(0xaa)
TMS320C55x Assembler PC v4.3.8 Fri Jan 21 01:13:25 2011

Tools Copyright (c) 1996-2010 Texas Instruments Incorporated
list.asm                                                             PAGE   10

     441                      .dwattr $C$DW$26, DW_AT_TI_begin_column(0x06)
     442                      .dwattr $C$DW$26, DW_AT_decl_file("../FreeRTOS/Source/list.c")
     443                      .dwattr $C$DW$26, DW_AT_decl_line(0xaa)
     444                      .dwattr $C$DW$26, DW_AT_decl_column(0x06)
     445                      .dwattr $C$DW$26, DW_AT_TI_max_frame_size(0x01)
     446                      .dwpsn  file "../FreeRTOS/Source/list.c",line 171,column 1,is_stmt,address _vListRemove
     447              
     448                      .dwfde $C$DW$CIE, _vListRemove
     449              $C$DW$27        .dwtag  DW_TAG_formal_parameter, DW_AT_name("pxItemToRemove")
     450                      .dwattr $C$DW$27, DW_AT_TI_symbol_name("_pxItemToRemove")
     451                      .dwattr $C$DW$27, DW_AT_type(*$C$DW$T$37)
     452                      .dwattr $C$DW$27, DW_AT_location[DW_OP_reg17]
     453              ;*******************************************************************************
     454              ;* FUNCTION NAME: vListRemove                                                  *
     455              ;*                                                                             *
     456              ;*   Function Uses Regs : AC0,AC0,AC1,AC1,AC2,AC2,AR0,XAR0,AR2,XAR2,AR3,XAR3,  *
     457              ;*                        SP,CARRY,TC1,M40,SATA,SATD,RDM,FRCT,SMUL             *
     458              ;*   Stack Frame        : Compact (No Frame Pointer, w/ debug)                 *
     459              ;*   Total Frame Size   : 1 word                                               *
     460              ;*                        (1 return address/alignment)                         *
     461              ;*   Min System Stack   : 1 word                                               *
     462              ;*******************************************************************************
     463              
     464              ;*******************************************************************************
     465              ;*                                                                             *
     466              ;* Using -g (debug) with optimization (-o0) may disable key optimizations!     *
     467              ;*                                                                             *
     468              ;*******************************************************************************
     469 0000b2       _vListRemove:
     470              ;** 174 -----------------------    (*(*pxItemToRemove).pxNext).pxPrevious = (*pxItemToRemove).pxPrevious;
     471              ;** 175 -----------------------    (*(*pxItemToRemove).pxPrevious).pxNext = (*pxItemToRemove).pxNext;
     472              ;** 179 -----------------------    pxList = (struct _xLIST *)(*pxItemToRemove).pvContainer;
     473              ;** 182 -----------------------    if ( (*pxList).pxIndex != pxItemToRemove ) goto g3;
     474                      .dwcfi  cfa_offset, 1
     475                      .dwcfi  save_reg_to_mem, 91, -1
     476              ;* AR3   assigned to _pxList
     477              $C$DW$28        .dwtag  DW_TAG_variable, DW_AT_name("pxList")
     478                      .dwattr $C$DW$28, DW_AT_TI_symbol_name("_pxList")
     479                      .dwattr $C$DW$28, DW_AT_type(*$C$DW$T$35)
     480                      .dwattr $C$DW$28, DW_AT_location[DW_OP_reg23]
     481              ;* AC0   assigned to _pxItemToRemove
     482              $C$DW$29        .dwtag  DW_TAG_variable, DW_AT_name("pxItemToRemove")
     483                      .dwattr $C$DW$29, DW_AT_TI_symbol_name("_pxItemToRemove")
     484                      .dwattr $C$DW$29, DW_AT_type(*$C$DW$T$37)
     485                      .dwattr $C$DW$29, DW_AT_location[DW_OP_reg1]
     486 0000b2 9080          AC0 = XAR0
     487                      .dwpsn  file "../FreeRTOS/Source/list.c",line 174,column 2,is_stmt
     488 0000b4 900B          XAR3 = AC0
     489 0000b6 ED79          XAR2 = dbl(*AR3(short(#4)))
         0000b8 AF   
     490 0000b9 ED75          XAR3 = dbl(*AR3(short(#2)))
         0000bb BF   
     491 0000bc EB79          dbl(*AR3(short(#4))) = XAR2
         0000be A5   
     492                      .dwpsn  file "../FreeRTOS/Source/list.c",line 175,column 2,is_stmt
TMS320C55x Assembler PC v4.3.8 Fri Jan 21 01:13:25 2011

Tools Copyright (c) 1996-2010 Texas Instruments Incorporated
list.asm                                                             PAGE   11

     493 0000bf 900B          XAR3 = AC0
     494 0000c1 ED75          XAR2 = dbl(*AR3(short(#2)))
         0000c3 AF   
     495 0000c4 ED79          XAR3 = dbl(*AR3(short(#4)))
         0000c6 BF   
     496 0000c7 EB75          dbl(*AR3(short(#2))) = XAR2
         0000c9 A5   
     497                      .dwpsn  file "../FreeRTOS/Source/list.c",line 179,column 2,is_stmt
     498 0000ca 900B          XAR3 = AC0
     499 0000cc ED6D          XAR3 = dbl(*AR3(#8))
         0000ce BF00 
         0000d0 08   
     500                      .dwpsn  file "../FreeRTOS/Source/list.c",line 182,column 2,is_stmt
     501 0000d1 1A00          AC2 = AC0 | #0
         0000d3 20   
     502 0000d4 ED75          XAR2 = dbl(*AR3(short(#2)))
         0000d6 AF   
     503 0000d7 90A1          AC1 = XAR2
     504 0000d9 121C          TC1 = uns(AC1 != AC2) ; |182| 
         0000db 24   
     505 0000dc 6464          if (TC1) goto $C$L4 ; |182| 
     506                                                      ; branchcc occurs ; |182| 
     507              ;** 184 -----------------------    (*pxList).pxIndex = (*pxItemToRemove).pxPrevious;
     508                      .dwpsn  file "../FreeRTOS/Source/list.c",line 184,column 3,is_stmt
     509 0000de 900A          XAR2 = AC0
     510 0000e0 ED59          XAR2 = dbl(*AR2(short(#4)))
         0000e2 AF   
     511 0000e3 EB75          dbl(*AR3(short(#2))) = XAR2
         0000e5 A5   
     512 0000e6       $C$L4:    
     513              ;**     -----------------------g3:
     514              ;** 187 -----------------------    (*pxItemToRemove).pvContainer = NULL;
     515              ;** 188 -----------------------    --(*pxList).uxNumberOfItems;
     516              ;**     -----------------------    return;
     517                      .dwpsn  file "../FreeRTOS/Source/list.c",line 187,column 2,is_stmt
     518 0000e6 900A          XAR2 = AC0
     519 0000e8 3C01          AC1 = #0  ; |187| 
     520 0000ea EB4D          dbl(*AR2(#8)) = AC1
         0000ec 1800 
         0000ee 08   
     521                      .dwpsn  file "../FreeRTOS/Source/list.c",line 188,column 2,is_stmt
     522 0000ef F761          *AR3 = *AR3 - #1 ; |188| 
         0000f1 FFFF 
     523                      .dwpsn  file "../FreeRTOS/Source/list.c",line 189,column 1,is_stmt
     524              $C$DW$30        .dwtag  DW_TAG_TI_branch
     525                      .dwattr $C$DW$30, DW_AT_low_pc(0x00)
     526                      .dwattr $C$DW$30, DW_AT_TI_return
     527 0000f3 4804          return
     528                                                      ; return occurs
     529                      .dwattr $C$DW$26, DW_AT_TI_end_file("../FreeRTOS/Source/list.c")
     530                      .dwattr $C$DW$26, DW_AT_TI_end_line(0xbd)
     531                      .dwattr $C$DW$26, DW_AT_TI_end_column(0x01)
     532                      .dwendentry
     533                      .dwendtag $C$DW$26
     534              
TMS320C55x Assembler PC v4.3.8 Fri Jan 21 01:13:25 2011

Tools Copyright (c) 1996-2010 Texas Instruments Incorporated
list.asm                                                             PAGE   12

     535              
     536              ;*******************************************************************************
     537              ;* TYPE INFORMATION                                                            *
     538              ;*******************************************************************************
     539              $C$DW$T$3       .dwtag  DW_TAG_pointer_type
     540                      .dwattr $C$DW$T$3, DW_AT_address_class(0x17)
     541              
     542              $C$DW$T$40      .dwtag  DW_TAG_subroutine_type
     543                      .dwattr $C$DW$T$40, DW_AT_language(DW_LANG_C)
     544              $C$DW$31        .dwtag  DW_TAG_formal_parameter
     545                      .dwattr $C$DW$31, DW_AT_type(*$C$DW$T$3)
     546                      .dwendtag $C$DW$T$40
     547              
     548              $C$DW$T$41      .dwtag  DW_TAG_pointer_type
     549                      .dwattr $C$DW$T$41, DW_AT_type(*$C$DW$T$40)
     550                      .dwattr $C$DW$T$41, DW_AT_address_class(0x20)
     551              $C$DW$T$42      .dwtag  DW_TAG_typedef, DW_AT_name("pdTASK_CODE")
     552                      .dwattr $C$DW$T$42, DW_AT_type(*$C$DW$T$41)
     553                      .dwattr $C$DW$T$42, DW_AT_language(DW_LANG_C)
     554                      .dwattr $C$DW$T$42, DW_AT_decl_file("E:\temp\c5515_eZdsp_FreeRTOS_Demo\EZDSP_Sample\FreeRTOS\Source\i
     555                      .dwattr $C$DW$T$42, DW_AT_decl_line(0x3a)
     556                      .dwattr $C$DW$T$42, DW_AT_decl_column(0x10)
     557              $C$DW$T$4       .dwtag  DW_TAG_base_type
     558                      .dwattr $C$DW$T$4, DW_AT_encoding(DW_ATE_boolean)
     559                      .dwattr $C$DW$T$4, DW_AT_name("bool")
     560                      .dwattr $C$DW$T$4, DW_AT_byte_size(0x01)
     561              $C$DW$T$5       .dwtag  DW_TAG_base_type
     562                      .dwattr $C$DW$T$5, DW_AT_encoding(DW_ATE_signed_char)
     563                      .dwattr $C$DW$T$5, DW_AT_name("signed char")
     564                      .dwattr $C$DW$T$5, DW_AT_byte_size(0x01)
     565              $C$DW$T$6       .dwtag  DW_TAG_base_type
     566                      .dwattr $C$DW$T$6, DW_AT_encoding(DW_ATE_unsigned_char)
     567                      .dwattr $C$DW$T$6, DW_AT_name("unsigned char")
     568                      .dwattr $C$DW$T$6, DW_AT_byte_size(0x01)
     569              $C$DW$T$7       .dwtag  DW_TAG_base_type
     570                      .dwattr $C$DW$T$7, DW_AT_encoding(DW_ATE_signed_char)
     571                      .dwattr $C$DW$T$7, DW_AT_name("wchar_t")
     572                      .dwattr $C$DW$T$7, DW_AT_byte_size(0x01)
     573              $C$DW$T$8       .dwtag  DW_TAG_base_type
     574                      .dwattr $C$DW$T$8, DW_AT_encoding(DW_ATE_signed)
     575                      .dwattr $C$DW$T$8, DW_AT_name("short")
     576                      .dwattr $C$DW$T$8, DW_AT_byte_size(0x01)
     577              $C$DW$T$9       .dwtag  DW_TAG_base_type
     578                      .dwattr $C$DW$T$9, DW_AT_encoding(DW_ATE_unsigned)
     579                      .dwattr $C$DW$T$9, DW_AT_name("unsigned short")
     580                      .dwattr $C$DW$T$9, DW_AT_byte_size(0x01)
     581              $C$DW$T$10      .dwtag  DW_TAG_base_type
     582                      .dwattr $C$DW$T$10, DW_AT_encoding(DW_ATE_signed)
     583                      .dwattr $C$DW$T$10, DW_AT_name("int")
     584                      .dwattr $C$DW$T$10, DW_AT_byte_size(0x01)
     585              
     586              $C$DW$T$43      .dwtag  DW_TAG_subroutine_type
     587                      .dwattr $C$DW$T$43, DW_AT_type(*$C$DW$T$10)
     588                      .dwattr $C$DW$T$43, DW_AT_language(DW_LANG_C)
     589              $C$DW$32        .dwtag  DW_TAG_formal_parameter
TMS320C55x Assembler PC v4.3.8 Fri Jan 21 01:13:25 2011

Tools Copyright (c) 1996-2010 Texas Instruments Incorporated
list.asm                                                             PAGE   13

     590                      .dwattr $C$DW$32, DW_AT_type(*$C$DW$T$3)
     591                      .dwendtag $C$DW$T$43
     592              
     593              $C$DW$T$44      .dwtag  DW_TAG_pointer_type
     594                      .dwattr $C$DW$T$44, DW_AT_type(*$C$DW$T$43)
     595                      .dwattr $C$DW$T$44, DW_AT_address_class(0x20)
     596              $C$DW$T$45      .dwtag  DW_TAG_typedef, DW_AT_name("pdTASK_HOOK_CODE")
     597                      .dwattr $C$DW$T$45, DW_AT_type(*$C$DW$T$44)
     598                      .dwattr $C$DW$T$45, DW_AT_language(DW_LANG_C)
     599                      .dwattr $C$DW$T$45, DW_AT_decl_file("E:/temp/c5515_eZdsp_FreeRTOS_Demo/EZDSP_Sample/FreeRTOS/Source/i
     600                      .dwattr $C$DW$T$45, DW_AT_decl_line(0x4b)
     601                      .dwattr $C$DW$T$45, DW_AT_decl_column(0x19)
     602              $C$DW$T$11      .dwtag  DW_TAG_base_type
     603                      .dwattr $C$DW$T$11, DW_AT_encoding(DW_ATE_unsigned)
     604                      .dwattr $C$DW$T$11, DW_AT_name("unsigned int")
     605                      .dwattr $C$DW$T$11, DW_AT_byte_size(0x01)
     606              $C$DW$33        .dwtag  DW_TAG_TI_far_type
     607                      .dwattr $C$DW$33, DW_AT_type(*$C$DW$T$11)
     608              $C$DW$T$24      .dwtag  DW_TAG_volatile_type
     609                      .dwattr $C$DW$T$24, DW_AT_type(*$C$DW$33)
     610              $C$DW$T$46      .dwtag  DW_TAG_typedef, DW_AT_name("wchar_t")
     611                      .dwattr $C$DW$T$46, DW_AT_type(*$C$DW$T$11)
     612                      .dwattr $C$DW$T$46, DW_AT_language(DW_LANG_C)
     613                      .dwattr $C$DW$T$46, DW_AT_decl_file("C:/Texas Instruments Tools/ccsv4/tools/compiler/C5500 Code Gener
     614                      .dwattr $C$DW$T$46, DW_AT_decl_line(0x27)
     615                      .dwattr $C$DW$T$46, DW_AT_decl_column(0x1a)
     616              $C$DW$T$12      .dwtag  DW_TAG_base_type
     617                      .dwattr $C$DW$T$12, DW_AT_encoding(DW_ATE_signed)
     618                      .dwattr $C$DW$T$12, DW_AT_name("long")
     619                      .dwattr $C$DW$T$12, DW_AT_byte_size(0x02)
     620              $C$DW$T$47      .dwtag  DW_TAG_typedef, DW_AT_name("ptrdiff_t")
     621                      .dwattr $C$DW$T$47, DW_AT_type(*$C$DW$T$12)
     622                      .dwattr $C$DW$T$47, DW_AT_language(DW_LANG_C)
     623                      .dwattr $C$DW$T$47, DW_AT_decl_file("C:/Texas Instruments Tools/ccsv4/tools/compiler/C5500 Code Gener
     624                      .dwattr $C$DW$T$47, DW_AT_decl_line(0x11)
     625                      .dwattr $C$DW$T$47, DW_AT_decl_column(0x1c)
     626              $C$DW$T$13      .dwtag  DW_TAG_base_type
     627                      .dwattr $C$DW$T$13, DW_AT_encoding(DW_ATE_unsigned)
     628                      .dwattr $C$DW$T$13, DW_AT_name("unsigned long")
     629                      .dwattr $C$DW$T$13, DW_AT_byte_size(0x02)
     630              $C$DW$T$19      .dwtag  DW_TAG_typedef, DW_AT_name("portTickType")
     631                      .dwattr $C$DW$T$19, DW_AT_type(*$C$DW$T$13)
     632                      .dwattr $C$DW$T$19, DW_AT_language(DW_LANG_C)
     633                      .dwattr $C$DW$T$19, DW_AT_decl_file("E:\temp\c5515_eZdsp_FreeRTOS_Demo\EZDSP_Sample\FreeRTOS\Source\i
     634                      .dwattr $C$DW$T$19, DW_AT_decl_line(0x55)
     635                      .dwattr $C$DW$T$19, DW_AT_decl_column(0x1c)
     636              $C$DW$T$48      .dwtag  DW_TAG_typedef, DW_AT_name("size_t")
     637                      .dwattr $C$DW$T$48, DW_AT_type(*$C$DW$T$13)
     638                      .dwattr $C$DW$T$48, DW_AT_language(DW_LANG_C)
     639                      .dwattr $C$DW$T$48, DW_AT_decl_file("C:/Texas Instruments Tools/ccsv4/tools/compiler/C5500 Code Gener
     640                      .dwattr $C$DW$T$48, DW_AT_decl_line(0x21)
     641                      .dwattr $C$DW$T$48, DW_AT_decl_column(0x19)
     642              $C$DW$T$14      .dwtag  DW_TAG_base_type
     643                      .dwattr $C$DW$T$14, DW_AT_encoding(DW_ATE_signed)
     644                      .dwattr $C$DW$T$14, DW_AT_name("long long")
TMS320C55x Assembler PC v4.3.8 Fri Jan 21 01:13:25 2011

Tools Copyright (c) 1996-2010 Texas Instruments Incorporated
list.asm                                                             PAGE   14

     645                      .dwattr $C$DW$T$14, DW_AT_byte_size(0x04)
     646                      .dwattr $C$DW$T$14, DW_AT_bit_size(0x28)
     647                      .dwattr $C$DW$T$14, DW_AT_bit_offset(0x18)
     648              $C$DW$T$15      .dwtag  DW_TAG_base_type
     649                      .dwattr $C$DW$T$15, DW_AT_encoding(DW_ATE_unsigned)
     650                      .dwattr $C$DW$T$15, DW_AT_name("unsigned long long")
     651                      .dwattr $C$DW$T$15, DW_AT_byte_size(0x04)
     652                      .dwattr $C$DW$T$15, DW_AT_bit_size(0x28)
     653                      .dwattr $C$DW$T$15, DW_AT_bit_offset(0x18)
     654              $C$DW$T$16      .dwtag  DW_TAG_base_type
     655                      .dwattr $C$DW$T$16, DW_AT_encoding(DW_ATE_float)
     656                      .dwattr $C$DW$T$16, DW_AT_name("float")
     657                      .dwattr $C$DW$T$16, DW_AT_byte_size(0x02)
     658              $C$DW$T$17      .dwtag  DW_TAG_base_type
     659                      .dwattr $C$DW$T$17, DW_AT_encoding(DW_ATE_float)
     660                      .dwattr $C$DW$T$17, DW_AT_name("double")
     661                      .dwattr $C$DW$T$17, DW_AT_byte_size(0x02)
     662              $C$DW$T$18      .dwtag  DW_TAG_base_type
     663                      .dwattr $C$DW$T$18, DW_AT_encoding(DW_ATE_float)
     664                      .dwattr $C$DW$T$18, DW_AT_name("long double")
     665                      .dwattr $C$DW$T$18, DW_AT_byte_size(0x02)
     666              
     667              $C$DW$T$22      .dwtag  DW_TAG_structure_type
     668                      .dwattr $C$DW$T$22, DW_AT_name("xLIST_ITEM")
     669                      .dwattr $C$DW$T$22, DW_AT_byte_size(0x0a)
     670              $C$DW$34        .dwtag  DW_TAG_member
     671                      .dwattr $C$DW$34, DW_AT_type(*$C$DW$T$19)
     672                      .dwattr $C$DW$34, DW_AT_name("xItemValue")
     673                      .dwattr $C$DW$34, DW_AT_TI_symbol_name("_xItemValue")
     674                      .dwattr $C$DW$34, DW_AT_data_member_location[DW_OP_plus_uconst 0x0]
     675                      .dwattr $C$DW$34, DW_AT_accessibility(DW_ACCESS_public)
     676                      .dwattr $C$DW$34, DW_AT_decl_file("E:/temp/c5515_eZdsp_FreeRTOS_Demo/EZDSP_Sample/FreeRTOS/Source/inc
     677                      .dwattr $C$DW$34, DW_AT_decl_line(0x64)
     678                      .dwattr $C$DW$34, DW_AT_decl_column(0x0f)
     679              $C$DW$35        .dwtag  DW_TAG_member
     680                      .dwattr $C$DW$35, DW_AT_type(*$C$DW$T$21)
     681                      .dwattr $C$DW$35, DW_AT_name("pxNext")
     682                      .dwattr $C$DW$35, DW_AT_TI_symbol_name("_pxNext")
     683                      .dwattr $C$DW$35, DW_AT_data_member_location[DW_OP_plus_uconst 0x2]
     684                      .dwattr $C$DW$35, DW_AT_accessibility(DW_ACCESS_public)
     685                      .dwattr $C$DW$35, DW_AT_decl_file("E:/temp/c5515_eZdsp_FreeRTOS_Demo/EZDSP_Sample/FreeRTOS/Source/inc
     686                      .dwattr $C$DW$35, DW_AT_decl_line(0x65)
     687                      .dwattr $C$DW$35, DW_AT_decl_column(0x1f)
     688              $C$DW$36        .dwtag  DW_TAG_member
     689                      .dwattr $C$DW$36, DW_AT_type(*$C$DW$T$21)
     690                      .dwattr $C$DW$36, DW_AT_name("pxPrevious")
     691                      .dwattr $C$DW$36, DW_AT_TI_symbol_name("_pxPrevious")
     692                      .dwattr $C$DW$36, DW_AT_data_member_location[DW_OP_plus_uconst 0x4]
     693                      .dwattr $C$DW$36, DW_AT_accessibility(DW_ACCESS_public)
     694                      .dwattr $C$DW$36, DW_AT_decl_file("E:/temp/c5515_eZdsp_FreeRTOS_Demo/EZDSP_Sample/FreeRTOS/Source/inc
     695                      .dwattr $C$DW$36, DW_AT_decl_line(0x66)
     696                      .dwattr $C$DW$36, DW_AT_decl_column(0x1f)
     697              $C$DW$37        .dwtag  DW_TAG_member
     698                      .dwattr $C$DW$37, DW_AT_type(*$C$DW$T$3)
     699                      .dwattr $C$DW$37, DW_AT_name("pvOwner")
TMS320C55x Assembler PC v4.3.8 Fri Jan 21 01:13:25 2011

Tools Copyright (c) 1996-2010 Texas Instruments Incorporated
list.asm                                                             PAGE   15

     700                      .dwattr $C$DW$37, DW_AT_TI_symbol_name("_pvOwner")
     701                      .dwattr $C$DW$37, DW_AT_data_member_location[DW_OP_plus_uconst 0x6]
     702                      .dwattr $C$DW$37, DW_AT_accessibility(DW_ACCESS_public)
     703                      .dwattr $C$DW$37, DW_AT_decl_file("E:/temp/c5515_eZdsp_FreeRTOS_Demo/EZDSP_Sample/FreeRTOS/Source/inc
     704                      .dwattr $C$DW$37, DW_AT_decl_line(0x67)
     705                      .dwattr $C$DW$37, DW_AT_decl_column(0x09)
     706              $C$DW$38        .dwtag  DW_TAG_member
     707                      .dwattr $C$DW$38, DW_AT_type(*$C$DW$T$3)
     708                      .dwattr $C$DW$38, DW_AT_name("pvContainer")
     709                      .dwattr $C$DW$38, DW_AT_TI_symbol_name("_pvContainer")
     710                      .dwattr $C$DW$38, DW_AT_data_member_location[DW_OP_plus_uconst 0x8]
     711                      .dwattr $C$DW$38, DW_AT_accessibility(DW_ACCESS_public)
     712                      .dwattr $C$DW$38, DW_AT_decl_file("E:/temp/c5515_eZdsp_FreeRTOS_Demo/EZDSP_Sample/FreeRTOS/Source/inc
     713                      .dwattr $C$DW$38, DW_AT_decl_line(0x68)
     714                      .dwattr $C$DW$38, DW_AT_decl_column(0x09)
     715                      .dwendtag $C$DW$T$22
     716              
     717                      .dwattr $C$DW$T$22, DW_AT_decl_file("E:/temp/c5515_eZdsp_FreeRTOS_Demo/EZDSP_Sample/FreeRTOS/Source/i
     718                      .dwattr $C$DW$T$22, DW_AT_decl_line(0x62)
     719                      .dwattr $C$DW$T$22, DW_AT_decl_column(0x08)
     720              $C$DW$39        .dwtag  DW_TAG_TI_far_type
     721                      .dwattr $C$DW$39, DW_AT_type(*$C$DW$T$22)
     722              $C$DW$T$20      .dwtag  DW_TAG_volatile_type
     723                      .dwattr $C$DW$T$20, DW_AT_type(*$C$DW$39)
     724              $C$DW$T$21      .dwtag  DW_TAG_pointer_type
     725                      .dwattr $C$DW$T$21, DW_AT_type(*$C$DW$T$20)
     726                      .dwattr $C$DW$T$21, DW_AT_address_class(0x17)
     727              $C$DW$T$25      .dwtag  DW_TAG_typedef, DW_AT_name("xListItem")
     728                      .dwattr $C$DW$T$25, DW_AT_type(*$C$DW$T$22)
     729                      .dwattr $C$DW$T$25, DW_AT_language(DW_LANG_C)
     730                      .dwattr $C$DW$T$25, DW_AT_decl_file("E:/temp/c5515_eZdsp_FreeRTOS_Demo/EZDSP_Sample/FreeRTOS/Source/i
     731                      .dwattr $C$DW$T$25, DW_AT_decl_line(0x6a)
     732                      .dwattr $C$DW$T$25, DW_AT_decl_column(0x1b)
     733              $C$DW$40        .dwtag  DW_TAG_TI_far_type
     734                      .dwattr $C$DW$40, DW_AT_type(*$C$DW$T$25)
     735              $C$DW$T$26      .dwtag  DW_TAG_volatile_type
     736                      .dwattr $C$DW$T$26, DW_AT_type(*$C$DW$40)
     737              $C$DW$T$27      .dwtag  DW_TAG_pointer_type
     738                      .dwattr $C$DW$T$27, DW_AT_type(*$C$DW$T$26)
     739                      .dwattr $C$DW$T$27, DW_AT_address_class(0x17)
     740              $C$DW$T$37      .dwtag  DW_TAG_pointer_type
     741                      .dwattr $C$DW$T$37, DW_AT_type(*$C$DW$T$25)
     742                      .dwattr $C$DW$T$37, DW_AT_address_class(0x17)
     743              
     744              $C$DW$T$23      .dwtag  DW_TAG_structure_type
     745                      .dwattr $C$DW$T$23, DW_AT_name("xMINI_LIST_ITEM")
     746                      .dwattr $C$DW$T$23, DW_AT_byte_size(0x06)
     747              $C$DW$41        .dwtag  DW_TAG_member
     748                      .dwattr $C$DW$41, DW_AT_type(*$C$DW$T$19)
     749                      .dwattr $C$DW$41, DW_AT_name("xItemValue")
     750                      .dwattr $C$DW$41, DW_AT_TI_symbol_name("_xItemValue")
     751                      .dwattr $C$DW$41, DW_AT_data_member_location[DW_OP_plus_uconst 0x0]
     752                      .dwattr $C$DW$41, DW_AT_accessibility(DW_ACCESS_public)
     753                      .dwattr $C$DW$41, DW_AT_decl_file("E:/temp/c5515_eZdsp_FreeRTOS_Demo/EZDSP_Sample/FreeRTOS/Source/inc
     754                      .dwattr $C$DW$41, DW_AT_decl_line(0x6e)
TMS320C55x Assembler PC v4.3.8 Fri Jan 21 01:13:25 2011

Tools Copyright (c) 1996-2010 Texas Instruments Incorporated
list.asm                                                             PAGE   16

     755                      .dwattr $C$DW$41, DW_AT_decl_column(0x0f)
     756              $C$DW$42        .dwtag  DW_TAG_member
     757                      .dwattr $C$DW$42, DW_AT_type(*$C$DW$T$21)
     758                      .dwattr $C$DW$42, DW_AT_name("pxNext")
     759                      .dwattr $C$DW$42, DW_AT_TI_symbol_name("_pxNext")
     760                      .dwattr $C$DW$42, DW_AT_data_member_location[DW_OP_plus_uconst 0x2]
     761                      .dwattr $C$DW$42, DW_AT_accessibility(DW_ACCESS_public)
     762                      .dwattr $C$DW$42, DW_AT_decl_file("E:/temp/c5515_eZdsp_FreeRTOS_Demo/EZDSP_Sample/FreeRTOS/Source/inc
     763                      .dwattr $C$DW$42, DW_AT_decl_line(0x6f)
     764                      .dwattr $C$DW$42, DW_AT_decl_column(0x1e)
     765              $C$DW$43        .dwtag  DW_TAG_member
     766                      .dwattr $C$DW$43, DW_AT_type(*$C$DW$T$21)
     767                      .dwattr $C$DW$43, DW_AT_name("pxPrevious")
     768                      .dwattr $C$DW$43, DW_AT_TI_symbol_name("_pxPrevious")
     769                      .dwattr $C$DW$43, DW_AT_data_member_location[DW_OP_plus_uconst 0x4]
     770                      .dwattr $C$DW$43, DW_AT_accessibility(DW_ACCESS_public)
     771                      .dwattr $C$DW$43, DW_AT_decl_file("E:/temp/c5515_eZdsp_FreeRTOS_Demo/EZDSP_Sample/FreeRTOS/Source/inc
     772                      .dwattr $C$DW$43, DW_AT_decl_line(0x70)
     773                      .dwattr $C$DW$43, DW_AT_decl_column(0x1e)
     774                      .dwendtag $C$DW$T$23
     775              
     776                      .dwattr $C$DW$T$23, DW_AT_decl_file("E:/temp/c5515_eZdsp_FreeRTOS_Demo/EZDSP_Sample/FreeRTOS/Source/i
     777                      .dwattr $C$DW$T$23, DW_AT_decl_line(0x6c)
     778                      .dwattr $C$DW$T$23, DW_AT_decl_column(0x08)
     779              $C$DW$T$28      .dwtag  DW_TAG_typedef, DW_AT_name("xMiniListItem")
     780                      .dwattr $C$DW$T$28, DW_AT_type(*$C$DW$T$23)
     781                      .dwattr $C$DW$T$28, DW_AT_language(DW_LANG_C)
     782                      .dwattr $C$DW$T$28, DW_AT_decl_file("E:/temp/c5515_eZdsp_FreeRTOS_Demo/EZDSP_Sample/FreeRTOS/Source/i
     783                      .dwattr $C$DW$T$28, DW_AT_decl_line(0x72)
     784                      .dwattr $C$DW$T$28, DW_AT_decl_column(0x20)
     785              $C$DW$44        .dwtag  DW_TAG_TI_far_type
     786                      .dwattr $C$DW$44, DW_AT_type(*$C$DW$T$28)
     787              $C$DW$T$29      .dwtag  DW_TAG_volatile_type
     788                      .dwattr $C$DW$T$29, DW_AT_type(*$C$DW$44)
     789              
     790              $C$DW$T$30      .dwtag  DW_TAG_structure_type
     791                      .dwattr $C$DW$T$30, DW_AT_name("xLIST")
     792                      .dwattr $C$DW$T$30, DW_AT_byte_size(0x0a)
     793              $C$DW$45        .dwtag  DW_TAG_member
     794                      .dwattr $C$DW$45, DW_AT_type(*$C$DW$T$24)
     795                      .dwattr $C$DW$45, DW_AT_name("uxNumberOfItems")
     796                      .dwattr $C$DW$45, DW_AT_TI_symbol_name("_uxNumberOfItems")
     797                      .dwattr $C$DW$45, DW_AT_data_member_location[DW_OP_plus_uconst 0x0]
     798                      .dwattr $C$DW$45, DW_AT_accessibility(DW_ACCESS_public)
     799                      .dwattr $C$DW$45, DW_AT_decl_file("E:/temp/c5515_eZdsp_FreeRTOS_Demo/EZDSP_Sample/FreeRTOS/Source/inc
     800                      .dwattr $C$DW$45, DW_AT_decl_line(0x79)
     801                      .dwattr $C$DW$45, DW_AT_decl_column(0x22)
     802              $C$DW$46        .dwtag  DW_TAG_member
     803                      .dwattr $C$DW$46, DW_AT_type(*$C$DW$T$27)
     804                      .dwattr $C$DW$46, DW_AT_name("pxIndex")
     805                      .dwattr $C$DW$46, DW_AT_TI_symbol_name("_pxIndex")
     806                      .dwattr $C$DW$46, DW_AT_data_member_location[DW_OP_plus_uconst 0x2]
     807                      .dwattr $C$DW$46, DW_AT_accessibility(DW_ACCESS_public)
     808                      .dwattr $C$DW$46, DW_AT_decl_file("E:/temp/c5515_eZdsp_FreeRTOS_Demo/EZDSP_Sample/FreeRTOS/Source/inc
     809                      .dwattr $C$DW$46, DW_AT_decl_line(0x7a)
TMS320C55x Assembler PC v4.3.8 Fri Jan 21 01:13:25 2011

Tools Copyright (c) 1996-2010 Texas Instruments Incorporated
list.asm                                                             PAGE   17

     810                      .dwattr $C$DW$46, DW_AT_decl_column(0x17)
     811              $C$DW$47        .dwtag  DW_TAG_member
     812                      .dwattr $C$DW$47, DW_AT_type(*$C$DW$T$29)
     813                      .dwattr $C$DW$47, DW_AT_name("xListEnd")
     814                      .dwattr $C$DW$47, DW_AT_TI_symbol_name("_xListEnd")
     815                      .dwattr $C$DW$47, DW_AT_data_member_location[DW_OP_plus_uconst 0x4]
     816                      .dwattr $C$DW$47, DW_AT_accessibility(DW_ACCESS_public)
     817                      .dwattr $C$DW$47, DW_AT_decl_file("E:/temp/c5515_eZdsp_FreeRTOS_Demo/EZDSP_Sample/FreeRTOS/Source/inc
     818                      .dwattr $C$DW$47, DW_AT_decl_line(0x7b)
     819                      .dwattr $C$DW$47, DW_AT_decl_column(0x19)
     820                      .dwendtag $C$DW$T$30
     821              
     822                      .dwattr $C$DW$T$30, DW_AT_decl_file("E:/temp/c5515_eZdsp_FreeRTOS_Demo/EZDSP_Sample/FreeRTOS/Source/i
     823                      .dwattr $C$DW$T$30, DW_AT_decl_line(0x77)
     824                      .dwattr $C$DW$T$30, DW_AT_decl_column(0x10)
     825              $C$DW$T$34      .dwtag  DW_TAG_typedef, DW_AT_name("xList")
     826                      .dwattr $C$DW$T$34, DW_AT_type(*$C$DW$T$30)
     827                      .dwattr $C$DW$T$34, DW_AT_language(DW_LANG_C)
     828                      .dwattr $C$DW$T$34, DW_AT_decl_file("E:/temp/c5515_eZdsp_FreeRTOS_Demo/EZDSP_Sample/FreeRTOS/Source/i
     829                      .dwattr $C$DW$T$34, DW_AT_decl_line(0x7c)
     830                      .dwattr $C$DW$T$34, DW_AT_decl_column(0x03)
     831              $C$DW$T$35      .dwtag  DW_TAG_pointer_type
     832                      .dwattr $C$DW$T$35, DW_AT_type(*$C$DW$T$34)
     833                      .dwattr $C$DW$T$35, DW_AT_address_class(0x17)
     834              
     835              $C$DW$T$31      .dwtag  DW_TAG_structure_type
     836                      .dwattr $C$DW$T$31, DW_AT_byte_size(0x02)
     837              $C$DW$48        .dwtag  DW_TAG_member
     838                      .dwattr $C$DW$48, DW_AT_type(*$C$DW$T$10)
     839                      .dwattr $C$DW$48, DW_AT_name("quot")
     840                      .dwattr $C$DW$48, DW_AT_TI_symbol_name("_quot")
     841                      .dwattr $C$DW$48, DW_AT_data_member_location[DW_OP_plus_uconst 0x0]
     842                      .dwattr $C$DW$48, DW_AT_accessibility(DW_ACCESS_public)
     843                      .dwattr $C$DW$48, DW_AT_decl_file("C:/Texas Instruments Tools/ccsv4/tools/compiler/C5500 Code Generat
     844                      .dwattr $C$DW$48, DW_AT_decl_line(0x12)
     845                      .dwattr $C$DW$48, DW_AT_decl_column(0x16)
     846              $C$DW$49        .dwtag  DW_TAG_member
     847                      .dwattr $C$DW$49, DW_AT_type(*$C$DW$T$10)
     848                      .dwattr $C$DW$49, DW_AT_name("rem")
     849                      .dwattr $C$DW$49, DW_AT_TI_symbol_name("_rem")
     850                      .dwattr $C$DW$49, DW_AT_data_member_location[DW_OP_plus_uconst 0x1]
     851                      .dwattr $C$DW$49, DW_AT_accessibility(DW_ACCESS_public)
     852                      .dwattr $C$DW$49, DW_AT_decl_file("C:/Texas Instruments Tools/ccsv4/tools/compiler/C5500 Code Generat
     853                      .dwattr $C$DW$49, DW_AT_decl_line(0x12)
     854                      .dwattr $C$DW$49, DW_AT_decl_column(0x1c)
     855                      .dwendtag $C$DW$T$31
     856              
     857                      .dwattr $C$DW$T$31, DW_AT_decl_file("C:/Texas Instruments Tools/ccsv4/tools/compiler/C5500 Code Gener
     858                      .dwattr $C$DW$T$31, DW_AT_decl_line(0x12)
     859                      .dwattr $C$DW$T$31, DW_AT_decl_column(0x10)
     860              $C$DW$T$57      .dwtag  DW_TAG_typedef, DW_AT_name("div_t")
     861                      .dwattr $C$DW$T$57, DW_AT_type(*$C$DW$T$31)
     862                      .dwattr $C$DW$T$57, DW_AT_language(DW_LANG_C)
     863                      .dwattr $C$DW$T$57, DW_AT_decl_file("C:/Texas Instruments Tools/ccsv4/tools/compiler/C5500 Code Gener
     864                      .dwattr $C$DW$T$57, DW_AT_decl_line(0x12)
TMS320C55x Assembler PC v4.3.8 Fri Jan 21 01:13:25 2011

Tools Copyright (c) 1996-2010 Texas Instruments Incorporated
list.asm                                                             PAGE   18

     865                      .dwattr $C$DW$T$57, DW_AT_decl_column(0x23)
     866              
     867              $C$DW$T$32      .dwtag  DW_TAG_structure_type
     868                      .dwattr $C$DW$T$32, DW_AT_byte_size(0x04)
     869              $C$DW$50        .dwtag  DW_TAG_member
     870                      .dwattr $C$DW$50, DW_AT_type(*$C$DW$T$12)
     871                      .dwattr $C$DW$50, DW_AT_name("quot")
     872                      .dwattr $C$DW$50, DW_AT_TI_symbol_name("_quot")
     873                      .dwattr $C$DW$50, DW_AT_data_member_location[DW_OP_plus_uconst 0x0]
     874                      .dwattr $C$DW$50, DW_AT_accessibility(DW_ACCESS_public)
     875                      .dwattr $C$DW$50, DW_AT_decl_file("C:/Texas Instruments Tools/ccsv4/tools/compiler/C5500 Code Generat
     876                      .dwattr $C$DW$50, DW_AT_decl_line(0x14)
     877                      .dwattr $C$DW$50, DW_AT_decl_column(0x17)
     878              $C$DW$51        .dwtag  DW_TAG_member
     879                      .dwattr $C$DW$51, DW_AT_type(*$C$DW$T$12)
     880                      .dwattr $C$DW$51, DW_AT_name("rem")
     881                      .dwattr $C$DW$51, DW_AT_TI_symbol_name("_rem")
     882                      .dwattr $C$DW$51, DW_AT_data_member_location[DW_OP_plus_uconst 0x2]
     883                      .dwattr $C$DW$51, DW_AT_accessibility(DW_ACCESS_public)
     884                      .dwattr $C$DW$51, DW_AT_decl_file("C:/Texas Instruments Tools/ccsv4/tools/compiler/C5500 Code Generat
     885                      .dwattr $C$DW$51, DW_AT_decl_line(0x14)
     886                      .dwattr $C$DW$51, DW_AT_decl_column(0x1d)
     887                      .dwendtag $C$DW$T$32
     888              
     889                      .dwattr $C$DW$T$32, DW_AT_decl_file("C:/Texas Instruments Tools/ccsv4/tools/compiler/C5500 Code Gener
     890                      .dwattr $C$DW$T$32, DW_AT_decl_line(0x14)
     891                      .dwattr $C$DW$T$32, DW_AT_decl_column(0x10)
     892              $C$DW$T$58      .dwtag  DW_TAG_typedef, DW_AT_name("ldiv_t")
     893                      .dwattr $C$DW$T$58, DW_AT_type(*$C$DW$T$32)
     894                      .dwattr $C$DW$T$58, DW_AT_language(DW_LANG_C)
     895                      .dwattr $C$DW$T$58, DW_AT_decl_file("C:/Texas Instruments Tools/ccsv4/tools/compiler/C5500 Code Gener
     896                      .dwattr $C$DW$T$58, DW_AT_decl_line(0x14)
     897                      .dwattr $C$DW$T$58, DW_AT_decl_column(0x24)
     898              
     899              $C$DW$T$33      .dwtag  DW_TAG_structure_type
     900                      .dwattr $C$DW$T$33, DW_AT_byte_size(0x08)
     901              $C$DW$52        .dwtag  DW_TAG_member
     902                      .dwattr $C$DW$52, DW_AT_type(*$C$DW$T$14)
     903                      .dwattr $C$DW$52, DW_AT_name("quot")
     904                      .dwattr $C$DW$52, DW_AT_TI_symbol_name("_quot")
     905                      .dwattr $C$DW$52, DW_AT_data_member_location[DW_OP_plus_uconst 0x0]
     906                      .dwattr $C$DW$52, DW_AT_accessibility(DW_ACCESS_public)
     907                      .dwattr $C$DW$52, DW_AT_decl_file("C:/Texas Instruments Tools/ccsv4/tools/compiler/C5500 Code Generat
     908                      .dwattr $C$DW$52, DW_AT_decl_line(0x17)
     909                      .dwattr $C$DW$52, DW_AT_decl_column(0x1c)
     910              $C$DW$53        .dwtag  DW_TAG_member
     911                      .dwattr $C$DW$53, DW_AT_type(*$C$DW$T$14)
     912                      .dwattr $C$DW$53, DW_AT_name("rem")
     913                      .dwattr $C$DW$53, DW_AT_TI_symbol_name("_rem")
     914                      .dwattr $C$DW$53, DW_AT_data_member_location[DW_OP_plus_uconst 0x4]
     915                      .dwattr $C$DW$53, DW_AT_accessibility(DW_ACCESS_public)
     916                      .dwattr $C$DW$53, DW_AT_decl_file("C:/Texas Instruments Tools/ccsv4/tools/compiler/C5500 Code Generat
     917                      .dwattr $C$DW$53, DW_AT_decl_line(0x17)
     918                      .dwattr $C$DW$53, DW_AT_decl_column(0x22)
     919                      .dwendtag $C$DW$T$33
TMS320C55x Assembler PC v4.3.8 Fri Jan 21 01:13:25 2011

Tools Copyright (c) 1996-2010 Texas Instruments Incorporated
list.asm                                                             PAGE   19

     920              
     921                      .dwattr $C$DW$T$33, DW_AT_decl_file("C:/Texas Instruments Tools/ccsv4/tools/compiler/C5500 Code Gener
     922                      .dwattr $C$DW$T$33, DW_AT_decl_line(0x17)
     923                      .dwattr $C$DW$T$33, DW_AT_decl_column(0x10)
     924              $C$DW$T$59      .dwtag  DW_TAG_typedef, DW_AT_name("lldiv_t")
     925                      .dwattr $C$DW$T$59, DW_AT_type(*$C$DW$T$33)
     926                      .dwattr $C$DW$T$59, DW_AT_language(DW_LANG_C)
     927                      .dwattr $C$DW$T$59, DW_AT_decl_file("C:/Texas Instruments Tools/ccsv4/tools/compiler/C5500 Code Gener
     928                      .dwattr $C$DW$T$59, DW_AT_decl_line(0x17)
     929                      .dwattr $C$DW$T$59, DW_AT_decl_column(0x29)
     930                      .dwattr $C$DW$CU, DW_AT_language(DW_LANG_C)
     931              
     932              ;***************************************************************
     933              ;* DWARF CIE ENTRIES                                           *
     934              ;***************************************************************
     935              
     936              $C$DW$CIE       .dwcie 91
     937                      .dwcfi  cfa_register, 36
     938                      .dwcfi  cfa_offset, 0
     939                      .dwcfi  undefined, 0
     940                      .dwcfi  undefined, 1
     941                      .dwcfi  undefined, 2
     942                      .dwcfi  undefined, 3
     943                      .dwcfi  undefined, 4
     944                      .dwcfi  undefined, 5
     945                      .dwcfi  undefined, 6
     946                      .dwcfi  undefined, 7
     947                      .dwcfi  undefined, 8
     948                      .dwcfi  undefined, 9
     949                      .dwcfi  undefined, 10
     950                      .dwcfi  undefined, 11
     951                      .dwcfi  undefined, 12
     952                      .dwcfi  undefined, 13
     953                      .dwcfi  same_value, 14
     954                      .dwcfi  same_value, 15
     955                      .dwcfi  undefined, 16
     956                      .dwcfi  undefined, 17
     957                      .dwcfi  undefined, 18
     958                      .dwcfi  undefined, 19
     959                      .dwcfi  undefined, 20
     960                      .dwcfi  undefined, 21
     961                      .dwcfi  undefined, 22
     962                      .dwcfi  undefined, 23
     963                      .dwcfi  undefined, 24
     964                      .dwcfi  undefined, 25
     965                      .dwcfi  same_value, 26
     966                      .dwcfi  same_value, 27
     967                      .dwcfi  same_value, 28
     968                      .dwcfi  same_value, 29
     969                      .dwcfi  same_value, 30
     970                      .dwcfi  same_value, 31
     971                      .dwcfi  undefined, 32
     972                      .dwcfi  undefined, 33
     973                      .dwcfi  undefined, 34
     974                      .dwcfi  undefined, 35
TMS320C55x Assembler PC v4.3.8 Fri Jan 21 01:13:25 2011

Tools Copyright (c) 1996-2010 Texas Instruments Incorporated
list.asm                                                             PAGE   20

     975                      .dwcfi  undefined, 36
     976                      .dwcfi  undefined, 37
     977                      .dwcfi  undefined, 38
     978                      .dwcfi  undefined, 39
     979                      .dwcfi  undefined, 40
     980                      .dwcfi  undefined, 41
     981                      .dwcfi  undefined, 42
     982                      .dwcfi  undefined, 43
     983                      .dwcfi  undefined, 44
     984                      .dwcfi  undefined, 45
     985                      .dwcfi  undefined, 46
     986                      .dwcfi  undefined, 47
     987                      .dwcfi  undefined, 48
     988                      .dwcfi  undefined, 49
     989                      .dwcfi  undefined, 50
     990                      .dwcfi  undefined, 51
     991                      .dwcfi  undefined, 52
     992                      .dwcfi  undefined, 53
     993                      .dwcfi  undefined, 54
     994                      .dwcfi  undefined, 55
     995                      .dwcfi  undefined, 56
     996                      .dwcfi  undefined, 57
     997                      .dwcfi  undefined, 58
     998                      .dwcfi  undefined, 59
     999                      .dwcfi  undefined, 60
    1000                      .dwcfi  undefined, 61
    1001                      .dwcfi  undefined, 62
    1002                      .dwcfi  undefined, 63
    1003                      .dwcfi  undefined, 64
    1004                      .dwcfi  undefined, 65
    1005                      .dwcfi  undefined, 66
    1006                      .dwcfi  undefined, 67
    1007                      .dwcfi  undefined, 68
    1008                      .dwcfi  undefined, 69
    1009                      .dwcfi  undefined, 70
    1010                      .dwcfi  undefined, 71
    1011                      .dwcfi  undefined, 72
    1012                      .dwcfi  undefined, 73
    1013                      .dwcfi  undefined, 74
    1014                      .dwcfi  undefined, 75
    1015                      .dwcfi  undefined, 76
    1016                      .dwcfi  undefined, 77
    1017                      .dwcfi  undefined, 78
    1018                      .dwcfi  undefined, 79
    1019                      .dwcfi  undefined, 80
    1020                      .dwcfi  undefined, 81
    1021                      .dwcfi  undefined, 82
    1022                      .dwcfi  undefined, 83
    1023                      .dwcfi  undefined, 84
    1024                      .dwcfi  undefined, 85
    1025                      .dwcfi  undefined, 86
    1026                      .dwcfi  undefined, 87
    1027                      .dwcfi  undefined, 88
    1028                      .dwcfi  undefined, 89
    1029                      .dwcfi  undefined, 90
TMS320C55x Assembler PC v4.3.8 Fri Jan 21 01:13:25 2011

Tools Copyright (c) 1996-2010 Texas Instruments Incorporated
list.asm                                                             PAGE   21

    1030                      .dwcfi  undefined, 91
    1031                      .dwendentry
    1032              
    1033              ;***************************************************************
    1034              ;* DWARF REGISTER MAP                                          *
    1035              ;***************************************************************
    1036              
    1037              $C$DW$54        .dwtag  DW_TAG_TI_assign_register, DW_AT_name("AC0")
    1038                      .dwattr $C$DW$54, DW_AT_location[DW_OP_reg0]
    1039              $C$DW$55        .dwtag  DW_TAG_TI_assign_register, DW_AT_name("AC0")
    1040                      .dwattr $C$DW$55, DW_AT_location[DW_OP_reg1]
    1041              $C$DW$56        .dwtag  DW_TAG_TI_assign_register, DW_AT_name("AC0_G")
    1042                      .dwattr $C$DW$56, DW_AT_location[DW_OP_reg2]
    1043              $C$DW$57        .dwtag  DW_TAG_TI_assign_register, DW_AT_name("AC1")
    1044                      .dwattr $C$DW$57, DW_AT_location[DW_OP_reg3]
    1045              $C$DW$58        .dwtag  DW_TAG_TI_assign_register, DW_AT_name("AC1")
    1046                      .dwattr $C$DW$58, DW_AT_location[DW_OP_reg4]
    1047              $C$DW$59        .dwtag  DW_TAG_TI_assign_register, DW_AT_name("AC1_G")
    1048                      .dwattr $C$DW$59, DW_AT_location[DW_OP_reg5]
    1049              $C$DW$60        .dwtag  DW_TAG_TI_assign_register, DW_AT_name("AC2")
    1050                      .dwattr $C$DW$60, DW_AT_location[DW_OP_reg6]
    1051              $C$DW$61        .dwtag  DW_TAG_TI_assign_register, DW_AT_name("AC2")
    1052                      .dwattr $C$DW$61, DW_AT_location[DW_OP_reg7]
    1053              $C$DW$62        .dwtag  DW_TAG_TI_assign_register, DW_AT_name("AC2_G")
    1054                      .dwattr $C$DW$62, DW_AT_location[DW_OP_reg8]
    1055              $C$DW$63        .dwtag  DW_TAG_TI_assign_register, DW_AT_name("AC3")
    1056                      .dwattr $C$DW$63, DW_AT_location[DW_OP_reg9]
    1057              $C$DW$64        .dwtag  DW_TAG_TI_assign_register, DW_AT_name("AC3")
    1058                      .dwattr $C$DW$64, DW_AT_location[DW_OP_reg10]
    1059              $C$DW$65        .dwtag  DW_TAG_TI_assign_register, DW_AT_name("AC3_G")
    1060                      .dwattr $C$DW$65, DW_AT_location[DW_OP_reg11]
    1061              $C$DW$66        .dwtag  DW_TAG_TI_assign_register, DW_AT_name("T0")
    1062                      .dwattr $C$DW$66, DW_AT_location[DW_OP_reg12]
    1063              $C$DW$67        .dwtag  DW_TAG_TI_assign_register, DW_AT_name("T1")
    1064                      .dwattr $C$DW$67, DW_AT_location[DW_OP_reg13]
    1065              $C$DW$68        .dwtag  DW_TAG_TI_assign_register, DW_AT_name("T2")
    1066                      .dwattr $C$DW$68, DW_AT_location[DW_OP_reg14]
    1067              $C$DW$69        .dwtag  DW_TAG_TI_assign_register, DW_AT_name("T3")
    1068                      .dwattr $C$DW$69, DW_AT_location[DW_OP_reg15]
    1069              $C$DW$70        .dwtag  DW_TAG_TI_assign_register, DW_AT_name("AR0")
    1070                      .dwattr $C$DW$70, DW_AT_location[DW_OP_reg16]
    1071              $C$DW$71        .dwtag  DW_TAG_TI_assign_register, DW_AT_name("XAR0")
    1072                      .dwattr $C$DW$71, DW_AT_location[DW_OP_reg17]
    1073              $C$DW$72        .dwtag  DW_TAG_TI_assign_register, DW_AT_name("AR1")
    1074                      .dwattr $C$DW$72, DW_AT_location[DW_OP_reg18]
    1075              $C$DW$73        .dwtag  DW_TAG_TI_assign_register, DW_AT_name("XAR1")
    1076                      .dwattr $C$DW$73, DW_AT_location[DW_OP_reg19]
    1077              $C$DW$74        .dwtag  DW_TAG_TI_assign_register, DW_AT_name("AR2")
    1078                      .dwattr $C$DW$74, DW_AT_location[DW_OP_reg20]
    1079              $C$DW$75        .dwtag  DW_TAG_TI_assign_register, DW_AT_name("XAR2")
    1080                      .dwattr $C$DW$75, DW_AT_location[DW_OP_reg21]
    1081              $C$DW$76        .dwtag  DW_TAG_TI_assign_register, DW_AT_name("AR3")
    1082                      .dwattr $C$DW$76, DW_AT_location[DW_OP_reg22]
    1083              $C$DW$77        .dwtag  DW_TAG_TI_assign_register, DW_AT_name("XAR3")
    1084                      .dwattr $C$DW$77, DW_AT_location[DW_OP_reg23]
TMS320C55x Assembler PC v4.3.8 Fri Jan 21 01:13:25 2011

Tools Copyright (c) 1996-2010 Texas Instruments Incorporated
list.asm                                                             PAGE   22

    1085              $C$DW$78        .dwtag  DW_TAG_TI_assign_register, DW_AT_name("AR4")
    1086                      .dwattr $C$DW$78, DW_AT_location[DW_OP_reg24]
    1087              $C$DW$79        .dwtag  DW_TAG_TI_assign_register, DW_AT_name("XAR4")
    1088                      .dwattr $C$DW$79, DW_AT_location[DW_OP_reg25]
    1089              $C$DW$80        .dwtag  DW_TAG_TI_assign_register, DW_AT_name("AR5")
    1090                      .dwattr $C$DW$80, DW_AT_location[DW_OP_reg26]
    1091              $C$DW$81        .dwtag  DW_TAG_TI_assign_register, DW_AT_name("XAR5")
    1092                      .dwattr $C$DW$81, DW_AT_location[DW_OP_reg27]
    1093              $C$DW$82        .dwtag  DW_TAG_TI_assign_register, DW_AT_name("AR6")
    1094                      .dwattr $C$DW$82, DW_AT_location[DW_OP_reg28]
    1095              $C$DW$83        .dwtag  DW_TAG_TI_assign_register, DW_AT_name("XAR6")
    1096                      .dwattr $C$DW$83, DW_AT_location[DW_OP_reg29]
    1097              $C$DW$84        .dwtag  DW_TAG_TI_assign_register, DW_AT_name("AR7")
    1098                      .dwattr $C$DW$84, DW_AT_location[DW_OP_reg30]
    1099              $C$DW$85        .dwtag  DW_TAG_TI_assign_register, DW_AT_name("XAR7")
    1100                      .dwattr $C$DW$85, DW_AT_location[DW_OP_reg31]
    1101              $C$DW$86        .dwtag  DW_TAG_TI_assign_register, DW_AT_name("FP")
    1102                      .dwattr $C$DW$86, DW_AT_location[DW_OP_regx 0x20]
    1103              $C$DW$87        .dwtag  DW_TAG_TI_assign_register, DW_AT_name("XFP")
    1104                      .dwattr $C$DW$87, DW_AT_location[DW_OP_regx 0x21]
    1105              $C$DW$88        .dwtag  DW_TAG_TI_assign_register, DW_AT_name("PC")
    1106                      .dwattr $C$DW$88, DW_AT_location[DW_OP_regx 0x22]
    1107              $C$DW$89        .dwtag  DW_TAG_TI_assign_register, DW_AT_name("SP")
    1108                      .dwattr $C$DW$89, DW_AT_location[DW_OP_regx 0x23]
    1109              $C$DW$90        .dwtag  DW_TAG_TI_assign_register, DW_AT_name("XSP")
    1110                      .dwattr $C$DW$90, DW_AT_location[DW_OP_regx 0x24]
    1111              $C$DW$91        .dwtag  DW_TAG_TI_assign_register, DW_AT_name("BKC")
    1112                      .dwattr $C$DW$91, DW_AT_location[DW_OP_regx 0x25]
    1113              $C$DW$92        .dwtag  DW_TAG_TI_assign_register, DW_AT_name("BK03")
    1114                      .dwattr $C$DW$92, DW_AT_location[DW_OP_regx 0x26]
    1115              $C$DW$93        .dwtag  DW_TAG_TI_assign_register, DW_AT_name("BK47")
    1116                      .dwattr $C$DW$93, DW_AT_location[DW_OP_regx 0x27]
    1117              $C$DW$94        .dwtag  DW_TAG_TI_assign_register, DW_AT_name("ST0")
    1118                      .dwattr $C$DW$94, DW_AT_location[DW_OP_regx 0x28]
    1119              $C$DW$95        .dwtag  DW_TAG_TI_assign_register, DW_AT_name("ST1")
    1120                      .dwattr $C$DW$95, DW_AT_location[DW_OP_regx 0x29]
    1121              $C$DW$96        .dwtag  DW_TAG_TI_assign_register, DW_AT_name("ST2")
    1122                      .dwattr $C$DW$96, DW_AT_location[DW_OP_regx 0x2a]
    1123              $C$DW$97        .dwtag  DW_TAG_TI_assign_register, DW_AT_name("ST3")
    1124                      .dwattr $C$DW$97, DW_AT_location[DW_OP_regx 0x2b]
    1125              $C$DW$98        .dwtag  DW_TAG_TI_assign_register, DW_AT_name("MDP")
    1126                      .dwattr $C$DW$98, DW_AT_location[DW_OP_regx 0x2c]
    1127              $C$DW$99        .dwtag  DW_TAG_TI_assign_register, DW_AT_name("MDP05")
    1128                      .dwattr $C$DW$99, DW_AT_location[DW_OP_regx 0x2d]
    1129              $C$DW$100       .dwtag  DW_TAG_TI_assign_register, DW_AT_name("MDP67")
    1130                      .dwattr $C$DW$100, DW_AT_location[DW_OP_regx 0x2e]
    1131              $C$DW$101       .dwtag  DW_TAG_TI_assign_register, DW_AT_name("BRC0")
    1132                      .dwattr $C$DW$101, DW_AT_location[DW_OP_regx 0x2f]
    1133              $C$DW$102       .dwtag  DW_TAG_TI_assign_register, DW_AT_name("RSA0")
    1134                      .dwattr $C$DW$102, DW_AT_location[DW_OP_regx 0x30]
    1135              $C$DW$103       .dwtag  DW_TAG_TI_assign_register, DW_AT_name("RSA0_H")
    1136                      .dwattr $C$DW$103, DW_AT_location[DW_OP_regx 0x31]
    1137              $C$DW$104       .dwtag  DW_TAG_TI_assign_register, DW_AT_name("REA0")
    1138                      .dwattr $C$DW$104, DW_AT_location[DW_OP_regx 0x32]
    1139              $C$DW$105       .dwtag  DW_TAG_TI_assign_register, DW_AT_name("REA0_H")
TMS320C55x Assembler PC v4.3.8 Fri Jan 21 01:13:25 2011

Tools Copyright (c) 1996-2010 Texas Instruments Incorporated
list.asm                                                             PAGE   23

    1140                      .dwattr $C$DW$105, DW_AT_location[DW_OP_regx 0x33]
    1141              $C$DW$106       .dwtag  DW_TAG_TI_assign_register, DW_AT_name("BRS1")
    1142                      .dwattr $C$DW$106, DW_AT_location[DW_OP_regx 0x34]
    1143              $C$DW$107       .dwtag  DW_TAG_TI_assign_register, DW_AT_name("BRC1")
    1144                      .dwattr $C$DW$107, DW_AT_location[DW_OP_regx 0x35]
    1145              $C$DW$108       .dwtag  DW_TAG_TI_assign_register, DW_AT_name("RSA1")
    1146                      .dwattr $C$DW$108, DW_AT_location[DW_OP_regx 0x36]
    1147              $C$DW$109       .dwtag  DW_TAG_TI_assign_register, DW_AT_name("RSA1_H")
    1148                      .dwattr $C$DW$109, DW_AT_location[DW_OP_regx 0x37]
    1149              $C$DW$110       .dwtag  DW_TAG_TI_assign_register, DW_AT_name("REA1")
    1150                      .dwattr $C$DW$110, DW_AT_location[DW_OP_regx 0x38]
    1151              $C$DW$111       .dwtag  DW_TAG_TI_assign_register, DW_AT_name("REA1_H")
    1152                      .dwattr $C$DW$111, DW_AT_location[DW_OP_regx 0x39]
    1153              $C$DW$112       .dwtag  DW_TAG_TI_assign_register, DW_AT_name("CSR")
    1154                      .dwattr $C$DW$112, DW_AT_location[DW_OP_regx 0x3a]
    1155              $C$DW$113       .dwtag  DW_TAG_TI_assign_register, DW_AT_name("RPTC")
    1156                      .dwattr $C$DW$113, DW_AT_location[DW_OP_regx 0x3b]
    1157              $C$DW$114       .dwtag  DW_TAG_TI_assign_register, DW_AT_name("CDP")
    1158                      .dwattr $C$DW$114, DW_AT_location[DW_OP_regx 0x3c]
    1159              $C$DW$115       .dwtag  DW_TAG_TI_assign_register, DW_AT_name("XCDP")
    1160                      .dwattr $C$DW$115, DW_AT_location[DW_OP_regx 0x3d]
    1161              $C$DW$116       .dwtag  DW_TAG_TI_assign_register, DW_AT_name("TRN0")
    1162                      .dwattr $C$DW$116, DW_AT_location[DW_OP_regx 0x3e]
    1163              $C$DW$117       .dwtag  DW_TAG_TI_assign_register, DW_AT_name("TRN1")
    1164                      .dwattr $C$DW$117, DW_AT_location[DW_OP_regx 0x3f]
    1165              $C$DW$118       .dwtag  DW_TAG_TI_assign_register, DW_AT_name("BSA01")
    1166                      .dwattr $C$DW$118, DW_AT_location[DW_OP_regx 0x40]
    1167              $C$DW$119       .dwtag  DW_TAG_TI_assign_register, DW_AT_name("BSA23")
    1168                      .dwattr $C$DW$119, DW_AT_location[DW_OP_regx 0x41]
    1169              $C$DW$120       .dwtag  DW_TAG_TI_assign_register, DW_AT_name("BSA45")
    1170                      .dwattr $C$DW$120, DW_AT_location[DW_OP_regx 0x42]
    1171              $C$DW$121       .dwtag  DW_TAG_TI_assign_register, DW_AT_name("BSA67")
    1172                      .dwattr $C$DW$121, DW_AT_location[DW_OP_regx 0x43]
    1173              $C$DW$122       .dwtag  DW_TAG_TI_assign_register, DW_AT_name("BSAC")
    1174                      .dwattr $C$DW$122, DW_AT_location[DW_OP_regx 0x44]
    1175              $C$DW$123       .dwtag  DW_TAG_TI_assign_register, DW_AT_name("CARRY")
    1176                      .dwattr $C$DW$123, DW_AT_location[DW_OP_regx 0x45]
    1177              $C$DW$124       .dwtag  DW_TAG_TI_assign_register, DW_AT_name("TC1")
    1178                      .dwattr $C$DW$124, DW_AT_location[DW_OP_regx 0x46]
    1179              $C$DW$125       .dwtag  DW_TAG_TI_assign_register, DW_AT_name("TC2")
    1180                      .dwattr $C$DW$125, DW_AT_location[DW_OP_regx 0x47]
    1181              $C$DW$126       .dwtag  DW_TAG_TI_assign_register, DW_AT_name("M40")
    1182                      .dwattr $C$DW$126, DW_AT_location[DW_OP_regx 0x48]
    1183              $C$DW$127       .dwtag  DW_TAG_TI_assign_register, DW_AT_name("SXMD")
    1184                      .dwattr $C$DW$127, DW_AT_location[DW_OP_regx 0x49]
    1185              $C$DW$128       .dwtag  DW_TAG_TI_assign_register, DW_AT_name("ARMS")
    1186                      .dwattr $C$DW$128, DW_AT_location[DW_OP_regx 0x4a]
    1187              $C$DW$129       .dwtag  DW_TAG_TI_assign_register, DW_AT_name("C54CM")
    1188                      .dwattr $C$DW$129, DW_AT_location[DW_OP_regx 0x4b]
    1189              $C$DW$130       .dwtag  DW_TAG_TI_assign_register, DW_AT_name("SATA")
    1190                      .dwattr $C$DW$130, DW_AT_location[DW_OP_regx 0x4c]
    1191              $C$DW$131       .dwtag  DW_TAG_TI_assign_register, DW_AT_name("SATD")
    1192                      .dwattr $C$DW$131, DW_AT_location[DW_OP_regx 0x4d]
    1193              $C$DW$132       .dwtag  DW_TAG_TI_assign_register, DW_AT_name("RDM")
    1194                      .dwattr $C$DW$132, DW_AT_location[DW_OP_regx 0x4e]
TMS320C55x Assembler PC v4.3.8 Fri Jan 21 01:13:25 2011

Tools Copyright (c) 1996-2010 Texas Instruments Incorporated
list.asm                                                             PAGE   24

    1195              $C$DW$133       .dwtag  DW_TAG_TI_assign_register, DW_AT_name("FRCT")
    1196                      .dwattr $C$DW$133, DW_AT_location[DW_OP_regx 0x4f]
    1197              $C$DW$134       .dwtag  DW_TAG_TI_assign_register, DW_AT_name("SMUL")
    1198                      .dwattr $C$DW$134, DW_AT_location[DW_OP_regx 0x50]
    1199              $C$DW$135       .dwtag  DW_TAG_TI_assign_register, DW_AT_name("INTM")
    1200                      .dwattr $C$DW$135, DW_AT_location[DW_OP_regx 0x51]
    1201              $C$DW$136       .dwtag  DW_TAG_TI_assign_register, DW_AT_name("AR0LC")
    1202                      .dwattr $C$DW$136, DW_AT_location[DW_OP_regx 0x52]
    1203              $C$DW$137       .dwtag  DW_TAG_TI_assign_register, DW_AT_name("AR1LC")
    1204                      .dwattr $C$DW$137, DW_AT_location[DW_OP_regx 0x53]
    1205              $C$DW$138       .dwtag  DW_TAG_TI_assign_register, DW_AT_name("AR2LC")
    1206                      .dwattr $C$DW$138, DW_AT_location[DW_OP_regx 0x54]
    1207              $C$DW$139       .dwtag  DW_TAG_TI_assign_register, DW_AT_name("AR3LC")
    1208                      .dwattr $C$DW$139, DW_AT_location[DW_OP_regx 0x55]
    1209              $C$DW$140       .dwtag  DW_TAG_TI_assign_register, DW_AT_name("AR4LC")
    1210                      .dwattr $C$DW$140, DW_AT_location[DW_OP_regx 0x56]
    1211              $C$DW$141       .dwtag  DW_TAG_TI_assign_register, DW_AT_name("AR5LC")
    1212                      .dwattr $C$DW$141, DW_AT_location[DW_OP_regx 0x57]
    1213              $C$DW$142       .dwtag  DW_TAG_TI_assign_register, DW_AT_name("AR6LC")
    1214                      .dwattr $C$DW$142, DW_AT_location[DW_OP_regx 0x58]
    1215              $C$DW$143       .dwtag  DW_TAG_TI_assign_register, DW_AT_name("AR7LC")
    1216                      .dwattr $C$DW$143, DW_AT_location[DW_OP_regx 0x59]
    1217              $C$DW$144       .dwtag  DW_TAG_TI_assign_register, DW_AT_name("CDPLC")
    1218                      .dwattr $C$DW$144, DW_AT_location[DW_OP_regx 0x5a]
    1219              $C$DW$145       .dwtag  DW_TAG_TI_assign_register, DW_AT_name("CIE_RETA")
    1220                      .dwattr $C$DW$145, DW_AT_location[DW_OP_regx 0x5b]
    1221                      .dwendtag $C$DW$CU
    1222              

No Assembly Errors, No Assembly Warnings
