TMS320C55x Assembler PC v4.4.1 Sat Sep 08 23:28:18 2018

Tools Copyright (c) 1996-2012 Texas Instruments Incorporated
croutine.asm                                                         PAGE    1

    1917              ; Temporary Registers Used: None
       1              ;*******************************************************************************
       2              ;* TMS320C55x C/C++ Codegen                                          PC v4.4.1 *
       3              ;* Date/Time created: Sat Sep 08 23:28:17 2018                                 *
       4              ;*******************************************************************************
       5                      .compiler_opts --hll_source=on --mem_model:code=flat --mem_model:data=large --object_format=coff --si
       6                      .mmregs
       7                      .cpl_on
       8                      .arms_on
       9                      .c54cm_off
      10                      .asg AR6, FP
      11                      .asg XAR6, XFP
      12                      .asg DPH, MDP
      13                      .model call=c55_std
      14                      .model mem=large
      15                      .noremark 5002  ; code respects overwrite rules
      16              ;*******************************************************************************
      17              ;* GLOBAL FILE PARAMETERS                                                      *
      18              ;*                                                                             *
      19              ;*   Architecture       : TMS320C55x                                           *
      20              ;*   Optimizing for     : Speed                                                *
      21              ;*   Memory             : Large Model (23-Bit Data Pointers)                   *
      22              ;*   Calls              : Normal Library ASM calls                             *
      23              ;*   Debug Info         : Standard TI Debug Information                        *
      24              ;*******************************************************************************
      25              
      26              $C$DW$CU        .dwtag  DW_TAG_compile_unit
      27                      .dwattr $C$DW$CU, DW_AT_name("../FreeRTOS/Source/croutine.c")
      28                      .dwattr $C$DW$CU, DW_AT_producer("TMS320C55x C/C++ Codegen PC v4.4.1 Copyright (c) 1996-2012 Texas In
      29                      .dwattr $C$DW$CU, DW_AT_TI_version(0x01)
      30                      .dwattr $C$DW$CU, DW_AT_comp_dir("F:\eZdsp_C55x_FreeRTOS_Port\VerifiedOKInDbg\eZDSP_5535_Files\ccsws2
      31              ;******************************************************************************
      32              ;* CINIT RECORDS                                                              *
      33              ;******************************************************************************
      34 000000               .sect   ".cinit"
      35                      .align  1
      36 000000 0002          .field          2,16
      37 000001 0000-         .field          _pxCurrentCoRoutine+0,24
         000002 3600 
      38 000002 3600          .field          0,8
      39 000003 0000          .field  0,32                    ; _pxCurrentCoRoutine @ 0
         000004 0000 
      40              
      41 000005               .sect   ".cinit"
      42                      .align  1
      43 000005 0001          .field          1,16
      44 000006 0000-         .field          _uxTopCoRoutineReadyPriority+0,24
         000007 3800 
      45 000007 3800          .field          0,8
      46 000008 0000          .field  0,16                    ; _uxTopCoRoutineReadyPriority @ 0
      47              
      48 000009               .sect   ".cinit"
      49                      .align  1
      50 000009 0001          .field          1,16
      51 00000a 0000-         .field          _xCoRoutineTickCount+0,24
TMS320C55x Assembler PC v4.4.1 Sat Sep 08 23:28:18 2018

Tools Copyright (c) 1996-2012 Texas Instruments Incorporated
croutine.asm                                                         PAGE    2

         00000b 3900 
      52 00000b 3900          .field          0,8
      53 00000c 0000          .field  0,16                    ; _xCoRoutineTickCount @ 0
      54              
      55 00000d               .sect   ".cinit"
      56                      .align  1
      57 00000d 0001          .field          1,16
      58 00000e 0000-         .field          _xLastTickCount+0,24
         00000f 3A00 
      59 00000f 3A00          .field          0,8
      60 000010 0000          .field  0,16                    ; _xLastTickCount @ 0
      61              
      62 000011               .sect   ".cinit"
      63                      .align  1
      64 000011 0001          .field          1,16
      65 000012 0000-         .field          _xPassedTicks+0,24
         000013 3B00 
      66 000013 3B00          .field          0,8
      67 000014 0000          .field  0,16                    ; _xPassedTicks @ 0
      68              
      69              
      70              $C$DW$1 .dwtag  DW_TAG_subprogram, DW_AT_name("pvPortMalloc")
      71                      .dwattr $C$DW$1, DW_AT_TI_symbol_name("_pvPortMalloc")
      72                      .dwattr $C$DW$1, DW_AT_type(*$C$DW$T$3)
      73                      .dwattr $C$DW$1, DW_AT_declaration
      74                      .dwattr $C$DW$1, DW_AT_external
      75              $C$DW$2 .dwtag  DW_TAG_formal_parameter
      76                      .dwattr $C$DW$2, DW_AT_type(*$C$DW$T$36)
      77                      .dwendtag $C$DW$1
      78              
      79              
      80              $C$DW$3 .dwtag  DW_TAG_subprogram, DW_AT_name("vListInitialise")
      81                      .dwattr $C$DW$3, DW_AT_TI_symbol_name("_vListInitialise")
      82                      .dwattr $C$DW$3, DW_AT_declaration
      83                      .dwattr $C$DW$3, DW_AT_external
      84              $C$DW$4 .dwtag  DW_TAG_formal_parameter
      85                      .dwattr $C$DW$4, DW_AT_type(*$C$DW$T$41)
      86                      .dwendtag $C$DW$3
      87              
      88              
      89              $C$DW$5 .dwtag  DW_TAG_subprogram, DW_AT_name("vListInitialiseItem")
      90                      .dwattr $C$DW$5, DW_AT_TI_symbol_name("_vListInitialiseItem")
      91                      .dwattr $C$DW$5, DW_AT_declaration
      92                      .dwattr $C$DW$5, DW_AT_external
      93              $C$DW$6 .dwtag  DW_TAG_formal_parameter
      94                      .dwattr $C$DW$6, DW_AT_type(*$C$DW$T$44)
      95                      .dwendtag $C$DW$5
      96              
      97              
      98              $C$DW$7 .dwtag  DW_TAG_subprogram, DW_AT_name("vListInsert")
      99                      .dwattr $C$DW$7, DW_AT_TI_symbol_name("_vListInsert")
     100                      .dwattr $C$DW$7, DW_AT_declaration
     101                      .dwattr $C$DW$7, DW_AT_external
     102              $C$DW$8 .dwtag  DW_TAG_formal_parameter
     103                      .dwattr $C$DW$8, DW_AT_type(*$C$DW$T$41)
TMS320C55x Assembler PC v4.4.1 Sat Sep 08 23:28:18 2018

Tools Copyright (c) 1996-2012 Texas Instruments Incorporated
croutine.asm                                                         PAGE    3

     104              $C$DW$9 .dwtag  DW_TAG_formal_parameter
     105                      .dwattr $C$DW$9, DW_AT_type(*$C$DW$T$44)
     106                      .dwendtag $C$DW$7
     107              
     108              
     109              $C$DW$10        .dwtag  DW_TAG_subprogram, DW_AT_name("vListInsertEnd")
     110                      .dwattr $C$DW$10, DW_AT_TI_symbol_name("_vListInsertEnd")
     111                      .dwattr $C$DW$10, DW_AT_declaration
     112                      .dwattr $C$DW$10, DW_AT_external
     113              $C$DW$11        .dwtag  DW_TAG_formal_parameter
     114                      .dwattr $C$DW$11, DW_AT_type(*$C$DW$T$41)
     115              $C$DW$12        .dwtag  DW_TAG_formal_parameter
     116                      .dwattr $C$DW$12, DW_AT_type(*$C$DW$T$44)
     117                      .dwendtag $C$DW$10
     118              
     119              
     120              $C$DW$13        .dwtag  DW_TAG_subprogram, DW_AT_name("vListRemove")
     121                      .dwattr $C$DW$13, DW_AT_TI_symbol_name("_vListRemove")
     122                      .dwattr $C$DW$13, DW_AT_declaration
     123                      .dwattr $C$DW$13, DW_AT_external
     124              $C$DW$14        .dwtag  DW_TAG_formal_parameter
     125                      .dwattr $C$DW$14, DW_AT_type(*$C$DW$T$44)
     126                      .dwendtag $C$DW$13
     127              
     128              
     129              $C$DW$15        .dwtag  DW_TAG_subprogram, DW_AT_name("xTaskGetTickCount")
     130                      .dwattr $C$DW$15, DW_AT_TI_symbol_name("_xTaskGetTickCount")
     131                      .dwattr $C$DW$15, DW_AT_type(*$C$DW$T$31)
     132                      .dwattr $C$DW$15, DW_AT_declaration
     133                      .dwattr $C$DW$15, DW_AT_external
     134 000000               .bss    _pxReadyCoRoutineLists,20,0,2
     135              $C$DW$16        .dwtag  DW_TAG_variable, DW_AT_name("pxReadyCoRoutineLists")
     136                      .dwattr $C$DW$16, DW_AT_TI_symbol_name("_pxReadyCoRoutineLists")
     137                      .dwattr $C$DW$16, DW_AT_type(*$C$DW$T$62)
     138                      .dwattr $C$DW$16, DW_AT_location[DW_OP_addr _pxReadyCoRoutineLists]
     139 000014               .bss    _xDelayedCoRoutineList1,10,0,2
     140              $C$DW$17        .dwtag  DW_TAG_variable, DW_AT_name("xDelayedCoRoutineList1")
     141                      .dwattr $C$DW$17, DW_AT_TI_symbol_name("_xDelayedCoRoutineList1")
     142                      .dwattr $C$DW$17, DW_AT_type(*$C$DW$T$40)
     143                      .dwattr $C$DW$17, DW_AT_location[DW_OP_addr _xDelayedCoRoutineList1]
     144 00001e               .bss    _xDelayedCoRoutineList2,10,0,2
     145              $C$DW$18        .dwtag  DW_TAG_variable, DW_AT_name("xDelayedCoRoutineList2")
     146                      .dwattr $C$DW$18, DW_AT_TI_symbol_name("_xDelayedCoRoutineList2")
     147                      .dwattr $C$DW$18, DW_AT_type(*$C$DW$T$40)
     148                      .dwattr $C$DW$18, DW_AT_location[DW_OP_addr _xDelayedCoRoutineList2]
     149 000028               .bss    _pxDelayedCoRoutineList,2,0,2
     150              $C$DW$19        .dwtag  DW_TAG_variable, DW_AT_name("pxDelayedCoRoutineList")
     151                      .dwattr $C$DW$19, DW_AT_TI_symbol_name("_pxDelayedCoRoutineList")
     152                      .dwattr $C$DW$19, DW_AT_type(*$C$DW$T$41)
     153                      .dwattr $C$DW$19, DW_AT_location[DW_OP_addr _pxDelayedCoRoutineList]
     154 00002a               .bss    _pxOverflowDelayedCoRoutineList,2,0,2
     155              $C$DW$20        .dwtag  DW_TAG_variable, DW_AT_name("pxOverflowDelayedCoRoutineList")
     156                      .dwattr $C$DW$20, DW_AT_TI_symbol_name("_pxOverflowDelayedCoRoutineList")
     157                      .dwattr $C$DW$20, DW_AT_type(*$C$DW$T$41)
     158                      .dwattr $C$DW$20, DW_AT_location[DW_OP_addr _pxOverflowDelayedCoRoutineList]
TMS320C55x Assembler PC v4.4.1 Sat Sep 08 23:28:18 2018

Tools Copyright (c) 1996-2012 Texas Instruments Incorporated
croutine.asm                                                         PAGE    4

     159 00002c               .bss    _xPendingReadyCoRoutineList,10,0,2
     160              $C$DW$21        .dwtag  DW_TAG_variable, DW_AT_name("xPendingReadyCoRoutineList")
     161                      .dwattr $C$DW$21, DW_AT_TI_symbol_name("_xPendingReadyCoRoutineList")
     162                      .dwattr $C$DW$21, DW_AT_type(*$C$DW$T$40)
     163                      .dwattr $C$DW$21, DW_AT_location[DW_OP_addr _xPendingReadyCoRoutineList]
     164                      .global _pxCurrentCoRoutine
     165 000036               .bss    _pxCurrentCoRoutine,2,0,2
     166              $C$DW$22        .dwtag  DW_TAG_variable, DW_AT_name("pxCurrentCoRoutine")
     167                      .dwattr $C$DW$22, DW_AT_TI_symbol_name("_pxCurrentCoRoutine")
     168                      .dwattr $C$DW$22, DW_AT_location[DW_OP_addr _pxCurrentCoRoutine]
     169                      .dwattr $C$DW$22, DW_AT_type(*$C$DW$T$60)
     170                      .dwattr $C$DW$22, DW_AT_external
     171 000038               .bss    _uxTopCoRoutineReadyPriority,1,0,0
     172              $C$DW$23        .dwtag  DW_TAG_variable, DW_AT_name("uxTopCoRoutineReadyPriority")
     173                      .dwattr $C$DW$23, DW_AT_TI_symbol_name("_uxTopCoRoutineReadyPriority")
     174                      .dwattr $C$DW$23, DW_AT_type(*$C$DW$T$11)
     175                      .dwattr $C$DW$23, DW_AT_location[DW_OP_addr _uxTopCoRoutineReadyPriority]
     176 000039               .bss    _xCoRoutineTickCount,1,0,0
     177              $C$DW$24        .dwtag  DW_TAG_variable, DW_AT_name("xCoRoutineTickCount")
     178                      .dwattr $C$DW$24, DW_AT_TI_symbol_name("_xCoRoutineTickCount")
     179                      .dwattr $C$DW$24, DW_AT_type(*$C$DW$T$31)
     180                      .dwattr $C$DW$24, DW_AT_location[DW_OP_addr _xCoRoutineTickCount]
     181 00003a               .bss    _xLastTickCount,1,0,0
     182              $C$DW$25        .dwtag  DW_TAG_variable, DW_AT_name("xLastTickCount")
     183                      .dwattr $C$DW$25, DW_AT_TI_symbol_name("_xLastTickCount")
     184                      .dwattr $C$DW$25, DW_AT_type(*$C$DW$T$31)
     185                      .dwattr $C$DW$25, DW_AT_location[DW_OP_addr _xLastTickCount]
     186 00003b               .bss    _xPassedTicks,1,0,0
     187              $C$DW$26        .dwtag  DW_TAG_variable, DW_AT_name("xPassedTicks")
     188                      .dwattr $C$DW$26, DW_AT_TI_symbol_name("_xPassedTicks")
     189                      .dwattr $C$DW$26, DW_AT_type(*$C$DW$T$31)
     190                      .dwattr $C$DW$26, DW_AT_location[DW_OP_addr _xPassedTicks]
     191              ;       F:\TI_CCS_7P4\ccsv7\tools\compiler\c5500_4.4.1\bin\acp55.exe -@f:\\AppData\\Local\\Temp\\1380012 
     192 000000               .sect   ".text"
     193                      .align 4
     194                      .global _xCoRoutineCreate
     195              
     196              $C$DW$27        .dwtag  DW_TAG_subprogram, DW_AT_name("xCoRoutineCreate")
     197                      .dwattr $C$DW$27, DW_AT_low_pc(_xCoRoutineCreate)
     198                      .dwattr $C$DW$27, DW_AT_high_pc(0x00)
     199                      .dwattr $C$DW$27, DW_AT_TI_symbol_name("_xCoRoutineCreate")
     200                      .dwattr $C$DW$27, DW_AT_external
     201                      .dwattr $C$DW$27, DW_AT_type(*$C$DW$T$10)
     202                      .dwattr $C$DW$27, DW_AT_TI_begin_file("../FreeRTOS/Source/croutine.c")
     203                      .dwattr $C$DW$27, DW_AT_TI_begin_line(0x7d)
     204                      .dwattr $C$DW$27, DW_AT_TI_begin_column(0x16)
     205                      .dwattr $C$DW$27, DW_AT_TI_max_frame_size(0x0a)
     206                      .dwpsn  file "../FreeRTOS/Source/croutine.c",line 126,column 1,is_stmt,address _xCoRoutineCreate
     207              
     208                      .dwfde $C$DW$CIE, _xCoRoutineCreate
     209              $C$DW$28        .dwtag  DW_TAG_formal_parameter, DW_AT_name("pxCoRoutineCode")
     210                      .dwattr $C$DW$28, DW_AT_TI_symbol_name("_pxCoRoutineCode")
     211                      .dwattr $C$DW$28, DW_AT_type(*$C$DW$T$22)
     212                      .dwattr $C$DW$28, DW_AT_location[DW_OP_reg1]
     213              $C$DW$29        .dwtag  DW_TAG_formal_parameter, DW_AT_name("uxPriority")
TMS320C55x Assembler PC v4.4.1 Sat Sep 08 23:28:18 2018

Tools Copyright (c) 1996-2012 Texas Instruments Incorporated
croutine.asm                                                         PAGE    5

     214                      .dwattr $C$DW$29, DW_AT_TI_symbol_name("_uxPriority")
     215                      .dwattr $C$DW$29, DW_AT_type(*$C$DW$T$11)
     216                      .dwattr $C$DW$29, DW_AT_location[DW_OP_reg12]
     217              $C$DW$30        .dwtag  DW_TAG_formal_parameter, DW_AT_name("uxIndex")
     218                      .dwattr $C$DW$30, DW_AT_TI_symbol_name("_uxIndex")
     219                      .dwattr $C$DW$30, DW_AT_type(*$C$DW$T$11)
     220                      .dwattr $C$DW$30, DW_AT_location[DW_OP_reg13]
     221              ;*******************************************************************************
     222              ;* FUNCTION NAME: xCoRoutineCreate                                             *
     223              ;*                                                                             *
     224              ;*   Function Uses Regs : AC0,AC0,T0,T1,AR0,XAR0,AR1,XAR1,AR2,XAR2,AR3,XAR3,SP,*
     225              ;*                        CARRY,TC1,M40,SATA,SATD,RDM,FRCT,SMUL                *
     226              ;*   Stack Frame        : Compact (No Frame Pointer, w/ debug)                 *
     227              ;*   Total Frame Size   : 10 words                                             *
     228              ;*                        (2 return address/alignment)                         *
     229              ;*                        (8 local values)                                     *
     230              ;*   Min System Stack   : 1 word                                               *
     231              ;*******************************************************************************
     232 000000       _xCoRoutineCreate:
     233                      .dwcfi  cfa_offset, 1
     234                      .dwcfi  save_reg_to_mem, 91, -1
     235 000000 4EF7          AADD #-9, SP
     236                      .dwcfi  cfa_offset, 10
     237              $C$DW$31        .dwtag  DW_TAG_variable, DW_AT_name("pxCoRoutineCode")
     238                      .dwattr $C$DW$31, DW_AT_TI_symbol_name("_pxCoRoutineCode")
     239                      .dwattr $C$DW$31, DW_AT_type(*$C$DW$T$22)
     240                      .dwattr $C$DW$31, DW_AT_location[DW_OP_bregx 0x24 0]
     241              $C$DW$32        .dwtag  DW_TAG_variable, DW_AT_name("uxPriority")
     242                      .dwattr $C$DW$32, DW_AT_TI_symbol_name("_uxPriority")
     243                      .dwattr $C$DW$32, DW_AT_type(*$C$DW$T$11)
     244                      .dwattr $C$DW$32, DW_AT_location[DW_OP_bregx 0x24 2]
     245              $C$DW$33        .dwtag  DW_TAG_variable, DW_AT_name("uxIndex")
     246                      .dwattr $C$DW$33, DW_AT_TI_symbol_name("_uxIndex")
     247                      .dwattr $C$DW$33, DW_AT_type(*$C$DW$T$11)
     248                      .dwattr $C$DW$33, DW_AT_location[DW_OP_bregx 0x24 3]
     249              $C$DW$34        .dwtag  DW_TAG_variable, DW_AT_name("xReturn")
     250                      .dwattr $C$DW$34, DW_AT_TI_symbol_name("_xReturn")
     251                      .dwattr $C$DW$34, DW_AT_type(*$C$DW$T$10)
     252                      .dwattr $C$DW$34, DW_AT_location[DW_OP_bregx 0x24 4]
     253              $C$DW$35        .dwtag  DW_TAG_variable, DW_AT_name("pxCoRoutine")
     254                      .dwattr $C$DW$35, DW_AT_TI_symbol_name("_pxCoRoutine")
     255                      .dwattr $C$DW$35, DW_AT_type(*$C$DW$T$60)
     256                      .dwattr $C$DW$35, DW_AT_location[DW_OP_bregx 0x24 6]
     257 000002 C506          MOV T1, *SP(#3) ; |126| 
     258 000004 C404          MOV T0, *SP(#2) ; |126| 
     259 000006 EB00          MOV AC0, dbl(*SP(#0)) ; |126| 
         000008 08   
     260                      .dwpsn  file "../FreeRTOS/Source/croutine.c",line 131,column 2,is_stmt
     261 000009 7600          MOV #26, T0 ; |131| 
         00000b 1A48 
     262              $C$DW$36        .dwtag  DW_TAG_TI_branch
     263                      .dwattr $C$DW$36, DW_AT_low_pc(0x00)
     264                      .dwattr $C$DW$36, DW_AT_name("_pvPortMalloc")
     265                      .dwattr $C$DW$36, DW_AT_TI_call
     266 00000d 6C00          CALL #_pvPortMalloc ; |131| 
TMS320C55x Assembler PC v4.4.1 Sat Sep 08 23:28:18 2018

Tools Copyright (c) 1996-2012 Texas Instruments Incorporated
croutine.asm                                                         PAGE    6

         00000f 0000!
     267                                                      ; call occurs [#_pvPortMalloc] ; |131| 
     268 000011 EB0C          MOV XAR0, dbl(*SP(#6))
         000013 85   
     269                      .dwpsn  file "../FreeRTOS/Source/croutine.c",line 132,column 2,is_stmt
     270 000014 ED0C          MOV dbl(*SP(#6)), XAR3
         000016 BF   
     271 000017 90B0          MOV XAR3, AC0
     272 000019 6D00          BCC $C$L4,AC0 == #0 ; |132| 
         00001b 00B5 
     273                                                      ; branchcc occurs ; |132| 
     274                      .dwpsn  file "../FreeRTOS/Source/croutine.c",line 136,column 3,is_stmt
     275 00001d ED31          MOV dbl(*(#_pxCurrentCoRoutine)), XAR3
         00001f BF00 
         000021 0036-
     276 000023 90B0          MOV XAR3, AC0
     277 000025 6610          BCC $C$L1,AC0 != #0 ; |136| 
     278                                                      ; branchcc occurs ; |136| 
     279                      .dwpsn  file "../FreeRTOS/Source/croutine.c",line 138,column 4,is_stmt
     280 000027 ED0C          MOV dbl(*SP(#6)), XAR3
         000029 BF   
     281 00002a EB31          MOV XAR3, dbl(*(#_pxCurrentCoRoutine))
         00002c B500 
         00002e 0036-
     282                      .dwpsn  file "../FreeRTOS/Source/croutine.c",line 139,column 4,is_stmt
     283              $C$DW$37        .dwtag  DW_TAG_TI_branch
     284                      .dwattr $C$DW$37, DW_AT_low_pc(0x00)
     285                      .dwattr $C$DW$37, DW_AT_name("_prvInitialiseCoRoutineLists")
     286                      .dwattr $C$DW$37, DW_AT_TI_call
     287 000030 0803          CALL #_prvInitialiseCoRoutineLists ; |139| 
         000032 35   
     288                                                      ; call occurs [#_prvInitialiseCoRoutineLists] ; |139| 
     289 000033       $C$L1:    
     290                      .dwpsn  file "../FreeRTOS/Source/croutine.c",line 143,column 3,is_stmt
     291              
     292 000033 A904          MOV *SP(#2), AR1 ; |143| 
     293 000035 3D2A  ||      MOV #2, AR2
     294              
     295 000037 1294          CMPU AR1 < AR2, TC1 ; |143| 
         000039 A4   
     296 00003a 61E4          BCC $C$L2,TC1 ; |143| 
     297                                                      ; branchcc occurs ; |143| 
     298                      .dwpsn  file "../FreeRTOS/Source/croutine.c",line 145,column 4,is_stmt
     299 00003c E604          MOV #1, *SP(#2) ; |145| 
         00003e 01   
     300 00003f       $C$L2:    
     301                      .dwpsn  file "../FreeRTOS/Source/croutine.c",line 149,column 3,is_stmt
     302 00003f ED0C          MOV dbl(*SP(#6)), XAR3
         000041 BF   
     303 000042 E66D          MOV #0, *AR3(#24) ; |149| 
         000044 0000 
         000046 18   
     304                      .dwpsn  file "../FreeRTOS/Source/croutine.c",line 150,column 3,is_stmt
     305 000047 ED0C          MOV dbl(*SP(#6)), XAR3
         000049 BF   
TMS320C55x Assembler PC v4.4.1 Sat Sep 08 23:28:18 2018

Tools Copyright (c) 1996-2012 Texas Instruments Incorporated
croutine.asm                                                         PAGE    7

     306 00004a A904          MOV *SP(#2), AR1 ; |150| 
     307 00004c C96D          MOV AR1, *AR3(#22) ; |150| 
         00004e 0016 
     308                      .dwpsn  file "../FreeRTOS/Source/croutine.c",line 151,column 3,is_stmt
     309 000050 ED0C          MOV dbl(*SP(#6)), XAR3
         000052 BF   
     310 000053 A906          MOV *SP(#3), AR1 ; |151| 
     311 000055 C96D          MOV AR1, *AR3(#23) ; |151| 
         000057 0017 
     312                      .dwpsn  file "../FreeRTOS/Source/croutine.c",line 152,column 3,is_stmt
     313 000059 ED0C          MOV dbl(*SP(#6)), XAR3
         00005b BF   
     314 00005c ED00          MOV dbl(*SP(#0)), AC0 ; |152| 
         00005e 08   
     315 00005f EB61          MOV AC0, dbl(*AR3) ; |152| 
         000061 08   
     316                      .dwpsn  file "../FreeRTOS/Source/croutine.c",line 155,column 3,is_stmt
     317 000062 ED0C          MOV dbl(*SP(#6)), XAR0
         000064 8F   
     318 000065 1402          AADD #2, AR0 ; |155| 
         000067 84   
     319              $C$DW$38        .dwtag  DW_TAG_TI_branch
     320                      .dwattr $C$DW$38, DW_AT_low_pc(0x00)
     321                      .dwattr $C$DW$38, DW_AT_name("_vListInitialiseItem")
     322                      .dwattr $C$DW$38, DW_AT_TI_call
     323 000068 6C00          CALL #_vListInitialiseItem ; |155| 
         00006a 0000!
     324                                                      ; call occurs [#_vListInitialiseItem] ; |155| 
     325                      .dwpsn  file "../FreeRTOS/Source/croutine.c",line 156,column 3,is_stmt
     326 00006c ED0C          MOV dbl(*SP(#6)), XAR0
         00006e 8F   
     327 00006f 140C          AADD #12, AR0 ; |156| 
         000071 84   
     328              $C$DW$39        .dwtag  DW_TAG_TI_branch
     329                      .dwattr $C$DW$39, DW_AT_low_pc(0x00)
     330                      .dwattr $C$DW$39, DW_AT_name("_vListInitialiseItem")
     331                      .dwattr $C$DW$39, DW_AT_TI_call
     332 000072 6C00          CALL #_vListInitialiseItem ; |156| 
         000074 0000!
     333                                                      ; call occurs [#_vListInitialiseItem] ; |156| 
     334                      .dwpsn  file "../FreeRTOS/Source/croutine.c",line 161,column 3,is_stmt
     335 000076 ED0C          MOV dbl(*SP(#6)), XAR2
         000078 AF   
     336 000079 ED0C          MOV dbl(*SP(#6)), XAR3
         00007b BF   
     337 00007c EB4D          MOV XAR3, dbl(*AR2(#8))
         00007e B500 
         000080 08   
     338                      .dwpsn  file "../FreeRTOS/Source/croutine.c",line 162,column 3,is_stmt
     339 000081 ED0C          MOV dbl(*SP(#6)), XAR2
         000083 AF   
     340 000084 ED0C          MOV dbl(*SP(#6)), XAR3
         000086 BF   
     341 000087 EB4D          MOV XAR3, dbl(*AR2(#18))
         000089 B500 
TMS320C55x Assembler PC v4.4.1 Sat Sep 08 23:28:18 2018

Tools Copyright (c) 1996-2012 Texas Instruments Incorporated
croutine.asm                                                         PAGE    8

         00008b 12   
     342                      .dwpsn  file "../FreeRTOS/Source/croutine.c",line 165,column 3,is_stmt
     343 00008c ED0C          MOV dbl(*SP(#6)), XAR3
         00008e BF   
     344 00008f 3C40          MOV #4, AC0
     345 000091 DF04          SUB uns(*SP(#2)), AC0, AC0 ; |165| 
         000093 0F   
     346 000094 C06D          MOV AC0, *AR3(#12) ; |165| 
         000096 000C 
     347                      .dwpsn  file "../FreeRTOS/Source/croutine.c",line 169,column 3,is_stmt
     348 000098 ED0C          MOV dbl(*SP(#6)), XAR3
         00009a BF   
     349 00009b A931          MOV *(#_uxTopCoRoutineReadyPriority), AR1 ; |169| 
         00009d 0000 
         00009f 38-  
     350 0000a0 AA6D          MOV *AR3(#22), AR2 ; |169| 
         0000a2 0016 
     351 0000a4 1298          CMPU AR2 <= AR1, TC1 ; |169| 
         0000a6 A4   
     352 0000a7 64E4          BCC $C$L3,TC1 ; |169| 
     353                                                      ; branchcc occurs ; |169| 
     354 0000a9 A96D          MOV *AR3(#22), AR1 ; |169| 
         0000ab 0016 
     355 0000ad C931          MOV AR1, *(#_uxTopCoRoutineReadyPriority) ; |169| 
         0000af 0000 
         0000b1 38-  
     356 0000b2       $C$L3:    
     357 0000b2 F86D          MPYMK *AR3(#22), #10, AC0 ; |169| 
         0000b4 0A00 
         0000b6 0016 
     358 0000b8 2209          MOV AC0, AR1 ; |169| 
     359 0000ba EC31          AMOV #_pxReadyCoRoutineLists, XAR0 ; |169| 
         0000bc 8E00 
         0000be 0000-
     360 0000c0 1490          AADD AR1, AR0 ; |169| 
         0000c2 80   
     361 0000c3 ED0C          MOV dbl(*SP(#6)), XAR1
         0000c5 9F   
     362 0000c6 1402          AADD #2, AR1 ; |169| 
         0000c8 94   
     363              $C$DW$40        .dwtag  DW_TAG_TI_branch
     364                      .dwattr $C$DW$40, DW_AT_low_pc(0x00)
     365                      .dwattr $C$DW$40, DW_AT_name("_vListInsertEnd")
     366                      .dwattr $C$DW$40, DW_AT_TI_call
     367 0000c9 6C00          CALL #_vListInsertEnd ; |169| 
         0000cb 0000!
     368                                                      ; call occurs [#_vListInsertEnd] ; |169| 
     369                      .dwpsn  file "../FreeRTOS/Source/croutine.c",line 171,column 3,is_stmt
     370 0000cd E608          MOV #1, *SP(#4) ; |171| 
         0000cf 01   
     371                      .dwpsn  file "../FreeRTOS/Source/croutine.c",line 172,column 2,is_stmt
     372 0000d0 4A03          B $C$L5   ; |172| 
     373                                                      ; branch occurs ; |172| 
     374 0000d2       $C$L4:    
     375                      .dwpsn  file "../FreeRTOS/Source/croutine.c",line 175,column 3,is_stmt
TMS320C55x Assembler PC v4.4.1 Sat Sep 08 23:28:18 2018

Tools Copyright (c) 1996-2012 Texas Instruments Incorporated
croutine.asm                                                         PAGE    9

     376 0000d2 E608          MOV #-1, *SP(#4) ; |175| 
         0000d4 FF   
     377 0000d5       $C$L5:    
     378                      .dwpsn  file "../FreeRTOS/Source/croutine.c",line 178,column 2,is_stmt
     379 0000d5 A408          MOV *SP(#4), T0 ; |178| 
     380                      .dwpsn  file "../FreeRTOS/Source/croutine.c",line 179,column 1,is_stmt
     381 0000d7 4E09          AADD #9, SP
     382                      .dwcfi  cfa_offset, 1
     383              $C$DW$41        .dwtag  DW_TAG_TI_branch
     384                      .dwattr $C$DW$41, DW_AT_low_pc(0x00)
     385                      .dwattr $C$DW$41, DW_AT_TI_return
     386 0000d9 4804          RET
     387                                                      ; return occurs
     388                      .dwattr $C$DW$27, DW_AT_TI_end_file("../FreeRTOS/Source/croutine.c")
     389                      .dwattr $C$DW$27, DW_AT_TI_end_line(0xb3)
     390                      .dwattr $C$DW$27, DW_AT_TI_end_column(0x01)
     391                      .dwendentry
     392                      .dwendtag $C$DW$27
     393              
     394 0000db               .sect   ".text"
     395                      .align 4
     396                      .global _vCoRoutineAddToDelayedList
     397              
     398              $C$DW$42        .dwtag  DW_TAG_subprogram, DW_AT_name("vCoRoutineAddToDelayedList")
     399                      .dwattr $C$DW$42, DW_AT_low_pc(_vCoRoutineAddToDelayedList)
     400                      .dwattr $C$DW$42, DW_AT_high_pc(0x00)
     401                      .dwattr $C$DW$42, DW_AT_TI_symbol_name("_vCoRoutineAddToDelayedList")
     402                      .dwattr $C$DW$42, DW_AT_external
     403                      .dwattr $C$DW$42, DW_AT_TI_begin_file("../FreeRTOS/Source/croutine.c")
     404                      .dwattr $C$DW$42, DW_AT_TI_begin_line(0xb6)
     405                      .dwattr $C$DW$42, DW_AT_TI_begin_column(0x06)
     406                      .dwattr $C$DW$42, DW_AT_TI_max_frame_size(0x06)
     407                      .dwpsn  file "../FreeRTOS/Source/croutine.c",line 183,column 1,is_stmt,address _vCoRoutineAddToDelaye
     408              
     409                      .dwfde $C$DW$CIE, _vCoRoutineAddToDelayedList
     410              $C$DW$43        .dwtag  DW_TAG_formal_parameter, DW_AT_name("xTicksToDelay")
     411                      .dwattr $C$DW$43, DW_AT_TI_symbol_name("_xTicksToDelay")
     412                      .dwattr $C$DW$43, DW_AT_type(*$C$DW$T$31)
     413                      .dwattr $C$DW$43, DW_AT_location[DW_OP_reg12]
     414              $C$DW$44        .dwtag  DW_TAG_formal_parameter, DW_AT_name("pxEventList")
     415                      .dwattr $C$DW$44, DW_AT_TI_symbol_name("_pxEventList")
     416                      .dwattr $C$DW$44, DW_AT_type(*$C$DW$T$41)
     417                      .dwattr $C$DW$44, DW_AT_location[DW_OP_reg17]
     418              ;*******************************************************************************
     419              ;* FUNCTION NAME: vCoRoutineAddToDelayedList                                   *
     420              ;*                                                                             *
     421              ;*   Function Uses Regs : AC0,AC0,T0,AR0,XAR0,AR1,XAR1,AR2,AR3,XAR3,SP,CARRY,  *
     422              ;*                        TC1,M40,SATA,SATD,RDM,FRCT,SMUL                      *
     423              ;*   Stack Frame        : Compact (No Frame Pointer, w/ debug)                 *
     424              ;*   Total Frame Size   : 6 words                                              *
     425              ;*                        (1 return address/alignment)                         *
     426              ;*                        (5 local values)                                     *
     427              ;*   Min System Stack   : 1 word                                               *
     428              ;*******************************************************************************
     429 0000dc       _vCoRoutineAddToDelayedList:
TMS320C55x Assembler PC v4.4.1 Sat Sep 08 23:28:18 2018

Tools Copyright (c) 1996-2012 Texas Instruments Incorporated
croutine.asm                                                         PAGE   10

     430                      .dwcfi  cfa_offset, 1
     431                      .dwcfi  save_reg_to_mem, 91, -1
     432 0000dc 4EFB          AADD #-5, SP
     433                      .dwcfi  cfa_offset, 6
     434              $C$DW$45        .dwtag  DW_TAG_variable, DW_AT_name("xTicksToDelay")
     435                      .dwattr $C$DW$45, DW_AT_TI_symbol_name("_xTicksToDelay")
     436                      .dwattr $C$DW$45, DW_AT_type(*$C$DW$T$31)
     437                      .dwattr $C$DW$45, DW_AT_location[DW_OP_bregx 0x24 0]
     438              $C$DW$46        .dwtag  DW_TAG_variable, DW_AT_name("pxEventList")
     439                      .dwattr $C$DW$46, DW_AT_TI_symbol_name("_pxEventList")
     440                      .dwattr $C$DW$46, DW_AT_type(*$C$DW$T$41)
     441                      .dwattr $C$DW$46, DW_AT_location[DW_OP_bregx 0x24 2]
     442              $C$DW$47        .dwtag  DW_TAG_variable, DW_AT_name("xTimeToWake")
     443                      .dwattr $C$DW$47, DW_AT_TI_symbol_name("_xTimeToWake")
     444                      .dwattr $C$DW$47, DW_AT_type(*$C$DW$T$31)
     445                      .dwattr $C$DW$47, DW_AT_location[DW_OP_bregx 0x24 4]
     446 0000de EB04          MOV XAR0, dbl(*SP(#2))
         0000e0 85   
     447 0000e1 C400          MOV T0, *SP(#0) ; |183| 
     448                      .dwpsn  file "../FreeRTOS/Source/croutine.c",line 188,column 2,is_stmt
     449 0000e3 2249          MOV T0, AR1
     450 0000e5 D631          ADD *(#_xCoRoutineTickCount), AR1, AR1 ; |188| 
         0000e7 9900 
         0000e9 0039-
     451 0000eb C908          MOV AR1, *SP(#4) ; |188| 
     452                      .dwpsn  file "../FreeRTOS/Source/croutine.c",line 193,column 2,is_stmt
     453 0000ed ED31          MOV dbl(*(#_pxCurrentCoRoutine)), XAR0
         0000ef 8F00 
         0000f1 0036-
     454 0000f3 1402          AADD #2, AR0 ; |193| 
         0000f5 84   
     455              $C$DW$48        .dwtag  DW_TAG_TI_branch
     456                      .dwattr $C$DW$48, DW_AT_low_pc(0x00)
     457                      .dwattr $C$DW$48, DW_AT_name("_vListRemove")
     458                      .dwattr $C$DW$48, DW_AT_TI_call
     459 0000f6 6C00          CALL #_vListRemove ; |193| 
         0000f8 0000!
     460                                                      ; call occurs [#_vListRemove] ; |193| 
     461                      .dwpsn  file "../FreeRTOS/Source/croutine.c",line 196,column 2,is_stmt
     462 0000fa ED31          MOV dbl(*(#_pxCurrentCoRoutine)), XAR3
         0000fc BF00 
         0000fe 0036-
     463 000100 A908          MOV *SP(#4), AR1 ; |196| 
     464 000102 C975          MOV AR1, *AR3(short(#2)) ; |196| 
     465                      .dwpsn  file "../FreeRTOS/Source/croutine.c",line 198,column 2,is_stmt
     466 000104 A931          MOV *(#_xCoRoutineTickCount), AR1 ; |198| 
         000106 0000 
         000108 39-  
     467 000109 AA08          MOV *SP(#4), AR2 ; |198| 
     468 00010b 12A8          CMPU AR2 >= AR1, TC1 ; |198| 
         00010d 94   
     469 00010e 0464          BCC $C$L6,TC1 ; |198| 
         000110 15   
     470                                                      ; branchcc occurs ; |198| 
     471                      .dwpsn  file "../FreeRTOS/Source/croutine.c",line 202,column 3,is_stmt
TMS320C55x Assembler PC v4.4.1 Sat Sep 08 23:28:18 2018

Tools Copyright (c) 1996-2012 Texas Instruments Incorporated
croutine.asm                                                         PAGE   11

     472 000111 ED31          MOV dbl(*(#_pxCurrentCoRoutine)), XAR1
         000113 9F00 
         000115 0036-
     473 000117 ED31          MOV dbl(*(#_pxOverflowDelayedCoRoutineList)), XAR0
         000119 8F00 
         00011b 002A-
     474 00011d 1402          AADD #2, AR1 ; |202| 
         00011f 94   
     475              $C$DW$49        .dwtag  DW_TAG_TI_branch
     476                      .dwattr $C$DW$49, DW_AT_low_pc(0x00)
     477                      .dwattr $C$DW$49, DW_AT_name("_vListInsert")
     478                      .dwattr $C$DW$49, DW_AT_TI_call
     479 000120 6C00          CALL #_vListInsert ; |202| 
         000122 0000!
     480                                                      ; call occurs [#_vListInsert] ; |202| 
     481                      .dwpsn  file "../FreeRTOS/Source/croutine.c",line 203,column 2,is_stmt
     482 000124 4A13          B $C$L7   ; |203| 
     483                                                      ; branch occurs ; |203| 
     484 000126       $C$L6:    
     485                      .dwpsn  file "../FreeRTOS/Source/croutine.c",line 208,column 3,is_stmt
     486 000126 ED31          MOV dbl(*(#_pxCurrentCoRoutine)), XAR1
         000128 9F00 
         00012a 0036-
     487 00012c ED31          MOV dbl(*(#_pxDelayedCoRoutineList)), XAR0
         00012e 8F00 
         000130 0028-
     488 000132 1402          AADD #2, AR1 ; |208| 
         000134 94   
     489              $C$DW$50        .dwtag  DW_TAG_TI_branch
     490                      .dwattr $C$DW$50, DW_AT_low_pc(0x00)
     491                      .dwattr $C$DW$50, DW_AT_name("_vListInsert")
     492                      .dwattr $C$DW$50, DW_AT_TI_call
     493 000135 6C00          CALL #_vListInsert ; |208| 
         000137 0000!
     494                                                      ; call occurs [#_vListInsert] ; |208| 
     495 000139       $C$L7:    
     496                      .dwpsn  file "../FreeRTOS/Source/croutine.c",line 211,column 2,is_stmt
     497 000139 ED04          MOV dbl(*SP(#2)), XAR3
         00013b BF   
     498 00013c 90B0          MOV XAR3, AC0
     499 00013e 0400          BCC $C$L8,AC0 == #0 ; |211| 
         000140 10   
     500                                                      ; branchcc occurs ; |211| 
     501                      .dwpsn  file "../FreeRTOS/Source/croutine.c",line 215,column 3,is_stmt
     502 000141 ED31          MOV dbl(*(#_pxCurrentCoRoutine)), XAR1
         000143 9F00 
         000145 0036-
     503 000147 ED04          MOV dbl(*SP(#2)), XAR0
         000149 8F   
     504 00014a 140C          AADD #12, AR1 ; |215| 
         00014c 94   
     505              $C$DW$51        .dwtag  DW_TAG_TI_branch
     506                      .dwattr $C$DW$51, DW_AT_low_pc(0x00)
     507                      .dwattr $C$DW$51, DW_AT_name("_vListInsert")
     508                      .dwattr $C$DW$51, DW_AT_TI_call
TMS320C55x Assembler PC v4.4.1 Sat Sep 08 23:28:18 2018

Tools Copyright (c) 1996-2012 Texas Instruments Incorporated
croutine.asm                                                         PAGE   12

     509 00014d 6C00          CALL #_vListInsert ; |215| 
         00014f 0000!
     510                                                      ; call occurs [#_vListInsert] ; |215| 
     511                      .dwpsn  file "../FreeRTOS/Source/croutine.c",line 217,column 1,is_stmt
     512 000151       $C$L8:    
     513 000151 4E05          AADD #5, SP
     514                      .dwcfi  cfa_offset, 1
     515              $C$DW$52        .dwtag  DW_TAG_TI_branch
     516                      .dwattr $C$DW$52, DW_AT_low_pc(0x00)
     517                      .dwattr $C$DW$52, DW_AT_TI_return
     518 000153 4804          RET
     519                                                      ; return occurs
     520                      .dwattr $C$DW$42, DW_AT_TI_end_file("../FreeRTOS/Source/croutine.c")
     521                      .dwattr $C$DW$42, DW_AT_TI_end_line(0xd9)
     522                      .dwattr $C$DW$42, DW_AT_TI_end_column(0x01)
     523                      .dwendentry
     524                      .dwendtag $C$DW$42
     525              
     526 000155               .sect   ".text"
     527                      .align 4
     528              
     529              $C$DW$53        .dwtag  DW_TAG_subprogram, DW_AT_name("prvCheckPendingReadyList")
     530                      .dwattr $C$DW$53, DW_AT_low_pc(_prvCheckPendingReadyList)
     531                      .dwattr $C$DW$53, DW_AT_high_pc(0x00)
     532                      .dwattr $C$DW$53, DW_AT_TI_symbol_name("_prvCheckPendingReadyList")
     533                      .dwattr $C$DW$53, DW_AT_TI_begin_file("../FreeRTOS/Source/croutine.c")
     534                      .dwattr $C$DW$53, DW_AT_TI_begin_line(0xdc)
     535                      .dwattr $C$DW$53, DW_AT_TI_begin_column(0x0d)
     536                      .dwattr $C$DW$53, DW_AT_TI_max_frame_size(0x04)
     537                      .dwpsn  file "../FreeRTOS/Source/croutine.c",line 221,column 1,is_stmt,address _prvCheckPendingReadyL
     538              
     539                      .dwfde $C$DW$CIE, _prvCheckPendingReadyList
     540              ;*******************************************************************************
     541              ;* FUNCTION NAME: prvCheckPendingReadyList                                     *
     542              ;*                                                                             *
     543              ;*   Function Uses Regs : AC0,AR0,XAR0,AR1,XAR1,AR2,AR3,XAR3,SP,TC1,M40,SATA,  *
     544              ;*                        SATD,RDM,FRCT,SMUL                                   *
     545              ;*   Stack Frame        : Compact (No Frame Pointer, w/ debug)                 *
     546              ;*   Total Frame Size   : 4 words                                              *
     547              ;*                        (2 return address/alignment)                         *
     548              ;*                        (2 local values)                                     *
     549              ;*   Min System Stack   : 1 word                                               *
     550              ;*******************************************************************************
     551 000158       _prvCheckPendingReadyList:
     552                      .dwcfi  cfa_offset, 1
     553                      .dwcfi  save_reg_to_mem, 91, -1
     554 000158 4EFD          AADD #-3, SP
     555                      .dwcfi  cfa_offset, 4
     556                      .dwpsn  file "../FreeRTOS/Source/croutine.c",line 225,column 9,is_stmt
     557 00015a A931          MOV *(#_xPendingReadyCoRoutineList), AR1 ; |225| 
         00015c 0000 
         00015e 2C-  
     558 00015f 0409          BCC $C$L13,AR1 == #0 ; |225| 
         000161 72   
     559                                                      ; branchcc occurs ; |225| 
TMS320C55x Assembler PC v4.4.1 Sat Sep 08 23:28:18 2018

Tools Copyright (c) 1996-2012 Texas Instruments Incorporated
croutine.asm                                                         PAGE   13

     560 000162       $C$L9:    
     561 000162       $C$DW$L$_prvCheckPendingReadyList$2$B:
     562              
     563              $C$DW$54        .dwtag  DW_TAG_lexical_block, DW_AT_low_pc(0x00), DW_AT_high_pc(0x00)
     564              $C$DW$55        .dwtag  DW_TAG_variable, DW_AT_name("pxUnblockedCRCB")
     565                      .dwattr $C$DW$55, DW_AT_TI_symbol_name("_pxUnblockedCRCB")
     566                      .dwattr $C$DW$55, DW_AT_type(*$C$DW$T$60)
     567                      .dwattr $C$DW$55, DW_AT_location[DW_OP_bregx 0x24 0]
     568                      .dwpsn  file "../FreeRTOS/Source/croutine.c",line 230,column 3,is_stmt
     569 000162 20     nop
     570 000163 46B3   bset INTM
     571                      .dwpsn  file "../FreeRTOS/Source/croutine.c",line 232,column 4,is_stmt
     572 000165 A931          MOV *(#_xPendingReadyCoRoutineList), AR1 ; |232| 
         000167 0000 
         000169 2C-  
     573 00016a 6589          BCC $C$L10,AR1 == #0 ; |232| 
     574                                                      ; branchcc occurs ; |232| 
     575 00016c       $C$DW$L$_prvCheckPendingReadyList$2$E:
     576 00016c       $C$DW$L$_prvCheckPendingReadyList$3$B:
     577 00016c ED31          MOV dbl(*(#(_xPendingReadyCoRoutineList+6))), XAR3
         00016e BF00 
         000170 0032-
     578 000172 ED7D          MOV dbl(*AR3(short(#6))), XAR3
         000174 BF   
     579 000175 4A06          B $C$L11  ; |232| 
     580                                                      ; branch occurs ; |232| 
     581 000177       $C$DW$L$_prvCheckPendingReadyList$3$E:
     582 000177       $C$L10:    
     583 000177       $C$DW$L$_prvCheckPendingReadyList$4$B:
     584 000177 EC31          AMOV #0, XAR3 ; |232| 
         000179 BE00 
         00017b 0000 
     585 00017d       $C$DW$L$_prvCheckPendingReadyList$4$E:
     586 00017d       $C$L11:    
     587 00017d       $C$DW$L$_prvCheckPendingReadyList$5$B:
     588 00017d EB00          MOV XAR3, dbl(*SP(#0))
         00017f B5   
     589                      .dwpsn  file "../FreeRTOS/Source/croutine.c",line 233,column 4,is_stmt
     590 000180 ED00          MOV dbl(*SP(#0)), XAR0
         000182 8F   
     591 000183 140C          AADD #12, AR0 ; |233| 
         000185 84   
     592              $C$DW$56        .dwtag  DW_TAG_TI_branch
     593                      .dwattr $C$DW$56, DW_AT_low_pc(0x00)
     594                      .dwattr $C$DW$56, DW_AT_name("_vListRemove")
     595                      .dwattr $C$DW$56, DW_AT_TI_call
     596 000186 6C00          CALL #_vListRemove ; |233| 
         000188 0000!
     597                                                      ; call occurs [#_vListRemove] ; |233| 
     598                      .dwpsn  file "../FreeRTOS/Source/croutine.c",line 235,column 3,is_stmt
     599 00018a 20     nop
     600 00018b 46B2   bclr INTM
     601                      .dwpsn  file "../FreeRTOS/Source/croutine.c",line 237,column 3,is_stmt
     602 00018d ED00          MOV dbl(*SP(#0)), XAR0
         00018f 8F   
TMS320C55x Assembler PC v4.4.1 Sat Sep 08 23:28:18 2018

Tools Copyright (c) 1996-2012 Texas Instruments Incorporated
croutine.asm                                                         PAGE   14

     603 000190 1402          AADD #2, AR0 ; |237| 
         000192 84   
     604              $C$DW$57        .dwtag  DW_TAG_TI_branch
     605                      .dwattr $C$DW$57, DW_AT_low_pc(0x00)
     606                      .dwattr $C$DW$57, DW_AT_name("_vListRemove")
     607                      .dwattr $C$DW$57, DW_AT_TI_call
     608 000193 6C00          CALL #_vListRemove ; |237| 
         000195 0000!
     609                                                      ; call occurs [#_vListRemove] ; |237| 
     610                      .dwpsn  file "../FreeRTOS/Source/croutine.c",line 238,column 3,is_stmt
     611 000197 ED00          MOV dbl(*SP(#0)), XAR3
         000199 BF   
     612 00019a A931          MOV *(#_uxTopCoRoutineReadyPriority), AR1 ; |238| 
         00019c 0000 
         00019e 38-  
     613 00019f AA6D          MOV *AR3(#22), AR2 ; |238| 
         0001a1 0016 
     614 0001a3 1298          CMPU AR2 <= AR1, TC1 ; |238| 
         0001a5 A4   
     615 0001a6 64E4          BCC $C$L12,TC1 ; |238| 
     616                                                      ; branchcc occurs ; |238| 
     617 0001a8       $C$DW$L$_prvCheckPendingReadyList$5$E:
     618 0001a8       $C$DW$L$_prvCheckPendingReadyList$6$B:
     619 0001a8 A96D          MOV *AR3(#22), AR1 ; |238| 
         0001aa 0016 
     620 0001ac C931          MOV AR1, *(#_uxTopCoRoutineReadyPriority) ; |238| 
         0001ae 0000 
         0001b0 38-  
     621 0001b1       $C$DW$L$_prvCheckPendingReadyList$6$E:
     622 0001b1       $C$L12:    
     623 0001b1       $C$DW$L$_prvCheckPendingReadyList$7$B:
     624 0001b1 F86D          MPYMK *AR3(#22), #10, AC0 ; |238| 
         0001b3 0A00 
         0001b5 0016 
     625 0001b7 2209          MOV AC0, AR1 ; |238| 
     626 0001b9 EC31          AMOV #_pxReadyCoRoutineLists, XAR0 ; |238| 
         0001bb 8E00 
         0001bd 0000-
     627 0001bf 1490          AADD AR1, AR0 ; |238| 
         0001c1 80   
     628 0001c2 ED00          MOV dbl(*SP(#0)), XAR1
         0001c4 9F   
     629 0001c5 1402          AADD #2, AR1 ; |238| 
         0001c7 94   
     630              $C$DW$58        .dwtag  DW_TAG_TI_branch
     631                      .dwattr $C$DW$58, DW_AT_low_pc(0x00)
     632                      .dwattr $C$DW$58, DW_AT_name("_vListInsertEnd")
     633                      .dwattr $C$DW$58, DW_AT_TI_call
     634 0001c8 6C00          CALL #_vListInsertEnd ; |238| 
         0001ca 0000!
     635                                                      ; call occurs [#_vListInsertEnd] ; |238| 
     636                      .dwendtag $C$DW$54
     637              
     638                      .dwpsn  file "../FreeRTOS/Source/croutine.c",line 225,column 9,is_stmt
     639 0001cc A931          MOV *(#_xPendingReadyCoRoutineList), AR1 ; |225| 
TMS320C55x Assembler PC v4.4.1 Sat Sep 08 23:28:18 2018

Tools Copyright (c) 1996-2012 Texas Instruments Incorporated
croutine.asm                                                         PAGE   15

         0001ce 0000 
         0001d0 2C-  
     640 0001d1 0419          BCC $C$L9,AR1 != #0 ; |225| 
         0001d3 8E   
     641                                                      ; branchcc occurs ; |225| 
     642 0001d4       $C$DW$L$_prvCheckPendingReadyList$7$E:
     643                      .dwpsn  file "../FreeRTOS/Source/croutine.c",line 240,column 1,is_stmt
     644 0001d4       $C$L13:    
     645 0001d4 4E03          AADD #3, SP
     646                      .dwcfi  cfa_offset, 1
     647              $C$DW$59        .dwtag  DW_TAG_TI_branch
     648                      .dwattr $C$DW$59, DW_AT_low_pc(0x00)
     649                      .dwattr $C$DW$59, DW_AT_TI_return
     650 0001d6 4804          RET
     651                                                      ; return occurs
     652              
     653              $C$DW$60        .dwtag  DW_TAG_TI_loop
     654                      .dwattr $C$DW$60, DW_AT_name("F:\eZdsp_C55x_FreeRTOS_Port\VerifiedOKInDbg\eZDSP_5535_Files\ccsws2\tes
     655                      .dwattr $C$DW$60, DW_AT_TI_begin_file("../FreeRTOS/Source/croutine.c")
     656                      .dwattr $C$DW$60, DW_AT_TI_begin_line(0xe1)
     657                      .dwattr $C$DW$60, DW_AT_TI_end_line(0xef)
     658              $C$DW$61        .dwtag  DW_TAG_TI_loop_range
     659                      .dwattr $C$DW$61, DW_AT_low_pc($C$DW$L$_prvCheckPendingReadyList$2$B)
     660                      .dwattr $C$DW$61, DW_AT_high_pc($C$DW$L$_prvCheckPendingReadyList$2$E)
     661              $C$DW$62        .dwtag  DW_TAG_TI_loop_range
     662                      .dwattr $C$DW$62, DW_AT_low_pc($C$DW$L$_prvCheckPendingReadyList$3$B)
     663                      .dwattr $C$DW$62, DW_AT_high_pc($C$DW$L$_prvCheckPendingReadyList$3$E)
     664              $C$DW$63        .dwtag  DW_TAG_TI_loop_range
     665                      .dwattr $C$DW$63, DW_AT_low_pc($C$DW$L$_prvCheckPendingReadyList$4$B)
     666                      .dwattr $C$DW$63, DW_AT_high_pc($C$DW$L$_prvCheckPendingReadyList$4$E)
     667              $C$DW$64        .dwtag  DW_TAG_TI_loop_range
     668                      .dwattr $C$DW$64, DW_AT_low_pc($C$DW$L$_prvCheckPendingReadyList$5$B)
     669                      .dwattr $C$DW$64, DW_AT_high_pc($C$DW$L$_prvCheckPendingReadyList$5$E)
     670              $C$DW$65        .dwtag  DW_TAG_TI_loop_range
     671                      .dwattr $C$DW$65, DW_AT_low_pc($C$DW$L$_prvCheckPendingReadyList$6$B)
     672                      .dwattr $C$DW$65, DW_AT_high_pc($C$DW$L$_prvCheckPendingReadyList$6$E)
     673              $C$DW$66        .dwtag  DW_TAG_TI_loop_range
     674                      .dwattr $C$DW$66, DW_AT_low_pc($C$DW$L$_prvCheckPendingReadyList$7$B)
     675                      .dwattr $C$DW$66, DW_AT_high_pc($C$DW$L$_prvCheckPendingReadyList$7$E)
     676                      .dwendtag $C$DW$60
     677              
     678                      .dwattr $C$DW$53, DW_AT_TI_end_file("../FreeRTOS/Source/croutine.c")
     679                      .dwattr $C$DW$53, DW_AT_TI_end_line(0xf0)
     680                      .dwattr $C$DW$53, DW_AT_TI_end_column(0x01)
     681                      .dwendentry
     682                      .dwendtag $C$DW$53
     683              
     684 0001d8               .sect   ".text"
     685                      .align 4
     686              
     687              $C$DW$67        .dwtag  DW_TAG_subprogram, DW_AT_name("prvCheckDelayedList")
     688                      .dwattr $C$DW$67, DW_AT_low_pc(_prvCheckDelayedList)
     689                      .dwattr $C$DW$67, DW_AT_high_pc(0x00)
     690                      .dwattr $C$DW$67, DW_AT_TI_symbol_name("_prvCheckDelayedList")
     691                      .dwattr $C$DW$67, DW_AT_TI_begin_file("../FreeRTOS/Source/croutine.c")
TMS320C55x Assembler PC v4.4.1 Sat Sep 08 23:28:18 2018

Tools Copyright (c) 1996-2012 Texas Instruments Incorporated
croutine.asm                                                         PAGE   16

     692                      .dwattr $C$DW$67, DW_AT_TI_begin_line(0xf3)
     693                      .dwattr $C$DW$67, DW_AT_TI_begin_column(0x0d)
     694                      .dwattr $C$DW$67, DW_AT_TI_max_frame_size(0x06)
     695                      .dwpsn  file "../FreeRTOS/Source/croutine.c",line 244,column 1,is_stmt,address _prvCheckDelayedList
     696              
     697                      .dwfde $C$DW$CIE, _prvCheckDelayedList
     698              ;*******************************************************************************
     699              ;* FUNCTION NAME: prvCheckDelayedList                                          *
     700              ;*                                                                             *
     701              ;*   Function Uses Regs : AC0,AC0,T0,AR0,XAR0,AR1,XAR1,AR2,AR3,XAR3,SP,CARRY,  *
     702              ;*                        TC1,M40,SATA,SATD,RDM,FRCT,SMUL                      *
     703              ;*   Stack Frame        : Compact (No Frame Pointer, w/ debug)                 *
     704              ;*   Total Frame Size   : 6 words                                              *
     705              ;*                        (2 return address/alignment)                         *
     706              ;*                        (4 local values)                                     *
     707              ;*   Min System Stack   : 1 word                                               *
     708              ;*******************************************************************************
     709 0001d8       _prvCheckDelayedList:
     710                      .dwcfi  cfa_offset, 1
     711                      .dwcfi  save_reg_to_mem, 91, -1
     712 0001d8 4EFB          AADD #-5, SP
     713                      .dwcfi  cfa_offset, 6
     714              $C$DW$68        .dwtag  DW_TAG_variable, DW_AT_name("pxCRCB")
     715                      .dwattr $C$DW$68, DW_AT_TI_symbol_name("_pxCRCB")
     716                      .dwattr $C$DW$68, DW_AT_type(*$C$DW$T$60)
     717                      .dwattr $C$DW$68, DW_AT_location[DW_OP_bregx 0x24 0]
     718                      .dwpsn  file "../FreeRTOS/Source/croutine.c",line 247,column 2,is_stmt
     719              $C$DW$69        .dwtag  DW_TAG_TI_branch
     720                      .dwattr $C$DW$69, DW_AT_low_pc(0x00)
     721                      .dwattr $C$DW$69, DW_AT_name("_xTaskGetTickCount")
     722                      .dwattr $C$DW$69, DW_AT_TI_call
     723 0001da 6C00          CALL #_xTaskGetTickCount ; |247| 
         0001dc 0000!
     724                                                      ; call occurs [#_xTaskGetTickCount] ; |247| 
     725 0001de 2240          MOV T0, AC0 ; |247| 
     726 0001e0 DF31          SUB uns(*(#_xLastTickCount)), AC0, AC0 ; |247| 
         0001e2 0F00 
         0001e4 003A-
     727 0001e6 C031          MOV AC0, *(#_xPassedTicks) ; |247| 
         0001e8 0000 
         0001ea 3B-  
     728                      .dwpsn  file "../FreeRTOS/Source/croutine.c",line 248,column 2,is_stmt
     729 0001eb 2209          MOV AC0, AR1
     730 0001ed 6D09          BCC $C$L22,AR1 == #0 ; |248| 
         0001ef 00CA 
     731                                                      ; branchcc occurs ; |248| 
     732 0001f1       $C$L14:    
     733 0001f1       $C$DW$L$_prvCheckDelayedList$2$B:
     734                      .dwpsn  file "../FreeRTOS/Source/croutine.c",line 250,column 3,is_stmt
     735 0001f1 F731          ADD #1, *(#_xCoRoutineTickCount) ; |250| 
         0001f3 0001 
         0001f5 0000 
         0001f7 39-  
     736                      .dwpsn  file "../FreeRTOS/Source/croutine.c",line 251,column 3,is_stmt
     737 0001f8 F731          SUB #1, *(#_xPassedTicks) ; |251| 
TMS320C55x Assembler PC v4.4.1 Sat Sep 08 23:28:18 2018

Tools Copyright (c) 1996-2012 Texas Instruments Incorporated
croutine.asm                                                         PAGE   17

         0001fa FFFF 
         0001fc 0000 
         0001fe 3B-  
     738                      .dwpsn  file "../FreeRTOS/Source/croutine.c",line 254,column 3,is_stmt
     739 0001ff A931          MOV *(#_xCoRoutineTickCount), AR1 ; |254| 
         000201 0000 
         000203 39-  
     740 000204 6D19          BCC $C$L18,AR1 != #0 ; |254| 
         000206 0089 
     741                                                      ; branchcc occurs ; |254| 
     742 000208       $C$DW$L$_prvCheckDelayedList$2$E:
     743 000208       $C$DW$L$_prvCheckDelayedList$3$B:
     744              
     745              $C$DW$70        .dwtag  DW_TAG_lexical_block, DW_AT_low_pc(0x00), DW_AT_high_pc(0x00)
     746              $C$DW$71        .dwtag  DW_TAG_variable, DW_AT_name("pxTemp")
     747                      .dwattr $C$DW$71, DW_AT_TI_symbol_name("_pxTemp")
     748                      .dwattr $C$DW$71, DW_AT_type(*$C$DW$T$41)
     749                      .dwattr $C$DW$71, DW_AT_location[DW_OP_bregx 0x24 2]
     750                      .dwpsn  file "../FreeRTOS/Source/croutine.c",line 260,column 4,is_stmt
     751 000208 ED31          MOV dbl(*(#_pxDelayedCoRoutineList)), XAR3
         00020a BF00 
         00020c 0028-
     752 00020e EB04          MOV XAR3, dbl(*SP(#2))
         000210 B5   
     753                      .dwpsn  file "../FreeRTOS/Source/croutine.c",line 261,column 4,is_stmt
     754 000211 ED31          MOV dbl(*(#_pxOverflowDelayedCoRoutineList)), XAR3
         000213 BF00 
         000215 002A-
     755 000217 EB31          MOV XAR3, dbl(*(#_pxDelayedCoRoutineList))
         000219 B500 
         00021b 0028-
     756                      .dwpsn  file "../FreeRTOS/Source/croutine.c",line 262,column 4,is_stmt
     757 00021d ED04          MOV dbl(*SP(#2)), XAR3
         00021f BF   
     758 000220 EB31          MOV XAR3, dbl(*(#_pxOverflowDelayedCoRoutineList))
         000222 B500 
         000224 002A-
     759                      .dwendtag $C$DW$70
     760              
     761                      .dwpsn  file "../FreeRTOS/Source/croutine.c",line 266,column 3,is_stmt
     762 000226 0600          B $C$L18  ; |266| 
         000228 68   
     763                                                      ; branch occurs ; |266| 
     764 000229       $C$DW$L$_prvCheckDelayedList$3$E:
     765 000229       $C$L15:    
     766 000229       $C$DW$L$_prvCheckDelayedList$4$B:
     767                      .dwpsn  file "../FreeRTOS/Source/croutine.c",line 268,column 4,is_stmt
     768 000229 A975          MOV *AR3(short(#2)), AR1 ; |268| 
     769 00022b AA31          MOV *(#_xCoRoutineTickCount), AR2 ; |268| 
         00022d 0000 
         00022f 39-  
     770 000230 12A8          CMPU AR2 >= AR1, TC1 ; |268| 
         000232 94   
     771 000233 0474          BCC $C$L21,!TC1 ; |268| 
         000235 7C   
TMS320C55x Assembler PC v4.4.1 Sat Sep 08 23:28:18 2018

Tools Copyright (c) 1996-2012 Texas Instruments Incorporated
croutine.asm                                                         PAGE   18

     772                                                      ; branchcc occurs ; |268| 
     773 000236       $C$DW$L$_prvCheckDelayedList$4$E:
     774 000236       $C$DW$L$_prvCheckDelayedList$5$B:
     775                      .dwpsn  file "../FreeRTOS/Source/croutine.c",line 271,column 5,is_stmt
     776                      .dwpsn  file "../FreeRTOS/Source/croutine.c",line 274,column 4,is_stmt
     777 000236 20     nop
     778 000237 46B3   bset INTM
     779                      .dwpsn  file "../FreeRTOS/Source/croutine.c",line 281,column 5,is_stmt
     780 000239 ED00          MOV dbl(*SP(#0)), XAR0
         00023b 8F   
     781 00023c 1402          AADD #2, AR0 ; |281| 
         00023e 84   
     782              $C$DW$72        .dwtag  DW_TAG_TI_branch
     783                      .dwattr $C$DW$72, DW_AT_low_pc(0x00)
     784                      .dwattr $C$DW$72, DW_AT_name("_vListRemove")
     785                      .dwattr $C$DW$72, DW_AT_TI_call
     786 00023f 6C00          CALL #_vListRemove ; |281| 
         000241 0000!
     787                                                      ; call occurs [#_vListRemove] ; |281| 
     788                      .dwpsn  file "../FreeRTOS/Source/croutine.c",line 284,column 5,is_stmt
     789 000243 ED00          MOV dbl(*SP(#0)), XAR3
         000245 BF   
     790 000246 ED6D          MOV dbl(*AR3(#20)), XAR3
         000248 BF00 
         00024a 14   
     791 00024b 90B0          MOV XAR3, AC0
     792 00024d 6500          BCC $C$L16,AC0 == #0 ; |284| 
     793                                                      ; branchcc occurs ; |284| 
     794 00024f       $C$DW$L$_prvCheckDelayedList$5$E:
     795 00024f       $C$DW$L$_prvCheckDelayedList$6$B:
     796                      .dwpsn  file "../FreeRTOS/Source/croutine.c",line 286,column 6,is_stmt
     797 00024f ED00          MOV dbl(*SP(#0)), XAR0
         000251 8F   
     798 000252 140C          AADD #12, AR0 ; |286| 
         000254 84   
     799              $C$DW$73        .dwtag  DW_TAG_TI_branch
     800                      .dwattr $C$DW$73, DW_AT_low_pc(0x00)
     801                      .dwattr $C$DW$73, DW_AT_name("_vListRemove")
     802                      .dwattr $C$DW$73, DW_AT_TI_call
     803 000255 6C00          CALL #_vListRemove ; |286| 
         000257 0000!
     804                                                      ; call occurs [#_vListRemove] ; |286| 
     805 000259       $C$DW$L$_prvCheckDelayedList$6$E:
     806 000259       $C$L16:    
     807 000259       $C$DW$L$_prvCheckDelayedList$7$B:
     808                      .dwpsn  file "../FreeRTOS/Source/croutine.c",line 289,column 4,is_stmt
     809 000259 20     nop
     810 00025a 46B2   bclr INTM
     811                      .dwpsn  file "../FreeRTOS/Source/croutine.c",line 291,column 4,is_stmt
     812 00025c ED00          MOV dbl(*SP(#0)), XAR3
         00025e BF   
     813 00025f A931          MOV *(#_uxTopCoRoutineReadyPriority), AR1 ; |291| 
         000261 0000 
         000263 38-  
     814 000264 AA6D          MOV *AR3(#22), AR2 ; |291| 
TMS320C55x Assembler PC v4.4.1 Sat Sep 08 23:28:18 2018

Tools Copyright (c) 1996-2012 Texas Instruments Incorporated
croutine.asm                                                         PAGE   19

         000266 0016 
     815 000268 1298          CMPU AR2 <= AR1, TC1 ; |291| 
         00026a A4   
     816 00026b 64E4          BCC $C$L17,TC1 ; |291| 
     817                                                      ; branchcc occurs ; |291| 
     818 00026d       $C$DW$L$_prvCheckDelayedList$7$E:
     819 00026d       $C$DW$L$_prvCheckDelayedList$8$B:
     820 00026d A96D          MOV *AR3(#22), AR1 ; |291| 
         00026f 0016 
     821 000271 C931          MOV AR1, *(#_uxTopCoRoutineReadyPriority) ; |291| 
         000273 0000 
         000275 38-  
     822 000276       $C$DW$L$_prvCheckDelayedList$8$E:
     823 000276       $C$L17:    
     824 000276       $C$DW$L$_prvCheckDelayedList$9$B:
     825 000276 F86D          MPYMK *AR3(#22), #10, AC0 ; |291| 
         000278 0A00 
         00027a 0016 
     826 00027c 2209          MOV AC0, AR1 ; |291| 
     827 00027e EC31          AMOV #_pxReadyCoRoutineLists, XAR0 ; |291| 
         000280 8E00 
         000282 0000-
     828 000284 1490          AADD AR1, AR0 ; |291| 
         000286 80   
     829 000287 ED00          MOV dbl(*SP(#0)), XAR1
         000289 9F   
     830 00028a 1402          AADD #2, AR1 ; |291| 
         00028c 94   
     831              $C$DW$74        .dwtag  DW_TAG_TI_branch
     832                      .dwattr $C$DW$74, DW_AT_low_pc(0x00)
     833                      .dwattr $C$DW$74, DW_AT_name("_vListInsertEnd")
     834                      .dwattr $C$DW$74, DW_AT_TI_call
     835 00028d 6C00          CALL #_vListInsertEnd ; |291| 
         00028f 0000!
     836                                                      ; call occurs [#_vListInsertEnd] ; |291| 
     837 000291       $C$DW$L$_prvCheckDelayedList$9$E:
     838 000291       $C$L18:    
     839 000291       $C$DW$L$_prvCheckDelayedList$10$B:
     840                      .dwpsn  file "../FreeRTOS/Source/croutine.c",line 266,column 10,is_stmt
     841 000291 ED31          MOV dbl(*(#_pxDelayedCoRoutineList)), XAR3
         000293 BF00 
         000295 0028-
     842 000297 A961          MOV *AR3, AR1 ; |266| 
     843 000299 6409          BCC $C$L19,AR1 == #0 ; |266| 
     844                                                      ; branchcc occurs ; |266| 
     845 00029b       $C$DW$L$_prvCheckDelayedList$10$E:
     846 00029b       $C$DW$L$_prvCheckDelayedList$11$B:
     847 00029b ED7D          MOV dbl(*AR3(short(#6))), XAR3
         00029d BF   
     848 00029e ED7D          MOV dbl(*AR3(short(#6))), XAR3
         0002a0 BF   
     849 0002a1 4A06          B $C$L20  ; |266| 
     850                                                      ; branch occurs ; |266| 
     851 0002a3       $C$DW$L$_prvCheckDelayedList$11$E:
     852 0002a3       $C$L19:    
TMS320C55x Assembler PC v4.4.1 Sat Sep 08 23:28:18 2018

Tools Copyright (c) 1996-2012 Texas Instruments Incorporated
croutine.asm                                                         PAGE   20

     853 0002a3       $C$DW$L$_prvCheckDelayedList$12$B:
     854 0002a3 EC31          AMOV #0, XAR3 ; |266| 
         0002a5 BE00 
         0002a7 0000 
     855 0002a9       $C$DW$L$_prvCheckDelayedList$12$E:
     856 0002a9       $C$L20:    
     857 0002a9       $C$DW$L$_prvCheckDelayedList$13$B:
     858 0002a9 90B0          MOV XAR3, AC0
     859 0002ab EB00          MOV AC0, dbl(*SP(#0))
         0002ad 08   
     860 0002ae 6D10          BCC $C$L15,AC0 != #0 ; |266| 
         0002b0 FF77 
     861                                                      ; branchcc occurs ; |266| 
     862 0002b2       $C$DW$L$_prvCheckDelayedList$13$E:
     863 0002b2       $C$L21:    
     864 0002b2       $C$DW$L$_prvCheckDelayedList$14$B:
     865                      .dwpsn  file "../FreeRTOS/Source/croutine.c",line 293,column 2,is_stmt
     866 0002b2 A931          MOV *(#_xPassedTicks), AR1 ; |293| 
         0002b4 0000 
         0002b6 3B-  
     867 0002b7 6D19          BCC $C$L14,AR1 != #0 ; |293| 
         0002b9 FF36 
     868                                                      ; branchcc occurs ; |293| 
     869 0002bb       $C$DW$L$_prvCheckDelayedList$14$E:
     870 0002bb       $C$L22:    
     871                      .dwpsn  file "../FreeRTOS/Source/croutine.c",line 295,column 2,is_stmt
     872 0002bb A931          MOV *(#_xCoRoutineTickCount), AR1 ; |295| 
         0002bd 0000 
         0002bf 39-  
     873 0002c0 C931          MOV AR1, *(#_xLastTickCount) ; |295| 
         0002c2 0000 
         0002c4 3A-  
     874                      .dwpsn  file "../FreeRTOS/Source/croutine.c",line 296,column 1,is_stmt
     875 0002c5 4E05          AADD #5, SP
     876                      .dwcfi  cfa_offset, 1
     877              $C$DW$75        .dwtag  DW_TAG_TI_branch
     878                      .dwattr $C$DW$75, DW_AT_low_pc(0x00)
     879                      .dwattr $C$DW$75, DW_AT_TI_return
     880 0002c7 4804          RET
     881                                                      ; return occurs
     882              
     883              $C$DW$76        .dwtag  DW_TAG_TI_loop
     884                      .dwattr $C$DW$76, DW_AT_name("F:\eZdsp_C55x_FreeRTOS_Port\VerifiedOKInDbg\eZDSP_5535_Files\ccsws2\tes
     885                      .dwattr $C$DW$76, DW_AT_TI_begin_file("../FreeRTOS/Source/croutine.c")
     886                      .dwattr $C$DW$76, DW_AT_TI_begin_line(0xf8)
     887                      .dwattr $C$DW$76, DW_AT_TI_end_line(0x125)
     888              $C$DW$77        .dwtag  DW_TAG_TI_loop_range
     889                      .dwattr $C$DW$77, DW_AT_low_pc($C$DW$L$_prvCheckDelayedList$2$B)
     890                      .dwattr $C$DW$77, DW_AT_high_pc($C$DW$L$_prvCheckDelayedList$2$E)
     891              $C$DW$78        .dwtag  DW_TAG_TI_loop_range
     892                      .dwattr $C$DW$78, DW_AT_low_pc($C$DW$L$_prvCheckDelayedList$3$B)
     893                      .dwattr $C$DW$78, DW_AT_high_pc($C$DW$L$_prvCheckDelayedList$3$E)
     894              $C$DW$79        .dwtag  DW_TAG_TI_loop_range
     895                      .dwattr $C$DW$79, DW_AT_low_pc($C$DW$L$_prvCheckDelayedList$14$B)
     896                      .dwattr $C$DW$79, DW_AT_high_pc($C$DW$L$_prvCheckDelayedList$14$E)
TMS320C55x Assembler PC v4.4.1 Sat Sep 08 23:28:18 2018

Tools Copyright (c) 1996-2012 Texas Instruments Incorporated
croutine.asm                                                         PAGE   21

     897              
     898              $C$DW$80        .dwtag  DW_TAG_TI_loop
     899                      .dwattr $C$DW$80, DW_AT_name("F:\eZdsp_C55x_FreeRTOS_Port\VerifiedOKInDbg\eZDSP_5535_Files\ccsws2\tes
     900                      .dwattr $C$DW$80, DW_AT_TI_begin_file("../FreeRTOS/Source/croutine.c")
     901                      .dwattr $C$DW$80, DW_AT_TI_begin_line(0x10a)
     902                      .dwattr $C$DW$80, DW_AT_TI_end_line(0x123)
     903              $C$DW$81        .dwtag  DW_TAG_TI_loop_range
     904                      .dwattr $C$DW$81, DW_AT_low_pc($C$DW$L$_prvCheckDelayedList$10$B)
     905                      .dwattr $C$DW$81, DW_AT_high_pc($C$DW$L$_prvCheckDelayedList$10$E)
     906              $C$DW$82        .dwtag  DW_TAG_TI_loop_range
     907                      .dwattr $C$DW$82, DW_AT_low_pc($C$DW$L$_prvCheckDelayedList$11$B)
     908                      .dwattr $C$DW$82, DW_AT_high_pc($C$DW$L$_prvCheckDelayedList$11$E)
     909              $C$DW$83        .dwtag  DW_TAG_TI_loop_range
     910                      .dwattr $C$DW$83, DW_AT_low_pc($C$DW$L$_prvCheckDelayedList$12$B)
     911                      .dwattr $C$DW$83, DW_AT_high_pc($C$DW$L$_prvCheckDelayedList$12$E)
     912              $C$DW$84        .dwtag  DW_TAG_TI_loop_range
     913                      .dwattr $C$DW$84, DW_AT_low_pc($C$DW$L$_prvCheckDelayedList$13$B)
     914                      .dwattr $C$DW$84, DW_AT_high_pc($C$DW$L$_prvCheckDelayedList$13$E)
     915              $C$DW$85        .dwtag  DW_TAG_TI_loop_range
     916                      .dwattr $C$DW$85, DW_AT_low_pc($C$DW$L$_prvCheckDelayedList$4$B)
     917                      .dwattr $C$DW$85, DW_AT_high_pc($C$DW$L$_prvCheckDelayedList$4$E)
     918              $C$DW$86        .dwtag  DW_TAG_TI_loop_range
     919                      .dwattr $C$DW$86, DW_AT_low_pc($C$DW$L$_prvCheckDelayedList$5$B)
     920                      .dwattr $C$DW$86, DW_AT_high_pc($C$DW$L$_prvCheckDelayedList$5$E)
     921              $C$DW$87        .dwtag  DW_TAG_TI_loop_range
     922                      .dwattr $C$DW$87, DW_AT_low_pc($C$DW$L$_prvCheckDelayedList$6$B)
     923                      .dwattr $C$DW$87, DW_AT_high_pc($C$DW$L$_prvCheckDelayedList$6$E)
     924              $C$DW$88        .dwtag  DW_TAG_TI_loop_range
     925                      .dwattr $C$DW$88, DW_AT_low_pc($C$DW$L$_prvCheckDelayedList$7$B)
     926                      .dwattr $C$DW$88, DW_AT_high_pc($C$DW$L$_prvCheckDelayedList$7$E)
     927              $C$DW$89        .dwtag  DW_TAG_TI_loop_range
     928                      .dwattr $C$DW$89, DW_AT_low_pc($C$DW$L$_prvCheckDelayedList$8$B)
     929                      .dwattr $C$DW$89, DW_AT_high_pc($C$DW$L$_prvCheckDelayedList$8$E)
     930              $C$DW$90        .dwtag  DW_TAG_TI_loop_range
     931                      .dwattr $C$DW$90, DW_AT_low_pc($C$DW$L$_prvCheckDelayedList$9$B)
     932                      .dwattr $C$DW$90, DW_AT_high_pc($C$DW$L$_prvCheckDelayedList$9$E)
     933                      .dwendtag $C$DW$80
     934              
     935                      .dwendtag $C$DW$76
     936              
     937                      .dwattr $C$DW$67, DW_AT_TI_end_file("../FreeRTOS/Source/croutine.c")
     938                      .dwattr $C$DW$67, DW_AT_TI_end_line(0x128)
     939                      .dwattr $C$DW$67, DW_AT_TI_end_column(0x01)
     940                      .dwendentry
     941                      .dwendtag $C$DW$67
     942              
     943 0002c9               .sect   ".text"
     944                      .align 4
     945                      .global _vCoRoutineSchedule
     946              
     947              $C$DW$91        .dwtag  DW_TAG_subprogram, DW_AT_name("vCoRoutineSchedule")
     948                      .dwattr $C$DW$91, DW_AT_low_pc(_vCoRoutineSchedule)
     949                      .dwattr $C$DW$91, DW_AT_high_pc(0x00)
     950                      .dwattr $C$DW$91, DW_AT_TI_symbol_name("_vCoRoutineSchedule")
     951                      .dwattr $C$DW$91, DW_AT_external
TMS320C55x Assembler PC v4.4.1 Sat Sep 08 23:28:18 2018

Tools Copyright (c) 1996-2012 Texas Instruments Incorporated
croutine.asm                                                         PAGE   22

     952                      .dwattr $C$DW$91, DW_AT_TI_begin_file("../FreeRTOS/Source/croutine.c")
     953                      .dwattr $C$DW$91, DW_AT_TI_begin_line(0x12b)
     954                      .dwattr $C$DW$91, DW_AT_TI_begin_column(0x06)
     955                      .dwattr $C$DW$91, DW_AT_TI_max_frame_size(0x04)
     956                      .dwpsn  file "../FreeRTOS/Source/croutine.c",line 300,column 1,is_stmt,address _vCoRoutineSchedule
     957              
     958                      .dwfde $C$DW$CIE, _vCoRoutineSchedule
     959              ;*******************************************************************************
     960              ;* FUNCTION NAME: vCoRoutineSchedule                                           *
     961              ;*                                                                             *
     962              ;*   Function Uses Regs : AC0,AC0,AC1,AC1,T0,AR0,XAR0,AR1,AR2,XAR2,AR3,XAR3,SP,*
     963              ;*                        CARRY,TC1,M40,SATA,SATD,RDM,FRCT,SMUL                *
     964              ;*   Stack Frame        : Compact (No Frame Pointer, w/ debug)                 *
     965              ;*   Total Frame Size   : 4 words                                              *
     966              ;*                        (2 return address/alignment)                         *
     967              ;*                        (2 local values)                                     *
     968              ;*   Min System Stack   : 1 word                                               *
     969              ;*******************************************************************************
     970 0002cc       _vCoRoutineSchedule:
     971                      .dwcfi  cfa_offset, 1
     972                      .dwcfi  save_reg_to_mem, 91, -1
     973 0002cc 4EFD          AADD #-3, SP
     974                      .dwcfi  cfa_offset, 4
     975                      .dwpsn  file "../FreeRTOS/Source/croutine.c",line 302,column 2,is_stmt
     976              $C$DW$92        .dwtag  DW_TAG_TI_branch
     977                      .dwattr $C$DW$92, DW_AT_low_pc(0x00)
     978                      .dwattr $C$DW$92, DW_AT_name("_prvCheckPendingReadyList")
     979                      .dwattr $C$DW$92, DW_AT_TI_call
     980 0002ce 08FE          CALL #_prvCheckPendingReadyList ; |302| 
         0002d0 87   
     981                                                      ; call occurs [#_prvCheckPendingReadyList] ; |302| 
     982                      .dwpsn  file "../FreeRTOS/Source/croutine.c",line 305,column 2,is_stmt
     983              $C$DW$93        .dwtag  DW_TAG_TI_branch
     984                      .dwattr $C$DW$93, DW_AT_low_pc(0x00)
     985                      .dwattr $C$DW$93, DW_AT_name("_prvCheckDelayedList")
     986                      .dwattr $C$DW$93, DW_AT_TI_call
     987 0002d1 08FF          CALL #_prvCheckDelayedList ; |305| 
         0002d3 04   
     988                                                      ; call occurs [#_prvCheckDelayedList] ; |305| 
     989                      .dwpsn  file "../FreeRTOS/Source/croutine.c",line 308,column 9,is_stmt
     990 0002d4 F831          MPYMK *(#_uxTopCoRoutineReadyPriority), #10, AC0 ; |308| 
         0002d6 0A00 
         0002d8 0000 
         0002da 38-  
     991 0002db 2204          MOV AC0, T0 ; |308| 
     992 0002dd EC31          AMOV #_pxReadyCoRoutineLists, XAR3 ; |308| 
         0002df BE00 
         0002e1 0000-
     993 0002e3 A96B          MOV *AR3(T0), AR1 ; |308| 
     994 0002e5 0419          BCC $C$L24,AR1 != #0 ; |308| 
         0002e7 1D   
     995                                                      ; branchcc occurs ; |308| 
     996 0002e8       $C$L23:    
     997 0002e8       $C$DW$L$_vCoRoutineSchedule$2$B:
     998                      .dwpsn  file "../FreeRTOS/Source/croutine.c",line 310,column 3,is_stmt
TMS320C55x Assembler PC v4.4.1 Sat Sep 08 23:28:18 2018

Tools Copyright (c) 1996-2012 Texas Instruments Incorporated
croutine.asm                                                         PAGE   23

     999 0002e8 A931          MOV *(#_uxTopCoRoutineReadyPriority), AR1 ; |310| 
         0002ea 0000 
         0002ec 38-  
    1000 0002ed 0409          BCC $C$L26,AR1 == #0 ; |310| 
         0002ef 72   
    1001                                                      ; branchcc occurs ; |310| 
    1002 0002f0       $C$DW$L$_vCoRoutineSchedule$2$E:
    1003 0002f0       $C$DW$L$_vCoRoutineSchedule$3$B:
    1004                      .dwpsn  file "../FreeRTOS/Source/croutine.c",line 313,column 4,is_stmt
    1005                      .dwpsn  file "../FreeRTOS/Source/croutine.c",line 315,column 3,is_stmt
    1006 0002f0 F731          SUB #1, *(#_uxTopCoRoutineReadyPriority) ; |315| 
         0002f2 FFFF 
         0002f4 0000 
         0002f6 38-  
    1007                      .dwpsn  file "../FreeRTOS/Source/croutine.c",line 308,column 9,is_stmt
    1008 0002f7 F831          MPYMK *(#_uxTopCoRoutineReadyPriority), #10, AC0 ; |308| 
         0002f9 0A00 
         0002fb 0000 
         0002fd 38-  
    1009 0002fe 2204          MOV AC0, T0 ; |308| 
    1010 000300 A96B          MOV *AR3(T0), AR1 ; |308| 
    1011 000302 0409          BCC $C$L23,AR1 == #0 ; |308| 
         000304 E3   
    1012                                                      ; branchcc occurs ; |308| 
    1013 000305       $C$DW$L$_vCoRoutineSchedule$3$E:
    1014 000305       $C$L24:    
    1015              
    1016              $C$DW$94        .dwtag  DW_TAG_lexical_block, DW_AT_low_pc(0x00), DW_AT_high_pc(0x00)
    1017              $C$DW$95        .dwtag  DW_TAG_variable, DW_AT_name("pxConstList")
    1018                      .dwattr $C$DW$95, DW_AT_TI_symbol_name("_pxConstList")
    1019                      .dwattr $C$DW$95, DW_AT_type(*$C$DW$T$61)
    1020                      .dwattr $C$DW$95, DW_AT_location[DW_OP_bregx 0x24 0]
    1021                      .dwpsn  file "../FreeRTOS/Source/croutine.c",line 320,column 2,is_stmt
    1022 000305 F831          MPYMK *(#_uxTopCoRoutineReadyPriority), #10, AC0 ; |320| 
         000307 0A00 
         000309 0000 
         00030b 38-  
    1023 00030c 2209          MOV AC0, AR1 ; |320| 
    1024              
    1025 00030e 8E00          MOV XAR3, dbl(*SP(#0))
         000310 BB10 
         000312 B590 
    1026              ||      AADD AR1, AR3 ; |320| 
    1027              
    1028 000314 ED75          MOV dbl(*AR3(short(#2))), XAR3
         000316 BF   
    1029 000317 ED75          MOV dbl(*AR3(short(#2))), XAR2
         000319 AF   
    1030 00031a ED00          MOV dbl(*SP(#0)), XAR3
         00031c BF   
    1031 00031d EB75          MOV XAR2, dbl(*AR3(short(#2)))
         00031f A5   
    1032 000320 ED00          MOV dbl(*SP(#0)), XAR3
         000322 BF   
    1033 000323 1404          AADD #4, AR3 ; |320| 
TMS320C55x Assembler PC v4.4.1 Sat Sep 08 23:28:18 2018

Tools Copyright (c) 1996-2012 Texas Instruments Incorporated
croutine.asm                                                         PAGE   24

         000325 B4   
    1034 000326 90B0          MOV XAR3, AC0
    1035 000328 ED00          MOV dbl(*SP(#0)), XAR3
         00032a BF   
    1036 00032b ED75          MOV dbl(*AR3(short(#2))), XAR3
         00032d BF   
    1037 00032e 90B1          MOV XAR3, AC1
    1038 000330 121C          CMPU AC1 != AC0, TC1 ; |320| 
         000332 04   
    1039 000333 67E4          BCC $C$L25,TC1 ; |320| 
    1040                                                      ; branchcc occurs ; |320| 
    1041 000335 ED00          MOV dbl(*SP(#0)), XAR3
         000337 BF   
    1042 000338 ED75          MOV dbl(*AR3(short(#2))), XAR3
         00033a BF   
    1043 00033b ED75          MOV dbl(*AR3(short(#2))), XAR2
         00033d AF   
    1044 00033e ED00          MOV dbl(*SP(#0)), XAR3
         000340 BF   
    1045 000341 EB75          MOV XAR2, dbl(*AR3(short(#2)))
         000343 A5   
    1046 000344       $C$L25:    
    1047 000344 ED00          MOV dbl(*SP(#0)), XAR3
         000346 BF   
    1048 000347 ED75          MOV dbl(*AR3(short(#2))), XAR3
         000349 BF   
    1049 00034a ED7D          MOV dbl(*AR3(short(#6))), XAR3
         00034c BF   
    1050 00034d EB31          MOV XAR3, dbl(*(#_pxCurrentCoRoutine))
         00034f B500 
         000351 0036-
    1051                      .dwendtag $C$DW$94
    1052              
    1053                      .dwpsn  file "../FreeRTOS/Source/croutine.c",line 323,column 2,is_stmt
    1054 000353 ED31          MOV dbl(*(#_pxCurrentCoRoutine)), XAR0
         000355 8F00 
         000357 0036-
    1055 000359 ED61          MOV dbl(*AR3), AC0 ; |323| 
         00035b 08   
    1056 00035c A46D          MOV *AR3(#23), T0 ; |323| 
         00035e 0017 
    1057              $C$DW$96        .dwtag  DW_TAG_TI_branch
    1058                      .dwattr $C$DW$96, DW_AT_low_pc(0x00)
    1059                      .dwattr $C$DW$96, DW_AT_TI_call
    1060                      .dwattr $C$DW$96, DW_AT_TI_indirect
    1061 000360 9200          CALL AC0  ; |323| 
    1062                                                      ; call occurs [AC0] ; |323| 
    1063                      .dwpsn  file "../FreeRTOS/Source/croutine.c",line 325,column 2,is_stmt
    1064 000362       $C$L26:    
    1065                      .dwpsn  file "../FreeRTOS/Source/croutine.c",line 326,column 1,is_stmt
    1066 000362 4E03          AADD #3, SP
    1067                      .dwcfi  cfa_offset, 1
    1068              $C$DW$97        .dwtag  DW_TAG_TI_branch
    1069                      .dwattr $C$DW$97, DW_AT_low_pc(0x00)
    1070                      .dwattr $C$DW$97, DW_AT_TI_return
TMS320C55x Assembler PC v4.4.1 Sat Sep 08 23:28:18 2018

Tools Copyright (c) 1996-2012 Texas Instruments Incorporated
croutine.asm                                                         PAGE   25

    1071 000364 4804          RET
    1072                                                      ; return occurs
    1073              
    1074              $C$DW$98        .dwtag  DW_TAG_TI_loop
    1075                      .dwattr $C$DW$98, DW_AT_name("F:\eZdsp_C55x_FreeRTOS_Port\VerifiedOKInDbg\eZDSP_5535_Files\ccsws2\tes
    1076                      .dwattr $C$DW$98, DW_AT_TI_begin_file("../FreeRTOS/Source/croutine.c")
    1077                      .dwattr $C$DW$98, DW_AT_TI_begin_line(0x134)
    1078                      .dwattr $C$DW$98, DW_AT_TI_end_line(0x13c)
    1079              $C$DW$99        .dwtag  DW_TAG_TI_loop_range
    1080                      .dwattr $C$DW$99, DW_AT_low_pc($C$DW$L$_vCoRoutineSchedule$2$B)
    1081                      .dwattr $C$DW$99, DW_AT_high_pc($C$DW$L$_vCoRoutineSchedule$2$E)
    1082              $C$DW$100       .dwtag  DW_TAG_TI_loop_range
    1083                      .dwattr $C$DW$100, DW_AT_low_pc($C$DW$L$_vCoRoutineSchedule$3$B)
    1084                      .dwattr $C$DW$100, DW_AT_high_pc($C$DW$L$_vCoRoutineSchedule$3$E)
    1085                      .dwendtag $C$DW$98
    1086              
    1087                      .dwattr $C$DW$91, DW_AT_TI_end_file("../FreeRTOS/Source/croutine.c")
    1088                      .dwattr $C$DW$91, DW_AT_TI_end_line(0x146)
    1089                      .dwattr $C$DW$91, DW_AT_TI_end_column(0x01)
    1090                      .dwendentry
    1091                      .dwendtag $C$DW$91
    1092              
    1093 000366               .sect   ".text"
    1094                      .align 4
    1095              
    1096              $C$DW$101       .dwtag  DW_TAG_subprogram, DW_AT_name("prvInitialiseCoRoutineLists")
    1097                      .dwattr $C$DW$101, DW_AT_low_pc(_prvInitialiseCoRoutineLists)
    1098                      .dwattr $C$DW$101, DW_AT_high_pc(0x00)
    1099                      .dwattr $C$DW$101, DW_AT_TI_symbol_name("_prvInitialiseCoRoutineLists")
    1100                      .dwattr $C$DW$101, DW_AT_TI_begin_file("../FreeRTOS/Source/croutine.c")
    1101                      .dwattr $C$DW$101, DW_AT_TI_begin_line(0x149)
    1102                      .dwattr $C$DW$101, DW_AT_TI_begin_column(0x0d)
    1103                      .dwattr $C$DW$101, DW_AT_TI_max_frame_size(0x02)
    1104                      .dwpsn  file "../FreeRTOS/Source/croutine.c",line 330,column 1,is_stmt,address _prvInitialiseCoRoutin
    1105              
    1106                      .dwfde $C$DW$CIE, _prvInitialiseCoRoutineLists
    1107              ;*******************************************************************************
    1108              ;* FUNCTION NAME: prvInitialiseCoRoutineLists                                  *
    1109              ;*                                                                             *
    1110              ;*   Function Uses Regs : AC0,AR0,XAR0,AR1,AR2,AR3,XAR3,SP,CARRY,TC1,M40,SATA, *
    1111              ;*                        SATD,RDM,FRCT,SMUL                                   *
    1112              ;*   Stack Frame        : Compact (No Frame Pointer, w/ debug)                 *
    1113              ;*   Total Frame Size   : 2 words                                              *
    1114              ;*                        (1 return address/alignment)                         *
    1115              ;*                        (1 local values)                                     *
    1116              ;*   Min System Stack   : 1 word                                               *
    1117              ;*******************************************************************************
    1118 000368       _prvInitialiseCoRoutineLists:
    1119                      .dwcfi  cfa_offset, 1
    1120                      .dwcfi  save_reg_to_mem, 91, -1
    1121 000368 4EFF          AADD #-1, SP
    1122                      .dwcfi  cfa_offset, 2
    1123              $C$DW$102       .dwtag  DW_TAG_variable, DW_AT_name("uxPriority")
    1124                      .dwattr $C$DW$102, DW_AT_TI_symbol_name("_uxPriority")
    1125                      .dwattr $C$DW$102, DW_AT_type(*$C$DW$T$11)
TMS320C55x Assembler PC v4.4.1 Sat Sep 08 23:28:18 2018

Tools Copyright (c) 1996-2012 Texas Instruments Incorporated
croutine.asm                                                         PAGE   26

    1126                      .dwattr $C$DW$102, DW_AT_location[DW_OP_bregx 0x24 0]
    1127                      .dwpsn  file "../FreeRTOS/Source/croutine.c",line 333,column 7,is_stmt
    1128 00036a E600          MOV #0, *SP(#0) ; |333| 
         00036c 00   
    1129                      .dwpsn  file "../FreeRTOS/Source/croutine.c",line 333,column 23,is_stmt
    1130              
    1131 00036d A900          MOV *SP(#0), AR1 ; |333| 
    1132 00036f 3D2A  ||      MOV #2, AR2
    1133              
    1134 000371 1298          CMPU AR1 >= AR2, TC1 ; |333| 
         000373 A4   
    1135 000374 0464          BCC $C$L28,TC1 ; |333| 
         000376 21   
    1136                                                      ; branchcc occurs ; |333| 
    1137 000377       $C$L27:    
    1138 000377       $C$DW$L$_prvInitialiseCoRoutineLists$2$B:
    1139                      .dwpsn  file "../FreeRTOS/Source/croutine.c",line 335,column 3,is_stmt
    1140 000377 F800          MPYMK *SP(#0), #10, AC0 ; |335| 
         000379 0A00 
    1141 00037b 2209          MOV AC0, AR1 ; |335| 
    1142 00037d EC31          AMOV #_pxReadyCoRoutineLists, XAR0 ; |335| 
         00037f 8E00 
         000381 0000-
    1143 000383 1490          AADD AR1, AR0 ; |335| 
         000385 80   
    1144              $C$DW$103       .dwtag  DW_TAG_TI_branch
    1145                      .dwattr $C$DW$103, DW_AT_low_pc(0x00)
    1146                      .dwattr $C$DW$103, DW_AT_name("_vListInitialise")
    1147                      .dwattr $C$DW$103, DW_AT_TI_call
    1148 000386 6C00          CALL #_vListInitialise ; |335| 
         000388 0000!
    1149                                                      ; call occurs [#_vListInitialise] ; |335| 
    1150                      .dwpsn  file "../FreeRTOS/Source/croutine.c",line 333,column 69,is_stmt
    1151 00038a F700          ADD #1, *SP(#0) ; |333| 
         00038c 0001 
    1152                      .dwpsn  file "../FreeRTOS/Source/croutine.c",line 333,column 23,is_stmt
    1153              
    1154 00038e A900          MOV *SP(#0), AR1 ; |333| 
    1155 000390 3D2A  ||      MOV #2, AR2
    1156              
    1157 000392 1294          CMPU AR1 < AR2, TC1 ; |333| 
         000394 A4   
    1158 000395 0464          BCC $C$L27,TC1 ; |333| 
         000397 DF   
    1159                                                      ; branchcc occurs ; |333| 
    1160 000398       $C$DW$L$_prvInitialiseCoRoutineLists$2$E:
    1161 000398       $C$L28:    
    1162                      .dwpsn  file "../FreeRTOS/Source/croutine.c",line 338,column 2,is_stmt
    1163 000398 EC31          AMOV #_xDelayedCoRoutineList1, XAR0 ; |338| 
         00039a 8E00 
         00039c 0014-
    1164              $C$DW$104       .dwtag  DW_TAG_TI_branch
    1165                      .dwattr $C$DW$104, DW_AT_low_pc(0x00)
    1166                      .dwattr $C$DW$104, DW_AT_name("_vListInitialise")
    1167                      .dwattr $C$DW$104, DW_AT_TI_call
TMS320C55x Assembler PC v4.4.1 Sat Sep 08 23:28:18 2018

Tools Copyright (c) 1996-2012 Texas Instruments Incorporated
croutine.asm                                                         PAGE   27

    1168 00039e 6C00          CALL #_vListInitialise ; |338| 
         0003a0 0000!
    1169                                                      ; call occurs [#_vListInitialise] ; |338| 
    1170                      .dwpsn  file "../FreeRTOS/Source/croutine.c",line 339,column 2,is_stmt
    1171 0003a2 EC31          AMOV #_xDelayedCoRoutineList2, XAR0 ; |339| 
         0003a4 8E00 
         0003a6 001E-
    1172              $C$DW$105       .dwtag  DW_TAG_TI_branch
    1173                      .dwattr $C$DW$105, DW_AT_low_pc(0x00)
    1174                      .dwattr $C$DW$105, DW_AT_name("_vListInitialise")
    1175                      .dwattr $C$DW$105, DW_AT_TI_call
    1176 0003a8 6C00          CALL #_vListInitialise ; |339| 
         0003aa 0000!
    1177                                                      ; call occurs [#_vListInitialise] ; |339| 
    1178                      .dwpsn  file "../FreeRTOS/Source/croutine.c",line 340,column 2,is_stmt
    1179 0003ac EC31          AMOV #_xPendingReadyCoRoutineList, XAR0 ; |340| 
         0003ae 8E00 
         0003b0 002C-
    1180              $C$DW$106       .dwtag  DW_TAG_TI_branch
    1181                      .dwattr $C$DW$106, DW_AT_low_pc(0x00)
    1182                      .dwattr $C$DW$106, DW_AT_name("_vListInitialise")
    1183                      .dwattr $C$DW$106, DW_AT_TI_call
    1184 0003b2 6C00          CALL #_vListInitialise ; |340| 
         0003b4 0000!
    1185                                                      ; call occurs [#_vListInitialise] ; |340| 
    1186                      .dwpsn  file "../FreeRTOS/Source/croutine.c",line 344,column 2,is_stmt
    1187 0003b6 EC31          AMOV #_xDelayedCoRoutineList1, XAR3 ; |344| 
         0003b8 BE00 
         0003ba 0014-
    1188 0003bc EB31          MOV XAR3, dbl(*(#_pxDelayedCoRoutineList))
         0003be B500 
         0003c0 0028-
    1189                      .dwpsn  file "../FreeRTOS/Source/croutine.c",line 345,column 2,is_stmt
    1190 0003c2 EC31          AMOV #_xDelayedCoRoutineList2, XAR3 ; |345| 
         0003c4 BE00 
         0003c6 001E-
    1191 0003c8 EB31          MOV XAR3, dbl(*(#_pxOverflowDelayedCoRoutineList))
         0003ca B500 
         0003cc 002A-
    1192                      .dwpsn  file "../FreeRTOS/Source/croutine.c",line 346,column 1,is_stmt
    1193 0003ce 4E01          AADD #1, SP
    1194                      .dwcfi  cfa_offset, 1
    1195              $C$DW$107       .dwtag  DW_TAG_TI_branch
    1196                      .dwattr $C$DW$107, DW_AT_low_pc(0x00)
    1197                      .dwattr $C$DW$107, DW_AT_TI_return
    1198 0003d0 4804          RET
    1199                                                      ; return occurs
    1200              
    1201              $C$DW$108       .dwtag  DW_TAG_TI_loop
    1202                      .dwattr $C$DW$108, DW_AT_name("F:\eZdsp_C55x_FreeRTOS_Port\VerifiedOKInDbg\eZDSP_5535_Files\ccsws2\te
    1203                      .dwattr $C$DW$108, DW_AT_TI_begin_file("../FreeRTOS/Source/croutine.c")
    1204                      .dwattr $C$DW$108, DW_AT_TI_begin_line(0x14d)
    1205                      .dwattr $C$DW$108, DW_AT_TI_end_line(0x150)
    1206              $C$DW$109       .dwtag  DW_TAG_TI_loop_range
    1207                      .dwattr $C$DW$109, DW_AT_low_pc($C$DW$L$_prvInitialiseCoRoutineLists$2$B)
TMS320C55x Assembler PC v4.4.1 Sat Sep 08 23:28:18 2018

Tools Copyright (c) 1996-2012 Texas Instruments Incorporated
croutine.asm                                                         PAGE   28

    1208                      .dwattr $C$DW$109, DW_AT_high_pc($C$DW$L$_prvInitialiseCoRoutineLists$2$E)
    1209                      .dwendtag $C$DW$108
    1210              
    1211                      .dwattr $C$DW$101, DW_AT_TI_end_file("../FreeRTOS/Source/croutine.c")
    1212                      .dwattr $C$DW$101, DW_AT_TI_end_line(0x15a)
    1213                      .dwattr $C$DW$101, DW_AT_TI_end_column(0x01)
    1214                      .dwendentry
    1215                      .dwendtag $C$DW$101
    1216              
    1217 0003d2               .sect   ".text"
    1218                      .align 4
    1219                      .global _xCoRoutineRemoveFromEventList
    1220              
    1221              $C$DW$110       .dwtag  DW_TAG_subprogram, DW_AT_name("xCoRoutineRemoveFromEventList")
    1222                      .dwattr $C$DW$110, DW_AT_low_pc(_xCoRoutineRemoveFromEventList)
    1223                      .dwattr $C$DW$110, DW_AT_high_pc(0x00)
    1224                      .dwattr $C$DW$110, DW_AT_TI_symbol_name("_xCoRoutineRemoveFromEventList")
    1225                      .dwattr $C$DW$110, DW_AT_external
    1226                      .dwattr $C$DW$110, DW_AT_type(*$C$DW$T$10)
    1227                      .dwattr $C$DW$110, DW_AT_TI_begin_file("../FreeRTOS/Source/croutine.c")
    1228                      .dwattr $C$DW$110, DW_AT_TI_begin_line(0x15d)
    1229                      .dwattr $C$DW$110, DW_AT_TI_begin_column(0x16)
    1230                      .dwattr $C$DW$110, DW_AT_TI_max_frame_size(0x06)
    1231                      .dwpsn  file "../FreeRTOS/Source/croutine.c",line 350,column 1,is_stmt,address _xCoRoutineRemoveFromE
    1232              
    1233                      .dwfde $C$DW$CIE, _xCoRoutineRemoveFromEventList
    1234              $C$DW$111       .dwtag  DW_TAG_formal_parameter, DW_AT_name("pxEventList")
    1235                      .dwattr $C$DW$111, DW_AT_TI_symbol_name("_pxEventList")
    1236                      .dwattr $C$DW$111, DW_AT_type(*$C$DW$T$54)
    1237                      .dwattr $C$DW$111, DW_AT_location[DW_OP_reg17]
    1238              ;*******************************************************************************
    1239              ;* FUNCTION NAME: xCoRoutineRemoveFromEventList                                *
    1240              ;*                                                                             *
    1241              ;*   Function Uses Regs : T0,AR0,XAR0,AR1,XAR1,AR2,AR3,XAR3,SP,TC1,M40,SATA,   *
    1242              ;*                        SATD,RDM,FRCT,SMUL                                   *
    1243              ;*   Stack Frame        : Compact (No Frame Pointer, w/ debug)                 *
    1244              ;*   Total Frame Size   : 6 words                                              *
    1245              ;*                        (1 return address/alignment)                         *
    1246              ;*                        (5 local values)                                     *
    1247              ;*   Min System Stack   : 1 word                                               *
    1248              ;*******************************************************************************
    1249 0003d4       _xCoRoutineRemoveFromEventList:
    1250                      .dwcfi  cfa_offset, 1
    1251                      .dwcfi  save_reg_to_mem, 91, -1
    1252 0003d4 4EFB          AADD #-5, SP
    1253                      .dwcfi  cfa_offset, 6
    1254              $C$DW$112       .dwtag  DW_TAG_variable, DW_AT_name("pxEventList")
    1255                      .dwattr $C$DW$112, DW_AT_TI_symbol_name("_pxEventList")
    1256                      .dwattr $C$DW$112, DW_AT_type(*$C$DW$T$54)
    1257                      .dwattr $C$DW$112, DW_AT_location[DW_OP_bregx 0x24 0]
    1258              $C$DW$113       .dwtag  DW_TAG_variable, DW_AT_name("pxUnblockedCRCB")
    1259                      .dwattr $C$DW$113, DW_AT_TI_symbol_name("_pxUnblockedCRCB")
    1260                      .dwattr $C$DW$113, DW_AT_type(*$C$DW$T$60)
    1261                      .dwattr $C$DW$113, DW_AT_location[DW_OP_bregx 0x24 2]
    1262              $C$DW$114       .dwtag  DW_TAG_variable, DW_AT_name("xReturn")
TMS320C55x Assembler PC v4.4.1 Sat Sep 08 23:28:18 2018

Tools Copyright (c) 1996-2012 Texas Instruments Incorporated
croutine.asm                                                         PAGE   29

    1263                      .dwattr $C$DW$114, DW_AT_TI_symbol_name("_xReturn")
    1264                      .dwattr $C$DW$114, DW_AT_type(*$C$DW$T$10)
    1265                      .dwattr $C$DW$114, DW_AT_location[DW_OP_bregx 0x24 4]
    1266 0003d6 EB00          MOV XAR0, dbl(*SP(#0))
         0003d8 85   
    1267                      .dwpsn  file "../FreeRTOS/Source/croutine.c",line 356,column 2,is_stmt
    1268 0003d9 ED00          MOV dbl(*SP(#0)), XAR3
         0003db BF   
    1269 0003dc A961          MOV *AR3, AR1 ; |356| 
    1270 0003de 6409          BCC $C$L29,AR1 == #0 ; |356| 
    1271                                                      ; branchcc occurs ; |356| 
    1272 0003e0 ED7D          MOV dbl(*AR3(short(#6))), XAR3
         0003e2 BF   
    1273 0003e3 ED7D          MOV dbl(*AR3(short(#6))), XAR3
         0003e5 BF   
    1274 0003e6 4A06          B $C$L30  ; |356| 
    1275                                                      ; branch occurs ; |356| 
    1276 0003e8       $C$L29:    
    1277 0003e8 EC31          AMOV #0, XAR3 ; |356| 
         0003ea BE00 
         0003ec 0000 
    1278 0003ee       $C$L30:    
    1279 0003ee EB04          MOV XAR3, dbl(*SP(#2))
         0003f0 B5   
    1280                      .dwpsn  file "../FreeRTOS/Source/croutine.c",line 357,column 2,is_stmt
    1281 0003f1 ED04          MOV dbl(*SP(#2)), XAR0
         0003f3 8F   
    1282 0003f4 140C          AADD #12, AR0 ; |357| 
         0003f6 84   
    1283              $C$DW$115       .dwtag  DW_TAG_TI_branch
    1284                      .dwattr $C$DW$115, DW_AT_low_pc(0x00)
    1285                      .dwattr $C$DW$115, DW_AT_name("_vListRemove")
    1286                      .dwattr $C$DW$115, DW_AT_TI_call
    1287 0003f7 6C00          CALL #_vListRemove ; |357| 
         0003f9 0000!
    1288                                                      ; call occurs [#_vListRemove] ; |357| 
    1289                      .dwpsn  file "../FreeRTOS/Source/croutine.c",line 358,column 2,is_stmt
    1290 0003fb ED04          MOV dbl(*SP(#2)), XAR1
         0003fd 9F   
    1291 0003fe EC31          AMOV #_xPendingReadyCoRoutineList, XAR0 ; |358| 
         000400 8E00 
         000402 002C-
    1292 000404 140C          AADD #12, AR1 ; |358| 
         000406 94   
    1293              $C$DW$116       .dwtag  DW_TAG_TI_branch
    1294                      .dwattr $C$DW$116, DW_AT_low_pc(0x00)
    1295                      .dwattr $C$DW$116, DW_AT_name("_vListInsertEnd")
    1296                      .dwattr $C$DW$116, DW_AT_TI_call
    1297 000407 6C00          CALL #_vListInsertEnd ; |358| 
         000409 0000!
    1298                                                      ; call occurs [#_vListInsertEnd] ; |358| 
    1299                      .dwpsn  file "../FreeRTOS/Source/croutine.c",line 360,column 2,is_stmt
    1300 00040b ED31          MOV dbl(*(#_pxCurrentCoRoutine)), XAR3
         00040d BF00 
         00040f 0036-
TMS320C55x Assembler PC v4.4.1 Sat Sep 08 23:28:18 2018

Tools Copyright (c) 1996-2012 Texas Instruments Incorporated
croutine.asm                                                         PAGE   30

    1301 000411 A96D          MOV *AR3(#22), AR1 ; |360| 
         000413 0016 
    1302 000415 ED04          MOV dbl(*SP(#2)), XAR3
         000417 BF   
    1303 000418 AA6D          MOV *AR3(#22), AR2 ; |360| 
         00041a 0016 
    1304 00041c 12A4          CMPU AR2 < AR1, TC1 ; |360| 
         00041e 94   
    1305 00041f 62E4          BCC $C$L31,TC1 ; |360| 
    1306                                                      ; branchcc occurs ; |360| 
    1307                      .dwpsn  file "../FreeRTOS/Source/croutine.c",line 362,column 3,is_stmt
    1308 000421 E608          MOV #1, *SP(#4) ; |362| 
         000423 01   
    1309                      .dwpsn  file "../FreeRTOS/Source/croutine.c",line 363,column 2,is_stmt
    1310 000424 4A03          B $C$L32  ; |363| 
    1311                                                      ; branch occurs ; |363| 
    1312 000426       $C$L31:    
    1313                      .dwpsn  file "../FreeRTOS/Source/croutine.c",line 366,column 3,is_stmt
    1314 000426 E608          MOV #0, *SP(#4) ; |366| 
         000428 00   
    1315 000429       $C$L32:    
    1316                      .dwpsn  file "../FreeRTOS/Source/croutine.c",line 369,column 2,is_stmt
    1317 000429 A408          MOV *SP(#4), T0 ; |369| 
    1318                      .dwpsn  file "../FreeRTOS/Source/croutine.c",line 370,column 1,is_stmt
    1319 00042b 4E05          AADD #5, SP
    1320                      .dwcfi  cfa_offset, 1
    1321              $C$DW$117       .dwtag  DW_TAG_TI_branch
    1322                      .dwattr $C$DW$117, DW_AT_low_pc(0x00)
    1323                      .dwattr $C$DW$117, DW_AT_TI_return
    1324 00042d 4804          RET
    1325                                                      ; return occurs
    1326                      .dwattr $C$DW$110, DW_AT_TI_end_file("../FreeRTOS/Source/croutine.c")
    1327                      .dwattr $C$DW$110, DW_AT_TI_end_line(0x172)
    1328                      .dwattr $C$DW$110, DW_AT_TI_end_column(0x01)
    1329                      .dwendentry
    1330                      .dwendtag $C$DW$110
    1331              
    1332              ;******************************************************************************
    1333              ;* UNDEFINED EXTERNAL REFERENCES                                              *
    1334              ;******************************************************************************
    1335                      .global _pvPortMalloc
    1336                      .global _vListInitialise
    1337                      .global _vListInitialiseItem
    1338                      .global _vListInsert
    1339                      .global _vListInsertEnd
    1340                      .global _vListRemove
    1341                      .global _xTaskGetTickCount
    1342              
    1343              ;*******************************************************************************
    1344              ;* TYPE INFORMATION                                                            *
    1345              ;*******************************************************************************
    1346              $C$DW$T$3       .dwtag  DW_TAG_pointer_type
    1347                      .dwattr $C$DW$T$3, DW_AT_address_class(0x17)
    1348              $C$DW$T$19      .dwtag  DW_TAG_typedef, DW_AT_name("xCoRoutineHandle")
    1349                      .dwattr $C$DW$T$19, DW_AT_type(*$C$DW$T$3)
TMS320C55x Assembler PC v4.4.1 Sat Sep 08 23:28:18 2018

Tools Copyright (c) 1996-2012 Texas Instruments Incorporated
croutine.asm                                                         PAGE   31

    1350                      .dwattr $C$DW$T$19, DW_AT_language(DW_LANG_C)
    1351              
    1352              $C$DW$T$20      .dwtag  DW_TAG_subroutine_type
    1353                      .dwattr $C$DW$T$20, DW_AT_language(DW_LANG_C)
    1354              $C$DW$118       .dwtag  DW_TAG_formal_parameter
    1355                      .dwattr $C$DW$118, DW_AT_type(*$C$DW$T$19)
    1356              $C$DW$119       .dwtag  DW_TAG_formal_parameter
    1357                      .dwattr $C$DW$119, DW_AT_type(*$C$DW$T$11)
    1358                      .dwendtag $C$DW$T$20
    1359              
    1360              $C$DW$T$21      .dwtag  DW_TAG_pointer_type
    1361                      .dwattr $C$DW$T$21, DW_AT_type(*$C$DW$T$20)
    1362                      .dwattr $C$DW$T$21, DW_AT_address_class(0x20)
    1363              $C$DW$T$22      .dwtag  DW_TAG_typedef, DW_AT_name("crCOROUTINE_CODE")
    1364                      .dwattr $C$DW$T$22, DW_AT_type(*$C$DW$T$21)
    1365                      .dwattr $C$DW$T$22, DW_AT_language(DW_LANG_C)
    1366              $C$DW$T$4       .dwtag  DW_TAG_base_type
    1367                      .dwattr $C$DW$T$4, DW_AT_encoding(DW_ATE_boolean)
    1368                      .dwattr $C$DW$T$4, DW_AT_name("bool")
    1369                      .dwattr $C$DW$T$4, DW_AT_byte_size(0x01)
    1370              $C$DW$T$5       .dwtag  DW_TAG_base_type
    1371                      .dwattr $C$DW$T$5, DW_AT_encoding(DW_ATE_signed_char)
    1372                      .dwattr $C$DW$T$5, DW_AT_name("signed char")
    1373                      .dwattr $C$DW$T$5, DW_AT_byte_size(0x01)
    1374              $C$DW$T$6       .dwtag  DW_TAG_base_type
    1375                      .dwattr $C$DW$T$6, DW_AT_encoding(DW_ATE_unsigned_char)
    1376                      .dwattr $C$DW$T$6, DW_AT_name("unsigned char")
    1377                      .dwattr $C$DW$T$6, DW_AT_byte_size(0x01)
    1378              $C$DW$T$7       .dwtag  DW_TAG_base_type
    1379                      .dwattr $C$DW$T$7, DW_AT_encoding(DW_ATE_signed_char)
    1380                      .dwattr $C$DW$T$7, DW_AT_name("wchar_t")
    1381                      .dwattr $C$DW$T$7, DW_AT_byte_size(0x01)
    1382              $C$DW$T$8       .dwtag  DW_TAG_base_type
    1383                      .dwattr $C$DW$T$8, DW_AT_encoding(DW_ATE_signed)
    1384                      .dwattr $C$DW$T$8, DW_AT_name("short")
    1385                      .dwattr $C$DW$T$8, DW_AT_byte_size(0x01)
    1386              $C$DW$T$9       .dwtag  DW_TAG_base_type
    1387                      .dwattr $C$DW$T$9, DW_AT_encoding(DW_ATE_unsigned)
    1388                      .dwattr $C$DW$T$9, DW_AT_name("unsigned short")
    1389                      .dwattr $C$DW$T$9, DW_AT_byte_size(0x01)
    1390              $C$DW$T$10      .dwtag  DW_TAG_base_type
    1391                      .dwattr $C$DW$T$10, DW_AT_encoding(DW_ATE_signed)
    1392                      .dwattr $C$DW$T$10, DW_AT_name("int")
    1393                      .dwattr $C$DW$T$10, DW_AT_byte_size(0x01)
    1394              $C$DW$T$11      .dwtag  DW_TAG_base_type
    1395                      .dwattr $C$DW$T$11, DW_AT_encoding(DW_ATE_unsigned)
    1396                      .dwattr $C$DW$T$11, DW_AT_name("unsigned int")
    1397                      .dwattr $C$DW$T$11, DW_AT_byte_size(0x01)
    1398              $C$DW$120       .dwtag  DW_TAG_TI_far_type
    1399                      .dwattr $C$DW$120, DW_AT_type(*$C$DW$T$11)
    1400              $C$DW$T$25      .dwtag  DW_TAG_volatile_type
    1401                      .dwattr $C$DW$T$25, DW_AT_type(*$C$DW$120)
    1402              $C$DW$T$31      .dwtag  DW_TAG_typedef, DW_AT_name("portTickType")
    1403                      .dwattr $C$DW$T$31, DW_AT_type(*$C$DW$T$11)
    1404                      .dwattr $C$DW$T$31, DW_AT_language(DW_LANG_C)
TMS320C55x Assembler PC v4.4.1 Sat Sep 08 23:28:18 2018

Tools Copyright (c) 1996-2012 Texas Instruments Incorporated
croutine.asm                                                         PAGE   32

    1405              $C$DW$T$36      .dwtag  DW_TAG_typedef, DW_AT_name("size_t")
    1406                      .dwattr $C$DW$T$36, DW_AT_type(*$C$DW$T$11)
    1407                      .dwattr $C$DW$T$36, DW_AT_language(DW_LANG_C)
    1408              $C$DW$T$12      .dwtag  DW_TAG_base_type
    1409                      .dwattr $C$DW$T$12, DW_AT_encoding(DW_ATE_signed)
    1410                      .dwattr $C$DW$T$12, DW_AT_name("long")
    1411                      .dwattr $C$DW$T$12, DW_AT_byte_size(0x02)
    1412              $C$DW$T$13      .dwtag  DW_TAG_base_type
    1413                      .dwattr $C$DW$T$13, DW_AT_encoding(DW_ATE_unsigned)
    1414                      .dwattr $C$DW$T$13, DW_AT_name("unsigned long")
    1415                      .dwattr $C$DW$T$13, DW_AT_byte_size(0x02)
    1416              $C$DW$T$14      .dwtag  DW_TAG_base_type
    1417                      .dwattr $C$DW$T$14, DW_AT_encoding(DW_ATE_signed)
    1418                      .dwattr $C$DW$T$14, DW_AT_name("long long")
    1419                      .dwattr $C$DW$T$14, DW_AT_byte_size(0x04)
    1420                      .dwattr $C$DW$T$14, DW_AT_bit_size(0x28)
    1421                      .dwattr $C$DW$T$14, DW_AT_bit_offset(0x18)
    1422              $C$DW$T$15      .dwtag  DW_TAG_base_type
    1423                      .dwattr $C$DW$T$15, DW_AT_encoding(DW_ATE_unsigned)
    1424                      .dwattr $C$DW$T$15, DW_AT_name("unsigned long long")
    1425                      .dwattr $C$DW$T$15, DW_AT_byte_size(0x04)
    1426                      .dwattr $C$DW$T$15, DW_AT_bit_size(0x28)
    1427                      .dwattr $C$DW$T$15, DW_AT_bit_offset(0x18)
    1428              $C$DW$T$16      .dwtag  DW_TAG_base_type
    1429                      .dwattr $C$DW$T$16, DW_AT_encoding(DW_ATE_float)
    1430                      .dwattr $C$DW$T$16, DW_AT_name("float")
    1431                      .dwattr $C$DW$T$16, DW_AT_byte_size(0x02)
    1432              $C$DW$T$17      .dwtag  DW_TAG_base_type
    1433                      .dwattr $C$DW$T$17, DW_AT_encoding(DW_ATE_float)
    1434                      .dwattr $C$DW$T$17, DW_AT_name("double")
    1435                      .dwattr $C$DW$T$17, DW_AT_byte_size(0x02)
    1436              $C$DW$T$18      .dwtag  DW_TAG_base_type
    1437                      .dwattr $C$DW$T$18, DW_AT_encoding(DW_ATE_float)
    1438                      .dwattr $C$DW$T$18, DW_AT_name("long double")
    1439                      .dwattr $C$DW$T$18, DW_AT_byte_size(0x02)
    1440              
    1441              $C$DW$T$24      .dwtag  DW_TAG_structure_type
    1442                      .dwattr $C$DW$T$24, DW_AT_name("corCoRoutineControlBlock")
    1443                      .dwattr $C$DW$T$24, DW_AT_byte_size(0x1a)
    1444              $C$DW$121       .dwtag  DW_TAG_member
    1445                      .dwattr $C$DW$121, DW_AT_type(*$C$DW$T$22)
    1446                      .dwattr $C$DW$121, DW_AT_name("pxCoRoutineFunction")
    1447                      .dwattr $C$DW$121, DW_AT_TI_symbol_name("_pxCoRoutineFunction")
    1448                      .dwattr $C$DW$121, DW_AT_data_member_location[DW_OP_plus_uconst 0x0]
    1449                      .dwattr $C$DW$121, DW_AT_accessibility(DW_ACCESS_public)
    1450              $C$DW$122       .dwtag  DW_TAG_member
    1451                      .dwattr $C$DW$122, DW_AT_type(*$C$DW$T$23)
    1452                      .dwattr $C$DW$122, DW_AT_name("xGenericListItem")
    1453                      .dwattr $C$DW$122, DW_AT_TI_symbol_name("_xGenericListItem")
    1454                      .dwattr $C$DW$122, DW_AT_data_member_location[DW_OP_plus_uconst 0x2]
    1455                      .dwattr $C$DW$122, DW_AT_accessibility(DW_ACCESS_public)
    1456              $C$DW$123       .dwtag  DW_TAG_member
    1457                      .dwattr $C$DW$123, DW_AT_type(*$C$DW$T$23)
    1458                      .dwattr $C$DW$123, DW_AT_name("xEventListItem")
    1459                      .dwattr $C$DW$123, DW_AT_TI_symbol_name("_xEventListItem")
TMS320C55x Assembler PC v4.4.1 Sat Sep 08 23:28:18 2018

Tools Copyright (c) 1996-2012 Texas Instruments Incorporated
croutine.asm                                                         PAGE   33

    1460                      .dwattr $C$DW$123, DW_AT_data_member_location[DW_OP_plus_uconst 0xc]
    1461                      .dwattr $C$DW$123, DW_AT_accessibility(DW_ACCESS_public)
    1462              $C$DW$124       .dwtag  DW_TAG_member
    1463                      .dwattr $C$DW$124, DW_AT_type(*$C$DW$T$11)
    1464                      .dwattr $C$DW$124, DW_AT_name("uxPriority")
    1465                      .dwattr $C$DW$124, DW_AT_TI_symbol_name("_uxPriority")
    1466                      .dwattr $C$DW$124, DW_AT_data_member_location[DW_OP_plus_uconst 0x16]
    1467                      .dwattr $C$DW$124, DW_AT_accessibility(DW_ACCESS_public)
    1468              $C$DW$125       .dwtag  DW_TAG_member
    1469                      .dwattr $C$DW$125, DW_AT_type(*$C$DW$T$11)
    1470                      .dwattr $C$DW$125, DW_AT_name("uxIndex")
    1471                      .dwattr $C$DW$125, DW_AT_TI_symbol_name("_uxIndex")
    1472                      .dwattr $C$DW$125, DW_AT_data_member_location[DW_OP_plus_uconst 0x17]
    1473                      .dwattr $C$DW$125, DW_AT_accessibility(DW_ACCESS_public)
    1474              $C$DW$126       .dwtag  DW_TAG_member
    1475                      .dwattr $C$DW$126, DW_AT_type(*$C$DW$T$9)
    1476                      .dwattr $C$DW$126, DW_AT_name("uxState")
    1477                      .dwattr $C$DW$126, DW_AT_TI_symbol_name("_uxState")
    1478                      .dwattr $C$DW$126, DW_AT_data_member_location[DW_OP_plus_uconst 0x18]
    1479                      .dwattr $C$DW$126, DW_AT_accessibility(DW_ACCESS_public)
    1480                      .dwendtag $C$DW$T$24
    1481              
    1482              $C$DW$T$59      .dwtag  DW_TAG_typedef, DW_AT_name("corCRCB")
    1483                      .dwattr $C$DW$T$59, DW_AT_type(*$C$DW$T$24)
    1484                      .dwattr $C$DW$T$59, DW_AT_language(DW_LANG_C)
    1485              $C$DW$T$60      .dwtag  DW_TAG_pointer_type
    1486                      .dwattr $C$DW$T$60, DW_AT_type(*$C$DW$T$59)
    1487                      .dwattr $C$DW$T$60, DW_AT_address_class(0x17)
    1488              
    1489              $C$DW$T$30      .dwtag  DW_TAG_structure_type
    1490                      .dwattr $C$DW$T$30, DW_AT_name("xLIST")
    1491                      .dwattr $C$DW$T$30, DW_AT_byte_size(0x0a)
    1492              $C$DW$127       .dwtag  DW_TAG_member
    1493                      .dwattr $C$DW$127, DW_AT_type(*$C$DW$T$25)
    1494                      .dwattr $C$DW$127, DW_AT_name("uxNumberOfItems")
    1495                      .dwattr $C$DW$127, DW_AT_TI_symbol_name("_uxNumberOfItems")
    1496                      .dwattr $C$DW$127, DW_AT_data_member_location[DW_OP_plus_uconst 0x0]
    1497                      .dwattr $C$DW$127, DW_AT_accessibility(DW_ACCESS_public)
    1498              $C$DW$128       .dwtag  DW_TAG_member
    1499                      .dwattr $C$DW$128, DW_AT_type(*$C$DW$T$27)
    1500                      .dwattr $C$DW$128, DW_AT_name("pxIndex")
    1501                      .dwattr $C$DW$128, DW_AT_TI_symbol_name("_pxIndex")
    1502                      .dwattr $C$DW$128, DW_AT_data_member_location[DW_OP_plus_uconst 0x2]
    1503                      .dwattr $C$DW$128, DW_AT_accessibility(DW_ACCESS_public)
    1504              $C$DW$129       .dwtag  DW_TAG_member
    1505                      .dwattr $C$DW$129, DW_AT_type(*$C$DW$T$29)
    1506                      .dwattr $C$DW$129, DW_AT_name("xListEnd")
    1507                      .dwattr $C$DW$129, DW_AT_TI_symbol_name("_xListEnd")
    1508                      .dwattr $C$DW$129, DW_AT_data_member_location[DW_OP_plus_uconst 0x4]
    1509                      .dwattr $C$DW$129, DW_AT_accessibility(DW_ACCESS_public)
    1510                      .dwendtag $C$DW$T$30
    1511              
    1512              $C$DW$T$40      .dwtag  DW_TAG_typedef, DW_AT_name("xList")
    1513                      .dwattr $C$DW$T$40, DW_AT_type(*$C$DW$T$30)
    1514                      .dwattr $C$DW$T$40, DW_AT_language(DW_LANG_C)
TMS320C55x Assembler PC v4.4.1 Sat Sep 08 23:28:18 2018

Tools Copyright (c) 1996-2012 Texas Instruments Incorporated
croutine.asm                                                         PAGE   34

    1515              $C$DW$T$41      .dwtag  DW_TAG_pointer_type
    1516                      .dwattr $C$DW$T$41, DW_AT_type(*$C$DW$T$40)
    1517                      .dwattr $C$DW$T$41, DW_AT_address_class(0x17)
    1518              $C$DW$130       .dwtag  DW_TAG_TI_far_type
    1519                      .dwattr $C$DW$130, DW_AT_type(*$C$DW$T$41)
    1520              $C$DW$T$61      .dwtag  DW_TAG_const_type
    1521                      .dwattr $C$DW$T$61, DW_AT_type(*$C$DW$130)
    1522              
    1523              $C$DW$T$62      .dwtag  DW_TAG_array_type
    1524                      .dwattr $C$DW$T$62, DW_AT_type(*$C$DW$T$40)
    1525                      .dwattr $C$DW$T$62, DW_AT_language(DW_LANG_C)
    1526                      .dwattr $C$DW$T$62, DW_AT_byte_size(0x14)
    1527              $C$DW$131       .dwtag  DW_TAG_subrange_type
    1528                      .dwattr $C$DW$131, DW_AT_upper_bound(0x01)
    1529                      .dwendtag $C$DW$T$62
    1530              
    1531              $C$DW$132       .dwtag  DW_TAG_TI_far_type
    1532                      .dwattr $C$DW$132, DW_AT_type(*$C$DW$T$40)
    1533              $C$DW$T$53      .dwtag  DW_TAG_const_type
    1534                      .dwattr $C$DW$T$53, DW_AT_type(*$C$DW$132)
    1535              $C$DW$T$54      .dwtag  DW_TAG_pointer_type
    1536                      .dwattr $C$DW$T$54, DW_AT_type(*$C$DW$T$53)
    1537                      .dwattr $C$DW$T$54, DW_AT_address_class(0x17)
    1538              
    1539              $C$DW$T$34      .dwtag  DW_TAG_structure_type
    1540                      .dwattr $C$DW$T$34, DW_AT_name("xLIST_ITEM")
    1541                      .dwattr $C$DW$T$34, DW_AT_byte_size(0x0a)
    1542              $C$DW$133       .dwtag  DW_TAG_member
    1543                      .dwattr $C$DW$133, DW_AT_type(*$C$DW$T$31)
    1544                      .dwattr $C$DW$133, DW_AT_name("xItemValue")
    1545                      .dwattr $C$DW$133, DW_AT_TI_symbol_name("_xItemValue")
    1546                      .dwattr $C$DW$133, DW_AT_data_member_location[DW_OP_plus_uconst 0x0]
    1547                      .dwattr $C$DW$133, DW_AT_accessibility(DW_ACCESS_public)
    1548              $C$DW$134       .dwtag  DW_TAG_member
    1549                      .dwattr $C$DW$134, DW_AT_type(*$C$DW$T$33)
    1550                      .dwattr $C$DW$134, DW_AT_name("pxNext")
    1551                      .dwattr $C$DW$134, DW_AT_TI_symbol_name("_pxNext")
    1552                      .dwattr $C$DW$134, DW_AT_data_member_location[DW_OP_plus_uconst 0x2]
    1553                      .dwattr $C$DW$134, DW_AT_accessibility(DW_ACCESS_public)
    1554              $C$DW$135       .dwtag  DW_TAG_member
    1555                      .dwattr $C$DW$135, DW_AT_type(*$C$DW$T$33)
    1556                      .dwattr $C$DW$135, DW_AT_name("pxPrevious")
    1557                      .dwattr $C$DW$135, DW_AT_TI_symbol_name("_pxPrevious")
    1558                      .dwattr $C$DW$135, DW_AT_data_member_location[DW_OP_plus_uconst 0x4]
    1559                      .dwattr $C$DW$135, DW_AT_accessibility(DW_ACCESS_public)
    1560              $C$DW$136       .dwtag  DW_TAG_member
    1561                      .dwattr $C$DW$136, DW_AT_type(*$C$DW$T$3)
    1562                      .dwattr $C$DW$136, DW_AT_name("pvOwner")
    1563                      .dwattr $C$DW$136, DW_AT_TI_symbol_name("_pvOwner")
    1564                      .dwattr $C$DW$136, DW_AT_data_member_location[DW_OP_plus_uconst 0x6]
    1565                      .dwattr $C$DW$136, DW_AT_accessibility(DW_ACCESS_public)
    1566              $C$DW$137       .dwtag  DW_TAG_member
    1567                      .dwattr $C$DW$137, DW_AT_type(*$C$DW$T$3)
    1568                      .dwattr $C$DW$137, DW_AT_name("pvContainer")
    1569                      .dwattr $C$DW$137, DW_AT_TI_symbol_name("_pvContainer")
TMS320C55x Assembler PC v4.4.1 Sat Sep 08 23:28:18 2018

Tools Copyright (c) 1996-2012 Texas Instruments Incorporated
croutine.asm                                                         PAGE   35

    1570                      .dwattr $C$DW$137, DW_AT_data_member_location[DW_OP_plus_uconst 0x8]
    1571                      .dwattr $C$DW$137, DW_AT_accessibility(DW_ACCESS_public)
    1572                      .dwendtag $C$DW$T$34
    1573              
    1574              $C$DW$138       .dwtag  DW_TAG_TI_far_type
    1575                      .dwattr $C$DW$138, DW_AT_type(*$C$DW$T$34)
    1576              $C$DW$T$32      .dwtag  DW_TAG_volatile_type
    1577                      .dwattr $C$DW$T$32, DW_AT_type(*$C$DW$138)
    1578              $C$DW$T$33      .dwtag  DW_TAG_pointer_type
    1579                      .dwattr $C$DW$T$33, DW_AT_type(*$C$DW$T$32)
    1580                      .dwattr $C$DW$T$33, DW_AT_address_class(0x17)
    1581              $C$DW$T$23      .dwtag  DW_TAG_typedef, DW_AT_name("xListItem")
    1582                      .dwattr $C$DW$T$23, DW_AT_type(*$C$DW$T$34)
    1583                      .dwattr $C$DW$T$23, DW_AT_language(DW_LANG_C)
    1584              $C$DW$T$44      .dwtag  DW_TAG_pointer_type
    1585                      .dwattr $C$DW$T$44, DW_AT_type(*$C$DW$T$23)
    1586                      .dwattr $C$DW$T$44, DW_AT_address_class(0x17)
    1587              $C$DW$139       .dwtag  DW_TAG_TI_far_type
    1588                      .dwattr $C$DW$139, DW_AT_type(*$C$DW$T$23)
    1589              $C$DW$T$26      .dwtag  DW_TAG_volatile_type
    1590                      .dwattr $C$DW$T$26, DW_AT_type(*$C$DW$139)
    1591              $C$DW$T$27      .dwtag  DW_TAG_pointer_type
    1592                      .dwattr $C$DW$T$27, DW_AT_type(*$C$DW$T$26)
    1593                      .dwattr $C$DW$T$27, DW_AT_address_class(0x17)
    1594              
    1595              $C$DW$T$35      .dwtag  DW_TAG_structure_type
    1596                      .dwattr $C$DW$T$35, DW_AT_name("xMINI_LIST_ITEM")
    1597                      .dwattr $C$DW$T$35, DW_AT_byte_size(0x06)
    1598              $C$DW$140       .dwtag  DW_TAG_member
    1599                      .dwattr $C$DW$140, DW_AT_type(*$C$DW$T$31)
    1600                      .dwattr $C$DW$140, DW_AT_name("xItemValue")
    1601                      .dwattr $C$DW$140, DW_AT_TI_symbol_name("_xItemValue")
    1602                      .dwattr $C$DW$140, DW_AT_data_member_location[DW_OP_plus_uconst 0x0]
    1603                      .dwattr $C$DW$140, DW_AT_accessibility(DW_ACCESS_public)
    1604              $C$DW$141       .dwtag  DW_TAG_member
    1605                      .dwattr $C$DW$141, DW_AT_type(*$C$DW$T$33)
    1606                      .dwattr $C$DW$141, DW_AT_name("pxNext")
    1607                      .dwattr $C$DW$141, DW_AT_TI_symbol_name("_pxNext")
    1608                      .dwattr $C$DW$141, DW_AT_data_member_location[DW_OP_plus_uconst 0x2]
    1609                      .dwattr $C$DW$141, DW_AT_accessibility(DW_ACCESS_public)
    1610              $C$DW$142       .dwtag  DW_TAG_member
    1611                      .dwattr $C$DW$142, DW_AT_type(*$C$DW$T$33)
    1612                      .dwattr $C$DW$142, DW_AT_name("pxPrevious")
    1613                      .dwattr $C$DW$142, DW_AT_TI_symbol_name("_pxPrevious")
    1614                      .dwattr $C$DW$142, DW_AT_data_member_location[DW_OP_plus_uconst 0x4]
    1615                      .dwattr $C$DW$142, DW_AT_accessibility(DW_ACCESS_public)
    1616                      .dwendtag $C$DW$T$35
    1617              
    1618              $C$DW$T$28      .dwtag  DW_TAG_typedef, DW_AT_name("xMiniListItem")
    1619                      .dwattr $C$DW$T$28, DW_AT_type(*$C$DW$T$35)
    1620                      .dwattr $C$DW$T$28, DW_AT_language(DW_LANG_C)
    1621              $C$DW$143       .dwtag  DW_TAG_TI_far_type
    1622                      .dwattr $C$DW$143, DW_AT_type(*$C$DW$T$28)
    1623              $C$DW$T$29      .dwtag  DW_TAG_volatile_type
    1624                      .dwattr $C$DW$T$29, DW_AT_type(*$C$DW$143)
TMS320C55x Assembler PC v4.4.1 Sat Sep 08 23:28:18 2018

Tools Copyright (c) 1996-2012 Texas Instruments Incorporated
croutine.asm                                                         PAGE   36

    1625                      .dwattr $C$DW$CU, DW_AT_language(DW_LANG_C)
    1626              
    1627              ;***************************************************************
    1628              ;* DWARF CIE ENTRIES                                           *
    1629              ;***************************************************************
    1630              
    1631              $C$DW$CIE       .dwcie 91
    1632                      .dwcfi  cfa_register, 36
    1633                      .dwcfi  cfa_offset, 0
    1634                      .dwcfi  undefined, 0
    1635                      .dwcfi  undefined, 1
    1636                      .dwcfi  undefined, 2
    1637                      .dwcfi  undefined, 3
    1638                      .dwcfi  undefined, 4
    1639                      .dwcfi  undefined, 5
    1640                      .dwcfi  undefined, 6
    1641                      .dwcfi  undefined, 7
    1642                      .dwcfi  undefined, 8
    1643                      .dwcfi  undefined, 9
    1644                      .dwcfi  undefined, 10
    1645                      .dwcfi  undefined, 11
    1646                      .dwcfi  undefined, 12
    1647                      .dwcfi  undefined, 13
    1648                      .dwcfi  same_value, 14
    1649                      .dwcfi  same_value, 15
    1650                      .dwcfi  undefined, 16
    1651                      .dwcfi  undefined, 17
    1652                      .dwcfi  undefined, 18
    1653                      .dwcfi  undefined, 19
    1654                      .dwcfi  undefined, 20
    1655                      .dwcfi  undefined, 21
    1656                      .dwcfi  undefined, 22
    1657                      .dwcfi  undefined, 23
    1658                      .dwcfi  undefined, 24
    1659                      .dwcfi  undefined, 25
    1660                      .dwcfi  same_value, 26
    1661                      .dwcfi  same_value, 27
    1662                      .dwcfi  same_value, 28
    1663                      .dwcfi  same_value, 29
    1664                      .dwcfi  same_value, 30
    1665                      .dwcfi  same_value, 31
    1666                      .dwcfi  undefined, 32
    1667                      .dwcfi  undefined, 33
    1668                      .dwcfi  undefined, 34
    1669                      .dwcfi  undefined, 35
    1670                      .dwcfi  undefined, 36
    1671                      .dwcfi  undefined, 37
    1672                      .dwcfi  undefined, 38
    1673                      .dwcfi  undefined, 39
    1674                      .dwcfi  undefined, 40
    1675                      .dwcfi  undefined, 41
    1676                      .dwcfi  undefined, 42
    1677                      .dwcfi  undefined, 43
    1678                      .dwcfi  undefined, 44
    1679                      .dwcfi  undefined, 45
TMS320C55x Assembler PC v4.4.1 Sat Sep 08 23:28:18 2018

Tools Copyright (c) 1996-2012 Texas Instruments Incorporated
croutine.asm                                                         PAGE   37

    1680                      .dwcfi  undefined, 46
    1681                      .dwcfi  undefined, 47
    1682                      .dwcfi  undefined, 48
    1683                      .dwcfi  undefined, 49
    1684                      .dwcfi  undefined, 50
    1685                      .dwcfi  undefined, 51
    1686                      .dwcfi  undefined, 52
    1687                      .dwcfi  undefined, 53
    1688                      .dwcfi  undefined, 54
    1689                      .dwcfi  undefined, 55
    1690                      .dwcfi  undefined, 56
    1691                      .dwcfi  undefined, 57
    1692                      .dwcfi  undefined, 58
    1693                      .dwcfi  undefined, 59
    1694                      .dwcfi  undefined, 60
    1695                      .dwcfi  undefined, 61
    1696                      .dwcfi  undefined, 62
    1697                      .dwcfi  undefined, 63
    1698                      .dwcfi  undefined, 64
    1699                      .dwcfi  undefined, 65
    1700                      .dwcfi  undefined, 66
    1701                      .dwcfi  undefined, 67
    1702                      .dwcfi  undefined, 68
    1703                      .dwcfi  undefined, 69
    1704                      .dwcfi  undefined, 70
    1705                      .dwcfi  undefined, 71
    1706                      .dwcfi  undefined, 72
    1707                      .dwcfi  undefined, 73
    1708                      .dwcfi  undefined, 74
    1709                      .dwcfi  undefined, 75
    1710                      .dwcfi  undefined, 76
    1711                      .dwcfi  undefined, 77
    1712                      .dwcfi  undefined, 78
    1713                      .dwcfi  undefined, 79
    1714                      .dwcfi  undefined, 80
    1715                      .dwcfi  undefined, 81
    1716                      .dwcfi  undefined, 82
    1717                      .dwcfi  undefined, 83
    1718                      .dwcfi  undefined, 84
    1719                      .dwcfi  undefined, 85
    1720                      .dwcfi  undefined, 86
    1721                      .dwcfi  undefined, 87
    1722                      .dwcfi  undefined, 88
    1723                      .dwcfi  undefined, 89
    1724                      .dwcfi  undefined, 90
    1725                      .dwcfi  undefined, 91
    1726                      .dwendentry
    1727              
    1728              ;***************************************************************
    1729              ;* DWARF REGISTER MAP                                          *
    1730              ;***************************************************************
    1731              
    1732              $C$DW$144       .dwtag  DW_TAG_TI_assign_register, DW_AT_name("AC0")
    1733                      .dwattr $C$DW$144, DW_AT_location[DW_OP_reg0]
    1734              $C$DW$145       .dwtag  DW_TAG_TI_assign_register, DW_AT_name("AC0")
TMS320C55x Assembler PC v4.4.1 Sat Sep 08 23:28:18 2018

Tools Copyright (c) 1996-2012 Texas Instruments Incorporated
croutine.asm                                                         PAGE   38

    1735                      .dwattr $C$DW$145, DW_AT_location[DW_OP_reg1]
    1736              $C$DW$146       .dwtag  DW_TAG_TI_assign_register, DW_AT_name("AC0_G")
    1737                      .dwattr $C$DW$146, DW_AT_location[DW_OP_reg2]
    1738              $C$DW$147       .dwtag  DW_TAG_TI_assign_register, DW_AT_name("AC1")
    1739                      .dwattr $C$DW$147, DW_AT_location[DW_OP_reg3]
    1740              $C$DW$148       .dwtag  DW_TAG_TI_assign_register, DW_AT_name("AC1")
    1741                      .dwattr $C$DW$148, DW_AT_location[DW_OP_reg4]
    1742              $C$DW$149       .dwtag  DW_TAG_TI_assign_register, DW_AT_name("AC1_G")
    1743                      .dwattr $C$DW$149, DW_AT_location[DW_OP_reg5]
    1744              $C$DW$150       .dwtag  DW_TAG_TI_assign_register, DW_AT_name("AC2")
    1745                      .dwattr $C$DW$150, DW_AT_location[DW_OP_reg6]
    1746              $C$DW$151       .dwtag  DW_TAG_TI_assign_register, DW_AT_name("AC2")
    1747                      .dwattr $C$DW$151, DW_AT_location[DW_OP_reg7]
    1748              $C$DW$152       .dwtag  DW_TAG_TI_assign_register, DW_AT_name("AC2_G")
    1749                      .dwattr $C$DW$152, DW_AT_location[DW_OP_reg8]
    1750              $C$DW$153       .dwtag  DW_TAG_TI_assign_register, DW_AT_name("AC3")
    1751                      .dwattr $C$DW$153, DW_AT_location[DW_OP_reg9]
    1752              $C$DW$154       .dwtag  DW_TAG_TI_assign_register, DW_AT_name("AC3")
    1753                      .dwattr $C$DW$154, DW_AT_location[DW_OP_reg10]
    1754              $C$DW$155       .dwtag  DW_TAG_TI_assign_register, DW_AT_name("AC3_G")
    1755                      .dwattr $C$DW$155, DW_AT_location[DW_OP_reg11]
    1756              $C$DW$156       .dwtag  DW_TAG_TI_assign_register, DW_AT_name("T0")
    1757                      .dwattr $C$DW$156, DW_AT_location[DW_OP_reg12]
    1758              $C$DW$157       .dwtag  DW_TAG_TI_assign_register, DW_AT_name("T1")
    1759                      .dwattr $C$DW$157, DW_AT_location[DW_OP_reg13]
    1760              $C$DW$158       .dwtag  DW_TAG_TI_assign_register, DW_AT_name("T2")
    1761                      .dwattr $C$DW$158, DW_AT_location[DW_OP_reg14]
    1762              $C$DW$159       .dwtag  DW_TAG_TI_assign_register, DW_AT_name("T3")
    1763                      .dwattr $C$DW$159, DW_AT_location[DW_OP_reg15]
    1764              $C$DW$160       .dwtag  DW_TAG_TI_assign_register, DW_AT_name("AR0")
    1765                      .dwattr $C$DW$160, DW_AT_location[DW_OP_reg16]
    1766              $C$DW$161       .dwtag  DW_TAG_TI_assign_register, DW_AT_name("XAR0")
    1767                      .dwattr $C$DW$161, DW_AT_location[DW_OP_reg17]
    1768              $C$DW$162       .dwtag  DW_TAG_TI_assign_register, DW_AT_name("AR1")
    1769                      .dwattr $C$DW$162, DW_AT_location[DW_OP_reg18]
    1770              $C$DW$163       .dwtag  DW_TAG_TI_assign_register, DW_AT_name("XAR1")
    1771                      .dwattr $C$DW$163, DW_AT_location[DW_OP_reg19]
    1772              $C$DW$164       .dwtag  DW_TAG_TI_assign_register, DW_AT_name("AR2")
    1773                      .dwattr $C$DW$164, DW_AT_location[DW_OP_reg20]
    1774              $C$DW$165       .dwtag  DW_TAG_TI_assign_register, DW_AT_name("XAR2")
    1775                      .dwattr $C$DW$165, DW_AT_location[DW_OP_reg21]
    1776              $C$DW$166       .dwtag  DW_TAG_TI_assign_register, DW_AT_name("AR3")
    1777                      .dwattr $C$DW$166, DW_AT_location[DW_OP_reg22]
    1778              $C$DW$167       .dwtag  DW_TAG_TI_assign_register, DW_AT_name("XAR3")
    1779                      .dwattr $C$DW$167, DW_AT_location[DW_OP_reg23]
    1780              $C$DW$168       .dwtag  DW_TAG_TI_assign_register, DW_AT_name("AR4")
    1781                      .dwattr $C$DW$168, DW_AT_location[DW_OP_reg24]
    1782              $C$DW$169       .dwtag  DW_TAG_TI_assign_register, DW_AT_name("XAR4")
    1783                      .dwattr $C$DW$169, DW_AT_location[DW_OP_reg25]
    1784              $C$DW$170       .dwtag  DW_TAG_TI_assign_register, DW_AT_name("AR5")
    1785                      .dwattr $C$DW$170, DW_AT_location[DW_OP_reg26]
    1786              $C$DW$171       .dwtag  DW_TAG_TI_assign_register, DW_AT_name("XAR5")
    1787                      .dwattr $C$DW$171, DW_AT_location[DW_OP_reg27]
    1788              $C$DW$172       .dwtag  DW_TAG_TI_assign_register, DW_AT_name("AR6")
    1789                      .dwattr $C$DW$172, DW_AT_location[DW_OP_reg28]
TMS320C55x Assembler PC v4.4.1 Sat Sep 08 23:28:18 2018

Tools Copyright (c) 1996-2012 Texas Instruments Incorporated
croutine.asm                                                         PAGE   39

    1790              $C$DW$173       .dwtag  DW_TAG_TI_assign_register, DW_AT_name("XAR6")
    1791                      .dwattr $C$DW$173, DW_AT_location[DW_OP_reg29]
    1792              $C$DW$174       .dwtag  DW_TAG_TI_assign_register, DW_AT_name("AR7")
    1793                      .dwattr $C$DW$174, DW_AT_location[DW_OP_reg30]
    1794              $C$DW$175       .dwtag  DW_TAG_TI_assign_register, DW_AT_name("XAR7")
    1795                      .dwattr $C$DW$175, DW_AT_location[DW_OP_reg31]
    1796              $C$DW$176       .dwtag  DW_TAG_TI_assign_register, DW_AT_name("FP")
    1797                      .dwattr $C$DW$176, DW_AT_location[DW_OP_regx 0x20]
    1798              $C$DW$177       .dwtag  DW_TAG_TI_assign_register, DW_AT_name("XFP")
    1799                      .dwattr $C$DW$177, DW_AT_location[DW_OP_regx 0x21]
    1800              $C$DW$178       .dwtag  DW_TAG_TI_assign_register, DW_AT_name("PC")
    1801                      .dwattr $C$DW$178, DW_AT_location[DW_OP_regx 0x22]
    1802              $C$DW$179       .dwtag  DW_TAG_TI_assign_register, DW_AT_name("SP")
    1803                      .dwattr $C$DW$179, DW_AT_location[DW_OP_regx 0x23]
    1804              $C$DW$180       .dwtag  DW_TAG_TI_assign_register, DW_AT_name("XSP")
    1805                      .dwattr $C$DW$180, DW_AT_location[DW_OP_regx 0x24]
    1806              $C$DW$181       .dwtag  DW_TAG_TI_assign_register, DW_AT_name("BKC")
    1807                      .dwattr $C$DW$181, DW_AT_location[DW_OP_regx 0x25]
    1808              $C$DW$182       .dwtag  DW_TAG_TI_assign_register, DW_AT_name("BK03")
    1809                      .dwattr $C$DW$182, DW_AT_location[DW_OP_regx 0x26]
    1810              $C$DW$183       .dwtag  DW_TAG_TI_assign_register, DW_AT_name("BK47")
    1811                      .dwattr $C$DW$183, DW_AT_location[DW_OP_regx 0x27]
    1812              $C$DW$184       .dwtag  DW_TAG_TI_assign_register, DW_AT_name("ST0")
    1813                      .dwattr $C$DW$184, DW_AT_location[DW_OP_regx 0x28]
    1814              $C$DW$185       .dwtag  DW_TAG_TI_assign_register, DW_AT_name("ST1")
    1815                      .dwattr $C$DW$185, DW_AT_location[DW_OP_regx 0x29]
    1816              $C$DW$186       .dwtag  DW_TAG_TI_assign_register, DW_AT_name("ST2")
    1817                      .dwattr $C$DW$186, DW_AT_location[DW_OP_regx 0x2a]
    1818              $C$DW$187       .dwtag  DW_TAG_TI_assign_register, DW_AT_name("ST3")
    1819                      .dwattr $C$DW$187, DW_AT_location[DW_OP_regx 0x2b]
    1820              $C$DW$188       .dwtag  DW_TAG_TI_assign_register, DW_AT_name("MDP")
    1821                      .dwattr $C$DW$188, DW_AT_location[DW_OP_regx 0x2c]
    1822              $C$DW$189       .dwtag  DW_TAG_TI_assign_register, DW_AT_name("MDP05")
    1823                      .dwattr $C$DW$189, DW_AT_location[DW_OP_regx 0x2d]
    1824              $C$DW$190       .dwtag  DW_TAG_TI_assign_register, DW_AT_name("MDP67")
    1825                      .dwattr $C$DW$190, DW_AT_location[DW_OP_regx 0x2e]
    1826              $C$DW$191       .dwtag  DW_TAG_TI_assign_register, DW_AT_name("BRC0")
    1827                      .dwattr $C$DW$191, DW_AT_location[DW_OP_regx 0x2f]
    1828              $C$DW$192       .dwtag  DW_TAG_TI_assign_register, DW_AT_name("RSA0")
    1829                      .dwattr $C$DW$192, DW_AT_location[DW_OP_regx 0x30]
    1830              $C$DW$193       .dwtag  DW_TAG_TI_assign_register, DW_AT_name("RSA0_H")
    1831                      .dwattr $C$DW$193, DW_AT_location[DW_OP_regx 0x31]
    1832              $C$DW$194       .dwtag  DW_TAG_TI_assign_register, DW_AT_name("REA0")
    1833                      .dwattr $C$DW$194, DW_AT_location[DW_OP_regx 0x32]
    1834              $C$DW$195       .dwtag  DW_TAG_TI_assign_register, DW_AT_name("REA0_H")
    1835                      .dwattr $C$DW$195, DW_AT_location[DW_OP_regx 0x33]
    1836              $C$DW$196       .dwtag  DW_TAG_TI_assign_register, DW_AT_name("BRS1")
    1837                      .dwattr $C$DW$196, DW_AT_location[DW_OP_regx 0x34]
    1838              $C$DW$197       .dwtag  DW_TAG_TI_assign_register, DW_AT_name("BRC1")
    1839                      .dwattr $C$DW$197, DW_AT_location[DW_OP_regx 0x35]
    1840              $C$DW$198       .dwtag  DW_TAG_TI_assign_register, DW_AT_name("RSA1")
    1841                      .dwattr $C$DW$198, DW_AT_location[DW_OP_regx 0x36]
    1842              $C$DW$199       .dwtag  DW_TAG_TI_assign_register, DW_AT_name("RSA1_H")
    1843                      .dwattr $C$DW$199, DW_AT_location[DW_OP_regx 0x37]
    1844              $C$DW$200       .dwtag  DW_TAG_TI_assign_register, DW_AT_name("REA1")
TMS320C55x Assembler PC v4.4.1 Sat Sep 08 23:28:18 2018

Tools Copyright (c) 1996-2012 Texas Instruments Incorporated
croutine.asm                                                         PAGE   40

    1845                      .dwattr $C$DW$200, DW_AT_location[DW_OP_regx 0x38]
    1846              $C$DW$201       .dwtag  DW_TAG_TI_assign_register, DW_AT_name("REA1_H")
    1847                      .dwattr $C$DW$201, DW_AT_location[DW_OP_regx 0x39]
    1848              $C$DW$202       .dwtag  DW_TAG_TI_assign_register, DW_AT_name("CSR")
    1849                      .dwattr $C$DW$202, DW_AT_location[DW_OP_regx 0x3a]
    1850              $C$DW$203       .dwtag  DW_TAG_TI_assign_register, DW_AT_name("RPTC")
    1851                      .dwattr $C$DW$203, DW_AT_location[DW_OP_regx 0x3b]
    1852              $C$DW$204       .dwtag  DW_TAG_TI_assign_register, DW_AT_name("CDP")
    1853                      .dwattr $C$DW$204, DW_AT_location[DW_OP_regx 0x3c]
    1854              $C$DW$205       .dwtag  DW_TAG_TI_assign_register, DW_AT_name("XCDP")
    1855                      .dwattr $C$DW$205, DW_AT_location[DW_OP_regx 0x3d]
    1856              $C$DW$206       .dwtag  DW_TAG_TI_assign_register, DW_AT_name("TRN0")
    1857                      .dwattr $C$DW$206, DW_AT_location[DW_OP_regx 0x3e]
    1858              $C$DW$207       .dwtag  DW_TAG_TI_assign_register, DW_AT_name("TRN1")
    1859                      .dwattr $C$DW$207, DW_AT_location[DW_OP_regx 0x3f]
    1860              $C$DW$208       .dwtag  DW_TAG_TI_assign_register, DW_AT_name("BSA01")
    1861                      .dwattr $C$DW$208, DW_AT_location[DW_OP_regx 0x40]
    1862              $C$DW$209       .dwtag  DW_TAG_TI_assign_register, DW_AT_name("BSA23")
    1863                      .dwattr $C$DW$209, DW_AT_location[DW_OP_regx 0x41]
    1864              $C$DW$210       .dwtag  DW_TAG_TI_assign_register, DW_AT_name("BSA45")
    1865                      .dwattr $C$DW$210, DW_AT_location[DW_OP_regx 0x42]
    1866              $C$DW$211       .dwtag  DW_TAG_TI_assign_register, DW_AT_name("BSA67")
    1867                      .dwattr $C$DW$211, DW_AT_location[DW_OP_regx 0x43]
    1868              $C$DW$212       .dwtag  DW_TAG_TI_assign_register, DW_AT_name("BSAC")
    1869                      .dwattr $C$DW$212, DW_AT_location[DW_OP_regx 0x44]
    1870              $C$DW$213       .dwtag  DW_TAG_TI_assign_register, DW_AT_name("CARRY")
    1871                      .dwattr $C$DW$213, DW_AT_location[DW_OP_regx 0x45]
    1872              $C$DW$214       .dwtag  DW_TAG_TI_assign_register, DW_AT_name("TC1")
    1873                      .dwattr $C$DW$214, DW_AT_location[DW_OP_regx 0x46]
    1874              $C$DW$215       .dwtag  DW_TAG_TI_assign_register, DW_AT_name("TC2")
    1875                      .dwattr $C$DW$215, DW_AT_location[DW_OP_regx 0x47]
    1876              $C$DW$216       .dwtag  DW_TAG_TI_assign_register, DW_AT_name("M40")
    1877                      .dwattr $C$DW$216, DW_AT_location[DW_OP_regx 0x48]
    1878              $C$DW$217       .dwtag  DW_TAG_TI_assign_register, DW_AT_name("SXMD")
    1879                      .dwattr $C$DW$217, DW_AT_location[DW_OP_regx 0x49]
    1880              $C$DW$218       .dwtag  DW_TAG_TI_assign_register, DW_AT_name("ARMS")
    1881                      .dwattr $C$DW$218, DW_AT_location[DW_OP_regx 0x4a]
    1882              $C$DW$219       .dwtag  DW_TAG_TI_assign_register, DW_AT_name("C54CM")
    1883                      .dwattr $C$DW$219, DW_AT_location[DW_OP_regx 0x4b]
    1884              $C$DW$220       .dwtag  DW_TAG_TI_assign_register, DW_AT_name("SATA")
    1885                      .dwattr $C$DW$220, DW_AT_location[DW_OP_regx 0x4c]
    1886              $C$DW$221       .dwtag  DW_TAG_TI_assign_register, DW_AT_name("SATD")
    1887                      .dwattr $C$DW$221, DW_AT_location[DW_OP_regx 0x4d]
    1888              $C$DW$222       .dwtag  DW_TAG_TI_assign_register, DW_AT_name("RDM")
    1889                      .dwattr $C$DW$222, DW_AT_location[DW_OP_regx 0x4e]
    1890              $C$DW$223       .dwtag  DW_TAG_TI_assign_register, DW_AT_name("FRCT")
    1891                      .dwattr $C$DW$223, DW_AT_location[DW_OP_regx 0x4f]
    1892              $C$DW$224       .dwtag  DW_TAG_TI_assign_register, DW_AT_name("SMUL")
    1893                      .dwattr $C$DW$224, DW_AT_location[DW_OP_regx 0x50]
    1894              $C$DW$225       .dwtag  DW_TAG_TI_assign_register, DW_AT_name("INTM")
    1895                      .dwattr $C$DW$225, DW_AT_location[DW_OP_regx 0x51]
    1896              $C$DW$226       .dwtag  DW_TAG_TI_assign_register, DW_AT_name("AR0LC")
    1897                      .dwattr $C$DW$226, DW_AT_location[DW_OP_regx 0x52]
    1898              $C$DW$227       .dwtag  DW_TAG_TI_assign_register, DW_AT_name("AR1LC")
    1899                      .dwattr $C$DW$227, DW_AT_location[DW_OP_regx 0x53]
TMS320C55x Assembler PC v4.4.1 Sat Sep 08 23:28:18 2018

Tools Copyright (c) 1996-2012 Texas Instruments Incorporated
croutine.asm                                                         PAGE   41

    1900              $C$DW$228       .dwtag  DW_TAG_TI_assign_register, DW_AT_name("AR2LC")
    1901                      .dwattr $C$DW$228, DW_AT_location[DW_OP_regx 0x54]
    1902              $C$DW$229       .dwtag  DW_TAG_TI_assign_register, DW_AT_name("AR3LC")
    1903                      .dwattr $C$DW$229, DW_AT_location[DW_OP_regx 0x55]
    1904              $C$DW$230       .dwtag  DW_TAG_TI_assign_register, DW_AT_name("AR4LC")
    1905                      .dwattr $C$DW$230, DW_AT_location[DW_OP_regx 0x56]
    1906              $C$DW$231       .dwtag  DW_TAG_TI_assign_register, DW_AT_name("AR5LC")
    1907                      .dwattr $C$DW$231, DW_AT_location[DW_OP_regx 0x57]
    1908              $C$DW$232       .dwtag  DW_TAG_TI_assign_register, DW_AT_name("AR6LC")
    1909                      .dwattr $C$DW$232, DW_AT_location[DW_OP_regx 0x58]
    1910              $C$DW$233       .dwtag  DW_TAG_TI_assign_register, DW_AT_name("AR7LC")
    1911                      .dwattr $C$DW$233, DW_AT_location[DW_OP_regx 0x59]
    1912              $C$DW$234       .dwtag  DW_TAG_TI_assign_register, DW_AT_name("CDPLC")
    1913                      .dwattr $C$DW$234, DW_AT_location[DW_OP_regx 0x5a]
    1914              $C$DW$235       .dwtag  DW_TAG_TI_assign_register, DW_AT_name("CIE_RETA")
    1915                      .dwattr $C$DW$235, DW_AT_location[DW_OP_regx 0x5b]
    1916                      .dwendtag $C$DW$CU
    1917              
    1917              
    1917              

No Assembly Errors, No Assembly Warnings
