TMS320C55x Assembler PC v4.4.1 Sat Sep 08 23:28:20 2018

Tools Copyright (c) 1996-2012 Texas Instruments Incorporated
queue.asm                                                            PAGE    1

    3985              ; Temporary Registers Used: None
       1              ;*******************************************************************************
       2              ;* TMS320C55x C/C++ Codegen                                          PC v4.4.1 *
       3              ;* Date/Time created: Sat Sep 08 23:28:19 2018                                 *
       4              ;*******************************************************************************
       5                      .compiler_opts --hll_source=on --mem_model:code=flat --mem_model:data=large --object_format=coff --si
       6                      .mmregs
       7                      .cpl_on
       8                      .arms_on
       9                      .c54cm_off
      10                      .asg AR6, FP
      11                      .asg XAR6, XFP
      12                      .asg DPH, MDP
      13                      .model call=c55_std
      14                      .model mem=large
      15                      .noremark 5002  ; code respects overwrite rules
      16              ;*******************************************************************************
      17              ;* GLOBAL FILE PARAMETERS                                                      *
      18              ;*                                                                             *
      19              ;*   Architecture       : TMS320C55x                                           *
      20              ;*   Optimizing for     : Speed                                                *
      21              ;*   Memory             : Large Model (23-Bit Data Pointers)                   *
      22              ;*   Calls              : Normal Library ASM calls                             *
      23              ;*   Debug Info         : Standard TI Debug Information                        *
      24              ;*******************************************************************************
      25              
      26              $C$DW$CU        .dwtag  DW_TAG_compile_unit
      27                      .dwattr $C$DW$CU, DW_AT_name("../FreeRTOS/Source/queue.c")
      28                      .dwattr $C$DW$CU, DW_AT_producer("TMS320C55x C/C++ Codegen PC v4.4.1 Copyright (c) 1996-2012 Texas In
      29                      .dwattr $C$DW$CU, DW_AT_TI_version(0x01)
      30                      .dwattr $C$DW$CU, DW_AT_comp_dir("F:\eZdsp_C55x_FreeRTOS_Port\VerifiedOKInDbg\eZDSP_5535_Files\ccsws2
      31              
      32              $C$DW$1 .dwtag  DW_TAG_subprogram, DW_AT_name("memcpy")
      33                      .dwattr $C$DW$1, DW_AT_TI_symbol_name("_memcpy")
      34                      .dwattr $C$DW$1, DW_AT_type(*$C$DW$T$3)
      35                      .dwattr $C$DW$1, DW_AT_declaration
      36                      .dwattr $C$DW$1, DW_AT_external
      37              $C$DW$2 .dwtag  DW_TAG_formal_parameter
      38                      .dwattr $C$DW$2, DW_AT_type(*$C$DW$T$3)
      39              $C$DW$3 .dwtag  DW_TAG_formal_parameter
      40                      .dwattr $C$DW$3, DW_AT_type(*$C$DW$T$42)
      41              $C$DW$4 .dwtag  DW_TAG_formal_parameter
      42                      .dwattr $C$DW$4, DW_AT_type(*$C$DW$T$43)
      43                      .dwendtag $C$DW$1
      44              
      45              
      46              $C$DW$5 .dwtag  DW_TAG_subprogram, DW_AT_name("vPortYield")
      47                      .dwattr $C$DW$5, DW_AT_TI_symbol_name("_vPortYield")
      48                      .dwattr $C$DW$5, DW_AT_declaration
      49                      .dwattr $C$DW$5, DW_AT_external
      50              
      51              $C$DW$6 .dwtag  DW_TAG_subprogram, DW_AT_name("pvPortMalloc")
      52                      .dwattr $C$DW$6, DW_AT_TI_symbol_name("_pvPortMalloc")
      53                      .dwattr $C$DW$6, DW_AT_type(*$C$DW$T$3)
      54                      .dwattr $C$DW$6, DW_AT_declaration
TMS320C55x Assembler PC v4.4.1 Sat Sep 08 23:28:20 2018

Tools Copyright (c) 1996-2012 Texas Instruments Incorporated
queue.asm                                                            PAGE    2

      55                      .dwattr $C$DW$6, DW_AT_external
      56              $C$DW$7 .dwtag  DW_TAG_formal_parameter
      57                      .dwattr $C$DW$7, DW_AT_type(*$C$DW$T$43)
      58                      .dwendtag $C$DW$6
      59              
      60              
      61              $C$DW$8 .dwtag  DW_TAG_subprogram, DW_AT_name("vPortFree")
      62                      .dwattr $C$DW$8, DW_AT_TI_symbol_name("_vPortFree")
      63                      .dwattr $C$DW$8, DW_AT_declaration
      64                      .dwattr $C$DW$8, DW_AT_external
      65              $C$DW$9 .dwtag  DW_TAG_formal_parameter
      66                      .dwattr $C$DW$9, DW_AT_type(*$C$DW$T$3)
      67                      .dwendtag $C$DW$8
      68              
      69              
      70              $C$DW$10        .dwtag  DW_TAG_subprogram, DW_AT_name("vListInitialise")
      71                      .dwattr $C$DW$10, DW_AT_TI_symbol_name("_vListInitialise")
      72                      .dwattr $C$DW$10, DW_AT_declaration
      73                      .dwattr $C$DW$10, DW_AT_external
      74              $C$DW$11        .dwtag  DW_TAG_formal_parameter
      75                      .dwattr $C$DW$11, DW_AT_type(*$C$DW$T$53)
      76                      .dwendtag $C$DW$10
      77              
      78              
      79              $C$DW$12        .dwtag  DW_TAG_subprogram, DW_AT_name("vTaskSuspendAll")
      80                      .dwattr $C$DW$12, DW_AT_TI_symbol_name("_vTaskSuspendAll")
      81                      .dwattr $C$DW$12, DW_AT_declaration
      82                      .dwattr $C$DW$12, DW_AT_external
      83              
      84              $C$DW$13        .dwtag  DW_TAG_subprogram, DW_AT_name("xTaskResumeAll")
      85                      .dwattr $C$DW$13, DW_AT_TI_symbol_name("_xTaskResumeAll")
      86                      .dwattr $C$DW$13, DW_AT_type(*$C$DW$T$10)
      87                      .dwattr $C$DW$13, DW_AT_declaration
      88                      .dwattr $C$DW$13, DW_AT_external
      89              
      90              $C$DW$14        .dwtag  DW_TAG_subprogram, DW_AT_name("vTaskPlaceOnEventList")
      91                      .dwattr $C$DW$14, DW_AT_TI_symbol_name("_vTaskPlaceOnEventList")
      92                      .dwattr $C$DW$14, DW_AT_declaration
      93                      .dwattr $C$DW$14, DW_AT_external
      94              $C$DW$15        .dwtag  DW_TAG_formal_parameter
      95                      .dwattr $C$DW$15, DW_AT_type(*$C$DW$T$58)
      96              $C$DW$16        .dwtag  DW_TAG_formal_parameter
      97                      .dwattr $C$DW$16, DW_AT_type(*$C$DW$T$29)
      98                      .dwendtag $C$DW$14
      99              
     100              
     101              $C$DW$17        .dwtag  DW_TAG_subprogram, DW_AT_name("xTaskRemoveFromEventList")
     102                      .dwattr $C$DW$17, DW_AT_TI_symbol_name("_xTaskRemoveFromEventList")
     103                      .dwattr $C$DW$17, DW_AT_type(*$C$DW$T$10)
     104                      .dwattr $C$DW$17, DW_AT_declaration
     105                      .dwattr $C$DW$17, DW_AT_external
     106              $C$DW$18        .dwtag  DW_TAG_formal_parameter
     107                      .dwattr $C$DW$18, DW_AT_type(*$C$DW$T$58)
     108                      .dwendtag $C$DW$17
     109              
TMS320C55x Assembler PC v4.4.1 Sat Sep 08 23:28:20 2018

Tools Copyright (c) 1996-2012 Texas Instruments Incorporated
queue.asm                                                            PAGE    3

     110              
     111              $C$DW$19        .dwtag  DW_TAG_subprogram, DW_AT_name("vTaskSetTimeOutState")
     112                      .dwattr $C$DW$19, DW_AT_TI_symbol_name("_vTaskSetTimeOutState")
     113                      .dwattr $C$DW$19, DW_AT_declaration
     114                      .dwattr $C$DW$19, DW_AT_external
     115              $C$DW$20        .dwtag  DW_TAG_formal_parameter
     116                      .dwattr $C$DW$20, DW_AT_type(*$C$DW$T$63)
     117                      .dwendtag $C$DW$19
     118              
     119              
     120              $C$DW$21        .dwtag  DW_TAG_subprogram, DW_AT_name("xTaskCheckForTimeOut")
     121                      .dwattr $C$DW$21, DW_AT_TI_symbol_name("_xTaskCheckForTimeOut")
     122                      .dwattr $C$DW$21, DW_AT_type(*$C$DW$T$10)
     123                      .dwattr $C$DW$21, DW_AT_declaration
     124                      .dwattr $C$DW$21, DW_AT_external
     125              $C$DW$22        .dwtag  DW_TAG_formal_parameter
     126                      .dwattr $C$DW$22, DW_AT_type(*$C$DW$T$63)
     127              $C$DW$23        .dwtag  DW_TAG_formal_parameter
     128                      .dwattr $C$DW$23, DW_AT_type(*$C$DW$T$79)
     129                      .dwendtag $C$DW$21
     130              
     131              
     132              $C$DW$24        .dwtag  DW_TAG_subprogram, DW_AT_name("vTaskMissedYield")
     133                      .dwattr $C$DW$24, DW_AT_TI_symbol_name("_vTaskMissedYield")
     134                      .dwattr $C$DW$24, DW_AT_declaration
     135                      .dwattr $C$DW$24, DW_AT_external
     136              
     137              $C$DW$25        .dwtag  DW_TAG_subprogram, DW_AT_name("vCoRoutineAddToDelayedList")
     138                      .dwattr $C$DW$25, DW_AT_TI_symbol_name("_vCoRoutineAddToDelayedList")
     139                      .dwattr $C$DW$25, DW_AT_declaration
     140                      .dwattr $C$DW$25, DW_AT_external
     141              $C$DW$26        .dwtag  DW_TAG_formal_parameter
     142                      .dwattr $C$DW$26, DW_AT_type(*$C$DW$T$29)
     143              $C$DW$27        .dwtag  DW_TAG_formal_parameter
     144                      .dwattr $C$DW$27, DW_AT_type(*$C$DW$T$53)
     145                      .dwendtag $C$DW$25
     146              
     147              
     148              $C$DW$28        .dwtag  DW_TAG_subprogram, DW_AT_name("xCoRoutineRemoveFromEventList")
     149                      .dwattr $C$DW$28, DW_AT_TI_symbol_name("_xCoRoutineRemoveFromEventList")
     150                      .dwattr $C$DW$28, DW_AT_type(*$C$DW$T$10)
     151                      .dwattr $C$DW$28, DW_AT_declaration
     152                      .dwattr $C$DW$28, DW_AT_external
     153              $C$DW$29        .dwtag  DW_TAG_formal_parameter
     154                      .dwattr $C$DW$29, DW_AT_type(*$C$DW$T$57)
     155                      .dwendtag $C$DW$28
     156              
     157              $C$DW$30        .dwtag  DW_TAG_variable, DW_AT_name("usCriticalNesting")
     158                      .dwattr $C$DW$30, DW_AT_TI_symbol_name("_usCriticalNesting")
     159                      .dwattr $C$DW$30, DW_AT_type(*$C$DW$T$21)
     160                      .dwattr $C$DW$30, DW_AT_declaration
     161                      .dwattr $C$DW$30, DW_AT_external
     162              ;       F:\TI_CCS_7P4\ccsv7\tools\compiler\c5500_4.4.1\bin\acp55.exe -@f:\\AppData\\Local\\Temp\\1333612 
     163 000000               .sect   ".text"
     164                      .align 4
TMS320C55x Assembler PC v4.4.1 Sat Sep 08 23:28:20 2018

Tools Copyright (c) 1996-2012 Texas Instruments Incorporated
queue.asm                                                            PAGE    4

     165                      .global _xQueueCreate
     166              
     167              $C$DW$31        .dwtag  DW_TAG_subprogram, DW_AT_name("xQueueCreate")
     168                      .dwattr $C$DW$31, DW_AT_low_pc(_xQueueCreate)
     169                      .dwattr $C$DW$31, DW_AT_high_pc(0x00)
     170                      .dwattr $C$DW$31, DW_AT_TI_symbol_name("_xQueueCreate")
     171                      .dwattr $C$DW$31, DW_AT_external
     172                      .dwattr $C$DW$31, DW_AT_type(*$C$DW$T$38)
     173                      .dwattr $C$DW$31, DW_AT_TI_begin_file("../FreeRTOS/Source/queue.c")
     174                      .dwattr $C$DW$31, DW_AT_TI_begin_line(0xf8)
     175                      .dwattr $C$DW$31, DW_AT_TI_begin_column(0x0e)
     176                      .dwattr $C$DW$31, DW_AT_TI_max_frame_size(0x06)
     177                      .dwpsn  file "../FreeRTOS/Source/queue.c",line 249,column 1,is_stmt,address _xQueueCreate
     178              
     179                      .dwfde $C$DW$CIE, _xQueueCreate
     180              $C$DW$32        .dwtag  DW_TAG_formal_parameter, DW_AT_name("uxQueueLength")
     181                      .dwattr $C$DW$32, DW_AT_TI_symbol_name("_uxQueueLength")
     182                      .dwattr $C$DW$32, DW_AT_type(*$C$DW$T$11)
     183                      .dwattr $C$DW$32, DW_AT_location[DW_OP_reg12]
     184              $C$DW$33        .dwtag  DW_TAG_formal_parameter, DW_AT_name("uxItemSize")
     185                      .dwattr $C$DW$33, DW_AT_TI_symbol_name("_uxItemSize")
     186                      .dwattr $C$DW$33, DW_AT_type(*$C$DW$T$11)
     187                      .dwattr $C$DW$33, DW_AT_location[DW_OP_reg13]
     188              ;*******************************************************************************
     189              ;* FUNCTION NAME: xQueueCreate                                                 *
     190              ;*                                                                             *
     191              ;*   Function Uses Regs : AC0,AC0,T0,T1,AR0,XAR0,AR1,AR2,XAR2,AR3,XAR3,SP,     *
     192              ;*                        CARRY,M40,SATA,SATD,RDM,FRCT,SMUL                    *
     193              ;*   Stack Frame        : Compact (No Frame Pointer, w/ debug)                 *
     194              ;*   Total Frame Size   : 6 words                                              *
     195              ;*                        (1 return address/alignment)                         *
     196              ;*                        (5 local values)                                     *
     197              ;*   Min System Stack   : 1 word                                               *
     198              ;*******************************************************************************
     199 000000       _xQueueCreate:
     200                      .dwcfi  cfa_offset, 1
     201                      .dwcfi  save_reg_to_mem, 91, -1
     202 000000 4EFB          AADD #-5, SP
     203                      .dwcfi  cfa_offset, 6
     204              $C$DW$34        .dwtag  DW_TAG_variable, DW_AT_name("uxQueueLength")
     205                      .dwattr $C$DW$34, DW_AT_TI_symbol_name("_uxQueueLength")
     206                      .dwattr $C$DW$34, DW_AT_type(*$C$DW$T$11)
     207                      .dwattr $C$DW$34, DW_AT_location[DW_OP_bregx 0x24 0]
     208              $C$DW$35        .dwtag  DW_TAG_variable, DW_AT_name("uxItemSize")
     209                      .dwattr $C$DW$35, DW_AT_TI_symbol_name("_uxItemSize")
     210                      .dwattr $C$DW$35, DW_AT_type(*$C$DW$T$11)
     211                      .dwattr $C$DW$35, DW_AT_location[DW_OP_bregx 0x24 1]
     212              $C$DW$36        .dwtag  DW_TAG_variable, DW_AT_name("pxNewQueue")
     213                      .dwattr $C$DW$36, DW_AT_TI_symbol_name("_pxNewQueue")
     214                      .dwattr $C$DW$36, DW_AT_type(*$C$DW$T$36)
     215                      .dwattr $C$DW$36, DW_AT_location[DW_OP_bregx 0x24 2]
     216              $C$DW$37        .dwtag  DW_TAG_variable, DW_AT_name("xQueueSizeInBytes")
     217                      .dwattr $C$DW$37, DW_AT_TI_symbol_name("_xQueueSizeInBytes")
     218                      .dwattr $C$DW$37, DW_AT_type(*$C$DW$T$43)
     219                      .dwattr $C$DW$37, DW_AT_location[DW_OP_bregx 0x24 4]
TMS320C55x Assembler PC v4.4.1 Sat Sep 08 23:28:20 2018

Tools Copyright (c) 1996-2012 Texas Instruments Incorporated
queue.asm                                                            PAGE    5

     220 000002 C502          MOV T1, *SP(#1) ; |249| 
     221 000004 C400          MOV T0, *SP(#0) ; |249| 
     222                      .dwpsn  file "../FreeRTOS/Source/queue.c",line 254,column 2,is_stmt
     223 000006 2249          MOV T0, AR1
     224 000008 6D09          BCC $C$L2,AR1 == #0 ; |254| 
         00000a 00B5 
     225                                                      ; branchcc occurs ; |254| 
     226                      .dwpsn  file "../FreeRTOS/Source/queue.c",line 256,column 3,is_stmt
     227 00000c 7600          MOV #34, T0 ; |256| 
         00000e 2248 
     228              $C$DW$38        .dwtag  DW_TAG_TI_branch
     229                      .dwattr $C$DW$38, DW_AT_low_pc(0x00)
     230                      .dwattr $C$DW$38, DW_AT_name("_pvPortMalloc")
     231                      .dwattr $C$DW$38, DW_AT_TI_call
     232 000010 6C00          CALL #_pvPortMalloc ; |256| 
         000012 0000!
     233                                                      ; call occurs [#_pvPortMalloc] ; |256| 
     234 000014 EB04          MOV XAR0, dbl(*SP(#2))
         000016 85   
     235                      .dwpsn  file "../FreeRTOS/Source/queue.c",line 257,column 3,is_stmt
     236 000017 ED04          MOV dbl(*SP(#2)), XAR3
         000019 BF   
     237 00001a 90B0          MOV XAR3, AC0
     238 00001c 6D00          BCC $C$L2,AC0 == #0 ; |257| 
         00001e 00A1 
     239                                                      ; branchcc occurs ; |257| 
     240                      .dwpsn  file "../FreeRTOS/Source/queue.c",line 261,column 4,is_stmt
     241 000020 A502          MOV *SP(#1), T1 ; |261| 
     242 000022 D300          MPYM *SP(#0), T1, AC0 ; |261| 
         000024 05   
     243 000025 4010          ADD #1, AC0 ; |261| 
     244 000027 C008          MOV AC0, *SP(#4) ; |261| 
     245                      .dwpsn  file "../FreeRTOS/Source/queue.c",line 263,column 4,is_stmt
     246              $C$DW$39        .dwtag  DW_TAG_TI_branch
     247                      .dwattr $C$DW$39, DW_AT_low_pc(0x00)
     248                      .dwattr $C$DW$39, DW_AT_name("_pvPortMalloc")
     249                      .dwattr $C$DW$39, DW_AT_TI_call
     250              
     251 000029 6C00          CALL #_pvPortMalloc ; |263| 
         00002b 0000!
     252 00002d 2304  ||      MOV AC0, T0
     253              
     254                                                      ; call occurs [#_pvPortMalloc] ; |263| 
     255 00002f ED04          MOV dbl(*SP(#2)), XAR3
         000031 BF   
     256 000032 EB61          MOV XAR0, dbl(*AR3)
         000034 85   
     257                      .dwpsn  file "../FreeRTOS/Source/queue.c",line 264,column 4,is_stmt
     258 000035 ED04          MOV dbl(*SP(#2)), XAR3
         000037 BF   
     259 000038 ED61          MOV dbl(*AR3), XAR3
         00003a BF   
     260 00003b 90B0          MOV XAR3, AC0
     261 00003d 0400          BCC $C$L1,AC0 == #0 ; |264| 
         00003f 7A   
TMS320C55x Assembler PC v4.4.1 Sat Sep 08 23:28:20 2018

Tools Copyright (c) 1996-2012 Texas Instruments Incorporated
queue.asm                                                            PAGE    6

     262                                                      ; branchcc occurs ; |264| 
     263                      .dwpsn  file "../FreeRTOS/Source/queue.c",line 268,column 5,is_stmt
     264 000040 ED04          MOV dbl(*SP(#2)), XAR3
         000042 BF   
     265 000043 ED04          MOV dbl(*SP(#2)), XAR2
         000045 AF   
     266 000046 A502          MOV *SP(#1), T1 ; |268| 
     267 000048 D300          MPYM *SP(#0), T1, AC0 ; |268| 
         00004a 05   
     268 00004b 2209          MOV AC0, AR1 ; |268| 
     269 00004d ED61          MOV dbl(*AR3), XAR3
         00004f BF   
     270              
     271 000050 8E55          MOV XAR3, dbl(*AR2(short(#2)))
         000052 BB10 
         000054 B590 
     272              ||      AADD AR1, AR3 ; |268| 
     273              
     274                      .dwpsn  file "../FreeRTOS/Source/queue.c",line 269,column 5,is_stmt
     275 000056 ED04          MOV dbl(*SP(#2)), XAR3
         000058 BF   
     276 000059 E66D          MOV #0, *AR3(#28) ; |269| 
         00005b 0000 
         00005d 1C   
     277                      .dwpsn  file "../FreeRTOS/Source/queue.c",line 270,column 5,is_stmt
     278 00005e ED04          MOV dbl(*SP(#2)), XAR3
         000060 BF   
     279 000061 ED61          MOV dbl(*AR3), XAR2
         000063 AF   
     280 000064 EB79          MOV XAR2, dbl(*AR3(short(#4)))
         000066 A5   
     281                      .dwpsn  file "../FreeRTOS/Source/queue.c",line 271,column 5,is_stmt
     282 000067 A500          MOV *SP(#0), T1 ; |271| 
     283 000069 ED04          MOV dbl(*SP(#2)), XAR3
         00006b BF   
     284 00006c ED04          MOV dbl(*SP(#2)), XAR2
         00006e AF   
     285 00006f 4215          SUB #1, T1 ; |271| 
     286 000071 D302          MPYM *SP(#1), T1, AC0 ; |271| 
         000073 05   
     287 000074 2209          MOV AC0, AR1 ; |271| 
     288 000076 ED61          MOV dbl(*AR3), XAR3
         000078 BF   
     289              
     290 000079 8E5D          MOV XAR3, dbl(*AR2(short(#6)))
         00007b BB10 
         00007d B590 
     291              ||      AADD AR1, AR3 ; |271| 
     292              
     293                      .dwpsn  file "../FreeRTOS/Source/queue.c",line 272,column 5,is_stmt
     294 00007f ED04          MOV dbl(*SP(#2)), XAR3
         000081 BF   
     295 000082 A900          MOV *SP(#0), AR1 ; |272| 
     296 000084 C96D          MOV AR1, *AR3(#29) ; |272| 
         000086 001D 
TMS320C55x Assembler PC v4.4.1 Sat Sep 08 23:28:20 2018

Tools Copyright (c) 1996-2012 Texas Instruments Incorporated
queue.asm                                                            PAGE    7

     297                      .dwpsn  file "../FreeRTOS/Source/queue.c",line 273,column 5,is_stmt
     298 000088 ED04          MOV dbl(*SP(#2)), XAR3
         00008a BF   
     299 00008b A902          MOV *SP(#1), AR1 ; |273| 
     300 00008d C96D          MOV AR1, *AR3(#30) ; |273| 
         00008f 001E 
     301                      .dwpsn  file "../FreeRTOS/Source/queue.c",line 274,column 5,is_stmt
     302 000091 ED04          MOV dbl(*SP(#2)), XAR3
         000093 BF   
     303 000094 E66D          MOV #-1, *AR3(#31) ; |274| 
         000096 FF00 
         000098 1F   
     304                      .dwpsn  file "../FreeRTOS/Source/queue.c",line 275,column 5,is_stmt
     305 000099 ED04          MOV dbl(*SP(#2)), XAR3
         00009b BF   
     306 00009c E66D          MOV #-1, *AR3(#32) ; |275| 
         00009e FF00 
         0000a0 20   
     307                      .dwpsn  file "../FreeRTOS/Source/queue.c",line 278,column 5,is_stmt
     308 0000a1 ED04          MOV dbl(*SP(#2)), XAR0
         0000a3 8F   
     309 0000a4 1408          AADD #8, AR0 ; |278| 
         0000a6 84   
     310              $C$DW$40        .dwtag  DW_TAG_TI_branch
     311                      .dwattr $C$DW$40, DW_AT_low_pc(0x00)
     312                      .dwattr $C$DW$40, DW_AT_name("_vListInitialise")
     313                      .dwattr $C$DW$40, DW_AT_TI_call
     314 0000a7 6C00          CALL #_vListInitialise ; |278| 
         0000a9 0000!
     315                                                      ; call occurs [#_vListInitialise] ; |278| 
     316                      .dwpsn  file "../FreeRTOS/Source/queue.c",line 279,column 5,is_stmt
     317 0000ab ED04          MOV dbl(*SP(#2)), XAR0
         0000ad 8F   
     318 0000ae 1412          AADD #18, AR0 ; |279| 
         0000b0 84   
     319              $C$DW$41        .dwtag  DW_TAG_TI_branch
     320                      .dwattr $C$DW$41, DW_AT_low_pc(0x00)
     321                      .dwattr $C$DW$41, DW_AT_name("_vListInitialise")
     322                      .dwattr $C$DW$41, DW_AT_TI_call
     323 0000b1 6C00          CALL #_vListInitialise ; |279| 
         0000b3 0000!
     324                                                      ; call occurs [#_vListInitialise] ; |279| 
     325                      .dwpsn  file "../FreeRTOS/Source/queue.c",line 282,column 5,is_stmt
     326 0000b5 ED04          MOV dbl(*SP(#2)), XAR0
         0000b7 8F   
     327 0000b8 4A0D          B $C$L3   ; |282| 
     328                                                      ; branch occurs ; |282| 
     329 0000ba       $C$L1:    
     330                      .dwpsn  file "../FreeRTOS/Source/queue.c",line 287,column 5,is_stmt
     331 0000ba ED04          MOV dbl(*SP(#2)), XAR0
         0000bc 8F   
     332              $C$DW$42        .dwtag  DW_TAG_TI_branch
     333                      .dwattr $C$DW$42, DW_AT_low_pc(0x00)
     334                      .dwattr $C$DW$42, DW_AT_name("_vPortFree")
     335                      .dwattr $C$DW$42, DW_AT_TI_call
TMS320C55x Assembler PC v4.4.1 Sat Sep 08 23:28:20 2018

Tools Copyright (c) 1996-2012 Texas Instruments Incorporated
queue.asm                                                            PAGE    8

     336 0000bd 6C00          CALL #_vPortFree ; |287| 
         0000bf 0000!
     337                                                      ; call occurs [#_vPortFree] ; |287| 
     338 0000c1       $C$L2:    
     339                      .dwpsn  file "../FreeRTOS/Source/queue.c",line 294,column 2,is_stmt
     340 0000c1 EC31          AMOV #0, XAR0 ; |294| 
         0000c3 8E00 
         0000c5 0000 
     341 0000c7       $C$L3:    
     342                      .dwpsn  file "../FreeRTOS/Source/queue.c",line 295,column 1,is_stmt
     343 0000c7 4E05          AADD #5, SP
     344                      .dwcfi  cfa_offset, 1
     345              $C$DW$43        .dwtag  DW_TAG_TI_branch
     346                      .dwattr $C$DW$43, DW_AT_low_pc(0x00)
     347                      .dwattr $C$DW$43, DW_AT_TI_return
     348 0000c9 4804          RET
     349                                                      ; return occurs
     350                      .dwattr $C$DW$31, DW_AT_TI_end_file("../FreeRTOS/Source/queue.c")
     351                      .dwattr $C$DW$31, DW_AT_TI_end_line(0x127)
     352                      .dwattr $C$DW$31, DW_AT_TI_end_column(0x01)
     353                      .dwendentry
     354                      .dwendtag $C$DW$31
     355              
     356 0000cb               .sect   ".text"
     357                      .align 4
     358                      .global _xQueueGenericSend
     359              
     360              $C$DW$44        .dwtag  DW_TAG_subprogram, DW_AT_name("xQueueGenericSend")
     361                      .dwattr $C$DW$44, DW_AT_low_pc(_xQueueGenericSend)
     362                      .dwattr $C$DW$44, DW_AT_high_pc(0x00)
     363                      .dwattr $C$DW$44, DW_AT_TI_symbol_name("_xQueueGenericSend")
     364                      .dwattr $C$DW$44, DW_AT_external
     365                      .dwattr $C$DW$44, DW_AT_type(*$C$DW$T$10)
     366                      .dwattr $C$DW$44, DW_AT_TI_begin_file("../FreeRTOS/Source/queue.c")
     367                      .dwattr $C$DW$44, DW_AT_TI_begin_line(0x1c4)
     368                      .dwattr $C$DW$44, DW_AT_TI_begin_column(0x16)
     369                      .dwattr $C$DW$44, DW_AT_TI_max_frame_size(0x0a)
     370                      .dwpsn  file "../FreeRTOS/Source/queue.c",line 453,column 1,is_stmt,address _xQueueGenericSend
     371              
     372                      .dwfde $C$DW$CIE, _xQueueGenericSend
     373              $C$DW$45        .dwtag  DW_TAG_formal_parameter, DW_AT_name("pxQueue")
     374                      .dwattr $C$DW$45, DW_AT_TI_symbol_name("_pxQueue")
     375                      .dwattr $C$DW$45, DW_AT_type(*$C$DW$T$38)
     376                      .dwattr $C$DW$45, DW_AT_location[DW_OP_reg17]
     377              $C$DW$46        .dwtag  DW_TAG_formal_parameter, DW_AT_name("pvItemToQueue")
     378                      .dwattr $C$DW$46, DW_AT_TI_symbol_name("_pvItemToQueue")
     379                      .dwattr $C$DW$46, DW_AT_type(*$C$DW$T$48)
     380                      .dwattr $C$DW$46, DW_AT_location[DW_OP_reg19]
     381              $C$DW$47        .dwtag  DW_TAG_formal_parameter, DW_AT_name("xTicksToWait")
     382                      .dwattr $C$DW$47, DW_AT_TI_symbol_name("_xTicksToWait")
     383                      .dwattr $C$DW$47, DW_AT_type(*$C$DW$T$29)
     384                      .dwattr $C$DW$47, DW_AT_location[DW_OP_reg12]
     385              $C$DW$48        .dwtag  DW_TAG_formal_parameter, DW_AT_name("xCopyPosition")
     386                      .dwattr $C$DW$48, DW_AT_TI_symbol_name("_xCopyPosition")
     387                      .dwattr $C$DW$48, DW_AT_type(*$C$DW$T$10)
TMS320C55x Assembler PC v4.4.1 Sat Sep 08 23:28:20 2018

Tools Copyright (c) 1996-2012 Texas Instruments Incorporated
queue.asm                                                            PAGE    9

     388                      .dwattr $C$DW$48, DW_AT_location[DW_OP_reg13]
     389              ;*******************************************************************************
     390              ;* FUNCTION NAME: xQueueGenericSend                                            *
     391              ;*                                                                             *
     392              ;*   Function Uses Regs : T0,T1,AR0,XAR0,AR1,XAR1,AR2,AR3,XAR3,SP,CARRY,TC1,   *
     393              ;*                        M40,SATA,SATD,RDM,FRCT,SMUL                          *
     394              ;*   Stack Frame        : Compact (No Frame Pointer, w/ debug)                 *
     395              ;*   Total Frame Size   : 10 words                                             *
     396              ;*                        (1 return address/alignment)                         *
     397              ;*                        (9 local values)                                     *
     398              ;*   Min System Stack   : 1 word                                               *
     399              ;*******************************************************************************
     400 0000cc       _xQueueGenericSend:
     401                      .dwcfi  cfa_offset, 1
     402                      .dwcfi  save_reg_to_mem, 91, -1
     403 0000cc 4EF7          AADD #-9, SP
     404                      .dwcfi  cfa_offset, 10
     405              $C$DW$49        .dwtag  DW_TAG_variable, DW_AT_name("pxQueue")
     406                      .dwattr $C$DW$49, DW_AT_TI_symbol_name("_pxQueue")
     407                      .dwattr $C$DW$49, DW_AT_type(*$C$DW$T$38)
     408                      .dwattr $C$DW$49, DW_AT_location[DW_OP_bregx 0x24 0]
     409              $C$DW$50        .dwtag  DW_TAG_variable, DW_AT_name("pvItemToQueue")
     410                      .dwattr $C$DW$50, DW_AT_TI_symbol_name("_pvItemToQueue")
     411                      .dwattr $C$DW$50, DW_AT_type(*$C$DW$T$48)
     412                      .dwattr $C$DW$50, DW_AT_location[DW_OP_bregx 0x24 2]
     413              $C$DW$51        .dwtag  DW_TAG_variable, DW_AT_name("xTicksToWait")
     414                      .dwattr $C$DW$51, DW_AT_TI_symbol_name("_xTicksToWait")
     415                      .dwattr $C$DW$51, DW_AT_type(*$C$DW$T$29)
     416                      .dwattr $C$DW$51, DW_AT_location[DW_OP_bregx 0x24 4]
     417              $C$DW$52        .dwtag  DW_TAG_variable, DW_AT_name("xCopyPosition")
     418                      .dwattr $C$DW$52, DW_AT_TI_symbol_name("_xCopyPosition")
     419                      .dwattr $C$DW$52, DW_AT_type(*$C$DW$T$10)
     420                      .dwattr $C$DW$52, DW_AT_location[DW_OP_bregx 0x24 5]
     421              $C$DW$53        .dwtag  DW_TAG_variable, DW_AT_name("xEntryTimeSet")
     422                      .dwattr $C$DW$53, DW_AT_TI_symbol_name("_xEntryTimeSet")
     423                      .dwattr $C$DW$53, DW_AT_type(*$C$DW$T$10)
     424                      .dwattr $C$DW$53, DW_AT_location[DW_OP_bregx 0x24 6]
     425              $C$DW$54        .dwtag  DW_TAG_variable, DW_AT_name("xTimeOut")
     426                      .dwattr $C$DW$54, DW_AT_TI_symbol_name("_xTimeOut")
     427                      .dwattr $C$DW$54, DW_AT_type(*$C$DW$T$61)
     428                      .dwattr $C$DW$54, DW_AT_location[DW_OP_bregx 0x24 7]
     429 0000ce C50A          MOV T1, *SP(#5) ; |453| 
     430 0000d0 C408          MOV T0, *SP(#4) ; |453| 
     431 0000d2 EB04          MOV XAR1, dbl(*SP(#2))
         0000d4 95   
     432 0000d5 EB00          MOV XAR0, dbl(*SP(#0))
         0000d7 85   
     433                      .dwpsn  file "../FreeRTOS/Source/queue.c",line 454,column 22,is_stmt
     434 0000d8 E60C          MOV #0, *SP(#6) ; |454| 
         0000da 00   
     435 0000db       $C$L4:    
     436 0000db       $C$DW$L$_xQueueGenericSend$2$B:
     437                      .dwpsn  file "../FreeRTOS/Source/queue.c",line 462,column 3,is_stmt
     438 0000db 20     nop
     439 0000dc 46B3   bset INTM
TMS320C55x Assembler PC v4.4.1 Sat Sep 08 23:28:20 2018

Tools Copyright (c) 1996-2012 Texas Instruments Incorporated
queue.asm                                                            PAGE   10

     440 0000de F731          ADD #1, *(#_usCriticalNesting) ; |462| 
         0000e0 0001 
         0000e2 0000 
         0000e4 00!  
     441 0000e5 20            NOP
     442                      .dwpsn  file "../FreeRTOS/Source/queue.c",line 466,column 4,is_stmt
     443 0000e6 ED00          MOV dbl(*SP(#0)), XAR3
         0000e8 BF   
     444 0000e9 A96D          MOV *AR3(#29), AR1 ; |466| 
         0000eb 001D 
     445 0000ed AA6D          MOV *AR3(#28), AR2 ; |466| 
         0000ef 001C 
     446 0000f1 12A8          CMPU AR2 >= AR1, TC1 ; |466| 
         0000f3 94   
     447 0000f4 0464          BCC $C$L8,TC1 ; |466| 
         0000f6 51   
     448                                                      ; branchcc occurs ; |466| 
     449 0000f7       $C$DW$L$_xQueueGenericSend$2$E:
     450                      .dwpsn  file "../FreeRTOS/Source/queue.c",line 469,column 5,is_stmt
     451 0000f7 ED00          MOV dbl(*SP(#0)), XAR0
         0000f9 8F   
     452 0000fa ED04          MOV dbl(*SP(#2)), XAR1
         0000fc 9F   
     453 0000fd A40A          MOV *SP(#5), T0 ; |469| 
     454              $C$DW$55        .dwtag  DW_TAG_TI_branch
     455                      .dwattr $C$DW$55, DW_AT_low_pc(0x00)
     456                      .dwattr $C$DW$55, DW_AT_name("_prvCopyDataToQueue")
     457                      .dwattr $C$DW$55, DW_AT_TI_call
     458 0000ff 0804          CALL #_prvCopyDataToQueue ; |469| 
         000101 16   
     459                                                      ; call occurs [#_prvCopyDataToQueue] ; |469| 
     460                      .dwpsn  file "../FreeRTOS/Source/queue.c",line 473,column 5,is_stmt
     461 000102 ED00          MOV dbl(*SP(#0)), XAR3
         000104 BF   
     462 000105 AA6D          MOV *AR3(#18), AR2 ; |473| 
         000107 0012 
     463 000109 3C09          MOV #0, AR1
     464 00010b 611A          BCC $C$L5,AR2 != #0 ; |473| 
     465                                                      ; branchcc occurs ; |473| 
     466 00010d 3C19          MOV #1, AR1
     467 00010f       $C$L5:    
     468 00010f 0419          BCC $C$L6,AR1 != #0 ; |473| 
         000111 15   
     469                                                      ; branchcc occurs ; |473| 
     470                      .dwpsn  file "../FreeRTOS/Source/queue.c",line 475,column 6,is_stmt
     471 000112 ED00          MOV dbl(*SP(#0)), XAR0
         000114 8F   
     472 000115 1412          AADD #18, AR0 ; |475| 
         000117 84   
     473              $C$DW$56        .dwtag  DW_TAG_TI_branch
     474                      .dwattr $C$DW$56, DW_AT_low_pc(0x00)
     475                      .dwattr $C$DW$56, DW_AT_name("_xTaskRemoveFromEventList")
     476                      .dwattr $C$DW$56, DW_AT_TI_call
     477 000118 6C00          CALL #_xTaskRemoveFromEventList ; |475| 
         00011a 0000!
TMS320C55x Assembler PC v4.4.1 Sat Sep 08 23:28:20 2018

Tools Copyright (c) 1996-2012 Texas Instruments Incorporated
queue.asm                                                            PAGE   11

     478                                                      ; call occurs [#_xTaskRemoveFromEventList] ; |475| 
     479 00011c 3C19          MOV #1, AR1
     480 00011e 124C          CMP T0 != AR1, TC1 ; |475| 
         000120 90   
     481 000121 6264          BCC $C$L6,TC1 ; |475| 
     482                                                      ; branchcc occurs ; |475| 
     483                      .dwpsn  file "../FreeRTOS/Source/queue.c",line 481,column 7,is_stmt
     484              $C$DW$57        .dwtag  DW_TAG_TI_branch
     485                      .dwattr $C$DW$57, DW_AT_low_pc(0x00)
     486                      .dwattr $C$DW$57, DW_AT_name("_vPortYield")
     487                      .dwattr $C$DW$57, DW_AT_TI_call
     488 000123 6C00          CALL #_vPortYield ; |481| 
         000125 0000!
     489                                                      ; call occurs [#_vPortYield] ; |481| 
     490 000127       $C$L6:    
     491                      .dwpsn  file "../FreeRTOS/Source/queue.c",line 485,column 5,is_stmt
     492 000127 A931          MOV *(#_usCriticalNesting), AR1 ; |485| 
         000129 0000 
         00012b 00!  
     493 00012c 0409          BCC $C$L7,AR1 == #0 ; |485| 
         00012e 14   
     494                                                      ; branchcc occurs ; |485| 
     495 00012f F731          SUB #1, *(#_usCriticalNesting) ; |485| 
         000131 FFFF 
         000133 0000 
         000135 00!  
     496 000136 20            NOP
     497 000137 20            NOP
     498 000138 20            NOP
     499 000139 A931          MOV *(#_usCriticalNesting), AR1 ; |485| 
         00013b 0000 
         00013d 00!  
     500 00013e 6199          BCC $C$L7,AR1 != #0 ; |485| 
     501                                                      ; branchcc occurs ; |485| 
     502 000140 20     nop
     503 000141 46B2   bclr INTM
     504 000143       $C$L7:    
     505                      .dwpsn  file "../FreeRTOS/Source/queue.c",line 489,column 5,is_stmt
     506 000143 3C14          MOV #1, T0
     507 000145 0600          B $C$L18  ; |489| 
         000147 EC   
     508                                                      ; branch occurs ; |489| 
     509 000148       $C$L8:    
     510 000148       $C$DW$L$_xQueueGenericSend$13$B:
     511                      .dwpsn  file "../FreeRTOS/Source/queue.c",line 493,column 5,is_stmt
     512 000148 A908          MOV *SP(#4), AR1 ; |493| 
     513 00014a 0419          BCC $C$L10,AR1 != #0 ; |493| 
         00014c 21   
     514                                                      ; branchcc occurs ; |493| 
     515 00014d       $C$DW$L$_xQueueGenericSend$13$E:
     516                      .dwpsn  file "../FreeRTOS/Source/queue.c",line 497,column 6,is_stmt
     517 00014d A931          MOV *(#_usCriticalNesting), AR1 ; |497| 
         00014f 0000 
         000151 00!  
     518 000152 0409          BCC $C$L9,AR1 == #0 ; |497| 
TMS320C55x Assembler PC v4.4.1 Sat Sep 08 23:28:20 2018

Tools Copyright (c) 1996-2012 Texas Instruments Incorporated
queue.asm                                                            PAGE   12

         000154 14   
     519                                                      ; branchcc occurs ; |497| 
     520 000155 F731          SUB #1, *(#_usCriticalNesting) ; |497| 
         000157 FFFF 
         000159 0000 
         00015b 00!  
     521 00015c 20            NOP
     522 00015d 20            NOP
     523 00015e 20            NOP
     524 00015f A931          MOV *(#_usCriticalNesting), AR1 ; |497| 
         000161 0000 
         000163 00!  
     525 000164 6199          BCC $C$L9,AR1 != #0 ; |497| 
     526                                                      ; branchcc occurs ; |497| 
     527 000166 20     nop
     528 000167 46B2   bclr INTM
     529 000169       $C$L9:    
     530                      .dwpsn  file "../FreeRTOS/Source/queue.c",line 502,column 6,is_stmt
     531 000169 3C04          MOV #0, T0
     532 00016b 0600          B $C$L18  ; |502| 
         00016d C6   
     533                                                      ; branch occurs ; |502| 
     534 00016e       $C$L10:    
     535 00016e       $C$DW$L$_xQueueGenericSend$19$B:
     536                      .dwpsn  file "../FreeRTOS/Source/queue.c",line 504,column 10,is_stmt
     537 00016e A90C          MOV *SP(#6), AR1 ; |504| 
     538 000170 6519          BCC $C$L11,AR1 != #0 ; |504| 
     539                                                      ; branchcc occurs ; |504| 
     540 000172       $C$DW$L$_xQueueGenericSend$19$E:
     541 000172       $C$DW$L$_xQueueGenericSend$20$B:
     542                      .dwpsn  file "../FreeRTOS/Source/queue.c",line 508,column 6,is_stmt
     543 000172 EC0E          AMAR *SP(#7), XAR0
         000174 8E   
     544              $C$DW$58        .dwtag  DW_TAG_TI_branch
     545                      .dwattr $C$DW$58, DW_AT_low_pc(0x00)
     546                      .dwattr $C$DW$58, DW_AT_name("_vTaskSetTimeOutState")
     547                      .dwattr $C$DW$58, DW_AT_TI_call
     548 000175 6C00          CALL #_vTaskSetTimeOutState ; |508| 
         000177 0000!
     549                                                      ; call occurs [#_vTaskSetTimeOutState] ; |508| 
     550                      .dwpsn  file "../FreeRTOS/Source/queue.c",line 509,column 6,is_stmt
     551 000179 E60C          MOV #1, *SP(#6) ; |509| 
         00017b 01   
     552 00017c       $C$DW$L$_xQueueGenericSend$20$E:
     553 00017c       $C$L11:    
     554 00017c       $C$DW$L$_xQueueGenericSend$21$B:
     555                      .dwpsn  file "../FreeRTOS/Source/queue.c",line 513,column 3,is_stmt
     556 00017c A931          MOV *(#_usCriticalNesting), AR1 ; |513| 
         00017e 0000 
         000180 00!  
     557 000181 0409          BCC $C$L12,AR1 == #0 ; |513| 
         000183 14   
     558                                                      ; branchcc occurs ; |513| 
     559 000184       $C$DW$L$_xQueueGenericSend$21$E:
     560 000184       $C$DW$L$_xQueueGenericSend$22$B:
TMS320C55x Assembler PC v4.4.1 Sat Sep 08 23:28:20 2018

Tools Copyright (c) 1996-2012 Texas Instruments Incorporated
queue.asm                                                            PAGE   13

     561 000184 F731          SUB #1, *(#_usCriticalNesting) ; |513| 
         000186 FFFF 
         000188 0000 
         00018a 00!  
     562 00018b 20            NOP
     563 00018c 20            NOP
     564 00018d 20            NOP
     565 00018e A931          MOV *(#_usCriticalNesting), AR1 ; |513| 
         000190 0000 
         000192 00!  
     566 000193 6199          BCC $C$L12,AR1 != #0 ; |513| 
     567                                                      ; branchcc occurs ; |513| 
     568 000195       $C$DW$L$_xQueueGenericSend$22$E:
     569 000195       $C$DW$L$_xQueueGenericSend$23$B:
     570 000195 20     nop
     571 000196 46B2   bclr INTM
     572 000198       $C$DW$L$_xQueueGenericSend$23$E:
     573 000198       $C$L12:    
     574 000198       $C$DW$L$_xQueueGenericSend$24$B:
     575                      .dwpsn  file "../FreeRTOS/Source/queue.c",line 518,column 3,is_stmt
     576              $C$DW$59        .dwtag  DW_TAG_TI_branch
     577                      .dwattr $C$DW$59, DW_AT_low_pc(0x00)
     578                      .dwattr $C$DW$59, DW_AT_name("_vTaskSuspendAll")
     579                      .dwattr $C$DW$59, DW_AT_TI_call
     580 000198 6C00          CALL #_vTaskSuspendAll ; |518| 
         00019a 0000!
     581                                                      ; call occurs [#_vTaskSuspendAll] ; |518| 
     582                      .dwpsn  file "../FreeRTOS/Source/queue.c",line 519,column 3,is_stmt
     583 00019c 20     nop
     584 00019d 46B3   bset INTM
     585 00019f ED00          MOV dbl(*SP(#0)), XAR3
         0001a1 BF   
     586 0001a2 F731          ADD #1, *(#_usCriticalNesting) ; |519| 
         0001a4 0001 
         0001a6 0000 
         0001a8 00!  
     587 0001a9 F06D          CMP *AR3(#31) == #-1, TC1 ; |519| 
         0001ab FFFF 
         0001ad 001F 
     588 0001af 62F4          BCC $C$L13,!TC1 ; |519| 
     589                                                      ; branchcc occurs ; |519| 
     590 0001b1       $C$DW$L$_xQueueGenericSend$24$E:
     591 0001b1       $C$DW$L$_xQueueGenericSend$25$B:
     592 0001b1 E66D          MOV #0, *AR3(#31) ; |519| 
         0001b3 0000 
         0001b5 1F   
     593 0001b6       $C$DW$L$_xQueueGenericSend$25$E:
     594 0001b6       $C$L13:    
     595 0001b6       $C$DW$L$_xQueueGenericSend$26$B:
     596 0001b6 ED00          MOV dbl(*SP(#0)), XAR3
         0001b8 BF   
     597 0001b9 F06D          CMP *AR3(#32) == #-1, TC1 ; |519| 
         0001bb FFFF 
         0001bd 0020 
     598 0001bf 62F4          BCC $C$L14,!TC1 ; |519| 
TMS320C55x Assembler PC v4.4.1 Sat Sep 08 23:28:20 2018

Tools Copyright (c) 1996-2012 Texas Instruments Incorporated
queue.asm                                                            PAGE   14

     599                                                      ; branchcc occurs ; |519| 
     600 0001c1       $C$DW$L$_xQueueGenericSend$26$E:
     601 0001c1       $C$DW$L$_xQueueGenericSend$27$B:
     602 0001c1 E66D          MOV #0, *AR3(#32) ; |519| 
         0001c3 0000 
         0001c5 20   
     603 0001c6       $C$DW$L$_xQueueGenericSend$27$E:
     604 0001c6       $C$L14:    
     605 0001c6       $C$DW$L$_xQueueGenericSend$28$B:
     606 0001c6 A931          MOV *(#_usCriticalNesting), AR1 ; |519| 
         0001c8 0000 
         0001ca 00!  
     607 0001cb 0409          BCC $C$L15,AR1 == #0 ; |519| 
         0001cd 14   
     608                                                      ; branchcc occurs ; |519| 
     609 0001ce       $C$DW$L$_xQueueGenericSend$28$E:
     610 0001ce       $C$DW$L$_xQueueGenericSend$29$B:
     611 0001ce F731          SUB #1, *(#_usCriticalNesting) ; |519| 
         0001d0 FFFF 
         0001d2 0000 
         0001d4 00!  
     612 0001d5 20            NOP
     613 0001d6 20            NOP
     614 0001d7 20            NOP
     615 0001d8 A931          MOV *(#_usCriticalNesting), AR1 ; |519| 
         0001da 0000 
         0001dc 00!  
     616 0001dd 6199          BCC $C$L15,AR1 != #0 ; |519| 
     617                                                      ; branchcc occurs ; |519| 
     618 0001df       $C$DW$L$_xQueueGenericSend$29$E:
     619 0001df       $C$DW$L$_xQueueGenericSend$30$B:
     620 0001df 20     nop
     621 0001e0 46B2   bclr INTM
     622 0001e2       $C$DW$L$_xQueueGenericSend$30$E:
     623 0001e2       $C$L15:    
     624 0001e2       $C$DW$L$_xQueueGenericSend$31$B:
     625                      .dwpsn  file "../FreeRTOS/Source/queue.c",line 522,column 3,is_stmt
     626 0001e2 EC0E          AMAR *SP(#7), XAR0
         0001e4 8E   
     627 0001e5 EC08          AMAR *SP(#4), XAR1
         0001e7 9E   
     628              $C$DW$60        .dwtag  DW_TAG_TI_branch
     629                      .dwattr $C$DW$60, DW_AT_low_pc(0x00)
     630                      .dwattr $C$DW$60, DW_AT_name("_xTaskCheckForTimeOut")
     631                      .dwattr $C$DW$60, DW_AT_TI_call
     632 0001e8 6C00          CALL #_xTaskCheckForTimeOut ; |522| 
         0001ea 0000!
     633                                                      ; call occurs [#_xTaskCheckForTimeOut] ; |522| 
     634 0001ec 0414          BCC $C$L17,T0 != #0 ; |522| 
         0001ee 37   
     635                                                      ; branchcc occurs ; |522| 
     636 0001ef       $C$DW$L$_xQueueGenericSend$31$E:
     637 0001ef       $C$DW$L$_xQueueGenericSend$32$B:
     638                      .dwpsn  file "../FreeRTOS/Source/queue.c",line 524,column 4,is_stmt
     639 0001ef ED00          MOV dbl(*SP(#0)), XAR0
TMS320C55x Assembler PC v4.4.1 Sat Sep 08 23:28:20 2018

Tools Copyright (c) 1996-2012 Texas Instruments Incorporated
queue.asm                                                            PAGE   15

         0001f1 8F   
     640              $C$DW$61        .dwtag  DW_TAG_TI_branch
     641                      .dwattr $C$DW$61, DW_AT_low_pc(0x00)
     642                      .dwattr $C$DW$61, DW_AT_name("_prvIsQueueFull")
     643                      .dwattr $C$DW$61, DW_AT_TI_call
     644 0001f2 0805          CALL #_prvIsQueueFull ; |524| 
         0001f4 5F   
     645                                                      ; call occurs [#_prvIsQueueFull] ; |524| 
     646 0001f5 0404          BCC $C$L16,T0 == #0 ; |524| 
         0001f7 21   
     647                                                      ; branchcc occurs ; |524| 
     648 0001f8       $C$DW$L$_xQueueGenericSend$32$E:
     649 0001f8       $C$DW$L$_xQueueGenericSend$33$B:
     650                      .dwpsn  file "../FreeRTOS/Source/queue.c",line 527,column 5,is_stmt
     651 0001f8 ED00          MOV dbl(*SP(#0)), XAR0
         0001fa 8F   
     652              
     653                      AADD #8, AR0 ; |527| 
     654 0001fb 8A08  ||      MOV *SP(#4), T0 ; |527| 
         0001fd 841C 
         0001ff 08   
     655              
     656              $C$DW$62        .dwtag  DW_TAG_TI_branch
     657                      .dwattr $C$DW$62, DW_AT_low_pc(0x00)
     658                      .dwattr $C$DW$62, DW_AT_name("_vTaskPlaceOnEventList")
     659                      .dwattr $C$DW$62, DW_AT_TI_call
     660 000200 6C00          CALL #_vTaskPlaceOnEventList ; |527| 
         000202 0000!
     661                                                      ; call occurs [#_vTaskPlaceOnEventList] ; |527| 
     662                      .dwpsn  file "../FreeRTOS/Source/queue.c",line 534,column 5,is_stmt
     663 000204 ED00          MOV dbl(*SP(#0)), XAR0
         000206 8F   
     664              $C$DW$63        .dwtag  DW_TAG_TI_branch
     665                      .dwattr $C$DW$63, DW_AT_low_pc(0x00)
     666                      .dwattr $C$DW$63, DW_AT_name("_prvUnlockQueue")
     667                      .dwattr $C$DW$63, DW_AT_TI_call
     668 000207 0804          CALL #_prvUnlockQueue ; |534| 
         000209 1E   
     669                                                      ; call occurs [#_prvUnlockQueue] ; |534| 
     670                      .dwpsn  file "../FreeRTOS/Source/queue.c",line 541,column 5,is_stmt
     671              $C$DW$64        .dwtag  DW_TAG_TI_branch
     672                      .dwattr $C$DW$64, DW_AT_low_pc(0x00)
     673                      .dwattr $C$DW$64, DW_AT_name("_xTaskResumeAll")
     674                      .dwattr $C$DW$64, DW_AT_TI_call
     675 00020a 6C00          CALL #_xTaskResumeAll ; |541| 
         00020c 0000!
     676                                                      ; call occurs [#_xTaskResumeAll] ; |541| 
     677 00020e 6D14          BCC $C$L4,T0 != #0 ; |541| 
         000210 FEC9 
     678                                                      ; branchcc occurs ; |541| 
     679 000212       $C$DW$L$_xQueueGenericSend$33$E:
     680 000212       $C$DW$L$_xQueueGenericSend$34$B:
     681                      .dwpsn  file "../FreeRTOS/Source/queue.c",line 543,column 6,is_stmt
     682              $C$DW$65        .dwtag  DW_TAG_TI_branch
     683                      .dwattr $C$DW$65, DW_AT_low_pc(0x00)
TMS320C55x Assembler PC v4.4.1 Sat Sep 08 23:28:20 2018

Tools Copyright (c) 1996-2012 Texas Instruments Incorporated
queue.asm                                                            PAGE   16

     684                      .dwattr $C$DW$65, DW_AT_name("_vPortYield")
     685                      .dwattr $C$DW$65, DW_AT_TI_call
     686 000212 6C00          CALL #_vPortYield ; |543| 
         000214 0000!
     687                                                      ; call occurs [#_vPortYield] ; |543| 
     688                      .dwpsn  file "../FreeRTOS/Source/queue.c",line 545,column 4,is_stmt
     689 000216 06FE          B $C$L4   ; |545| 
         000218 C2   
     690                                                      ; branch occurs ; |545| 
     691 000219       $C$DW$L$_xQueueGenericSend$34$E:
     692 000219       $C$L16:    
     693 000219       $C$DW$L$_xQueueGenericSend$35$B:
     694                      .dwpsn  file "../FreeRTOS/Source/queue.c",line 549,column 5,is_stmt
     695 000219 ED00          MOV dbl(*SP(#0)), XAR0
         00021b 8F   
     696              $C$DW$66        .dwtag  DW_TAG_TI_branch
     697                      .dwattr $C$DW$66, DW_AT_low_pc(0x00)
     698                      .dwattr $C$DW$66, DW_AT_name("_prvUnlockQueue")
     699                      .dwattr $C$DW$66, DW_AT_TI_call
     700 00021c 0804          CALL #_prvUnlockQueue ; |549| 
         00021e 09   
     701                                                      ; call occurs [#_prvUnlockQueue] ; |549| 
     702                      .dwpsn  file "../FreeRTOS/Source/queue.c",line 550,column 5,is_stmt
     703              $C$DW$67        .dwtag  DW_TAG_TI_branch
     704                      .dwattr $C$DW$67, DW_AT_low_pc(0x00)
     705                      .dwattr $C$DW$67, DW_AT_name("_xTaskResumeAll")
     706                      .dwattr $C$DW$67, DW_AT_TI_call
     707 00021f 6C00          CALL #_xTaskResumeAll ; |550| 
         000221 0000!
     708                                                      ; call occurs [#_xTaskResumeAll] ; |550| 
     709                      .dwpsn  file "../FreeRTOS/Source/queue.c",line 552,column 3,is_stmt
     710 000223 06FE          B $C$L4   ; |552| 
         000225 B5   
     711                                                      ; branch occurs ; |552| 
     712 000226       $C$DW$L$_xQueueGenericSend$35$E:
     713 000226       $C$L17:    
     714                      .dwpsn  file "../FreeRTOS/Source/queue.c",line 556,column 4,is_stmt
     715 000226 ED00          MOV dbl(*SP(#0)), XAR0
         000228 8F   
     716              $C$DW$68        .dwtag  DW_TAG_TI_branch
     717                      .dwattr $C$DW$68, DW_AT_low_pc(0x00)
     718                      .dwattr $C$DW$68, DW_AT_name("_prvUnlockQueue")
     719                      .dwattr $C$DW$68, DW_AT_TI_call
     720 000229 0803          CALL #_prvUnlockQueue ; |556| 
         00022b FC   
     721                                                      ; call occurs [#_prvUnlockQueue] ; |556| 
     722                      .dwpsn  file "../FreeRTOS/Source/queue.c",line 557,column 4,is_stmt
     723              $C$DW$69        .dwtag  DW_TAG_TI_branch
     724                      .dwattr $C$DW$69, DW_AT_low_pc(0x00)
     725                      .dwattr $C$DW$69, DW_AT_name("_xTaskResumeAll")
     726                      .dwattr $C$DW$69, DW_AT_TI_call
     727 00022c 6C00          CALL #_xTaskResumeAll ; |557| 
         00022e 0000!
     728                                                      ; call occurs [#_xTaskResumeAll] ; |557| 
     729                      .dwpsn  file "../FreeRTOS/Source/queue.c",line 562,column 4,is_stmt
TMS320C55x Assembler PC v4.4.1 Sat Sep 08 23:28:20 2018

Tools Copyright (c) 1996-2012 Texas Instruments Incorporated
queue.asm                                                            PAGE   17

     730 000230 3C04          MOV #0, T0
     731 000232 4A00          B $C$L18  ; |562| 
     732                                                      ; branch occurs ; |562| 
     733 000234       $C$L18:    
     734                      .dwpsn  file "../FreeRTOS/Source/queue.c",line 565,column 1,is_stmt
     735 000234 4E09          AADD #9, SP
     736                      .dwcfi  cfa_offset, 1
     737              $C$DW$70        .dwtag  DW_TAG_TI_branch
     738                      .dwattr $C$DW$70, DW_AT_low_pc(0x00)
     739                      .dwattr $C$DW$70, DW_AT_TI_return
     740 000236 4804          RET
     741                                                      ; return occurs
     742              
     743              $C$DW$71        .dwtag  DW_TAG_TI_loop
     744                      .dwattr $C$DW$71, DW_AT_name("F:\eZdsp_C55x_FreeRTOS_Port\VerifiedOKInDbg\eZDSP_5535_Files\ccsws2\tes
     745                      .dwattr $C$DW$71, DW_AT_TI_begin_file("../FreeRTOS/Source/queue.c")
     746                      .dwattr $C$DW$71, DW_AT_TI_begin_line(0x1cc)
     747                      .dwattr $C$DW$71, DW_AT_TI_end_line(0x234)
     748              $C$DW$72        .dwtag  DW_TAG_TI_loop_range
     749                      .dwattr $C$DW$72, DW_AT_low_pc($C$DW$L$_xQueueGenericSend$2$B)
     750                      .dwattr $C$DW$72, DW_AT_high_pc($C$DW$L$_xQueueGenericSend$2$E)
     751              $C$DW$73        .dwtag  DW_TAG_TI_loop_range
     752                      .dwattr $C$DW$73, DW_AT_low_pc($C$DW$L$_xQueueGenericSend$13$B)
     753                      .dwattr $C$DW$73, DW_AT_high_pc($C$DW$L$_xQueueGenericSend$13$E)
     754              $C$DW$74        .dwtag  DW_TAG_TI_loop_range
     755                      .dwattr $C$DW$74, DW_AT_low_pc($C$DW$L$_xQueueGenericSend$19$B)
     756                      .dwattr $C$DW$74, DW_AT_high_pc($C$DW$L$_xQueueGenericSend$19$E)
     757              $C$DW$75        .dwtag  DW_TAG_TI_loop_range
     758                      .dwattr $C$DW$75, DW_AT_low_pc($C$DW$L$_xQueueGenericSend$20$B)
     759                      .dwattr $C$DW$75, DW_AT_high_pc($C$DW$L$_xQueueGenericSend$20$E)
     760              $C$DW$76        .dwtag  DW_TAG_TI_loop_range
     761                      .dwattr $C$DW$76, DW_AT_low_pc($C$DW$L$_xQueueGenericSend$21$B)
     762                      .dwattr $C$DW$76, DW_AT_high_pc($C$DW$L$_xQueueGenericSend$21$E)
     763              $C$DW$77        .dwtag  DW_TAG_TI_loop_range
     764                      .dwattr $C$DW$77, DW_AT_low_pc($C$DW$L$_xQueueGenericSend$22$B)
     765                      .dwattr $C$DW$77, DW_AT_high_pc($C$DW$L$_xQueueGenericSend$22$E)
     766              $C$DW$78        .dwtag  DW_TAG_TI_loop_range
     767                      .dwattr $C$DW$78, DW_AT_low_pc($C$DW$L$_xQueueGenericSend$23$B)
     768                      .dwattr $C$DW$78, DW_AT_high_pc($C$DW$L$_xQueueGenericSend$23$E)
     769              $C$DW$79        .dwtag  DW_TAG_TI_loop_range
     770                      .dwattr $C$DW$79, DW_AT_low_pc($C$DW$L$_xQueueGenericSend$24$B)
     771                      .dwattr $C$DW$79, DW_AT_high_pc($C$DW$L$_xQueueGenericSend$24$E)
     772              $C$DW$80        .dwtag  DW_TAG_TI_loop_range
     773                      .dwattr $C$DW$80, DW_AT_low_pc($C$DW$L$_xQueueGenericSend$25$B)
     774                      .dwattr $C$DW$80, DW_AT_high_pc($C$DW$L$_xQueueGenericSend$25$E)
     775              $C$DW$81        .dwtag  DW_TAG_TI_loop_range
     776                      .dwattr $C$DW$81, DW_AT_low_pc($C$DW$L$_xQueueGenericSend$26$B)
     777                      .dwattr $C$DW$81, DW_AT_high_pc($C$DW$L$_xQueueGenericSend$26$E)
     778              $C$DW$82        .dwtag  DW_TAG_TI_loop_range
     779                      .dwattr $C$DW$82, DW_AT_low_pc($C$DW$L$_xQueueGenericSend$27$B)
     780                      .dwattr $C$DW$82, DW_AT_high_pc($C$DW$L$_xQueueGenericSend$27$E)
     781              $C$DW$83        .dwtag  DW_TAG_TI_loop_range
     782                      .dwattr $C$DW$83, DW_AT_low_pc($C$DW$L$_xQueueGenericSend$28$B)
     783                      .dwattr $C$DW$83, DW_AT_high_pc($C$DW$L$_xQueueGenericSend$28$E)
     784              $C$DW$84        .dwtag  DW_TAG_TI_loop_range
TMS320C55x Assembler PC v4.4.1 Sat Sep 08 23:28:20 2018

Tools Copyright (c) 1996-2012 Texas Instruments Incorporated
queue.asm                                                            PAGE   18

     785                      .dwattr $C$DW$84, DW_AT_low_pc($C$DW$L$_xQueueGenericSend$29$B)
     786                      .dwattr $C$DW$84, DW_AT_high_pc($C$DW$L$_xQueueGenericSend$29$E)
     787              $C$DW$85        .dwtag  DW_TAG_TI_loop_range
     788                      .dwattr $C$DW$85, DW_AT_low_pc($C$DW$L$_xQueueGenericSend$30$B)
     789                      .dwattr $C$DW$85, DW_AT_high_pc($C$DW$L$_xQueueGenericSend$30$E)
     790              $C$DW$86        .dwtag  DW_TAG_TI_loop_range
     791                      .dwattr $C$DW$86, DW_AT_low_pc($C$DW$L$_xQueueGenericSend$31$B)
     792                      .dwattr $C$DW$86, DW_AT_high_pc($C$DW$L$_xQueueGenericSend$31$E)
     793              $C$DW$87        .dwtag  DW_TAG_TI_loop_range
     794                      .dwattr $C$DW$87, DW_AT_low_pc($C$DW$L$_xQueueGenericSend$32$B)
     795                      .dwattr $C$DW$87, DW_AT_high_pc($C$DW$L$_xQueueGenericSend$32$E)
     796              $C$DW$88        .dwtag  DW_TAG_TI_loop_range
     797                      .dwattr $C$DW$88, DW_AT_low_pc($C$DW$L$_xQueueGenericSend$35$B)
     798                      .dwattr $C$DW$88, DW_AT_high_pc($C$DW$L$_xQueueGenericSend$35$E)
     799              $C$DW$89        .dwtag  DW_TAG_TI_loop_range
     800                      .dwattr $C$DW$89, DW_AT_low_pc($C$DW$L$_xQueueGenericSend$34$B)
     801                      .dwattr $C$DW$89, DW_AT_high_pc($C$DW$L$_xQueueGenericSend$34$E)
     802              $C$DW$90        .dwtag  DW_TAG_TI_loop_range
     803                      .dwattr $C$DW$90, DW_AT_low_pc($C$DW$L$_xQueueGenericSend$33$B)
     804                      .dwattr $C$DW$90, DW_AT_high_pc($C$DW$L$_xQueueGenericSend$33$E)
     805                      .dwendtag $C$DW$71
     806              
     807                      .dwattr $C$DW$44, DW_AT_TI_end_file("../FreeRTOS/Source/queue.c")
     808                      .dwattr $C$DW$44, DW_AT_TI_end_line(0x235)
     809                      .dwattr $C$DW$44, DW_AT_TI_end_column(0x01)
     810                      .dwendentry
     811                      .dwendtag $C$DW$44
     812              
     813 000238               .sect   ".text"
     814                      .align 4
     815                      .global _xQueueGenericSendFromISR
     816              
     817              $C$DW$91        .dwtag  DW_TAG_subprogram, DW_AT_name("xQueueGenericSendFromISR")
     818                      .dwattr $C$DW$91, DW_AT_low_pc(_xQueueGenericSendFromISR)
     819                      .dwattr $C$DW$91, DW_AT_high_pc(0x00)
     820                      .dwattr $C$DW$91, DW_AT_TI_symbol_name("_xQueueGenericSendFromISR")
     821                      .dwattr $C$DW$91, DW_AT_external
     822                      .dwattr $C$DW$91, DW_AT_type(*$C$DW$T$10)
     823                      .dwattr $C$DW$91, DW_AT_TI_begin_file("../FreeRTOS/Source/queue.c")
     824                      .dwattr $C$DW$91, DW_AT_TI_begin_line(0x300)
     825                      .dwattr $C$DW$91, DW_AT_TI_begin_column(0x16)
     826                      .dwattr $C$DW$91, DW_AT_TI_max_frame_size(0x0a)
     827                      .dwpsn  file "../FreeRTOS/Source/queue.c",line 769,column 1,is_stmt,address _xQueueGenericSendFromISR
     828              
     829                      .dwfde $C$DW$CIE, _xQueueGenericSendFromISR
     830              $C$DW$92        .dwtag  DW_TAG_formal_parameter, DW_AT_name("pxQueue")
     831                      .dwattr $C$DW$92, DW_AT_TI_symbol_name("_pxQueue")
     832                      .dwattr $C$DW$92, DW_AT_type(*$C$DW$T$38)
     833                      .dwattr $C$DW$92, DW_AT_location[DW_OP_reg17]
     834              $C$DW$93        .dwtag  DW_TAG_formal_parameter, DW_AT_name("pvItemToQueue")
     835                      .dwattr $C$DW$93, DW_AT_TI_symbol_name("_pvItemToQueue")
     836                      .dwattr $C$DW$93, DW_AT_type(*$C$DW$T$48)
     837                      .dwattr $C$DW$93, DW_AT_location[DW_OP_reg19]
     838              $C$DW$94        .dwtag  DW_TAG_formal_parameter, DW_AT_name("pxHigherPriorityTaskWoken")
     839                      .dwattr $C$DW$94, DW_AT_TI_symbol_name("_pxHigherPriorityTaskWoken")
TMS320C55x Assembler PC v4.4.1 Sat Sep 08 23:28:20 2018

Tools Copyright (c) 1996-2012 Texas Instruments Incorporated
queue.asm                                                            PAGE   19

     840                      .dwattr $C$DW$94, DW_AT_type(*$C$DW$T$85)
     841                      .dwattr $C$DW$94, DW_AT_location[DW_OP_reg21]
     842              $C$DW$95        .dwtag  DW_TAG_formal_parameter, DW_AT_name("xCopyPosition")
     843                      .dwattr $C$DW$95, DW_AT_TI_symbol_name("_xCopyPosition")
     844                      .dwattr $C$DW$95, DW_AT_type(*$C$DW$T$10)
     845                      .dwattr $C$DW$95, DW_AT_location[DW_OP_reg12]
     846              ;*******************************************************************************
     847              ;* FUNCTION NAME: xQueueGenericSendFromISR                                     *
     848              ;*                                                                             *
     849              ;*   Function Uses Regs : T0,AR0,XAR0,AR1,XAR1,AR2,XAR2,AR3,XAR3,SP,CARRY,TC1, *
     850              ;*                        M40,SATA,SATD,RDM,FRCT,SMUL                          *
     851              ;*   Stack Frame        : Compact (No Frame Pointer, w/ debug)                 *
     852              ;*   Total Frame Size   : 10 words                                             *
     853              ;*                        (1 return address/alignment)                         *
     854              ;*                        (9 local values)                                     *
     855              ;*   Min System Stack   : 1 word                                               *
     856              ;*******************************************************************************
     857 000238       _xQueueGenericSendFromISR:
     858                      .dwcfi  cfa_offset, 1
     859                      .dwcfi  save_reg_to_mem, 91, -1
     860 000238 4EF7          AADD #-9, SP
     861                      .dwcfi  cfa_offset, 10
     862              $C$DW$96        .dwtag  DW_TAG_variable, DW_AT_name("pxQueue")
     863                      .dwattr $C$DW$96, DW_AT_TI_symbol_name("_pxQueue")
     864                      .dwattr $C$DW$96, DW_AT_type(*$C$DW$T$38)
     865                      .dwattr $C$DW$96, DW_AT_location[DW_OP_bregx 0x24 0]
     866              $C$DW$97        .dwtag  DW_TAG_variable, DW_AT_name("pvItemToQueue")
     867                      .dwattr $C$DW$97, DW_AT_TI_symbol_name("_pvItemToQueue")
     868                      .dwattr $C$DW$97, DW_AT_type(*$C$DW$T$48)
     869                      .dwattr $C$DW$97, DW_AT_location[DW_OP_bregx 0x24 2]
     870              $C$DW$98        .dwtag  DW_TAG_variable, DW_AT_name("pxHigherPriorityTaskWoken")
     871                      .dwattr $C$DW$98, DW_AT_TI_symbol_name("_pxHigherPriorityTaskWoken")
     872                      .dwattr $C$DW$98, DW_AT_type(*$C$DW$T$85)
     873                      .dwattr $C$DW$98, DW_AT_location[DW_OP_bregx 0x24 4]
     874              $C$DW$99        .dwtag  DW_TAG_variable, DW_AT_name("xCopyPosition")
     875                      .dwattr $C$DW$99, DW_AT_TI_symbol_name("_xCopyPosition")
     876                      .dwattr $C$DW$99, DW_AT_type(*$C$DW$T$10)
     877                      .dwattr $C$DW$99, DW_AT_location[DW_OP_bregx 0x24 6]
     878              $C$DW$100       .dwtag  DW_TAG_variable, DW_AT_name("xReturn")
     879                      .dwattr $C$DW$100, DW_AT_TI_symbol_name("_xReturn")
     880                      .dwattr $C$DW$100, DW_AT_type(*$C$DW$T$10)
     881                      .dwattr $C$DW$100, DW_AT_location[DW_OP_bregx 0x24 7]
     882              $C$DW$101       .dwtag  DW_TAG_variable, DW_AT_name("uxSavedInterruptStatus")
     883                      .dwattr $C$DW$101, DW_AT_TI_symbol_name("_uxSavedInterruptStatus")
     884                      .dwattr $C$DW$101, DW_AT_type(*$C$DW$T$11)
     885                      .dwattr $C$DW$101, DW_AT_location[DW_OP_bregx 0x24 8]
     886 00023a C40C          MOV T0, *SP(#6) ; |769| 
     887 00023c EB08          MOV XAR2, dbl(*SP(#4))
         00023e A5   
     888 00023f EB04          MOV XAR1, dbl(*SP(#2))
         000241 95   
     889 000242 EB00          MOV XAR0, dbl(*SP(#0))
         000244 85   
     890                      .dwpsn  file "../FreeRTOS/Source/queue.c",line 778,column 2,is_stmt
     891 000245 E610          MOV #0, *SP(#8) ; |778| 
TMS320C55x Assembler PC v4.4.1 Sat Sep 08 23:28:20 2018

Tools Copyright (c) 1996-2012 Texas Instruments Incorporated
queue.asm                                                            PAGE   20

         000247 00   
     892                      .dwpsn  file "../FreeRTOS/Source/queue.c",line 780,column 3,is_stmt
     893 000248 ED00          MOV dbl(*SP(#0)), XAR3
         00024a BF   
     894 00024b A96D          MOV *AR3(#29), AR1 ; |780| 
         00024d 001D 
     895 00024f AA6D          MOV *AR3(#28), AR2 ; |780| 
         000251 001C 
     896 000253 12A8          CMPU AR2 >= AR1, TC1 ; |780| 
         000255 94   
     897 000256 0464          BCC $C$L21,TC1 ; |780| 
         000258 3D   
     898                                                      ; branchcc occurs ; |780| 
     899                      .dwpsn  file "../FreeRTOS/Source/queue.c",line 784,column 4,is_stmt
     900 000259 ED00          MOV dbl(*SP(#0)), XAR0
         00025b 8F   
     901 00025c ED04          MOV dbl(*SP(#2)), XAR1
         00025e 9F   
     902 00025f A40C          MOV *SP(#6), T0 ; |784| 
     903              $C$DW$102       .dwtag  DW_TAG_TI_branch
     904                      .dwattr $C$DW$102, DW_AT_low_pc(0x00)
     905                      .dwattr $C$DW$102, DW_AT_name("_prvCopyDataToQueue")
     906                      .dwattr $C$DW$102, DW_AT_TI_call
     907 000261 0802          CALL #_prvCopyDataToQueue ; |784| 
         000263 B4   
     908                                                      ; call occurs [#_prvCopyDataToQueue] ; |784| 
     909                      .dwpsn  file "../FreeRTOS/Source/queue.c",line 788,column 4,is_stmt
     910 000264 ED00          MOV dbl(*SP(#0)), XAR3
         000266 BF   
     911 000267 F06D          CMP *AR3(#32) == #-1, TC1 ; |788| 
         000269 FFFF 
         00026b 0020 
     912 00026d 0474          BCC $C$L19,!TC1 ; |788| 
         00026f 1B   
     913                                                      ; branchcc occurs ; |788| 
     914                      .dwpsn  file "../FreeRTOS/Source/queue.c",line 790,column 5,is_stmt
     915 000270 A96D          MOV *AR3(#18), AR1 ; |790| 
         000272 0012 
     916 000274 0409          BCC $C$L20,AR1 == #0 ; |790| 
         000276 1A   
     917                                                      ; branchcc occurs ; |790| 
     918                      .dwpsn  file "../FreeRTOS/Source/queue.c",line 792,column 6,is_stmt
     919 000277 ED00          MOV dbl(*SP(#0)), XAR0
         000279 8F   
     920 00027a 1412          AADD #18, AR0 ; |792| 
         00027c 84   
     921              $C$DW$103       .dwtag  DW_TAG_TI_branch
     922                      .dwattr $C$DW$103, DW_AT_low_pc(0x00)
     923                      .dwattr $C$DW$103, DW_AT_name("_xTaskRemoveFromEventList")
     924                      .dwattr $C$DW$103, DW_AT_TI_call
     925 00027d 6C00          CALL #_xTaskRemoveFromEventList ; |792| 
         00027f 0000!
     926                                                      ; call occurs [#_xTaskRemoveFromEventList] ; |792| 
     927 000281 6704          BCC $C$L20,T0 == #0 ; |792| 
     928                                                      ; branchcc occurs ; |792| 
TMS320C55x Assembler PC v4.4.1 Sat Sep 08 23:28:20 2018

Tools Copyright (c) 1996-2012 Texas Instruments Incorporated
queue.asm                                                            PAGE   21

     929                      .dwpsn  file "../FreeRTOS/Source/queue.c",line 796,column 7,is_stmt
     930 000283 ED08          MOV dbl(*SP(#4)), XAR3
         000285 BF   
     931 000286 E661          MOV #1, *AR3 ; |796| 
         000288 01   
     932                      .dwpsn  file "../FreeRTOS/Source/queue.c",line 799,column 4,is_stmt
     933 000289 4A06          B $C$L20  ; |799| 
     934                                                      ; branch occurs ; |799| 
     935 00028b       $C$L19:    
     936                      .dwpsn  file "../FreeRTOS/Source/queue.c",line 804,column 5,is_stmt
     937 00028b F76D          ADD #1, *AR3(#32) ; |804| 
         00028d 0001 
         00028f 0020 
     938 000291       $C$L20:    
     939                      .dwpsn  file "../FreeRTOS/Source/queue.c",line 807,column 4,is_stmt
     940 000291 E60E          MOV #1, *SP(#7) ; |807| 
         000293 01   
     941                      .dwpsn  file "../FreeRTOS/Source/queue.c",line 808,column 3,is_stmt
     942 000294 4A03          B $C$L22  ; |808| 
     943                                                      ; branch occurs ; |808| 
     944 000296       $C$L21:    
     945                      .dwpsn  file "../FreeRTOS/Source/queue.c",line 812,column 4,is_stmt
     946 000296 E60E          MOV #0, *SP(#7) ; |812| 
         000298 00   
     947 000299       $C$L22:    
     948                      .dwpsn  file "../FreeRTOS/Source/queue.c",line 815,column 2,is_stmt
     949                      .dwpsn  file "../FreeRTOS/Source/queue.c",line 817,column 2,is_stmt
     950 000299 A40E          MOV *SP(#7), T0 ; |817| 
     951                      .dwpsn  file "../FreeRTOS/Source/queue.c",line 818,column 1,is_stmt
     952 00029b 4E09          AADD #9, SP
     953                      .dwcfi  cfa_offset, 1
     954              $C$DW$104       .dwtag  DW_TAG_TI_branch
     955                      .dwattr $C$DW$104, DW_AT_low_pc(0x00)
     956                      .dwattr $C$DW$104, DW_AT_TI_return
     957 00029d 4804          RET
     958                                                      ; return occurs
     959                      .dwattr $C$DW$91, DW_AT_TI_end_file("../FreeRTOS/Source/queue.c")
     960                      .dwattr $C$DW$91, DW_AT_TI_end_line(0x332)
     961                      .dwattr $C$DW$91, DW_AT_TI_end_column(0x01)
     962                      .dwendentry
     963                      .dwendtag $C$DW$91
     964              
     965 00029f               .sect   ".text"
     966                      .align 4
     967                      .global _xQueueGenericReceive
     968              
     969              $C$DW$105       .dwtag  DW_TAG_subprogram, DW_AT_name("xQueueGenericReceive")
     970                      .dwattr $C$DW$105, DW_AT_low_pc(_xQueueGenericReceive)
     971                      .dwattr $C$DW$105, DW_AT_high_pc(0x00)
     972                      .dwattr $C$DW$105, DW_AT_TI_symbol_name("_xQueueGenericReceive")
     973                      .dwattr $C$DW$105, DW_AT_external
     974                      .dwattr $C$DW$105, DW_AT_type(*$C$DW$T$10)
     975                      .dwattr $C$DW$105, DW_AT_TI_begin_file("../FreeRTOS/Source/queue.c")
     976                      .dwattr $C$DW$105, DW_AT_TI_begin_line(0x335)
     977                      .dwattr $C$DW$105, DW_AT_TI_begin_column(0x16)
TMS320C55x Assembler PC v4.4.1 Sat Sep 08 23:28:20 2018

Tools Copyright (c) 1996-2012 Texas Instruments Incorporated
queue.asm                                                            PAGE   22

     978                      .dwattr $C$DW$105, DW_AT_TI_max_frame_size(0x0e)
     979                      .dwpsn  file "../FreeRTOS/Source/queue.c",line 822,column 1,is_stmt,address _xQueueGenericReceive
     980              
     981                      .dwfde $C$DW$CIE, _xQueueGenericReceive
     982              $C$DW$106       .dwtag  DW_TAG_formal_parameter, DW_AT_name("pxQueue")
     983                      .dwattr $C$DW$106, DW_AT_TI_symbol_name("_pxQueue")
     984                      .dwattr $C$DW$106, DW_AT_type(*$C$DW$T$38)
     985                      .dwattr $C$DW$106, DW_AT_location[DW_OP_reg17]
     986              $C$DW$107       .dwtag  DW_TAG_formal_parameter, DW_AT_name("pvBuffer")
     987                      .dwattr $C$DW$107, DW_AT_TI_symbol_name("_pvBuffer")
     988                      .dwattr $C$DW$107, DW_AT_type(*$C$DW$T$47)
     989                      .dwattr $C$DW$107, DW_AT_location[DW_OP_reg19]
     990              $C$DW$108       .dwtag  DW_TAG_formal_parameter, DW_AT_name("xTicksToWait")
     991                      .dwattr $C$DW$108, DW_AT_TI_symbol_name("_xTicksToWait")
     992                      .dwattr $C$DW$108, DW_AT_type(*$C$DW$T$29)
     993                      .dwattr $C$DW$108, DW_AT_location[DW_OP_reg12]
     994              $C$DW$109       .dwtag  DW_TAG_formal_parameter, DW_AT_name("xJustPeeking")
     995                      .dwattr $C$DW$109, DW_AT_TI_symbol_name("_xJustPeeking")
     996                      .dwattr $C$DW$109, DW_AT_type(*$C$DW$T$10)
     997                      .dwattr $C$DW$109, DW_AT_location[DW_OP_reg13]
     998              ;*******************************************************************************
     999              ;* FUNCTION NAME: xQueueGenericReceive                                         *
    1000              ;*                                                                             *
    1001              ;*   Function Uses Regs : T0,T1,AR0,XAR0,AR1,XAR1,AR2,XAR2,AR3,XAR3,SP,CARRY,  *
    1002              ;*                        TC1,M40,SATA,SATD,RDM,FRCT,SMUL                      *
    1003              ;*   Stack Frame        : Compact (No Frame Pointer, w/ debug)                 *
    1004              ;*   Total Frame Size   : 14 words                                             *
    1005              ;*                        (2 return address/alignment)                         *
    1006              ;*                        (12 local values)                                    *
    1007              ;*   Min System Stack   : 1 word                                               *
    1008              ;*******************************************************************************
    1009 0002a0       _xQueueGenericReceive:
    1010                      .dwcfi  cfa_offset, 1
    1011                      .dwcfi  save_reg_to_mem, 91, -1
    1012 0002a0 4EF3          AADD #-13, SP
    1013                      .dwcfi  cfa_offset, 14
    1014              $C$DW$110       .dwtag  DW_TAG_variable, DW_AT_name("pxQueue")
    1015                      .dwattr $C$DW$110, DW_AT_TI_symbol_name("_pxQueue")
    1016                      .dwattr $C$DW$110, DW_AT_type(*$C$DW$T$38)
    1017                      .dwattr $C$DW$110, DW_AT_location[DW_OP_bregx 0x24 0]
    1018              $C$DW$111       .dwtag  DW_TAG_variable, DW_AT_name("pvBuffer")
    1019                      .dwattr $C$DW$111, DW_AT_TI_symbol_name("_pvBuffer")
    1020                      .dwattr $C$DW$111, DW_AT_type(*$C$DW$T$47)
    1021                      .dwattr $C$DW$111, DW_AT_location[DW_OP_bregx 0x24 2]
    1022              $C$DW$112       .dwtag  DW_TAG_variable, DW_AT_name("xTicksToWait")
    1023                      .dwattr $C$DW$112, DW_AT_TI_symbol_name("_xTicksToWait")
    1024                      .dwattr $C$DW$112, DW_AT_type(*$C$DW$T$29)
    1025                      .dwattr $C$DW$112, DW_AT_location[DW_OP_bregx 0x24 4]
    1026              $C$DW$113       .dwtag  DW_TAG_variable, DW_AT_name("xJustPeeking")
    1027                      .dwattr $C$DW$113, DW_AT_TI_symbol_name("_xJustPeeking")
    1028                      .dwattr $C$DW$113, DW_AT_type(*$C$DW$T$10)
    1029                      .dwattr $C$DW$113, DW_AT_location[DW_OP_bregx 0x24 5]
    1030              $C$DW$114       .dwtag  DW_TAG_variable, DW_AT_name("xEntryTimeSet")
    1031                      .dwattr $C$DW$114, DW_AT_TI_symbol_name("_xEntryTimeSet")
    1032                      .dwattr $C$DW$114, DW_AT_type(*$C$DW$T$10)
TMS320C55x Assembler PC v4.4.1 Sat Sep 08 23:28:20 2018

Tools Copyright (c) 1996-2012 Texas Instruments Incorporated
queue.asm                                                            PAGE   23

    1033                      .dwattr $C$DW$114, DW_AT_location[DW_OP_bregx 0x24 6]
    1034              $C$DW$115       .dwtag  DW_TAG_variable, DW_AT_name("xTimeOut")
    1035                      .dwattr $C$DW$115, DW_AT_TI_symbol_name("_xTimeOut")
    1036                      .dwattr $C$DW$115, DW_AT_type(*$C$DW$T$61)
    1037                      .dwattr $C$DW$115, DW_AT_location[DW_OP_bregx 0x24 7]
    1038              $C$DW$116       .dwtag  DW_TAG_variable, DW_AT_name("pcOriginalReadPosition")
    1039                      .dwattr $C$DW$116, DW_AT_TI_symbol_name("_pcOriginalReadPosition")
    1040                      .dwattr $C$DW$116, DW_AT_type(*$C$DW$T$19)
    1041                      .dwattr $C$DW$116, DW_AT_location[DW_OP_bregx 0x24 10]
    1042 0002a2 C50A          MOV T1, *SP(#5) ; |822| 
    1043 0002a4 C408          MOV T0, *SP(#4) ; |822| 
    1044 0002a6 EB04          MOV XAR1, dbl(*SP(#2))
         0002a8 95   
    1045 0002a9 EB00          MOV XAR0, dbl(*SP(#0))
         0002ab 85   
    1046                      .dwpsn  file "../FreeRTOS/Source/queue.c",line 823,column 22,is_stmt
    1047 0002ac E60C          MOV #0, *SP(#6) ; |823| 
         0002ae 00   
    1048 0002af       $C$L23:    
    1049 0002af       $C$DW$L$_xQueueGenericReceive$2$B:
    1050                      .dwpsn  file "../FreeRTOS/Source/queue.c",line 833,column 3,is_stmt
    1051 0002af 20     nop
    1052 0002b0 46B3   bset INTM
    1053 0002b2 F731          ADD #1, *(#_usCriticalNesting) ; |833| 
         0002b4 0001 
         0002b6 0000 
         0002b8 00!  
    1054 0002b9 20            NOP
    1055 0002ba 20            NOP
    1056                      .dwpsn  file "../FreeRTOS/Source/queue.c",line 837,column 4,is_stmt
    1057 0002bb ED00          MOV dbl(*SP(#0)), XAR3
         0002bd BF   
    1058 0002be A96D          MOV *AR3(#28), AR1 ; |837| 
         0002c0 001C 
    1059 0002c2 6D09          BCC $C$L28,AR1 == #0 ; |837| 
         0002c4 008B 
    1060                                                      ; branchcc occurs ; |837| 
    1061 0002c6       $C$DW$L$_xQueueGenericReceive$2$E:
    1062                      .dwpsn  file "../FreeRTOS/Source/queue.c",line 840,column 5,is_stmt
    1063 0002c6 ED7D          MOV dbl(*AR3(short(#6))), XAR3
         0002c8 BF   
    1064 0002c9 EB14          MOV XAR3, dbl(*SP(#10))
         0002cb B5   
    1065                      .dwpsn  file "../FreeRTOS/Source/queue.c",line 842,column 5,is_stmt
    1066 0002cc ED00          MOV dbl(*SP(#0)), XAR0
         0002ce 8F   
    1067 0002cf ED04          MOV dbl(*SP(#2)), XAR1
         0002d1 9F   
    1068              $C$DW$117       .dwtag  DW_TAG_TI_branch
    1069                      .dwattr $C$DW$117, DW_AT_low_pc(0x00)
    1070                      .dwattr $C$DW$117, DW_AT_name("_prvCopyDataFromQueue")
    1071                      .dwattr $C$DW$117, DW_AT_TI_call
    1072 0002d2 0802          CALL #_prvCopyDataFromQueue ; |842| 
         0002d4 F7   
    1073                                                      ; call occurs [#_prvCopyDataFromQueue] ; |842| 
TMS320C55x Assembler PC v4.4.1 Sat Sep 08 23:28:20 2018

Tools Copyright (c) 1996-2012 Texas Instruments Incorporated
queue.asm                                                            PAGE   24

    1074                      .dwpsn  file "../FreeRTOS/Source/queue.c",line 844,column 5,is_stmt
    1075 0002d5 A90A          MOV *SP(#5), AR1 ; |844| 
    1076 0002d7 0419          BCC $C$L25,AR1 != #0 ; |844| 
         0002d9 33   
    1077                                                      ; branchcc occurs ; |844| 
    1078                      .dwpsn  file "../FreeRTOS/Source/queue.c",line 849,column 6,is_stmt
    1079 0002da ED00          MOV dbl(*SP(#0)), XAR3
         0002dc BF   
    1080 0002dd F76D          SUB #1, *AR3(#28) ; |849| 
         0002df FFFF 
         0002e1 001C 
    1081 0002e3 20            NOP
    1082 0002e4 20            NOP
    1083                      .dwpsn  file "../FreeRTOS/Source/queue.c",line 862,column 6,is_stmt
    1084 0002e5 ED00          MOV dbl(*SP(#0)), XAR3
         0002e7 BF   
    1085 0002e8 AA6D          MOV *AR3(#8), AR2 ; |862| 
         0002ea 0008 
    1086              
    1087 0002ec 611A          BCC $C$L24,AR2 != #0 ; |862| 
    1088 0002ee 3D09  ||      MOV #0, AR1
    1089              
    1090                                                      ; branchcc occurs ; |862| 
    1091 0002f0 3C19          MOV #1, AR1
    1092 0002f2       $C$L24:    
    1093 0002f2 0419          BCC $C$L26,AR1 != #0 ; |862| 
         0002f4 3B   
    1094                                                      ; branchcc occurs ; |862| 
    1095                      .dwpsn  file "../FreeRTOS/Source/queue.c",line 864,column 7,is_stmt
    1096 0002f5 ED00          MOV dbl(*SP(#0)), XAR0
         0002f7 8F   
    1097 0002f8 1408          AADD #8, AR0 ; |864| 
         0002fa 84   
    1098              $C$DW$118       .dwtag  DW_TAG_TI_branch
    1099                      .dwattr $C$DW$118, DW_AT_low_pc(0x00)
    1100                      .dwattr $C$DW$118, DW_AT_name("_xTaskRemoveFromEventList")
    1101                      .dwattr $C$DW$118, DW_AT_TI_call
    1102 0002fb 6C00          CALL #_xTaskRemoveFromEventList ; |864| 
         0002fd 0000!
    1103                                                      ; call occurs [#_xTaskRemoveFromEventList] ; |864| 
    1104 0002ff 3C19          MOV #1, AR1
    1105 000301 124C          CMP T0 != AR1, TC1 ; |864| 
         000303 90   
    1106 000304 0464          BCC $C$L26,TC1 ; |864| 
         000306 29   
    1107                                                      ; branchcc occurs ; |864| 
    1108                      .dwpsn  file "../FreeRTOS/Source/queue.c",line 866,column 8,is_stmt
    1109              $C$DW$119       .dwtag  DW_TAG_TI_branch
    1110                      .dwattr $C$DW$119, DW_AT_low_pc(0x00)
    1111                      .dwattr $C$DW$119, DW_AT_name("_vPortYield")
    1112                      .dwattr $C$DW$119, DW_AT_TI_call
    1113 000307 6C00          CALL #_vPortYield ; |866| 
         000309 0000!
    1114                                                      ; call occurs [#_vPortYield] ; |866| 
    1115                      .dwpsn  file "../FreeRTOS/Source/queue.c",line 869,column 5,is_stmt
TMS320C55x Assembler PC v4.4.1 Sat Sep 08 23:28:20 2018

Tools Copyright (c) 1996-2012 Texas Instruments Incorporated
queue.asm                                                            PAGE   25

    1116 00030b 4A23          B $C$L26  ; |869| 
    1117                                                      ; branch occurs ; |869| 
    1118 00030d       $C$L25:    
    1119                      .dwpsn  file "../FreeRTOS/Source/queue.c",line 876,column 6,is_stmt
    1120 00030d ED00          MOV dbl(*SP(#0)), XAR3
         00030f BF   
    1121 000310 ED14          MOV dbl(*SP(#10)), XAR2
         000312 AF   
    1122 000313 EB7D          MOV XAR2, dbl(*AR3(short(#6)))
         000315 A5   
    1123                      .dwpsn  file "../FreeRTOS/Source/queue.c",line 880,column 6,is_stmt
    1124 000316 ED00          MOV dbl(*SP(#0)), XAR3
         000318 BF   
    1125 000319 A96D          MOV *AR3(#18), AR1 ; |880| 
         00031b 0012 
    1126 00031d 0409          BCC $C$L26,AR1 == #0 ; |880| 
         00031f 10   
    1127                                                      ; branchcc occurs ; |880| 
    1128                      .dwpsn  file "../FreeRTOS/Source/queue.c",line 884,column 7,is_stmt
    1129 000320 ED00          MOV dbl(*SP(#0)), XAR0
         000322 8F   
    1130 000323 1412          AADD #18, AR0 ; |884| 
         000325 84   
    1131              $C$DW$120       .dwtag  DW_TAG_TI_branch
    1132                      .dwattr $C$DW$120, DW_AT_low_pc(0x00)
    1133                      .dwattr $C$DW$120, DW_AT_name("_xTaskRemoveFromEventList")
    1134                      .dwattr $C$DW$120, DW_AT_TI_call
    1135 000326 6C00          CALL #_xTaskRemoveFromEventList ; |884| 
         000328 0000!
    1136                                                      ; call occurs [#_xTaskRemoveFromEventList] ; |884| 
    1137 00032a 6204          BCC $C$L26,T0 == #0 ; |884| 
    1138                                                      ; branchcc occurs ; |884| 
    1139                      .dwpsn  file "../FreeRTOS/Source/queue.c",line 887,column 8,is_stmt
    1140              $C$DW$121       .dwtag  DW_TAG_TI_branch
    1141                      .dwattr $C$DW$121, DW_AT_low_pc(0x00)
    1142                      .dwattr $C$DW$121, DW_AT_name("_vPortYield")
    1143                      .dwattr $C$DW$121, DW_AT_TI_call
    1144 00032c 6C00          CALL #_vPortYield ; |887| 
         00032e 0000!
    1145                                                      ; call occurs [#_vPortYield] ; |887| 
    1146 000330       $C$L26:    
    1147                      .dwpsn  file "../FreeRTOS/Source/queue.c",line 893,column 5,is_stmt
    1148 000330 A931          MOV *(#_usCriticalNesting), AR1 ; |893| 
         000332 0000 
         000334 00!  
    1149 000335 0409          BCC $C$L27,AR1 == #0 ; |893| 
         000337 14   
    1150                                                      ; branchcc occurs ; |893| 
    1151 000338 F731          SUB #1, *(#_usCriticalNesting) ; |893| 
         00033a FFFF 
         00033c 0000 
         00033e 00!  
    1152 00033f 20            NOP
    1153 000340 20            NOP
    1154 000341 20            NOP
TMS320C55x Assembler PC v4.4.1 Sat Sep 08 23:28:20 2018

Tools Copyright (c) 1996-2012 Texas Instruments Incorporated
queue.asm                                                            PAGE   26

    1155 000342 A931          MOV *(#_usCriticalNesting), AR1 ; |893| 
         000344 0000 
         000346 00!  
    1156 000347 6199          BCC $C$L27,AR1 != #0 ; |893| 
    1157                                                      ; branchcc occurs ; |893| 
    1158 000349 20     nop
    1159 00034a 46B2   bclr INTM
    1160 00034c       $C$L27:    
    1161                      .dwpsn  file "../FreeRTOS/Source/queue.c",line 894,column 5,is_stmt
    1162 00034c 3C14          MOV #1, T0
    1163 00034e 0600          B $C$L38  ; |894| 
         000350 EC   
    1164                                                      ; branch occurs ; |894| 
    1165 000351       $C$L28:    
    1166 000351       $C$DW$L$_xQueueGenericReceive$17$B:
    1167                      .dwpsn  file "../FreeRTOS/Source/queue.c",line 898,column 5,is_stmt
    1168 000351 A908          MOV *SP(#4), AR1 ; |898| 
    1169 000353 0419          BCC $C$L30,AR1 != #0 ; |898| 
         000355 21   
    1170                                                      ; branchcc occurs ; |898| 
    1171 000356       $C$DW$L$_xQueueGenericReceive$17$E:
    1172                      .dwpsn  file "../FreeRTOS/Source/queue.c",line 902,column 6,is_stmt
    1173 000356 A931          MOV *(#_usCriticalNesting), AR1 ; |902| 
         000358 0000 
         00035a 00!  
    1174 00035b 0409          BCC $C$L29,AR1 == #0 ; |902| 
         00035d 14   
    1175                                                      ; branchcc occurs ; |902| 
    1176 00035e F731          SUB #1, *(#_usCriticalNesting) ; |902| 
         000360 FFFF 
         000362 0000 
         000364 00!  
    1177 000365 20            NOP
    1178 000366 20            NOP
    1179 000367 20            NOP
    1180 000368 A931          MOV *(#_usCriticalNesting), AR1 ; |902| 
         00036a 0000 
         00036c 00!  
    1181 00036d 6199          BCC $C$L29,AR1 != #0 ; |902| 
    1182                                                      ; branchcc occurs ; |902| 
    1183 00036f 20     nop
    1184 000370 46B2   bclr INTM
    1185 000372       $C$L29:    
    1186                      .dwpsn  file "../FreeRTOS/Source/queue.c",line 904,column 6,is_stmt
    1187 000372 3C04          MOV #0, T0
    1188 000374 0600          B $C$L38  ; |904| 
         000376 C6   
    1189                                                      ; branch occurs ; |904| 
    1190 000377       $C$L30:    
    1191 000377       $C$DW$L$_xQueueGenericReceive$23$B:
    1192                      .dwpsn  file "../FreeRTOS/Source/queue.c",line 906,column 10,is_stmt
    1193 000377 A90C          MOV *SP(#6), AR1 ; |906| 
    1194 000379 6519          BCC $C$L31,AR1 != #0 ; |906| 
    1195                                                      ; branchcc occurs ; |906| 
    1196 00037b       $C$DW$L$_xQueueGenericReceive$23$E:
TMS320C55x Assembler PC v4.4.1 Sat Sep 08 23:28:20 2018

Tools Copyright (c) 1996-2012 Texas Instruments Incorporated
queue.asm                                                            PAGE   27

    1197 00037b       $C$DW$L$_xQueueGenericReceive$24$B:
    1198                      .dwpsn  file "../FreeRTOS/Source/queue.c",line 910,column 6,is_stmt
    1199 00037b EC0E          AMAR *SP(#7), XAR0
         00037d 8E   
    1200              $C$DW$122       .dwtag  DW_TAG_TI_branch
    1201                      .dwattr $C$DW$122, DW_AT_low_pc(0x00)
    1202                      .dwattr $C$DW$122, DW_AT_name("_vTaskSetTimeOutState")
    1203                      .dwattr $C$DW$122, DW_AT_TI_call
    1204 00037e 6C00          CALL #_vTaskSetTimeOutState ; |910| 
         000380 0000!
    1205                                                      ; call occurs [#_vTaskSetTimeOutState] ; |910| 
    1206                      .dwpsn  file "../FreeRTOS/Source/queue.c",line 911,column 6,is_stmt
    1207 000382 E60C          MOV #1, *SP(#6) ; |911| 
         000384 01   
    1208 000385       $C$DW$L$_xQueueGenericReceive$24$E:
    1209 000385       $C$L31:    
    1210 000385       $C$DW$L$_xQueueGenericReceive$25$B:
    1211                      .dwpsn  file "../FreeRTOS/Source/queue.c",line 915,column 3,is_stmt
    1212 000385 A931          MOV *(#_usCriticalNesting), AR1 ; |915| 
         000387 0000 
         000389 00!  
    1213 00038a 0409          BCC $C$L32,AR1 == #0 ; |915| 
         00038c 14   
    1214                                                      ; branchcc occurs ; |915| 
    1215 00038d       $C$DW$L$_xQueueGenericReceive$25$E:
    1216 00038d       $C$DW$L$_xQueueGenericReceive$26$B:
    1217 00038d F731          SUB #1, *(#_usCriticalNesting) ; |915| 
         00038f FFFF 
         000391 0000 
         000393 00!  
    1218 000394 20            NOP
    1219 000395 20            NOP
    1220 000396 20            NOP
    1221 000397 A931          MOV *(#_usCriticalNesting), AR1 ; |915| 
         000399 0000 
         00039b 00!  
    1222 00039c 6199          BCC $C$L32,AR1 != #0 ; |915| 
    1223                                                      ; branchcc occurs ; |915| 
    1224 00039e       $C$DW$L$_xQueueGenericReceive$26$E:
    1225 00039e       $C$DW$L$_xQueueGenericReceive$27$B:
    1226 00039e 20     nop
    1227 00039f 46B2   bclr INTM
    1228 0003a1       $C$DW$L$_xQueueGenericReceive$27$E:
    1229 0003a1       $C$L32:    
    1230 0003a1       $C$DW$L$_xQueueGenericReceive$28$B:
    1231                      .dwpsn  file "../FreeRTOS/Source/queue.c",line 920,column 3,is_stmt
    1232              $C$DW$123       .dwtag  DW_TAG_TI_branch
    1233                      .dwattr $C$DW$123, DW_AT_low_pc(0x00)
    1234                      .dwattr $C$DW$123, DW_AT_name("_vTaskSuspendAll")
    1235                      .dwattr $C$DW$123, DW_AT_TI_call
    1236 0003a1 6C00          CALL #_vTaskSuspendAll ; |920| 
         0003a3 0000!
    1237                                                      ; call occurs [#_vTaskSuspendAll] ; |920| 
    1238                      .dwpsn  file "../FreeRTOS/Source/queue.c",line 921,column 3,is_stmt
    1239 0003a5 20     nop
TMS320C55x Assembler PC v4.4.1 Sat Sep 08 23:28:20 2018

Tools Copyright (c) 1996-2012 Texas Instruments Incorporated
queue.asm                                                            PAGE   28

    1240 0003a6 46B3   bset INTM
    1241 0003a8 ED00          MOV dbl(*SP(#0)), XAR3
         0003aa BF   
    1242 0003ab F731          ADD #1, *(#_usCriticalNesting) ; |921| 
         0003ad 0001 
         0003af 0000 
         0003b1 00!  
    1243 0003b2 F06D          CMP *AR3(#31) == #-1, TC1 ; |921| 
         0003b4 FFFF 
         0003b6 001F 
    1244 0003b8 62F4          BCC $C$L33,!TC1 ; |921| 
    1245                                                      ; branchcc occurs ; |921| 
    1246 0003ba       $C$DW$L$_xQueueGenericReceive$28$E:
    1247 0003ba       $C$DW$L$_xQueueGenericReceive$29$B:
    1248 0003ba E66D          MOV #0, *AR3(#31) ; |921| 
         0003bc 0000 
         0003be 1F   
    1249 0003bf       $C$DW$L$_xQueueGenericReceive$29$E:
    1250 0003bf       $C$L33:    
    1251 0003bf       $C$DW$L$_xQueueGenericReceive$30$B:
    1252 0003bf ED00          MOV dbl(*SP(#0)), XAR3
         0003c1 BF   
    1253 0003c2 F06D          CMP *AR3(#32) == #-1, TC1 ; |921| 
         0003c4 FFFF 
         0003c6 0020 
    1254 0003c8 62F4          BCC $C$L34,!TC1 ; |921| 
    1255                                                      ; branchcc occurs ; |921| 
    1256 0003ca       $C$DW$L$_xQueueGenericReceive$30$E:
    1257 0003ca       $C$DW$L$_xQueueGenericReceive$31$B:
    1258 0003ca E66D          MOV #0, *AR3(#32) ; |921| 
         0003cc 0000 
         0003ce 20   
    1259 0003cf       $C$DW$L$_xQueueGenericReceive$31$E:
    1260 0003cf       $C$L34:    
    1261 0003cf       $C$DW$L$_xQueueGenericReceive$32$B:
    1262 0003cf A931          MOV *(#_usCriticalNesting), AR1 ; |921| 
         0003d1 0000 
         0003d3 00!  
    1263 0003d4 0409          BCC $C$L35,AR1 == #0 ; |921| 
         0003d6 14   
    1264                                                      ; branchcc occurs ; |921| 
    1265 0003d7       $C$DW$L$_xQueueGenericReceive$32$E:
    1266 0003d7       $C$DW$L$_xQueueGenericReceive$33$B:
    1267 0003d7 F731          SUB #1, *(#_usCriticalNesting) ; |921| 
         0003d9 FFFF 
         0003db 0000 
         0003dd 00!  
    1268 0003de 20            NOP
    1269 0003df 20            NOP
    1270 0003e0 20            NOP
    1271 0003e1 A931          MOV *(#_usCriticalNesting), AR1 ; |921| 
         0003e3 0000 
         0003e5 00!  
    1272 0003e6 6199          BCC $C$L35,AR1 != #0 ; |921| 
    1273                                                      ; branchcc occurs ; |921| 
TMS320C55x Assembler PC v4.4.1 Sat Sep 08 23:28:20 2018

Tools Copyright (c) 1996-2012 Texas Instruments Incorporated
queue.asm                                                            PAGE   29

    1274 0003e8       $C$DW$L$_xQueueGenericReceive$33$E:
    1275 0003e8       $C$DW$L$_xQueueGenericReceive$34$B:
    1276 0003e8 20     nop
    1277 0003e9 46B2   bclr INTM
    1278 0003eb       $C$DW$L$_xQueueGenericReceive$34$E:
    1279 0003eb       $C$L35:    
    1280 0003eb       $C$DW$L$_xQueueGenericReceive$35$B:
    1281                      .dwpsn  file "../FreeRTOS/Source/queue.c",line 924,column 3,is_stmt
    1282 0003eb EC0E          AMAR *SP(#7), XAR0
         0003ed 8E   
    1283 0003ee EC08          AMAR *SP(#4), XAR1
         0003f0 9E   
    1284              $C$DW$124       .dwtag  DW_TAG_TI_branch
    1285                      .dwattr $C$DW$124, DW_AT_low_pc(0x00)
    1286                      .dwattr $C$DW$124, DW_AT_name("_xTaskCheckForTimeOut")
    1287                      .dwattr $C$DW$124, DW_AT_TI_call
    1288 0003f1 6C00          CALL #_xTaskCheckForTimeOut ; |924| 
         0003f3 0000!
    1289                                                      ; call occurs [#_xTaskCheckForTimeOut] ; |924| 
    1290 0003f5 0414          BCC $C$L37,T0 != #0 ; |924| 
         0003f7 37   
    1291                                                      ; branchcc occurs ; |924| 
    1292 0003f8       $C$DW$L$_xQueueGenericReceive$35$E:
    1293 0003f8       $C$DW$L$_xQueueGenericReceive$36$B:
    1294                      .dwpsn  file "../FreeRTOS/Source/queue.c",line 926,column 4,is_stmt
    1295 0003f8 ED00          MOV dbl(*SP(#0)), XAR0
         0003fa 8F   
    1296              $C$DW$125       .dwtag  DW_TAG_TI_branch
    1297                      .dwattr $C$DW$125, DW_AT_low_pc(0x00)
    1298                      .dwattr $C$DW$125, DW_AT_name("_prvIsQueueEmpty")
    1299                      .dwattr $C$DW$125, DW_AT_TI_call
    1300 0003fb 0802          CALL #_prvIsQueueEmpty ; |926| 
         0003fd F6   
    1301                                                      ; call occurs [#_prvIsQueueEmpty] ; |926| 
    1302 0003fe 0404          BCC $C$L36,T0 == #0 ; |926| 
         000400 21   
    1303                                                      ; branchcc occurs ; |926| 
    1304 000401       $C$DW$L$_xQueueGenericReceive$36$E:
    1305 000401       $C$DW$L$_xQueueGenericReceive$37$B:
    1306                      .dwpsn  file "../FreeRTOS/Source/queue.c",line 943,column 5,is_stmt
    1307 000401 ED00          MOV dbl(*SP(#0)), XAR0
         000403 8F   
    1308              
    1309                      AADD #18, AR0 ; |943| 
    1310 000404 8A08  ||      MOV *SP(#4), T0 ; |943| 
         000406 841C 
         000408 12   
    1311              
    1312              $C$DW$126       .dwtag  DW_TAG_TI_branch
    1313                      .dwattr $C$DW$126, DW_AT_low_pc(0x00)
    1314                      .dwattr $C$DW$126, DW_AT_name("_vTaskPlaceOnEventList")
    1315                      .dwattr $C$DW$126, DW_AT_TI_call
    1316 000409 6C00          CALL #_vTaskPlaceOnEventList ; |943| 
         00040b 0000!
    1317                                                      ; call occurs [#_vTaskPlaceOnEventList] ; |943| 
TMS320C55x Assembler PC v4.4.1 Sat Sep 08 23:28:20 2018

Tools Copyright (c) 1996-2012 Texas Instruments Incorporated
queue.asm                                                            PAGE   30

    1318                      .dwpsn  file "../FreeRTOS/Source/queue.c",line 944,column 5,is_stmt
    1319 00040d ED00          MOV dbl(*SP(#0)), XAR0
         00040f 8F   
    1320              $C$DW$127       .dwtag  DW_TAG_TI_branch
    1321                      .dwattr $C$DW$127, DW_AT_low_pc(0x00)
    1322                      .dwattr $C$DW$127, DW_AT_name("_prvUnlockQueue")
    1323                      .dwattr $C$DW$127, DW_AT_TI_call
    1324 000410 0802          CALL #_prvUnlockQueue ; |944| 
         000412 15   
    1325                                                      ; call occurs [#_prvUnlockQueue] ; |944| 
    1326                      .dwpsn  file "../FreeRTOS/Source/queue.c",line 945,column 5,is_stmt
    1327              $C$DW$128       .dwtag  DW_TAG_TI_branch
    1328                      .dwattr $C$DW$128, DW_AT_low_pc(0x00)
    1329                      .dwattr $C$DW$128, DW_AT_name("_xTaskResumeAll")
    1330                      .dwattr $C$DW$128, DW_AT_TI_call
    1331 000413 6C00          CALL #_xTaskResumeAll ; |945| 
         000415 0000!
    1332                                                      ; call occurs [#_xTaskResumeAll] ; |945| 
    1333 000417 6D14          BCC $C$L23,T0 != #0 ; |945| 
         000419 FE94 
    1334                                                      ; branchcc occurs ; |945| 
    1335 00041b       $C$DW$L$_xQueueGenericReceive$37$E:
    1336 00041b       $C$DW$L$_xQueueGenericReceive$38$B:
    1337                      .dwpsn  file "../FreeRTOS/Source/queue.c",line 947,column 6,is_stmt
    1338              $C$DW$129       .dwtag  DW_TAG_TI_branch
    1339                      .dwattr $C$DW$129, DW_AT_low_pc(0x00)
    1340                      .dwattr $C$DW$129, DW_AT_name("_vPortYield")
    1341                      .dwattr $C$DW$129, DW_AT_TI_call
    1342 00041b 6C00          CALL #_vPortYield ; |947| 
         00041d 0000!
    1343                                                      ; call occurs [#_vPortYield] ; |947| 
    1344                      .dwpsn  file "../FreeRTOS/Source/queue.c",line 949,column 4,is_stmt
    1345 00041f 06FE          B $C$L23  ; |949| 
         000421 8D   
    1346                                                      ; branch occurs ; |949| 
    1347 000422       $C$DW$L$_xQueueGenericReceive$38$E:
    1348 000422       $C$L36:    
    1349 000422       $C$DW$L$_xQueueGenericReceive$39$B:
    1350                      .dwpsn  file "../FreeRTOS/Source/queue.c",line 953,column 5,is_stmt
    1351 000422 ED00          MOV dbl(*SP(#0)), XAR0
         000424 8F   
    1352              $C$DW$130       .dwtag  DW_TAG_TI_branch
    1353                      .dwattr $C$DW$130, DW_AT_low_pc(0x00)
    1354                      .dwattr $C$DW$130, DW_AT_name("_prvUnlockQueue")
    1355                      .dwattr $C$DW$130, DW_AT_TI_call
    1356 000425 0802          CALL #_prvUnlockQueue ; |953| 
         000427 00   
    1357                                                      ; call occurs [#_prvUnlockQueue] ; |953| 
    1358                      .dwpsn  file "../FreeRTOS/Source/queue.c",line 954,column 5,is_stmt
    1359              $C$DW$131       .dwtag  DW_TAG_TI_branch
    1360                      .dwattr $C$DW$131, DW_AT_low_pc(0x00)
    1361                      .dwattr $C$DW$131, DW_AT_name("_xTaskResumeAll")
    1362                      .dwattr $C$DW$131, DW_AT_TI_call
    1363 000428 6C00          CALL #_xTaskResumeAll ; |954| 
         00042a 0000!
TMS320C55x Assembler PC v4.4.1 Sat Sep 08 23:28:20 2018

Tools Copyright (c) 1996-2012 Texas Instruments Incorporated
queue.asm                                                            PAGE   31

    1364                                                      ; call occurs [#_xTaskResumeAll] ; |954| 
    1365                      .dwpsn  file "../FreeRTOS/Source/queue.c",line 956,column 3,is_stmt
    1366 00042c 06FE          B $C$L23  ; |956| 
         00042e 80   
    1367                                                      ; branch occurs ; |956| 
    1368 00042f       $C$DW$L$_xQueueGenericReceive$39$E:
    1369 00042f       $C$L37:    
    1370                      .dwpsn  file "../FreeRTOS/Source/queue.c",line 959,column 4,is_stmt
    1371 00042f ED00          MOV dbl(*SP(#0)), XAR0
         000431 8F   
    1372              $C$DW$132       .dwtag  DW_TAG_TI_branch
    1373                      .dwattr $C$DW$132, DW_AT_low_pc(0x00)
    1374                      .dwattr $C$DW$132, DW_AT_name("_prvUnlockQueue")
    1375                      .dwattr $C$DW$132, DW_AT_TI_call
    1376 000432 0801          CALL #_prvUnlockQueue ; |959| 
         000434 F3   
    1377                                                      ; call occurs [#_prvUnlockQueue] ; |959| 
    1378                      .dwpsn  file "../FreeRTOS/Source/queue.c",line 960,column 4,is_stmt
    1379              $C$DW$133       .dwtag  DW_TAG_TI_branch
    1380                      .dwattr $C$DW$133, DW_AT_low_pc(0x00)
    1381                      .dwattr $C$DW$133, DW_AT_name("_xTaskResumeAll")
    1382                      .dwattr $C$DW$133, DW_AT_TI_call
    1383 000435 6C00          CALL #_xTaskResumeAll ; |960| 
         000437 0000!
    1384                                                      ; call occurs [#_xTaskResumeAll] ; |960| 
    1385                      .dwpsn  file "../FreeRTOS/Source/queue.c",line 962,column 4,is_stmt
    1386 000439 3C04          MOV #0, T0
    1387 00043b 4A00          B $C$L38  ; |962| 
    1388                                                      ; branch occurs ; |962| 
    1389 00043d       $C$L38:    
    1390                      .dwpsn  file "../FreeRTOS/Source/queue.c",line 965,column 1,is_stmt
    1391 00043d 4E0D          AADD #13, SP
    1392                      .dwcfi  cfa_offset, 1
    1393              $C$DW$134       .dwtag  DW_TAG_TI_branch
    1394                      .dwattr $C$DW$134, DW_AT_low_pc(0x00)
    1395                      .dwattr $C$DW$134, DW_AT_TI_return
    1396 00043f 4804          RET
    1397                                                      ; return occurs
    1398              
    1399              $C$DW$135       .dwtag  DW_TAG_TI_loop
    1400                      .dwattr $C$DW$135, DW_AT_name("F:\eZdsp_C55x_FreeRTOS_Port\VerifiedOKInDbg\eZDSP_5535_Files\ccsws2\te
    1401                      .dwattr $C$DW$135, DW_AT_TI_begin_file("../FreeRTOS/Source/queue.c")
    1402                      .dwattr $C$DW$135, DW_AT_TI_begin_line(0x33f)
    1403                      .dwattr $C$DW$135, DW_AT_TI_end_line(0x3c4)
    1404              $C$DW$136       .dwtag  DW_TAG_TI_loop_range
    1405                      .dwattr $C$DW$136, DW_AT_low_pc($C$DW$L$_xQueueGenericReceive$2$B)
    1406                      .dwattr $C$DW$136, DW_AT_high_pc($C$DW$L$_xQueueGenericReceive$2$E)
    1407              $C$DW$137       .dwtag  DW_TAG_TI_loop_range
    1408                      .dwattr $C$DW$137, DW_AT_low_pc($C$DW$L$_xQueueGenericReceive$17$B)
    1409                      .dwattr $C$DW$137, DW_AT_high_pc($C$DW$L$_xQueueGenericReceive$17$E)
    1410              $C$DW$138       .dwtag  DW_TAG_TI_loop_range
    1411                      .dwattr $C$DW$138, DW_AT_low_pc($C$DW$L$_xQueueGenericReceive$23$B)
    1412                      .dwattr $C$DW$138, DW_AT_high_pc($C$DW$L$_xQueueGenericReceive$23$E)
    1413              $C$DW$139       .dwtag  DW_TAG_TI_loop_range
    1414                      .dwattr $C$DW$139, DW_AT_low_pc($C$DW$L$_xQueueGenericReceive$24$B)
TMS320C55x Assembler PC v4.4.1 Sat Sep 08 23:28:20 2018

Tools Copyright (c) 1996-2012 Texas Instruments Incorporated
queue.asm                                                            PAGE   32

    1415                      .dwattr $C$DW$139, DW_AT_high_pc($C$DW$L$_xQueueGenericReceive$24$E)
    1416              $C$DW$140       .dwtag  DW_TAG_TI_loop_range
    1417                      .dwattr $C$DW$140, DW_AT_low_pc($C$DW$L$_xQueueGenericReceive$25$B)
    1418                      .dwattr $C$DW$140, DW_AT_high_pc($C$DW$L$_xQueueGenericReceive$25$E)
    1419              $C$DW$141       .dwtag  DW_TAG_TI_loop_range
    1420                      .dwattr $C$DW$141, DW_AT_low_pc($C$DW$L$_xQueueGenericReceive$26$B)
    1421                      .dwattr $C$DW$141, DW_AT_high_pc($C$DW$L$_xQueueGenericReceive$26$E)
    1422              $C$DW$142       .dwtag  DW_TAG_TI_loop_range
    1423                      .dwattr $C$DW$142, DW_AT_low_pc($C$DW$L$_xQueueGenericReceive$27$B)
    1424                      .dwattr $C$DW$142, DW_AT_high_pc($C$DW$L$_xQueueGenericReceive$27$E)
    1425              $C$DW$143       .dwtag  DW_TAG_TI_loop_range
    1426                      .dwattr $C$DW$143, DW_AT_low_pc($C$DW$L$_xQueueGenericReceive$28$B)
    1427                      .dwattr $C$DW$143, DW_AT_high_pc($C$DW$L$_xQueueGenericReceive$28$E)
    1428              $C$DW$144       .dwtag  DW_TAG_TI_loop_range
    1429                      .dwattr $C$DW$144, DW_AT_low_pc($C$DW$L$_xQueueGenericReceive$29$B)
    1430                      .dwattr $C$DW$144, DW_AT_high_pc($C$DW$L$_xQueueGenericReceive$29$E)
    1431              $C$DW$145       .dwtag  DW_TAG_TI_loop_range
    1432                      .dwattr $C$DW$145, DW_AT_low_pc($C$DW$L$_xQueueGenericReceive$30$B)
    1433                      .dwattr $C$DW$145, DW_AT_high_pc($C$DW$L$_xQueueGenericReceive$30$E)
    1434              $C$DW$146       .dwtag  DW_TAG_TI_loop_range
    1435                      .dwattr $C$DW$146, DW_AT_low_pc($C$DW$L$_xQueueGenericReceive$31$B)
    1436                      .dwattr $C$DW$146, DW_AT_high_pc($C$DW$L$_xQueueGenericReceive$31$E)
    1437              $C$DW$147       .dwtag  DW_TAG_TI_loop_range
    1438                      .dwattr $C$DW$147, DW_AT_low_pc($C$DW$L$_xQueueGenericReceive$32$B)
    1439                      .dwattr $C$DW$147, DW_AT_high_pc($C$DW$L$_xQueueGenericReceive$32$E)
    1440              $C$DW$148       .dwtag  DW_TAG_TI_loop_range
    1441                      .dwattr $C$DW$148, DW_AT_low_pc($C$DW$L$_xQueueGenericReceive$33$B)
    1442                      .dwattr $C$DW$148, DW_AT_high_pc($C$DW$L$_xQueueGenericReceive$33$E)
    1443              $C$DW$149       .dwtag  DW_TAG_TI_loop_range
    1444                      .dwattr $C$DW$149, DW_AT_low_pc($C$DW$L$_xQueueGenericReceive$34$B)
    1445                      .dwattr $C$DW$149, DW_AT_high_pc($C$DW$L$_xQueueGenericReceive$34$E)
    1446              $C$DW$150       .dwtag  DW_TAG_TI_loop_range
    1447                      .dwattr $C$DW$150, DW_AT_low_pc($C$DW$L$_xQueueGenericReceive$35$B)
    1448                      .dwattr $C$DW$150, DW_AT_high_pc($C$DW$L$_xQueueGenericReceive$35$E)
    1449              $C$DW$151       .dwtag  DW_TAG_TI_loop_range
    1450                      .dwattr $C$DW$151, DW_AT_low_pc($C$DW$L$_xQueueGenericReceive$36$B)
    1451                      .dwattr $C$DW$151, DW_AT_high_pc($C$DW$L$_xQueueGenericReceive$36$E)
    1452              $C$DW$152       .dwtag  DW_TAG_TI_loop_range
    1453                      .dwattr $C$DW$152, DW_AT_low_pc($C$DW$L$_xQueueGenericReceive$39$B)
    1454                      .dwattr $C$DW$152, DW_AT_high_pc($C$DW$L$_xQueueGenericReceive$39$E)
    1455              $C$DW$153       .dwtag  DW_TAG_TI_loop_range
    1456                      .dwattr $C$DW$153, DW_AT_low_pc($C$DW$L$_xQueueGenericReceive$38$B)
    1457                      .dwattr $C$DW$153, DW_AT_high_pc($C$DW$L$_xQueueGenericReceive$38$E)
    1458              $C$DW$154       .dwtag  DW_TAG_TI_loop_range
    1459                      .dwattr $C$DW$154, DW_AT_low_pc($C$DW$L$_xQueueGenericReceive$37$B)
    1460                      .dwattr $C$DW$154, DW_AT_high_pc($C$DW$L$_xQueueGenericReceive$37$E)
    1461                      .dwendtag $C$DW$135
    1462              
    1463                      .dwattr $C$DW$105, DW_AT_TI_end_file("../FreeRTOS/Source/queue.c")
    1464                      .dwattr $C$DW$105, DW_AT_TI_end_line(0x3c5)
    1465                      .dwattr $C$DW$105, DW_AT_TI_end_column(0x01)
    1466                      .dwendentry
    1467                      .dwendtag $C$DW$105
    1468              
    1469 000441               .sect   ".text"
TMS320C55x Assembler PC v4.4.1 Sat Sep 08 23:28:20 2018

Tools Copyright (c) 1996-2012 Texas Instruments Incorporated
queue.asm                                                            PAGE   33

    1470                      .align 4
    1471                      .global _xQueueReceiveFromISR
    1472              
    1473              $C$DW$155       .dwtag  DW_TAG_subprogram, DW_AT_name("xQueueReceiveFromISR")
    1474                      .dwattr $C$DW$155, DW_AT_low_pc(_xQueueReceiveFromISR)
    1475                      .dwattr $C$DW$155, DW_AT_high_pc(0x00)
    1476                      .dwattr $C$DW$155, DW_AT_TI_symbol_name("_xQueueReceiveFromISR")
    1477                      .dwattr $C$DW$155, DW_AT_external
    1478                      .dwattr $C$DW$155, DW_AT_type(*$C$DW$T$10)
    1479                      .dwattr $C$DW$155, DW_AT_TI_begin_file("../FreeRTOS/Source/queue.c")
    1480                      .dwattr $C$DW$155, DW_AT_TI_begin_line(0x3c8)
    1481                      .dwattr $C$DW$155, DW_AT_TI_begin_column(0x16)
    1482                      .dwattr $C$DW$155, DW_AT_TI_max_frame_size(0x0a)
    1483                      .dwpsn  file "../FreeRTOS/Source/queue.c",line 969,column 1,is_stmt,address _xQueueReceiveFromISR
    1484              
    1485                      .dwfde $C$DW$CIE, _xQueueReceiveFromISR
    1486              $C$DW$156       .dwtag  DW_TAG_formal_parameter, DW_AT_name("pxQueue")
    1487                      .dwattr $C$DW$156, DW_AT_TI_symbol_name("_pxQueue")
    1488                      .dwattr $C$DW$156, DW_AT_type(*$C$DW$T$38)
    1489                      .dwattr $C$DW$156, DW_AT_location[DW_OP_reg17]
    1490              $C$DW$157       .dwtag  DW_TAG_formal_parameter, DW_AT_name("pvBuffer")
    1491                      .dwattr $C$DW$157, DW_AT_TI_symbol_name("_pvBuffer")
    1492                      .dwattr $C$DW$157, DW_AT_type(*$C$DW$T$47)
    1493                      .dwattr $C$DW$157, DW_AT_location[DW_OP_reg19]
    1494              $C$DW$158       .dwtag  DW_TAG_formal_parameter, DW_AT_name("pxTaskWoken")
    1495                      .dwattr $C$DW$158, DW_AT_TI_symbol_name("_pxTaskWoken")
    1496                      .dwattr $C$DW$158, DW_AT_type(*$C$DW$T$85)
    1497                      .dwattr $C$DW$158, DW_AT_location[DW_OP_reg21]
    1498              ;*******************************************************************************
    1499              ;* FUNCTION NAME: xQueueReceiveFromISR                                         *
    1500              ;*                                                                             *
    1501              ;*   Function Uses Regs : T0,AR0,XAR0,AR1,XAR1,AR2,XAR2,AR3,XAR3,SP,CARRY,TC1, *
    1502              ;*                        M40,SATA,SATD,RDM,FRCT,SMUL                          *
    1503              ;*   Stack Frame        : Compact (No Frame Pointer, w/ debug)                 *
    1504              ;*   Total Frame Size   : 10 words                                             *
    1505              ;*                        (2 return address/alignment)                         *
    1506              ;*                        (8 local values)                                     *
    1507              ;*   Min System Stack   : 1 word                                               *
    1508              ;*******************************************************************************
    1509 000444       _xQueueReceiveFromISR:
    1510                      .dwcfi  cfa_offset, 1
    1511                      .dwcfi  save_reg_to_mem, 91, -1
    1512 000444 4EF7          AADD #-9, SP
    1513                      .dwcfi  cfa_offset, 10
    1514              $C$DW$159       .dwtag  DW_TAG_variable, DW_AT_name("pxQueue")
    1515                      .dwattr $C$DW$159, DW_AT_TI_symbol_name("_pxQueue")
    1516                      .dwattr $C$DW$159, DW_AT_type(*$C$DW$T$38)
    1517                      .dwattr $C$DW$159, DW_AT_location[DW_OP_bregx 0x24 0]
    1518              $C$DW$160       .dwtag  DW_TAG_variable, DW_AT_name("pvBuffer")
    1519                      .dwattr $C$DW$160, DW_AT_TI_symbol_name("_pvBuffer")
    1520                      .dwattr $C$DW$160, DW_AT_type(*$C$DW$T$47)
    1521                      .dwattr $C$DW$160, DW_AT_location[DW_OP_bregx 0x24 2]
    1522              $C$DW$161       .dwtag  DW_TAG_variable, DW_AT_name("pxTaskWoken")
    1523                      .dwattr $C$DW$161, DW_AT_TI_symbol_name("_pxTaskWoken")
    1524                      .dwattr $C$DW$161, DW_AT_type(*$C$DW$T$85)
TMS320C55x Assembler PC v4.4.1 Sat Sep 08 23:28:20 2018

Tools Copyright (c) 1996-2012 Texas Instruments Incorporated
queue.asm                                                            PAGE   34

    1525                      .dwattr $C$DW$161, DW_AT_location[DW_OP_bregx 0x24 4]
    1526              $C$DW$162       .dwtag  DW_TAG_variable, DW_AT_name("xReturn")
    1527                      .dwattr $C$DW$162, DW_AT_TI_symbol_name("_xReturn")
    1528                      .dwattr $C$DW$162, DW_AT_type(*$C$DW$T$10)
    1529                      .dwattr $C$DW$162, DW_AT_location[DW_OP_bregx 0x24 6]
    1530              $C$DW$163       .dwtag  DW_TAG_variable, DW_AT_name("uxSavedInterruptStatus")
    1531                      .dwattr $C$DW$163, DW_AT_TI_symbol_name("_uxSavedInterruptStatus")
    1532                      .dwattr $C$DW$163, DW_AT_type(*$C$DW$T$11)
    1533                      .dwattr $C$DW$163, DW_AT_location[DW_OP_bregx 0x24 7]
    1534 000446 EB08          MOV XAR2, dbl(*SP(#4))
         000448 A5   
    1535 000449 EB04          MOV XAR1, dbl(*SP(#2))
         00044b 95   
    1536 00044c EB00          MOV XAR0, dbl(*SP(#0))
         00044e 85   
    1537                      .dwpsn  file "../FreeRTOS/Source/queue.c",line 973,column 2,is_stmt
    1538 00044f E60E          MOV #0, *SP(#7) ; |973| 
         000451 00   
    1539                      .dwpsn  file "../FreeRTOS/Source/queue.c",line 976,column 3,is_stmt
    1540 000452 ED00          MOV dbl(*SP(#0)), XAR3
         000454 BF   
    1541 000455 A96D          MOV *AR3(#28), AR1 ; |976| 
         000457 001C 
    1542 000459 0409          BCC $C$L41,AR1 == #0 ; |976| 
         00045b 44   
    1543                                                      ; branchcc occurs ; |976| 
    1544                      .dwpsn  file "../FreeRTOS/Source/queue.c",line 980,column 4,is_stmt
    1545 00045c ED00          MOV dbl(*SP(#0)), XAR0
         00045e 8F   
    1546 00045f ED04          MOV dbl(*SP(#2)), XAR1
         000461 9F   
    1547              $C$DW$164       .dwtag  DW_TAG_TI_branch
    1548                      .dwattr $C$DW$164, DW_AT_low_pc(0x00)
    1549                      .dwattr $C$DW$164, DW_AT_name("_prvCopyDataFromQueue")
    1550                      .dwattr $C$DW$164, DW_AT_TI_call
    1551 000462 0801          CALL #_prvCopyDataFromQueue ; |980| 
         000464 67   
    1552                                                      ; call occurs [#_prvCopyDataFromQueue] ; |980| 
    1553                      .dwpsn  file "../FreeRTOS/Source/queue.c",line 981,column 4,is_stmt
    1554 000465 ED00          MOV dbl(*SP(#0)), XAR3
         000467 BF   
    1555 000468 F76D          SUB #1, *AR3(#28) ; |981| 
         00046a FFFF 
         00046c 001C 
    1556                      .dwpsn  file "../FreeRTOS/Source/queue.c",line 986,column 4,is_stmt
    1557 00046e ED00          MOV dbl(*SP(#0)), XAR3
         000470 BF   
    1558 000471 F06D          CMP *AR3(#31) == #-1, TC1 ; |986| 
         000473 FFFF 
         000475 001F 
    1559 000477 0474          BCC $C$L39,!TC1 ; |986| 
         000479 1B   
    1560                                                      ; branchcc occurs ; |986| 
    1561                      .dwpsn  file "../FreeRTOS/Source/queue.c",line 988,column 5,is_stmt
    1562 00047a A96D          MOV *AR3(#8), AR1 ; |988| 
TMS320C55x Assembler PC v4.4.1 Sat Sep 08 23:28:20 2018

Tools Copyright (c) 1996-2012 Texas Instruments Incorporated
queue.asm                                                            PAGE   35

         00047c 0008 
    1563 00047e 0409          BCC $C$L40,AR1 == #0 ; |988| 
         000480 1A   
    1564                                                      ; branchcc occurs ; |988| 
    1565                      .dwpsn  file "../FreeRTOS/Source/queue.c",line 990,column 6,is_stmt
    1566 000481 ED00          MOV dbl(*SP(#0)), XAR0
         000483 8F   
    1567 000484 1408          AADD #8, AR0 ; |990| 
         000486 84   
    1568              $C$DW$165       .dwtag  DW_TAG_TI_branch
    1569                      .dwattr $C$DW$165, DW_AT_low_pc(0x00)
    1570                      .dwattr $C$DW$165, DW_AT_name("_xTaskRemoveFromEventList")
    1571                      .dwattr $C$DW$165, DW_AT_TI_call
    1572 000487 6C00          CALL #_xTaskRemoveFromEventList ; |990| 
         000489 0000!
    1573                                                      ; call occurs [#_xTaskRemoveFromEventList] ; |990| 
    1574 00048b 6704          BCC $C$L40,T0 == #0 ; |990| 
    1575                                                      ; branchcc occurs ; |990| 
    1576                      .dwpsn  file "../FreeRTOS/Source/queue.c",line 994,column 7,is_stmt
    1577 00048d ED08          MOV dbl(*SP(#4)), XAR3
         00048f BF   
    1578 000490 E661          MOV #1, *AR3 ; |994| 
         000492 01   
    1579                      .dwpsn  file "../FreeRTOS/Source/queue.c",line 997,column 4,is_stmt
    1580 000493 4A06          B $C$L40  ; |997| 
    1581                                                      ; branch occurs ; |997| 
    1582 000495       $C$L39:    
    1583                      .dwpsn  file "../FreeRTOS/Source/queue.c",line 1002,column 5,is_stmt
    1584 000495 F76D          ADD #1, *AR3(#31) ; |1002| 
         000497 0001 
         000499 001F 
    1585 00049b       $C$L40:    
    1586                      .dwpsn  file "../FreeRTOS/Source/queue.c",line 1005,column 4,is_stmt
    1587 00049b E60C          MOV #1, *SP(#6) ; |1005| 
         00049d 01   
    1588                      .dwpsn  file "../FreeRTOS/Source/queue.c",line 1006,column 3,is_stmt
    1589 00049e 4A03          B $C$L42  ; |1006| 
    1590                                                      ; branch occurs ; |1006| 
    1591 0004a0       $C$L41:    
    1592                      .dwpsn  file "../FreeRTOS/Source/queue.c",line 1009,column 4,is_stmt
    1593 0004a0 E60C          MOV #0, *SP(#6) ; |1009| 
         0004a2 00   
    1594 0004a3       $C$L42:    
    1595                      .dwpsn  file "../FreeRTOS/Source/queue.c",line 1013,column 2,is_stmt
    1596                      .dwpsn  file "../FreeRTOS/Source/queue.c",line 1015,column 2,is_stmt
    1597 0004a3 A40C          MOV *SP(#6), T0 ; |1015| 
    1598                      .dwpsn  file "../FreeRTOS/Source/queue.c",line 1016,column 1,is_stmt
    1599 0004a5 4E09          AADD #9, SP
    1600                      .dwcfi  cfa_offset, 1
    1601              $C$DW$166       .dwtag  DW_TAG_TI_branch
    1602                      .dwattr $C$DW$166, DW_AT_low_pc(0x00)
    1603                      .dwattr $C$DW$166, DW_AT_TI_return
    1604 0004a7 4804          RET
    1605                                                      ; return occurs
    1606                      .dwattr $C$DW$155, DW_AT_TI_end_file("../FreeRTOS/Source/queue.c")
TMS320C55x Assembler PC v4.4.1 Sat Sep 08 23:28:20 2018

Tools Copyright (c) 1996-2012 Texas Instruments Incorporated
queue.asm                                                            PAGE   36

    1607                      .dwattr $C$DW$155, DW_AT_TI_end_line(0x3f8)
    1608                      .dwattr $C$DW$155, DW_AT_TI_end_column(0x01)
    1609                      .dwendentry
    1610                      .dwendtag $C$DW$155
    1611              
    1612 0004a9               .sect   ".text"
    1613                      .align 4
    1614                      .global _uxQueueMessagesWaiting
    1615              
    1616              $C$DW$167       .dwtag  DW_TAG_subprogram, DW_AT_name("uxQueueMessagesWaiting")
    1617                      .dwattr $C$DW$167, DW_AT_low_pc(_uxQueueMessagesWaiting)
    1618                      .dwattr $C$DW$167, DW_AT_high_pc(0x00)
    1619                      .dwattr $C$DW$167, DW_AT_TI_symbol_name("_uxQueueMessagesWaiting")
    1620                      .dwattr $C$DW$167, DW_AT_external
    1621                      .dwattr $C$DW$167, DW_AT_type(*$C$DW$T$11)
    1622                      .dwattr $C$DW$167, DW_AT_TI_begin_file("../FreeRTOS/Source/queue.c")
    1623                      .dwattr $C$DW$167, DW_AT_TI_begin_line(0x3fb)
    1624                      .dwattr $C$DW$167, DW_AT_TI_begin_column(0x18)
    1625                      .dwattr $C$DW$167, DW_AT_TI_max_frame_size(0x04)
    1626                      .dwpsn  file "../FreeRTOS/Source/queue.c",line 1020,column 1,is_stmt,address _uxQueueMessagesWaiting
    1627              
    1628                      .dwfde $C$DW$CIE, _uxQueueMessagesWaiting
    1629              $C$DW$168       .dwtag  DW_TAG_formal_parameter, DW_AT_name("pxQueue")
    1630                      .dwattr $C$DW$168, DW_AT_TI_symbol_name("_pxQueue")
    1631                      .dwattr $C$DW$168, DW_AT_type(*$C$DW$T$40)
    1632                      .dwattr $C$DW$168, DW_AT_location[DW_OP_reg17]
    1633              ;*******************************************************************************
    1634              ;* FUNCTION NAME: uxQueueMessagesWaiting                                       *
    1635              ;*                                                                             *
    1636              ;*   Function Uses Regs : T0,AR0,XAR0,AR1,AR3,XAR3,SP,CARRY,M40,SATA,SATD,RDM, *
    1637              ;*                        FRCT,SMUL                                            *
    1638              ;*   Stack Frame        : Compact (No Frame Pointer, w/ debug)                 *
    1639              ;*   Total Frame Size   : 4 words                                              *
    1640              ;*                        (1 return address/alignment)                         *
    1641              ;*                        (3 local values)                                     *
    1642              ;*   Min System Stack   : 1 word                                               *
    1643              ;*******************************************************************************
    1644 0004ac       _uxQueueMessagesWaiting:
    1645                      .dwcfi  cfa_offset, 1
    1646                      .dwcfi  save_reg_to_mem, 91, -1
    1647 0004ac 4EFD          AADD #-3, SP
    1648                      .dwcfi  cfa_offset, 4
    1649              $C$DW$169       .dwtag  DW_TAG_variable, DW_AT_name("pxQueue")
    1650                      .dwattr $C$DW$169, DW_AT_TI_symbol_name("_pxQueue")
    1651                      .dwattr $C$DW$169, DW_AT_type(*$C$DW$T$40)
    1652                      .dwattr $C$DW$169, DW_AT_location[DW_OP_bregx 0x24 0]
    1653              $C$DW$170       .dwtag  DW_TAG_variable, DW_AT_name("uxReturn")
    1654                      .dwattr $C$DW$170, DW_AT_TI_symbol_name("_uxReturn")
    1655                      .dwattr $C$DW$170, DW_AT_type(*$C$DW$T$11)
    1656                      .dwattr $C$DW$170, DW_AT_location[DW_OP_bregx 0x24 2]
    1657 0004ae EB00          MOV XAR0, dbl(*SP(#0))
         0004b0 85   
    1658                      .dwpsn  file "../FreeRTOS/Source/queue.c",line 1023,column 2,is_stmt
    1659 0004b1 20     nop
    1660 0004b2 46B3   bset INTM
TMS320C55x Assembler PC v4.4.1 Sat Sep 08 23:28:20 2018

Tools Copyright (c) 1996-2012 Texas Instruments Incorporated
queue.asm                                                            PAGE   37

    1661 0004b4 F731          ADD #1, *(#_usCriticalNesting) ; |1023| 
         0004b6 0001 
         0004b8 0000 
         0004ba 00!  
    1662 0004bb 20            NOP
    1663 0004bc 20            NOP
    1664                      .dwpsn  file "../FreeRTOS/Source/queue.c",line 1024,column 3,is_stmt
    1665 0004bd ED00          MOV dbl(*SP(#0)), XAR3
         0004bf BF   
    1666 0004c0 A96D          MOV *AR3(#28), AR1 ; |1024| 
         0004c2 001C 
    1667 0004c4 C904          MOV AR1, *SP(#2) ; |1024| 
    1668                      .dwpsn  file "../FreeRTOS/Source/queue.c",line 1025,column 2,is_stmt
    1669 0004c6 A931          MOV *(#_usCriticalNesting), AR1 ; |1025| 
         0004c8 0000 
         0004ca 00!  
    1670 0004cb 0409          BCC $C$L43,AR1 == #0 ; |1025| 
         0004cd 14   
    1671                                                      ; branchcc occurs ; |1025| 
    1672 0004ce F731          SUB #1, *(#_usCriticalNesting) ; |1025| 
         0004d0 FFFF 
         0004d2 0000 
         0004d4 00!  
    1673 0004d5 20            NOP
    1674 0004d6 20            NOP
    1675 0004d7 20            NOP
    1676 0004d8 A931          MOV *(#_usCriticalNesting), AR1 ; |1025| 
         0004da 0000 
         0004dc 00!  
    1677 0004dd 6199          BCC $C$L43,AR1 != #0 ; |1025| 
    1678                                                      ; branchcc occurs ; |1025| 
    1679 0004df 20     nop
    1680 0004e0 46B2   bclr INTM
    1681 0004e2       $C$L43:    
    1682                      .dwpsn  file "../FreeRTOS/Source/queue.c",line 1027,column 2,is_stmt
    1683 0004e2 A404          MOV *SP(#2), T0 ; |1027| 
    1684                      .dwpsn  file "../FreeRTOS/Source/queue.c",line 1028,column 1,is_stmt
    1685 0004e4 4E03          AADD #3, SP
    1686                      .dwcfi  cfa_offset, 1
    1687              $C$DW$171       .dwtag  DW_TAG_TI_branch
    1688                      .dwattr $C$DW$171, DW_AT_low_pc(0x00)
    1689                      .dwattr $C$DW$171, DW_AT_TI_return
    1690 0004e6 4804          RET
    1691                                                      ; return occurs
    1692                      .dwattr $C$DW$167, DW_AT_TI_end_file("../FreeRTOS/Source/queue.c")
    1693                      .dwattr $C$DW$167, DW_AT_TI_end_line(0x404)
    1694                      .dwattr $C$DW$167, DW_AT_TI_end_column(0x01)
    1695                      .dwendentry
    1696                      .dwendtag $C$DW$167
    1697              
    1698 0004e8               .sect   ".text"
    1699                      .align 4
    1700                      .global _uxQueueMessagesWaitingFromISR
    1701              
    1702              $C$DW$172       .dwtag  DW_TAG_subprogram, DW_AT_name("uxQueueMessagesWaitingFromISR")
TMS320C55x Assembler PC v4.4.1 Sat Sep 08 23:28:20 2018

Tools Copyright (c) 1996-2012 Texas Instruments Incorporated
queue.asm                                                            PAGE   38

    1703                      .dwattr $C$DW$172, DW_AT_low_pc(_uxQueueMessagesWaitingFromISR)
    1704                      .dwattr $C$DW$172, DW_AT_high_pc(0x00)
    1705                      .dwattr $C$DW$172, DW_AT_TI_symbol_name("_uxQueueMessagesWaitingFromISR")
    1706                      .dwattr $C$DW$172, DW_AT_external
    1707                      .dwattr $C$DW$172, DW_AT_type(*$C$DW$T$11)
    1708                      .dwattr $C$DW$172, DW_AT_TI_begin_file("../FreeRTOS/Source/queue.c")
    1709                      .dwattr $C$DW$172, DW_AT_TI_begin_line(0x407)
    1710                      .dwattr $C$DW$172, DW_AT_TI_begin_column(0x18)
    1711                      .dwattr $C$DW$172, DW_AT_TI_max_frame_size(0x04)
    1712                      .dwpsn  file "../FreeRTOS/Source/queue.c",line 1032,column 1,is_stmt,address _uxQueueMessagesWaitingF
    1713              
    1714                      .dwfde $C$DW$CIE, _uxQueueMessagesWaitingFromISR
    1715              $C$DW$173       .dwtag  DW_TAG_formal_parameter, DW_AT_name("pxQueue")
    1716                      .dwattr $C$DW$173, DW_AT_TI_symbol_name("_pxQueue")
    1717                      .dwattr $C$DW$173, DW_AT_type(*$C$DW$T$40)
    1718                      .dwattr $C$DW$173, DW_AT_location[DW_OP_reg17]
    1719              ;*******************************************************************************
    1720              ;* FUNCTION NAME: uxQueueMessagesWaitingFromISR                                *
    1721              ;*                                                                             *
    1722              ;*   Function Uses Regs : T0,AR0,XAR0,AR1,AR3,XAR3,SP,M40,SATA,SATD,RDM,FRCT,  *
    1723              ;*                        SMUL                                                 *
    1724              ;*   Stack Frame        : Compact (No Frame Pointer, w/ debug)                 *
    1725              ;*   Total Frame Size   : 4 words                                              *
    1726              ;*                        (1 return address/alignment)                         *
    1727              ;*                        (3 local values)                                     *
    1728              ;*   Min System Stack   : 1 word                                               *
    1729              ;*******************************************************************************
    1730 0004e8       _uxQueueMessagesWaitingFromISR:
    1731                      .dwcfi  cfa_offset, 1
    1732                      .dwcfi  save_reg_to_mem, 91, -1
    1733 0004e8 4EFD          AADD #-3, SP
    1734                      .dwcfi  cfa_offset, 4
    1735              $C$DW$174       .dwtag  DW_TAG_variable, DW_AT_name("pxQueue")
    1736                      .dwattr $C$DW$174, DW_AT_TI_symbol_name("_pxQueue")
    1737                      .dwattr $C$DW$174, DW_AT_type(*$C$DW$T$40)
    1738                      .dwattr $C$DW$174, DW_AT_location[DW_OP_bregx 0x24 0]
    1739              $C$DW$175       .dwtag  DW_TAG_variable, DW_AT_name("uxReturn")
    1740                      .dwattr $C$DW$175, DW_AT_TI_symbol_name("_uxReturn")
    1741                      .dwattr $C$DW$175, DW_AT_type(*$C$DW$T$11)
    1742                      .dwattr $C$DW$175, DW_AT_location[DW_OP_bregx 0x24 2]
    1743 0004ea EB00          MOV XAR0, dbl(*SP(#0))
         0004ec 85   
    1744                      .dwpsn  file "../FreeRTOS/Source/queue.c",line 1035,column 2,is_stmt
    1745 0004ed ED00          MOV dbl(*SP(#0)), XAR3
         0004ef BF   
    1746 0004f0 A96D          MOV *AR3(#28), AR1 ; |1035| 
         0004f2 001C 
    1747 0004f4 C904          MOV AR1, *SP(#2) ; |1035| 
    1748                      .dwpsn  file "../FreeRTOS/Source/queue.c",line 1037,column 2,is_stmt
    1749 0004f6 2294          MOV AR1, T0
    1750                      .dwpsn  file "../FreeRTOS/Source/queue.c",line 1038,column 1,is_stmt
    1751 0004f8 4E03          AADD #3, SP
    1752                      .dwcfi  cfa_offset, 1
    1753              $C$DW$176       .dwtag  DW_TAG_TI_branch
    1754                      .dwattr $C$DW$176, DW_AT_low_pc(0x00)
TMS320C55x Assembler PC v4.4.1 Sat Sep 08 23:28:20 2018

Tools Copyright (c) 1996-2012 Texas Instruments Incorporated
queue.asm                                                            PAGE   39

    1755                      .dwattr $C$DW$176, DW_AT_TI_return
    1756 0004fa 4804          RET
    1757                                                      ; return occurs
    1758                      .dwattr $C$DW$172, DW_AT_TI_end_file("../FreeRTOS/Source/queue.c")
    1759                      .dwattr $C$DW$172, DW_AT_TI_end_line(0x40e)
    1760                      .dwattr $C$DW$172, DW_AT_TI_end_column(0x01)
    1761                      .dwendentry
    1762                      .dwendtag $C$DW$172
    1763              
    1764 0004fc               .sect   ".text"
    1765                      .align 4
    1766                      .global _vQueueDelete
    1767              
    1768              $C$DW$177       .dwtag  DW_TAG_subprogram, DW_AT_name("vQueueDelete")
    1769                      .dwattr $C$DW$177, DW_AT_low_pc(_vQueueDelete)
    1770                      .dwattr $C$DW$177, DW_AT_high_pc(0x00)
    1771                      .dwattr $C$DW$177, DW_AT_TI_symbol_name("_vQueueDelete")
    1772                      .dwattr $C$DW$177, DW_AT_external
    1773                      .dwattr $C$DW$177, DW_AT_TI_begin_file("../FreeRTOS/Source/queue.c")
    1774                      .dwattr $C$DW$177, DW_AT_TI_begin_line(0x411)
    1775                      .dwattr $C$DW$177, DW_AT_TI_begin_column(0x06)
    1776                      .dwattr $C$DW$177, DW_AT_TI_max_frame_size(0x04)
    1777                      .dwpsn  file "../FreeRTOS/Source/queue.c",line 1042,column 1,is_stmt,address _vQueueDelete
    1778              
    1779                      .dwfde $C$DW$CIE, _vQueueDelete
    1780              $C$DW$178       .dwtag  DW_TAG_formal_parameter, DW_AT_name("pxQueue")
    1781                      .dwattr $C$DW$178, DW_AT_TI_symbol_name("_pxQueue")
    1782                      .dwattr $C$DW$178, DW_AT_type(*$C$DW$T$38)
    1783                      .dwattr $C$DW$178, DW_AT_location[DW_OP_reg17]
    1784              ;*******************************************************************************
    1785              ;* FUNCTION NAME: vQueueDelete                                                 *
    1786              ;*                                                                             *
    1787              ;*   Function Uses Regs : AR0,XAR0,AR3,XAR3,SP,M40,SATA,SATD,RDM,FRCT,SMUL     *
    1788              ;*   Stack Frame        : Compact (No Frame Pointer, w/ debug)                 *
    1789              ;*   Total Frame Size   : 4 words                                              *
    1790              ;*                        (2 return address/alignment)                         *
    1791              ;*                        (2 local values)                                     *
    1792              ;*   Min System Stack   : 1 word                                               *
    1793              ;*******************************************************************************
    1794 0004fc       _vQueueDelete:
    1795                      .dwcfi  cfa_offset, 1
    1796                      .dwcfi  save_reg_to_mem, 91, -1
    1797 0004fc 4EFD          AADD #-3, SP
    1798                      .dwcfi  cfa_offset, 4
    1799              $C$DW$179       .dwtag  DW_TAG_variable, DW_AT_name("pxQueue")
    1800                      .dwattr $C$DW$179, DW_AT_TI_symbol_name("_pxQueue")
    1801                      .dwattr $C$DW$179, DW_AT_type(*$C$DW$T$38)
    1802                      .dwattr $C$DW$179, DW_AT_location[DW_OP_bregx 0x24 0]
    1803 0004fe EB00          MOV XAR0, dbl(*SP(#0))
         000500 85   
    1804                      .dwpsn  file "../FreeRTOS/Source/queue.c",line 1045,column 2,is_stmt
    1805 000501 ED00          MOV dbl(*SP(#0)), XAR3
         000503 BF   
    1806 000504 ED61          MOV dbl(*AR3), XAR0
         000506 8F   
TMS320C55x Assembler PC v4.4.1 Sat Sep 08 23:28:20 2018

Tools Copyright (c) 1996-2012 Texas Instruments Incorporated
queue.asm                                                            PAGE   40

    1807              $C$DW$180       .dwtag  DW_TAG_TI_branch
    1808                      .dwattr $C$DW$180, DW_AT_low_pc(0x00)
    1809                      .dwattr $C$DW$180, DW_AT_name("_vPortFree")
    1810                      .dwattr $C$DW$180, DW_AT_TI_call
    1811 000507 6C00          CALL #_vPortFree ; |1045| 
         000509 0000!
    1812                                                      ; call occurs [#_vPortFree] ; |1045| 
    1813                      .dwpsn  file "../FreeRTOS/Source/queue.c",line 1046,column 2,is_stmt
    1814 00050b ED00          MOV dbl(*SP(#0)), XAR0
         00050d 8F   
    1815              $C$DW$181       .dwtag  DW_TAG_TI_branch
    1816                      .dwattr $C$DW$181, DW_AT_low_pc(0x00)
    1817                      .dwattr $C$DW$181, DW_AT_name("_vPortFree")
    1818                      .dwattr $C$DW$181, DW_AT_TI_call
    1819 00050e 6C00          CALL #_vPortFree ; |1046| 
         000510 0000!
    1820                                                      ; call occurs [#_vPortFree] ; |1046| 
    1821                      .dwpsn  file "../FreeRTOS/Source/queue.c",line 1047,column 1,is_stmt
    1822 000512 4E03          AADD #3, SP
    1823                      .dwcfi  cfa_offset, 1
    1824              $C$DW$182       .dwtag  DW_TAG_TI_branch
    1825                      .dwattr $C$DW$182, DW_AT_low_pc(0x00)
    1826                      .dwattr $C$DW$182, DW_AT_TI_return
    1827 000514 4804          RET
    1828                                                      ; return occurs
    1829                      .dwattr $C$DW$177, DW_AT_TI_end_file("../FreeRTOS/Source/queue.c")
    1830                      .dwattr $C$DW$177, DW_AT_TI_end_line(0x417)
    1831                      .dwattr $C$DW$177, DW_AT_TI_end_column(0x01)
    1832                      .dwendentry
    1833                      .dwendtag $C$DW$177
    1834              
    1835 000516               .sect   ".text"
    1836                      .align 4
    1837              
    1838              $C$DW$183       .dwtag  DW_TAG_subprogram, DW_AT_name("prvCopyDataToQueue")
    1839                      .dwattr $C$DW$183, DW_AT_low_pc(_prvCopyDataToQueue)
    1840                      .dwattr $C$DW$183, DW_AT_high_pc(0x00)
    1841                      .dwattr $C$DW$183, DW_AT_TI_symbol_name("_prvCopyDataToQueue")
    1842                      .dwattr $C$DW$183, DW_AT_TI_begin_file("../FreeRTOS/Source/queue.c")
    1843                      .dwattr $C$DW$183, DW_AT_TI_begin_line(0x41a)
    1844                      .dwattr $C$DW$183, DW_AT_TI_begin_column(0x0d)
    1845                      .dwattr $C$DW$183, DW_AT_TI_max_frame_size(0x06)
    1846                      .dwpsn  file "../FreeRTOS/Source/queue.c",line 1051,column 1,is_stmt,address _prvCopyDataToQueue
    1847              
    1848                      .dwfde $C$DW$CIE, _prvCopyDataToQueue
    1849              $C$DW$184       .dwtag  DW_TAG_formal_parameter, DW_AT_name("pxQueue")
    1850                      .dwattr $C$DW$184, DW_AT_TI_symbol_name("_pxQueue")
    1851                      .dwattr $C$DW$184, DW_AT_type(*$C$DW$T$36)
    1852                      .dwattr $C$DW$184, DW_AT_location[DW_OP_reg17]
    1853              $C$DW$185       .dwtag  DW_TAG_formal_parameter, DW_AT_name("pvItemToQueue")
    1854                      .dwattr $C$DW$185, DW_AT_TI_symbol_name("_pvItemToQueue")
    1855                      .dwattr $C$DW$185, DW_AT_type(*$C$DW$T$42)
    1856                      .dwattr $C$DW$185, DW_AT_location[DW_OP_reg19]
    1857              $C$DW$186       .dwtag  DW_TAG_formal_parameter, DW_AT_name("xPosition")
    1858                      .dwattr $C$DW$186, DW_AT_TI_symbol_name("_xPosition")
TMS320C55x Assembler PC v4.4.1 Sat Sep 08 23:28:20 2018

Tools Copyright (c) 1996-2012 Texas Instruments Incorporated
queue.asm                                                            PAGE   41

    1859                      .dwattr $C$DW$186, DW_AT_type(*$C$DW$T$10)
    1860                      .dwattr $C$DW$186, DW_AT_location[DW_OP_reg12]
    1861              ;*******************************************************************************
    1862              ;* FUNCTION NAME: prvCopyDataToQueue                                           *
    1863              ;*                                                                             *
    1864              ;*   Function Uses Regs : AC0,AC0,AC1,AC1,T0,AR0,XAR0,AR1,XAR1,AR2,XAR2,AR3,   *
    1865              ;*                        XAR3,SP,CARRY,TC1,M40,SATA,SATD,RDM,FRCT,SMUL        *
    1866              ;*   Stack Frame        : Compact (No Frame Pointer, w/ debug)                 *
    1867              ;*   Total Frame Size   : 6 words                                              *
    1868              ;*                        (1 return address/alignment)                         *
    1869              ;*                        (5 local values)                                     *
    1870              ;*   Min System Stack   : 1 word                                               *
    1871              ;*******************************************************************************
    1872 000518       _prvCopyDataToQueue:
    1873                      .dwcfi  cfa_offset, 1
    1874                      .dwcfi  save_reg_to_mem, 91, -1
    1875 000518 4EFB          AADD #-5, SP
    1876                      .dwcfi  cfa_offset, 6
    1877              $C$DW$187       .dwtag  DW_TAG_variable, DW_AT_name("pxQueue")
    1878                      .dwattr $C$DW$187, DW_AT_TI_symbol_name("_pxQueue")
    1879                      .dwattr $C$DW$187, DW_AT_type(*$C$DW$T$36)
    1880                      .dwattr $C$DW$187, DW_AT_location[DW_OP_bregx 0x24 0]
    1881              $C$DW$188       .dwtag  DW_TAG_variable, DW_AT_name("pvItemToQueue")
    1882                      .dwattr $C$DW$188, DW_AT_TI_symbol_name("_pvItemToQueue")
    1883                      .dwattr $C$DW$188, DW_AT_type(*$C$DW$T$42)
    1884                      .dwattr $C$DW$188, DW_AT_location[DW_OP_bregx 0x24 2]
    1885              $C$DW$189       .dwtag  DW_TAG_variable, DW_AT_name("xPosition")
    1886                      .dwattr $C$DW$189, DW_AT_TI_symbol_name("_xPosition")
    1887                      .dwattr $C$DW$189, DW_AT_type(*$C$DW$T$10)
    1888                      .dwattr $C$DW$189, DW_AT_location[DW_OP_bregx 0x24 4]
    1889 00051a C408          MOV T0, *SP(#4) ; |1051| 
    1890 00051c EB04          MOV XAR1, dbl(*SP(#2))
         00051e 95   
    1891 00051f EB00          MOV XAR0, dbl(*SP(#0))
         000521 85   
    1892                      .dwpsn  file "../FreeRTOS/Source/queue.c",line 1052,column 2,is_stmt
    1893 000522 ED00          MOV dbl(*SP(#0)), XAR3
         000524 BF   
    1894 000525 A96D          MOV *AR3(#30), AR1 ; |1052| 
         000527 001E 
    1895 000529 6D09          BCC $C$L45,AR1 == #0 ; |1052| 
         00052b 0092 
    1896                                                      ; branchcc occurs ; |1052| 
    1897                      .dwpsn  file "../FreeRTOS/Source/queue.c",line 1064,column 2,is_stmt
    1898                      .dwpsn  file "../FreeRTOS/Source/queue.c",line 1065,column 7,is_stmt
    1899 00052d A908          MOV *SP(#4), AR1 ; |1065| 
    1900 00052f 0419          BCC $C$L44,AR1 != #0 ; |1065| 
         000531 43   
    1901                                                      ; branchcc occurs ; |1065| 
    1902                      .dwpsn  file "../FreeRTOS/Source/queue.c",line 1067,column 3,is_stmt
    1903 000532 ED79          MOV dbl(*AR3(short(#4))), XAR0
         000534 8F   
    1904 000535 A46D          MOV *AR3(#30), T0 ; |1067| 
         000537 001E 
    1905 000539 ED04          MOV dbl(*SP(#2)), XAR1
TMS320C55x Assembler PC v4.4.1 Sat Sep 08 23:28:20 2018

Tools Copyright (c) 1996-2012 Texas Instruments Incorporated
queue.asm                                                            PAGE   42

         00053b 9F   
    1906              $C$DW$190       .dwtag  DW_TAG_TI_branch
    1907                      .dwattr $C$DW$190, DW_AT_low_pc(0x00)
    1908                      .dwattr $C$DW$190, DW_AT_name("_memcpy")
    1909                      .dwattr $C$DW$190, DW_AT_TI_call
    1910 00053c 6C00          CALL #_memcpy ; |1067| 
         00053e 0000!
    1911                                                      ; call occurs [#_memcpy] ; |1067| 
    1912                      .dwpsn  file "../FreeRTOS/Source/queue.c",line 1068,column 3,is_stmt
    1913 000540 ED00          MOV dbl(*SP(#0)), XAR3
         000542 BF   
    1914 000543 ED00          MOV dbl(*SP(#0)), XAR2
         000545 AF   
    1915 000546 A96D          MOV *AR3(#30), AR1 ; |1068| 
         000548 001E 
    1916 00054a ED59          MOV dbl(*AR2(short(#4))), XAR3
         00054c BF   
    1917              
    1918 00054d 8E59          MOV XAR3, dbl(*AR2(short(#4)))
         00054f BB10 
         000551 B590 
    1919              ||      AADD AR1, AR3 ; |1068| 
    1920              
    1921                      .dwpsn  file "../FreeRTOS/Source/queue.c",line 1069,column 3,is_stmt
    1922 000553 ED00          MOV dbl(*SP(#0)), XAR3
         000555 BF   
    1923 000556 ED75          MOV dbl(*AR3(short(#2))), XAR3
         000558 BF   
    1924 000559 90B0          MOV XAR3, AC0
    1925 00055b ED00          MOV dbl(*SP(#0)), XAR3
         00055d BF   
    1926 00055e ED79          MOV dbl(*AR3(short(#4))), XAR3
         000560 BF   
    1927 000561 90B1          MOV XAR3, AC1
    1928 000563 1214          CMPU AC1 < AC0, TC1 ; |1069| 
         000565 04   
    1929 000566 0464          BCC $C$L45,TC1 ; |1069| 
         000568 56   
    1930                                                      ; branchcc occurs ; |1069| 
    1931                      .dwpsn  file "../FreeRTOS/Source/queue.c",line 1071,column 4,is_stmt
    1932 000569 ED00          MOV dbl(*SP(#0)), XAR3
         00056b BF   
    1933 00056c ED61          MOV dbl(*AR3), XAR2
         00056e AF   
    1934 00056f EB79          MOV XAR2, dbl(*AR3(short(#4)))
         000571 A5   
    1935                      .dwpsn  file "../FreeRTOS/Source/queue.c",line 1073,column 2,is_stmt
    1936 000572 0600          B $C$L45  ; |1073| 
         000574 4A   
    1937                                                      ; branch occurs ; |1073| 
    1938 000575       $C$L44:    
    1939                      .dwpsn  file "../FreeRTOS/Source/queue.c",line 1076,column 3,is_stmt
    1940 000575 ED7D          MOV dbl(*AR3(short(#6))), XAR0
         000577 8F   
    1941 000578 A46D          MOV *AR3(#30), T0 ; |1076| 
TMS320C55x Assembler PC v4.4.1 Sat Sep 08 23:28:20 2018

Tools Copyright (c) 1996-2012 Texas Instruments Incorporated
queue.asm                                                            PAGE   43

         00057a 001E 
    1942 00057c ED04          MOV dbl(*SP(#2)), XAR1
         00057e 9F   
    1943              $C$DW$191       .dwtag  DW_TAG_TI_branch
    1944                      .dwattr $C$DW$191, DW_AT_low_pc(0x00)
    1945                      .dwattr $C$DW$191, DW_AT_name("_memcpy")
    1946                      .dwattr $C$DW$191, DW_AT_TI_call
    1947 00057f 6C00          CALL #_memcpy ; |1076| 
         000581 0000!
    1948                                                      ; call occurs [#_memcpy] ; |1076| 
    1949                      .dwpsn  file "../FreeRTOS/Source/queue.c",line 1077,column 3,is_stmt
    1950 000583 ED00          MOV dbl(*SP(#0)), XAR3
         000585 BF   
    1951 000586 ED00          MOV dbl(*SP(#0)), XAR2
         000588 AF   
    1952 000589 A96D          MOV *AR3(#30), AR1 ; |1077| 
         00058b 001E 
    1953 00058d ED5D          MOV dbl(*AR2(short(#6))), XAR3
         00058f BF   
    1954              
    1955 000590 8E5D          MOV XAR3, dbl(*AR2(short(#6)))
         000592 BB12 
         000594 B590 
    1956              ||      ASUB AR1, AR3 ; |1077| 
    1957              
    1958                      .dwpsn  file "../FreeRTOS/Source/queue.c",line 1078,column 3,is_stmt
    1959 000596 ED00          MOV dbl(*SP(#0)), XAR3
         000598 BF   
    1960 000599 ED61          MOV dbl(*AR3), XAR3
         00059b BF   
    1961 00059c 90B0          MOV XAR3, AC0
    1962 00059e ED00          MOV dbl(*SP(#0)), XAR3
         0005a0 BF   
    1963 0005a1 ED7D          MOV dbl(*AR3(short(#6))), XAR3
         0005a3 BF   
    1964 0005a4 90B1          MOV XAR3, AC1
    1965 0005a6 1218          CMPU AC1 >= AC0, TC1 ; |1078| 
         0005a8 04   
    1966 0005a9 0464          BCC $C$L45,TC1 ; |1078| 
         0005ab 13   
    1967                                                      ; branchcc occurs ; |1078| 
    1968                      .dwpsn  file "../FreeRTOS/Source/queue.c",line 1080,column 4,is_stmt
    1969 0005ac ED00          MOV dbl(*SP(#0)), XAR3
         0005ae BF   
    1970 0005af ED00          MOV dbl(*SP(#0)), XAR2
         0005b1 AF   
    1971 0005b2 A96D          MOV *AR3(#30), AR1 ; |1080| 
         0005b4 001E 
    1972 0005b6 ED75          MOV dbl(*AR3(short(#2))), XAR3
         0005b8 BF   
    1973              
    1974 0005b9 8E5D          MOV XAR3, dbl(*AR2(short(#6)))
         0005bb BB12 
         0005bd B590 
    1975              ||      ASUB AR1, AR3 ; |1080| 
TMS320C55x Assembler PC v4.4.1 Sat Sep 08 23:28:20 2018

Tools Copyright (c) 1996-2012 Texas Instruments Incorporated
queue.asm                                                            PAGE   44

    1976              
    1977 0005bf       $C$L45:    
    1978                      .dwpsn  file "../FreeRTOS/Source/queue.c",line 1084,column 2,is_stmt
    1979 0005bf ED00          MOV dbl(*SP(#0)), XAR3
         0005c1 BF   
    1980 0005c2 F76D          ADD #1, *AR3(#28) ; |1084| 
         0005c4 0001 
         0005c6 001C 
    1981                      .dwpsn  file "../FreeRTOS/Source/queue.c",line 1085,column 1,is_stmt
    1982 0005c8 4E05          AADD #5, SP
    1983                      .dwcfi  cfa_offset, 1
    1984              $C$DW$192       .dwtag  DW_TAG_TI_branch
    1985                      .dwattr $C$DW$192, DW_AT_low_pc(0x00)
    1986                      .dwattr $C$DW$192, DW_AT_TI_return
    1987 0005ca 4804          RET
    1988                                                      ; return occurs
    1989                      .dwattr $C$DW$183, DW_AT_TI_end_file("../FreeRTOS/Source/queue.c")
    1990                      .dwattr $C$DW$183, DW_AT_TI_end_line(0x43d)
    1991                      .dwattr $C$DW$183, DW_AT_TI_end_column(0x01)
    1992                      .dwendentry
    1993                      .dwendtag $C$DW$183
    1994              
    1995 0005cc               .sect   ".text"
    1996                      .align 4
    1997              
    1998              $C$DW$193       .dwtag  DW_TAG_subprogram, DW_AT_name("prvCopyDataFromQueue")
    1999                      .dwattr $C$DW$193, DW_AT_low_pc(_prvCopyDataFromQueue)
    2000                      .dwattr $C$DW$193, DW_AT_high_pc(0x00)
    2001                      .dwattr $C$DW$193, DW_AT_TI_symbol_name("_prvCopyDataFromQueue")
    2002                      .dwattr $C$DW$193, DW_AT_TI_begin_file("../FreeRTOS/Source/queue.c")
    2003                      .dwattr $C$DW$193, DW_AT_TI_begin_line(0x440)
    2004                      .dwattr $C$DW$193, DW_AT_TI_begin_column(0x0d)
    2005                      .dwattr $C$DW$193, DW_AT_TI_max_frame_size(0x06)
    2006                      .dwpsn  file "../FreeRTOS/Source/queue.c",line 1089,column 1,is_stmt,address _prvCopyDataFromQueue
    2007              
    2008                      .dwfde $C$DW$CIE, _prvCopyDataFromQueue
    2009              $C$DW$194       .dwtag  DW_TAG_formal_parameter, DW_AT_name("pxQueue")
    2010                      .dwattr $C$DW$194, DW_AT_TI_symbol_name("_pxQueue")
    2011                      .dwattr $C$DW$194, DW_AT_type(*$C$DW$T$37)
    2012                      .dwattr $C$DW$194, DW_AT_location[DW_OP_reg17]
    2013              $C$DW$195       .dwtag  DW_TAG_formal_parameter, DW_AT_name("pvBuffer")
    2014                      .dwattr $C$DW$195, DW_AT_TI_symbol_name("_pvBuffer")
    2015                      .dwattr $C$DW$195, DW_AT_type(*$C$DW$T$42)
    2016                      .dwattr $C$DW$195, DW_AT_location[DW_OP_reg19]
    2017              ;*******************************************************************************
    2018              ;* FUNCTION NAME: prvCopyDataFromQueue                                         *
    2019              ;*                                                                             *
    2020              ;*   Function Uses Regs : AC0,AC0,AC1,AC1,T0,AR0,XAR0,AR1,XAR1,AR2,XAR2,AR3,   *
    2021              ;*                        XAR3,SP,TC1,M40,SATA,SATD,RDM,FRCT,SMUL              *
    2022              ;*   Stack Frame        : Compact (No Frame Pointer, w/ debug)                 *
    2023              ;*   Total Frame Size   : 6 words                                              *
    2024              ;*                        (2 return address/alignment)                         *
    2025              ;*                        (4 local values)                                     *
    2026              ;*   Min System Stack   : 1 word                                               *
    2027              ;*******************************************************************************
TMS320C55x Assembler PC v4.4.1 Sat Sep 08 23:28:20 2018

Tools Copyright (c) 1996-2012 Texas Instruments Incorporated
queue.asm                                                            PAGE   45

    2028 0005cc       _prvCopyDataFromQueue:
    2029                      .dwcfi  cfa_offset, 1
    2030                      .dwcfi  save_reg_to_mem, 91, -1
    2031 0005cc 4EFB          AADD #-5, SP
    2032                      .dwcfi  cfa_offset, 6
    2033              $C$DW$196       .dwtag  DW_TAG_variable, DW_AT_name("pxQueue")
    2034                      .dwattr $C$DW$196, DW_AT_TI_symbol_name("_pxQueue")
    2035                      .dwattr $C$DW$196, DW_AT_type(*$C$DW$T$37)
    2036                      .dwattr $C$DW$196, DW_AT_location[DW_OP_bregx 0x24 0]
    2037              $C$DW$197       .dwtag  DW_TAG_variable, DW_AT_name("pvBuffer")
    2038                      .dwattr $C$DW$197, DW_AT_TI_symbol_name("_pvBuffer")
    2039                      .dwattr $C$DW$197, DW_AT_type(*$C$DW$T$42)
    2040                      .dwattr $C$DW$197, DW_AT_location[DW_OP_bregx 0x24 2]
    2041 0005ce EB04          MOV XAR1, dbl(*SP(#2))
         0005d0 95   
    2042 0005d1 EB00          MOV XAR0, dbl(*SP(#0))
         0005d3 85   
    2043                      .dwpsn  file "../FreeRTOS/Source/queue.c",line 1090,column 2,is_stmt
    2044 0005d4 ED00          MOV dbl(*SP(#0)), XAR3
         0005d6 BF   
    2045 0005d7 ED61          MOV dbl(*AR3), XAR3
         0005d9 BF   
    2046 0005da 90B0          MOV XAR3, AC0
    2047 0005dc 0400          BCC $C$L47,AC0 == #0 ; |1090| 
         0005de 42   
    2048                                                      ; branchcc occurs ; |1090| 
    2049                      .dwpsn  file "../FreeRTOS/Source/queue.c",line 1092,column 3,is_stmt
    2050 0005df ED00          MOV dbl(*SP(#0)), XAR3
         0005e1 BF   
    2051 0005e2 ED00          MOV dbl(*SP(#0)), XAR2
         0005e4 AF   
    2052 0005e5 A96D          MOV *AR3(#30), AR1 ; |1092| 
         0005e7 001E 
    2053 0005e9 ED5D          MOV dbl(*AR2(short(#6))), XAR3
         0005eb BF   
    2054              
    2055 0005ec 8E5D          MOV XAR3, dbl(*AR2(short(#6)))
         0005ee BB10 
         0005f0 B590 
    2056              ||      AADD AR1, AR3 ; |1092| 
    2057              
    2058                      .dwpsn  file "../FreeRTOS/Source/queue.c",line 1093,column 3,is_stmt
    2059 0005f2 ED00          MOV dbl(*SP(#0)), XAR3
         0005f4 BF   
    2060 0005f5 ED75          MOV dbl(*AR3(short(#2))), XAR3
         0005f7 BF   
    2061 0005f8 90B0          MOV XAR3, AC0
    2062 0005fa ED00          MOV dbl(*SP(#0)), XAR3
         0005fc BF   
    2063 0005fd ED7D          MOV dbl(*AR3(short(#6))), XAR3
         0005ff BF   
    2064 000600 90B1          MOV XAR3, AC1
    2065 000602 1214          CMPU AC1 < AC0, TC1 ; |1093| 
         000604 04   
    2066 000605 64E4          BCC $C$L46,TC1 ; |1093| 
TMS320C55x Assembler PC v4.4.1 Sat Sep 08 23:28:20 2018

Tools Copyright (c) 1996-2012 Texas Instruments Incorporated
queue.asm                                                            PAGE   46

    2067                                                      ; branchcc occurs ; |1093| 
    2068                      .dwpsn  file "../FreeRTOS/Source/queue.c",line 1095,column 4,is_stmt
    2069 000607 ED00          MOV dbl(*SP(#0)), XAR3
         000609 BF   
    2070 00060a ED61          MOV dbl(*AR3), XAR2
         00060c AF   
    2071 00060d EB7D          MOV XAR2, dbl(*AR3(short(#6)))
         00060f A5   
    2072 000610       $C$L46:    
    2073                      .dwpsn  file "../FreeRTOS/Source/queue.c",line 1097,column 3,is_stmt
    2074 000610 ED00          MOV dbl(*SP(#0)), XAR3
         000612 BF   
    2075 000613 ED04          MOV dbl(*SP(#2)), XAR0
         000615 8F   
    2076 000616 ED7D          MOV dbl(*AR3(short(#6))), XAR1
         000618 9F   
    2077 000619 A46D          MOV *AR3(#30), T0 ; |1097| 
         00061b 001E 
    2078              $C$DW$198       .dwtag  DW_TAG_TI_branch
    2079                      .dwattr $C$DW$198, DW_AT_low_pc(0x00)
    2080                      .dwattr $C$DW$198, DW_AT_name("_memcpy")
    2081                      .dwattr $C$DW$198, DW_AT_TI_call
    2082 00061d 6C00          CALL #_memcpy ; |1097| 
         00061f 0000!
    2083                                                      ; call occurs [#_memcpy] ; |1097| 
    2084                      .dwpsn  file "../FreeRTOS/Source/queue.c",line 1099,column 1,is_stmt
    2085 000621       $C$L47:    
    2086 000621 4E05          AADD #5, SP
    2087                      .dwcfi  cfa_offset, 1
    2088              $C$DW$199       .dwtag  DW_TAG_TI_branch
    2089                      .dwattr $C$DW$199, DW_AT_low_pc(0x00)
    2090                      .dwattr $C$DW$199, DW_AT_TI_return
    2091 000623 4804          RET
    2092                                                      ; return occurs
    2093                      .dwattr $C$DW$193, DW_AT_TI_end_file("../FreeRTOS/Source/queue.c")
    2094                      .dwattr $C$DW$193, DW_AT_TI_end_line(0x44b)
    2095                      .dwattr $C$DW$193, DW_AT_TI_end_column(0x01)
    2096                      .dwendentry
    2097                      .dwendtag $C$DW$193
    2098              
    2099 000625               .sect   ".text"
    2100                      .align 4
    2101              
    2102              $C$DW$200       .dwtag  DW_TAG_subprogram, DW_AT_name("prvUnlockQueue")
    2103                      .dwattr $C$DW$200, DW_AT_low_pc(_prvUnlockQueue)
    2104                      .dwattr $C$DW$200, DW_AT_high_pc(0x00)
    2105                      .dwattr $C$DW$200, DW_AT_TI_symbol_name("_prvUnlockQueue")
    2106                      .dwattr $C$DW$200, DW_AT_TI_begin_file("../FreeRTOS/Source/queue.c")
    2107                      .dwattr $C$DW$200, DW_AT_TI_begin_line(0x44e)
    2108                      .dwattr $C$DW$200, DW_AT_TI_begin_column(0x0d)
    2109                      .dwattr $C$DW$200, DW_AT_TI_max_frame_size(0x04)
    2110                      .dwpsn  file "../FreeRTOS/Source/queue.c",line 1103,column 1,is_stmt,address _prvUnlockQueue
    2111              
    2112                      .dwfde $C$DW$CIE, _prvUnlockQueue
    2113              $C$DW$201       .dwtag  DW_TAG_formal_parameter, DW_AT_name("pxQueue")
TMS320C55x Assembler PC v4.4.1 Sat Sep 08 23:28:20 2018

Tools Copyright (c) 1996-2012 Texas Instruments Incorporated
queue.asm                                                            PAGE   47

    2114                      .dwattr $C$DW$201, DW_AT_TI_symbol_name("_pxQueue")
    2115                      .dwattr $C$DW$201, DW_AT_type(*$C$DW$T$38)
    2116                      .dwattr $C$DW$201, DW_AT_location[DW_OP_reg17]
    2117              ;*******************************************************************************
    2118              ;* FUNCTION NAME: prvUnlockQueue                                               *
    2119              ;*                                                                             *
    2120              ;*   Function Uses Regs : T0,AR0,XAR0,AR1,AR3,XAR3,SP,CARRY,M40,SATA,SATD,RDM, *
    2121              ;*                        FRCT,SMUL                                            *
    2122              ;*   Stack Frame        : Compact (No Frame Pointer, w/ debug)                 *
    2123              ;*   Total Frame Size   : 4 words                                              *
    2124              ;*                        (2 return address/alignment)                         *
    2125              ;*                        (2 local values)                                     *
    2126              ;*   Min System Stack   : 1 word                                               *
    2127              ;*******************************************************************************
    2128 000628       _prvUnlockQueue:
    2129                      .dwcfi  cfa_offset, 1
    2130                      .dwcfi  save_reg_to_mem, 91, -1
    2131 000628 4EFD          AADD #-3, SP
    2132                      .dwcfi  cfa_offset, 4
    2133              $C$DW$202       .dwtag  DW_TAG_variable, DW_AT_name("pxQueue")
    2134                      .dwattr $C$DW$202, DW_AT_TI_symbol_name("_pxQueue")
    2135                      .dwattr $C$DW$202, DW_AT_type(*$C$DW$T$38)
    2136                      .dwattr $C$DW$202, DW_AT_location[DW_OP_bregx 0x24 0]
    2137 00062a EB00          MOV XAR0, dbl(*SP(#0))
         00062c 85   
    2138                      .dwpsn  file "../FreeRTOS/Source/queue.c",line 1110,column 2,is_stmt
    2139 00062d 20     nop
    2140 00062e 46B3   bset INTM
    2141 000630 F731          ADD #1, *(#_usCriticalNesting) ; |1110| 
         000632 0001 
         000634 0000 
         000636 00!  
    2142                      .dwpsn  file "../FreeRTOS/Source/queue.c",line 1113,column 10,is_stmt
    2143 000637 ED00          MOV dbl(*SP(#0)), XAR3
         000639 BF   
    2144 00063a A96D          MOV *AR3(#32), AR1 ; |1113| 
         00063c 0020 
    2145 00063e 0439          BCC $C$L51,AR1 <= #0 ; |1113| 
         000640 2C   
    2146                                                      ; branchcc occurs ; |1113| 
    2147 000641       $C$L48:    
    2148 000641       $C$DW$L$_prvUnlockQueue$2$B:
    2149                      .dwpsn  file "../FreeRTOS/Source/queue.c",line 1117,column 4,is_stmt
    2150 000641 A96D          MOV *AR3(#18), AR1 ; |1117| 
         000643 0012 
    2151 000645 0409          BCC $C$L51,AR1 == #0 ; |1117| 
         000647 25   
    2152                                                      ; branchcc occurs ; |1117| 
    2153 000648       $C$DW$L$_prvUnlockQueue$2$E:
    2154 000648       $C$DW$L$_prvUnlockQueue$3$B:
    2155                      .dwpsn  file "../FreeRTOS/Source/queue.c",line 1121,column 5,is_stmt
    2156 000648 ED00          MOV dbl(*SP(#0)), XAR0
         00064a 8F   
    2157 00064b 1412          AADD #18, AR0 ; |1121| 
         00064d 84   
TMS320C55x Assembler PC v4.4.1 Sat Sep 08 23:28:20 2018

Tools Copyright (c) 1996-2012 Texas Instruments Incorporated
queue.asm                                                            PAGE   48

    2158              $C$DW$203       .dwtag  DW_TAG_TI_branch
    2159                      .dwattr $C$DW$203, DW_AT_low_pc(0x00)
    2160                      .dwattr $C$DW$203, DW_AT_name("_xTaskRemoveFromEventList")
    2161                      .dwattr $C$DW$203, DW_AT_TI_call
    2162 00064e 6C00          CALL #_xTaskRemoveFromEventList ; |1121| 
         000650 0000!
    2163                                                      ; call occurs [#_xTaskRemoveFromEventList] ; |1121| 
    2164 000652 6204          BCC $C$L49,T0 == #0 ; |1121| 
    2165                                                      ; branchcc occurs ; |1121| 
    2166 000654       $C$DW$L$_prvUnlockQueue$3$E:
    2167 000654       $C$DW$L$_prvUnlockQueue$4$B:
    2168                      .dwpsn  file "../FreeRTOS/Source/queue.c",line 1125,column 6,is_stmt
    2169              $C$DW$204       .dwtag  DW_TAG_TI_branch
    2170                      .dwattr $C$DW$204, DW_AT_low_pc(0x00)
    2171                      .dwattr $C$DW$204, DW_AT_name("_vTaskMissedYield")
    2172                      .dwattr $C$DW$204, DW_AT_TI_call
    2173 000654 6C00          CALL #_vTaskMissedYield ; |1125| 
         000656 0000!
    2174                                                      ; call occurs [#_vTaskMissedYield] ; |1125| 
    2175 000658       $C$DW$L$_prvUnlockQueue$4$E:
    2176 000658       $C$L49:    
    2177 000658       $C$DW$L$_prvUnlockQueue$5$B:
    2178                      .dwpsn  file "../FreeRTOS/Source/queue.c",line 1128,column 5,is_stmt
    2179 000658 ED00          MOV dbl(*SP(#0)), XAR3
         00065a BF   
    2180 00065b F76D          SUB #1, *AR3(#32) ; |1128| 
         00065d FFFF 
         00065f 0020 
    2181                      .dwpsn  file "../FreeRTOS/Source/queue.c",line 1129,column 4,is_stmt
    2182 000661 4A00          B $C$L50  ; |1129| 
    2183                                                      ; branch occurs ; |1129| 
    2184 000663       $C$DW$L$_prvUnlockQueue$5$E:
    2185 000663       $C$L50:    
    2186 000663       $C$DW$L$_prvUnlockQueue$7$B:
    2187                      .dwpsn  file "../FreeRTOS/Source/queue.c",line 1113,column 10,is_stmt
    2188 000663 ED00          MOV dbl(*SP(#0)), XAR3
         000665 BF   
    2189 000666 A96D          MOV *AR3(#32), AR1 ; |1113| 
         000668 0020 
    2190 00066a 0449          BCC $C$L48,AR1 > #0 ; |1113| 
         00066c D4   
    2191                                                      ; branchcc occurs ; |1113| 
    2192 00066d       $C$DW$L$_prvUnlockQueue$7$E:
    2193 00066d       $C$L51:    
    2194                      .dwpsn  file "../FreeRTOS/Source/queue.c",line 1136,column 3,is_stmt
    2195 00066d E66D          MOV #-1, *AR3(#32) ; |1136| 
         00066f FF00 
         000671 20   
    2196                      .dwpsn  file "../FreeRTOS/Source/queue.c",line 1138,column 2,is_stmt
    2197 000672 A931          MOV *(#_usCriticalNesting), AR1 ; |1138| 
         000674 0000 
         000676 00!  
    2198 000677 0409          BCC $C$L52,AR1 == #0 ; |1138| 
         000679 14   
    2199                                                      ; branchcc occurs ; |1138| 
TMS320C55x Assembler PC v4.4.1 Sat Sep 08 23:28:20 2018

Tools Copyright (c) 1996-2012 Texas Instruments Incorporated
queue.asm                                                            PAGE   49

    2200 00067a F731          SUB #1, *(#_usCriticalNesting) ; |1138| 
         00067c FFFF 
         00067e 0000 
         000680 00!  
    2201 000681 20            NOP
    2202 000682 20            NOP
    2203 000683 20            NOP
    2204 000684 A931          MOV *(#_usCriticalNesting), AR1 ; |1138| 
         000686 0000 
         000688 00!  
    2205 000689 6199          BCC $C$L52,AR1 != #0 ; |1138| 
    2206                                                      ; branchcc occurs ; |1138| 
    2207 00068b 20     nop
    2208 00068c 46B2   bclr INTM
    2209 00068e       $C$L52:    
    2210                      .dwpsn  file "../FreeRTOS/Source/queue.c",line 1141,column 2,is_stmt
    2211 00068e 20     nop
    2212 00068f 46B3   bset INTM
    2213 000691 F731          ADD #1, *(#_usCriticalNesting) ; |1141| 
         000693 0001 
         000695 0000 
         000697 00!  
    2214                      .dwpsn  file "../FreeRTOS/Source/queue.c",line 1143,column 10,is_stmt
    2215 000698 ED00          MOV dbl(*SP(#0)), XAR3
         00069a BF   
    2216 00069b A96D          MOV *AR3(#31), AR1 ; |1143| 
         00069d 001F 
    2217 00069f 0439          BCC $C$L56,AR1 <= #0 ; |1143| 
         0006a1 2C   
    2218                                                      ; branchcc occurs ; |1143| 
    2219 0006a2       $C$L53:    
    2220 0006a2       $C$DW$L$_prvUnlockQueue$12$B:
    2221                      .dwpsn  file "../FreeRTOS/Source/queue.c",line 1145,column 4,is_stmt
    2222 0006a2 A96D          MOV *AR3(#8), AR1 ; |1145| 
         0006a4 0008 
    2223 0006a6 0409          BCC $C$L56,AR1 == #0 ; |1145| 
         0006a8 25   
    2224                                                      ; branchcc occurs ; |1145| 
    2225 0006a9       $C$DW$L$_prvUnlockQueue$12$E:
    2226 0006a9       $C$DW$L$_prvUnlockQueue$13$B:
    2227                      .dwpsn  file "../FreeRTOS/Source/queue.c",line 1147,column 5,is_stmt
    2228 0006a9 ED00          MOV dbl(*SP(#0)), XAR0
         0006ab 8F   
    2229 0006ac 1408          AADD #8, AR0 ; |1147| 
         0006ae 84   
    2230              $C$DW$205       .dwtag  DW_TAG_TI_branch
    2231                      .dwattr $C$DW$205, DW_AT_low_pc(0x00)
    2232                      .dwattr $C$DW$205, DW_AT_name("_xTaskRemoveFromEventList")
    2233                      .dwattr $C$DW$205, DW_AT_TI_call
    2234 0006af 6C00          CALL #_xTaskRemoveFromEventList ; |1147| 
         0006b1 0000!
    2235                                                      ; call occurs [#_xTaskRemoveFromEventList] ; |1147| 
    2236 0006b3 6204          BCC $C$L54,T0 == #0 ; |1147| 
    2237                                                      ; branchcc occurs ; |1147| 
    2238 0006b5       $C$DW$L$_prvUnlockQueue$13$E:
TMS320C55x Assembler PC v4.4.1 Sat Sep 08 23:28:20 2018

Tools Copyright (c) 1996-2012 Texas Instruments Incorporated
queue.asm                                                            PAGE   50

    2239 0006b5       $C$DW$L$_prvUnlockQueue$14$B:
    2240                      .dwpsn  file "../FreeRTOS/Source/queue.c",line 1149,column 6,is_stmt
    2241              $C$DW$206       .dwtag  DW_TAG_TI_branch
    2242                      .dwattr $C$DW$206, DW_AT_low_pc(0x00)
    2243                      .dwattr $C$DW$206, DW_AT_name("_vTaskMissedYield")
    2244                      .dwattr $C$DW$206, DW_AT_TI_call
    2245 0006b5 6C00          CALL #_vTaskMissedYield ; |1149| 
         0006b7 0000!
    2246                                                      ; call occurs [#_vTaskMissedYield] ; |1149| 
    2247 0006b9       $C$DW$L$_prvUnlockQueue$14$E:
    2248 0006b9       $C$L54:    
    2249 0006b9       $C$DW$L$_prvUnlockQueue$15$B:
    2250                      .dwpsn  file "../FreeRTOS/Source/queue.c",line 1152,column 5,is_stmt
    2251 0006b9 ED00          MOV dbl(*SP(#0)), XAR3
         0006bb BF   
    2252 0006bc F76D          SUB #1, *AR3(#31) ; |1152| 
         0006be FFFF 
         0006c0 001F 
    2253                      .dwpsn  file "../FreeRTOS/Source/queue.c",line 1153,column 4,is_stmt
    2254 0006c2 4A00          B $C$L55  ; |1153| 
    2255                                                      ; branch occurs ; |1153| 
    2256 0006c4       $C$DW$L$_prvUnlockQueue$15$E:
    2257 0006c4       $C$L55:    
    2258 0006c4       $C$DW$L$_prvUnlockQueue$17$B:
    2259                      .dwpsn  file "../FreeRTOS/Source/queue.c",line 1143,column 10,is_stmt
    2260 0006c4 ED00          MOV dbl(*SP(#0)), XAR3
         0006c6 BF   
    2261 0006c7 A96D          MOV *AR3(#31), AR1 ; |1143| 
         0006c9 001F 
    2262 0006cb 0449          BCC $C$L53,AR1 > #0 ; |1143| 
         0006cd D4   
    2263                                                      ; branchcc occurs ; |1143| 
    2264 0006ce       $C$DW$L$_prvUnlockQueue$17$E:
    2265 0006ce       $C$L56:    
    2266                      .dwpsn  file "../FreeRTOS/Source/queue.c",line 1160,column 3,is_stmt
    2267 0006ce E66D          MOV #-1, *AR3(#31) ; |1160| 
         0006d0 FF00 
         0006d2 1F   
    2268                      .dwpsn  file "../FreeRTOS/Source/queue.c",line 1162,column 2,is_stmt
    2269 0006d3 A931          MOV *(#_usCriticalNesting), AR1 ; |1162| 
         0006d5 0000 
         0006d7 00!  
    2270 0006d8 0409          BCC $C$L57,AR1 == #0 ; |1162| 
         0006da 14   
    2271                                                      ; branchcc occurs ; |1162| 
    2272 0006db F731          SUB #1, *(#_usCriticalNesting) ; |1162| 
         0006dd FFFF 
         0006df 0000 
         0006e1 00!  
    2273 0006e2 20            NOP
    2274 0006e3 20            NOP
    2275 0006e4 20            NOP
    2276 0006e5 A931          MOV *(#_usCriticalNesting), AR1 ; |1162| 
         0006e7 0000 
         0006e9 00!  
TMS320C55x Assembler PC v4.4.1 Sat Sep 08 23:28:20 2018

Tools Copyright (c) 1996-2012 Texas Instruments Incorporated
queue.asm                                                            PAGE   51

    2277 0006ea 6199          BCC $C$L57,AR1 != #0 ; |1162| 
    2278                                                      ; branchcc occurs ; |1162| 
    2279 0006ec 20     nop
    2280 0006ed 46B2   bclr INTM
    2281                      .dwpsn  file "../FreeRTOS/Source/queue.c",line 1163,column 1,is_stmt
    2282 0006ef       $C$L57:    
    2283 0006ef 4E03          AADD #3, SP
    2284                      .dwcfi  cfa_offset, 1
    2285              $C$DW$207       .dwtag  DW_TAG_TI_branch
    2286                      .dwattr $C$DW$207, DW_AT_low_pc(0x00)
    2287                      .dwattr $C$DW$207, DW_AT_TI_return
    2288 0006f1 4804          RET
    2289                                                      ; return occurs
    2290              
    2291              $C$DW$208       .dwtag  DW_TAG_TI_loop
    2292                      .dwattr $C$DW$208, DW_AT_name("F:\eZdsp_C55x_FreeRTOS_Port\VerifiedOKInDbg\eZDSP_5535_Files\ccsws2\te
    2293                      .dwattr $C$DW$208, DW_AT_TI_begin_file("../FreeRTOS/Source/queue.c")
    2294                      .dwattr $C$DW$208, DW_AT_TI_begin_line(0x477)
    2295                      .dwattr $C$DW$208, DW_AT_TI_end_line(0x486)
    2296              $C$DW$209       .dwtag  DW_TAG_TI_loop_range
    2297                      .dwattr $C$DW$209, DW_AT_low_pc($C$DW$L$_prvUnlockQueue$12$B)
    2298                      .dwattr $C$DW$209, DW_AT_high_pc($C$DW$L$_prvUnlockQueue$12$E)
    2299              $C$DW$210       .dwtag  DW_TAG_TI_loop_range
    2300                      .dwattr $C$DW$210, DW_AT_low_pc($C$DW$L$_prvUnlockQueue$13$B)
    2301                      .dwattr $C$DW$210, DW_AT_high_pc($C$DW$L$_prvUnlockQueue$13$E)
    2302              $C$DW$211       .dwtag  DW_TAG_TI_loop_range
    2303                      .dwattr $C$DW$211, DW_AT_low_pc($C$DW$L$_prvUnlockQueue$14$B)
    2304                      .dwattr $C$DW$211, DW_AT_high_pc($C$DW$L$_prvUnlockQueue$14$E)
    2305              $C$DW$212       .dwtag  DW_TAG_TI_loop_range
    2306                      .dwattr $C$DW$212, DW_AT_low_pc($C$DW$L$_prvUnlockQueue$15$B)
    2307                      .dwattr $C$DW$212, DW_AT_high_pc($C$DW$L$_prvUnlockQueue$15$E)
    2308              $C$DW$213       .dwtag  DW_TAG_TI_loop_range
    2309                      .dwattr $C$DW$213, DW_AT_low_pc($C$DW$L$_prvUnlockQueue$17$B)
    2310                      .dwattr $C$DW$213, DW_AT_high_pc($C$DW$L$_prvUnlockQueue$17$E)
    2311                      .dwendtag $C$DW$208
    2312              
    2313              
    2314              $C$DW$214       .dwtag  DW_TAG_TI_loop
    2315                      .dwattr $C$DW$214, DW_AT_name("F:\eZdsp_C55x_FreeRTOS_Port\VerifiedOKInDbg\eZDSP_5535_Files\ccsws2\te
    2316                      .dwattr $C$DW$214, DW_AT_TI_begin_file("../FreeRTOS/Source/queue.c")
    2317                      .dwattr $C$DW$214, DW_AT_TI_begin_line(0x459)
    2318                      .dwattr $C$DW$214, DW_AT_TI_end_line(0x46e)
    2319              $C$DW$215       .dwtag  DW_TAG_TI_loop_range
    2320                      .dwattr $C$DW$215, DW_AT_low_pc($C$DW$L$_prvUnlockQueue$2$B)
    2321                      .dwattr $C$DW$215, DW_AT_high_pc($C$DW$L$_prvUnlockQueue$2$E)
    2322              $C$DW$216       .dwtag  DW_TAG_TI_loop_range
    2323                      .dwattr $C$DW$216, DW_AT_low_pc($C$DW$L$_prvUnlockQueue$3$B)
    2324                      .dwattr $C$DW$216, DW_AT_high_pc($C$DW$L$_prvUnlockQueue$3$E)
    2325              $C$DW$217       .dwtag  DW_TAG_TI_loop_range
    2326                      .dwattr $C$DW$217, DW_AT_low_pc($C$DW$L$_prvUnlockQueue$4$B)
    2327                      .dwattr $C$DW$217, DW_AT_high_pc($C$DW$L$_prvUnlockQueue$4$E)
    2328              $C$DW$218       .dwtag  DW_TAG_TI_loop_range
    2329                      .dwattr $C$DW$218, DW_AT_low_pc($C$DW$L$_prvUnlockQueue$5$B)
    2330                      .dwattr $C$DW$218, DW_AT_high_pc($C$DW$L$_prvUnlockQueue$5$E)
    2331              $C$DW$219       .dwtag  DW_TAG_TI_loop_range
TMS320C55x Assembler PC v4.4.1 Sat Sep 08 23:28:20 2018

Tools Copyright (c) 1996-2012 Texas Instruments Incorporated
queue.asm                                                            PAGE   52

    2332                      .dwattr $C$DW$219, DW_AT_low_pc($C$DW$L$_prvUnlockQueue$7$B)
    2333                      .dwattr $C$DW$219, DW_AT_high_pc($C$DW$L$_prvUnlockQueue$7$E)
    2334                      .dwendtag $C$DW$214
    2335              
    2336                      .dwattr $C$DW$200, DW_AT_TI_end_file("../FreeRTOS/Source/queue.c")
    2337                      .dwattr $C$DW$200, DW_AT_TI_end_line(0x48b)
    2338                      .dwattr $C$DW$200, DW_AT_TI_end_column(0x01)
    2339                      .dwendentry
    2340                      .dwendtag $C$DW$200
    2341              
    2342 0006f3               .sect   ".text"
    2343                      .align 4
    2344              
    2345              $C$DW$220       .dwtag  DW_TAG_subprogram, DW_AT_name("prvIsQueueEmpty")
    2346                      .dwattr $C$DW$220, DW_AT_low_pc(_prvIsQueueEmpty)
    2347                      .dwattr $C$DW$220, DW_AT_high_pc(0x00)
    2348                      .dwattr $C$DW$220, DW_AT_TI_symbol_name("_prvIsQueueEmpty")
    2349                      .dwattr $C$DW$220, DW_AT_type(*$C$DW$T$10)
    2350                      .dwattr $C$DW$220, DW_AT_TI_begin_file("../FreeRTOS/Source/queue.c")
    2351                      .dwattr $C$DW$220, DW_AT_TI_begin_line(0x48e)
    2352                      .dwattr $C$DW$220, DW_AT_TI_begin_column(0x1d)
    2353                      .dwattr $C$DW$220, DW_AT_TI_max_frame_size(0x04)
    2354                      .dwpsn  file "../FreeRTOS/Source/queue.c",line 1167,column 1,is_stmt,address _prvIsQueueEmpty
    2355              
    2356                      .dwfde $C$DW$CIE, _prvIsQueueEmpty
    2357              $C$DW$221       .dwtag  DW_TAG_formal_parameter, DW_AT_name("pxQueue")
    2358                      .dwattr $C$DW$221, DW_AT_TI_symbol_name("_pxQueue")
    2359                      .dwattr $C$DW$221, DW_AT_type(*$C$DW$T$40)
    2360                      .dwattr $C$DW$221, DW_AT_location[DW_OP_reg17]
    2361              ;*******************************************************************************
    2362              ;* FUNCTION NAME: prvIsQueueEmpty                                              *
    2363              ;*                                                                             *
    2364              ;*   Function Uses Regs : T0,AR0,XAR0,AR1,AR2,AR3,XAR3,SP,CARRY,M40,SATA,SATD, *
    2365              ;*                        RDM,FRCT,SMUL                                        *
    2366              ;*   Stack Frame        : Compact (No Frame Pointer, w/ debug)                 *
    2367              ;*   Total Frame Size   : 4 words                                              *
    2368              ;*                        (1 return address/alignment)                         *
    2369              ;*                        (3 local values)                                     *
    2370              ;*   Min System Stack   : 1 word                                               *
    2371              ;*******************************************************************************
    2372 0006f4       _prvIsQueueEmpty:
    2373                      .dwcfi  cfa_offset, 1
    2374                      .dwcfi  save_reg_to_mem, 91, -1
    2375 0006f4 4EFD          AADD #-3, SP
    2376                      .dwcfi  cfa_offset, 4
    2377              $C$DW$222       .dwtag  DW_TAG_variable, DW_AT_name("pxQueue")
    2378                      .dwattr $C$DW$222, DW_AT_TI_symbol_name("_pxQueue")
    2379                      .dwattr $C$DW$222, DW_AT_type(*$C$DW$T$40)
    2380                      .dwattr $C$DW$222, DW_AT_location[DW_OP_bregx 0x24 0]
    2381              $C$DW$223       .dwtag  DW_TAG_variable, DW_AT_name("xReturn")
    2382                      .dwattr $C$DW$223, DW_AT_TI_symbol_name("_xReturn")
    2383                      .dwattr $C$DW$223, DW_AT_type(*$C$DW$T$10)
    2384                      .dwattr $C$DW$223, DW_AT_location[DW_OP_bregx 0x24 2]
    2385 0006f6 EB00          MOV XAR0, dbl(*SP(#0))
         0006f8 85   
TMS320C55x Assembler PC v4.4.1 Sat Sep 08 23:28:20 2018

Tools Copyright (c) 1996-2012 Texas Instruments Incorporated
queue.asm                                                            PAGE   53

    2386                      .dwpsn  file "../FreeRTOS/Source/queue.c",line 1170,column 2,is_stmt
    2387 0006f9 20     nop
    2388 0006fa 46B3   bset INTM
    2389 0006fc F731          ADD #1, *(#_usCriticalNesting) ; |1170| 
         0006fe 0001 
         000700 0000 
         000702 00!  
    2390 000703 20            NOP
    2391 000704 20            NOP
    2392                      .dwpsn  file "../FreeRTOS/Source/queue.c",line 1171,column 3,is_stmt
    2393 000705 ED00          MOV dbl(*SP(#0)), XAR3
         000707 BF   
    2394 000708 A96D          MOV *AR3(#28), AR1 ; |1171| 
         00070a 001C 
    2395              
    2396 00070c 6119          BCC $C$L58,AR1 != #0 ; |1171| 
    2397 00070e 3D0A  ||      MOV #0, AR2
    2398              
    2399                                                      ; branchcc occurs ; |1171| 
    2400 000710 3C1A          MOV #1, AR2
    2401 000712       $C$L58:    
    2402 000712 CA04          MOV AR2, *SP(#2) ; |1171| 
    2403                      .dwpsn  file "../FreeRTOS/Source/queue.c",line 1172,column 2,is_stmt
    2404 000714 A931          MOV *(#_usCriticalNesting), AR1 ; |1172| 
         000716 0000 
         000718 00!  
    2405 000719 0409          BCC $C$L59,AR1 == #0 ; |1172| 
         00071b 14   
    2406                                                      ; branchcc occurs ; |1172| 
    2407 00071c F731          SUB #1, *(#_usCriticalNesting) ; |1172| 
         00071e FFFF 
         000720 0000 
         000722 00!  
    2408 000723 20            NOP
    2409 000724 20            NOP
    2410 000725 20            NOP
    2411 000726 A931          MOV *(#_usCriticalNesting), AR1 ; |1172| 
         000728 0000 
         00072a 00!  
    2412 00072b 6199          BCC $C$L59,AR1 != #0 ; |1172| 
    2413                                                      ; branchcc occurs ; |1172| 
    2414 00072d 20     nop
    2415 00072e 46B2   bclr INTM
    2416 000730       $C$L59:    
    2417                      .dwpsn  file "../FreeRTOS/Source/queue.c",line 1174,column 2,is_stmt
    2418 000730 22A4          MOV AR2, T0
    2419                      .dwpsn  file "../FreeRTOS/Source/queue.c",line 1175,column 1,is_stmt
    2420 000732 4E03          AADD #3, SP
    2421                      .dwcfi  cfa_offset, 1
    2422              $C$DW$224       .dwtag  DW_TAG_TI_branch
    2423                      .dwattr $C$DW$224, DW_AT_low_pc(0x00)
    2424                      .dwattr $C$DW$224, DW_AT_TI_return
    2425 000734 4804          RET
    2426                                                      ; return occurs
    2427                      .dwattr $C$DW$220, DW_AT_TI_end_file("../FreeRTOS/Source/queue.c")
TMS320C55x Assembler PC v4.4.1 Sat Sep 08 23:28:20 2018

Tools Copyright (c) 1996-2012 Texas Instruments Incorporated
queue.asm                                                            PAGE   54

    2428                      .dwattr $C$DW$220, DW_AT_TI_end_line(0x497)
    2429                      .dwattr $C$DW$220, DW_AT_TI_end_column(0x01)
    2430                      .dwendentry
    2431                      .dwendtag $C$DW$220
    2432              
    2433 000736               .sect   ".text"
    2434                      .align 4
    2435                      .global _xQueueIsQueueEmptyFromISR
    2436              
    2437              $C$DW$225       .dwtag  DW_TAG_subprogram, DW_AT_name("xQueueIsQueueEmptyFromISR")
    2438                      .dwattr $C$DW$225, DW_AT_low_pc(_xQueueIsQueueEmptyFromISR)
    2439                      .dwattr $C$DW$225, DW_AT_high_pc(0x00)
    2440                      .dwattr $C$DW$225, DW_AT_TI_symbol_name("_xQueueIsQueueEmptyFromISR")
    2441                      .dwattr $C$DW$225, DW_AT_external
    2442                      .dwattr $C$DW$225, DW_AT_type(*$C$DW$T$10)
    2443                      .dwattr $C$DW$225, DW_AT_TI_begin_file("../FreeRTOS/Source/queue.c")
    2444                      .dwattr $C$DW$225, DW_AT_TI_begin_line(0x49a)
    2445                      .dwattr $C$DW$225, DW_AT_TI_begin_column(0x16)
    2446                      .dwattr $C$DW$225, DW_AT_TI_max_frame_size(0x04)
    2447                      .dwpsn  file "../FreeRTOS/Source/queue.c",line 1179,column 1,is_stmt,address _xQueueIsQueueEmptyFromI
    2448              
    2449                      .dwfde $C$DW$CIE, _xQueueIsQueueEmptyFromISR
    2450              $C$DW$226       .dwtag  DW_TAG_formal_parameter, DW_AT_name("pxQueue")
    2451                      .dwattr $C$DW$226, DW_AT_TI_symbol_name("_pxQueue")
    2452                      .dwattr $C$DW$226, DW_AT_type(*$C$DW$T$40)
    2453                      .dwattr $C$DW$226, DW_AT_location[DW_OP_reg17]
    2454              ;*******************************************************************************
    2455              ;* FUNCTION NAME: xQueueIsQueueEmptyFromISR                                    *
    2456              ;*                                                                             *
    2457              ;*   Function Uses Regs : T0,AR0,XAR0,AR1,AR2,AR3,XAR3,SP,M40,SATA,SATD,RDM,   *
    2458              ;*                        FRCT,SMUL                                            *
    2459              ;*   Stack Frame        : Compact (No Frame Pointer, w/ debug)                 *
    2460              ;*   Total Frame Size   : 4 words                                              *
    2461              ;*                        (1 return address/alignment)                         *
    2462              ;*                        (3 local values)                                     *
    2463              ;*   Min System Stack   : 1 word                                               *
    2464              ;*******************************************************************************
    2465 000738       _xQueueIsQueueEmptyFromISR:
    2466                      .dwcfi  cfa_offset, 1
    2467                      .dwcfi  save_reg_to_mem, 91, -1
    2468 000738 4EFD          AADD #-3, SP
    2469                      .dwcfi  cfa_offset, 4
    2470              $C$DW$227       .dwtag  DW_TAG_variable, DW_AT_name("pxQueue")
    2471                      .dwattr $C$DW$227, DW_AT_TI_symbol_name("_pxQueue")
    2472                      .dwattr $C$DW$227, DW_AT_type(*$C$DW$T$40)
    2473                      .dwattr $C$DW$227, DW_AT_location[DW_OP_bregx 0x24 0]
    2474              $C$DW$228       .dwtag  DW_TAG_variable, DW_AT_name("xReturn")
    2475                      .dwattr $C$DW$228, DW_AT_TI_symbol_name("_xReturn")
    2476                      .dwattr $C$DW$228, DW_AT_type(*$C$DW$T$10)
    2477                      .dwattr $C$DW$228, DW_AT_location[DW_OP_bregx 0x24 2]
    2478 00073a EB00          MOV XAR0, dbl(*SP(#0))
         00073c 85   
    2479                      .dwpsn  file "../FreeRTOS/Source/queue.c",line 1182,column 2,is_stmt
    2480 00073d ED00          MOV dbl(*SP(#0)), XAR3
         00073f BF   
TMS320C55x Assembler PC v4.4.1 Sat Sep 08 23:28:20 2018

Tools Copyright (c) 1996-2012 Texas Instruments Incorporated
queue.asm                                                            PAGE   55

    2481 000740 A96D          MOV *AR3(#28), AR1 ; |1182| 
         000742 001C 
    2482              
    2483 000744 6119          BCC $C$L60,AR1 != #0 ; |1182| 
    2484 000746 3D0A  ||      MOV #0, AR2
    2485              
    2486                                                      ; branchcc occurs ; |1182| 
    2487 000748 3C1A          MOV #1, AR2
    2488 00074a       $C$L60:    
    2489 00074a CA04          MOV AR2, *SP(#2) ; |1182| 
    2490                      .dwpsn  file "../FreeRTOS/Source/queue.c",line 1184,column 2,is_stmt
    2491 00074c 22A4          MOV AR2, T0
    2492                      .dwpsn  file "../FreeRTOS/Source/queue.c",line 1185,column 1,is_stmt
    2493 00074e 4E03          AADD #3, SP
    2494                      .dwcfi  cfa_offset, 1
    2495              $C$DW$229       .dwtag  DW_TAG_TI_branch
    2496                      .dwattr $C$DW$229, DW_AT_low_pc(0x00)
    2497                      .dwattr $C$DW$229, DW_AT_TI_return
    2498 000750 4804          RET
    2499                                                      ; return occurs
    2500                      .dwattr $C$DW$225, DW_AT_TI_end_file("../FreeRTOS/Source/queue.c")
    2501                      .dwattr $C$DW$225, DW_AT_TI_end_line(0x4a1)
    2502                      .dwattr $C$DW$225, DW_AT_TI_end_column(0x01)
    2503                      .dwendentry
    2504                      .dwendtag $C$DW$225
    2505              
    2506 000752               .sect   ".text"
    2507                      .align 4
    2508              
    2509              $C$DW$230       .dwtag  DW_TAG_subprogram, DW_AT_name("prvIsQueueFull")
    2510                      .dwattr $C$DW$230, DW_AT_low_pc(_prvIsQueueFull)
    2511                      .dwattr $C$DW$230, DW_AT_high_pc(0x00)
    2512                      .dwattr $C$DW$230, DW_AT_TI_symbol_name("_prvIsQueueFull")
    2513                      .dwattr $C$DW$230, DW_AT_type(*$C$DW$T$10)
    2514                      .dwattr $C$DW$230, DW_AT_TI_begin_file("../FreeRTOS/Source/queue.c")
    2515                      .dwattr $C$DW$230, DW_AT_TI_begin_line(0x4a4)
    2516                      .dwattr $C$DW$230, DW_AT_TI_begin_column(0x1d)
    2517                      .dwattr $C$DW$230, DW_AT_TI_max_frame_size(0x04)
    2518                      .dwpsn  file "../FreeRTOS/Source/queue.c",line 1189,column 1,is_stmt,address _prvIsQueueFull
    2519              
    2520                      .dwfde $C$DW$CIE, _prvIsQueueFull
    2521              $C$DW$231       .dwtag  DW_TAG_formal_parameter, DW_AT_name("pxQueue")
    2522                      .dwattr $C$DW$231, DW_AT_TI_symbol_name("_pxQueue")
    2523                      .dwattr $C$DW$231, DW_AT_type(*$C$DW$T$40)
    2524                      .dwattr $C$DW$231, DW_AT_location[DW_OP_reg17]
    2525              ;*******************************************************************************
    2526              ;* FUNCTION NAME: prvIsQueueFull                                               *
    2527              ;*                                                                             *
    2528              ;*   Function Uses Regs : T0,AR0,XAR0,AR1,AR2,AR3,XAR3,AR4,SP,CARRY,TC1,M40,   *
    2529              ;*                        SATA,SATD,RDM,FRCT,SMUL                              *
    2530              ;*   Stack Frame        : Compact (No Frame Pointer, w/ debug)                 *
    2531              ;*   Total Frame Size   : 4 words                                              *
    2532              ;*                        (1 return address/alignment)                         *
    2533              ;*                        (3 local values)                                     *
    2534              ;*   Min System Stack   : 1 word                                               *
TMS320C55x Assembler PC v4.4.1 Sat Sep 08 23:28:20 2018

Tools Copyright (c) 1996-2012 Texas Instruments Incorporated
queue.asm                                                            PAGE   56

    2535              ;*******************************************************************************
    2536 000754       _prvIsQueueFull:
    2537                      .dwcfi  cfa_offset, 1
    2538                      .dwcfi  save_reg_to_mem, 91, -1
    2539 000754 4EFD          AADD #-3, SP
    2540                      .dwcfi  cfa_offset, 4
    2541              $C$DW$232       .dwtag  DW_TAG_variable, DW_AT_name("pxQueue")
    2542                      .dwattr $C$DW$232, DW_AT_TI_symbol_name("_pxQueue")
    2543                      .dwattr $C$DW$232, DW_AT_type(*$C$DW$T$40)
    2544                      .dwattr $C$DW$232, DW_AT_location[DW_OP_bregx 0x24 0]
    2545              $C$DW$233       .dwtag  DW_TAG_variable, DW_AT_name("xReturn")
    2546                      .dwattr $C$DW$233, DW_AT_TI_symbol_name("_xReturn")
    2547                      .dwattr $C$DW$233, DW_AT_type(*$C$DW$T$10)
    2548                      .dwattr $C$DW$233, DW_AT_location[DW_OP_bregx 0x24 2]
    2549 000756 EB00          MOV XAR0, dbl(*SP(#0))
         000758 85   
    2550                      .dwpsn  file "../FreeRTOS/Source/queue.c",line 1192,column 2,is_stmt
    2551 000759 20     nop
    2552 00075a 46B3   bset INTM
    2553 00075c F731          ADD #1, *(#_usCriticalNesting) ; |1192| 
         00075e 0001 
         000760 0000 
         000762 00!  
    2554 000763 20            NOP
    2555                      .dwpsn  file "../FreeRTOS/Source/queue.c",line 1193,column 3,is_stmt
    2556 000764 ED00          MOV dbl(*SP(#0)), XAR3
         000766 BF   
    2557 000767 A96D          MOV *AR3(#29), AR1 ; |1193| 
         000769 001D 
    2558 00076b AA6D          MOV *AR3(#28), AR2 ; |1193| 
         00076d 001C 
    2559 00076f 12AC          CMPU AR2 != AR1, TC1 ; |1193| 
         000771 94   
    2560              
    2561 000772 6164          BCC $C$L61,TC1 ; |1193| 
    2562 000774 3D0C  ||      MOV #0, AR4
    2563              
    2564                                                      ; branchcc occurs ; |1193| 
    2565 000776 3C1C          MOV #1, AR4
    2566 000778       $C$L61:    
    2567 000778 CC04          MOV AR4, *SP(#2) ; |1193| 
    2568                      .dwpsn  file "../FreeRTOS/Source/queue.c",line 1194,column 2,is_stmt
    2569 00077a A931          MOV *(#_usCriticalNesting), AR1 ; |1194| 
         00077c 0000 
         00077e 00!  
    2570 00077f 0409          BCC $C$L62,AR1 == #0 ; |1194| 
         000781 14   
    2571                                                      ; branchcc occurs ; |1194| 
    2572 000782 F731          SUB #1, *(#_usCriticalNesting) ; |1194| 
         000784 FFFF 
         000786 0000 
         000788 00!  
    2573 000789 20            NOP
    2574 00078a 20            NOP
    2575 00078b 20            NOP
TMS320C55x Assembler PC v4.4.1 Sat Sep 08 23:28:20 2018

Tools Copyright (c) 1996-2012 Texas Instruments Incorporated
queue.asm                                                            PAGE   57

    2576 00078c A931          MOV *(#_usCriticalNesting), AR1 ; |1194| 
         00078e 0000 
         000790 00!  
    2577 000791 6199          BCC $C$L62,AR1 != #0 ; |1194| 
    2578                                                      ; branchcc occurs ; |1194| 
    2579 000793 20     nop
    2580 000794 46B2   bclr INTM
    2581 000796       $C$L62:    
    2582                      .dwpsn  file "../FreeRTOS/Source/queue.c",line 1196,column 2,is_stmt
    2583 000796 22C4          MOV AR4, T0
    2584                      .dwpsn  file "../FreeRTOS/Source/queue.c",line 1197,column 1,is_stmt
    2585 000798 4E03          AADD #3, SP
    2586                      .dwcfi  cfa_offset, 1
    2587              $C$DW$234       .dwtag  DW_TAG_TI_branch
    2588                      .dwattr $C$DW$234, DW_AT_low_pc(0x00)
    2589                      .dwattr $C$DW$234, DW_AT_TI_return
    2590 00079a 4804          RET
    2591                                                      ; return occurs
    2592                      .dwattr $C$DW$230, DW_AT_TI_end_file("../FreeRTOS/Source/queue.c")
    2593                      .dwattr $C$DW$230, DW_AT_TI_end_line(0x4ad)
    2594                      .dwattr $C$DW$230, DW_AT_TI_end_column(0x01)
    2595                      .dwendentry
    2596                      .dwendtag $C$DW$230
    2597              
    2598 00079c               .sect   ".text"
    2599                      .align 4
    2600                      .global _xQueueIsQueueFullFromISR
    2601              
    2602              $C$DW$235       .dwtag  DW_TAG_subprogram, DW_AT_name("xQueueIsQueueFullFromISR")
    2603                      .dwattr $C$DW$235, DW_AT_low_pc(_xQueueIsQueueFullFromISR)
    2604                      .dwattr $C$DW$235, DW_AT_high_pc(0x00)
    2605                      .dwattr $C$DW$235, DW_AT_TI_symbol_name("_xQueueIsQueueFullFromISR")
    2606                      .dwattr $C$DW$235, DW_AT_external
    2607                      .dwattr $C$DW$235, DW_AT_type(*$C$DW$T$10)
    2608                      .dwattr $C$DW$235, DW_AT_TI_begin_file("../FreeRTOS/Source/queue.c")
    2609                      .dwattr $C$DW$235, DW_AT_TI_begin_line(0x4b0)
    2610                      .dwattr $C$DW$235, DW_AT_TI_begin_column(0x16)
    2611                      .dwattr $C$DW$235, DW_AT_TI_max_frame_size(0x04)
    2612                      .dwpsn  file "../FreeRTOS/Source/queue.c",line 1201,column 1,is_stmt,address _xQueueIsQueueFullFromIS
    2613              
    2614                      .dwfde $C$DW$CIE, _xQueueIsQueueFullFromISR
    2615              $C$DW$236       .dwtag  DW_TAG_formal_parameter, DW_AT_name("pxQueue")
    2616                      .dwattr $C$DW$236, DW_AT_TI_symbol_name("_pxQueue")
    2617                      .dwattr $C$DW$236, DW_AT_type(*$C$DW$T$40)
    2618                      .dwattr $C$DW$236, DW_AT_location[DW_OP_reg17]
    2619              ;*******************************************************************************
    2620              ;* FUNCTION NAME: xQueueIsQueueFullFromISR                                     *
    2621              ;*                                                                             *
    2622              ;*   Function Uses Regs : T0,AR0,XAR0,AR1,AR2,AR3,XAR3,AR4,SP,TC1,M40,SATA,    *
    2623              ;*                        SATD,RDM,FRCT,SMUL                                   *
    2624              ;*   Stack Frame        : Compact (No Frame Pointer, w/ debug)                 *
    2625              ;*   Total Frame Size   : 4 words                                              *
    2626              ;*                        (1 return address/alignment)                         *
    2627              ;*                        (3 local values)                                     *
    2628              ;*   Min System Stack   : 1 word                                               *
TMS320C55x Assembler PC v4.4.1 Sat Sep 08 23:28:20 2018

Tools Copyright (c) 1996-2012 Texas Instruments Incorporated
queue.asm                                                            PAGE   58

    2629              ;*******************************************************************************
    2630 00079c       _xQueueIsQueueFullFromISR:
    2631                      .dwcfi  cfa_offset, 1
    2632                      .dwcfi  save_reg_to_mem, 91, -1
    2633 00079c 4EFD          AADD #-3, SP
    2634                      .dwcfi  cfa_offset, 4
    2635              $C$DW$237       .dwtag  DW_TAG_variable, DW_AT_name("pxQueue")
    2636                      .dwattr $C$DW$237, DW_AT_TI_symbol_name("_pxQueue")
    2637                      .dwattr $C$DW$237, DW_AT_type(*$C$DW$T$40)
    2638                      .dwattr $C$DW$237, DW_AT_location[DW_OP_bregx 0x24 0]
    2639              $C$DW$238       .dwtag  DW_TAG_variable, DW_AT_name("xReturn")
    2640                      .dwattr $C$DW$238, DW_AT_TI_symbol_name("_xReturn")
    2641                      .dwattr $C$DW$238, DW_AT_type(*$C$DW$T$10)
    2642                      .dwattr $C$DW$238, DW_AT_location[DW_OP_bregx 0x24 2]
    2643 00079e EB00          MOV XAR0, dbl(*SP(#0))
         0007a0 85   
    2644                      .dwpsn  file "../FreeRTOS/Source/queue.c",line 1204,column 2,is_stmt
    2645 0007a1 ED00          MOV dbl(*SP(#0)), XAR3
         0007a3 BF   
    2646 0007a4 A96D          MOV *AR3(#29), AR1 ; |1204| 
         0007a6 001D 
    2647 0007a8 AA6D          MOV *AR3(#28), AR2 ; |1204| 
         0007aa 001C 
    2648 0007ac 12AC          CMPU AR2 != AR1, TC1 ; |1204| 
         0007ae 94   
    2649              
    2650 0007af 6164          BCC $C$L63,TC1 ; |1204| 
    2651 0007b1 3D0C  ||      MOV #0, AR4
    2652              
    2653                                                      ; branchcc occurs ; |1204| 
    2654 0007b3 3C1C          MOV #1, AR4
    2655 0007b5       $C$L63:    
    2656 0007b5 CC04          MOV AR4, *SP(#2) ; |1204| 
    2657                      .dwpsn  file "../FreeRTOS/Source/queue.c",line 1206,column 2,is_stmt
    2658 0007b7 22C4          MOV AR4, T0
    2659                      .dwpsn  file "../FreeRTOS/Source/queue.c",line 1207,column 1,is_stmt
    2660 0007b9 4E03          AADD #3, SP
    2661                      .dwcfi  cfa_offset, 1
    2662              $C$DW$239       .dwtag  DW_TAG_TI_branch
    2663                      .dwattr $C$DW$239, DW_AT_low_pc(0x00)
    2664                      .dwattr $C$DW$239, DW_AT_TI_return
    2665 0007bb 4804          RET
    2666                                                      ; return occurs
    2667                      .dwattr $C$DW$235, DW_AT_TI_end_file("../FreeRTOS/Source/queue.c")
    2668                      .dwattr $C$DW$235, DW_AT_TI_end_line(0x4b7)
    2669                      .dwattr $C$DW$235, DW_AT_TI_end_column(0x01)
    2670                      .dwendentry
    2671                      .dwendtag $C$DW$235
    2672              
    2673 0007bd               .sect   ".text"
    2674                      .align 4
    2675                      .global _xQueueCRSend
    2676              
    2677              $C$DW$240       .dwtag  DW_TAG_subprogram, DW_AT_name("xQueueCRSend")
    2678                      .dwattr $C$DW$240, DW_AT_low_pc(_xQueueCRSend)
TMS320C55x Assembler PC v4.4.1 Sat Sep 08 23:28:20 2018

Tools Copyright (c) 1996-2012 Texas Instruments Incorporated
queue.asm                                                            PAGE   59

    2679                      .dwattr $C$DW$240, DW_AT_high_pc(0x00)
    2680                      .dwattr $C$DW$240, DW_AT_TI_symbol_name("_xQueueCRSend")
    2681                      .dwattr $C$DW$240, DW_AT_external
    2682                      .dwattr $C$DW$240, DW_AT_type(*$C$DW$T$10)
    2683                      .dwattr $C$DW$240, DW_AT_TI_begin_file("../FreeRTOS/Source/queue.c")
    2684                      .dwattr $C$DW$240, DW_AT_TI_begin_line(0x4bb)
    2685                      .dwattr $C$DW$240, DW_AT_TI_begin_column(0x16)
    2686                      .dwattr $C$DW$240, DW_AT_TI_max_frame_size(0x08)
    2687                      .dwpsn  file "../FreeRTOS/Source/queue.c",line 1212,column 1,is_stmt,address _xQueueCRSend
    2688              
    2689                      .dwfde $C$DW$CIE, _xQueueCRSend
    2690              $C$DW$241       .dwtag  DW_TAG_formal_parameter, DW_AT_name("pxQueue")
    2691                      .dwattr $C$DW$241, DW_AT_TI_symbol_name("_pxQueue")
    2692                      .dwattr $C$DW$241, DW_AT_type(*$C$DW$T$38)
    2693                      .dwattr $C$DW$241, DW_AT_location[DW_OP_reg17]
    2694              $C$DW$242       .dwtag  DW_TAG_formal_parameter, DW_AT_name("pvItemToQueue")
    2695                      .dwattr $C$DW$242, DW_AT_TI_symbol_name("_pvItemToQueue")
    2696                      .dwattr $C$DW$242, DW_AT_type(*$C$DW$T$42)
    2697                      .dwattr $C$DW$242, DW_AT_location[DW_OP_reg19]
    2698              $C$DW$243       .dwtag  DW_TAG_formal_parameter, DW_AT_name("xTicksToWait")
    2699                      .dwattr $C$DW$243, DW_AT_TI_symbol_name("_xTicksToWait")
    2700                      .dwattr $C$DW$243, DW_AT_type(*$C$DW$T$29)
    2701                      .dwattr $C$DW$243, DW_AT_location[DW_OP_reg12]
    2702              ;*******************************************************************************
    2703              ;* FUNCTION NAME: xQueueCRSend                                                 *
    2704              ;*                                                                             *
    2705              ;*   Function Uses Regs : T0,AR0,XAR0,AR1,XAR1,AR2,AR3,XAR3,SP,TC1,M40,SATA,   *
    2706              ;*                        SATD,RDM,FRCT,SMUL                                   *
    2707              ;*   Stack Frame        : Compact (No Frame Pointer, w/ debug)                 *
    2708              ;*   Total Frame Size   : 8 words                                              *
    2709              ;*                        (2 return address/alignment)                         *
    2710              ;*                        (6 local values)                                     *
    2711              ;*   Min System Stack   : 1 word                                               *
    2712              ;*******************************************************************************
    2713 0007c0       _xQueueCRSend:
    2714                      .dwcfi  cfa_offset, 1
    2715                      .dwcfi  save_reg_to_mem, 91, -1
    2716 0007c0 4EF9          AADD #-7, SP
    2717                      .dwcfi  cfa_offset, 8
    2718              $C$DW$244       .dwtag  DW_TAG_variable, DW_AT_name("pxQueue")
    2719                      .dwattr $C$DW$244, DW_AT_TI_symbol_name("_pxQueue")
    2720                      .dwattr $C$DW$244, DW_AT_type(*$C$DW$T$38)
    2721                      .dwattr $C$DW$244, DW_AT_location[DW_OP_bregx 0x24 0]
    2722              $C$DW$245       .dwtag  DW_TAG_variable, DW_AT_name("pvItemToQueue")
    2723                      .dwattr $C$DW$245, DW_AT_TI_symbol_name("_pvItemToQueue")
    2724                      .dwattr $C$DW$245, DW_AT_type(*$C$DW$T$42)
    2725                      .dwattr $C$DW$245, DW_AT_location[DW_OP_bregx 0x24 2]
    2726              $C$DW$246       .dwtag  DW_TAG_variable, DW_AT_name("xTicksToWait")
    2727                      .dwattr $C$DW$246, DW_AT_TI_symbol_name("_xTicksToWait")
    2728                      .dwattr $C$DW$246, DW_AT_type(*$C$DW$T$29)
    2729                      .dwattr $C$DW$246, DW_AT_location[DW_OP_bregx 0x24 4]
    2730              $C$DW$247       .dwtag  DW_TAG_variable, DW_AT_name("xReturn")
    2731                      .dwattr $C$DW$247, DW_AT_TI_symbol_name("_xReturn")
    2732                      .dwattr $C$DW$247, DW_AT_type(*$C$DW$T$10)
    2733                      .dwattr $C$DW$247, DW_AT_location[DW_OP_bregx 0x24 5]
TMS320C55x Assembler PC v4.4.1 Sat Sep 08 23:28:20 2018

Tools Copyright (c) 1996-2012 Texas Instruments Incorporated
queue.asm                                                            PAGE   60

    2734 0007c2 C408          MOV T0, *SP(#4) ; |1212| 
    2735 0007c4 EB04          MOV XAR1, dbl(*SP(#2))
         0007c6 95   
    2736 0007c7 EB00          MOV XAR0, dbl(*SP(#0))
         0007c9 85   
    2737                      .dwpsn  file "../FreeRTOS/Source/queue.c",line 1218,column 2,is_stmt
    2738 0007ca 20     nop
    2739 0007cb 46B3   bset INTM
    2740                      .dwpsn  file "../FreeRTOS/Source/queue.c",line 1220,column 3,is_stmt
    2741              $C$DW$248       .dwtag  DW_TAG_TI_branch
    2742                      .dwattr $C$DW$248, DW_AT_low_pc(0x00)
    2743                      .dwattr $C$DW$248, DW_AT_name("_prvIsQueueFull")
    2744                      .dwattr $C$DW$248, DW_AT_TI_call
    2745 0007cd 08FF          CALL #_prvIsQueueFull ; |1220| 
         0007cf 84   
    2746                                                      ; call occurs [#_prvIsQueueFull] ; |1220| 
    2747 0007d0 0404          BCC $C$L65,T0 == #0 ; |1220| 
         0007d2 21   
    2748                                                      ; branchcc occurs ; |1220| 
    2749                      .dwpsn  file "../FreeRTOS/Source/queue.c",line 1224,column 4,is_stmt
    2750 0007d3 A908          MOV *SP(#4), AR1 ; |1224| 
    2751 0007d5 0409          BCC $C$L64,AR1 == #0 ; |1224| 
         0007d7 14   
    2752                                                      ; branchcc occurs ; |1224| 
    2753                      .dwpsn  file "../FreeRTOS/Source/queue.c",line 1228,column 5,is_stmt
    2754 0007d8 ED00          MOV dbl(*SP(#0)), XAR0
         0007da 8F   
    2755 0007db 1408          AADD #8, AR0 ; |1228| 
         0007dd 84   
    2756              $C$DW$249       .dwtag  DW_TAG_TI_branch
    2757                      .dwattr $C$DW$249, DW_AT_low_pc(0x00)
    2758                      .dwattr $C$DW$249, DW_AT_name("_vCoRoutineAddToDelayedList")
    2759                      .dwattr $C$DW$249, DW_AT_TI_call
    2760              
    2761 0007de 6C00          CALL #_vCoRoutineAddToDelayedList ; |1228| 
         0007e0 0000!
    2762 0007e2 2394  ||      MOV AR1, T0 ; |1228| 
    2763              
    2764                                                      ; call occurs [#_vCoRoutineAddToDelayedList] ; |1228| 
    2765                      .dwpsn  file "../FreeRTOS/Source/queue.c",line 1229,column 5,is_stmt
    2766 0007e4 20     nop
    2767 0007e5 46B2   bclr INTM
    2768                      .dwpsn  file "../FreeRTOS/Source/queue.c",line 1230,column 5,is_stmt
    2769 0007e7 3E44          MOV #-4, T0
    2770 0007e9 0600          B $C$L68  ; |1230| 
         0007eb 50   
    2771                                                      ; branch occurs ; |1230| 
    2772 0007ec       $C$L64:    
    2773                      .dwpsn  file "../FreeRTOS/Source/queue.c",line 1234,column 5,is_stmt
    2774 0007ec 20     nop
    2775 0007ed 46B2   bclr INTM
    2776                      .dwpsn  file "../FreeRTOS/Source/queue.c",line 1235,column 5,is_stmt
    2777 0007ef 3C04          MOV #0, T0
    2778 0007f1 0600          B $C$L68  ; |1235| 
         0007f3 48   
TMS320C55x Assembler PC v4.4.1 Sat Sep 08 23:28:20 2018

Tools Copyright (c) 1996-2012 Texas Instruments Incorporated
queue.asm                                                            PAGE   61

    2779                                                      ; branch occurs ; |1235| 
    2780 0007f4       $C$L65:    
    2781                      .dwpsn  file "../FreeRTOS/Source/queue.c",line 1239,column 2,is_stmt
    2782 0007f4 20     nop
    2783 0007f5 46B2   bclr INTM
    2784                      .dwpsn  file "../FreeRTOS/Source/queue.c",line 1243,column 2,is_stmt
    2785 0007f7 20     nop
    2786 0007f8 46B3   bset INTM
    2787                      .dwpsn  file "../FreeRTOS/Source/queue.c",line 1245,column 3,is_stmt
    2788 0007fa ED00          MOV dbl(*SP(#0)), XAR3
         0007fc BF   
    2789 0007fd A96D          MOV *AR3(#29), AR1 ; |1245| 
         0007ff 001D 
    2790 000801 AA6D          MOV *AR3(#28), AR2 ; |1245| 
         000803 001C 
    2791 000805 12A8          CMPU AR2 >= AR1, TC1 ; |1245| 
         000807 94   
    2792 000808 0464          BCC $C$L66,TC1 ; |1245| 
         00080a 29   
    2793                                                      ; branchcc occurs ; |1245| 
    2794                      .dwpsn  file "../FreeRTOS/Source/queue.c",line 1248,column 4,is_stmt
    2795 00080b ED00          MOV dbl(*SP(#0)), XAR0
         00080d 8F   
    2796 00080e ED04          MOV dbl(*SP(#2)), XAR1
         000810 9F   
    2797              $C$DW$250       .dwtag  DW_TAG_TI_branch
    2798                      .dwattr $C$DW$250, DW_AT_low_pc(0x00)
    2799                      .dwattr $C$DW$250, DW_AT_name("_prvCopyDataToQueue")
    2800                      .dwattr $C$DW$250, DW_AT_TI_call
    2801              
    2802 000811 08FD          CALL #_prvCopyDataToQueue ; |1248| 
         000813 02   
    2803 000814 3D04  ||      MOV #0, T0
    2804              
    2805                                                      ; call occurs [#_prvCopyDataToQueue] ; |1248| 
    2806                      .dwpsn  file "../FreeRTOS/Source/queue.c",line 1249,column 4,is_stmt
    2807 000816 E60A          MOV #1, *SP(#5) ; |1249| 
         000818 01   
    2808                      .dwpsn  file "../FreeRTOS/Source/queue.c",line 1252,column 4,is_stmt
    2809 000819 ED00          MOV dbl(*SP(#0)), XAR3
         00081b BF   
    2810 00081c A96D          MOV *AR3(#18), AR1 ; |1252| 
         00081e 0012 
    2811 000820 0409          BCC $C$L67,AR1 == #0 ; |1252| 
         000822 14   
    2812                                                      ; branchcc occurs ; |1252| 
    2813                      .dwpsn  file "../FreeRTOS/Source/queue.c",line 1258,column 5,is_stmt
    2814 000823 ED00          MOV dbl(*SP(#0)), XAR0
         000825 8F   
    2815 000826 1412          AADD #18, AR0 ; |1258| 
         000828 84   
    2816              $C$DW$251       .dwtag  DW_TAG_TI_branch
    2817                      .dwattr $C$DW$251, DW_AT_low_pc(0x00)
    2818                      .dwattr $C$DW$251, DW_AT_name("_xCoRoutineRemoveFromEventList")
    2819                      .dwattr $C$DW$251, DW_AT_TI_call
TMS320C55x Assembler PC v4.4.1 Sat Sep 08 23:28:20 2018

Tools Copyright (c) 1996-2012 Texas Instruments Incorporated
queue.asm                                                            PAGE   62

    2820 000829 6C00          CALL #_xCoRoutineRemoveFromEventList ; |1258| 
         00082b 0000!
    2821                                                      ; call occurs [#_xCoRoutineRemoveFromEventList] ; |1258| 
    2822 00082d 6404          BCC $C$L67,T0 == #0 ; |1258| 
    2823                                                      ; branchcc occurs ; |1258| 
    2824                      .dwpsn  file "../FreeRTOS/Source/queue.c",line 1262,column 6,is_stmt
    2825 00082f E60A          MOV #-5, *SP(#5) ; |1262| 
         000831 FB   
    2826                      .dwpsn  file "../FreeRTOS/Source/queue.c",line 1265,column 3,is_stmt
    2827 000832 4A03          B $C$L67  ; |1265| 
    2828                                                      ; branch occurs ; |1265| 
    2829 000834       $C$L66:    
    2830                      .dwpsn  file "../FreeRTOS/Source/queue.c",line 1268,column 4,is_stmt
    2831 000834 E60A          MOV #0, *SP(#5) ; |1268| 
         000836 00   
    2832 000837       $C$L67:    
    2833                      .dwpsn  file "../FreeRTOS/Source/queue.c",line 1271,column 2,is_stmt
    2834 000837 20     nop
    2835 000838 46B2   bclr INTM
    2836                      .dwpsn  file "../FreeRTOS/Source/queue.c",line 1273,column 2,is_stmt
    2837 00083a A40A          MOV *SP(#5), T0 ; |1273| 
    2838 00083c       $C$L68:    
    2839                      .dwpsn  file "../FreeRTOS/Source/queue.c",line 1274,column 1,is_stmt
    2840 00083c 4E07          AADD #7, SP
    2841                      .dwcfi  cfa_offset, 1
    2842              $C$DW$252       .dwtag  DW_TAG_TI_branch
    2843                      .dwattr $C$DW$252, DW_AT_low_pc(0x00)
    2844                      .dwattr $C$DW$252, DW_AT_TI_return
    2845 00083e 4804          RET
    2846                                                      ; return occurs
    2847                      .dwattr $C$DW$240, DW_AT_TI_end_file("../FreeRTOS/Source/queue.c")
    2848                      .dwattr $C$DW$240, DW_AT_TI_end_line(0x4fa)
    2849                      .dwattr $C$DW$240, DW_AT_TI_end_column(0x01)
    2850                      .dwendentry
    2851                      .dwendtag $C$DW$240
    2852              
    2853 000840               .sect   ".text"
    2854                      .align 4
    2855                      .global _xQueueCRReceive
    2856              
    2857              $C$DW$253       .dwtag  DW_TAG_subprogram, DW_AT_name("xQueueCRReceive")
    2858                      .dwattr $C$DW$253, DW_AT_low_pc(_xQueueCRReceive)
    2859                      .dwattr $C$DW$253, DW_AT_high_pc(0x00)
    2860                      .dwattr $C$DW$253, DW_AT_TI_symbol_name("_xQueueCRReceive")
    2861                      .dwattr $C$DW$253, DW_AT_external
    2862                      .dwattr $C$DW$253, DW_AT_type(*$C$DW$T$10)
    2863                      .dwattr $C$DW$253, DW_AT_TI_begin_file("../FreeRTOS/Source/queue.c")
    2864                      .dwattr $C$DW$253, DW_AT_TI_begin_line(0x4ff)
    2865                      .dwattr $C$DW$253, DW_AT_TI_begin_column(0x16)
    2866                      .dwattr $C$DW$253, DW_AT_TI_max_frame_size(0x08)
    2867                      .dwpsn  file "../FreeRTOS/Source/queue.c",line 1280,column 1,is_stmt,address _xQueueCRReceive
    2868              
    2869                      .dwfde $C$DW$CIE, _xQueueCRReceive
    2870              $C$DW$254       .dwtag  DW_TAG_formal_parameter, DW_AT_name("pxQueue")
    2871                      .dwattr $C$DW$254, DW_AT_TI_symbol_name("_pxQueue")
TMS320C55x Assembler PC v4.4.1 Sat Sep 08 23:28:20 2018

Tools Copyright (c) 1996-2012 Texas Instruments Incorporated
queue.asm                                                            PAGE   63

    2872                      .dwattr $C$DW$254, DW_AT_type(*$C$DW$T$38)
    2873                      .dwattr $C$DW$254, DW_AT_location[DW_OP_reg17]
    2874              $C$DW$255       .dwtag  DW_TAG_formal_parameter, DW_AT_name("pvBuffer")
    2875                      .dwattr $C$DW$255, DW_AT_TI_symbol_name("_pvBuffer")
    2876                      .dwattr $C$DW$255, DW_AT_type(*$C$DW$T$3)
    2877                      .dwattr $C$DW$255, DW_AT_location[DW_OP_reg19]
    2878              $C$DW$256       .dwtag  DW_TAG_formal_parameter, DW_AT_name("xTicksToWait")
    2879                      .dwattr $C$DW$256, DW_AT_TI_symbol_name("_xTicksToWait")
    2880                      .dwattr $C$DW$256, DW_AT_type(*$C$DW$T$29)
    2881                      .dwattr $C$DW$256, DW_AT_location[DW_OP_reg12]
    2882              ;*******************************************************************************
    2883              ;* FUNCTION NAME: xQueueCRReceive                                              *
    2884              ;*                                                                             *
    2885              ;*   Function Uses Regs : AC0,AC0,AC1,AC1,T0,AR0,XAR0,AR1,XAR1,AR2,XAR2,AR3,   *
    2886              ;*                        XAR3,SP,CARRY,TC1,M40,SATA,SATD,RDM,FRCT,SMUL        *
    2887              ;*   Stack Frame        : Compact (No Frame Pointer, w/ debug)                 *
    2888              ;*   Total Frame Size   : 8 words                                              *
    2889              ;*                        (2 return address/alignment)                         *
    2890              ;*                        (6 local values)                                     *
    2891              ;*   Min System Stack   : 1 word                                               *
    2892              ;*******************************************************************************
    2893 000840       _xQueueCRReceive:
    2894                      .dwcfi  cfa_offset, 1
    2895                      .dwcfi  save_reg_to_mem, 91, -1
    2896 000840 4EF9          AADD #-7, SP
    2897                      .dwcfi  cfa_offset, 8
    2898              $C$DW$257       .dwtag  DW_TAG_variable, DW_AT_name("pxQueue")
    2899                      .dwattr $C$DW$257, DW_AT_TI_symbol_name("_pxQueue")
    2900                      .dwattr $C$DW$257, DW_AT_type(*$C$DW$T$38)
    2901                      .dwattr $C$DW$257, DW_AT_location[DW_OP_bregx 0x24 0]
    2902              $C$DW$258       .dwtag  DW_TAG_variable, DW_AT_name("pvBuffer")
    2903                      .dwattr $C$DW$258, DW_AT_TI_symbol_name("_pvBuffer")
    2904                      .dwattr $C$DW$258, DW_AT_type(*$C$DW$T$3)
    2905                      .dwattr $C$DW$258, DW_AT_location[DW_OP_bregx 0x24 2]
    2906              $C$DW$259       .dwtag  DW_TAG_variable, DW_AT_name("xTicksToWait")
    2907                      .dwattr $C$DW$259, DW_AT_TI_symbol_name("_xTicksToWait")
    2908                      .dwattr $C$DW$259, DW_AT_type(*$C$DW$T$29)
    2909                      .dwattr $C$DW$259, DW_AT_location[DW_OP_bregx 0x24 4]
    2910              $C$DW$260       .dwtag  DW_TAG_variable, DW_AT_name("xReturn")
    2911                      .dwattr $C$DW$260, DW_AT_TI_symbol_name("_xReturn")
    2912                      .dwattr $C$DW$260, DW_AT_type(*$C$DW$T$10)
    2913                      .dwattr $C$DW$260, DW_AT_location[DW_OP_bregx 0x24 5]
    2914 000842 C408          MOV T0, *SP(#4) ; |1280| 
    2915 000844 EB04          MOV XAR1, dbl(*SP(#2))
         000846 95   
    2916 000847 EB00          MOV XAR0, dbl(*SP(#0))
         000849 85   
    2917                      .dwpsn  file "../FreeRTOS/Source/queue.c",line 1286,column 2,is_stmt
    2918 00084a 20     nop
    2919 00084b 46B3   bset INTM
    2920                      .dwpsn  file "../FreeRTOS/Source/queue.c",line 1288,column 3,is_stmt
    2921 00084d ED00          MOV dbl(*SP(#0)), XAR3
         00084f BF   
    2922 000850 A96D          MOV *AR3(#28), AR1 ; |1288| 
         000852 001C 
TMS320C55x Assembler PC v4.4.1 Sat Sep 08 23:28:20 2018

Tools Copyright (c) 1996-2012 Texas Instruments Incorporated
queue.asm                                                            PAGE   64

    2923 000854 0419          BCC $C$L70,AR1 != #0 ; |1288| 
         000856 1E   
    2924                                                      ; branchcc occurs ; |1288| 
    2925                      .dwpsn  file "../FreeRTOS/Source/queue.c",line 1292,column 4,is_stmt
    2926 000857 A908          MOV *SP(#4), AR1 ; |1292| 
    2927 000859 0409          BCC $C$L69,AR1 == #0 ; |1292| 
         00085b 11   
    2928                                                      ; branchcc occurs ; |1292| 
    2929                      .dwpsn  file "../FreeRTOS/Source/queue.c",line 1296,column 5,is_stmt
    2930 00085c 1412          AADD #18, AR0 ; |1296| 
         00085e 84   
    2931              $C$DW$261       .dwtag  DW_TAG_TI_branch
    2932                      .dwattr $C$DW$261, DW_AT_low_pc(0x00)
    2933                      .dwattr $C$DW$261, DW_AT_name("_vCoRoutineAddToDelayedList")
    2934                      .dwattr $C$DW$261, DW_AT_TI_call
    2935              
    2936 00085f 6C00          CALL #_vCoRoutineAddToDelayedList ; |1296| 
         000861 0000!
    2937 000863 2394  ||      MOV AR1, T0 ; |1296| 
    2938              
    2939                                                      ; call occurs [#_vCoRoutineAddToDelayedList] ; |1296| 
    2940                      .dwpsn  file "../FreeRTOS/Source/queue.c",line 1297,column 5,is_stmt
    2941 000865 20     nop
    2942 000866 46B2   bclr INTM
    2943                      .dwpsn  file "../FreeRTOS/Source/queue.c",line 1298,column 5,is_stmt
    2944 000868 3E44          MOV #-4, T0
    2945 00086a 0600          B $C$L74  ; |1298| 
         00086c 83   
    2946                                                      ; branch occurs ; |1298| 
    2947 00086d       $C$L69:    
    2948                      .dwpsn  file "../FreeRTOS/Source/queue.c",line 1302,column 5,is_stmt
    2949 00086d 20     nop
    2950 00086e 46B2   bclr INTM
    2951                      .dwpsn  file "../FreeRTOS/Source/queue.c",line 1303,column 5,is_stmt
    2952 000870 3C04          MOV #0, T0
    2953 000872 0600          B $C$L74  ; |1303| 
         000874 7B   
    2954                                                      ; branch occurs ; |1303| 
    2955 000875       $C$L70:    
    2956                      .dwpsn  file "../FreeRTOS/Source/queue.c",line 1307,column 2,is_stmt
    2957 000875 20     nop
    2958 000876 46B2   bclr INTM
    2959                      .dwpsn  file "../FreeRTOS/Source/queue.c",line 1311,column 2,is_stmt
    2960 000878 20     nop
    2961 000879 46B3   bset INTM
    2962                      .dwpsn  file "../FreeRTOS/Source/queue.c",line 1313,column 3,is_stmt
    2963 00087b A96D          MOV *AR3(#28), AR1 ; |1313| 
         00087d 001C 
    2964 00087f 0409          BCC $C$L72,AR1 == #0 ; |1313| 
         000881 66   
    2965                                                      ; branchcc occurs ; |1313| 
    2966                      .dwpsn  file "../FreeRTOS/Source/queue.c",line 1316,column 4,is_stmt
    2967 000882 ED00          MOV dbl(*SP(#0)), XAR2
         000884 AF   
    2968 000885 A96D          MOV *AR3(#30), AR1 ; |1316| 
TMS320C55x Assembler PC v4.4.1 Sat Sep 08 23:28:20 2018

Tools Copyright (c) 1996-2012 Texas Instruments Incorporated
queue.asm                                                            PAGE   65

         000887 001E 
    2969 000889 ED5D          MOV dbl(*AR2(short(#6))), XAR3
         00088b BF   
    2970              
    2971 00088c 8E5D          MOV XAR3, dbl(*AR2(short(#6)))
         00088e BB10 
         000890 B590 
    2972              ||      AADD AR1, AR3 ; |1316| 
    2973              
    2974                      .dwpsn  file "../FreeRTOS/Source/queue.c",line 1317,column 4,is_stmt
    2975 000892 ED00          MOV dbl(*SP(#0)), XAR3
         000894 BF   
    2976 000895 ED75          MOV dbl(*AR3(short(#2))), XAR3
         000897 BF   
    2977 000898 90B0          MOV XAR3, AC0
    2978 00089a ED00          MOV dbl(*SP(#0)), XAR3
         00089c BF   
    2979 00089d ED7D          MOV dbl(*AR3(short(#6))), XAR3
         00089f BF   
    2980 0008a0 90B1          MOV XAR3, AC1
    2981 0008a2 1214          CMPU AC1 < AC0, TC1 ; |1317| 
         0008a4 04   
    2982 0008a5 64E4          BCC $C$L71,TC1 ; |1317| 
    2983                                                      ; branchcc occurs ; |1317| 
    2984                      .dwpsn  file "../FreeRTOS/Source/queue.c",line 1319,column 5,is_stmt
    2985 0008a7 ED00          MOV dbl(*SP(#0)), XAR3
         0008a9 BF   
    2986 0008aa ED61          MOV dbl(*AR3), XAR2
         0008ac AF   
    2987 0008ad EB7D          MOV XAR2, dbl(*AR3(short(#6)))
         0008af A5   
    2988 0008b0       $C$L71:    
    2989                      .dwpsn  file "../FreeRTOS/Source/queue.c",line 1321,column 4,is_stmt
    2990 0008b0 ED00          MOV dbl(*SP(#0)), XAR3
         0008b2 BF   
    2991 0008b3 F76D          SUB #1, *AR3(#28) ; |1321| 
         0008b5 FFFF 
         0008b7 001C 
    2992                      .dwpsn  file "../FreeRTOS/Source/queue.c",line 1322,column 4,is_stmt
    2993 0008b9 ED00          MOV dbl(*SP(#0)), XAR3
         0008bb BF   
    2994 0008bc ED04          MOV dbl(*SP(#2)), XAR0
         0008be 8F   
    2995 0008bf ED7D          MOV dbl(*AR3(short(#6))), XAR1
         0008c1 9F   
    2996 0008c2 A46D          MOV *AR3(#30), T0 ; |1322| 
         0008c4 001E 
    2997              $C$DW$262       .dwtag  DW_TAG_TI_branch
    2998                      .dwattr $C$DW$262, DW_AT_low_pc(0x00)
    2999                      .dwattr $C$DW$262, DW_AT_name("_memcpy")
    3000                      .dwattr $C$DW$262, DW_AT_TI_call
    3001 0008c6 6C00          CALL #_memcpy ; |1322| 
         0008c8 0000!
    3002                                                      ; call occurs [#_memcpy] ; |1322| 
    3003                      .dwpsn  file "../FreeRTOS/Source/queue.c",line 1324,column 4,is_stmt
TMS320C55x Assembler PC v4.4.1 Sat Sep 08 23:28:20 2018

Tools Copyright (c) 1996-2012 Texas Instruments Incorporated
queue.asm                                                            PAGE   66

    3004 0008ca E60A          MOV #1, *SP(#5) ; |1324| 
         0008cc 01   
    3005                      .dwpsn  file "../FreeRTOS/Source/queue.c",line 1327,column 4,is_stmt
    3006 0008cd ED00          MOV dbl(*SP(#0)), XAR3
         0008cf BF   
    3007 0008d0 A96D          MOV *AR3(#8), AR1 ; |1327| 
         0008d2 0008 
    3008 0008d4 0409          BCC $C$L73,AR1 == #0 ; |1327| 
         0008d6 14   
    3009                                                      ; branchcc occurs ; |1327| 
    3010                      .dwpsn  file "../FreeRTOS/Source/queue.c",line 1333,column 5,is_stmt
    3011 0008d7 ED00          MOV dbl(*SP(#0)), XAR0
         0008d9 8F   
    3012 0008da 1408          AADD #8, AR0 ; |1333| 
         0008dc 84   
    3013              $C$DW$263       .dwtag  DW_TAG_TI_branch
    3014                      .dwattr $C$DW$263, DW_AT_low_pc(0x00)
    3015                      .dwattr $C$DW$263, DW_AT_name("_xCoRoutineRemoveFromEventList")
    3016                      .dwattr $C$DW$263, DW_AT_TI_call
    3017 0008dd 6C00          CALL #_xCoRoutineRemoveFromEventList ; |1333| 
         0008df 0000!
    3018                                                      ; call occurs [#_xCoRoutineRemoveFromEventList] ; |1333| 
    3019 0008e1 6404          BCC $C$L73,T0 == #0 ; |1333| 
    3020                                                      ; branchcc occurs ; |1333| 
    3021                      .dwpsn  file "../FreeRTOS/Source/queue.c",line 1335,column 6,is_stmt
    3022 0008e3 E60A          MOV #-5, *SP(#5) ; |1335| 
         0008e5 FB   
    3023                      .dwpsn  file "../FreeRTOS/Source/queue.c",line 1338,column 3,is_stmt
    3024 0008e6 4A03          B $C$L73  ; |1338| 
    3025                                                      ; branch occurs ; |1338| 
    3026 0008e8       $C$L72:    
    3027                      .dwpsn  file "../FreeRTOS/Source/queue.c",line 1341,column 4,is_stmt
    3028 0008e8 E60A          MOV #0, *SP(#5) ; |1341| 
         0008ea 00   
    3029 0008eb       $C$L73:    
    3030                      .dwpsn  file "../FreeRTOS/Source/queue.c",line 1344,column 2,is_stmt
    3031 0008eb 20     nop
    3032 0008ec 46B2   bclr INTM
    3033                      .dwpsn  file "../FreeRTOS/Source/queue.c",line 1346,column 2,is_stmt
    3034 0008ee A40A          MOV *SP(#5), T0 ; |1346| 
    3035 0008f0       $C$L74:    
    3036                      .dwpsn  file "../FreeRTOS/Source/queue.c",line 1347,column 1,is_stmt
    3037 0008f0 4E07          AADD #7, SP
    3038                      .dwcfi  cfa_offset, 1
    3039              $C$DW$264       .dwtag  DW_TAG_TI_branch
    3040                      .dwattr $C$DW$264, DW_AT_low_pc(0x00)
    3041                      .dwattr $C$DW$264, DW_AT_TI_return
    3042 0008f2 4804          RET
    3043                                                      ; return occurs
    3044                      .dwattr $C$DW$253, DW_AT_TI_end_file("../FreeRTOS/Source/queue.c")
    3045                      .dwattr $C$DW$253, DW_AT_TI_end_line(0x543)
    3046                      .dwattr $C$DW$253, DW_AT_TI_end_column(0x01)
    3047                      .dwendentry
    3048                      .dwendtag $C$DW$253
    3049              
TMS320C55x Assembler PC v4.4.1 Sat Sep 08 23:28:20 2018

Tools Copyright (c) 1996-2012 Texas Instruments Incorporated
queue.asm                                                            PAGE   67

    3050 0008f4               .sect   ".text"
    3051                      .align 4
    3052                      .global _xQueueCRSendFromISR
    3053              
    3054              $C$DW$265       .dwtag  DW_TAG_subprogram, DW_AT_name("xQueueCRSendFromISR")
    3055                      .dwattr $C$DW$265, DW_AT_low_pc(_xQueueCRSendFromISR)
    3056                      .dwattr $C$DW$265, DW_AT_high_pc(0x00)
    3057                      .dwattr $C$DW$265, DW_AT_TI_symbol_name("_xQueueCRSendFromISR")
    3058                      .dwattr $C$DW$265, DW_AT_external
    3059                      .dwattr $C$DW$265, DW_AT_type(*$C$DW$T$10)
    3060                      .dwattr $C$DW$265, DW_AT_TI_begin_file("../FreeRTOS/Source/queue.c")
    3061                      .dwattr $C$DW$265, DW_AT_TI_begin_line(0x54a)
    3062                      .dwattr $C$DW$265, DW_AT_TI_begin_column(0x16)
    3063                      .dwattr $C$DW$265, DW_AT_TI_max_frame_size(0x06)
    3064                      .dwpsn  file "../FreeRTOS/Source/queue.c",line 1355,column 1,is_stmt,address _xQueueCRSendFromISR
    3065              
    3066                      .dwfde $C$DW$CIE, _xQueueCRSendFromISR
    3067              $C$DW$266       .dwtag  DW_TAG_formal_parameter, DW_AT_name("pxQueue")
    3068                      .dwattr $C$DW$266, DW_AT_TI_symbol_name("_pxQueue")
    3069                      .dwattr $C$DW$266, DW_AT_type(*$C$DW$T$38)
    3070                      .dwattr $C$DW$266, DW_AT_location[DW_OP_reg17]
    3071              $C$DW$267       .dwtag  DW_TAG_formal_parameter, DW_AT_name("pvItemToQueue")
    3072                      .dwattr $C$DW$267, DW_AT_TI_symbol_name("_pvItemToQueue")
    3073                      .dwattr $C$DW$267, DW_AT_type(*$C$DW$T$42)
    3074                      .dwattr $C$DW$267, DW_AT_location[DW_OP_reg19]
    3075              $C$DW$268       .dwtag  DW_TAG_formal_parameter, DW_AT_name("xCoRoutinePreviouslyWoken")
    3076                      .dwattr $C$DW$268, DW_AT_TI_symbol_name("_xCoRoutinePreviouslyWoken")
    3077                      .dwattr $C$DW$268, DW_AT_type(*$C$DW$T$10)
    3078                      .dwattr $C$DW$268, DW_AT_location[DW_OP_reg12]
    3079              ;*******************************************************************************
    3080              ;* FUNCTION NAME: xQueueCRSendFromISR                                          *
    3081              ;*                                                                             *
    3082              ;*   Function Uses Regs : T0,AR0,XAR0,AR1,XAR1,AR2,AR3,XAR3,SP,TC1,M40,SATA,   *
    3083              ;*                        SATD,RDM,FRCT,SMUL                                   *
    3084              ;*   Stack Frame        : Compact (No Frame Pointer, w/ debug)                 *
    3085              ;*   Total Frame Size   : 6 words                                              *
    3086              ;*                        (1 return address/alignment)                         *
    3087              ;*                        (5 local values)                                     *
    3088              ;*   Min System Stack   : 1 word                                               *
    3089              ;*******************************************************************************
    3090 0008f4       _xQueueCRSendFromISR:
    3091                      .dwcfi  cfa_offset, 1
    3092                      .dwcfi  save_reg_to_mem, 91, -1
    3093 0008f4 4EFB          AADD #-5, SP
    3094                      .dwcfi  cfa_offset, 6
    3095              $C$DW$269       .dwtag  DW_TAG_variable, DW_AT_name("pxQueue")
    3096                      .dwattr $C$DW$269, DW_AT_TI_symbol_name("_pxQueue")
    3097                      .dwattr $C$DW$269, DW_AT_type(*$C$DW$T$38)
    3098                      .dwattr $C$DW$269, DW_AT_location[DW_OP_bregx 0x24 0]
    3099              $C$DW$270       .dwtag  DW_TAG_variable, DW_AT_name("pvItemToQueue")
    3100                      .dwattr $C$DW$270, DW_AT_TI_symbol_name("_pvItemToQueue")
    3101                      .dwattr $C$DW$270, DW_AT_type(*$C$DW$T$42)
    3102                      .dwattr $C$DW$270, DW_AT_location[DW_OP_bregx 0x24 2]
    3103              $C$DW$271       .dwtag  DW_TAG_variable, DW_AT_name("xCoRoutinePreviouslyWoken")
    3104                      .dwattr $C$DW$271, DW_AT_TI_symbol_name("_xCoRoutinePreviouslyWoken")
TMS320C55x Assembler PC v4.4.1 Sat Sep 08 23:28:20 2018

Tools Copyright (c) 1996-2012 Texas Instruments Incorporated
queue.asm                                                            PAGE   68

    3105                      .dwattr $C$DW$271, DW_AT_type(*$C$DW$T$10)
    3106                      .dwattr $C$DW$271, DW_AT_location[DW_OP_bregx 0x24 4]
    3107 0008f6 C408          MOV T0, *SP(#4) ; |1355| 
    3108 0008f8 EB04          MOV XAR1, dbl(*SP(#2))
         0008fa 95   
    3109 0008fb EB00          MOV XAR0, dbl(*SP(#0))
         0008fd 85   
    3110                      .dwpsn  file "../FreeRTOS/Source/queue.c",line 1358,column 2,is_stmt
    3111 0008fe ED00          MOV dbl(*SP(#0)), XAR3
         000900 BF   
    3112 000901 AA6D          MOV *AR3(#28), AR2 ; |1358| 
         000903 001C 
    3113 000905 A96D          MOV *AR3(#29), AR1 ; |1358| 
         000907 001D 
    3114 000909 12A8          CMPU AR2 >= AR1, TC1 ; |1358| 
         00090b 94   
    3115 00090c 0464          BCC $C$L75,TC1 ; |1358| 
         00090e 27   
    3116                                                      ; branchcc occurs ; |1358| 
    3117                      .dwpsn  file "../FreeRTOS/Source/queue.c",line 1360,column 3,is_stmt
    3118 00090f ED04          MOV dbl(*SP(#2)), XAR1
         000911 9F   
    3119              $C$DW$272       .dwtag  DW_TAG_TI_branch
    3120                      .dwattr $C$DW$272, DW_AT_low_pc(0x00)
    3121                      .dwattr $C$DW$272, DW_AT_name("_prvCopyDataToQueue")
    3122                      .dwattr $C$DW$272, DW_AT_TI_call
    3123              
    3124 000912 08FC          CALL #_prvCopyDataToQueue ; |1360| 
         000914 01   
    3125 000915 3D04  ||      MOV #0, T0
    3126              
    3127                                                      ; call occurs [#_prvCopyDataToQueue] ; |1360| 
    3128                      .dwpsn  file "../FreeRTOS/Source/queue.c",line 1364,column 3,is_stmt
    3129 000917 A908          MOV *SP(#4), AR1 ; |1364| 
    3130 000919 0419          BCC $C$L75,AR1 != #0 ; |1364| 
         00091b 1A   
    3131                                                      ; branchcc occurs ; |1364| 
    3132                      .dwpsn  file "../FreeRTOS/Source/queue.c",line 1366,column 4,is_stmt
    3133 00091c ED00          MOV dbl(*SP(#0)), XAR3
         00091e BF   
    3134 00091f A96D          MOV *AR3(#18), AR1 ; |1366| 
         000921 0012 
    3135 000923 0409          BCC $C$L75,AR1 == #0 ; |1366| 
         000925 10   
    3136                                                      ; branchcc occurs ; |1366| 
    3137                      .dwpsn  file "../FreeRTOS/Source/queue.c",line 1368,column 5,is_stmt
    3138 000926 ED00          MOV dbl(*SP(#0)), XAR0
         000928 8F   
    3139 000929 1412          AADD #18, AR0 ; |1368| 
         00092b 84   
    3140              $C$DW$273       .dwtag  DW_TAG_TI_branch
    3141                      .dwattr $C$DW$273, DW_AT_low_pc(0x00)
    3142                      .dwattr $C$DW$273, DW_AT_name("_xCoRoutineRemoveFromEventList")
    3143                      .dwattr $C$DW$273, DW_AT_TI_call
    3144 00092c 6C00          CALL #_xCoRoutineRemoveFromEventList ; |1368| 
TMS320C55x Assembler PC v4.4.1 Sat Sep 08 23:28:20 2018

Tools Copyright (c) 1996-2012 Texas Instruments Incorporated
queue.asm                                                            PAGE   69

         00092e 0000!
    3145                                                      ; call occurs [#_xCoRoutineRemoveFromEventList] ; |1368| 
    3146 000930 6204          BCC $C$L75,T0 == #0 ; |1368| 
    3147                                                      ; branchcc occurs ; |1368| 
    3148                      .dwpsn  file "../FreeRTOS/Source/queue.c",line 1370,column 6,is_stmt
    3149 000932 3C14          MOV #1, T0
    3150 000934 4A02          B $C$L76  ; |1370| 
    3151                                                      ; branch occurs ; |1370| 
    3152 000936       $C$L75:    
    3153                      .dwpsn  file "../FreeRTOS/Source/queue.c",line 1376,column 2,is_stmt
    3154 000936 A408          MOV *SP(#4), T0 ; |1376| 
    3155 000938       $C$L76:    
    3156                      .dwpsn  file "../FreeRTOS/Source/queue.c",line 1377,column 1,is_stmt
    3157 000938 4E05          AADD #5, SP
    3158                      .dwcfi  cfa_offset, 1
    3159              $C$DW$274       .dwtag  DW_TAG_TI_branch
    3160                      .dwattr $C$DW$274, DW_AT_low_pc(0x00)
    3161                      .dwattr $C$DW$274, DW_AT_TI_return
    3162 00093a 4804          RET
    3163                                                      ; return occurs
    3164                      .dwattr $C$DW$265, DW_AT_TI_end_file("../FreeRTOS/Source/queue.c")
    3165                      .dwattr $C$DW$265, DW_AT_TI_end_line(0x561)
    3166                      .dwattr $C$DW$265, DW_AT_TI_end_column(0x01)
    3167                      .dwendentry
    3168                      .dwendtag $C$DW$265
    3169              
    3170 00093c               .sect   ".text"
    3171                      .align 4
    3172                      .global _xQueueCRReceiveFromISR
    3173              
    3174              $C$DW$275       .dwtag  DW_TAG_subprogram, DW_AT_name("xQueueCRReceiveFromISR")
    3175                      .dwattr $C$DW$275, DW_AT_low_pc(_xQueueCRReceiveFromISR)
    3176                      .dwattr $C$DW$275, DW_AT_high_pc(0x00)
    3177                      .dwattr $C$DW$275, DW_AT_TI_symbol_name("_xQueueCRReceiveFromISR")
    3178                      .dwattr $C$DW$275, DW_AT_external
    3179                      .dwattr $C$DW$275, DW_AT_type(*$C$DW$T$10)
    3180                      .dwattr $C$DW$275, DW_AT_TI_begin_file("../FreeRTOS/Source/queue.c")
    3181                      .dwattr $C$DW$275, DW_AT_TI_begin_line(0x566)
    3182                      .dwattr $C$DW$275, DW_AT_TI_begin_column(0x16)
    3183                      .dwattr $C$DW$275, DW_AT_TI_max_frame_size(0x08)
    3184                      .dwpsn  file "../FreeRTOS/Source/queue.c",line 1383,column 1,is_stmt,address _xQueueCRReceiveFromISR
    3185              
    3186                      .dwfde $C$DW$CIE, _xQueueCRReceiveFromISR
    3187              $C$DW$276       .dwtag  DW_TAG_formal_parameter, DW_AT_name("pxQueue")
    3188                      .dwattr $C$DW$276, DW_AT_TI_symbol_name("_pxQueue")
    3189                      .dwattr $C$DW$276, DW_AT_type(*$C$DW$T$38)
    3190                      .dwattr $C$DW$276, DW_AT_location[DW_OP_reg17]
    3191              $C$DW$277       .dwtag  DW_TAG_formal_parameter, DW_AT_name("pvBuffer")
    3192                      .dwattr $C$DW$277, DW_AT_TI_symbol_name("_pvBuffer")
    3193                      .dwattr $C$DW$277, DW_AT_type(*$C$DW$T$3)
    3194                      .dwattr $C$DW$277, DW_AT_location[DW_OP_reg19]
    3195              $C$DW$278       .dwtag  DW_TAG_formal_parameter, DW_AT_name("pxCoRoutineWoken")
    3196                      .dwattr $C$DW$278, DW_AT_TI_symbol_name("_pxCoRoutineWoken")
    3197                      .dwattr $C$DW$278, DW_AT_type(*$C$DW$T$85)
    3198                      .dwattr $C$DW$278, DW_AT_location[DW_OP_reg21]
TMS320C55x Assembler PC v4.4.1 Sat Sep 08 23:28:20 2018

Tools Copyright (c) 1996-2012 Texas Instruments Incorporated
queue.asm                                                            PAGE   70

    3199              ;*******************************************************************************
    3200              ;* FUNCTION NAME: xQueueCRReceiveFromISR                                       *
    3201              ;*                                                                             *
    3202              ;*   Function Uses Regs : AC0,AC0,AC1,AC1,T0,AR0,XAR0,AR1,XAR1,AR2,XAR2,AR3,   *
    3203              ;*                        XAR3,SP,CARRY,TC1,M40,SATA,SATD,RDM,FRCT,SMUL        *
    3204              ;*   Stack Frame        : Compact (No Frame Pointer, w/ debug)                 *
    3205              ;*   Total Frame Size   : 8 words                                              *
    3206              ;*                        (1 return address/alignment)                         *
    3207              ;*                        (7 local values)                                     *
    3208              ;*   Min System Stack   : 1 word                                               *
    3209              ;*******************************************************************************
    3210 00093c       _xQueueCRReceiveFromISR:
    3211                      .dwcfi  cfa_offset, 1
    3212                      .dwcfi  save_reg_to_mem, 91, -1
    3213 00093c 4EF9          AADD #-7, SP
    3214                      .dwcfi  cfa_offset, 8
    3215              $C$DW$279       .dwtag  DW_TAG_variable, DW_AT_name("pxQueue")
    3216                      .dwattr $C$DW$279, DW_AT_TI_symbol_name("_pxQueue")
    3217                      .dwattr $C$DW$279, DW_AT_type(*$C$DW$T$38)
    3218                      .dwattr $C$DW$279, DW_AT_location[DW_OP_bregx 0x24 0]
    3219              $C$DW$280       .dwtag  DW_TAG_variable, DW_AT_name("pvBuffer")
    3220                      .dwattr $C$DW$280, DW_AT_TI_symbol_name("_pvBuffer")
    3221                      .dwattr $C$DW$280, DW_AT_type(*$C$DW$T$3)
    3222                      .dwattr $C$DW$280, DW_AT_location[DW_OP_bregx 0x24 2]
    3223              $C$DW$281       .dwtag  DW_TAG_variable, DW_AT_name("pxCoRoutineWoken")
    3224                      .dwattr $C$DW$281, DW_AT_TI_symbol_name("_pxCoRoutineWoken")
    3225                      .dwattr $C$DW$281, DW_AT_type(*$C$DW$T$85)
    3226                      .dwattr $C$DW$281, DW_AT_location[DW_OP_bregx 0x24 4]
    3227              $C$DW$282       .dwtag  DW_TAG_variable, DW_AT_name("xReturn")
    3228                      .dwattr $C$DW$282, DW_AT_TI_symbol_name("_xReturn")
    3229                      .dwattr $C$DW$282, DW_AT_type(*$C$DW$T$10)
    3230                      .dwattr $C$DW$282, DW_AT_location[DW_OP_bregx 0x24 6]
    3231 00093e EB08          MOV XAR2, dbl(*SP(#4))
         000940 A5   
    3232 000941 EB04          MOV XAR1, dbl(*SP(#2))
         000943 95   
    3233 000944 EB00          MOV XAR0, dbl(*SP(#0))
         000946 85   
    3234                      .dwpsn  file "../FreeRTOS/Source/queue.c",line 1388,column 2,is_stmt
    3235 000947 ED00          MOV dbl(*SP(#0)), XAR3
         000949 BF   
    3236 00094a A96D          MOV *AR3(#28), AR1 ; |1388| 
         00094c 001C 
    3237 00094e 0409          BCC $C$L79,AR1 == #0 ; |1388| 
         000950 71   
    3238                                                      ; branchcc occurs ; |1388| 
    3239                      .dwpsn  file "../FreeRTOS/Source/queue.c",line 1391,column 3,is_stmt
    3240 000951 ED00          MOV dbl(*SP(#0)), XAR2
         000953 AF   
    3241 000954 A96D          MOV *AR3(#30), AR1 ; |1391| 
         000956 001E 
    3242 000958 ED5D          MOV dbl(*AR2(short(#6))), XAR3
         00095a BF   
    3243              
    3244 00095b 8E5D          MOV XAR3, dbl(*AR2(short(#6)))
TMS320C55x Assembler PC v4.4.1 Sat Sep 08 23:28:20 2018

Tools Copyright (c) 1996-2012 Texas Instruments Incorporated
queue.asm                                                            PAGE   71

         00095d BB10 
         00095f B590 
    3245              ||      AADD AR1, AR3 ; |1391| 
    3246              
    3247                      .dwpsn  file "../FreeRTOS/Source/queue.c",line 1392,column 3,is_stmt
    3248 000961 ED00          MOV dbl(*SP(#0)), XAR3
         000963 BF   
    3249 000964 ED75          MOV dbl(*AR3(short(#2))), XAR3
         000966 BF   
    3250 000967 90B0          MOV XAR3, AC0
    3251 000969 ED00          MOV dbl(*SP(#0)), XAR3
         00096b BF   
    3252 00096c ED7D          MOV dbl(*AR3(short(#6))), XAR3
         00096e BF   
    3253 00096f 90B1          MOV XAR3, AC1
    3254 000971 1214          CMPU AC1 < AC0, TC1 ; |1392| 
         000973 04   
    3255 000974 64E4          BCC $C$L77,TC1 ; |1392| 
    3256                                                      ; branchcc occurs ; |1392| 
    3257                      .dwpsn  file "../FreeRTOS/Source/queue.c",line 1394,column 4,is_stmt
    3258 000976 ED00          MOV dbl(*SP(#0)), XAR3
         000978 BF   
    3259 000979 ED61          MOV dbl(*AR3), XAR2
         00097b AF   
    3260 00097c EB7D          MOV XAR2, dbl(*AR3(short(#6)))
         00097e A5   
    3261 00097f       $C$L77:    
    3262                      .dwpsn  file "../FreeRTOS/Source/queue.c",line 1396,column 3,is_stmt
    3263 00097f ED00          MOV dbl(*SP(#0)), XAR3
         000981 BF   
    3264 000982 F76D          SUB #1, *AR3(#28) ; |1396| 
         000984 FFFF 
         000986 001C 
    3265                      .dwpsn  file "../FreeRTOS/Source/queue.c",line 1397,column 3,is_stmt
    3266 000988 ED00          MOV dbl(*SP(#0)), XAR3
         00098a BF   
    3267 00098b ED04          MOV dbl(*SP(#2)), XAR0
         00098d 8F   
    3268 00098e ED7D          MOV dbl(*AR3(short(#6))), XAR1
         000990 9F   
    3269 000991 A46D          MOV *AR3(#30), T0 ; |1397| 
         000993 001E 
    3270              $C$DW$283       .dwtag  DW_TAG_TI_branch
    3271                      .dwattr $C$DW$283, DW_AT_low_pc(0x00)
    3272                      .dwattr $C$DW$283, DW_AT_name("_memcpy")
    3273                      .dwattr $C$DW$283, DW_AT_TI_call
    3274 000995 6C00          CALL #_memcpy ; |1397| 
         000997 0000!
    3275                                                      ; call occurs [#_memcpy] ; |1397| 
    3276                      .dwpsn  file "../FreeRTOS/Source/queue.c",line 1399,column 3,is_stmt
    3277 000999 ED08          MOV dbl(*SP(#4)), XAR3
         00099b BF   
    3278 00099c A961          MOV *AR3, AR1 ; |1399| 
    3279 00099e 0419          BCC $C$L78,AR1 != #0 ; |1399| 
         0009a0 1C   
TMS320C55x Assembler PC v4.4.1 Sat Sep 08 23:28:20 2018

Tools Copyright (c) 1996-2012 Texas Instruments Incorporated
queue.asm                                                            PAGE   72

    3280                                                      ; branchcc occurs ; |1399| 
    3281                      .dwpsn  file "../FreeRTOS/Source/queue.c",line 1401,column 4,is_stmt
    3282 0009a1 ED00          MOV dbl(*SP(#0)), XAR3
         0009a3 BF   
    3283 0009a4 A96D          MOV *AR3(#8), AR1 ; |1401| 
         0009a6 0008 
    3284 0009a8 0409          BCC $C$L78,AR1 == #0 ; |1401| 
         0009aa 12   
    3285                                                      ; branchcc occurs ; |1401| 
    3286                      .dwpsn  file "../FreeRTOS/Source/queue.c",line 1403,column 5,is_stmt
    3287 0009ab ED00          MOV dbl(*SP(#0)), XAR0
         0009ad 8F   
    3288 0009ae 1408          AADD #8, AR0 ; |1403| 
         0009b0 84   
    3289              $C$DW$284       .dwtag  DW_TAG_TI_branch
    3290                      .dwattr $C$DW$284, DW_AT_low_pc(0x00)
    3291                      .dwattr $C$DW$284, DW_AT_name("_xCoRoutineRemoveFromEventList")
    3292                      .dwattr $C$DW$284, DW_AT_TI_call
    3293 0009b1 6C00          CALL #_xCoRoutineRemoveFromEventList ; |1403| 
         0009b3 0000!
    3294                                                      ; call occurs [#_xCoRoutineRemoveFromEventList] ; |1403| 
    3295 0009b5 6304          BCC $C$L78,T0 == #0 ; |1403| 
    3296                                                      ; branchcc occurs ; |1403| 
    3297                      .dwpsn  file "../FreeRTOS/Source/queue.c",line 1405,column 6,is_stmt
    3298 0009b7 ED08          MOV dbl(*SP(#4)), XAR3
         0009b9 BF   
    3299 0009ba E661          MOV #1, *AR3 ; |1405| 
         0009bc 01   
    3300 0009bd       $C$L78:    
    3301                      .dwpsn  file "../FreeRTOS/Source/queue.c",line 1410,column 3,is_stmt
    3302 0009bd E60C          MOV #1, *SP(#6) ; |1410| 
         0009bf 01   
    3303                      .dwpsn  file "../FreeRTOS/Source/queue.c",line 1411,column 2,is_stmt
    3304 0009c0 4A03          B $C$L80  ; |1411| 
    3305                                                      ; branch occurs ; |1411| 
    3306 0009c2       $C$L79:    
    3307                      .dwpsn  file "../FreeRTOS/Source/queue.c",line 1414,column 3,is_stmt
    3308 0009c2 E60C          MOV #0, *SP(#6) ; |1414| 
         0009c4 00   
    3309 0009c5       $C$L80:    
    3310                      .dwpsn  file "../FreeRTOS/Source/queue.c",line 1417,column 2,is_stmt
    3311 0009c5 A40C          MOV *SP(#6), T0 ; |1417| 
    3312                      .dwpsn  file "../FreeRTOS/Source/queue.c",line 1418,column 1,is_stmt
    3313 0009c7 4E07          AADD #7, SP
    3314                      .dwcfi  cfa_offset, 1
    3315              $C$DW$285       .dwtag  DW_TAG_TI_branch
    3316                      .dwattr $C$DW$285, DW_AT_low_pc(0x00)
    3317                      .dwattr $C$DW$285, DW_AT_TI_return
    3318 0009c9 4804          RET
    3319                                                      ; return occurs
    3320                      .dwattr $C$DW$275, DW_AT_TI_end_file("../FreeRTOS/Source/queue.c")
    3321                      .dwattr $C$DW$275, DW_AT_TI_end_line(0x58a)
    3322                      .dwattr $C$DW$275, DW_AT_TI_end_column(0x01)
    3323                      .dwendentry
    3324                      .dwendtag $C$DW$275
TMS320C55x Assembler PC v4.4.1 Sat Sep 08 23:28:20 2018

Tools Copyright (c) 1996-2012 Texas Instruments Incorporated
queue.asm                                                            PAGE   73

    3325              
    3326              ;******************************************************************************
    3327              ;* UNDEFINED EXTERNAL REFERENCES                                              *
    3328              ;******************************************************************************
    3329                      .global _vPortYield
    3330                      .global _pvPortMalloc
    3331                      .global _vPortFree
    3332                      .global _vListInitialise
    3333                      .global _vTaskSuspendAll
    3334                      .global _xTaskResumeAll
    3335                      .global _vTaskPlaceOnEventList
    3336                      .global _xTaskRemoveFromEventList
    3337                      .global _vTaskSetTimeOutState
    3338                      .global _xTaskCheckForTimeOut
    3339                      .global _vTaskMissedYield
    3340                      .global _vCoRoutineAddToDelayedList
    3341                      .global _xCoRoutineRemoveFromEventList
    3342                      .global _usCriticalNesting
    3343                      .global _memcpy
    3344              
    3345              ;*******************************************************************************
    3346              ;* TYPE INFORMATION                                                            *
    3347              ;*******************************************************************************
    3348              
    3349              $C$DW$T$22      .dwtag  DW_TAG_structure_type
    3350                      .dwattr $C$DW$T$22, DW_AT_name("QueueDefinition")
    3351                      .dwattr $C$DW$T$22, DW_AT_byte_size(0x22)
    3352              $C$DW$286       .dwtag  DW_TAG_member
    3353                      .dwattr $C$DW$286, DW_AT_type(*$C$DW$T$19)
    3354                      .dwattr $C$DW$286, DW_AT_name("pcHead")
    3355                      .dwattr $C$DW$286, DW_AT_TI_symbol_name("_pcHead")
    3356                      .dwattr $C$DW$286, DW_AT_data_member_location[DW_OP_plus_uconst 0x0]
    3357                      .dwattr $C$DW$286, DW_AT_accessibility(DW_ACCESS_public)
    3358              $C$DW$287       .dwtag  DW_TAG_member
    3359                      .dwattr $C$DW$287, DW_AT_type(*$C$DW$T$19)
    3360                      .dwattr $C$DW$287, DW_AT_name("pcTail")
    3361                      .dwattr $C$DW$287, DW_AT_TI_symbol_name("_pcTail")
    3362                      .dwattr $C$DW$287, DW_AT_data_member_location[DW_OP_plus_uconst 0x2]
    3363                      .dwattr $C$DW$287, DW_AT_accessibility(DW_ACCESS_public)
    3364              $C$DW$288       .dwtag  DW_TAG_member
    3365                      .dwattr $C$DW$288, DW_AT_type(*$C$DW$T$19)
    3366                      .dwattr $C$DW$288, DW_AT_name("pcWriteTo")
    3367                      .dwattr $C$DW$288, DW_AT_TI_symbol_name("_pcWriteTo")
    3368                      .dwattr $C$DW$288, DW_AT_data_member_location[DW_OP_plus_uconst 0x4]
    3369                      .dwattr $C$DW$288, DW_AT_accessibility(DW_ACCESS_public)
    3370              $C$DW$289       .dwtag  DW_TAG_member
    3371                      .dwattr $C$DW$289, DW_AT_type(*$C$DW$T$19)
    3372                      .dwattr $C$DW$289, DW_AT_name("pcReadFrom")
    3373                      .dwattr $C$DW$289, DW_AT_TI_symbol_name("_pcReadFrom")
    3374                      .dwattr $C$DW$289, DW_AT_data_member_location[DW_OP_plus_uconst 0x6]
    3375                      .dwattr $C$DW$289, DW_AT_accessibility(DW_ACCESS_public)
    3376              $C$DW$290       .dwtag  DW_TAG_member
    3377                      .dwattr $C$DW$290, DW_AT_type(*$C$DW$T$20)
    3378                      .dwattr $C$DW$290, DW_AT_name("xTasksWaitingToSend")
    3379                      .dwattr $C$DW$290, DW_AT_TI_symbol_name("_xTasksWaitingToSend")
TMS320C55x Assembler PC v4.4.1 Sat Sep 08 23:28:20 2018

Tools Copyright (c) 1996-2012 Texas Instruments Incorporated
queue.asm                                                            PAGE   74

    3380                      .dwattr $C$DW$290, DW_AT_data_member_location[DW_OP_plus_uconst 0x8]
    3381                      .dwattr $C$DW$290, DW_AT_accessibility(DW_ACCESS_public)
    3382              $C$DW$291       .dwtag  DW_TAG_member
    3383                      .dwattr $C$DW$291, DW_AT_type(*$C$DW$T$20)
    3384                      .dwattr $C$DW$291, DW_AT_name("xTasksWaitingToReceive")
    3385                      .dwattr $C$DW$291, DW_AT_TI_symbol_name("_xTasksWaitingToReceive")
    3386                      .dwattr $C$DW$291, DW_AT_data_member_location[DW_OP_plus_uconst 0x12]
    3387                      .dwattr $C$DW$291, DW_AT_accessibility(DW_ACCESS_public)
    3388              $C$DW$292       .dwtag  DW_TAG_member
    3389                      .dwattr $C$DW$292, DW_AT_type(*$C$DW$T$21)
    3390                      .dwattr $C$DW$292, DW_AT_name("uxMessagesWaiting")
    3391                      .dwattr $C$DW$292, DW_AT_TI_symbol_name("_uxMessagesWaiting")
    3392                      .dwattr $C$DW$292, DW_AT_data_member_location[DW_OP_plus_uconst 0x1c]
    3393                      .dwattr $C$DW$292, DW_AT_accessibility(DW_ACCESS_public)
    3394              $C$DW$293       .dwtag  DW_TAG_member
    3395                      .dwattr $C$DW$293, DW_AT_type(*$C$DW$T$11)
    3396                      .dwattr $C$DW$293, DW_AT_name("uxLength")
    3397                      .dwattr $C$DW$293, DW_AT_TI_symbol_name("_uxLength")
    3398                      .dwattr $C$DW$293, DW_AT_data_member_location[DW_OP_plus_uconst 0x1d]
    3399                      .dwattr $C$DW$293, DW_AT_accessibility(DW_ACCESS_public)
    3400              $C$DW$294       .dwtag  DW_TAG_member
    3401                      .dwattr $C$DW$294, DW_AT_type(*$C$DW$T$11)
    3402                      .dwattr $C$DW$294, DW_AT_name("uxItemSize")
    3403                      .dwattr $C$DW$294, DW_AT_TI_symbol_name("_uxItemSize")
    3404                      .dwattr $C$DW$294, DW_AT_data_member_location[DW_OP_plus_uconst 0x1e]
    3405                      .dwattr $C$DW$294, DW_AT_accessibility(DW_ACCESS_public)
    3406              $C$DW$295       .dwtag  DW_TAG_member
    3407                      .dwattr $C$DW$295, DW_AT_type(*$C$DW$T$10)
    3408                      .dwattr $C$DW$295, DW_AT_name("xRxLock")
    3409                      .dwattr $C$DW$295, DW_AT_TI_symbol_name("_xRxLock")
    3410                      .dwattr $C$DW$295, DW_AT_data_member_location[DW_OP_plus_uconst 0x1f]
    3411                      .dwattr $C$DW$295, DW_AT_accessibility(DW_ACCESS_public)
    3412              $C$DW$296       .dwtag  DW_TAG_member
    3413                      .dwattr $C$DW$296, DW_AT_type(*$C$DW$T$10)
    3414                      .dwattr $C$DW$296, DW_AT_name("xTxLock")
    3415                      .dwattr $C$DW$296, DW_AT_TI_symbol_name("_xTxLock")
    3416                      .dwattr $C$DW$296, DW_AT_data_member_location[DW_OP_plus_uconst 0x20]
    3417                      .dwattr $C$DW$296, DW_AT_accessibility(DW_ACCESS_public)
    3418                      .dwendtag $C$DW$T$22
    3419              
    3420              $C$DW$T$35      .dwtag  DW_TAG_typedef, DW_AT_name("xQUEUE")
    3421                      .dwattr $C$DW$T$35, DW_AT_type(*$C$DW$T$22)
    3422                      .dwattr $C$DW$T$35, DW_AT_language(DW_LANG_C)
    3423              $C$DW$T$36      .dwtag  DW_TAG_pointer_type
    3424                      .dwattr $C$DW$T$36, DW_AT_type(*$C$DW$T$35)
    3425                      .dwattr $C$DW$T$36, DW_AT_address_class(0x17)
    3426              $C$DW$297       .dwtag  DW_TAG_TI_far_type
    3427                      .dwattr $C$DW$297, DW_AT_type(*$C$DW$T$36)
    3428              $C$DW$T$37      .dwtag  DW_TAG_const_type
    3429                      .dwattr $C$DW$T$37, DW_AT_type(*$C$DW$297)
    3430              $C$DW$T$38      .dwtag  DW_TAG_typedef, DW_AT_name("xQueueHandle")
    3431                      .dwattr $C$DW$T$38, DW_AT_type(*$C$DW$T$36)
    3432                      .dwattr $C$DW$T$38, DW_AT_language(DW_LANG_C)
    3433              $C$DW$298       .dwtag  DW_TAG_TI_far_type
    3434                      .dwattr $C$DW$298, DW_AT_type(*$C$DW$T$38)
TMS320C55x Assembler PC v4.4.1 Sat Sep 08 23:28:20 2018

Tools Copyright (c) 1996-2012 Texas Instruments Incorporated
queue.asm                                                            PAGE   75

    3435              $C$DW$T$40      .dwtag  DW_TAG_const_type
    3436                      .dwattr $C$DW$T$40, DW_AT_type(*$C$DW$298)
    3437              $C$DW$T$3       .dwtag  DW_TAG_pointer_type
    3438                      .dwattr $C$DW$T$3, DW_AT_address_class(0x17)
    3439              $C$DW$299       .dwtag  DW_TAG_TI_far_type
    3440                      .dwattr $C$DW$299, DW_AT_type(*$C$DW$T$3)
    3441              $C$DW$T$47      .dwtag  DW_TAG_const_type
    3442                      .dwattr $C$DW$T$47, DW_AT_type(*$C$DW$299)
    3443              $C$DW$300       .dwtag  DW_TAG_TI_far_type
    3444              $C$DW$T$41      .dwtag  DW_TAG_const_type
    3445                      .dwattr $C$DW$T$41, DW_AT_type(*$C$DW$300)
    3446              $C$DW$T$42      .dwtag  DW_TAG_pointer_type
    3447                      .dwattr $C$DW$T$42, DW_AT_type(*$C$DW$T$41)
    3448                      .dwattr $C$DW$T$42, DW_AT_address_class(0x17)
    3449              $C$DW$301       .dwtag  DW_TAG_TI_far_type
    3450                      .dwattr $C$DW$301, DW_AT_type(*$C$DW$T$42)
    3451              $C$DW$T$48      .dwtag  DW_TAG_const_type
    3452                      .dwattr $C$DW$T$48, DW_AT_type(*$C$DW$301)
    3453              $C$DW$T$4       .dwtag  DW_TAG_base_type
    3454                      .dwattr $C$DW$T$4, DW_AT_encoding(DW_ATE_boolean)
    3455                      .dwattr $C$DW$T$4, DW_AT_name("bool")
    3456                      .dwattr $C$DW$T$4, DW_AT_byte_size(0x01)
    3457              $C$DW$T$5       .dwtag  DW_TAG_base_type
    3458                      .dwattr $C$DW$T$5, DW_AT_encoding(DW_ATE_signed_char)
    3459                      .dwattr $C$DW$T$5, DW_AT_name("signed char")
    3460                      .dwattr $C$DW$T$5, DW_AT_byte_size(0x01)
    3461              $C$DW$T$19      .dwtag  DW_TAG_pointer_type
    3462                      .dwattr $C$DW$T$19, DW_AT_type(*$C$DW$T$5)
    3463                      .dwattr $C$DW$T$19, DW_AT_address_class(0x17)
    3464              $C$DW$T$6       .dwtag  DW_TAG_base_type
    3465                      .dwattr $C$DW$T$6, DW_AT_encoding(DW_ATE_unsigned_char)
    3466                      .dwattr $C$DW$T$6, DW_AT_name("unsigned char")
    3467                      .dwattr $C$DW$T$6, DW_AT_byte_size(0x01)
    3468              $C$DW$T$7       .dwtag  DW_TAG_base_type
    3469                      .dwattr $C$DW$T$7, DW_AT_encoding(DW_ATE_signed_char)
    3470                      .dwattr $C$DW$T$7, DW_AT_name("wchar_t")
    3471                      .dwattr $C$DW$T$7, DW_AT_byte_size(0x01)
    3472              $C$DW$T$8       .dwtag  DW_TAG_base_type
    3473                      .dwattr $C$DW$T$8, DW_AT_encoding(DW_ATE_signed)
    3474                      .dwattr $C$DW$T$8, DW_AT_name("short")
    3475                      .dwattr $C$DW$T$8, DW_AT_byte_size(0x01)
    3476              $C$DW$T$9       .dwtag  DW_TAG_base_type
    3477                      .dwattr $C$DW$T$9, DW_AT_encoding(DW_ATE_unsigned)
    3478                      .dwattr $C$DW$T$9, DW_AT_name("unsigned short")
    3479                      .dwattr $C$DW$T$9, DW_AT_byte_size(0x01)
    3480              $C$DW$T$10      .dwtag  DW_TAG_base_type
    3481                      .dwattr $C$DW$T$10, DW_AT_encoding(DW_ATE_signed)
    3482                      .dwattr $C$DW$T$10, DW_AT_name("int")
    3483                      .dwattr $C$DW$T$10, DW_AT_byte_size(0x01)
    3484              $C$DW$T$85      .dwtag  DW_TAG_pointer_type
    3485                      .dwattr $C$DW$T$85, DW_AT_type(*$C$DW$T$10)
    3486                      .dwattr $C$DW$T$85, DW_AT_address_class(0x17)
    3487              $C$DW$T$11      .dwtag  DW_TAG_base_type
    3488                      .dwattr $C$DW$T$11, DW_AT_encoding(DW_ATE_unsigned)
    3489                      .dwattr $C$DW$T$11, DW_AT_name("unsigned int")
TMS320C55x Assembler PC v4.4.1 Sat Sep 08 23:28:20 2018

Tools Copyright (c) 1996-2012 Texas Instruments Incorporated
queue.asm                                                            PAGE   76

    3490                      .dwattr $C$DW$T$11, DW_AT_byte_size(0x01)
    3491              $C$DW$302       .dwtag  DW_TAG_TI_far_type
    3492                      .dwattr $C$DW$302, DW_AT_type(*$C$DW$T$11)
    3493              $C$DW$T$21      .dwtag  DW_TAG_volatile_type
    3494                      .dwattr $C$DW$T$21, DW_AT_type(*$C$DW$302)
    3495              $C$DW$T$29      .dwtag  DW_TAG_typedef, DW_AT_name("portTickType")
    3496                      .dwattr $C$DW$T$29, DW_AT_type(*$C$DW$T$11)
    3497                      .dwattr $C$DW$T$29, DW_AT_language(DW_LANG_C)
    3498              $C$DW$T$78      .dwtag  DW_TAG_pointer_type
    3499                      .dwattr $C$DW$T$78, DW_AT_type(*$C$DW$T$29)
    3500                      .dwattr $C$DW$T$78, DW_AT_address_class(0x17)
    3501              $C$DW$303       .dwtag  DW_TAG_TI_far_type
    3502                      .dwattr $C$DW$303, DW_AT_type(*$C$DW$T$78)
    3503              $C$DW$T$79      .dwtag  DW_TAG_const_type
    3504                      .dwattr $C$DW$T$79, DW_AT_type(*$C$DW$303)
    3505              $C$DW$T$43      .dwtag  DW_TAG_typedef, DW_AT_name("size_t")
    3506                      .dwattr $C$DW$T$43, DW_AT_type(*$C$DW$T$11)
    3507                      .dwattr $C$DW$T$43, DW_AT_language(DW_LANG_C)
    3508              $C$DW$T$12      .dwtag  DW_TAG_base_type
    3509                      .dwattr $C$DW$T$12, DW_AT_encoding(DW_ATE_signed)
    3510                      .dwattr $C$DW$T$12, DW_AT_name("long")
    3511                      .dwattr $C$DW$T$12, DW_AT_byte_size(0x02)
    3512              $C$DW$T$13      .dwtag  DW_TAG_base_type
    3513                      .dwattr $C$DW$T$13, DW_AT_encoding(DW_ATE_unsigned)
    3514                      .dwattr $C$DW$T$13, DW_AT_name("unsigned long")
    3515                      .dwattr $C$DW$T$13, DW_AT_byte_size(0x02)
    3516              $C$DW$T$14      .dwtag  DW_TAG_base_type
    3517                      .dwattr $C$DW$T$14, DW_AT_encoding(DW_ATE_signed)
    3518                      .dwattr $C$DW$T$14, DW_AT_name("long long")
    3519                      .dwattr $C$DW$T$14, DW_AT_byte_size(0x04)
    3520                      .dwattr $C$DW$T$14, DW_AT_bit_size(0x28)
    3521                      .dwattr $C$DW$T$14, DW_AT_bit_offset(0x18)
    3522              $C$DW$T$15      .dwtag  DW_TAG_base_type
    3523                      .dwattr $C$DW$T$15, DW_AT_encoding(DW_ATE_unsigned)
    3524                      .dwattr $C$DW$T$15, DW_AT_name("unsigned long long")
    3525                      .dwattr $C$DW$T$15, DW_AT_byte_size(0x04)
    3526                      .dwattr $C$DW$T$15, DW_AT_bit_size(0x28)
    3527                      .dwattr $C$DW$T$15, DW_AT_bit_offset(0x18)
    3528              $C$DW$T$16      .dwtag  DW_TAG_base_type
    3529                      .dwattr $C$DW$T$16, DW_AT_encoding(DW_ATE_float)
    3530                      .dwattr $C$DW$T$16, DW_AT_name("float")
    3531                      .dwattr $C$DW$T$16, DW_AT_byte_size(0x02)
    3532              $C$DW$T$17      .dwtag  DW_TAG_base_type
    3533                      .dwattr $C$DW$T$17, DW_AT_encoding(DW_ATE_float)
    3534                      .dwattr $C$DW$T$17, DW_AT_name("double")
    3535                      .dwattr $C$DW$T$17, DW_AT_byte_size(0x02)
    3536              $C$DW$T$18      .dwtag  DW_TAG_base_type
    3537                      .dwattr $C$DW$T$18, DW_AT_encoding(DW_ATE_float)
    3538                      .dwattr $C$DW$T$18, DW_AT_name("long double")
    3539                      .dwattr $C$DW$T$18, DW_AT_byte_size(0x02)
    3540              
    3541              $C$DW$T$28      .dwtag  DW_TAG_structure_type
    3542                      .dwattr $C$DW$T$28, DW_AT_name("xLIST")
    3543                      .dwattr $C$DW$T$28, DW_AT_byte_size(0x0a)
    3544              $C$DW$304       .dwtag  DW_TAG_member
TMS320C55x Assembler PC v4.4.1 Sat Sep 08 23:28:20 2018

Tools Copyright (c) 1996-2012 Texas Instruments Incorporated
queue.asm                                                            PAGE   77

    3545                      .dwattr $C$DW$304, DW_AT_type(*$C$DW$T$21)
    3546                      .dwattr $C$DW$304, DW_AT_name("uxNumberOfItems")
    3547                      .dwattr $C$DW$304, DW_AT_TI_symbol_name("_uxNumberOfItems")
    3548                      .dwattr $C$DW$304, DW_AT_data_member_location[DW_OP_plus_uconst 0x0]
    3549                      .dwattr $C$DW$304, DW_AT_accessibility(DW_ACCESS_public)
    3550              $C$DW$305       .dwtag  DW_TAG_member
    3551                      .dwattr $C$DW$305, DW_AT_type(*$C$DW$T$25)
    3552                      .dwattr $C$DW$305, DW_AT_name("pxIndex")
    3553                      .dwattr $C$DW$305, DW_AT_TI_symbol_name("_pxIndex")
    3554                      .dwattr $C$DW$305, DW_AT_data_member_location[DW_OP_plus_uconst 0x2]
    3555                      .dwattr $C$DW$305, DW_AT_accessibility(DW_ACCESS_public)
    3556              $C$DW$306       .dwtag  DW_TAG_member
    3557                      .dwattr $C$DW$306, DW_AT_type(*$C$DW$T$27)
    3558                      .dwattr $C$DW$306, DW_AT_name("xListEnd")
    3559                      .dwattr $C$DW$306, DW_AT_TI_symbol_name("_xListEnd")
    3560                      .dwattr $C$DW$306, DW_AT_data_member_location[DW_OP_plus_uconst 0x4]
    3561                      .dwattr $C$DW$306, DW_AT_accessibility(DW_ACCESS_public)
    3562                      .dwendtag $C$DW$T$28
    3563              
    3564              $C$DW$T$20      .dwtag  DW_TAG_typedef, DW_AT_name("xList")
    3565                      .dwattr $C$DW$T$20, DW_AT_type(*$C$DW$T$28)
    3566                      .dwattr $C$DW$T$20, DW_AT_language(DW_LANG_C)
    3567              $C$DW$T$53      .dwtag  DW_TAG_pointer_type
    3568                      .dwattr $C$DW$T$53, DW_AT_type(*$C$DW$T$20)
    3569                      .dwattr $C$DW$T$53, DW_AT_address_class(0x17)
    3570              $C$DW$307       .dwtag  DW_TAG_TI_far_type
    3571                      .dwattr $C$DW$307, DW_AT_type(*$C$DW$T$20)
    3572              $C$DW$T$56      .dwtag  DW_TAG_const_type
    3573                      .dwattr $C$DW$T$56, DW_AT_type(*$C$DW$307)
    3574              $C$DW$T$57      .dwtag  DW_TAG_pointer_type
    3575                      .dwattr $C$DW$T$57, DW_AT_type(*$C$DW$T$56)
    3576                      .dwattr $C$DW$T$57, DW_AT_address_class(0x17)
    3577              $C$DW$308       .dwtag  DW_TAG_TI_far_type
    3578                      .dwattr $C$DW$308, DW_AT_type(*$C$DW$T$57)
    3579              $C$DW$T$58      .dwtag  DW_TAG_const_type
    3580                      .dwattr $C$DW$T$58, DW_AT_type(*$C$DW$308)
    3581              
    3582              $C$DW$T$32      .dwtag  DW_TAG_structure_type
    3583                      .dwattr $C$DW$T$32, DW_AT_name("xLIST_ITEM")
    3584                      .dwattr $C$DW$T$32, DW_AT_byte_size(0x0a)
    3585              $C$DW$309       .dwtag  DW_TAG_member
    3586                      .dwattr $C$DW$309, DW_AT_type(*$C$DW$T$29)
    3587                      .dwattr $C$DW$309, DW_AT_name("xItemValue")
    3588                      .dwattr $C$DW$309, DW_AT_TI_symbol_name("_xItemValue")
    3589                      .dwattr $C$DW$309, DW_AT_data_member_location[DW_OP_plus_uconst 0x0]
    3590                      .dwattr $C$DW$309, DW_AT_accessibility(DW_ACCESS_public)
    3591              $C$DW$310       .dwtag  DW_TAG_member
    3592                      .dwattr $C$DW$310, DW_AT_type(*$C$DW$T$31)
    3593                      .dwattr $C$DW$310, DW_AT_name("pxNext")
    3594                      .dwattr $C$DW$310, DW_AT_TI_symbol_name("_pxNext")
    3595                      .dwattr $C$DW$310, DW_AT_data_member_location[DW_OP_plus_uconst 0x2]
    3596                      .dwattr $C$DW$310, DW_AT_accessibility(DW_ACCESS_public)
    3597              $C$DW$311       .dwtag  DW_TAG_member
    3598                      .dwattr $C$DW$311, DW_AT_type(*$C$DW$T$31)
    3599                      .dwattr $C$DW$311, DW_AT_name("pxPrevious")
TMS320C55x Assembler PC v4.4.1 Sat Sep 08 23:28:20 2018

Tools Copyright (c) 1996-2012 Texas Instruments Incorporated
queue.asm                                                            PAGE   78

    3600                      .dwattr $C$DW$311, DW_AT_TI_symbol_name("_pxPrevious")
    3601                      .dwattr $C$DW$311, DW_AT_data_member_location[DW_OP_plus_uconst 0x4]
    3602                      .dwattr $C$DW$311, DW_AT_accessibility(DW_ACCESS_public)
    3603              $C$DW$312       .dwtag  DW_TAG_member
    3604                      .dwattr $C$DW$312, DW_AT_type(*$C$DW$T$3)
    3605                      .dwattr $C$DW$312, DW_AT_name("pvOwner")
    3606                      .dwattr $C$DW$312, DW_AT_TI_symbol_name("_pvOwner")
    3607                      .dwattr $C$DW$312, DW_AT_data_member_location[DW_OP_plus_uconst 0x6]
    3608                      .dwattr $C$DW$312, DW_AT_accessibility(DW_ACCESS_public)
    3609              $C$DW$313       .dwtag  DW_TAG_member
    3610                      .dwattr $C$DW$313, DW_AT_type(*$C$DW$T$3)
    3611                      .dwattr $C$DW$313, DW_AT_name("pvContainer")
    3612                      .dwattr $C$DW$313, DW_AT_TI_symbol_name("_pvContainer")
    3613                      .dwattr $C$DW$313, DW_AT_data_member_location[DW_OP_plus_uconst 0x8]
    3614                      .dwattr $C$DW$313, DW_AT_accessibility(DW_ACCESS_public)
    3615                      .dwendtag $C$DW$T$32
    3616              
    3617              $C$DW$314       .dwtag  DW_TAG_TI_far_type
    3618                      .dwattr $C$DW$314, DW_AT_type(*$C$DW$T$32)
    3619              $C$DW$T$30      .dwtag  DW_TAG_volatile_type
    3620                      .dwattr $C$DW$T$30, DW_AT_type(*$C$DW$314)
    3621              $C$DW$T$31      .dwtag  DW_TAG_pointer_type
    3622                      .dwattr $C$DW$T$31, DW_AT_type(*$C$DW$T$30)
    3623                      .dwattr $C$DW$T$31, DW_AT_address_class(0x17)
    3624              $C$DW$T$23      .dwtag  DW_TAG_typedef, DW_AT_name("xListItem")
    3625                      .dwattr $C$DW$T$23, DW_AT_type(*$C$DW$T$32)
    3626                      .dwattr $C$DW$T$23, DW_AT_language(DW_LANG_C)
    3627              $C$DW$315       .dwtag  DW_TAG_TI_far_type
    3628                      .dwattr $C$DW$315, DW_AT_type(*$C$DW$T$23)
    3629              $C$DW$T$24      .dwtag  DW_TAG_volatile_type
    3630                      .dwattr $C$DW$T$24, DW_AT_type(*$C$DW$315)
    3631              $C$DW$T$25      .dwtag  DW_TAG_pointer_type
    3632                      .dwattr $C$DW$T$25, DW_AT_type(*$C$DW$T$24)
    3633                      .dwattr $C$DW$T$25, DW_AT_address_class(0x17)
    3634              
    3635              $C$DW$T$33      .dwtag  DW_TAG_structure_type
    3636                      .dwattr $C$DW$T$33, DW_AT_name("xMINI_LIST_ITEM")
    3637                      .dwattr $C$DW$T$33, DW_AT_byte_size(0x06)
    3638              $C$DW$316       .dwtag  DW_TAG_member
    3639                      .dwattr $C$DW$316, DW_AT_type(*$C$DW$T$29)
    3640                      .dwattr $C$DW$316, DW_AT_name("xItemValue")
    3641                      .dwattr $C$DW$316, DW_AT_TI_symbol_name("_xItemValue")
    3642                      .dwattr $C$DW$316, DW_AT_data_member_location[DW_OP_plus_uconst 0x0]
    3643                      .dwattr $C$DW$316, DW_AT_accessibility(DW_ACCESS_public)
    3644              $C$DW$317       .dwtag  DW_TAG_member
    3645                      .dwattr $C$DW$317, DW_AT_type(*$C$DW$T$31)
    3646                      .dwattr $C$DW$317, DW_AT_name("pxNext")
    3647                      .dwattr $C$DW$317, DW_AT_TI_symbol_name("_pxNext")
    3648                      .dwattr $C$DW$317, DW_AT_data_member_location[DW_OP_plus_uconst 0x2]
    3649                      .dwattr $C$DW$317, DW_AT_accessibility(DW_ACCESS_public)
    3650              $C$DW$318       .dwtag  DW_TAG_member
    3651                      .dwattr $C$DW$318, DW_AT_type(*$C$DW$T$31)
    3652                      .dwattr $C$DW$318, DW_AT_name("pxPrevious")
    3653                      .dwattr $C$DW$318, DW_AT_TI_symbol_name("_pxPrevious")
    3654                      .dwattr $C$DW$318, DW_AT_data_member_location[DW_OP_plus_uconst 0x4]
TMS320C55x Assembler PC v4.4.1 Sat Sep 08 23:28:20 2018

Tools Copyright (c) 1996-2012 Texas Instruments Incorporated
queue.asm                                                            PAGE   79

    3655                      .dwattr $C$DW$318, DW_AT_accessibility(DW_ACCESS_public)
    3656                      .dwendtag $C$DW$T$33
    3657              
    3658              $C$DW$T$26      .dwtag  DW_TAG_typedef, DW_AT_name("xMiniListItem")
    3659                      .dwattr $C$DW$T$26, DW_AT_type(*$C$DW$T$33)
    3660                      .dwattr $C$DW$T$26, DW_AT_language(DW_LANG_C)
    3661              $C$DW$319       .dwtag  DW_TAG_TI_far_type
    3662                      .dwattr $C$DW$319, DW_AT_type(*$C$DW$T$26)
    3663              $C$DW$T$27      .dwtag  DW_TAG_volatile_type
    3664                      .dwattr $C$DW$T$27, DW_AT_type(*$C$DW$319)
    3665              
    3666              $C$DW$T$34      .dwtag  DW_TAG_structure_type
    3667                      .dwattr $C$DW$T$34, DW_AT_name("xTIME_OUT")
    3668                      .dwattr $C$DW$T$34, DW_AT_byte_size(0x02)
    3669              $C$DW$320       .dwtag  DW_TAG_member
    3670                      .dwattr $C$DW$320, DW_AT_type(*$C$DW$T$10)
    3671                      .dwattr $C$DW$320, DW_AT_name("xOverflowCount")
    3672                      .dwattr $C$DW$320, DW_AT_TI_symbol_name("_xOverflowCount")
    3673                      .dwattr $C$DW$320, DW_AT_data_member_location[DW_OP_plus_uconst 0x0]
    3674                      .dwattr $C$DW$320, DW_AT_accessibility(DW_ACCESS_public)
    3675              $C$DW$321       .dwtag  DW_TAG_member
    3676                      .dwattr $C$DW$321, DW_AT_type(*$C$DW$T$29)
    3677                      .dwattr $C$DW$321, DW_AT_name("xTimeOnEntering")
    3678                      .dwattr $C$DW$321, DW_AT_TI_symbol_name("_xTimeOnEntering")
    3679                      .dwattr $C$DW$321, DW_AT_data_member_location[DW_OP_plus_uconst 0x1]
    3680                      .dwattr $C$DW$321, DW_AT_accessibility(DW_ACCESS_public)
    3681                      .dwendtag $C$DW$T$34
    3682              
    3683              $C$DW$T$61      .dwtag  DW_TAG_typedef, DW_AT_name("xTimeOutType")
    3684                      .dwattr $C$DW$T$61, DW_AT_type(*$C$DW$T$34)
    3685                      .dwattr $C$DW$T$61, DW_AT_language(DW_LANG_C)
    3686              $C$DW$T$62      .dwtag  DW_TAG_pointer_type
    3687                      .dwattr $C$DW$T$62, DW_AT_type(*$C$DW$T$61)
    3688                      .dwattr $C$DW$T$62, DW_AT_address_class(0x17)
    3689              $C$DW$322       .dwtag  DW_TAG_TI_far_type
    3690                      .dwattr $C$DW$322, DW_AT_type(*$C$DW$T$62)
    3691              $C$DW$T$63      .dwtag  DW_TAG_const_type
    3692                      .dwattr $C$DW$T$63, DW_AT_type(*$C$DW$322)
    3693                      .dwattr $C$DW$CU, DW_AT_language(DW_LANG_C)
    3694              
    3695              ;***************************************************************
    3696              ;* DWARF CIE ENTRIES                                           *
    3697              ;***************************************************************
    3698              
    3699              $C$DW$CIE       .dwcie 91
    3700                      .dwcfi  cfa_register, 36
    3701                      .dwcfi  cfa_offset, 0
    3702                      .dwcfi  undefined, 0
    3703                      .dwcfi  undefined, 1
    3704                      .dwcfi  undefined, 2
    3705                      .dwcfi  undefined, 3
    3706                      .dwcfi  undefined, 4
    3707                      .dwcfi  undefined, 5
    3708                      .dwcfi  undefined, 6
    3709                      .dwcfi  undefined, 7
TMS320C55x Assembler PC v4.4.1 Sat Sep 08 23:28:20 2018

Tools Copyright (c) 1996-2012 Texas Instruments Incorporated
queue.asm                                                            PAGE   80

    3710                      .dwcfi  undefined, 8
    3711                      .dwcfi  undefined, 9
    3712                      .dwcfi  undefined, 10
    3713                      .dwcfi  undefined, 11
    3714                      .dwcfi  undefined, 12
    3715                      .dwcfi  undefined, 13
    3716                      .dwcfi  same_value, 14
    3717                      .dwcfi  same_value, 15
    3718                      .dwcfi  undefined, 16
    3719                      .dwcfi  undefined, 17
    3720                      .dwcfi  undefined, 18
    3721                      .dwcfi  undefined, 19
    3722                      .dwcfi  undefined, 20
    3723                      .dwcfi  undefined, 21
    3724                      .dwcfi  undefined, 22
    3725                      .dwcfi  undefined, 23
    3726                      .dwcfi  undefined, 24
    3727                      .dwcfi  undefined, 25
    3728                      .dwcfi  same_value, 26
    3729                      .dwcfi  same_value, 27
    3730                      .dwcfi  same_value, 28
    3731                      .dwcfi  same_value, 29
    3732                      .dwcfi  same_value, 30
    3733                      .dwcfi  same_value, 31
    3734                      .dwcfi  undefined, 32
    3735                      .dwcfi  undefined, 33
    3736                      .dwcfi  undefined, 34
    3737                      .dwcfi  undefined, 35
    3738                      .dwcfi  undefined, 36
    3739                      .dwcfi  undefined, 37
    3740                      .dwcfi  undefined, 38
    3741                      .dwcfi  undefined, 39
    3742                      .dwcfi  undefined, 40
    3743                      .dwcfi  undefined, 41
    3744                      .dwcfi  undefined, 42
    3745                      .dwcfi  undefined, 43
    3746                      .dwcfi  undefined, 44
    3747                      .dwcfi  undefined, 45
    3748                      .dwcfi  undefined, 46
    3749                      .dwcfi  undefined, 47
    3750                      .dwcfi  undefined, 48
    3751                      .dwcfi  undefined, 49
    3752                      .dwcfi  undefined, 50
    3753                      .dwcfi  undefined, 51
    3754                      .dwcfi  undefined, 52
    3755                      .dwcfi  undefined, 53
    3756                      .dwcfi  undefined, 54
    3757                      .dwcfi  undefined, 55
    3758                      .dwcfi  undefined, 56
    3759                      .dwcfi  undefined, 57
    3760                      .dwcfi  undefined, 58
    3761                      .dwcfi  undefined, 59
    3762                      .dwcfi  undefined, 60
    3763                      .dwcfi  undefined, 61
    3764                      .dwcfi  undefined, 62
TMS320C55x Assembler PC v4.4.1 Sat Sep 08 23:28:20 2018

Tools Copyright (c) 1996-2012 Texas Instruments Incorporated
queue.asm                                                            PAGE   81

    3765                      .dwcfi  undefined, 63
    3766                      .dwcfi  undefined, 64
    3767                      .dwcfi  undefined, 65
    3768                      .dwcfi  undefined, 66
    3769                      .dwcfi  undefined, 67
    3770                      .dwcfi  undefined, 68
    3771                      .dwcfi  undefined, 69
    3772                      .dwcfi  undefined, 70
    3773                      .dwcfi  undefined, 71
    3774                      .dwcfi  undefined, 72
    3775                      .dwcfi  undefined, 73
    3776                      .dwcfi  undefined, 74
    3777                      .dwcfi  undefined, 75
    3778                      .dwcfi  undefined, 76
    3779                      .dwcfi  undefined, 77
    3780                      .dwcfi  undefined, 78
    3781                      .dwcfi  undefined, 79
    3782                      .dwcfi  undefined, 80
    3783                      .dwcfi  undefined, 81
    3784                      .dwcfi  undefined, 82
    3785                      .dwcfi  undefined, 83
    3786                      .dwcfi  undefined, 84
    3787                      .dwcfi  undefined, 85
    3788                      .dwcfi  undefined, 86
    3789                      .dwcfi  undefined, 87
    3790                      .dwcfi  undefined, 88
    3791                      .dwcfi  undefined, 89
    3792                      .dwcfi  undefined, 90
    3793                      .dwcfi  undefined, 91
    3794                      .dwendentry
    3795              
    3796              ;***************************************************************
    3797              ;* DWARF REGISTER MAP                                          *
    3798              ;***************************************************************
    3799              
    3800              $C$DW$323       .dwtag  DW_TAG_TI_assign_register, DW_AT_name("AC0")
    3801                      .dwattr $C$DW$323, DW_AT_location[DW_OP_reg0]
    3802              $C$DW$324       .dwtag  DW_TAG_TI_assign_register, DW_AT_name("AC0")
    3803                      .dwattr $C$DW$324, DW_AT_location[DW_OP_reg1]
    3804              $C$DW$325       .dwtag  DW_TAG_TI_assign_register, DW_AT_name("AC0_G")
    3805                      .dwattr $C$DW$325, DW_AT_location[DW_OP_reg2]
    3806              $C$DW$326       .dwtag  DW_TAG_TI_assign_register, DW_AT_name("AC1")
    3807                      .dwattr $C$DW$326, DW_AT_location[DW_OP_reg3]
    3808              $C$DW$327       .dwtag  DW_TAG_TI_assign_register, DW_AT_name("AC1")
    3809                      .dwattr $C$DW$327, DW_AT_location[DW_OP_reg4]
    3810              $C$DW$328       .dwtag  DW_TAG_TI_assign_register, DW_AT_name("AC1_G")
    3811                      .dwattr $C$DW$328, DW_AT_location[DW_OP_reg5]
    3812              $C$DW$329       .dwtag  DW_TAG_TI_assign_register, DW_AT_name("AC2")
    3813                      .dwattr $C$DW$329, DW_AT_location[DW_OP_reg6]
    3814              $C$DW$330       .dwtag  DW_TAG_TI_assign_register, DW_AT_name("AC2")
    3815                      .dwattr $C$DW$330, DW_AT_location[DW_OP_reg7]
    3816              $C$DW$331       .dwtag  DW_TAG_TI_assign_register, DW_AT_name("AC2_G")
    3817                      .dwattr $C$DW$331, DW_AT_location[DW_OP_reg8]
    3818              $C$DW$332       .dwtag  DW_TAG_TI_assign_register, DW_AT_name("AC3")
    3819                      .dwattr $C$DW$332, DW_AT_location[DW_OP_reg9]
TMS320C55x Assembler PC v4.4.1 Sat Sep 08 23:28:20 2018

Tools Copyright (c) 1996-2012 Texas Instruments Incorporated
queue.asm                                                            PAGE   82

    3820              $C$DW$333       .dwtag  DW_TAG_TI_assign_register, DW_AT_name("AC3")
    3821                      .dwattr $C$DW$333, DW_AT_location[DW_OP_reg10]
    3822              $C$DW$334       .dwtag  DW_TAG_TI_assign_register, DW_AT_name("AC3_G")
    3823                      .dwattr $C$DW$334, DW_AT_location[DW_OP_reg11]
    3824              $C$DW$335       .dwtag  DW_TAG_TI_assign_register, DW_AT_name("T0")
    3825                      .dwattr $C$DW$335, DW_AT_location[DW_OP_reg12]
    3826              $C$DW$336       .dwtag  DW_TAG_TI_assign_register, DW_AT_name("T1")
    3827                      .dwattr $C$DW$336, DW_AT_location[DW_OP_reg13]
    3828              $C$DW$337       .dwtag  DW_TAG_TI_assign_register, DW_AT_name("T2")
    3829                      .dwattr $C$DW$337, DW_AT_location[DW_OP_reg14]
    3830              $C$DW$338       .dwtag  DW_TAG_TI_assign_register, DW_AT_name("T3")
    3831                      .dwattr $C$DW$338, DW_AT_location[DW_OP_reg15]
    3832              $C$DW$339       .dwtag  DW_TAG_TI_assign_register, DW_AT_name("AR0")
    3833                      .dwattr $C$DW$339, DW_AT_location[DW_OP_reg16]
    3834              $C$DW$340       .dwtag  DW_TAG_TI_assign_register, DW_AT_name("XAR0")
    3835                      .dwattr $C$DW$340, DW_AT_location[DW_OP_reg17]
    3836              $C$DW$341       .dwtag  DW_TAG_TI_assign_register, DW_AT_name("AR1")
    3837                      .dwattr $C$DW$341, DW_AT_location[DW_OP_reg18]
    3838              $C$DW$342       .dwtag  DW_TAG_TI_assign_register, DW_AT_name("XAR1")
    3839                      .dwattr $C$DW$342, DW_AT_location[DW_OP_reg19]
    3840              $C$DW$343       .dwtag  DW_TAG_TI_assign_register, DW_AT_name("AR2")
    3841                      .dwattr $C$DW$343, DW_AT_location[DW_OP_reg20]
    3842              $C$DW$344       .dwtag  DW_TAG_TI_assign_register, DW_AT_name("XAR2")
    3843                      .dwattr $C$DW$344, DW_AT_location[DW_OP_reg21]
    3844              $C$DW$345       .dwtag  DW_TAG_TI_assign_register, DW_AT_name("AR3")
    3845                      .dwattr $C$DW$345, DW_AT_location[DW_OP_reg22]
    3846              $C$DW$346       .dwtag  DW_TAG_TI_assign_register, DW_AT_name("XAR3")
    3847                      .dwattr $C$DW$346, DW_AT_location[DW_OP_reg23]
    3848              $C$DW$347       .dwtag  DW_TAG_TI_assign_register, DW_AT_name("AR4")
    3849                      .dwattr $C$DW$347, DW_AT_location[DW_OP_reg24]
    3850              $C$DW$348       .dwtag  DW_TAG_TI_assign_register, DW_AT_name("XAR4")
    3851                      .dwattr $C$DW$348, DW_AT_location[DW_OP_reg25]
    3852              $C$DW$349       .dwtag  DW_TAG_TI_assign_register, DW_AT_name("AR5")
    3853                      .dwattr $C$DW$349, DW_AT_location[DW_OP_reg26]
    3854              $C$DW$350       .dwtag  DW_TAG_TI_assign_register, DW_AT_name("XAR5")
    3855                      .dwattr $C$DW$350, DW_AT_location[DW_OP_reg27]
    3856              $C$DW$351       .dwtag  DW_TAG_TI_assign_register, DW_AT_name("AR6")
    3857                      .dwattr $C$DW$351, DW_AT_location[DW_OP_reg28]
    3858              $C$DW$352       .dwtag  DW_TAG_TI_assign_register, DW_AT_name("XAR6")
    3859                      .dwattr $C$DW$352, DW_AT_location[DW_OP_reg29]
    3860              $C$DW$353       .dwtag  DW_TAG_TI_assign_register, DW_AT_name("AR7")
    3861                      .dwattr $C$DW$353, DW_AT_location[DW_OP_reg30]
    3862              $C$DW$354       .dwtag  DW_TAG_TI_assign_register, DW_AT_name("XAR7")
    3863                      .dwattr $C$DW$354, DW_AT_location[DW_OP_reg31]
    3864              $C$DW$355       .dwtag  DW_TAG_TI_assign_register, DW_AT_name("FP")
    3865                      .dwattr $C$DW$355, DW_AT_location[DW_OP_regx 0x20]
    3866              $C$DW$356       .dwtag  DW_TAG_TI_assign_register, DW_AT_name("XFP")
    3867                      .dwattr $C$DW$356, DW_AT_location[DW_OP_regx 0x21]
    3868              $C$DW$357       .dwtag  DW_TAG_TI_assign_register, DW_AT_name("PC")
    3869                      .dwattr $C$DW$357, DW_AT_location[DW_OP_regx 0x22]
    3870              $C$DW$358       .dwtag  DW_TAG_TI_assign_register, DW_AT_name("SP")
    3871                      .dwattr $C$DW$358, DW_AT_location[DW_OP_regx 0x23]
    3872              $C$DW$359       .dwtag  DW_TAG_TI_assign_register, DW_AT_name("XSP")
    3873                      .dwattr $C$DW$359, DW_AT_location[DW_OP_regx 0x24]
    3874              $C$DW$360       .dwtag  DW_TAG_TI_assign_register, DW_AT_name("BKC")
TMS320C55x Assembler PC v4.4.1 Sat Sep 08 23:28:20 2018

Tools Copyright (c) 1996-2012 Texas Instruments Incorporated
queue.asm                                                            PAGE   83

    3875                      .dwattr $C$DW$360, DW_AT_location[DW_OP_regx 0x25]
    3876              $C$DW$361       .dwtag  DW_TAG_TI_assign_register, DW_AT_name("BK03")
    3877                      .dwattr $C$DW$361, DW_AT_location[DW_OP_regx 0x26]
    3878              $C$DW$362       .dwtag  DW_TAG_TI_assign_register, DW_AT_name("BK47")
    3879                      .dwattr $C$DW$362, DW_AT_location[DW_OP_regx 0x27]
    3880              $C$DW$363       .dwtag  DW_TAG_TI_assign_register, DW_AT_name("ST0")
    3881                      .dwattr $C$DW$363, DW_AT_location[DW_OP_regx 0x28]
    3882              $C$DW$364       .dwtag  DW_TAG_TI_assign_register, DW_AT_name("ST1")
    3883                      .dwattr $C$DW$364, DW_AT_location[DW_OP_regx 0x29]
    3884              $C$DW$365       .dwtag  DW_TAG_TI_assign_register, DW_AT_name("ST2")
    3885                      .dwattr $C$DW$365, DW_AT_location[DW_OP_regx 0x2a]
    3886              $C$DW$366       .dwtag  DW_TAG_TI_assign_register, DW_AT_name("ST3")
    3887                      .dwattr $C$DW$366, DW_AT_location[DW_OP_regx 0x2b]
    3888              $C$DW$367       .dwtag  DW_TAG_TI_assign_register, DW_AT_name("MDP")
    3889                      .dwattr $C$DW$367, DW_AT_location[DW_OP_regx 0x2c]
    3890              $C$DW$368       .dwtag  DW_TAG_TI_assign_register, DW_AT_name("MDP05")
    3891                      .dwattr $C$DW$368, DW_AT_location[DW_OP_regx 0x2d]
    3892              $C$DW$369       .dwtag  DW_TAG_TI_assign_register, DW_AT_name("MDP67")
    3893                      .dwattr $C$DW$369, DW_AT_location[DW_OP_regx 0x2e]
    3894              $C$DW$370       .dwtag  DW_TAG_TI_assign_register, DW_AT_name("BRC0")
    3895                      .dwattr $C$DW$370, DW_AT_location[DW_OP_regx 0x2f]
    3896              $C$DW$371       .dwtag  DW_TAG_TI_assign_register, DW_AT_name("RSA0")
    3897                      .dwattr $C$DW$371, DW_AT_location[DW_OP_regx 0x30]
    3898              $C$DW$372       .dwtag  DW_TAG_TI_assign_register, DW_AT_name("RSA0_H")
    3899                      .dwattr $C$DW$372, DW_AT_location[DW_OP_regx 0x31]
    3900              $C$DW$373       .dwtag  DW_TAG_TI_assign_register, DW_AT_name("REA0")
    3901                      .dwattr $C$DW$373, DW_AT_location[DW_OP_regx 0x32]
    3902              $C$DW$374       .dwtag  DW_TAG_TI_assign_register, DW_AT_name("REA0_H")
    3903                      .dwattr $C$DW$374, DW_AT_location[DW_OP_regx 0x33]
    3904              $C$DW$375       .dwtag  DW_TAG_TI_assign_register, DW_AT_name("BRS1")
    3905                      .dwattr $C$DW$375, DW_AT_location[DW_OP_regx 0x34]
    3906              $C$DW$376       .dwtag  DW_TAG_TI_assign_register, DW_AT_name("BRC1")
    3907                      .dwattr $C$DW$376, DW_AT_location[DW_OP_regx 0x35]
    3908              $C$DW$377       .dwtag  DW_TAG_TI_assign_register, DW_AT_name("RSA1")
    3909                      .dwattr $C$DW$377, DW_AT_location[DW_OP_regx 0x36]
    3910              $C$DW$378       .dwtag  DW_TAG_TI_assign_register, DW_AT_name("RSA1_H")
    3911                      .dwattr $C$DW$378, DW_AT_location[DW_OP_regx 0x37]
    3912              $C$DW$379       .dwtag  DW_TAG_TI_assign_register, DW_AT_name("REA1")
    3913                      .dwattr $C$DW$379, DW_AT_location[DW_OP_regx 0x38]
    3914              $C$DW$380       .dwtag  DW_TAG_TI_assign_register, DW_AT_name("REA1_H")
    3915                      .dwattr $C$DW$380, DW_AT_location[DW_OP_regx 0x39]
    3916              $C$DW$381       .dwtag  DW_TAG_TI_assign_register, DW_AT_name("CSR")
    3917                      .dwattr $C$DW$381, DW_AT_location[DW_OP_regx 0x3a]
    3918              $C$DW$382       .dwtag  DW_TAG_TI_assign_register, DW_AT_name("RPTC")
    3919                      .dwattr $C$DW$382, DW_AT_location[DW_OP_regx 0x3b]
    3920              $C$DW$383       .dwtag  DW_TAG_TI_assign_register, DW_AT_name("CDP")
    3921                      .dwattr $C$DW$383, DW_AT_location[DW_OP_regx 0x3c]
    3922              $C$DW$384       .dwtag  DW_TAG_TI_assign_register, DW_AT_name("XCDP")
    3923                      .dwattr $C$DW$384, DW_AT_location[DW_OP_regx 0x3d]
    3924              $C$DW$385       .dwtag  DW_TAG_TI_assign_register, DW_AT_name("TRN0")
    3925                      .dwattr $C$DW$385, DW_AT_location[DW_OP_regx 0x3e]
    3926              $C$DW$386       .dwtag  DW_TAG_TI_assign_register, DW_AT_name("TRN1")
    3927                      .dwattr $C$DW$386, DW_AT_location[DW_OP_regx 0x3f]
    3928              $C$DW$387       .dwtag  DW_TAG_TI_assign_register, DW_AT_name("BSA01")
    3929                      .dwattr $C$DW$387, DW_AT_location[DW_OP_regx 0x40]
TMS320C55x Assembler PC v4.4.1 Sat Sep 08 23:28:20 2018

Tools Copyright (c) 1996-2012 Texas Instruments Incorporated
queue.asm                                                            PAGE   84

    3930              $C$DW$388       .dwtag  DW_TAG_TI_assign_register, DW_AT_name("BSA23")
    3931                      .dwattr $C$DW$388, DW_AT_location[DW_OP_regx 0x41]
    3932              $C$DW$389       .dwtag  DW_TAG_TI_assign_register, DW_AT_name("BSA45")
    3933                      .dwattr $C$DW$389, DW_AT_location[DW_OP_regx 0x42]
    3934              $C$DW$390       .dwtag  DW_TAG_TI_assign_register, DW_AT_name("BSA67")
    3935                      .dwattr $C$DW$390, DW_AT_location[DW_OP_regx 0x43]
    3936              $C$DW$391       .dwtag  DW_TAG_TI_assign_register, DW_AT_name("BSAC")
    3937                      .dwattr $C$DW$391, DW_AT_location[DW_OP_regx 0x44]
    3938              $C$DW$392       .dwtag  DW_TAG_TI_assign_register, DW_AT_name("CARRY")
    3939                      .dwattr $C$DW$392, DW_AT_location[DW_OP_regx 0x45]
    3940              $C$DW$393       .dwtag  DW_TAG_TI_assign_register, DW_AT_name("TC1")
    3941                      .dwattr $C$DW$393, DW_AT_location[DW_OP_regx 0x46]
    3942              $C$DW$394       .dwtag  DW_TAG_TI_assign_register, DW_AT_name("TC2")
    3943                      .dwattr $C$DW$394, DW_AT_location[DW_OP_regx 0x47]
    3944              $C$DW$395       .dwtag  DW_TAG_TI_assign_register, DW_AT_name("M40")
    3945                      .dwattr $C$DW$395, DW_AT_location[DW_OP_regx 0x48]
    3946              $C$DW$396       .dwtag  DW_TAG_TI_assign_register, DW_AT_name("SXMD")
    3947                      .dwattr $C$DW$396, DW_AT_location[DW_OP_regx 0x49]
    3948              $C$DW$397       .dwtag  DW_TAG_TI_assign_register, DW_AT_name("ARMS")
    3949                      .dwattr $C$DW$397, DW_AT_location[DW_OP_regx 0x4a]
    3950              $C$DW$398       .dwtag  DW_TAG_TI_assign_register, DW_AT_name("C54CM")
    3951                      .dwattr $C$DW$398, DW_AT_location[DW_OP_regx 0x4b]
    3952              $C$DW$399       .dwtag  DW_TAG_TI_assign_register, DW_AT_name("SATA")
    3953                      .dwattr $C$DW$399, DW_AT_location[DW_OP_regx 0x4c]
    3954              $C$DW$400       .dwtag  DW_TAG_TI_assign_register, DW_AT_name("SATD")
    3955                      .dwattr $C$DW$400, DW_AT_location[DW_OP_regx 0x4d]
    3956              $C$DW$401       .dwtag  DW_TAG_TI_assign_register, DW_AT_name("RDM")
    3957                      .dwattr $C$DW$401, DW_AT_location[DW_OP_regx 0x4e]
    3958              $C$DW$402       .dwtag  DW_TAG_TI_assign_register, DW_AT_name("FRCT")
    3959                      .dwattr $C$DW$402, DW_AT_location[DW_OP_regx 0x4f]
    3960              $C$DW$403       .dwtag  DW_TAG_TI_assign_register, DW_AT_name("SMUL")
    3961                      .dwattr $C$DW$403, DW_AT_location[DW_OP_regx 0x50]
    3962              $C$DW$404       .dwtag  DW_TAG_TI_assign_register, DW_AT_name("INTM")
    3963                      .dwattr $C$DW$404, DW_AT_location[DW_OP_regx 0x51]
    3964              $C$DW$405       .dwtag  DW_TAG_TI_assign_register, DW_AT_name("AR0LC")
    3965                      .dwattr $C$DW$405, DW_AT_location[DW_OP_regx 0x52]
    3966              $C$DW$406       .dwtag  DW_TAG_TI_assign_register, DW_AT_name("AR1LC")
    3967                      .dwattr $C$DW$406, DW_AT_location[DW_OP_regx 0x53]
    3968              $C$DW$407       .dwtag  DW_TAG_TI_assign_register, DW_AT_name("AR2LC")
    3969                      .dwattr $C$DW$407, DW_AT_location[DW_OP_regx 0x54]
    3970              $C$DW$408       .dwtag  DW_TAG_TI_assign_register, DW_AT_name("AR3LC")
    3971                      .dwattr $C$DW$408, DW_AT_location[DW_OP_regx 0x55]
    3972              $C$DW$409       .dwtag  DW_TAG_TI_assign_register, DW_AT_name("AR4LC")
    3973                      .dwattr $C$DW$409, DW_AT_location[DW_OP_regx 0x56]
    3974              $C$DW$410       .dwtag  DW_TAG_TI_assign_register, DW_AT_name("AR5LC")
    3975                      .dwattr $C$DW$410, DW_AT_location[DW_OP_regx 0x57]
    3976              $C$DW$411       .dwtag  DW_TAG_TI_assign_register, DW_AT_name("AR6LC")
    3977                      .dwattr $C$DW$411, DW_AT_location[DW_OP_regx 0x58]
    3978              $C$DW$412       .dwtag  DW_TAG_TI_assign_register, DW_AT_name("AR7LC")
    3979                      .dwattr $C$DW$412, DW_AT_location[DW_OP_regx 0x59]
    3980              $C$DW$413       .dwtag  DW_TAG_TI_assign_register, DW_AT_name("CDPLC")
    3981                      .dwattr $C$DW$413, DW_AT_location[DW_OP_regx 0x5a]
    3982              $C$DW$414       .dwtag  DW_TAG_TI_assign_register, DW_AT_name("CIE_RETA")
    3983                      .dwattr $C$DW$414, DW_AT_location[DW_OP_regx 0x5b]
    3984                      .dwendtag $C$DW$CU
TMS320C55x Assembler PC v4.4.1 Sat Sep 08 23:28:20 2018

Tools Copyright (c) 1996-2012 Texas Instruments Incorporated
queue.asm                                                            PAGE   85

    3985              
    3985              
    3985              

No Assembly Errors, No Assembly Warnings
