TMS320C55x Assembler PC v4.4.1 Fri Sep 07 02:27:27 2018

Tools Copyright (c) 1996-2012 Texas Instruments Incorporated
tasks.asm                                                            PAGE    1

    6019              ; Temporary Registers Used: None
       1              ;*******************************************************************************
       2              ;* TMS320C55x C/C++ Codegen                                          PC v4.4.1 *
       3              ;* Date/Time created: Fri Sep 07 02:27:25 2018                                 *
       4              ;*******************************************************************************
       5                      .compiler_opts --hll_source=on --mem_model:code=flat --mem_model:data=large --object_format=coff --si
       6                      .mmregs
       7                      .cpl_on
       8                      .arms_on
       9                      .c54cm_off
      10                      .asg AR6, FP
      11                      .asg XAR6, XFP
      12                      .asg DPH, MDP
      13                      .model call=c55_std
      14                      .model mem=large
      15                      .noremark 5002  ; code respects overwrite rules
      16              ;*******************************************************************************
      17              ;* GLOBAL FILE PARAMETERS                                                      *
      18              ;*                                                                             *
      19              ;*   Architecture       : TMS320C55x                                           *
      20              ;*   Optimizing for     : Speed                                                *
      21              ;*   Memory             : Large Model (23-Bit Data Pointers)                   *
      22              ;*   Calls              : Normal Library ASM calls                             *
      23              ;*   Debug Info         : Standard TI Debug Information                        *
      24              ;*******************************************************************************
      25              
      26              $C$DW$CU        .dwtag  DW_TAG_compile_unit
      27                      .dwattr $C$DW$CU, DW_AT_name("../FreeRTOS/Source/tasks.c")
      28                      .dwattr $C$DW$CU, DW_AT_producer("TMS320C55x C/C++ Codegen PC v4.4.1 Copyright (c) 1996-2012 Texas In
      29                      .dwattr $C$DW$CU, DW_AT_TI_version(0x01)
      30                      .dwattr $C$DW$CU, DW_AT_comp_dir("F:\eZDSP_5535_Files\ccsws2\test\Debug")
      31              ;******************************************************************************
      32              ;* CINIT RECORDS                                                              *
      33              ;******************************************************************************
      34 000000               .sect   ".cinit"
      35                      .align  1
      36 000000 0002          .field          2,16
      37 000001 0000-         .field          _wall_clk_ctr+0,24
         000002 0000 
      38 000002 0000          .field          0,8
      39 000003 0000          .field  0,32                    ; _wall_clk_ctr @ 0
         000004 0000 
      40              
      41 000005               .sect   ".cinit"
      42                      .align  1
      43 000005 0002          .field          2,16
      44 000006 0000-         .field          _pxCurrentTCB+0,24
         000007 0400 
      45 000007 0400          .field          0,8
      46 000008 0000          .field  0,32                    ; _pxCurrentTCB @ 0
         000009 0000 
      47              
      48 00000a               .sect   ".cinit"
      49                      .align  1
      50 00000a 0001          .field          1,16
TMS320C55x Assembler PC v4.4.1 Fri Sep 07 02:27:27 2018

Tools Copyright (c) 1996-2012 Texas Instruments Incorporated
tasks.asm                                                            PAGE    2

      51 00000b 0000-         .field          _uxTasksDeleted+0,24
         00000c 5A00 
      52 00000c 5A00          .field          0,8
      53 00000d 0000          .field  0,16                    ; _uxTasksDeleted @ 0
      54              
      55 00000e               .sect   ".cinit"
      56                      .align  1
      57 00000e 0001          .field          1,16
      58 00000f 0000-         .field          _uxCurrentNumberOfTasks+0,24
         000010 5B00 
      59 000010 5B00          .field          0,8
      60 000011 0000          .field  0,16                    ; _uxCurrentNumberOfTasks @ 0
      61              
      62 000012               .sect   ".cinit"
      63                      .align  1
      64 000012 0001          .field          1,16
      65 000013 0000-         .field          _xTickCount+0,24
         000014 6600 
      66 000014 6600          .field          0,8
      67 000015 0000          .field  0,16                    ; _xTickCount @ 0
      68              
      69 000016               .sect   ".cinit"
      70                      .align  1
      71 000016 0001          .field          1,16
      72 000017 0000-         .field          _uxTopUsedPriority+0,24
         000018 6700 
      73 000018 6700          .field          0,8
      74 000019 0000          .field  0,16                    ; _uxTopUsedPriority @ 0
      75              
      76 00001a               .sect   ".cinit"
      77                      .align  1
      78 00001a 0001          .field          1,16
      79 00001b 0000-         .field          _uxTopReadyPriority+0,24
         00001c 6800 
      80 00001c 6800          .field          0,8
      81 00001d 0000          .field  0,16                    ; _uxTopReadyPriority @ 0
      82              
      83 00001e               .sect   ".cinit"
      84                      .align  1
      85 00001e 0001          .field          1,16
      86 00001f 0000-         .field          _xSchedulerRunning+0,24
         000020 6900 
      87 000020 6900          .field          0,8
      88 000021 0000          .field  0,16                    ; _xSchedulerRunning @ 0
      89              
      90 000022               .sect   ".cinit"
      91                      .align  1
      92 000022 0001          .field          1,16
      93 000023 0000-         .field          _uxSchedulerSuspended+0,24
         000024 6A00 
      94 000024 6A00          .field          0,8
      95 000025 0000          .field  0,16                    ; _uxSchedulerSuspended @ 0
      96              
      97 000026               .sect   ".cinit"
      98                      .align  1
TMS320C55x Assembler PC v4.4.1 Fri Sep 07 02:27:27 2018

Tools Copyright (c) 1996-2012 Texas Instruments Incorporated
tasks.asm                                                            PAGE    3

      99 000026 0001          .field          1,16
     100 000027 0000-         .field          _uxMissedTicks+0,24
         000028 6B00 
     101 000028 6B00          .field          0,8
     102 000029 0000          .field  0,16                    ; _uxMissedTicks @ 0
     103              
     104 00002a               .sect   ".cinit"
     105                      .align  1
     106 00002a 0001          .field          1,16
     107 00002b 0000-         .field          _xMissedYield+0,24
         00002c 6C00 
     108 00002c 6C00          .field          0,8
     109 00002d 0000          .field  0,16                    ; _xMissedYield @ 0
     110              
     111 00002e               .sect   ".cinit"
     112                      .align  1
     113 00002e 0001          .field          1,16
     114 00002f 0000-         .field          _xNumOfOverflows+0,24
         000030 6D00 
     115 000030 6D00          .field          0,8
     116 000031 0000          .field  0,16                    ; _xNumOfOverflows @ 0
     117              
     118 000032               .sect   ".cinit"
     119                      .align  1
     120 000032 0001          .field          1,16
     121 000033 0000-         .field          _uxTaskNumber+0,24
         000034 6E00 
     122 000034 6E00          .field          0,8
     123 000035 0000          .field  0,16                    ; _uxTaskNumber @ 0
     124              
     125              
     126              $C$DW$1 .dwtag  DW_TAG_subprogram, DW_AT_name("strncpy")
     127                      .dwattr $C$DW$1, DW_AT_TI_symbol_name("_strncpy")
     128                      .dwattr $C$DW$1, DW_AT_type(*$C$DW$T$117)
     129                      .dwattr $C$DW$1, DW_AT_declaration
     130                      .dwattr $C$DW$1, DW_AT_external
     131              $C$DW$2 .dwtag  DW_TAG_formal_parameter
     132                      .dwattr $C$DW$2, DW_AT_type(*$C$DW$T$117)
     133              $C$DW$3 .dwtag  DW_TAG_formal_parameter
     134                      .dwattr $C$DW$3, DW_AT_type(*$C$DW$T$119)
     135              $C$DW$4 .dwtag  DW_TAG_formal_parameter
     136                      .dwattr $C$DW$4, DW_AT_type(*$C$DW$T$38)
     137                      .dwendtag $C$DW$1
     138              
     139              
     140              $C$DW$5 .dwtag  DW_TAG_subprogram, DW_AT_name("memset")
     141                      .dwattr $C$DW$5, DW_AT_TI_symbol_name("_memset")
     142                      .dwattr $C$DW$5, DW_AT_type(*$C$DW$T$3)
     143                      .dwattr $C$DW$5, DW_AT_declaration
     144                      .dwattr $C$DW$5, DW_AT_external
     145              $C$DW$6 .dwtag  DW_TAG_formal_parameter
     146                      .dwattr $C$DW$6, DW_AT_type(*$C$DW$T$3)
     147              $C$DW$7 .dwtag  DW_TAG_formal_parameter
     148                      .dwattr $C$DW$7, DW_AT_type(*$C$DW$T$10)
     149              $C$DW$8 .dwtag  DW_TAG_formal_parameter
TMS320C55x Assembler PC v4.4.1 Fri Sep 07 02:27:27 2018

Tools Copyright (c) 1996-2012 Texas Instruments Incorporated
tasks.asm                                                            PAGE    4

     150                      .dwattr $C$DW$8, DW_AT_type(*$C$DW$T$38)
     151                      .dwendtag $C$DW$5
     152              
     153              
     154              $C$DW$9 .dwtag  DW_TAG_subprogram, DW_AT_name("vPortYield")
     155                      .dwattr $C$DW$9, DW_AT_TI_symbol_name("_vPortYield")
     156                      .dwattr $C$DW$9, DW_AT_declaration
     157                      .dwattr $C$DW$9, DW_AT_external
     158              
     159              $C$DW$10        .dwtag  DW_TAG_subprogram, DW_AT_name("pxPortInitialiseStack")
     160                      .dwattr $C$DW$10, DW_AT_TI_symbol_name("_pxPortInitialiseStack")
     161                      .dwattr $C$DW$10, DW_AT_declaration
     162                      .dwattr $C$DW$10, DW_AT_external
     163              $C$DW$11        .dwtag  DW_TAG_formal_parameter
     164                      .dwattr $C$DW$11, DW_AT_type(*$C$DW$T$19)
     165              $C$DW$12        .dwtag  DW_TAG_formal_parameter
     166                      .dwattr $C$DW$12, DW_AT_type(*$C$DW$T$19)
     167              $C$DW$13        .dwtag  DW_TAG_formal_parameter
     168                      .dwattr $C$DW$13, DW_AT_type(*$C$DW$T$51)
     169              $C$DW$14        .dwtag  DW_TAG_formal_parameter
     170                      .dwattr $C$DW$14, DW_AT_type(*$C$DW$T$3)
     171                      .dwendtag $C$DW$10
     172              
     173              
     174              $C$DW$15        .dwtag  DW_TAG_subprogram, DW_AT_name("pvPortMalloc")
     175                      .dwattr $C$DW$15, DW_AT_TI_symbol_name("_pvPortMalloc")
     176                      .dwattr $C$DW$15, DW_AT_type(*$C$DW$T$3)
     177                      .dwattr $C$DW$15, DW_AT_declaration
     178                      .dwattr $C$DW$15, DW_AT_external
     179              $C$DW$16        .dwtag  DW_TAG_formal_parameter
     180                      .dwattr $C$DW$16, DW_AT_type(*$C$DW$T$38)
     181                      .dwendtag $C$DW$15
     182              
     183              
     184              $C$DW$17        .dwtag  DW_TAG_subprogram, DW_AT_name("vPortFree")
     185                      .dwattr $C$DW$17, DW_AT_TI_symbol_name("_vPortFree")
     186                      .dwattr $C$DW$17, DW_AT_declaration
     187                      .dwattr $C$DW$17, DW_AT_external
     188              $C$DW$18        .dwtag  DW_TAG_formal_parameter
     189                      .dwattr $C$DW$18, DW_AT_type(*$C$DW$T$3)
     190                      .dwendtag $C$DW$17
     191              
     192              
     193              $C$DW$19        .dwtag  DW_TAG_subprogram, DW_AT_name("xPortStartScheduler")
     194                      .dwattr $C$DW$19, DW_AT_TI_symbol_name("_xPortStartScheduler")
     195                      .dwattr $C$DW$19, DW_AT_type(*$C$DW$T$10)
     196                      .dwattr $C$DW$19, DW_AT_declaration
     197                      .dwattr $C$DW$19, DW_AT_external
     198              
     199              $C$DW$20        .dwtag  DW_TAG_subprogram, DW_AT_name("vPortEndScheduler")
     200                      .dwattr $C$DW$20, DW_AT_TI_symbol_name("_vPortEndScheduler")
     201                      .dwattr $C$DW$20, DW_AT_declaration
     202                      .dwattr $C$DW$20, DW_AT_external
     203              
     204              $C$DW$21        .dwtag  DW_TAG_subprogram, DW_AT_name("vListInitialise")
TMS320C55x Assembler PC v4.4.1 Fri Sep 07 02:27:27 2018

Tools Copyright (c) 1996-2012 Texas Instruments Incorporated
tasks.asm                                                            PAGE    5

     205                      .dwattr $C$DW$21, DW_AT_TI_symbol_name("_vListInitialise")
     206                      .dwattr $C$DW$21, DW_AT_declaration
     207                      .dwattr $C$DW$21, DW_AT_external
     208              $C$DW$22        .dwtag  DW_TAG_formal_parameter
     209                      .dwattr $C$DW$22, DW_AT_type(*$C$DW$T$55)
     210                      .dwendtag $C$DW$21
     211              
     212              
     213              $C$DW$23        .dwtag  DW_TAG_subprogram, DW_AT_name("vListInitialiseItem")
     214                      .dwattr $C$DW$23, DW_AT_TI_symbol_name("_vListInitialiseItem")
     215                      .dwattr $C$DW$23, DW_AT_declaration
     216                      .dwattr $C$DW$23, DW_AT_external
     217              $C$DW$24        .dwtag  DW_TAG_formal_parameter
     218                      .dwattr $C$DW$24, DW_AT_type(*$C$DW$T$58)
     219                      .dwendtag $C$DW$23
     220              
     221              
     222              $C$DW$25        .dwtag  DW_TAG_subprogram, DW_AT_name("vListInsert")
     223                      .dwattr $C$DW$25, DW_AT_TI_symbol_name("_vListInsert")
     224                      .dwattr $C$DW$25, DW_AT_declaration
     225                      .dwattr $C$DW$25, DW_AT_external
     226              $C$DW$26        .dwtag  DW_TAG_formal_parameter
     227                      .dwattr $C$DW$26, DW_AT_type(*$C$DW$T$55)
     228              $C$DW$27        .dwtag  DW_TAG_formal_parameter
     229                      .dwattr $C$DW$27, DW_AT_type(*$C$DW$T$58)
     230                      .dwendtag $C$DW$25
     231              
     232              
     233              $C$DW$28        .dwtag  DW_TAG_subprogram, DW_AT_name("vListInsertEnd")
     234                      .dwattr $C$DW$28, DW_AT_TI_symbol_name("_vListInsertEnd")
     235                      .dwattr $C$DW$28, DW_AT_declaration
     236                      .dwattr $C$DW$28, DW_AT_external
     237              $C$DW$29        .dwtag  DW_TAG_formal_parameter
     238                      .dwattr $C$DW$29, DW_AT_type(*$C$DW$T$55)
     239              $C$DW$30        .dwtag  DW_TAG_formal_parameter
     240                      .dwattr $C$DW$30, DW_AT_type(*$C$DW$T$58)
     241                      .dwendtag $C$DW$28
     242              
     243              
     244              $C$DW$31        .dwtag  DW_TAG_subprogram, DW_AT_name("vListRemove")
     245                      .dwattr $C$DW$31, DW_AT_TI_symbol_name("_vListRemove")
     246                      .dwattr $C$DW$31, DW_AT_declaration
     247                      .dwattr $C$DW$31, DW_AT_external
     248              $C$DW$32        .dwtag  DW_TAG_formal_parameter
     249                      .dwattr $C$DW$32, DW_AT_type(*$C$DW$T$58)
     250                      .dwendtag $C$DW$31
     251              
     252              
     253              $C$DW$33        .dwtag  DW_TAG_subprogram, DW_AT_name("EZDSP5535_LED_on")
     254                      .dwattr $C$DW$33, DW_AT_TI_symbol_name("_EZDSP5535_LED_on")
     255                      .dwattr $C$DW$33, DW_AT_type(*$C$DW$T$96)
     256                      .dwattr $C$DW$33, DW_AT_declaration
     257                      .dwattr $C$DW$33, DW_AT_external
     258              $C$DW$34        .dwtag  DW_TAG_formal_parameter
     259                      .dwattr $C$DW$34, DW_AT_type(*$C$DW$T$97)
TMS320C55x Assembler PC v4.4.1 Fri Sep 07 02:27:27 2018

Tools Copyright (c) 1996-2012 Texas Instruments Incorporated
tasks.asm                                                            PAGE    6

     260                      .dwendtag $C$DW$33
     261              
     262              
     263              $C$DW$35        .dwtag  DW_TAG_subprogram, DW_AT_name("EZDSP5535_LED_off")
     264                      .dwattr $C$DW$35, DW_AT_TI_symbol_name("_EZDSP5535_LED_off")
     265                      .dwattr $C$DW$35, DW_AT_type(*$C$DW$T$96)
     266                      .dwattr $C$DW$35, DW_AT_declaration
     267                      .dwattr $C$DW$35, DW_AT_external
     268              $C$DW$36        .dwtag  DW_TAG_formal_parameter
     269                      .dwattr $C$DW$36, DW_AT_type(*$C$DW$T$97)
     270                      .dwendtag $C$DW$35
     271              
     272              
     273              $C$DW$37        .dwtag  DW_TAG_subprogram, DW_AT_name("vApplicationIdleHook")
     274                      .dwattr $C$DW$37, DW_AT_TI_symbol_name("_vApplicationIdleHook")
     275                      .dwattr $C$DW$37, DW_AT_declaration
     276                      .dwattr $C$DW$37, DW_AT_external
     277                      .global _wall_clk_ctr
     278 000000               .bss    _wall_clk_ctr,2,0,2
     279              $C$DW$38        .dwtag  DW_TAG_variable, DW_AT_name("wall_clk_ctr")
     280                      .dwattr $C$DW$38, DW_AT_TI_symbol_name("_wall_clk_ctr")
     281                      .dwattr $C$DW$38, DW_AT_location[DW_OP_addr _wall_clk_ctr]
     282                      .dwattr $C$DW$38, DW_AT_type(*$C$DW$T$13)
     283                      .dwattr $C$DW$38, DW_AT_external
     284                      .global _stackStruct
     285 000002               .bss    _stackStruct,2,0,2
     286              $C$DW$39        .dwtag  DW_TAG_variable, DW_AT_name("stackStruct")
     287                      .dwattr $C$DW$39, DW_AT_TI_symbol_name("_stackStruct")
     288                      .dwattr $C$DW$39, DW_AT_location[DW_OP_addr _stackStruct]
     289                      .dwattr $C$DW$39, DW_AT_type(*$C$DW$T$122)
     290                      .dwattr $C$DW$39, DW_AT_external
     291                      .global _pxCurrentTCB
     292 000004               .bss    _pxCurrentTCB,2,0,2
     293              $C$DW$40        .dwtag  DW_TAG_variable, DW_AT_name("pxCurrentTCB")
     294                      .dwattr $C$DW$40, DW_AT_TI_symbol_name("_pxCurrentTCB")
     295                      .dwattr $C$DW$40, DW_AT_location[DW_OP_addr _pxCurrentTCB]
     296                      .dwattr $C$DW$40, DW_AT_type(*$C$DW$T$126)
     297                      .dwattr $C$DW$40, DW_AT_external
     298 000006               .bss    _pxReadyTasksLists,40,0,2
     299              $C$DW$41        .dwtag  DW_TAG_variable, DW_AT_name("pxReadyTasksLists")
     300                      .dwattr $C$DW$41, DW_AT_TI_symbol_name("_pxReadyTasksLists")
     301                      .dwattr $C$DW$41, DW_AT_type(*$C$DW$T$134)
     302                      .dwattr $C$DW$41, DW_AT_location[DW_OP_addr _pxReadyTasksLists]
     303 00002e               .bss    _xDelayedTaskList1,10,0,2
     304              $C$DW$42        .dwtag  DW_TAG_variable, DW_AT_name("xDelayedTaskList1")
     305                      .dwattr $C$DW$42, DW_AT_TI_symbol_name("_xDelayedTaskList1")
     306                      .dwattr $C$DW$42, DW_AT_type(*$C$DW$T$54)
     307                      .dwattr $C$DW$42, DW_AT_location[DW_OP_addr _xDelayedTaskList1]
     308 000038               .bss    _xDelayedTaskList2,10,0,2
     309              $C$DW$43        .dwtag  DW_TAG_variable, DW_AT_name("xDelayedTaskList2")
     310                      .dwattr $C$DW$43, DW_AT_TI_symbol_name("_xDelayedTaskList2")
     311                      .dwattr $C$DW$43, DW_AT_type(*$C$DW$T$54)
     312                      .dwattr $C$DW$43, DW_AT_location[DW_OP_addr _xDelayedTaskList2]
     313 000042               .bss    _pxDelayedTaskList,2,0,2
     314              $C$DW$44        .dwtag  DW_TAG_variable, DW_AT_name("pxDelayedTaskList")
TMS320C55x Assembler PC v4.4.1 Fri Sep 07 02:27:27 2018

Tools Copyright (c) 1996-2012 Texas Instruments Incorporated
tasks.asm                                                            PAGE    7

     315                      .dwattr $C$DW$44, DW_AT_TI_symbol_name("_pxDelayedTaskList")
     316                      .dwattr $C$DW$44, DW_AT_type(*$C$DW$T$132)
     317                      .dwattr $C$DW$44, DW_AT_location[DW_OP_addr _pxDelayedTaskList]
     318 000044               .bss    _pxOverflowDelayedTaskList,2,0,2
     319              $C$DW$45        .dwtag  DW_TAG_variable, DW_AT_name("pxOverflowDelayedTaskList")
     320                      .dwattr $C$DW$45, DW_AT_TI_symbol_name("_pxOverflowDelayedTaskList")
     321                      .dwattr $C$DW$45, DW_AT_type(*$C$DW$T$132)
     322                      .dwattr $C$DW$45, DW_AT_location[DW_OP_addr _pxOverflowDelayedTaskList]
     323 000046               .bss    _xPendingReadyList,10,0,2
     324              $C$DW$46        .dwtag  DW_TAG_variable, DW_AT_name("xPendingReadyList")
     325                      .dwattr $C$DW$46, DW_AT_TI_symbol_name("_xPendingReadyList")
     326                      .dwattr $C$DW$46, DW_AT_type(*$C$DW$T$54)
     327                      .dwattr $C$DW$46, DW_AT_location[DW_OP_addr _xPendingReadyList]
     328 000050               .bss    _xTasksWaitingTermination,10,0,2
     329              $C$DW$47        .dwtag  DW_TAG_variable, DW_AT_name("xTasksWaitingTermination")
     330                      .dwattr $C$DW$47, DW_AT_TI_symbol_name("_xTasksWaitingTermination")
     331                      .dwattr $C$DW$47, DW_AT_type(*$C$DW$T$135)
     332                      .dwattr $C$DW$47, DW_AT_location[DW_OP_addr _xTasksWaitingTermination]
     333 00005a               .bss    _uxTasksDeleted,1,0,0
     334              $C$DW$48        .dwtag  DW_TAG_variable, DW_AT_name("uxTasksDeleted")
     335                      .dwattr $C$DW$48, DW_AT_TI_symbol_name("_uxTasksDeleted")
     336                      .dwattr $C$DW$48, DW_AT_type(*$C$DW$T$21)
     337                      .dwattr $C$DW$48, DW_AT_location[DW_OP_addr _uxTasksDeleted]
     338 00005c               .bss    _xSuspendedTaskList,10,0,2
     339              $C$DW$49        .dwtag  DW_TAG_variable, DW_AT_name("xSuspendedTaskList")
     340                      .dwattr $C$DW$49, DW_AT_TI_symbol_name("_xSuspendedTaskList")
     341                      .dwattr $C$DW$49, DW_AT_type(*$C$DW$T$54)
     342                      .dwattr $C$DW$49, DW_AT_location[DW_OP_addr _xSuspendedTaskList]
     343 00005b               .bss    _uxCurrentNumberOfTasks,1,0,0
     344              $C$DW$50        .dwtag  DW_TAG_variable, DW_AT_name("uxCurrentNumberOfTasks")
     345                      .dwattr $C$DW$50, DW_AT_TI_symbol_name("_uxCurrentNumberOfTasks")
     346                      .dwattr $C$DW$50, DW_AT_type(*$C$DW$T$21)
     347                      .dwattr $C$DW$50, DW_AT_location[DW_OP_addr _uxCurrentNumberOfTasks]
     348 000066               .bss    _xTickCount,1,0,0
     349              $C$DW$51        .dwtag  DW_TAG_variable, DW_AT_name("xTickCount")
     350                      .dwattr $C$DW$51, DW_AT_TI_symbol_name("_xTickCount")
     351                      .dwattr $C$DW$51, DW_AT_type(*$C$DW$T$115)
     352                      .dwattr $C$DW$51, DW_AT_location[DW_OP_addr _xTickCount]
     353 000067               .bss    _uxTopUsedPriority,1,0,0
     354              $C$DW$52        .dwtag  DW_TAG_variable, DW_AT_name("uxTopUsedPriority")
     355                      .dwattr $C$DW$52, DW_AT_TI_symbol_name("_uxTopUsedPriority")
     356                      .dwattr $C$DW$52, DW_AT_type(*$C$DW$T$11)
     357                      .dwattr $C$DW$52, DW_AT_location[DW_OP_addr _uxTopUsedPriority]
     358 000068               .bss    _uxTopReadyPriority,1,0,0
     359              $C$DW$53        .dwtag  DW_TAG_variable, DW_AT_name("uxTopReadyPriority")
     360                      .dwattr $C$DW$53, DW_AT_TI_symbol_name("_uxTopReadyPriority")
     361                      .dwattr $C$DW$53, DW_AT_type(*$C$DW$T$21)
     362                      .dwattr $C$DW$53, DW_AT_location[DW_OP_addr _uxTopReadyPriority]
     363 000069               .bss    _xSchedulerRunning,1,0,0
     364              $C$DW$54        .dwtag  DW_TAG_variable, DW_AT_name("xSchedulerRunning")
     365                      .dwattr $C$DW$54, DW_AT_TI_symbol_name("_xSchedulerRunning")
     366                      .dwattr $C$DW$54, DW_AT_type(*$C$DW$T$110)
     367                      .dwattr $C$DW$54, DW_AT_location[DW_OP_addr _xSchedulerRunning]
     368 00006a               .bss    _uxSchedulerSuspended,1,0,0
     369              $C$DW$55        .dwtag  DW_TAG_variable, DW_AT_name("uxSchedulerSuspended")
TMS320C55x Assembler PC v4.4.1 Fri Sep 07 02:27:27 2018

Tools Copyright (c) 1996-2012 Texas Instruments Incorporated
tasks.asm                                                            PAGE    8

     370                      .dwattr $C$DW$55, DW_AT_TI_symbol_name("_uxSchedulerSuspended")
     371                      .dwattr $C$DW$55, DW_AT_type(*$C$DW$T$21)
     372                      .dwattr $C$DW$55, DW_AT_location[DW_OP_addr _uxSchedulerSuspended]
     373 00006b               .bss    _uxMissedTicks,1,0,0
     374              $C$DW$56        .dwtag  DW_TAG_variable, DW_AT_name("uxMissedTicks")
     375                      .dwattr $C$DW$56, DW_AT_TI_symbol_name("_uxMissedTicks")
     376                      .dwattr $C$DW$56, DW_AT_type(*$C$DW$T$21)
     377                      .dwattr $C$DW$56, DW_AT_location[DW_OP_addr _uxMissedTicks]
     378 00006c               .bss    _xMissedYield,1,0,0
     379              $C$DW$57        .dwtag  DW_TAG_variable, DW_AT_name("xMissedYield")
     380                      .dwattr $C$DW$57, DW_AT_TI_symbol_name("_xMissedYield")
     381                      .dwattr $C$DW$57, DW_AT_type(*$C$DW$T$110)
     382                      .dwattr $C$DW$57, DW_AT_location[DW_OP_addr _xMissedYield]
     383 00006d               .bss    _xNumOfOverflows,1,0,0
     384              $C$DW$58        .dwtag  DW_TAG_variable, DW_AT_name("xNumOfOverflows")
     385                      .dwattr $C$DW$58, DW_AT_TI_symbol_name("_xNumOfOverflows")
     386                      .dwattr $C$DW$58, DW_AT_type(*$C$DW$T$110)
     387                      .dwattr $C$DW$58, DW_AT_location[DW_OP_addr _xNumOfOverflows]
     388 00006e               .bss    _uxTaskNumber,1,0,0
     389              $C$DW$59        .dwtag  DW_TAG_variable, DW_AT_name("uxTaskNumber")
     390                      .dwattr $C$DW$59, DW_AT_TI_symbol_name("_uxTaskNumber")
     391                      .dwattr $C$DW$59, DW_AT_type(*$C$DW$T$11)
     392                      .dwattr $C$DW$59, DW_AT_location[DW_OP_addr _uxTaskNumber]
     393              $C$DW$60        .dwtag  DW_TAG_variable, DW_AT_name("usCriticalNesting")
     394                      .dwattr $C$DW$60, DW_AT_TI_symbol_name("_usCriticalNesting")
     395                      .dwattr $C$DW$60, DW_AT_type(*$C$DW$T$21)
     396                      .dwattr $C$DW$60, DW_AT_declaration
     397                      .dwattr $C$DW$60, DW_AT_external
     398              ;       F:\ti\ccs8p1\ccsv8\tools\compiler\alt-install-ti-cgt-c55x_4.4.1\bin\acp55.exe -@f:\\AppData\\Local\\T
     399 000000               .sect   ".text"
     400                      .align 4
     401                      .global _xTaskGenericCreate
     402              
     403              $C$DW$61        .dwtag  DW_TAG_subprogram, DW_AT_name("xTaskGenericCreate")
     404                      .dwattr $C$DW$61, DW_AT_low_pc(_xTaskGenericCreate)
     405                      .dwattr $C$DW$61, DW_AT_high_pc(0x00)
     406                      .dwattr $C$DW$61, DW_AT_TI_symbol_name("_xTaskGenericCreate")
     407                      .dwattr $C$DW$61, DW_AT_external
     408                      .dwattr $C$DW$61, DW_AT_type(*$C$DW$T$10)
     409                      .dwattr $C$DW$61, DW_AT_TI_begin_file("../FreeRTOS/Source/tasks.c")
     410                      .dwattr $C$DW$61, DW_AT_TI_begin_line(0x198)
     411                      .dwattr $C$DW$61, DW_AT_TI_begin_column(0x16)
     412                      .dwattr $C$DW$61, DW_AT_TI_max_frame_size(0x1a)
     413                      .dwpsn  file "../FreeRTOS/Source/tasks.c",line 409,column 1,is_stmt,address _xTaskGenericCreate
     414              
     415                      .dwfde $C$DW$CIE, _xTaskGenericCreate
     416              $C$DW$62        .dwtag  DW_TAG_formal_parameter, DW_AT_name("pxTaskCode")
     417                      .dwattr $C$DW$62, DW_AT_TI_symbol_name("_pxTaskCode")
     418                      .dwattr $C$DW$62, DW_AT_type(*$C$DW$T$51)
     419                      .dwattr $C$DW$62, DW_AT_location[DW_OP_reg1]
     420              $C$DW$63        .dwtag  DW_TAG_formal_parameter, DW_AT_name("pcName")
     421                      .dwattr $C$DW$63, DW_AT_TI_symbol_name("_pcName")
     422                      .dwattr $C$DW$63, DW_AT_type(*$C$DW$T$82)
     423                      .dwattr $C$DW$63, DW_AT_location[DW_OP_reg17]
     424              $C$DW$64        .dwtag  DW_TAG_formal_parameter, DW_AT_name("usStackDepth")
TMS320C55x Assembler PC v4.4.1 Fri Sep 07 02:27:27 2018

Tools Copyright (c) 1996-2012 Texas Instruments Incorporated
tasks.asm                                                            PAGE    9

     425                      .dwattr $C$DW$64, DW_AT_TI_symbol_name("_usStackDepth")
     426                      .dwattr $C$DW$64, DW_AT_type(*$C$DW$T$9)
     427                      .dwattr $C$DW$64, DW_AT_location[DW_OP_reg12]
     428              $C$DW$65        .dwtag  DW_TAG_formal_parameter, DW_AT_name("pvParameters")
     429                      .dwattr $C$DW$65, DW_AT_TI_symbol_name("_pvParameters")
     430                      .dwattr $C$DW$65, DW_AT_type(*$C$DW$T$3)
     431                      .dwattr $C$DW$65, DW_AT_location[DW_OP_reg19]
     432              $C$DW$66        .dwtag  DW_TAG_formal_parameter, DW_AT_name("uxPriority")
     433                      .dwattr $C$DW$66, DW_AT_TI_symbol_name("_uxPriority")
     434                      .dwattr $C$DW$66, DW_AT_type(*$C$DW$T$11)
     435                      .dwattr $C$DW$66, DW_AT_location[DW_OP_reg13]
     436              $C$DW$67        .dwtag  DW_TAG_formal_parameter, DW_AT_name("pxCreatedTask")
     437                      .dwattr $C$DW$67, DW_AT_TI_symbol_name("_pxCreatedTask")
     438                      .dwattr $C$DW$67, DW_AT_type(*$C$DW$T$46)
     439                      .dwattr $C$DW$67, DW_AT_location[DW_OP_reg21]
     440              $C$DW$68        .dwtag  DW_TAG_formal_parameter, DW_AT_name("puxStackBuffer")
     441                      .dwattr $C$DW$68, DW_AT_TI_symbol_name("_puxStackBuffer")
     442                      .dwattr $C$DW$68, DW_AT_type(*$C$DW$T$19)
     443                      .dwattr $C$DW$68, DW_AT_location[DW_OP_reg23]
     444              $C$DW$69        .dwtag  DW_TAG_formal_parameter, DW_AT_name("xRegions")
     445                      .dwattr $C$DW$69, DW_AT_TI_symbol_name("_xRegions")
     446                      .dwattr $C$DW$69, DW_AT_type(*$C$DW$T$86)
     447                      .dwattr $C$DW$69, DW_AT_location[DW_OP_reg25]
     448              ;*******************************************************************************
     449              ;* FUNCTION NAME: xTaskGenericCreate                                           *
     450              ;*                                                                             *
     451              ;*   Function Uses Regs : AC0,AC0,AC1,AC1,T0,T1,AR0,XAR0,AR1,XAR1,AR2,XAR2,AR3,*
     452              ;*                        XAR3,AR4,XAR4,SP,CARRY,TC1,M40,SATA,SATD,RDM,FRCT,   *
     453              ;*                        SMUL                                                 *
     454              ;*   Stack Frame        : Compact (No Frame Pointer, w/ debug)                 *
     455              ;*   Total Frame Size   : 26 words                                             *
     456              ;*                        (2 return address/alignment)                         *
     457              ;*                        (24 local values)                                    *
     458              ;*   Min System Stack   : 1 word                                               *
     459              ;*******************************************************************************
     460 000000       _xTaskGenericCreate:
     461                      .dwcfi  cfa_offset, 1
     462                      .dwcfi  save_reg_to_mem, 91, -1
     463 000000 4EE7          AADD #-25, SP
     464                      .dwcfi  cfa_offset, 26
     465              $C$DW$70        .dwtag  DW_TAG_variable, DW_AT_name("pxTaskCode")
     466                      .dwattr $C$DW$70, DW_AT_TI_symbol_name("_pxTaskCode")
     467                      .dwattr $C$DW$70, DW_AT_type(*$C$DW$T$51)
     468                      .dwattr $C$DW$70, DW_AT_location[DW_OP_bregx 0x24 0]
     469              $C$DW$71        .dwtag  DW_TAG_variable, DW_AT_name("pcName")
     470                      .dwattr $C$DW$71, DW_AT_TI_symbol_name("_pcName")
     471                      .dwattr $C$DW$71, DW_AT_type(*$C$DW$T$82)
     472                      .dwattr $C$DW$71, DW_AT_location[DW_OP_bregx 0x24 2]
     473              $C$DW$72        .dwtag  DW_TAG_variable, DW_AT_name("usStackDepth")
     474                      .dwattr $C$DW$72, DW_AT_TI_symbol_name("_usStackDepth")
     475                      .dwattr $C$DW$72, DW_AT_type(*$C$DW$T$9)
     476                      .dwattr $C$DW$72, DW_AT_location[DW_OP_bregx 0x24 4]
     477              $C$DW$73        .dwtag  DW_TAG_variable, DW_AT_name("pvParameters")
     478                      .dwattr $C$DW$73, DW_AT_TI_symbol_name("_pvParameters")
     479                      .dwattr $C$DW$73, DW_AT_type(*$C$DW$T$3)
TMS320C55x Assembler PC v4.4.1 Fri Sep 07 02:27:27 2018

Tools Copyright (c) 1996-2012 Texas Instruments Incorporated
tasks.asm                                                            PAGE   10

     480                      .dwattr $C$DW$73, DW_AT_location[DW_OP_bregx 0x24 6]
     481              $C$DW$74        .dwtag  DW_TAG_variable, DW_AT_name("uxPriority")
     482                      .dwattr $C$DW$74, DW_AT_TI_symbol_name("_uxPriority")
     483                      .dwattr $C$DW$74, DW_AT_type(*$C$DW$T$11)
     484                      .dwattr $C$DW$74, DW_AT_location[DW_OP_bregx 0x24 8]
     485              $C$DW$75        .dwtag  DW_TAG_variable, DW_AT_name("pxCreatedTask")
     486                      .dwattr $C$DW$75, DW_AT_TI_symbol_name("_pxCreatedTask")
     487                      .dwattr $C$DW$75, DW_AT_type(*$C$DW$T$46)
     488                      .dwattr $C$DW$75, DW_AT_location[DW_OP_bregx 0x24 10]
     489              $C$DW$76        .dwtag  DW_TAG_variable, DW_AT_name("puxStackBuffer")
     490                      .dwattr $C$DW$76, DW_AT_TI_symbol_name("_puxStackBuffer")
     491                      .dwattr $C$DW$76, DW_AT_type(*$C$DW$T$19)
     492                      .dwattr $C$DW$76, DW_AT_location[DW_OP_bregx 0x24 12]
     493              $C$DW$77        .dwtag  DW_TAG_variable, DW_AT_name("xRegions")
     494                      .dwattr $C$DW$77, DW_AT_TI_symbol_name("_xRegions")
     495                      .dwattr $C$DW$77, DW_AT_type(*$C$DW$T$86)
     496                      .dwattr $C$DW$77, DW_AT_location[DW_OP_bregx 0x24 14]
     497              $C$DW$78        .dwtag  DW_TAG_variable, DW_AT_name("xReturn")
     498                      .dwattr $C$DW$78, DW_AT_TI_symbol_name("_xReturn")
     499                      .dwattr $C$DW$78, DW_AT_type(*$C$DW$T$10)
     500                      .dwattr $C$DW$78, DW_AT_location[DW_OP_bregx 0x24 16]
     501              $C$DW$79        .dwtag  DW_TAG_variable, DW_AT_name("pxNewTCB")
     502                      .dwattr $C$DW$79, DW_AT_TI_symbol_name("_pxNewTCB")
     503                      .dwattr $C$DW$79, DW_AT_type(*$C$DW$T$79)
     504                      .dwattr $C$DW$79, DW_AT_location[DW_OP_bregx 0x24 18]
     505 000002 EB1C          MOV XAR4, dbl(*SP(#14))
         000004 C5   
     506 000005 EB18          MOV XAR3, dbl(*SP(#12))
         000007 B5   
     507 000008 EB14          MOV XAR2, dbl(*SP(#10))
         00000a A5   
     508 00000b C510          MOV T1, *SP(#8) ; |409| 
     509 00000d EB0C          MOV XAR1, dbl(*SP(#6))
         00000f 95   
     510 000010 C408          MOV T0, *SP(#4) ; |409| 
     511 000012 EB04          MOV XAR0, dbl(*SP(#2))
         000014 85   
     512 000015 EB00          MOV AC0, dbl(*SP(#0)) ; |409| 
         000017 08   
     513                      .dwpsn  file "../FreeRTOS/Source/tasks.c",line 415,column 2,is_stmt
     514 000018 A408          MOV *SP(#4), T0 ; |415| 
     515 00001a ED18          MOV dbl(*SP(#12)), XAR0
         00001c 8F   
     516              $C$DW$80        .dwtag  DW_TAG_TI_branch
     517                      .dwattr $C$DW$80, DW_AT_low_pc(0x00)
     518                      .dwattr $C$DW$80, DW_AT_name("_prvAllocateTCBAndStack")
     519                      .dwattr $C$DW$80, DW_AT_TI_call
     520 00001d 0810          CALL #_prvAllocateTCBAndStack ; |415| 
         00001f 2C   
     521                                                      ; call occurs [#_prvAllocateTCBAndStack] ; |415| 
     522 000020 EB24          MOV XAR0, dbl(*SP(#18))
         000022 85   
     523                      .dwpsn  file "../FreeRTOS/Source/tasks.c",line 419,column 2,is_stmt
     524              $C$DW$81        .dwtag  DW_TAG_TI_branch
     525                      .dwattr $C$DW$81, DW_AT_low_pc(0x00)
TMS320C55x Assembler PC v4.4.1 Fri Sep 07 02:27:27 2018

Tools Copyright (c) 1996-2012 Texas Instruments Incorporated
tasks.asm                                                            PAGE   11

     526                      .dwattr $C$DW$81, DW_AT_name("_pvPortMalloc")
     527                      .dwattr $C$DW$81, DW_AT_TI_call
     528              
     529 000023 6C00          CALL #_pvPortMalloc ; |419| 
         000025 0000!
     530 000027 3D44  ||      MOV #4, T0
     531              
     532                                                      ; call occurs [#_pvPortMalloc] ; |419| 
     533 000029 EB31          MOV XAR0, dbl(*(#_stackStruct))
         00002b 8500 
         00002d 0002-
     534                      .dwpsn  file "../FreeRTOS/Source/tasks.c",line 421,column 2,is_stmt
     535                      .dwpsn  file "../FreeRTOS/Source/tasks.c",line 425,column 2,is_stmt
     536 00002f ED24          MOV dbl(*SP(#18)), XAR3
         000031 BF   
     537 000032 90B0          MOV XAR3, AC0
     538 000034 6D00          BCC $C$L5,AC0 == #0 ; |425| 
         000036 013B 
     539                                                      ; branchcc occurs ; |425| 
     540              
     541              $C$DW$82        .dwtag  DW_TAG_lexical_block, DW_AT_low_pc(0x00), DW_AT_high_pc(0x00)
     542              $C$DW$83        .dwtag  DW_TAG_variable, DW_AT_name("pxTopOfStack")
     543                      .dwattr $C$DW$83, DW_AT_TI_symbol_name("_pxTopOfStack")
     544                      .dwattr $C$DW$83, DW_AT_type(*$C$DW$T$19)
     545                      .dwattr $C$DW$83, DW_AT_location[DW_OP_bregx 0x24 20]
     546              $C$DW$84        .dwtag  DW_TAG_variable, DW_AT_name("pxTopOfSysStack")
     547                      .dwattr $C$DW$84, DW_AT_TI_symbol_name("_pxTopOfSysStack")
     548                      .dwattr $C$DW$84, DW_AT_type(*$C$DW$T$19)
     549                      .dwattr $C$DW$84, DW_AT_location[DW_OP_bregx 0x24 22]
     550                      .dwpsn  file "../FreeRTOS/Source/tasks.c",line 451,column 4,is_stmt
     551 000038 ED6D          MOV dbl(*AR3(#26)), XAR3
         00003a BF00 
         00003c 1A   
     552 00003d A908          MOV *SP(#4), AR1 ; |451| 
     553 00003f 4219          SUB #1, AR1 ; |451| 
     554              
     555 000041 8E28          MOV XAR3, dbl(*SP(#20))
         000043 BB10 
         000045 B590 
     556              ||      AADD AR1, AR3 ; |451| 
     557              
     558                      .dwpsn  file "../FreeRTOS/Source/tasks.c",line 452,column 4,is_stmt
     559 000047 7AFF          MOV #-1 << #16, AC1 ; |452| 
         000049 FF1A 
     560 00004b 90B0          MOV XAR3, AC0
     561 00004d 7EFF          OR #0xfffc, AC1, AC1 ; |452| 
         00004f FC11 
     562 000051 2801          AND AC0, AC1 ; |452| 
     563 000053 EB28          MOV AC1, dbl(*SP(#20))
         000055 18   
     564                      .dwpsn  file "../FreeRTOS/Source/tasks.c",line 453,column 4,is_stmt
     565 000056 ED24          MOV dbl(*SP(#18)), XAR3
         000058 BF   
     566 000059 A908          MOV *SP(#4), AR1 ; |453| 
     567 00005b 4219          SUB #1, AR1 ; |453| 
TMS320C55x Assembler PC v4.4.1 Fri Sep 07 02:27:27 2018

Tools Copyright (c) 1996-2012 Texas Instruments Incorporated
tasks.asm                                                            PAGE   12

     568 00005d ED6D          MOV dbl(*AR3(#28)), XAR3
         00005f BF00 
         000061 1C   
     569              
     570 000062 8E2C          MOV XAR3, dbl(*SP(#22))
         000064 BB10 
         000066 B590 
     571              ||      AADD AR1, AR3 ; |453| 
     572              
     573                      .dwpsn  file "../FreeRTOS/Source/tasks.c",line 454,column 4,is_stmt
     574 000068 7AFF          MOV #-1 << #16, AC1 ; |454| 
         00006a FF1A 
     575 00006c 90B0          MOV XAR3, AC0
     576 00006e 7EFF          OR #0xfffc, AC1, AC1 ; |454| 
         000070 FC11 
     577 000072 2801          AND AC0, AC1 ; |454| 
     578 000074 EB2C          MOV AC1, dbl(*SP(#22))
         000076 18   
     579                      .dwpsn  file "../FreeRTOS/Source/tasks.c",line 470,column 3,is_stmt
     580 000077 A508          MOV *SP(#4), T1 ; |470| 
     581 000079 ED24          MOV dbl(*SP(#18)), XAR0
         00007b 8F   
     582 00007c A410          MOV *SP(#8), T0 ; |470| 
     583 00007e ED1C          MOV dbl(*SP(#14)), XAR2
         000080 AF   
     584 000081 ED04          MOV dbl(*SP(#2)), XAR1
         000083 9F   
     585              $C$DW$85        .dwtag  DW_TAG_TI_branch
     586                      .dwattr $C$DW$85, DW_AT_low_pc(0x00)
     587                      .dwattr $C$DW$85, DW_AT_name("_prvInitialiseTCBVariables")
     588                      .dwattr $C$DW$85, DW_AT_TI_call
     589 000084 080E          CALL #_prvInitialiseTCBVariables ; |470| 
         000086 45   
     590                                                      ; call occurs [#_prvInitialiseTCBVariables] ; |470| 
     591                      .dwpsn  file "../FreeRTOS/Source/tasks.c",line 483,column 4,is_stmt
     592 000087 ED28          MOV dbl(*SP(#20)), XAR0
         000089 8F   
     593 00008a ED2C          MOV dbl(*SP(#22)), XAR1
         00008c 9F   
     594 00008d ED00          MOV dbl(*SP(#0)), AC0 ; |483| 
         00008f 08   
     595 000090 ED0C          MOV dbl(*SP(#6)), XAR2
         000092 AF   
     596              $C$DW$86        .dwtag  DW_TAG_TI_branch
     597                      .dwattr $C$DW$86, DW_AT_low_pc(0x00)
     598                      .dwattr $C$DW$86, DW_AT_name("_pxPortInitialiseStack")
     599                      .dwattr $C$DW$86, DW_AT_TI_call
     600 000093 6C00          CALL #_pxPortInitialiseStack ; |483| 
         000095 0000!
     601                                                      ; call occurs [#_pxPortInitialiseStack] ; |483| 
     602                      .dwpsn  file "../FreeRTOS/Source/tasks.c",line 484,column 4,is_stmt
     603 000097 ED24          MOV dbl(*SP(#18)), XAR2
         000099 AF   
     604 00009a ED31          MOV dbl(*(#_stackStruct)), XAR3
         00009c BF00 
TMS320C55x Assembler PC v4.4.1 Fri Sep 07 02:27:27 2018

Tools Copyright (c) 1996-2012 Texas Instruments Incorporated
tasks.asm                                                            PAGE   13

         00009e 0002-
     605 0000a0 8061          MOV dbl(*AR3), dbl(*AR2)
         0000a2 00   
     606                      .dwpsn  file "../FreeRTOS/Source/tasks.c",line 485,column 4,is_stmt
     607 0000a3 ED31          MOV dbl(*(#_stackStruct)), XAR3
         0000a5 BF00 
         0000a7 0002-
     608 0000a9 ED75          MOV dbl(*AR3(short(#2))), XAR2
         0000ab AF   
     609 0000ac ED24          MOV dbl(*SP(#18)), XAR3
         0000ae BF   
     610 0000af EB75          MOV XAR2, dbl(*AR3(short(#2)))
         0000b1 A5   
     611                      .dwpsn  file "../FreeRTOS/Source/tasks.c",line 498,column 3,is_stmt
     612 0000b2 20     nop
     613 0000b3 46B3   bset INTM
     614 0000b5 F731          ADD #1, *(#_usCriticalNesting) ; |498| 
         0000b7 0001 
         0000b9 0000 
         0000bb 00!  
     615                      .dwpsn  file "../FreeRTOS/Source/tasks.c",line 500,column 4,is_stmt
     616 0000bc F731          ADD #1, *(#_uxCurrentNumberOfTasks) ; |500| 
         0000be 0001 
         0000c0 0000 
         0000c2 5B-  
     617 0000c3 20            NOP
     618 0000c4 20            NOP
     619 0000c5 20            NOP
     620                      .dwpsn  file "../FreeRTOS/Source/tasks.c",line 501,column 4,is_stmt
     621 0000c6 F031          CMP *(#_uxCurrentNumberOfTasks) == #1, TC1 ; |501| 
         0000c8 0001 
         0000ca 0000 
         0000cc 5B-  
     622 0000cd 6774          BCC $C$L1,!TC1 ; |501| 
     623                                                      ; branchcc occurs ; |501| 
     624                      .dwpsn  file "../FreeRTOS/Source/tasks.c",line 504,column 5,is_stmt
     625 0000cf ED24          MOV dbl(*SP(#18)), XAR3
         0000d1 BF   
     626 0000d2 EB31          MOV XAR3, dbl(*(#_pxCurrentTCB))
         0000d4 B500 
         0000d6 0004-
     627                      .dwpsn  file "../FreeRTOS/Source/tasks.c",line 509,column 5,is_stmt
     628              $C$DW$87        .dwtag  DW_TAG_TI_branch
     629                      .dwattr $C$DW$87, DW_AT_low_pc(0x00)
     630                      .dwattr $C$DW$87, DW_AT_name("_prvInitialiseTaskLists")
     631                      .dwattr $C$DW$87, DW_AT_TI_call
     632 0000d8 080E          CALL #_prvInitialiseTaskLists ; |509| 
         0000da 65   
     633                                                      ; call occurs [#_prvInitialiseTaskLists] ; |509| 
     634                      .dwpsn  file "../FreeRTOS/Source/tasks.c",line 510,column 4,is_stmt
     635 0000db 4A22          B $C$L2   ; |510| 
     636                                                      ; branch occurs ; |510| 
     637 0000dd       $C$L1:    
     638                      .dwpsn  file "../FreeRTOS/Source/tasks.c",line 516,column 5,is_stmt
     639 0000dd A931          MOV *(#_xSchedulerRunning), AR1 ; |516| 
TMS320C55x Assembler PC v4.4.1 Fri Sep 07 02:27:27 2018

Tools Copyright (c) 1996-2012 Texas Instruments Incorporated
tasks.asm                                                            PAGE   14

         0000df 0000 
         0000e1 69-  
     640 0000e2 0419          BCC $C$L2,AR1 != #0 ; |516| 
         0000e4 1A   
     641                                                      ; branchcc occurs ; |516| 
     642                      .dwpsn  file "../FreeRTOS/Source/tasks.c",line 518,column 6,is_stmt
     643 0000e5 ED31          MOV dbl(*(#_pxCurrentTCB)), XAR3
         0000e7 BF00 
         0000e9 0004-
     644 0000eb A910          MOV *SP(#8), AR1 ; |518| 
     645 0000ed AA6D          MOV *AR3(#24), AR2 ; |518| 
         0000ef 0018 
     646 0000f1 1294          CMPU AR2 > AR1, TC1 ; |518| 
         0000f3 A4   
     647 0000f4 64E4          BCC $C$L2,TC1 ; |518| 
     648                                                      ; branchcc occurs ; |518| 
     649                      .dwpsn  file "../FreeRTOS/Source/tasks.c",line 520,column 7,is_stmt
     650 0000f6 ED24          MOV dbl(*SP(#18)), XAR3
         0000f8 BF   
     651 0000f9 EB31          MOV XAR3, dbl(*(#_pxCurrentTCB))
         0000fb B500 
         0000fd 0004-
     652 0000ff       $C$L2:    
     653                      .dwpsn  file "../FreeRTOS/Source/tasks.c",line 527,column 4,is_stmt
     654 0000ff ED24          MOV dbl(*SP(#18)), XAR3
         000101 BF   
     655 000102 A931          MOV *(#_uxTopUsedPriority), AR1 ; |527| 
         000104 0000 
         000106 67-  
     656 000107 AA6D          MOV *AR3(#24), AR2 ; |527| 
         000109 0018 
     657 00010b 1298          CMPU AR2 <= AR1, TC1 ; |527| 
         00010d A4   
     658 00010e 64E4          BCC $C$L3,TC1 ; |527| 
     659                                                      ; branchcc occurs ; |527| 
     660                      .dwpsn  file "../FreeRTOS/Source/tasks.c",line 529,column 5,is_stmt
     661 000110 A96D          MOV *AR3(#24), AR1 ; |529| 
         000112 0018 
     662 000114 C931          MOV AR1, *(#_uxTopUsedPriority) ; |529| 
         000116 0000 
         000118 67-  
     663 000119       $C$L3:    
     664                      .dwpsn  file "../FreeRTOS/Source/tasks.c",line 538,column 4,is_stmt
     665 000119 F731          ADD #1, *(#_uxTaskNumber) ; |538| 
         00011b 0001 
         00011d 0000 
         00011f 6E-  
     666                      .dwpsn  file "../FreeRTOS/Source/tasks.c",line 540,column 4,is_stmt
     667 000120 A931          MOV *(#_uxTopReadyPriority), AR1 ; |540| 
         000122 0000 
         000124 68-  
     668 000125 AA6D          MOV *AR3(#24), AR2 ; |540| 
         000127 0018 
     669 000129 1298          CMPU AR2 <= AR1, TC1 ; |540| 
         00012b A4   
TMS320C55x Assembler PC v4.4.1 Fri Sep 07 02:27:27 2018

Tools Copyright (c) 1996-2012 Texas Instruments Incorporated
tasks.asm                                                            PAGE   15

     670 00012c 64E4          BCC $C$L4,TC1 ; |540| 
     671                                                      ; branchcc occurs ; |540| 
     672 00012e A96D          MOV *AR3(#24), AR1 ; |540| 
         000130 0018 
     673 000132 C931          MOV AR1, *(#_uxTopReadyPriority) ; |540| 
         000134 0000 
         000136 68-  
     674 000137       $C$L4:    
     675 000137 F86D          MPYMK *AR3(#24), #10, AC0 ; |540| 
         000139 0A00 
         00013b 0018 
     676 00013d 2209          MOV AC0, AR1 ; |540| 
     677 00013f EC31          AMOV #_pxReadyTasksLists, XAR0 ; |540| 
         000141 8E00 
         000143 0006-
     678 000145 1490          AADD AR1, AR0 ; |540| 
         000147 80   
     679 000148 ED24          MOV dbl(*SP(#18)), XAR1
         00014a 9F   
     680 00014b 1404          AADD #4, AR1 ; |540| 
         00014d 94   
     681              $C$DW$88        .dwtag  DW_TAG_TI_branch
     682                      .dwattr $C$DW$88, DW_AT_low_pc(0x00)
     683                      .dwattr $C$DW$88, DW_AT_name("_vListInsertEnd")
     684                      .dwattr $C$DW$88, DW_AT_TI_call
     685 00014e 6C00          CALL #_vListInsertEnd ; |540| 
         000150 0000!
     686                                                      ; call occurs [#_vListInsertEnd] ; |540| 
     687                      .dwpsn  file "../FreeRTOS/Source/tasks.c",line 542,column 4,is_stmt
     688 000152 E620          MOV #1, *SP(#16) ; |542| 
         000154 01   
     689                      .dwpsn  file "../FreeRTOS/Source/tasks.c",line 545,column 3,is_stmt
     690 000155 A931          MOV *(#_usCriticalNesting), AR1 ; |545| 
         000157 0000 
         000159 00!  
     691 00015a 0409          BCC $C$L6,AR1 == #0 ; |545| 
         00015c 19   
     692                                                      ; branchcc occurs ; |545| 
     693 00015d F731          SUB #1, *(#_usCriticalNesting) ; |545| 
         00015f FFFF 
         000161 0000 
         000163 00!  
     694 000164 20            NOP
     695 000165 20            NOP
     696 000166 20            NOP
     697 000167 A931          MOV *(#_usCriticalNesting), AR1 ; |545| 
         000169 0000 
         00016b 00!  
     698 00016c 6419          BCC $C$L6,AR1 != #0 ; |545| 
     699                                                      ; branchcc occurs ; |545| 
     700 00016e 20     nop
     701 00016f 46B2   bclr INTM
     702                      .dwendtag $C$DW$82
     703              
     704                      .dwpsn  file "../FreeRTOS/Source/tasks.c",line 546,column 2,is_stmt
TMS320C55x Assembler PC v4.4.1 Fri Sep 07 02:27:27 2018

Tools Copyright (c) 1996-2012 Texas Instruments Incorporated
tasks.asm                                                            PAGE   16

     705 000171 4A03          B $C$L6   ; |546| 
     706                                                      ; branch occurs ; |546| 
     707 000173       $C$L5:    
     708                      .dwpsn  file "../FreeRTOS/Source/tasks.c",line 549,column 3,is_stmt
     709 000173 E620          MOV #-1, *SP(#16) ; |549| 
         000175 FF   
     710 000176       $C$L6:    
     711                      .dwpsn  file "../FreeRTOS/Source/tasks.c",line 553,column 2,is_stmt
     712 000176 F020          CMP *SP(#16) == #1, TC1 ; |553| 
         000178 0001 
     713 00017a 0474          BCC $C$L8,!TC1 ; |553| 
         00017c 2D   
     714                                                      ; branchcc occurs ; |553| 
     715                      .dwpsn  file "../FreeRTOS/Source/tasks.c",line 555,column 3,is_stmt
     716 00017d ED14          MOV dbl(*SP(#10)), XAR3
         00017f BF   
     717 000180 90B0          MOV XAR3, AC0
     718 000182 6480          BCC $C$L7,AC0 == #0 ; |555| 
     719                                                      ; branchcc occurs ; |555| 
     720                      .dwpsn  file "../FreeRTOS/Source/tasks.c",line 560,column 4,is_stmt
     721 000184 ED14          MOV dbl(*SP(#10)), XAR2
         000186 AF   
     722 000187 ED24          MOV dbl(*SP(#18)), XAR3
         000189 BF   
     723 00018a EB41          MOV XAR3, dbl(*AR2)
         00018c B5   
     724 00018d       $C$L7:    
     725                      .dwpsn  file "../FreeRTOS/Source/tasks.c",line 563,column 3,is_stmt
     726 00018d A931          MOV *(#_xSchedulerRunning), AR1 ; |563| 
         00018f 0000 
         000191 69-  
     727 000192 0409          BCC $C$L8,AR1 == #0 ; |563| 
         000194 15   
     728                                                      ; branchcc occurs ; |563| 
     729                      .dwpsn  file "../FreeRTOS/Source/tasks.c",line 567,column 4,is_stmt
     730 000195 ED31          MOV dbl(*(#_pxCurrentTCB)), XAR3
         000197 BF00 
         000199 0004-
     731 00019b A910          MOV *SP(#8), AR1 ; |567| 
     732 00019d AA6D          MOV *AR3(#24), AR2 ; |567| 
         00019f 0018 
     733 0001a1 12A8          CMPU AR2 >= AR1, TC1 ; |567| 
         0001a3 94   
     734 0001a4 6264          BCC $C$L8,TC1 ; |567| 
     735                                                      ; branchcc occurs ; |567| 
     736                      .dwpsn  file "../FreeRTOS/Source/tasks.c",line 569,column 5,is_stmt
     737              $C$DW$89        .dwtag  DW_TAG_TI_branch
     738                      .dwattr $C$DW$89, DW_AT_low_pc(0x00)
     739                      .dwattr $C$DW$89, DW_AT_name("_vPortYield")
     740                      .dwattr $C$DW$89, DW_AT_TI_call
     741 0001a6 6C00          CALL #_vPortYield ; |569| 
         0001a8 0000!
     742                                                      ; call occurs [#_vPortYield] ; |569| 
     743 0001aa       $C$L8:    
     744                      .dwpsn  file "../FreeRTOS/Source/tasks.c",line 574,column 2,is_stmt
TMS320C55x Assembler PC v4.4.1 Fri Sep 07 02:27:27 2018

Tools Copyright (c) 1996-2012 Texas Instruments Incorporated
tasks.asm                                                            PAGE   17

     745 0001aa A420          MOV *SP(#16), T0 ; |574| 
     746                      .dwpsn  file "../FreeRTOS/Source/tasks.c",line 575,column 1,is_stmt
     747 0001ac 4E19          AADD #25, SP
     748                      .dwcfi  cfa_offset, 1
     749              $C$DW$90        .dwtag  DW_TAG_TI_branch
     750                      .dwattr $C$DW$90, DW_AT_low_pc(0x00)
     751                      .dwattr $C$DW$90, DW_AT_TI_return
     752 0001ae 4804          RET
     753                                                      ; return occurs
     754                      .dwattr $C$DW$61, DW_AT_TI_end_file("../FreeRTOS/Source/tasks.c")
     755                      .dwattr $C$DW$61, DW_AT_TI_end_line(0x23f)
     756                      .dwattr $C$DW$61, DW_AT_TI_end_column(0x01)
     757                      .dwendentry
     758                      .dwendtag $C$DW$61
     759              
     760 0001b0               .sect   ".text"
     761                      .align 4
     762                      .global _vTaskDelete
     763              
     764              $C$DW$91        .dwtag  DW_TAG_subprogram, DW_AT_name("vTaskDelete")
     765                      .dwattr $C$DW$91, DW_AT_low_pc(_vTaskDelete)
     766                      .dwattr $C$DW$91, DW_AT_high_pc(0x00)
     767                      .dwattr $C$DW$91, DW_AT_TI_symbol_name("_vTaskDelete")
     768                      .dwattr $C$DW$91, DW_AT_external
     769                      .dwattr $C$DW$91, DW_AT_TI_begin_file("../FreeRTOS/Source/tasks.c")
     770                      .dwattr $C$DW$91, DW_AT_TI_begin_line(0x244)
     771                      .dwattr $C$DW$91, DW_AT_TI_begin_column(0x07)
     772                      .dwattr $C$DW$91, DW_AT_TI_max_frame_size(0x06)
     773                      .dwpsn  file "../FreeRTOS/Source/tasks.c",line 581,column 2,is_stmt,address _vTaskDelete
     774              
     775                      .dwfde $C$DW$CIE, _vTaskDelete
     776              $C$DW$92        .dwtag  DW_TAG_formal_parameter, DW_AT_name("pxTaskToDelete")
     777                      .dwattr $C$DW$92, DW_AT_TI_symbol_name("_pxTaskToDelete")
     778                      .dwattr $C$DW$92, DW_AT_type(*$C$DW$T$45)
     779                      .dwattr $C$DW$92, DW_AT_location[DW_OP_reg17]
     780              ;*******************************************************************************
     781              ;* FUNCTION NAME: vTaskDelete                                                  *
     782              ;*                                                                             *
     783              ;*   Function Uses Regs : AC0,AC0,AC1,AC1,AR0,XAR0,AR1,XAR1,AR3,XAR3,SP,CARRY, *
     784              ;*                        TC1,M40,SATA,SATD,RDM,FRCT,SMUL                      *
     785              ;*   Stack Frame        : Compact (No Frame Pointer, w/ debug)                 *
     786              ;*   Total Frame Size   : 6 words                                              *
     787              ;*                        (2 return address/alignment)                         *
     788              ;*                        (4 local values)                                     *
     789              ;*   Min System Stack   : 1 word                                               *
     790              ;*******************************************************************************
     791 0001b0       _vTaskDelete:
     792                      .dwcfi  cfa_offset, 1
     793                      .dwcfi  save_reg_to_mem, 91, -1
     794 0001b0 4EFB          AADD #-5, SP
     795                      .dwcfi  cfa_offset, 6
     796              $C$DW$93        .dwtag  DW_TAG_variable, DW_AT_name("pxTaskToDelete")
     797                      .dwattr $C$DW$93, DW_AT_TI_symbol_name("_pxTaskToDelete")
     798                      .dwattr $C$DW$93, DW_AT_type(*$C$DW$T$45)
     799                      .dwattr $C$DW$93, DW_AT_location[DW_OP_bregx 0x24 0]
TMS320C55x Assembler PC v4.4.1 Fri Sep 07 02:27:27 2018

Tools Copyright (c) 1996-2012 Texas Instruments Incorporated
tasks.asm                                                            PAGE   18

     800              $C$DW$94        .dwtag  DW_TAG_variable, DW_AT_name("pxTCB")
     801                      .dwattr $C$DW$94, DW_AT_TI_symbol_name("_pxTCB")
     802                      .dwattr $C$DW$94, DW_AT_type(*$C$DW$T$79)
     803                      .dwattr $C$DW$94, DW_AT_location[DW_OP_bregx 0x24 2]
     804 0001b2 EB00          MOV XAR0, dbl(*SP(#0))
         0001b4 85   
     805                      .dwpsn  file "../FreeRTOS/Source/tasks.c",line 584,column 3,is_stmt
     806 0001b5 20     nop
     807 0001b6 46B3   bset INTM
     808 0001b8 F731          ADD #1, *(#_usCriticalNesting) ; |584| 
         0001ba 0001 
         0001bc 0000 
         0001be 00!  
     809 0001bf 20            NOP
     810 0001c0 20            NOP
     811 0001c1 20            NOP
     812                      .dwpsn  file "../FreeRTOS/Source/tasks.c",line 588,column 4,is_stmt
     813 0001c2 ED31          MOV dbl(*(#_pxCurrentTCB)), XAR3
         0001c4 BF00 
         0001c6 0004-
     814 0001c8 90B0          MOV XAR3, AC0
     815 0001ca ED00          MOV dbl(*SP(#0)), XAR3
         0001cc BF   
     816 0001cd 90B1          MOV XAR3, AC1
     817 0001cf 121C          CMPU AC1 != AC0, TC1 ; |588| 
         0001d1 04   
     818 0001d2 62E4          BCC $C$L9,TC1 ; |588| 
     819                                                      ; branchcc occurs ; |588| 
     820                      .dwpsn  file "../FreeRTOS/Source/tasks.c",line 590,column 5,is_stmt
     821 0001d4 3C00          MOV #0, AC0 ; |590| 
     822 0001d6 EB00          MOV AC0, dbl(*SP(#0))
         0001d8 08   
     823 0001d9       $C$L9:    
     824                      .dwpsn  file "../FreeRTOS/Source/tasks.c",line 594,column 4,is_stmt
     825 0001d9 ED00          MOV dbl(*SP(#0)), XAR3
         0001db BF   
     826 0001dc 90B0          MOV XAR3, AC0
     827 0001de 6310          BCC $C$L10,AC0 != #0 ; |594| 
     828                                                      ; branchcc occurs ; |594| 
     829 0001e0 ED31          MOV dbl(*(#_pxCurrentTCB)), XAR3
         0001e2 BF00 
         0001e4 0004-
     830 0001e6       $C$L10:    
     831 0001e6 EB04          MOV XAR3, dbl(*SP(#2))
         0001e8 B5   
     832                      .dwpsn  file "../FreeRTOS/Source/tasks.c",line 600,column 4,is_stmt
     833 0001e9 ED04          MOV dbl(*SP(#2)), XAR0
         0001eb 8F   
     834 0001ec 1404          AADD #4, AR0 ; |600| 
         0001ee 84   
     835              $C$DW$95        .dwtag  DW_TAG_TI_branch
     836                      .dwattr $C$DW$95, DW_AT_low_pc(0x00)
     837                      .dwattr $C$DW$95, DW_AT_name("_vListRemove")
     838                      .dwattr $C$DW$95, DW_AT_TI_call
     839 0001ef 6C00          CALL #_vListRemove ; |600| 
TMS320C55x Assembler PC v4.4.1 Fri Sep 07 02:27:27 2018

Tools Copyright (c) 1996-2012 Texas Instruments Incorporated
tasks.asm                                                            PAGE   19

         0001f1 0000!
     840                                                      ; call occurs [#_vListRemove] ; |600| 
     841                      .dwpsn  file "../FreeRTOS/Source/tasks.c",line 603,column 4,is_stmt
     842 0001f3 ED04          MOV dbl(*SP(#2)), XAR3
         0001f5 BF   
     843 0001f6 ED6D          MOV dbl(*AR3(#22)), XAR3
         0001f8 BF00 
         0001fa 16   
     844 0001fb 90B0          MOV XAR3, AC0
     845 0001fd 6500          BCC $C$L11,AC0 == #0 ; |603| 
     846                                                      ; branchcc occurs ; |603| 
     847                      .dwpsn  file "../FreeRTOS/Source/tasks.c",line 605,column 5,is_stmt
     848 0001ff ED04          MOV dbl(*SP(#2)), XAR0
         000201 8F   
     849 000202 140E          AADD #14, AR0 ; |605| 
         000204 84   
     850              $C$DW$96        .dwtag  DW_TAG_TI_branch
     851                      .dwattr $C$DW$96, DW_AT_low_pc(0x00)
     852                      .dwattr $C$DW$96, DW_AT_name("_vListRemove")
     853                      .dwattr $C$DW$96, DW_AT_TI_call
     854 000205 6C00          CALL #_vListRemove ; |605| 
         000207 0000!
     855                                                      ; call occurs [#_vListRemove] ; |605| 
     856 000209       $C$L11:    
     857                      .dwpsn  file "../FreeRTOS/Source/tasks.c",line 608,column 4,is_stmt
     858 000209 ED04          MOV dbl(*SP(#2)), XAR1
         00020b 9F   
     859 00020c EC31          AMOV #_xTasksWaitingTermination, XAR0 ; |608| 
         00020e 8E00 
         000210 0050-
     860 000212 1404          AADD #4, AR1 ; |608| 
         000214 94   
     861              $C$DW$97        .dwtag  DW_TAG_TI_branch
     862                      .dwattr $C$DW$97, DW_AT_low_pc(0x00)
     863                      .dwattr $C$DW$97, DW_AT_name("_vListInsertEnd")
     864                      .dwattr $C$DW$97, DW_AT_TI_call
     865 000215 6C00          CALL #_vListInsertEnd ; |608| 
         000217 0000!
     866                                                      ; call occurs [#_vListInsertEnd] ; |608| 
     867                      .dwpsn  file "../FreeRTOS/Source/tasks.c",line 613,column 4,is_stmt
     868 000219 F731          ADD #1, *(#_uxTasksDeleted) ; |613| 
         00021b 0001 
         00021d 0000 
         00021f 5A-  
     869 000220 20            NOP
     870 000221 20            NOP
     871                      .dwpsn  file "../FreeRTOS/Source/tasks.c",line 617,column 4,is_stmt
     872 000222 F731          ADD #1, *(#_uxTaskNumber) ; |617| 
         000224 0001 
         000226 0000 
         000228 6E-  
     873                      .dwpsn  file "../FreeRTOS/Source/tasks.c",line 621,column 3,is_stmt
     874 000229 A931          MOV *(#_usCriticalNesting), AR1 ; |621| 
         00022b 0000 
         00022d 00!  
TMS320C55x Assembler PC v4.4.1 Fri Sep 07 02:27:27 2018

Tools Copyright (c) 1996-2012 Texas Instruments Incorporated
tasks.asm                                                            PAGE   20

     875 00022e 0409          BCC $C$L12,AR1 == #0 ; |621| 
         000230 14   
     876                                                      ; branchcc occurs ; |621| 
     877 000231 F731          SUB #1, *(#_usCriticalNesting) ; |621| 
         000233 FFFF 
         000235 0000 
         000237 00!  
     878 000238 20            NOP
     879 000239 20            NOP
     880 00023a 20            NOP
     881 00023b A931          MOV *(#_usCriticalNesting), AR1 ; |621| 
         00023d 0000 
         00023f 00!  
     882 000240 6199          BCC $C$L12,AR1 != #0 ; |621| 
     883                                                      ; branchcc occurs ; |621| 
     884 000242 20     nop
     885 000243 46B2   bclr INTM
     886 000245       $C$L12:    
     887                      .dwpsn  file "../FreeRTOS/Source/tasks.c",line 624,column 3,is_stmt
     888 000245 A931          MOV *(#_xSchedulerRunning), AR1 ; |624| 
         000247 0000 
         000249 69-  
     889 00024a 6589          BCC $C$L13,AR1 == #0 ; |624| 
     890                                                      ; branchcc occurs ; |624| 
     891                      .dwpsn  file "../FreeRTOS/Source/tasks.c",line 626,column 4,is_stmt
     892 00024c ED00          MOV dbl(*SP(#0)), XAR3
         00024e BF   
     893 00024f 90B0          MOV XAR3, AC0
     894 000251 6210          BCC $C$L13,AC0 != #0 ; |626| 
     895                                                      ; branchcc occurs ; |626| 
     896                      .dwpsn  file "../FreeRTOS/Source/tasks.c",line 628,column 5,is_stmt
     897              $C$DW$98        .dwtag  DW_TAG_TI_branch
     898                      .dwattr $C$DW$98, DW_AT_low_pc(0x00)
     899                      .dwattr $C$DW$98, DW_AT_name("_vPortYield")
     900                      .dwattr $C$DW$98, DW_AT_TI_call
     901 000253 6C00          CALL #_vPortYield ; |628| 
         000255 0000!
     902                                                      ; call occurs [#_vPortYield] ; |628| 
     903                      .dwpsn  file "../FreeRTOS/Source/tasks.c",line 631,column 2,is_stmt
     904 000257       $C$L13:    
     905 000257 4E05          AADD #5, SP
     906                      .dwcfi  cfa_offset, 1
     907              $C$DW$99        .dwtag  DW_TAG_TI_branch
     908                      .dwattr $C$DW$99, DW_AT_low_pc(0x00)
     909                      .dwattr $C$DW$99, DW_AT_TI_return
     910 000259 4804          RET
     911                                                      ; return occurs
     912                      .dwattr $C$DW$91, DW_AT_TI_end_file("../FreeRTOS/Source/tasks.c")
     913                      .dwattr $C$DW$91, DW_AT_TI_end_line(0x277)
     914                      .dwattr $C$DW$91, DW_AT_TI_end_column(0x02)
     915                      .dwendentry
     916                      .dwendtag $C$DW$91
     917              
     918 00025b               .sect   ".text"
     919                      .align 4
TMS320C55x Assembler PC v4.4.1 Fri Sep 07 02:27:27 2018

Tools Copyright (c) 1996-2012 Texas Instruments Incorporated
tasks.asm                                                            PAGE   21

     920                      .global _vTaskDelayUntil
     921              
     922              $C$DW$100       .dwtag  DW_TAG_subprogram, DW_AT_name("vTaskDelayUntil")
     923                      .dwattr $C$DW$100, DW_AT_low_pc(_vTaskDelayUntil)
     924                      .dwattr $C$DW$100, DW_AT_high_pc(0x00)
     925                      .dwattr $C$DW$100, DW_AT_TI_symbol_name("_vTaskDelayUntil")
     926                      .dwattr $C$DW$100, DW_AT_external
     927                      .dwattr $C$DW$100, DW_AT_TI_begin_file("../FreeRTOS/Source/tasks.c")
     928                      .dwattr $C$DW$100, DW_AT_TI_begin_line(0x286)
     929                      .dwattr $C$DW$100, DW_AT_TI_begin_column(0x07)
     930                      .dwattr $C$DW$100, DW_AT_TI_max_frame_size(0x08)
     931                      .dwpsn  file "../FreeRTOS/Source/tasks.c",line 647,column 2,is_stmt,address _vTaskDelayUntil
     932              
     933                      .dwfde $C$DW$CIE, _vTaskDelayUntil
     934              $C$DW$101       .dwtag  DW_TAG_formal_parameter, DW_AT_name("pxPreviousWakeTime")
     935                      .dwattr $C$DW$101, DW_AT_TI_symbol_name("_pxPreviousWakeTime")
     936                      .dwattr $C$DW$101, DW_AT_type(*$C$DW$T$65)
     937                      .dwattr $C$DW$101, DW_AT_location[DW_OP_reg17]
     938              $C$DW$102       .dwtag  DW_TAG_formal_parameter, DW_AT_name("xTimeIncrement")
     939                      .dwattr $C$DW$102, DW_AT_TI_symbol_name("_xTimeIncrement")
     940                      .dwattr $C$DW$102, DW_AT_type(*$C$DW$T$31)
     941                      .dwattr $C$DW$102, DW_AT_location[DW_OP_reg12]
     942              ;*******************************************************************************
     943              ;* FUNCTION NAME: vTaskDelayUntil                                              *
     944              ;*                                                                             *
     945              ;*   Function Uses Regs : T0,AR0,XAR0,AR1,XAR1,AR2,AR3,XAR3,SP,CARRY,TC1,M40,  *
     946              ;*                        SATA,SATD,RDM,FRCT,SMUL                              *
     947              ;*   Stack Frame        : Compact (No Frame Pointer, w/ debug)                 *
     948              ;*   Total Frame Size   : 8 words                                              *
     949              ;*                        (2 return address/alignment)                         *
     950              ;*                        (6 local values)                                     *
     951              ;*   Min System Stack   : 1 word                                               *
     952              ;*******************************************************************************
     953 00025c       _vTaskDelayUntil:
     954                      .dwcfi  cfa_offset, 1
     955                      .dwcfi  save_reg_to_mem, 91, -1
     956 00025c 4EF9          AADD #-7, SP
     957                      .dwcfi  cfa_offset, 8
     958              $C$DW$103       .dwtag  DW_TAG_variable, DW_AT_name("pxPreviousWakeTime")
     959                      .dwattr $C$DW$103, DW_AT_TI_symbol_name("_pxPreviousWakeTime")
     960                      .dwattr $C$DW$103, DW_AT_type(*$C$DW$T$65)
     961                      .dwattr $C$DW$103, DW_AT_location[DW_OP_bregx 0x24 0]
     962              $C$DW$104       .dwtag  DW_TAG_variable, DW_AT_name("xTimeIncrement")
     963                      .dwattr $C$DW$104, DW_AT_TI_symbol_name("_xTimeIncrement")
     964                      .dwattr $C$DW$104, DW_AT_type(*$C$DW$T$31)
     965                      .dwattr $C$DW$104, DW_AT_location[DW_OP_bregx 0x24 2]
     966              $C$DW$105       .dwtag  DW_TAG_variable, DW_AT_name("xTimeToWake")
     967                      .dwattr $C$DW$105, DW_AT_TI_symbol_name("_xTimeToWake")
     968                      .dwattr $C$DW$105, DW_AT_type(*$C$DW$T$31)
     969                      .dwattr $C$DW$105, DW_AT_location[DW_OP_bregx 0x24 3]
     970              $C$DW$106       .dwtag  DW_TAG_variable, DW_AT_name("xAlreadyYielded")
     971                      .dwattr $C$DW$106, DW_AT_TI_symbol_name("_xAlreadyYielded")
     972                      .dwattr $C$DW$106, DW_AT_type(*$C$DW$T$10)
     973                      .dwattr $C$DW$106, DW_AT_location[DW_OP_bregx 0x24 4]
     974              $C$DW$107       .dwtag  DW_TAG_variable, DW_AT_name("xShouldDelay")
TMS320C55x Assembler PC v4.4.1 Fri Sep 07 02:27:27 2018

Tools Copyright (c) 1996-2012 Texas Instruments Incorporated
tasks.asm                                                            PAGE   22

     975                      .dwattr $C$DW$107, DW_AT_TI_symbol_name("_xShouldDelay")
     976                      .dwattr $C$DW$107, DW_AT_type(*$C$DW$T$10)
     977                      .dwattr $C$DW$107, DW_AT_location[DW_OP_bregx 0x24 5]
     978 00025e C404          MOV T0, *SP(#2) ; |647| 
     979 000260 EB00          MOV XAR0, dbl(*SP(#0))
         000262 85   
     980                      .dwpsn  file "../FreeRTOS/Source/tasks.c",line 649,column 33,is_stmt
     981 000263 E60A          MOV #0, *SP(#5) ; |649| 
         000265 00   
     982                      .dwpsn  file "../FreeRTOS/Source/tasks.c",line 651,column 3,is_stmt
     983              $C$DW$108       .dwtag  DW_TAG_TI_branch
     984                      .dwattr $C$DW$108, DW_AT_low_pc(0x00)
     985                      .dwattr $C$DW$108, DW_AT_name("_vTaskSuspendAll")
     986                      .dwattr $C$DW$108, DW_AT_TI_call
     987 000266 0805          CALL #_vTaskSuspendAll ; |651| 
         000268 AF   
     988                                                      ; call occurs [#_vTaskSuspendAll] ; |651| 
     989                      .dwpsn  file "../FreeRTOS/Source/tasks.c",line 654,column 4,is_stmt
     990 000269 ED00          MOV dbl(*SP(#0)), XAR3
         00026b BF   
     991 00026c A904          MOV *SP(#2), AR1 ; |654| 
     992 00026e D661          ADD *AR3, AR1, AR1 ; |654| 
         000270 99   
     993 000271 C906          MOV AR1, *SP(#3) ; |654| 
     994                      .dwpsn  file "../FreeRTOS/Source/tasks.c",line 656,column 4,is_stmt
     995 000273 ED00          MOV dbl(*SP(#0)), XAR3
         000275 BF   
     996 000276 AA31          MOV *(#_xTickCount), AR2 ; |656| 
         000278 0000 
         00027a 66-  
     997 00027b A961          MOV *AR3, AR1 ; |656| 
     998 00027d 12A8          CMPU AR2 >= AR1, TC1 ; |656| 
         00027f 94   
     999 000280 0464          BCC $C$L14,TC1 ; |656| 
         000282 1A   
    1000                                                      ; branchcc occurs ; |656| 
    1001                      .dwpsn  file "../FreeRTOS/Source/tasks.c",line 663,column 5,is_stmt
    1002 000283 A961          MOV *AR3, AR1 ; |663| 
    1003 000285 AA06          MOV *SP(#3), AR2 ; |663| 
    1004 000287 12A8          CMPU AR2 >= AR1, TC1 ; |663| 
         000289 94   
    1005 00028a 0464          BCC $C$L16,TC1 ; |663| 
         00028c 26   
    1006                                                      ; branchcc occurs ; |663| 
    1007 00028d A931          MOV *(#_xTickCount), AR1 ; |663| 
         00028f 0000 
         000291 66-  
    1008 000292 1298          CMPU AR2 <= AR1, TC1 ; |663| 
         000294 A4   
    1009 000295 0464          BCC $C$L16,TC1 ; |663| 
         000297 1B   
    1010                                                      ; branchcc occurs ; |663| 
    1011                      .dwpsn  file "../FreeRTOS/Source/tasks.c",line 665,column 6,is_stmt
    1012 000298 E60A          MOV #1, *SP(#5) ; |665| 
         00029a 01   
TMS320C55x Assembler PC v4.4.1 Fri Sep 07 02:27:27 2018

Tools Copyright (c) 1996-2012 Texas Instruments Incorporated
tasks.asm                                                            PAGE   23

    1013                      .dwpsn  file "../FreeRTOS/Source/tasks.c",line 667,column 4,is_stmt
    1014 00029b 4A16          B $C$L16  ; |667| 
    1015                                                      ; branch occurs ; |667| 
    1016 00029d       $C$L14:    
    1017                      .dwpsn  file "../FreeRTOS/Source/tasks.c",line 673,column 5,is_stmt
    1018 00029d A961          MOV *AR3, AR1 ; |673| 
    1019 00029f AA06          MOV *SP(#3), AR2 ; |673| 
    1020 0002a1 12A4          CMPU AR2 < AR1, TC1 ; |673| 
         0002a3 94   
    1021 0002a4 6564          BCC $C$L15,TC1 ; |673| 
    1022                                                      ; branchcc occurs ; |673| 
    1023 0002a6 A931          MOV *(#_xTickCount), AR1 ; |673| 
         0002a8 0000 
         0002aa 66-  
    1024 0002ab 1298          CMPU AR2 <= AR1, TC1 ; |673| 
         0002ad A4   
    1025 0002ae 61E4          BCC $C$L16,TC1 ; |673| 
    1026                                                      ; branchcc occurs ; |673| 
    1027 0002b0       $C$L15:    
    1028                      .dwpsn  file "../FreeRTOS/Source/tasks.c",line 675,column 6,is_stmt
    1029 0002b0 E60A          MOV #1, *SP(#5) ; |675| 
         0002b2 01   
    1030 0002b3       $C$L16:    
    1031                      .dwpsn  file "../FreeRTOS/Source/tasks.c",line 680,column 4,is_stmt
    1032 0002b3 ED00          MOV dbl(*SP(#0)), XAR3
         0002b5 BF   
    1033 0002b6 A906          MOV *SP(#3), AR1 ; |680| 
    1034 0002b8 C961          MOV AR1, *AR3 ; |680| 
    1035                      .dwpsn  file "../FreeRTOS/Source/tasks.c",line 682,column 4,is_stmt
    1036 0002ba A90A          MOV *SP(#5), AR1 ; |682| 
    1037 0002bc 0409          BCC $C$L18,AR1 == #0 ; |682| 
         0002be 4C   
    1038                                                      ; branchcc occurs ; |682| 
    1039                      .dwpsn  file "../FreeRTOS/Source/tasks.c",line 689,column 5,is_stmt
    1040 0002bf ED31          MOV dbl(*(#_pxCurrentTCB)), XAR0
         0002c1 8F00 
         0002c3 0004-
    1041 0002c5 1404          AADD #4, AR0 ; |689| 
         0002c7 84   
    1042              $C$DW$109       .dwtag  DW_TAG_TI_branch
    1043                      .dwattr $C$DW$109, DW_AT_low_pc(0x00)
    1044                      .dwattr $C$DW$109, DW_AT_name("_vListRemove")
    1045                      .dwattr $C$DW$109, DW_AT_TI_call
    1046 0002c8 6C00          CALL #_vListRemove ; |689| 
         0002ca 0000!
    1047                                                      ; call occurs [#_vListRemove] ; |689| 
    1048                      .dwpsn  file "../FreeRTOS/Source/tasks.c",line 692,column 5,is_stmt
    1049 0002cc ED31          MOV dbl(*(#_pxCurrentTCB)), XAR3
         0002ce BF00 
         0002d0 0004-
    1050 0002d2 A906          MOV *SP(#3), AR1 ; |692| 
    1051 0002d4 C979          MOV AR1, *AR3(short(#4)) ; |692| 
    1052                      .dwpsn  file "../FreeRTOS/Source/tasks.c",line 694,column 5,is_stmt
    1053 0002d6 AA06          MOV *SP(#3), AR2 ; |694| 
    1054 0002d8 A931          MOV *(#_xTickCount), AR1 ; |694| 
TMS320C55x Assembler PC v4.4.1 Fri Sep 07 02:27:27 2018

Tools Copyright (c) 1996-2012 Texas Instruments Incorporated
tasks.asm                                                            PAGE   24

         0002da 0000 
         0002dc 66-  
    1055 0002dd 12A8          CMPU AR2 >= AR1, TC1 ; |694| 
         0002df 94   
    1056 0002e0 0464          BCC $C$L17,TC1 ; |694| 
         0002e2 15   
    1057                                                      ; branchcc occurs ; |694| 
    1058                      .dwpsn  file "../FreeRTOS/Source/tasks.c",line 698,column 6,is_stmt
    1059 0002e3 ED31          MOV dbl(*(#_pxCurrentTCB)), XAR1
         0002e5 9F00 
         0002e7 0004-
    1060 0002e9 ED31          MOV dbl(*(#_pxOverflowDelayedTaskList)), XAR0
         0002eb 8F00 
         0002ed 0044-
    1061 0002ef 1404          AADD #4, AR1 ; |698| 
         0002f1 94   
    1062              $C$DW$110       .dwtag  DW_TAG_TI_branch
    1063                      .dwattr $C$DW$110, DW_AT_low_pc(0x00)
    1064                      .dwattr $C$DW$110, DW_AT_name("_vListInsert")
    1065                      .dwattr $C$DW$110, DW_AT_TI_call
    1066 0002f2 6C00          CALL #_vListInsert ; |698| 
         0002f4 0000!
    1067                                                      ; call occurs [#_vListInsert] ; |698| 
    1068                      .dwpsn  file "../FreeRTOS/Source/tasks.c",line 699,column 5,is_stmt
    1069 0002f6 4A13          B $C$L18  ; |699| 
    1070                                                      ; branch occurs ; |699| 
    1071 0002f8       $C$L17:    
    1072                      .dwpsn  file "../FreeRTOS/Source/tasks.c",line 704,column 6,is_stmt
    1073 0002f8 ED31          MOV dbl(*(#_pxCurrentTCB)), XAR1
         0002fa 9F00 
         0002fc 0004-
    1074 0002fe ED31          MOV dbl(*(#_pxDelayedTaskList)), XAR0
         000300 8F00 
         000302 0042-
    1075 000304 1404          AADD #4, AR1 ; |704| 
         000306 94   
    1076              $C$DW$111       .dwtag  DW_TAG_TI_branch
    1077                      .dwattr $C$DW$111, DW_AT_low_pc(0x00)
    1078                      .dwattr $C$DW$111, DW_AT_name("_vListInsert")
    1079                      .dwattr $C$DW$111, DW_AT_TI_call
    1080 000307 6C00          CALL #_vListInsert ; |704| 
         000309 0000!
    1081                                                      ; call occurs [#_vListInsert] ; |704| 
    1082 00030b       $C$L18:    
    1083                      .dwpsn  file "../FreeRTOS/Source/tasks.c",line 708,column 3,is_stmt
    1084              $C$DW$112       .dwtag  DW_TAG_TI_branch
    1085                      .dwattr $C$DW$112, DW_AT_low_pc(0x00)
    1086                      .dwattr $C$DW$112, DW_AT_name("_xTaskResumeAll")
    1087                      .dwattr $C$DW$112, DW_AT_TI_call
    1088 00030b 0805          CALL #_xTaskResumeAll ; |708| 
         00030d 16   
    1089                                                      ; call occurs [#_xTaskResumeAll] ; |708| 
    1090 00030e C408          MOV T0, *SP(#4) ; |708| 
    1091                      .dwpsn  file "../FreeRTOS/Source/tasks.c",line 712,column 3,is_stmt
    1092 000310 2249          MOV T0, AR1
TMS320C55x Assembler PC v4.4.1 Fri Sep 07 02:27:27 2018

Tools Copyright (c) 1996-2012 Texas Instruments Incorporated
tasks.asm                                                            PAGE   25

    1093 000312 6219          BCC $C$L19,AR1 != #0 ; |712| 
    1094                                                      ; branchcc occurs ; |712| 
    1095                      .dwpsn  file "../FreeRTOS/Source/tasks.c",line 714,column 4,is_stmt
    1096              $C$DW$113       .dwtag  DW_TAG_TI_branch
    1097                      .dwattr $C$DW$113, DW_AT_low_pc(0x00)
    1098                      .dwattr $C$DW$113, DW_AT_name("_vPortYield")
    1099                      .dwattr $C$DW$113, DW_AT_TI_call
    1100 000314 6C00          CALL #_vPortYield ; |714| 
         000316 0000!
    1101                                                      ; call occurs [#_vPortYield] ; |714| 
    1102                      .dwpsn  file "../FreeRTOS/Source/tasks.c",line 716,column 2,is_stmt
    1103 000318       $C$L19:    
    1104 000318 4E07          AADD #7, SP
    1105                      .dwcfi  cfa_offset, 1
    1106              $C$DW$114       .dwtag  DW_TAG_TI_branch
    1107                      .dwattr $C$DW$114, DW_AT_low_pc(0x00)
    1108                      .dwattr $C$DW$114, DW_AT_TI_return
    1109 00031a 4804          RET
    1110                                                      ; return occurs
    1111                      .dwattr $C$DW$100, DW_AT_TI_end_file("../FreeRTOS/Source/tasks.c")
    1112                      .dwattr $C$DW$100, DW_AT_TI_end_line(0x2cc)
    1113                      .dwattr $C$DW$100, DW_AT_TI_end_column(0x02)
    1114                      .dwendentry
    1115                      .dwendtag $C$DW$100
    1116              
    1117 00031c               .sect   ".text"
    1118                      .align 4
    1119                      .global _vTaskDelay
    1120              
    1121              $C$DW$115       .dwtag  DW_TAG_subprogram, DW_AT_name("vTaskDelay")
    1122                      .dwattr $C$DW$115, DW_AT_low_pc(_vTaskDelay)
    1123                      .dwattr $C$DW$115, DW_AT_high_pc(0x00)
    1124                      .dwattr $C$DW$115, DW_AT_TI_symbol_name("_vTaskDelay")
    1125                      .dwattr $C$DW$115, DW_AT_external
    1126                      .dwattr $C$DW$115, DW_AT_TI_begin_file("../FreeRTOS/Source/tasks.c")
    1127                      .dwattr $C$DW$115, DW_AT_TI_begin_line(0x2d3)
    1128                      .dwattr $C$DW$115, DW_AT_TI_begin_column(0x07)
    1129                      .dwattr $C$DW$115, DW_AT_TI_max_frame_size(0x04)
    1130                      .dwpsn  file "../FreeRTOS/Source/tasks.c",line 724,column 2,is_stmt,address _vTaskDelay
    1131              
    1132                      .dwfde $C$DW$CIE, _vTaskDelay
    1133              $C$DW$116       .dwtag  DW_TAG_formal_parameter, DW_AT_name("xTicksToDelay")
    1134                      .dwattr $C$DW$116, DW_AT_TI_symbol_name("_xTicksToDelay")
    1135                      .dwattr $C$DW$116, DW_AT_type(*$C$DW$T$31)
    1136                      .dwattr $C$DW$116, DW_AT_location[DW_OP_reg12]
    1137              ;*******************************************************************************
    1138              ;* FUNCTION NAME: vTaskDelay                                                   *
    1139              ;*                                                                             *
    1140              ;*   Function Uses Regs : T0,AR0,XAR0,AR1,XAR1,AR2,AR3,XAR3,SP,CARRY,TC1,M40,  *
    1141              ;*                        SATA,SATD,RDM,FRCT,SMUL                              *
    1142              ;*   Stack Frame        : Compact (No Frame Pointer, w/ debug)                 *
    1143              ;*   Total Frame Size   : 4 words                                              *
    1144              ;*                        (1 return address/alignment)                         *
    1145              ;*                        (3 local values)                                     *
    1146              ;*   Min System Stack   : 1 word                                               *
TMS320C55x Assembler PC v4.4.1 Fri Sep 07 02:27:27 2018

Tools Copyright (c) 1996-2012 Texas Instruments Incorporated
tasks.asm                                                            PAGE   26

    1147              ;*******************************************************************************
    1148 00031c       _vTaskDelay:
    1149                      .dwcfi  cfa_offset, 1
    1150                      .dwcfi  save_reg_to_mem, 91, -1
    1151 00031c 4EFD          AADD #-3, SP
    1152                      .dwcfi  cfa_offset, 4
    1153              $C$DW$117       .dwtag  DW_TAG_variable, DW_AT_name("xTicksToDelay")
    1154                      .dwattr $C$DW$117, DW_AT_TI_symbol_name("_xTicksToDelay")
    1155                      .dwattr $C$DW$117, DW_AT_type(*$C$DW$T$31)
    1156                      .dwattr $C$DW$117, DW_AT_location[DW_OP_bregx 0x24 0]
    1157              $C$DW$118       .dwtag  DW_TAG_variable, DW_AT_name("xTimeToWake")
    1158                      .dwattr $C$DW$118, DW_AT_TI_symbol_name("_xTimeToWake")
    1159                      .dwattr $C$DW$118, DW_AT_type(*$C$DW$T$31)
    1160                      .dwattr $C$DW$118, DW_AT_location[DW_OP_bregx 0x24 1]
    1161              $C$DW$119       .dwtag  DW_TAG_variable, DW_AT_name("xAlreadyYielded")
    1162                      .dwattr $C$DW$119, DW_AT_TI_symbol_name("_xAlreadyYielded")
    1163                      .dwattr $C$DW$119, DW_AT_type(*$C$DW$T$10)
    1164                      .dwattr $C$DW$119, DW_AT_location[DW_OP_bregx 0x24 2]
    1165 00031e C400          MOV T0, *SP(#0) ; |724| 
    1166                      .dwpsn  file "../FreeRTOS/Source/tasks.c",line 726,column 23,is_stmt
    1167 000320 E604          MOV #0, *SP(#2) ; |726| 
         000322 00   
    1168                      .dwpsn  file "../FreeRTOS/Source/tasks.c",line 729,column 3,is_stmt
    1169 000323 A900          MOV *SP(#0), AR1 ; |729| 
    1170 000325 0409          BCC $C$L22,AR1 == #0 ; |729| 
         000327 5E   
    1171                                                      ; branchcc occurs ; |729| 
    1172                      .dwpsn  file "../FreeRTOS/Source/tasks.c",line 731,column 4,is_stmt
    1173              $C$DW$120       .dwtag  DW_TAG_TI_branch
    1174                      .dwattr $C$DW$120, DW_AT_low_pc(0x00)
    1175                      .dwattr $C$DW$120, DW_AT_name("_vTaskSuspendAll")
    1176                      .dwattr $C$DW$120, DW_AT_TI_call
    1177 000328 0804          CALL #_vTaskSuspendAll ; |731| 
         00032a ED   
    1178                                                      ; call occurs [#_vTaskSuspendAll] ; |731| 
    1179                      .dwpsn  file "../FreeRTOS/Source/tasks.c",line 745,column 5,is_stmt
    1180 00032b A900          MOV *SP(#0), AR1 ; |745| 
    1181 00032d D631          ADD *(#_xTickCount), AR1, AR1 ; |745| 
         00032f 9900 
         000331 0066-
    1182 000333 C902          MOV AR1, *SP(#1) ; |745| 
    1183                      .dwpsn  file "../FreeRTOS/Source/tasks.c",line 750,column 5,is_stmt
    1184 000335 ED31          MOV dbl(*(#_pxCurrentTCB)), XAR0
         000337 8F00 
         000339 0004-
    1185 00033b 1404          AADD #4, AR0 ; |750| 
         00033d 84   
    1186              $C$DW$121       .dwtag  DW_TAG_TI_branch
    1187                      .dwattr $C$DW$121, DW_AT_low_pc(0x00)
    1188                      .dwattr $C$DW$121, DW_AT_name("_vListRemove")
    1189                      .dwattr $C$DW$121, DW_AT_TI_call
    1190 00033e 6C00          CALL #_vListRemove ; |750| 
         000340 0000!
    1191                                                      ; call occurs [#_vListRemove] ; |750| 
    1192                      .dwpsn  file "../FreeRTOS/Source/tasks.c",line 753,column 5,is_stmt
TMS320C55x Assembler PC v4.4.1 Fri Sep 07 02:27:27 2018

Tools Copyright (c) 1996-2012 Texas Instruments Incorporated
tasks.asm                                                            PAGE   27

    1193 000342 ED31          MOV dbl(*(#_pxCurrentTCB)), XAR3
         000344 BF00 
         000346 0004-
    1194 000348 A902          MOV *SP(#1), AR1 ; |753| 
    1195 00034a C979          MOV AR1, *AR3(short(#4)) ; |753| 
    1196                      .dwpsn  file "../FreeRTOS/Source/tasks.c",line 755,column 5,is_stmt
    1197 00034c A931          MOV *(#_xTickCount), AR1 ; |755| 
         00034e 0000 
         000350 66-  
    1198 000351 AA02          MOV *SP(#1), AR2 ; |755| 
    1199 000353 12A8          CMPU AR2 >= AR1, TC1 ; |755| 
         000355 94   
    1200 000356 0464          BCC $C$L20,TC1 ; |755| 
         000358 15   
    1201                                                      ; branchcc occurs ; |755| 
    1202                      .dwpsn  file "../FreeRTOS/Source/tasks.c",line 759,column 6,is_stmt
    1203 000359 ED31          MOV dbl(*(#_pxCurrentTCB)), XAR1
         00035b 9F00 
         00035d 0004-
    1204 00035f ED31          MOV dbl(*(#_pxOverflowDelayedTaskList)), XAR0
         000361 8F00 
         000363 0044-
    1205 000365 1404          AADD #4, AR1 ; |759| 
         000367 94   
    1206              $C$DW$122       .dwtag  DW_TAG_TI_branch
    1207                      .dwattr $C$DW$122, DW_AT_low_pc(0x00)
    1208                      .dwattr $C$DW$122, DW_AT_name("_vListInsert")
    1209                      .dwattr $C$DW$122, DW_AT_TI_call
    1210 000368 6C00          CALL #_vListInsert ; |759| 
         00036a 0000!
    1211                                                      ; call occurs [#_vListInsert] ; |759| 
    1212                      .dwpsn  file "../FreeRTOS/Source/tasks.c",line 760,column 5,is_stmt
    1213 00036c 4A13          B $C$L21  ; |760| 
    1214                                                      ; branch occurs ; |760| 
    1215 00036e       $C$L20:    
    1216                      .dwpsn  file "../FreeRTOS/Source/tasks.c",line 765,column 6,is_stmt
    1217 00036e ED31          MOV dbl(*(#_pxCurrentTCB)), XAR1
         000370 9F00 
         000372 0004-
    1218 000374 ED31          MOV dbl(*(#_pxDelayedTaskList)), XAR0
         000376 8F00 
         000378 0042-
    1219 00037a 1404          AADD #4, AR1 ; |765| 
         00037c 94   
    1220              $C$DW$123       .dwtag  DW_TAG_TI_branch
    1221                      .dwattr $C$DW$123, DW_AT_low_pc(0x00)
    1222                      .dwattr $C$DW$123, DW_AT_name("_vListInsert")
    1223                      .dwattr $C$DW$123, DW_AT_TI_call
    1224 00037d 6C00          CALL #_vListInsert ; |765| 
         00037f 0000!
    1225                                                      ; call occurs [#_vListInsert] ; |765| 
    1226 000381       $C$L21:    
    1227                      .dwpsn  file "../FreeRTOS/Source/tasks.c",line 768,column 4,is_stmt
    1228              $C$DW$124       .dwtag  DW_TAG_TI_branch
    1229                      .dwattr $C$DW$124, DW_AT_low_pc(0x00)
TMS320C55x Assembler PC v4.4.1 Fri Sep 07 02:27:27 2018

Tools Copyright (c) 1996-2012 Texas Instruments Incorporated
tasks.asm                                                            PAGE   28

    1230                      .dwattr $C$DW$124, DW_AT_name("_xTaskResumeAll")
    1231                      .dwattr $C$DW$124, DW_AT_TI_call
    1232 000381 0804          CALL #_xTaskResumeAll ; |768| 
         000383 A0   
    1233                                                      ; call occurs [#_xTaskResumeAll] ; |768| 
    1234 000384 C404          MOV T0, *SP(#2) ; |768| 
    1235 000386       $C$L22:    
    1236                      .dwpsn  file "../FreeRTOS/Source/tasks.c",line 773,column 3,is_stmt
    1237 000386 A904          MOV *SP(#2), AR1 ; |773| 
    1238 000388 6219          BCC $C$L23,AR1 != #0 ; |773| 
    1239                                                      ; branchcc occurs ; |773| 
    1240                      .dwpsn  file "../FreeRTOS/Source/tasks.c",line 775,column 4,is_stmt
    1241              $C$DW$125       .dwtag  DW_TAG_TI_branch
    1242                      .dwattr $C$DW$125, DW_AT_low_pc(0x00)
    1243                      .dwattr $C$DW$125, DW_AT_name("_vPortYield")
    1244                      .dwattr $C$DW$125, DW_AT_TI_call
    1245 00038a 6C00          CALL #_vPortYield ; |775| 
         00038c 0000!
    1246                                                      ; call occurs [#_vPortYield] ; |775| 
    1247                      .dwpsn  file "../FreeRTOS/Source/tasks.c",line 777,column 2,is_stmt
    1248 00038e       $C$L23:    
    1249 00038e 4E03          AADD #3, SP
    1250                      .dwcfi  cfa_offset, 1
    1251              $C$DW$126       .dwtag  DW_TAG_TI_branch
    1252                      .dwattr $C$DW$126, DW_AT_low_pc(0x00)
    1253                      .dwattr $C$DW$126, DW_AT_TI_return
    1254 000390 4804          RET
    1255                                                      ; return occurs
    1256                      .dwattr $C$DW$115, DW_AT_TI_end_file("../FreeRTOS/Source/tasks.c")
    1257                      .dwattr $C$DW$115, DW_AT_TI_end_line(0x309)
    1258                      .dwattr $C$DW$115, DW_AT_TI_end_column(0x02)
    1259                      .dwendentry
    1260                      .dwendtag $C$DW$115
    1261              
    1262 000392               .sect   ".text"
    1263                      .align 4
    1264                      .global _uxTaskPriorityGet
    1265              
    1266              $C$DW$127       .dwtag  DW_TAG_subprogram, DW_AT_name("uxTaskPriorityGet")
    1267                      .dwattr $C$DW$127, DW_AT_low_pc(_uxTaskPriorityGet)
    1268                      .dwattr $C$DW$127, DW_AT_high_pc(0x00)
    1269                      .dwattr $C$DW$127, DW_AT_TI_symbol_name("_uxTaskPriorityGet")
    1270                      .dwattr $C$DW$127, DW_AT_external
    1271                      .dwattr $C$DW$127, DW_AT_type(*$C$DW$T$11)
    1272                      .dwattr $C$DW$127, DW_AT_TI_begin_file("../FreeRTOS/Source/tasks.c")
    1273                      .dwattr $C$DW$127, DW_AT_TI_begin_line(0x310)
    1274                      .dwattr $C$DW$127, DW_AT_TI_begin_column(0x19)
    1275                      .dwattr $C$DW$127, DW_AT_TI_max_frame_size(0x06)
    1276                      .dwpsn  file "../FreeRTOS/Source/tasks.c",line 785,column 2,is_stmt,address _uxTaskPriorityGet
    1277              
    1278                      .dwfde $C$DW$CIE, _uxTaskPriorityGet
    1279              $C$DW$128       .dwtag  DW_TAG_formal_parameter, DW_AT_name("pxTask")
    1280                      .dwattr $C$DW$128, DW_AT_TI_symbol_name("_pxTask")
    1281                      .dwattr $C$DW$128, DW_AT_type(*$C$DW$T$45)
    1282                      .dwattr $C$DW$128, DW_AT_location[DW_OP_reg17]
TMS320C55x Assembler PC v4.4.1 Fri Sep 07 02:27:27 2018

Tools Copyright (c) 1996-2012 Texas Instruments Incorporated
tasks.asm                                                            PAGE   29

    1283              ;*******************************************************************************
    1284              ;* FUNCTION NAME: uxTaskPriorityGet                                            *
    1285              ;*                                                                             *
    1286              ;*   Function Uses Regs : AC0,AC0,T0,AR0,XAR0,AR1,AR3,XAR3,SP,CARRY,M40,SATA,  *
    1287              ;*                        SATD,RDM,FRCT,SMUL                                   *
    1288              ;*   Stack Frame        : Compact (No Frame Pointer, w/ debug)                 *
    1289              ;*   Total Frame Size   : 6 words                                              *
    1290              ;*                        (1 return address/alignment)                         *
    1291              ;*                        (5 local values)                                     *
    1292              ;*   Min System Stack   : 1 word                                               *
    1293              ;*******************************************************************************
    1294 000394       _uxTaskPriorityGet:
    1295                      .dwcfi  cfa_offset, 1
    1296                      .dwcfi  save_reg_to_mem, 91, -1
    1297 000394 4EFB          AADD #-5, SP
    1298                      .dwcfi  cfa_offset, 6
    1299              $C$DW$129       .dwtag  DW_TAG_variable, DW_AT_name("pxTask")
    1300                      .dwattr $C$DW$129, DW_AT_TI_symbol_name("_pxTask")
    1301                      .dwattr $C$DW$129, DW_AT_type(*$C$DW$T$45)
    1302                      .dwattr $C$DW$129, DW_AT_location[DW_OP_bregx 0x24 0]
    1303              $C$DW$130       .dwtag  DW_TAG_variable, DW_AT_name("pxTCB")
    1304                      .dwattr $C$DW$130, DW_AT_TI_symbol_name("_pxTCB")
    1305                      .dwattr $C$DW$130, DW_AT_type(*$C$DW$T$79)
    1306                      .dwattr $C$DW$130, DW_AT_location[DW_OP_bregx 0x24 2]
    1307              $C$DW$131       .dwtag  DW_TAG_variable, DW_AT_name("uxReturn")
    1308                      .dwattr $C$DW$131, DW_AT_TI_symbol_name("_uxReturn")
    1309                      .dwattr $C$DW$131, DW_AT_type(*$C$DW$T$11)
    1310                      .dwattr $C$DW$131, DW_AT_location[DW_OP_bregx 0x24 4]
    1311 000396 EB00          MOV XAR0, dbl(*SP(#0))
         000398 85   
    1312                      .dwpsn  file "../FreeRTOS/Source/tasks.c",line 789,column 3,is_stmt
    1313 000399 20     nop
    1314 00039a 46B3   bset INTM
    1315 00039c F731          ADD #1, *(#_usCriticalNesting) ; |789| 
         00039e 0001 
         0003a0 0000 
         0003a2 00!  
    1316                      .dwpsn  file "../FreeRTOS/Source/tasks.c",line 793,column 4,is_stmt
    1317 0003a3 ED00          MOV dbl(*SP(#0)), XAR3
         0003a5 BF   
    1318 0003a6 90B0          MOV XAR3, AC0
    1319 0003a8 6310          BCC $C$L24,AC0 != #0 ; |793| 
    1320                                                      ; branchcc occurs ; |793| 
    1321 0003aa ED31          MOV dbl(*(#_pxCurrentTCB)), XAR3
         0003ac BF00 
         0003ae 0004-
    1322 0003b0       $C$L24:    
    1323 0003b0 EB04          MOV XAR3, dbl(*SP(#2))
         0003b2 B5   
    1324                      .dwpsn  file "../FreeRTOS/Source/tasks.c",line 794,column 4,is_stmt
    1325 0003b3 A96D          MOV *AR3(#24), AR1 ; |794| 
         0003b5 0018 
    1326 0003b7 C908          MOV AR1, *SP(#4) ; |794| 
    1327                      .dwpsn  file "../FreeRTOS/Source/tasks.c",line 796,column 3,is_stmt
    1328 0003b9 A931          MOV *(#_usCriticalNesting), AR1 ; |796| 
TMS320C55x Assembler PC v4.4.1 Fri Sep 07 02:27:27 2018

Tools Copyright (c) 1996-2012 Texas Instruments Incorporated
tasks.asm                                                            PAGE   30

         0003bb 0000 
         0003bd 00!  
    1329 0003be 0409          BCC $C$L25,AR1 == #0 ; |796| 
         0003c0 14   
    1330                                                      ; branchcc occurs ; |796| 
    1331 0003c1 F731          SUB #1, *(#_usCriticalNesting) ; |796| 
         0003c3 FFFF 
         0003c5 0000 
         0003c7 00!  
    1332 0003c8 20            NOP
    1333 0003c9 20            NOP
    1334 0003ca 20            NOP
    1335 0003cb A931          MOV *(#_usCriticalNesting), AR1 ; |796| 
         0003cd 0000 
         0003cf 00!  
    1336 0003d0 6199          BCC $C$L25,AR1 != #0 ; |796| 
    1337                                                      ; branchcc occurs ; |796| 
    1338 0003d2 20     nop
    1339 0003d3 46B2   bclr INTM
    1340 0003d5       $C$L25:    
    1341                      .dwpsn  file "../FreeRTOS/Source/tasks.c",line 798,column 3,is_stmt
    1342 0003d5 A408          MOV *SP(#4), T0 ; |798| 
    1343                      .dwpsn  file "../FreeRTOS/Source/tasks.c",line 799,column 2,is_stmt
    1344 0003d7 4E05          AADD #5, SP
    1345                      .dwcfi  cfa_offset, 1
    1346              $C$DW$132       .dwtag  DW_TAG_TI_branch
    1347                      .dwattr $C$DW$132, DW_AT_low_pc(0x00)
    1348                      .dwattr $C$DW$132, DW_AT_TI_return
    1349 0003d9 4804          RET
    1350                                                      ; return occurs
    1351                      .dwattr $C$DW$127, DW_AT_TI_end_file("../FreeRTOS/Source/tasks.c")
    1352                      .dwattr $C$DW$127, DW_AT_TI_end_line(0x31f)
    1353                      .dwattr $C$DW$127, DW_AT_TI_end_column(0x02)
    1354                      .dwendentry
    1355                      .dwendtag $C$DW$127
    1356              
    1357 0003db               .sect   ".text"
    1358                      .align 4
    1359                      .global _vTaskPrioritySet
    1360              
    1361              $C$DW$133       .dwtag  DW_TAG_subprogram, DW_AT_name("vTaskPrioritySet")
    1362                      .dwattr $C$DW$133, DW_AT_low_pc(_vTaskPrioritySet)
    1363                      .dwattr $C$DW$133, DW_AT_high_pc(0x00)
    1364                      .dwattr $C$DW$133, DW_AT_TI_symbol_name("_vTaskPrioritySet")
    1365                      .dwattr $C$DW$133, DW_AT_external
    1366                      .dwattr $C$DW$133, DW_AT_TI_begin_file("../FreeRTOS/Source/tasks.c")
    1367                      .dwattr $C$DW$133, DW_AT_TI_begin_line(0x326)
    1368                      .dwattr $C$DW$133, DW_AT_TI_begin_column(0x07)
    1369                      .dwattr $C$DW$133, DW_AT_TI_max_frame_size(0x0a)
    1370                      .dwpsn  file "../FreeRTOS/Source/tasks.c",line 807,column 2,is_stmt,address _vTaskPrioritySet
    1371              
    1372                      .dwfde $C$DW$CIE, _vTaskPrioritySet
    1373              $C$DW$134       .dwtag  DW_TAG_formal_parameter, DW_AT_name("pxTask")
    1374                      .dwattr $C$DW$134, DW_AT_TI_symbol_name("_pxTask")
    1375                      .dwattr $C$DW$134, DW_AT_type(*$C$DW$T$45)
TMS320C55x Assembler PC v4.4.1 Fri Sep 07 02:27:27 2018

Tools Copyright (c) 1996-2012 Texas Instruments Incorporated
tasks.asm                                                            PAGE   31

    1376                      .dwattr $C$DW$134, DW_AT_location[DW_OP_reg17]
    1377              $C$DW$135       .dwtag  DW_TAG_formal_parameter, DW_AT_name("uxNewPriority")
    1378                      .dwattr $C$DW$135, DW_AT_TI_symbol_name("_uxNewPriority")
    1379                      .dwattr $C$DW$135, DW_AT_type(*$C$DW$T$11)
    1380                      .dwattr $C$DW$135, DW_AT_location[DW_OP_reg12]
    1381              ;*******************************************************************************
    1382              ;* FUNCTION NAME: vTaskPrioritySet                                             *
    1383              ;*                                                                             *
    1384              ;*   Function Uses Regs : AC0,AC0,AC1,AC1,T0,AR0,XAR0,AR1,XAR1,AR2,AR3,XAR3,SP,*
    1385              ;*                        CARRY,TC1,M40,SATA,SATD,RDM,FRCT,SMUL                *
    1386              ;*   Stack Frame        : Compact (No Frame Pointer, w/ debug)                 *
    1387              ;*   Total Frame Size   : 10 words                                             *
    1388              ;*                        (2 return address/alignment)                         *
    1389              ;*                        (8 local values)                                     *
    1390              ;*   Min System Stack   : 1 word                                               *
    1391              ;*******************************************************************************
    1392 0003dc       _vTaskPrioritySet:
    1393                      .dwcfi  cfa_offset, 1
    1394                      .dwcfi  save_reg_to_mem, 91, -1
    1395 0003dc 4EF7          AADD #-9, SP
    1396                      .dwcfi  cfa_offset, 10
    1397              $C$DW$136       .dwtag  DW_TAG_variable, DW_AT_name("pxTask")
    1398                      .dwattr $C$DW$136, DW_AT_TI_symbol_name("_pxTask")
    1399                      .dwattr $C$DW$136, DW_AT_type(*$C$DW$T$45)
    1400                      .dwattr $C$DW$136, DW_AT_location[DW_OP_bregx 0x24 0]
    1401              $C$DW$137       .dwtag  DW_TAG_variable, DW_AT_name("uxNewPriority")
    1402                      .dwattr $C$DW$137, DW_AT_TI_symbol_name("_uxNewPriority")
    1403                      .dwattr $C$DW$137, DW_AT_type(*$C$DW$T$11)
    1404                      .dwattr $C$DW$137, DW_AT_location[DW_OP_bregx 0x24 2]
    1405              $C$DW$138       .dwtag  DW_TAG_variable, DW_AT_name("pxTCB")
    1406                      .dwattr $C$DW$138, DW_AT_TI_symbol_name("_pxTCB")
    1407                      .dwattr $C$DW$138, DW_AT_type(*$C$DW$T$79)
    1408                      .dwattr $C$DW$138, DW_AT_location[DW_OP_bregx 0x24 4]
    1409              $C$DW$139       .dwtag  DW_TAG_variable, DW_AT_name("uxCurrentPriority")
    1410                      .dwattr $C$DW$139, DW_AT_TI_symbol_name("_uxCurrentPriority")
    1411                      .dwattr $C$DW$139, DW_AT_type(*$C$DW$T$11)
    1412                      .dwattr $C$DW$139, DW_AT_location[DW_OP_bregx 0x24 6]
    1413              $C$DW$140       .dwtag  DW_TAG_variable, DW_AT_name("xYieldRequired")
    1414                      .dwattr $C$DW$140, DW_AT_TI_symbol_name("_xYieldRequired")
    1415                      .dwattr $C$DW$140, DW_AT_type(*$C$DW$T$11)
    1416                      .dwattr $C$DW$140, DW_AT_location[DW_OP_bregx 0x24 7]
    1417 0003de C404          MOV T0, *SP(#2) ; |807| 
    1418 0003e0 EB00          MOV XAR0, dbl(*SP(#0))
         0003e2 85   
    1419                      .dwpsn  file "../FreeRTOS/Source/tasks.c",line 809,column 44,is_stmt
    1420 0003e3 E60E          MOV #0, *SP(#7) ; |809| 
         0003e5 00   
    1421                      .dwpsn  file "../FreeRTOS/Source/tasks.c",line 812,column 3,is_stmt
    1422              
    1423 0003e6 A904          MOV *SP(#2), AR1 ; |812| 
    1424 0003e8 3D4A  ||      MOV #4, AR2
    1425              
    1426 0003ea 1294          CMPU AR1 < AR2, TC1 ; |812| 
         0003ec A4   
    1427 0003ed 61E4          BCC $C$L26,TC1 ; |812| 
TMS320C55x Assembler PC v4.4.1 Fri Sep 07 02:27:27 2018

Tools Copyright (c) 1996-2012 Texas Instruments Incorporated
tasks.asm                                                            PAGE   32

    1428                                                      ; branchcc occurs ; |812| 
    1429                      .dwpsn  file "../FreeRTOS/Source/tasks.c",line 814,column 4,is_stmt
    1430 0003ef E604          MOV #3, *SP(#2) ; |814| 
         0003f1 03   
    1431 0003f2       $C$L26:    
    1432                      .dwpsn  file "../FreeRTOS/Source/tasks.c",line 817,column 3,is_stmt
    1433 0003f2 20     nop
    1434 0003f3 46B3   bset INTM
    1435 0003f5 F731          ADD #1, *(#_usCriticalNesting) ; |817| 
         0003f7 0001 
         0003f9 0000 
         0003fb 00!  
    1436 0003fc 20            NOP
    1437 0003fd 20            NOP
    1438 0003fe 20            NOP
    1439                      .dwpsn  file "../FreeRTOS/Source/tasks.c",line 819,column 4,is_stmt
    1440 0003ff ED31          MOV dbl(*(#_pxCurrentTCB)), XAR3
         000401 BF00 
         000403 0004-
    1441 000405 90B0          MOV XAR3, AC0
    1442 000407 ED00          MOV dbl(*SP(#0)), XAR3
         000409 BF   
    1443 00040a 90B1          MOV XAR3, AC1
    1444 00040c 121C          CMPU AC1 != AC0, TC1 ; |819| 
         00040e 04   
    1445 00040f 62E4          BCC $C$L27,TC1 ; |819| 
    1446                                                      ; branchcc occurs ; |819| 
    1447                      .dwpsn  file "../FreeRTOS/Source/tasks.c",line 821,column 5,is_stmt
    1448 000411 3C00          MOV #0, AC0 ; |821| 
    1449 000413 EB00          MOV AC0, dbl(*SP(#0))
         000415 08   
    1450 000416       $C$L27:    
    1451                      .dwpsn  file "../FreeRTOS/Source/tasks.c",line 826,column 4,is_stmt
    1452 000416 ED00          MOV dbl(*SP(#0)), XAR3
         000418 BF   
    1453 000419 90B0          MOV XAR3, AC0
    1454 00041b 6310          BCC $C$L28,AC0 != #0 ; |826| 
    1455                                                      ; branchcc occurs ; |826| 
    1456 00041d ED31          MOV dbl(*(#_pxCurrentTCB)), XAR3
         00041f BF00 
         000421 0004-
    1457 000423       $C$L28:    
    1458 000423 EB08          MOV XAR3, dbl(*SP(#4))
         000425 B5   
    1459                      .dwpsn  file "../FreeRTOS/Source/tasks.c",line 836,column 5,is_stmt
    1460 000426 A96D          MOV *AR3(#24), AR1 ; |836| 
         000428 0018 
    1461 00042a C90C          MOV AR1, *SP(#6) ; |836| 
    1462                      .dwpsn  file "../FreeRTOS/Source/tasks.c",line 840,column 4,is_stmt
    1463 00042c AA0C          MOV *SP(#6), AR2 ; |840| 
    1464 00042e A904          MOV *SP(#2), AR1 ; |840| 
    1465 000430 12A0          CMPU AR2 == AR1, TC1 ; |840| 
         000432 94   
    1466 000433 6D64          BCC $C$L33,TC1 ; |840| 
         000435 009E 
TMS320C55x Assembler PC v4.4.1 Fri Sep 07 02:27:27 2018

Tools Copyright (c) 1996-2012 Texas Instruments Incorporated
tasks.asm                                                            PAGE   33

    1467                                                      ; branchcc occurs ; |840| 
    1468                      .dwpsn  file "../FreeRTOS/Source/tasks.c",line 844,column 5,is_stmt
    1469              
    1470 000437 AA04          MOV *SP(#2), AR2 ; |844| 
    1471 000439 23A9  ||      MOV AR2, AR1
    1472              
    1473 00043b 1298          CMPU AR2 <= AR1, TC1 ; |844| 
         00043d A4   
    1474 00043e 6664          BCC $C$L29,TC1 ; |844| 
    1475                                                      ; branchcc occurs ; |844| 
    1476                      .dwpsn  file "../FreeRTOS/Source/tasks.c",line 846,column 6,is_stmt
    1477 000440 ED00          MOV dbl(*SP(#0)), XAR3
         000442 BF   
    1478 000443 90B0          MOV XAR3, AC0
    1479 000445 6780          BCC $C$L30,AC0 == #0 ; |846| 
    1480                                                      ; branchcc occurs ; |846| 
    1481                      .dwpsn  file "../FreeRTOS/Source/tasks.c",line 852,column 7,is_stmt
    1482 000447 E60E          MOV #1, *SP(#7) ; |852| 
         000449 01   
    1483                      .dwpsn  file "../FreeRTOS/Source/tasks.c",line 854,column 5,is_stmt
    1484 00044a 4A0A          B $C$L30  ; |854| 
    1485                                                      ; branch occurs ; |854| 
    1486 00044c       $C$L29:    
    1487                      .dwpsn  file "../FreeRTOS/Source/tasks.c",line 855,column 10,is_stmt
    1488 00044c ED00          MOV dbl(*SP(#0)), XAR3
         00044e BF   
    1489 00044f 90B0          MOV XAR3, AC0
    1490 000451 6190          BCC $C$L30,AC0 != #0 ; |855| 
    1491                                                      ; branchcc occurs ; |855| 
    1492                      .dwpsn  file "../FreeRTOS/Source/tasks.c",line 859,column 6,is_stmt
    1493 000453 E60E          MOV #1, *SP(#7) ; |859| 
         000455 01   
    1494 000456       $C$L30:    
    1495                      .dwpsn  file "../FreeRTOS/Source/tasks.c",line 878,column 6,is_stmt
    1496 000456 ED08          MOV dbl(*SP(#4)), XAR3
         000458 BF   
    1497 000459 A904          MOV *SP(#2), AR1 ; |878| 
    1498 00045b C96D          MOV AR1, *AR3(#24) ; |878| 
         00045d 0018 
    1499                      .dwpsn  file "../FreeRTOS/Source/tasks.c",line 882,column 5,is_stmt
    1500 00045f ED08          MOV dbl(*SP(#4)), XAR3
         000461 BF   
    1501 000462 3C40          MOV #4, AC0
    1502 000464 DF04          SUB uns(*SP(#2)), AC0, AC0 ; |882| 
         000466 0F   
    1503 000467 C06D          MOV AC0, *AR3(#14) ; |882| 
         000469 000E 
    1504                      .dwpsn  file "../FreeRTOS/Source/tasks.c",line 888,column 5,is_stmt
    1505 00046b F80C          MPYMK *SP(#6), #10, AC1 ; |888| 
         00046d 0A10 
    1506 00046f 2219          MOV AC1, AR1 ; |888| 
    1507 000471 EC31          AMOV #_pxReadyTasksLists, XAR3 ; |888| 
         000473 BE00 
         000475 0006-
    1508 000477 1490          AADD AR1, AR3 ; |888| 
TMS320C55x Assembler PC v4.4.1 Fri Sep 07 02:27:27 2018

Tools Copyright (c) 1996-2012 Texas Instruments Incorporated
tasks.asm                                                            PAGE   34

         000479 B0   
    1509 00047a 90B0          MOV XAR3, AC0
    1510 00047c ED08          MOV dbl(*SP(#4)), XAR3
         00047e BF   
    1511 00047f ED6D          MOV dbl(*AR3(#12)), XAR3
         000481 BF00 
         000483 0C   
    1512 000484 90B1          MOV XAR3, AC1
    1513 000486 121C          CMPU AC1 != AC0, TC1 ; |888| 
         000488 04   
    1514 000489 0464          BCC $C$L32,TC1 ; |888| 
         00048b 3F   
    1515                                                      ; branchcc occurs ; |888| 
    1516                      .dwpsn  file "../FreeRTOS/Source/tasks.c",line 893,column 6,is_stmt
    1517 00048c ED08          MOV dbl(*SP(#4)), XAR0
         00048e 8F   
    1518 00048f 1404          AADD #4, AR0 ; |893| 
         000491 84   
    1519              $C$DW$141       .dwtag  DW_TAG_TI_branch
    1520                      .dwattr $C$DW$141, DW_AT_low_pc(0x00)
    1521                      .dwattr $C$DW$141, DW_AT_name("_vListRemove")
    1522                      .dwattr $C$DW$141, DW_AT_TI_call
    1523 000492 6C00          CALL #_vListRemove ; |893| 
         000494 0000!
    1524                                                      ; call occurs [#_vListRemove] ; |893| 
    1525                      .dwpsn  file "../FreeRTOS/Source/tasks.c",line 894,column 6,is_stmt
    1526 000496 ED08          MOV dbl(*SP(#4)), XAR3
         000498 BF   
    1527 000499 A931          MOV *(#_uxTopReadyPriority), AR1 ; |894| 
         00049b 0000 
         00049d 68-  
    1528 00049e AA6D          MOV *AR3(#24), AR2 ; |894| 
         0004a0 0018 
    1529 0004a2 1298          CMPU AR2 <= AR1, TC1 ; |894| 
         0004a4 A4   
    1530 0004a5 64E4          BCC $C$L31,TC1 ; |894| 
    1531                                                      ; branchcc occurs ; |894| 
    1532 0004a7 A96D          MOV *AR3(#24), AR1 ; |894| 
         0004a9 0018 
    1533 0004ab C931          MOV AR1, *(#_uxTopReadyPriority) ; |894| 
         0004ad 0000 
         0004af 68-  
    1534 0004b0       $C$L31:    
    1535 0004b0 F86D          MPYMK *AR3(#24), #10, AC0 ; |894| 
         0004b2 0A00 
         0004b4 0018 
    1536 0004b6 2209          MOV AC0, AR1 ; |894| 
    1537 0004b8 EC31          AMOV #_pxReadyTasksLists, XAR0 ; |894| 
         0004ba 8E00 
         0004bc 0006-
    1538 0004be 1490          AADD AR1, AR0 ; |894| 
         0004c0 80   
    1539 0004c1 ED08          MOV dbl(*SP(#4)), XAR1
         0004c3 9F   
    1540 0004c4 1404          AADD #4, AR1 ; |894| 
TMS320C55x Assembler PC v4.4.1 Fri Sep 07 02:27:27 2018

Tools Copyright (c) 1996-2012 Texas Instruments Incorporated
tasks.asm                                                            PAGE   35

         0004c6 94   
    1541              $C$DW$142       .dwtag  DW_TAG_TI_branch
    1542                      .dwattr $C$DW$142, DW_AT_low_pc(0x00)
    1543                      .dwattr $C$DW$142, DW_AT_name("_vListInsertEnd")
    1544                      .dwattr $C$DW$142, DW_AT_TI_call
    1545 0004c7 6C00          CALL #_vListInsertEnd ; |894| 
         0004c9 0000!
    1546                                                      ; call occurs [#_vListInsertEnd] ; |894| 
    1547 0004cb       $C$L32:    
    1548                      .dwpsn  file "../FreeRTOS/Source/tasks.c",line 897,column 5,is_stmt
    1549 0004cb F00E          CMP *SP(#7) == #1, TC1 ; |897| 
         0004cd 0001 
    1550 0004cf 6274          BCC $C$L33,!TC1 ; |897| 
    1551                                                      ; branchcc occurs ; |897| 
    1552                      .dwpsn  file "../FreeRTOS/Source/tasks.c",line 899,column 6,is_stmt
    1553              $C$DW$143       .dwtag  DW_TAG_TI_branch
    1554                      .dwattr $C$DW$143, DW_AT_low_pc(0x00)
    1555                      .dwattr $C$DW$143, DW_AT_name("_vPortYield")
    1556                      .dwattr $C$DW$143, DW_AT_TI_call
    1557 0004d1 6C00          CALL #_vPortYield ; |899| 
         0004d3 0000!
    1558                                                      ; call occurs [#_vPortYield] ; |899| 
    1559 0004d5       $C$L33:    
    1560                      .dwpsn  file "../FreeRTOS/Source/tasks.c",line 903,column 3,is_stmt
    1561 0004d5 A931          MOV *(#_usCriticalNesting), AR1 ; |903| 
         0004d7 0000 
         0004d9 00!  
    1562 0004da 0409          BCC $C$L34,AR1 == #0 ; |903| 
         0004dc 14   
    1563                                                      ; branchcc occurs ; |903| 
    1564 0004dd F731          SUB #1, *(#_usCriticalNesting) ; |903| 
         0004df FFFF 
         0004e1 0000 
         0004e3 00!  
    1565 0004e4 20            NOP
    1566 0004e5 20            NOP
    1567 0004e6 20            NOP
    1568 0004e7 A931          MOV *(#_usCriticalNesting), AR1 ; |903| 
         0004e9 0000 
         0004eb 00!  
    1569 0004ec 6199          BCC $C$L34,AR1 != #0 ; |903| 
    1570                                                      ; branchcc occurs ; |903| 
    1571 0004ee 20     nop
    1572 0004ef 46B2   bclr INTM
    1573                      .dwpsn  file "../FreeRTOS/Source/tasks.c",line 904,column 2,is_stmt
    1574 0004f1       $C$L34:    
    1575 0004f1 4E09          AADD #9, SP
    1576                      .dwcfi  cfa_offset, 1
    1577              $C$DW$144       .dwtag  DW_TAG_TI_branch
    1578                      .dwattr $C$DW$144, DW_AT_low_pc(0x00)
    1579                      .dwattr $C$DW$144, DW_AT_TI_return
    1580 0004f3 4804          RET
    1581                                                      ; return occurs
    1582                      .dwattr $C$DW$133, DW_AT_TI_end_file("../FreeRTOS/Source/tasks.c")
    1583                      .dwattr $C$DW$133, DW_AT_TI_end_line(0x388)
TMS320C55x Assembler PC v4.4.1 Fri Sep 07 02:27:27 2018

Tools Copyright (c) 1996-2012 Texas Instruments Incorporated
tasks.asm                                                            PAGE   36

    1584                      .dwattr $C$DW$133, DW_AT_TI_end_column(0x02)
    1585                      .dwendentry
    1586                      .dwendtag $C$DW$133
    1587              
    1588 0004f5               .sect   ".text"
    1589                      .align 4
    1590                      .global _vTaskSuspend
    1591              
    1592              $C$DW$145       .dwtag  DW_TAG_subprogram, DW_AT_name("vTaskSuspend")
    1593                      .dwattr $C$DW$145, DW_AT_low_pc(_vTaskSuspend)
    1594                      .dwattr $C$DW$145, DW_AT_high_pc(0x00)
    1595                      .dwattr $C$DW$145, DW_AT_TI_symbol_name("_vTaskSuspend")
    1596                      .dwattr $C$DW$145, DW_AT_external
    1597                      .dwattr $C$DW$145, DW_AT_TI_begin_file("../FreeRTOS/Source/tasks.c")
    1598                      .dwattr $C$DW$145, DW_AT_TI_begin_line(0x38f)
    1599                      .dwattr $C$DW$145, DW_AT_TI_begin_column(0x07)
    1600                      .dwattr $C$DW$145, DW_AT_TI_max_frame_size(0x06)
    1601                      .dwpsn  file "../FreeRTOS/Source/tasks.c",line 912,column 2,is_stmt,address _vTaskSuspend
    1602              
    1603                      .dwfde $C$DW$CIE, _vTaskSuspend
    1604              $C$DW$146       .dwtag  DW_TAG_formal_parameter, DW_AT_name("pxTaskToSuspend")
    1605                      .dwattr $C$DW$146, DW_AT_TI_symbol_name("_pxTaskToSuspend")
    1606                      .dwattr $C$DW$146, DW_AT_type(*$C$DW$T$45)
    1607                      .dwattr $C$DW$146, DW_AT_location[DW_OP_reg17]
    1608              ;*******************************************************************************
    1609              ;* FUNCTION NAME: vTaskSuspend                                                 *
    1610              ;*                                                                             *
    1611              ;*   Function Uses Regs : AC0,AC0,AC1,AC1,AR0,XAR0,AR1,XAR1,AR3,XAR3,SP,CARRY, *
    1612              ;*                        TC1,M40,SATA,SATD,RDM,FRCT,SMUL                      *
    1613              ;*   Stack Frame        : Compact (No Frame Pointer, w/ debug)                 *
    1614              ;*   Total Frame Size   : 6 words                                              *
    1615              ;*                        (2 return address/alignment)                         *
    1616              ;*                        (4 local values)                                     *
    1617              ;*   Min System Stack   : 1 word                                               *
    1618              ;*******************************************************************************
    1619 0004f8       _vTaskSuspend:
    1620                      .dwcfi  cfa_offset, 1
    1621                      .dwcfi  save_reg_to_mem, 91, -1
    1622 0004f8 4EFB          AADD #-5, SP
    1623                      .dwcfi  cfa_offset, 6
    1624              $C$DW$147       .dwtag  DW_TAG_variable, DW_AT_name("pxTaskToSuspend")
    1625                      .dwattr $C$DW$147, DW_AT_TI_symbol_name("_pxTaskToSuspend")
    1626                      .dwattr $C$DW$147, DW_AT_type(*$C$DW$T$45)
    1627                      .dwattr $C$DW$147, DW_AT_location[DW_OP_bregx 0x24 0]
    1628              $C$DW$148       .dwtag  DW_TAG_variable, DW_AT_name("pxTCB")
    1629                      .dwattr $C$DW$148, DW_AT_TI_symbol_name("_pxTCB")
    1630                      .dwattr $C$DW$148, DW_AT_type(*$C$DW$T$79)
    1631                      .dwattr $C$DW$148, DW_AT_location[DW_OP_bregx 0x24 2]
    1632 0004fa EB00          MOV XAR0, dbl(*SP(#0))
         0004fc 85   
    1633                      .dwpsn  file "../FreeRTOS/Source/tasks.c",line 915,column 3,is_stmt
    1634 0004fd 20     nop
    1635 0004fe 46B3   bset INTM
    1636 000500 F731          ADD #1, *(#_usCriticalNesting) ; |915| 
         000502 0001 
TMS320C55x Assembler PC v4.4.1 Fri Sep 07 02:27:27 2018

Tools Copyright (c) 1996-2012 Texas Instruments Incorporated
tasks.asm                                                            PAGE   37

         000504 0000 
         000506 00!  
    1637 000507 20            NOP
    1638 000508 20            NOP
    1639 000509 20            NOP
    1640                      .dwpsn  file "../FreeRTOS/Source/tasks.c",line 919,column 4,is_stmt
    1641 00050a ED31          MOV dbl(*(#_pxCurrentTCB)), XAR3
         00050c BF00 
         00050e 0004-
    1642 000510 90B0          MOV XAR3, AC0
    1643 000512 ED00          MOV dbl(*SP(#0)), XAR3
         000514 BF   
    1644 000515 90B1          MOV XAR3, AC1
    1645 000517 121C          CMPU AC1 != AC0, TC1 ; |919| 
         000519 04   
    1646 00051a 62E4          BCC $C$L35,TC1 ; |919| 
    1647                                                      ; branchcc occurs ; |919| 
    1648                      .dwpsn  file "../FreeRTOS/Source/tasks.c",line 921,column 5,is_stmt
    1649 00051c 3C00          MOV #0, AC0 ; |921| 
    1650 00051e EB00          MOV AC0, dbl(*SP(#0))
         000520 08   
    1651 000521       $C$L35:    
    1652                      .dwpsn  file "../FreeRTOS/Source/tasks.c",line 925,column 4,is_stmt
    1653 000521 ED00          MOV dbl(*SP(#0)), XAR3
         000523 BF   
    1654 000524 90B0          MOV XAR3, AC0
    1655 000526 6310          BCC $C$L36,AC0 != #0 ; |925| 
    1656                                                      ; branchcc occurs ; |925| 
    1657 000528 ED31          MOV dbl(*(#_pxCurrentTCB)), XAR3
         00052a BF00 
         00052c 0004-
    1658 00052e       $C$L36:    
    1659 00052e EB04          MOV XAR3, dbl(*SP(#2))
         000530 B5   
    1660                      .dwpsn  file "../FreeRTOS/Source/tasks.c",line 930,column 4,is_stmt
    1661 000531 ED04          MOV dbl(*SP(#2)), XAR0
         000533 8F   
    1662 000534 1404          AADD #4, AR0 ; |930| 
         000536 84   
    1663              $C$DW$149       .dwtag  DW_TAG_TI_branch
    1664                      .dwattr $C$DW$149, DW_AT_low_pc(0x00)
    1665                      .dwattr $C$DW$149, DW_AT_name("_vListRemove")
    1666                      .dwattr $C$DW$149, DW_AT_TI_call
    1667 000537 6C00          CALL #_vListRemove ; |930| 
         000539 0000!
    1668                                                      ; call occurs [#_vListRemove] ; |930| 
    1669                      .dwpsn  file "../FreeRTOS/Source/tasks.c",line 933,column 4,is_stmt
    1670 00053b ED04          MOV dbl(*SP(#2)), XAR3
         00053d BF   
    1671 00053e ED6D          MOV dbl(*AR3(#22)), XAR3
         000540 BF00 
         000542 16   
    1672 000543 90B0          MOV XAR3, AC0
    1673 000545 6500          BCC $C$L37,AC0 == #0 ; |933| 
    1674                                                      ; branchcc occurs ; |933| 
TMS320C55x Assembler PC v4.4.1 Fri Sep 07 02:27:27 2018

Tools Copyright (c) 1996-2012 Texas Instruments Incorporated
tasks.asm                                                            PAGE   38

    1675                      .dwpsn  file "../FreeRTOS/Source/tasks.c",line 935,column 5,is_stmt
    1676 000547 ED04          MOV dbl(*SP(#2)), XAR0
         000549 8F   
    1677 00054a 140E          AADD #14, AR0 ; |935| 
         00054c 84   
    1678              $C$DW$150       .dwtag  DW_TAG_TI_branch
    1679                      .dwattr $C$DW$150, DW_AT_low_pc(0x00)
    1680                      .dwattr $C$DW$150, DW_AT_name("_vListRemove")
    1681                      .dwattr $C$DW$150, DW_AT_TI_call
    1682 00054d 6C00          CALL #_vListRemove ; |935| 
         00054f 0000!
    1683                                                      ; call occurs [#_vListRemove] ; |935| 
    1684 000551       $C$L37:    
    1685                      .dwpsn  file "../FreeRTOS/Source/tasks.c",line 938,column 4,is_stmt
    1686 000551 ED04          MOV dbl(*SP(#2)), XAR1
         000553 9F   
    1687 000554 EC31          AMOV #_xSuspendedTaskList, XAR0 ; |938| 
         000556 8E00 
         000558 005C-
    1688 00055a 1404          AADD #4, AR1 ; |938| 
         00055c 94   
    1689              $C$DW$151       .dwtag  DW_TAG_TI_branch
    1690                      .dwattr $C$DW$151, DW_AT_low_pc(0x00)
    1691                      .dwattr $C$DW$151, DW_AT_name("_vListInsertEnd")
    1692                      .dwattr $C$DW$151, DW_AT_TI_call
    1693 00055d 6C00          CALL #_vListInsertEnd ; |938| 
         00055f 0000!
    1694                                                      ; call occurs [#_vListInsertEnd] ; |938| 
    1695                      .dwpsn  file "../FreeRTOS/Source/tasks.c",line 940,column 3,is_stmt
    1696 000561 A931          MOV *(#_usCriticalNesting), AR1 ; |940| 
         000563 0000 
         000565 00!  
    1697 000566 0409          BCC $C$L38,AR1 == #0 ; |940| 
         000568 14   
    1698                                                      ; branchcc occurs ; |940| 
    1699 000569 F731          SUB #1, *(#_usCriticalNesting) ; |940| 
         00056b FFFF 
         00056d 0000 
         00056f 00!  
    1700 000570 20            NOP
    1701 000571 20            NOP
    1702 000572 20            NOP
    1703 000573 A931          MOV *(#_usCriticalNesting), AR1 ; |940| 
         000575 0000 
         000577 00!  
    1704 000578 6199          BCC $C$L38,AR1 != #0 ; |940| 
    1705                                                      ; branchcc occurs ; |940| 
    1706 00057a 20     nop
    1707 00057b 46B2   bclr INTM
    1708 00057d       $C$L38:    
    1709                      .dwpsn  file "../FreeRTOS/Source/tasks.c",line 943,column 3,is_stmt
    1710 00057d ED00          MOV dbl(*SP(#0)), XAR3
         00057f BF   
    1711 000580 90B0          MOV XAR3, AC0
    1712 000582 6210          BCC $C$L39,AC0 != #0 ; |943| 
TMS320C55x Assembler PC v4.4.1 Fri Sep 07 02:27:27 2018

Tools Copyright (c) 1996-2012 Texas Instruments Incorporated
tasks.asm                                                            PAGE   39

    1713                                                      ; branchcc occurs ; |943| 
    1714                      .dwpsn  file "../FreeRTOS/Source/tasks.c",line 945,column 4,is_stmt
    1715              $C$DW$152       .dwtag  DW_TAG_TI_branch
    1716                      .dwattr $C$DW$152, DW_AT_low_pc(0x00)
    1717                      .dwattr $C$DW$152, DW_AT_name("_vPortYield")
    1718                      .dwattr $C$DW$152, DW_AT_TI_call
    1719 000584 6C00          CALL #_vPortYield ; |945| 
         000586 0000!
    1720                                                      ; call occurs [#_vPortYield] ; |945| 
    1721                      .dwpsn  file "../FreeRTOS/Source/tasks.c",line 947,column 2,is_stmt
    1722 000588       $C$L39:    
    1723 000588 4E05          AADD #5, SP
    1724                      .dwcfi  cfa_offset, 1
    1725              $C$DW$153       .dwtag  DW_TAG_TI_branch
    1726                      .dwattr $C$DW$153, DW_AT_low_pc(0x00)
    1727                      .dwattr $C$DW$153, DW_AT_TI_return
    1728 00058a 4804          RET
    1729                                                      ; return occurs
    1730                      .dwattr $C$DW$145, DW_AT_TI_end_file("../FreeRTOS/Source/tasks.c")
    1731                      .dwattr $C$DW$145, DW_AT_TI_end_line(0x3b3)
    1732                      .dwattr $C$DW$145, DW_AT_TI_end_column(0x02)
    1733                      .dwendentry
    1734                      .dwendtag $C$DW$145
    1735              
    1736 00058c               .sect   ".text"
    1737                      .align 4
    1738                      .global _xTaskIsTaskSuspended
    1739              
    1740              $C$DW$154       .dwtag  DW_TAG_subprogram, DW_AT_name("xTaskIsTaskSuspended")
    1741                      .dwattr $C$DW$154, DW_AT_low_pc(_xTaskIsTaskSuspended)
    1742                      .dwattr $C$DW$154, DW_AT_high_pc(0x00)
    1743                      .dwattr $C$DW$154, DW_AT_TI_symbol_name("_xTaskIsTaskSuspended")
    1744                      .dwattr $C$DW$154, DW_AT_external
    1745                      .dwattr $C$DW$154, DW_AT_type(*$C$DW$T$10)
    1746                      .dwattr $C$DW$154, DW_AT_TI_begin_file("../FreeRTOS/Source/tasks.c")
    1747                      .dwattr $C$DW$154, DW_AT_TI_begin_line(0x3ba)
    1748                      .dwattr $C$DW$154, DW_AT_TI_begin_column(0x17)
    1749                      .dwattr $C$DW$154, DW_AT_TI_max_frame_size(0x08)
    1750                      .dwpsn  file "../FreeRTOS/Source/tasks.c",line 955,column 2,is_stmt,address _xTaskIsTaskSuspended
    1751              
    1752                      .dwfde $C$DW$CIE, _xTaskIsTaskSuspended
    1753              $C$DW$155       .dwtag  DW_TAG_formal_parameter, DW_AT_name("xTask")
    1754                      .dwattr $C$DW$155, DW_AT_TI_symbol_name("_xTask")
    1755                      .dwattr $C$DW$155, DW_AT_type(*$C$DW$T$45)
    1756                      .dwattr $C$DW$155, DW_AT_location[DW_OP_reg17]
    1757              ;*******************************************************************************
    1758              ;* FUNCTION NAME: xTaskIsTaskSuspended                                         *
    1759              ;*                                                                             *
    1760              ;*   Function Uses Regs : AC0,AC0,AC1,AC1,T0,AR0,XAR0,AR1,AR2,AR3,XAR3,SP,TC1, *
    1761              ;*                        M40,SATA,SATD,RDM,FRCT,SMUL                          *
    1762              ;*   Stack Frame        : Compact (No Frame Pointer, w/ debug)                 *
    1763              ;*   Total Frame Size   : 8 words                                              *
    1764              ;*                        (2 return address/alignment)                         *
    1765              ;*                        (6 local values)                                     *
    1766              ;*   Min System Stack   : 1 word                                               *
TMS320C55x Assembler PC v4.4.1 Fri Sep 07 02:27:27 2018

Tools Copyright (c) 1996-2012 Texas Instruments Incorporated
tasks.asm                                                            PAGE   40

    1767              ;*******************************************************************************
    1768 00058c       _xTaskIsTaskSuspended:
    1769                      .dwcfi  cfa_offset, 1
    1770                      .dwcfi  save_reg_to_mem, 91, -1
    1771 00058c 4EF9          AADD #-7, SP
    1772                      .dwcfi  cfa_offset, 8
    1773              $C$DW$156       .dwtag  DW_TAG_variable, DW_AT_name("xTask")
    1774                      .dwattr $C$DW$156, DW_AT_TI_symbol_name("_xTask")
    1775                      .dwattr $C$DW$156, DW_AT_type(*$C$DW$T$45)
    1776                      .dwattr $C$DW$156, DW_AT_location[DW_OP_bregx 0x24 0]
    1777              $C$DW$157       .dwtag  DW_TAG_variable, DW_AT_name("xReturn")
    1778                      .dwattr $C$DW$157, DW_AT_TI_symbol_name("_xReturn")
    1779                      .dwattr $C$DW$157, DW_AT_type(*$C$DW$T$10)
    1780                      .dwattr $C$DW$157, DW_AT_location[DW_OP_bregx 0x24 2]
    1781              $C$DW$158       .dwtag  DW_TAG_variable, DW_AT_name("pxTCB")
    1782                      .dwattr $C$DW$158, DW_AT_TI_symbol_name("_pxTCB")
    1783                      .dwattr $C$DW$158, DW_AT_type(*$C$DW$T$129)
    1784                      .dwattr $C$DW$158, DW_AT_location[DW_OP_bregx 0x24 4]
    1785 00058e EB00          MOV XAR0, dbl(*SP(#0))
         000590 85   
    1786                      .dwpsn  file "../FreeRTOS/Source/tasks.c",line 956,column 16,is_stmt
    1787 000591 E604          MOV #0, *SP(#2) ; |956| 
         000593 00   
    1788                      .dwpsn  file "../FreeRTOS/Source/tasks.c",line 957,column 23,is_stmt
    1789 000594 ED00          MOV dbl(*SP(#0)), XAR3
         000596 BF   
    1790 000597 EB08          MOV XAR3, dbl(*SP(#4))
         000599 B5   
    1791                      .dwpsn  file "../FreeRTOS/Source/tasks.c",line 961,column 3,is_stmt
    1792 00059a EC31          AMOV #_xSuspendedTaskList, XAR3 ; |961| 
         00059c BE00 
         00059e 005C-
    1793 0005a0 90B0          MOV XAR3, AC0
    1794 0005a2 ED08          MOV dbl(*SP(#4)), XAR3
         0005a4 BF   
    1795 0005a5 ED6D          MOV dbl(*AR3(#12)), XAR3
         0005a7 BF00 
         0005a9 0C   
    1796 0005aa 90B1          MOV XAR3, AC1
    1797 0005ac 121C          CMPU AC1 != AC0, TC1 ; |961| 
         0005ae 04   
    1798              
    1799 0005af 6164          BCC $C$L40,TC1 ; |961| 
    1800 0005b1 3D09  ||      MOV #0, AR1
    1801              
    1802                                                      ; branchcc occurs ; |961| 
    1803 0005b3 3C19          MOV #1, AR1
    1804 0005b5       $C$L40:    
    1805 0005b5 0409          BCC $C$L43,AR1 == #0 ; |961| 
         0005b7 3B   
    1806                                                      ; branchcc occurs ; |961| 
    1807                      .dwpsn  file "../FreeRTOS/Source/tasks.c",line 964,column 4,is_stmt
    1808 0005b8 EC31          AMOV #_xPendingReadyList, XAR3 ; |964| 
         0005ba BE00 
         0005bc 0046-
TMS320C55x Assembler PC v4.4.1 Fri Sep 07 02:27:27 2018

Tools Copyright (c) 1996-2012 Texas Instruments Incorporated
tasks.asm                                                            PAGE   41

    1809 0005be 90B0          MOV XAR3, AC0
    1810 0005c0 ED08          MOV dbl(*SP(#4)), XAR3
         0005c2 BF   
    1811 0005c3 ED6D          MOV dbl(*AR3(#22)), XAR3
         0005c5 BF00 
         0005c7 16   
    1812 0005c8 90B1          MOV XAR3, AC1
    1813 0005ca 121C          CMPU AC1 != AC0, TC1 ; |964| 
         0005cc 04   
    1814              
    1815 0005cd 6164          BCC $C$L41,TC1 ; |964| 
    1816 0005cf 3D09  ||      MOV #0, AR1
    1817              
    1818                                                      ; branchcc occurs ; |964| 
    1819 0005d1 3C19          MOV #1, AR1
    1820 0005d3       $C$L41:    
    1821 0005d3 3C1A          MOV #1, AR2
    1822 0005d5 1290          CMP AR1 == AR2, TC1 ; |964| 
         0005d7 A0   
    1823 0005d8 0464          BCC $C$L43,TC1 ; |964| 
         0005da 18   
    1824                                                      ; branchcc occurs ; |964| 
    1825                      .dwpsn  file "../FreeRTOS/Source/tasks.c",line 970,column 5,is_stmt
    1826 0005db ED08          MOV dbl(*SP(#4)), XAR3
         0005dd BF   
    1827 0005de ED6D          MOV dbl(*AR3(#22)), XAR3
         0005e0 BF00 
         0005e2 16   
    1828 0005e3 90B0          MOV XAR3, AC0
    1829              
    1830 0005e5 6110          BCC $C$L42,AC0 != #0 ; |970| 
    1831 0005e7 3D09  ||      MOV #0, AR1
    1832              
    1833                                                      ; branchcc occurs ; |970| 
    1834 0005e9 3C19          MOV #1, AR1
    1835 0005eb       $C$L42:    
    1836 0005eb 129C          CMP AR1 != AR2, TC1 ; |970| 
         0005ed A0   
    1837 0005ee 61E4          BCC $C$L43,TC1 ; |970| 
    1838                                                      ; branchcc occurs ; |970| 
    1839                      .dwpsn  file "../FreeRTOS/Source/tasks.c",line 972,column 6,is_stmt
    1840 0005f0 E604          MOV #1, *SP(#2) ; |972| 
         0005f2 01   
    1841 0005f3       $C$L43:    
    1842                      .dwpsn  file "../FreeRTOS/Source/tasks.c",line 977,column 3,is_stmt
    1843 0005f3 A404          MOV *SP(#2), T0 ; |977| 
    1844                      .dwpsn  file "../FreeRTOS/Source/tasks.c",line 978,column 2,is_stmt
    1845 0005f5 4E07          AADD #7, SP
    1846                      .dwcfi  cfa_offset, 1
    1847              $C$DW$159       .dwtag  DW_TAG_TI_branch
    1848                      .dwattr $C$DW$159, DW_AT_low_pc(0x00)
    1849                      .dwattr $C$DW$159, DW_AT_TI_return
    1850 0005f7 4804          RET
    1851                                                      ; return occurs
    1852                      .dwattr $C$DW$154, DW_AT_TI_end_file("../FreeRTOS/Source/tasks.c")
TMS320C55x Assembler PC v4.4.1 Fri Sep 07 02:27:27 2018

Tools Copyright (c) 1996-2012 Texas Instruments Incorporated
tasks.asm                                                            PAGE   42

    1853                      .dwattr $C$DW$154, DW_AT_TI_end_line(0x3d2)
    1854                      .dwattr $C$DW$154, DW_AT_TI_end_column(0x02)
    1855                      .dwendentry
    1856                      .dwendtag $C$DW$154
    1857              
    1858 0005f9               .sect   ".text"
    1859                      .align 4
    1860                      .global _vTaskResume
    1861              
    1862              $C$DW$160       .dwtag  DW_TAG_subprogram, DW_AT_name("vTaskResume")
    1863                      .dwattr $C$DW$160, DW_AT_low_pc(_vTaskResume)
    1864                      .dwattr $C$DW$160, DW_AT_high_pc(0x00)
    1865                      .dwattr $C$DW$160, DW_AT_TI_symbol_name("_vTaskResume")
    1866                      .dwattr $C$DW$160, DW_AT_external
    1867                      .dwattr $C$DW$160, DW_AT_TI_begin_file("../FreeRTOS/Source/tasks.c")
    1868                      .dwattr $C$DW$160, DW_AT_TI_begin_line(0x3d9)
    1869                      .dwattr $C$DW$160, DW_AT_TI_begin_column(0x07)
    1870                      .dwattr $C$DW$160, DW_AT_TI_max_frame_size(0x06)
    1871                      .dwpsn  file "../FreeRTOS/Source/tasks.c",line 986,column 2,is_stmt,address _vTaskResume
    1872              
    1873                      .dwfde $C$DW$CIE, _vTaskResume
    1874              $C$DW$161       .dwtag  DW_TAG_formal_parameter, DW_AT_name("pxTaskToResume")
    1875                      .dwattr $C$DW$161, DW_AT_TI_symbol_name("_pxTaskToResume")
    1876                      .dwattr $C$DW$161, DW_AT_type(*$C$DW$T$45)
    1877                      .dwattr $C$DW$161, DW_AT_location[DW_OP_reg17]
    1878              ;*******************************************************************************
    1879              ;* FUNCTION NAME: vTaskResume                                                  *
    1880              ;*                                                                             *
    1881              ;*   Function Uses Regs : AC0,AC0,AC1,AC1,T0,AR0,XAR0,AR1,XAR1,AR2,AR3,XAR3,SP,*
    1882              ;*                        CARRY,TC1,M40,SATA,SATD,RDM,FRCT,SMUL                *
    1883              ;*   Stack Frame        : Compact (No Frame Pointer, w/ debug)                 *
    1884              ;*   Total Frame Size   : 6 words                                              *
    1885              ;*                        (2 return address/alignment)                         *
    1886              ;*                        (4 local values)                                     *
    1887              ;*   Min System Stack   : 1 word                                               *
    1888              ;*******************************************************************************
    1889 0005fc       _vTaskResume:
    1890                      .dwcfi  cfa_offset, 1
    1891                      .dwcfi  save_reg_to_mem, 91, -1
    1892 0005fc 4EFB          AADD #-5, SP
    1893                      .dwcfi  cfa_offset, 6
    1894              $C$DW$162       .dwtag  DW_TAG_variable, DW_AT_name("pxTaskToResume")
    1895                      .dwattr $C$DW$162, DW_AT_TI_symbol_name("_pxTaskToResume")
    1896                      .dwattr $C$DW$162, DW_AT_type(*$C$DW$T$45)
    1897                      .dwattr $C$DW$162, DW_AT_location[DW_OP_bregx 0x24 0]
    1898              $C$DW$163       .dwtag  DW_TAG_variable, DW_AT_name("pxTCB")
    1899                      .dwattr $C$DW$163, DW_AT_TI_symbol_name("_pxTCB")
    1900                      .dwattr $C$DW$163, DW_AT_type(*$C$DW$T$79)
    1901                      .dwattr $C$DW$163, DW_AT_location[DW_OP_bregx 0x24 2]
    1902 0005fe EB00          MOV XAR0, dbl(*SP(#0))
         000600 85   
    1903                      .dwpsn  file "../FreeRTOS/Source/tasks.c",line 991,column 3,is_stmt
    1904 000601 ED00          MOV dbl(*SP(#0)), XAR3
         000603 BF   
    1905 000604 EB04          MOV XAR3, dbl(*SP(#2))
TMS320C55x Assembler PC v4.4.1 Fri Sep 07 02:27:27 2018

Tools Copyright (c) 1996-2012 Texas Instruments Incorporated
tasks.asm                                                            PAGE   43

         000606 B5   
    1906                      .dwpsn  file "../FreeRTOS/Source/tasks.c",line 995,column 3,is_stmt
    1907 000607 90B0          MOV XAR3, AC0
    1908 000609 6D00          BCC $C$L46,AC0 == #0 ; |995| 
         00060b 009E 
    1909                                                      ; branchcc occurs ; |995| 
    1910 00060d ED31          MOV dbl(*(#_pxCurrentTCB)), XAR3
         00060f BF00 
         000611 0004-
    1911 000613 90B0          MOV XAR3, AC0
    1912 000615 ED04          MOV dbl(*SP(#2)), XAR3
         000617 BF   
    1913 000618 90B1          MOV XAR3, AC1
    1914 00061a 1210          CMPU AC1 == AC0, TC1 ; |995| 
         00061c 04   
    1915 00061d 6D64          BCC $C$L46,TC1 ; |995| 
         00061f 008A 
    1916                                                      ; branchcc occurs ; |995| 
    1917                      .dwpsn  file "../FreeRTOS/Source/tasks.c",line 997,column 4,is_stmt
    1918 000621 20     nop
    1919 000622 46B3   bset INTM
    1920 000624 F731          ADD #1, *(#_usCriticalNesting) ; |997| 
         000626 0001 
         000628 0000 
         00062a 00!  
    1921                      .dwpsn  file "../FreeRTOS/Source/tasks.c",line 999,column 5,is_stmt
    1922              $C$DW$164       .dwtag  DW_TAG_TI_branch
    1923                      .dwattr $C$DW$164, DW_AT_low_pc(0x00)
    1924                      .dwattr $C$DW$164, DW_AT_name("_xTaskIsTaskSuspended")
    1925                      .dwattr $C$DW$164, DW_AT_TI_call
    1926 00062b 08FF          CALL #_xTaskIsTaskSuspended ; |999| 
         00062d 5E   
    1927                                                      ; call occurs [#_xTaskIsTaskSuspended] ; |999| 
    1928 00062e 3C19          MOV #1, AR1
    1929 000630 124C          CMP T0 != AR1, TC1 ; |999| 
         000632 90   
    1930 000633 0464          BCC $C$L45,TC1 ; |999| 
         000635 59   
    1931                                                      ; branchcc occurs ; |999| 
    1932                      .dwpsn  file "../FreeRTOS/Source/tasks.c",line 1005,column 6,is_stmt
    1933 000636 ED04          MOV dbl(*SP(#2)), XAR0
         000638 8F   
    1934 000639 1404          AADD #4, AR0 ; |1005| 
         00063b 84   
    1935              $C$DW$165       .dwtag  DW_TAG_TI_branch
    1936                      .dwattr $C$DW$165, DW_AT_low_pc(0x00)
    1937                      .dwattr $C$DW$165, DW_AT_name("_vListRemove")
    1938                      .dwattr $C$DW$165, DW_AT_TI_call
    1939 00063c 6C00          CALL #_vListRemove ; |1005| 
         00063e 0000!
    1940                                                      ; call occurs [#_vListRemove] ; |1005| 
    1941                      .dwpsn  file "../FreeRTOS/Source/tasks.c",line 1006,column 6,is_stmt
    1942 000640 ED04          MOV dbl(*SP(#2)), XAR3
         000642 BF   
    1943 000643 A931          MOV *(#_uxTopReadyPriority), AR1 ; |1006| 
TMS320C55x Assembler PC v4.4.1 Fri Sep 07 02:27:27 2018

Tools Copyright (c) 1996-2012 Texas Instruments Incorporated
tasks.asm                                                            PAGE   44

         000645 0000 
         000647 68-  
    1944 000648 AA6D          MOV *AR3(#24), AR2 ; |1006| 
         00064a 0018 
    1945 00064c 1298          CMPU AR2 <= AR1, TC1 ; |1006| 
         00064e A4   
    1946 00064f 64E4          BCC $C$L44,TC1 ; |1006| 
    1947                                                      ; branchcc occurs ; |1006| 
    1948 000651 A96D          MOV *AR3(#24), AR1 ; |1006| 
         000653 0018 
    1949 000655 C931          MOV AR1, *(#_uxTopReadyPriority) ; |1006| 
         000657 0000 
         000659 68-  
    1950 00065a       $C$L44:    
    1951 00065a F86D          MPYMK *AR3(#24), #10, AC0 ; |1006| 
         00065c 0A00 
         00065e 0018 
    1952 000660 2209          MOV AC0, AR1 ; |1006| 
    1953 000662 EC31          AMOV #_pxReadyTasksLists, XAR0 ; |1006| 
         000664 8E00 
         000666 0006-
    1954 000668 1490          AADD AR1, AR0 ; |1006| 
         00066a 80   
    1955 00066b ED04          MOV dbl(*SP(#2)), XAR1
         00066d 9F   
    1956 00066e 1404          AADD #4, AR1 ; |1006| 
         000670 94   
    1957              $C$DW$166       .dwtag  DW_TAG_TI_branch
    1958                      .dwattr $C$DW$166, DW_AT_low_pc(0x00)
    1959                      .dwattr $C$DW$166, DW_AT_name("_vListInsertEnd")
    1960                      .dwattr $C$DW$166, DW_AT_TI_call
    1961 000671 6C00          CALL #_vListInsertEnd ; |1006| 
         000673 0000!
    1962                                                      ; call occurs [#_vListInsertEnd] ; |1006| 
    1963                      .dwpsn  file "../FreeRTOS/Source/tasks.c",line 1009,column 6,is_stmt
    1964 000675 ED31          MOV dbl(*(#_pxCurrentTCB)), XAR3
         000677 BF00 
         000679 0004-
    1965 00067b A96D          MOV *AR3(#24), AR1 ; |1009| 
         00067d 0018 
    1966 00067f ED04          MOV dbl(*SP(#2)), XAR3
         000681 BF   
    1967 000682 AA6D          MOV *AR3(#24), AR2 ; |1009| 
         000684 0018 
    1968 000686 12A4          CMPU AR2 < AR1, TC1 ; |1009| 
         000688 94   
    1969 000689 6264          BCC $C$L45,TC1 ; |1009| 
    1970                                                      ; branchcc occurs ; |1009| 
    1971                      .dwpsn  file "../FreeRTOS/Source/tasks.c",line 1013,column 7,is_stmt
    1972              $C$DW$167       .dwtag  DW_TAG_TI_branch
    1973                      .dwattr $C$DW$167, DW_AT_low_pc(0x00)
    1974                      .dwattr $C$DW$167, DW_AT_name("_vPortYield")
    1975                      .dwattr $C$DW$167, DW_AT_TI_call
    1976 00068b 6C00          CALL #_vPortYield ; |1013| 
         00068d 0000!
TMS320C55x Assembler PC v4.4.1 Fri Sep 07 02:27:27 2018

Tools Copyright (c) 1996-2012 Texas Instruments Incorporated
tasks.asm                                                            PAGE   45

    1977                                                      ; call occurs [#_vPortYield] ; |1013| 
    1978 00068f       $C$L45:    
    1979                      .dwpsn  file "../FreeRTOS/Source/tasks.c",line 1017,column 4,is_stmt
    1980 00068f A931          MOV *(#_usCriticalNesting), AR1 ; |1017| 
         000691 0000 
         000693 00!  
    1981 000694 0409          BCC $C$L46,AR1 == #0 ; |1017| 
         000696 14   
    1982                                                      ; branchcc occurs ; |1017| 
    1983 000697 F731          SUB #1, *(#_usCriticalNesting) ; |1017| 
         000699 FFFF 
         00069b 0000 
         00069d 00!  
    1984 00069e 20            NOP
    1985 00069f 20            NOP
    1986 0006a0 20            NOP
    1987 0006a1 A931          MOV *(#_usCriticalNesting), AR1 ; |1017| 
         0006a3 0000 
         0006a5 00!  
    1988 0006a6 6199          BCC $C$L46,AR1 != #0 ; |1017| 
    1989                                                      ; branchcc occurs ; |1017| 
    1990 0006a8 20     nop
    1991 0006a9 46B2   bclr INTM
    1992                      .dwpsn  file "../FreeRTOS/Source/tasks.c",line 1019,column 2,is_stmt
    1993 0006ab       $C$L46:    
    1994 0006ab 4E05          AADD #5, SP
    1995                      .dwcfi  cfa_offset, 1
    1996              $C$DW$168       .dwtag  DW_TAG_TI_branch
    1997                      .dwattr $C$DW$168, DW_AT_low_pc(0x00)
    1998                      .dwattr $C$DW$168, DW_AT_TI_return
    1999 0006ad 4804          RET
    2000                                                      ; return occurs
    2001                      .dwattr $C$DW$160, DW_AT_TI_end_file("../FreeRTOS/Source/tasks.c")
    2002                      .dwattr $C$DW$160, DW_AT_TI_end_line(0x3fb)
    2003                      .dwattr $C$DW$160, DW_AT_TI_end_column(0x02)
    2004                      .dwendentry
    2005                      .dwendtag $C$DW$160
    2006              
    2007 0006af               .sect   ".text"
    2008                      .align 4
    2009                      .global _xTaskResumeFromISR
    2010              
    2011              $C$DW$169       .dwtag  DW_TAG_subprogram, DW_AT_name("xTaskResumeFromISR")
    2012                      .dwattr $C$DW$169, DW_AT_low_pc(_xTaskResumeFromISR)
    2013                      .dwattr $C$DW$169, DW_AT_high_pc(0x00)
    2014                      .dwattr $C$DW$169, DW_AT_TI_symbol_name("_xTaskResumeFromISR")
    2015                      .dwattr $C$DW$169, DW_AT_external
    2016                      .dwattr $C$DW$169, DW_AT_type(*$C$DW$T$10)
    2017                      .dwattr $C$DW$169, DW_AT_TI_begin_file("../FreeRTOS/Source/tasks.c")
    2018                      .dwattr $C$DW$169, DW_AT_TI_begin_line(0x403)
    2019                      .dwattr $C$DW$169, DW_AT_TI_begin_column(0x10)
    2020                      .dwattr $C$DW$169, DW_AT_TI_max_frame_size(0x08)
    2021                      .dwpsn  file "../FreeRTOS/Source/tasks.c",line 1028,column 2,is_stmt,address _xTaskResumeFromISR
    2022              
    2023                      .dwfde $C$DW$CIE, _xTaskResumeFromISR
TMS320C55x Assembler PC v4.4.1 Fri Sep 07 02:27:27 2018

Tools Copyright (c) 1996-2012 Texas Instruments Incorporated
tasks.asm                                                            PAGE   46

    2024              $C$DW$170       .dwtag  DW_TAG_formal_parameter, DW_AT_name("pxTaskToResume")
    2025                      .dwattr $C$DW$170, DW_AT_TI_symbol_name("_pxTaskToResume")
    2026                      .dwattr $C$DW$170, DW_AT_type(*$C$DW$T$45)
    2027                      .dwattr $C$DW$170, DW_AT_location[DW_OP_reg17]
    2028              ;*******************************************************************************
    2029              ;* FUNCTION NAME: xTaskResumeFromISR                                           *
    2030              ;*                                                                             *
    2031              ;*   Function Uses Regs : AC0,T0,AR0,XAR0,AR1,XAR1,AR2,AR3,XAR3,AR4,SP,TC1,M40,*
    2032              ;*                        SATA,SATD,RDM,FRCT,SMUL                              *
    2033              ;*   Stack Frame        : Compact (No Frame Pointer, w/ debug)                 *
    2034              ;*   Total Frame Size   : 8 words                                              *
    2035              ;*                        (2 return address/alignment)                         *
    2036              ;*                        (6 local values)                                     *
    2037              ;*   Min System Stack   : 1 word                                               *
    2038              ;*******************************************************************************
    2039 0006b0       _xTaskResumeFromISR:
    2040                      .dwcfi  cfa_offset, 1
    2041                      .dwcfi  save_reg_to_mem, 91, -1
    2042 0006b0 4EF9          AADD #-7, SP
    2043                      .dwcfi  cfa_offset, 8
    2044              $C$DW$171       .dwtag  DW_TAG_variable, DW_AT_name("pxTaskToResume")
    2045                      .dwattr $C$DW$171, DW_AT_TI_symbol_name("_pxTaskToResume")
    2046                      .dwattr $C$DW$171, DW_AT_type(*$C$DW$T$45)
    2047                      .dwattr $C$DW$171, DW_AT_location[DW_OP_bregx 0x24 0]
    2048              $C$DW$172       .dwtag  DW_TAG_variable, DW_AT_name("xYieldRequired")
    2049                      .dwattr $C$DW$172, DW_AT_TI_symbol_name("_xYieldRequired")
    2050                      .dwattr $C$DW$172, DW_AT_type(*$C$DW$T$10)
    2051                      .dwattr $C$DW$172, DW_AT_location[DW_OP_bregx 0x24 2]
    2052              $C$DW$173       .dwtag  DW_TAG_variable, DW_AT_name("pxTCB")
    2053                      .dwattr $C$DW$173, DW_AT_TI_symbol_name("_pxTCB")
    2054                      .dwattr $C$DW$173, DW_AT_type(*$C$DW$T$79)
    2055                      .dwattr $C$DW$173, DW_AT_location[DW_OP_bregx 0x24 4]
    2056 0006b2 EB00          MOV XAR0, dbl(*SP(#0))
         0006b4 85   
    2057                      .dwpsn  file "../FreeRTOS/Source/tasks.c",line 1029,column 16,is_stmt
    2058 0006b5 E604          MOV #0, *SP(#2) ; |1029| 
         0006b7 00   
    2059                      .dwpsn  file "../FreeRTOS/Source/tasks.c",line 1032,column 3,is_stmt
    2060 0006b8 ED00          MOV dbl(*SP(#0)), XAR3
         0006ba BF   
    2061 0006bb EB08          MOV XAR3, dbl(*SP(#4))
         0006bd B5   
    2062                      .dwpsn  file "../FreeRTOS/Source/tasks.c",line 1034,column 3,is_stmt
    2063 0006be ED08          MOV dbl(*SP(#4)), XAR0
         0006c0 8F   
    2064              $C$DW$174       .dwtag  DW_TAG_TI_branch
    2065                      .dwattr $C$DW$174, DW_AT_low_pc(0x00)
    2066                      .dwattr $C$DW$174, DW_AT_name("_xTaskIsTaskSuspended")
    2067                      .dwattr $C$DW$174, DW_AT_TI_call
    2068 0006c1 08FE          CALL #_xTaskIsTaskSuspended ; |1034| 
         0006c3 C8   
    2069                                                      ; call occurs [#_xTaskIsTaskSuspended] ; |1034| 
    2070 0006c4 3C19          MOV #1, AR1
    2071 0006c6 124C          CMP T0 != AR1, TC1 ; |1034| 
         0006c8 90   
TMS320C55x Assembler PC v4.4.1 Fri Sep 07 02:27:27 2018

Tools Copyright (c) 1996-2012 Texas Instruments Incorporated
tasks.asm                                                            PAGE   47

    2072 0006c9 0464          BCC $C$L50,TC1 ; |1034| 
         0006cb 75   
    2073                                                      ; branchcc occurs ; |1034| 
    2074                      .dwpsn  file "../FreeRTOS/Source/tasks.c",line 1038,column 4,is_stmt
    2075 0006cc A931          MOV *(#_uxSchedulerSuspended), AR1 ; |1038| 
         0006ce 0000 
         0006d0 6A-  
    2076 0006d1 0419          BCC $C$L49,AR1 != #0 ; |1038| 
         0006d3 5D   
    2077                                                      ; branchcc occurs ; |1038| 
    2078                      .dwpsn  file "../FreeRTOS/Source/tasks.c",line 1040,column 5,is_stmt
    2079 0006d4 ED31          MOV dbl(*(#_pxCurrentTCB)), XAR3
         0006d6 BF00 
         0006d8 0004-
    2080 0006da A96D          MOV *AR3(#24), AR1 ; |1040| 
         0006dc 0018 
    2081 0006de ED08          MOV dbl(*SP(#4)), XAR3
         0006e0 BF   
    2082 0006e1 AA6D          MOV *AR3(#24), AR2 ; |1040| 
         0006e3 0018 
    2083 0006e5 12A4          CMPU AR2 < AR1, TC1 ; |1040| 
         0006e7 94   
    2084              
    2085 0006e8 6164          BCC $C$L47,TC1 ; |1040| 
    2086 0006ea 3D0C  ||      MOV #0, AR4
    2087              
    2088                                                      ; branchcc occurs ; |1040| 
    2089 0006ec 3C1C          MOV #1, AR4
    2090 0006ee       $C$L47:    
    2091 0006ee CC04          MOV AR4, *SP(#2) ; |1040| 
    2092                      .dwpsn  file "../FreeRTOS/Source/tasks.c",line 1041,column 5,is_stmt
    2093 0006f0 ED08          MOV dbl(*SP(#4)), XAR0
         0006f2 8F   
    2094 0006f3 1404          AADD #4, AR0 ; |1041| 
         0006f5 84   
    2095              $C$DW$175       .dwtag  DW_TAG_TI_branch
    2096                      .dwattr $C$DW$175, DW_AT_low_pc(0x00)
    2097                      .dwattr $C$DW$175, DW_AT_name("_vListRemove")
    2098                      .dwattr $C$DW$175, DW_AT_TI_call
    2099 0006f6 6C00          CALL #_vListRemove ; |1041| 
         0006f8 0000!
    2100                                                      ; call occurs [#_vListRemove] ; |1041| 
    2101                      .dwpsn  file "../FreeRTOS/Source/tasks.c",line 1042,column 5,is_stmt
    2102 0006fa ED08          MOV dbl(*SP(#4)), XAR3
         0006fc BF   
    2103 0006fd A931          MOV *(#_uxTopReadyPriority), AR1 ; |1042| 
         0006ff 0000 
         000701 68-  
    2104 000702 AA6D          MOV *AR3(#24), AR2 ; |1042| 
         000704 0018 
    2105 000706 1298          CMPU AR2 <= AR1, TC1 ; |1042| 
         000708 A4   
    2106 000709 64E4          BCC $C$L48,TC1 ; |1042| 
    2107                                                      ; branchcc occurs ; |1042| 
    2108 00070b A96D          MOV *AR3(#24), AR1 ; |1042| 
TMS320C55x Assembler PC v4.4.1 Fri Sep 07 02:27:27 2018

Tools Copyright (c) 1996-2012 Texas Instruments Incorporated
tasks.asm                                                            PAGE   48

         00070d 0018 
    2109 00070f C931          MOV AR1, *(#_uxTopReadyPriority) ; |1042| 
         000711 0000 
         000713 68-  
    2110 000714       $C$L48:    
    2111 000714 F86D          MPYMK *AR3(#24), #10, AC0 ; |1042| 
         000716 0A00 
         000718 0018 
    2112 00071a 2209          MOV AC0, AR1 ; |1042| 
    2113 00071c EC31          AMOV #_pxReadyTasksLists, XAR0 ; |1042| 
         00071e 8E00 
         000720 0006-
    2114 000722 1490          AADD AR1, AR0 ; |1042| 
         000724 80   
    2115 000725 ED08          MOV dbl(*SP(#4)), XAR1
         000727 9F   
    2116 000728 1404          AADD #4, AR1 ; |1042| 
         00072a 94   
    2117              $C$DW$176       .dwtag  DW_TAG_TI_branch
    2118                      .dwattr $C$DW$176, DW_AT_low_pc(0x00)
    2119                      .dwattr $C$DW$176, DW_AT_name("_vListInsertEnd")
    2120                      .dwattr $C$DW$176, DW_AT_TI_call
    2121 00072b 6C00          CALL #_vListInsertEnd ; |1042| 
         00072d 0000!
    2122                                                      ; call occurs [#_vListInsertEnd] ; |1042| 
    2123                      .dwpsn  file "../FreeRTOS/Source/tasks.c",line 1043,column 4,is_stmt
    2124 00072f 4A10          B $C$L50  ; |1043| 
    2125                                                      ; branch occurs ; |1043| 
    2126 000731       $C$L49:    
    2127                      .dwpsn  file "../FreeRTOS/Source/tasks.c",line 1049,column 5,is_stmt
    2128 000731 ED08          MOV dbl(*SP(#4)), XAR1
         000733 9F   
    2129 000734 EC31          AMOV #_xPendingReadyList, XAR0 ; |1049| 
         000736 8E00 
         000738 0046-
    2130 00073a 140E          AADD #14, AR1 ; |1049| 
         00073c 94   
    2131              $C$DW$177       .dwtag  DW_TAG_TI_branch
    2132                      .dwattr $C$DW$177, DW_AT_low_pc(0x00)
    2133                      .dwattr $C$DW$177, DW_AT_name("_vListInsertEnd")
    2134                      .dwattr $C$DW$177, DW_AT_TI_call
    2135 00073d 6C00          CALL #_vListInsertEnd ; |1049| 
         00073f 0000!
    2136                                                      ; call occurs [#_vListInsertEnd] ; |1049| 
    2137 000741       $C$L50:    
    2138                      .dwpsn  file "../FreeRTOS/Source/tasks.c",line 1053,column 3,is_stmt
    2139 000741 A404          MOV *SP(#2), T0 ; |1053| 
    2140                      .dwpsn  file "../FreeRTOS/Source/tasks.c",line 1054,column 2,is_stmt
    2141 000743 4E07          AADD #7, SP
    2142                      .dwcfi  cfa_offset, 1
    2143              $C$DW$178       .dwtag  DW_TAG_TI_branch
    2144                      .dwattr $C$DW$178, DW_AT_low_pc(0x00)
    2145                      .dwattr $C$DW$178, DW_AT_TI_return
    2146 000745 4804          RET
    2147                                                      ; return occurs
TMS320C55x Assembler PC v4.4.1 Fri Sep 07 02:27:27 2018

Tools Copyright (c) 1996-2012 Texas Instruments Incorporated
tasks.asm                                                            PAGE   49

    2148                      .dwattr $C$DW$169, DW_AT_TI_end_file("../FreeRTOS/Source/tasks.c")
    2149                      .dwattr $C$DW$169, DW_AT_TI_end_line(0x41e)
    2150                      .dwattr $C$DW$169, DW_AT_TI_end_column(0x02)
    2151                      .dwendentry
    2152                      .dwendtag $C$DW$169
    2153              
    2154 000747               .sect   ".text"
    2155                      .align 4
    2156                      .global _vTaskStartScheduler
    2157              
    2158              $C$DW$179       .dwtag  DW_TAG_subprogram, DW_AT_name("vTaskStartScheduler")
    2159                      .dwattr $C$DW$179, DW_AT_low_pc(_vTaskStartScheduler)
    2160                      .dwattr $C$DW$179, DW_AT_high_pc(0x00)
    2161                      .dwattr $C$DW$179, DW_AT_TI_symbol_name("_vTaskStartScheduler")
    2162                      .dwattr $C$DW$179, DW_AT_external
    2163                      .dwattr $C$DW$179, DW_AT_TI_begin_file("../FreeRTOS/Source/tasks.c")
    2164                      .dwattr $C$DW$179, DW_AT_TI_begin_line(0x42a)
    2165                      .dwattr $C$DW$179, DW_AT_TI_begin_column(0x06)
    2166                      .dwattr $C$DW$179, DW_AT_TI_max_frame_size(0x06)
    2167                      .dwpsn  file "../FreeRTOS/Source/tasks.c",line 1067,column 1,is_stmt,address _vTaskStartScheduler
    2168              
    2169                      .dwfde $C$DW$CIE, _vTaskStartScheduler
    2170              ;*******************************************************************************
    2171              ;* FUNCTION NAME: vTaskStartScheduler                                          *
    2172              ;*                                                                             *
    2173              ;*   Function Uses Regs : AC0,AC0,AC1,AC1,T0,T1,AR0,XAR0,AR1,XAR1,AR2,XAR2,AR3,*
    2174              ;*                        XAR3,AR4,XAR4,SP,CARRY,TC1,M40,SATA,SATD,RDM,FRCT,   *
    2175              ;*                        SMUL                                                 *
    2176              ;*   Stack Frame        : Compact (No Frame Pointer, w/ debug)                 *
    2177              ;*   Total Frame Size   : 6 words                                              *
    2178              ;*                        (1 return address/alignment)                         *
    2179              ;*                        (5 local values)                                     *
    2180              ;*   Min System Stack   : 1 word                                               *
    2181              ;*******************************************************************************
    2182 000748       _vTaskStartScheduler:
    2183                      .dwcfi  cfa_offset, 1
    2184                      .dwcfi  save_reg_to_mem, 91, -1
    2185 000748 4EFB          AADD #-5, SP
    2186                      .dwcfi  cfa_offset, 6
    2187              $C$DW$180       .dwtag  DW_TAG_variable, DW_AT_name("xReturn")
    2188                      .dwattr $C$DW$180, DW_AT_TI_symbol_name("_xReturn")
    2189                      .dwattr $C$DW$180, DW_AT_type(*$C$DW$T$10)
    2190                      .dwattr $C$DW$180, DW_AT_location[DW_OP_bregx 0x24 0]
    2191              $C$DW$181       .dwtag  DW_TAG_variable, DW_AT_name("temp")
    2192                      .dwattr $C$DW$181, DW_AT_TI_symbol_name("_temp")
    2193                      .dwattr $C$DW$181, DW_AT_type(*$C$DW$T$10)
    2194                      .dwattr $C$DW$181, DW_AT_location[DW_OP_bregx 0x24 1]
    2195              $C$DW$182       .dwtag  DW_TAG_variable, DW_AT_name("i")
    2196                      .dwattr $C$DW$182, DW_AT_TI_symbol_name("_i")
    2197                      .dwattr $C$DW$182, DW_AT_type(*$C$DW$T$13)
    2198                      .dwattr $C$DW$182, DW_AT_location[DW_OP_bregx 0x24 2]
    2199              $C$DW$183       .dwtag  DW_TAG_variable, DW_AT_name("xfMask")
    2200                      .dwattr $C$DW$183, DW_AT_TI_symbol_name("_xfMask")
    2201                      .dwattr $C$DW$183, DW_AT_type(*$C$DW$T$10)
    2202                      .dwattr $C$DW$183, DW_AT_location[DW_OP_bregx 0x24 4]
TMS320C55x Assembler PC v4.4.1 Fri Sep 07 02:27:27 2018

Tools Copyright (c) 1996-2012 Texas Instruments Incorporated
tasks.asm                                                            PAGE   50

    2203                      .dwpsn  file "../FreeRTOS/Source/tasks.c",line 1069,column 11,is_stmt
    2204 00074a E602          MOV #0, *SP(#1) ; |1069| 
         00074c 00   
    2205                      .dwpsn  file "../FreeRTOS/Source/tasks.c",line 1070,column 15,is_stmt
    2206 00074d 3C00          MOV #0, AC0 ; |1070| 
    2207 00074f EB04          MOV AC0, dbl(*SP(#2)) ; |1070| 
         000751 08   
    2208                      .dwpsn  file "../FreeRTOS/Source/tasks.c",line 1071,column 11,is_stmt
    2209 000752 FB08          MOV #8192, *SP(#4) ; |1071| 
         000754 2000 
    2210                      .dwpsn  file "../FreeRTOS/Source/tasks.c",line 1074,column 2,is_stmt
    2211 000756 EC31          AMOV #0, XAR4 ; |1074| 
         000758 CE00 
         00075a 0000 
    2212 00075c EC31          AMOV #0, XAR3 ; |1074| 
         00075e BE00 
         000760 0000 
    2213 000762 EC31          AMOV #0, XAR2 ; |1074| 
         000764 AE00 
         000766 0000 
    2214 000768 EC31          AMOV #0, XAR1 ; |1074| 
         00076a 9E00 
         00076c 0000 
    2215 00076e EC31          AMOV #$C$FSL1, XAR0 ; |1074| 
         000770 8E00 
         000772 0000+
    2216 000774 7600          MOV #128, T0 ; |1074| 
         000776 8048 
    2217 000778 7A00          MOV #(_prvIdleTask >> 16) << #16, AC0 ; |1074| 
         00077a 000A%
    2218 00077c 7E00          OR #(_prvIdleTask & 0xffff), AC0, AC0 ; |1074| 
         00077e 0000%
    2219              $C$DW$184       .dwtag  DW_TAG_TI_branch
    2220                      .dwattr $C$DW$184, DW_AT_low_pc(0x00)
    2221                      .dwattr $C$DW$184, DW_AT_name("_xTaskGenericCreate")
    2222                      .dwattr $C$DW$184, DW_AT_TI_call
    2223              
    2224 000780 08F8          CALL #_xTaskGenericCreate ; |1074| 
         000782 7B   
    2225 000783 3D05  ||      MOV #0, T1
    2226              
    2227                                                      ; call occurs [#_xTaskGenericCreate] ; |1074| 
    2228 000785 C400          MOV T0, *SP(#0) ; |1074| 
    2229                      .dwpsn  file "../FreeRTOS/Source/tasks.c",line 1076,column 2,is_stmt
    2230 000787 F000          CMP *SP(#0) == #1, TC1 ; |1076| 
         000789 0001 
    2231 00078b 0474          BCC $C$L51,!TC1 ; |1076| 
         00078d 15   
    2232                                                      ; branchcc occurs ; |1076| 
    2233                      .dwpsn  file "../FreeRTOS/Source/tasks.c",line 1086,column 3,is_stmt
    2234 00078e 20     nop
    2235 00078f 46B3   bset INTM
    2236                      .dwpsn  file "../FreeRTOS/Source/tasks.c",line 1088,column 3,is_stmt
    2237 000791 E631          MOV #1, *(#_xSchedulerRunning) ; |1088| 
         000793 0100 
TMS320C55x Assembler PC v4.4.1 Fri Sep 07 02:27:27 2018

Tools Copyright (c) 1996-2012 Texas Instruments Incorporated
tasks.asm                                                            PAGE   51

         000795 0069-
    2238                      .dwpsn  file "../FreeRTOS/Source/tasks.c",line 1089,column 3,is_stmt
    2239 000797 E631          MOV #0, *(#_xTickCount) ; |1089| 
         000799 0000 
         00079b 0066-
    2240                      .dwpsn  file "../FreeRTOS/Source/tasks.c",line 1098,column 3,is_stmt
    2241              $C$DW$185       .dwtag  DW_TAG_TI_branch
    2242                      .dwattr $C$DW$185, DW_AT_low_pc(0x00)
    2243                      .dwattr $C$DW$185, DW_AT_name("_xPortStartScheduler")
    2244                      .dwattr $C$DW$185, DW_AT_TI_call
    2245 00079d 6C00          CALL #_xPortStartScheduler ; |1098| 
         00079f 0000!
    2246                                                      ; call occurs [#_xPortStartScheduler] ; |1098| 
    2247 0007a1 6014          BCC $C$L51,T0 != #0 ; |1098| 
    2248                                                      ; branchcc occurs ; |1098| 
    2249                      .dwpsn  file "../FreeRTOS/Source/tasks.c",line 1102,column 3,is_stmt
    2250 0007a3       $C$L51:    
    2251                      .dwpsn  file "../FreeRTOS/Source/tasks.c",line 1110,column 9,is_stmt
    2252 0007a3       $C$L52:    
    2253 0007a3       $C$DW$L$_vTaskStartScheduler$5$B:
    2254                      .dwpsn  file "../FreeRTOS/Source/tasks.c",line 1112,column 12,is_stmt
    2255 0007a3 3C00          MOV #0, AC0 ; |1112| 
    2256 0007a5 EB04          MOV AC0, dbl(*SP(#2)) ; |1112| 
         0007a7 08   
    2257                      .dwpsn  file "../FreeRTOS/Source/tasks.c",line 1112,column 19,is_stmt
    2258 0007a8 ED04          MOV dbl(*SP(#2)), AC1 ; |1112| 
         0007aa 18   
    2259 0007ab 760F          MOV #4095, AC0 ; |1112| 
         0007ad FF08 
    2260 0007af 1218          CMPU AC1 >= AC0, TC1 ; |1112| 
         0007b1 04   
    2261 0007b2 0464          BCC $C$L54,TC1 ; |1112| 
         0007b4 15   
    2262                                                      ; branchcc occurs ; |1112| 
    2263 0007b5       $C$DW$L$_vTaskStartScheduler$5$E:
    2264 0007b5       $C$L53:    
    2265 0007b5       $C$DW$L$_vTaskStartScheduler$6$B:
    2266                      .dwpsn  file "../FreeRTOS/Source/tasks.c",line 1112,column 30,is_stmt
    2267 0007b5 ED04          MOV dbl(*SP(#2)), AC0 ; |1112| 
         0007b7 08   
    2268 0007b8 4010          ADD #1, AC0 ; |1112| 
    2269 0007ba EB04          MOV AC0, dbl(*SP(#2)) ; |1112| 
         0007bc 08   
    2270                      .dwpsn  file "../FreeRTOS/Source/tasks.c",line 1112,column 19,is_stmt
    2271 0007bd ED04          MOV dbl(*SP(#2)), AC1 ; |1112| 
         0007bf 18   
    2272 0007c0 760F          MOV #4095, AC0 ; |1112| 
         0007c2 FF08 
    2273 0007c4 1214          CMPU AC1 < AC0, TC1 ; |1112| 
         0007c6 04   
    2274 0007c7 0464          BCC $C$L53,TC1 ; |1112| 
         0007c9 EB   
    2275                                                      ; branchcc occurs ; |1112| 
    2276 0007ca       $C$DW$L$_vTaskStartScheduler$6$E:
    2277 0007ca       $C$L54:    
TMS320C55x Assembler PC v4.4.1 Fri Sep 07 02:27:27 2018

Tools Copyright (c) 1996-2012 Texas Instruments Incorporated
tasks.asm                                                            PAGE   52

    2278 0007ca       $C$DW$L$_vTaskStartScheduler$7$B:
    2279                      .dwpsn  file "../FreeRTOS/Source/tasks.c",line 1113,column 6,is_stmt
    2280              $C$DW$186       .dwtag  DW_TAG_TI_branch
    2281                      .dwattr $C$DW$186, DW_AT_low_pc(0x00)
    2282                      .dwattr $C$DW$186, DW_AT_name("_EZDSP5535_LED_off")
    2283                      .dwattr $C$DW$186, DW_AT_TI_call
    2284              
    2285 0007ca 6C00          CALL #_EZDSP5535_LED_off ; |1113| 
         0007cc 0000!
    2286 0007ce 3D34  ||      MOV #3, T0
    2287              
    2288                                                      ; call occurs [#_EZDSP5535_LED_off] ; |1113| 
    2289                      .dwpsn  file "../FreeRTOS/Source/tasks.c",line 1117,column 12,is_stmt
    2290 0007d0 3C00          MOV #0, AC0 ; |1117| 
    2291 0007d2 EB04          MOV AC0, dbl(*SP(#2)) ; |1117| 
         0007d4 08   
    2292                      .dwpsn  file "../FreeRTOS/Source/tasks.c",line 1117,column 19,is_stmt
    2293              
    2294 0007d5 ED04          MOV dbl(*SP(#2)), AC1 ; |1117| 
         0007d7 18   
    2295 0007d8 3D00  ||      MOV #0, AC0 ; |1117| 
    2296              
    2297 0007da 7EFF          OR #0xffff, AC0, AC0 ; |1117| 
         0007dc FF00 
    2298 0007de 1218          CMPU AC1 >= AC0, TC1 ; |1117| 
         0007e0 04   
    2299 0007e1 0464          BCC $C$L56,TC1 ; |1117| 
         0007e3 17   
    2300                                                      ; branchcc occurs ; |1117| 
    2301 0007e4       $C$DW$L$_vTaskStartScheduler$7$E:
    2302 0007e4       $C$L55:    
    2303 0007e4       $C$DW$L$_vTaskStartScheduler$8$B:
    2304                      .dwpsn  file "../FreeRTOS/Source/tasks.c",line 1117,column 31,is_stmt
    2305 0007e4 ED04          MOV dbl(*SP(#2)), AC0 ; |1117| 
         0007e6 08   
    2306 0007e7 4010          ADD #1, AC0 ; |1117| 
    2307 0007e9 EB04          MOV AC0, dbl(*SP(#2)) ; |1117| 
         0007eb 08   
    2308                      .dwpsn  file "../FreeRTOS/Source/tasks.c",line 1117,column 19,is_stmt
    2309              
    2310 0007ef 3D00          MOV #0, AC0 ; |1117| 
    2311 0007ec ED04  ||      MOV dbl(*SP(#2)), AC1 ; |1117| 
         0007ee 18   
    2312              
    2313 0007f1 7EFF          OR #0xffff, AC0, AC0 ; |1117| 
         0007f3 FF00 
    2314 0007f5 1214          CMPU AC1 < AC0, TC1 ; |1117| 
         0007f7 04   
    2315 0007f8 0464          BCC $C$L55,TC1 ; |1117| 
         0007fa E9   
    2316                                                      ; branchcc occurs ; |1117| 
    2317 0007fb       $C$DW$L$_vTaskStartScheduler$8$E:
    2318 0007fb       $C$L56:    
    2319 0007fb       $C$DW$L$_vTaskStartScheduler$9$B:
    2320                      .dwpsn  file "../FreeRTOS/Source/tasks.c",line 1118,column 6,is_stmt
TMS320C55x Assembler PC v4.4.1 Fri Sep 07 02:27:27 2018

Tools Copyright (c) 1996-2012 Texas Instruments Incorporated
tasks.asm                                                            PAGE   53

    2321              $C$DW$187       .dwtag  DW_TAG_TI_branch
    2322                      .dwattr $C$DW$187, DW_AT_low_pc(0x00)
    2323                      .dwattr $C$DW$187, DW_AT_name("_EZDSP5535_LED_on")
    2324                      .dwattr $C$DW$187, DW_AT_TI_call
    2325              
    2326 0007fb 6C00          CALL #_EZDSP5535_LED_on ; |1118| 
         0007fd 0000!
    2327 0007ff 3D34  ||      MOV #3, T0
    2328              
    2329                                                      ; call occurs [#_EZDSP5535_LED_on] ; |1118| 
    2330                      .dwpsn  file "../FreeRTOS/Source/tasks.c",line 1110,column 9,is_stmt
    2331 000801 06FF          B $C$L52  ; |1110| 
         000803 9F   
    2332                                                      ; branch occurs ; |1110| 
    2333 000804       $C$DW$L$_vTaskStartScheduler$9$E:
    2334                      .dwcfi  cfa_offset, 1
    2335              
    2336              $C$DW$188       .dwtag  DW_TAG_TI_loop
    2337                      .dwattr $C$DW$188, DW_AT_name("F:\eZDSP_5535_Files\ccsws2\test\Debug\tasks.asm:$C$L52:1:1536312445")
    2338                      .dwattr $C$DW$188, DW_AT_TI_begin_file("../FreeRTOS/Source/tasks.c")
    2339                      .dwattr $C$DW$188, DW_AT_TI_begin_line(0x456)
    2340                      .dwattr $C$DW$188, DW_AT_TI_end_line(0x45f)
    2341              $C$DW$189       .dwtag  DW_TAG_TI_loop_range
    2342                      .dwattr $C$DW$189, DW_AT_low_pc($C$DW$L$_vTaskStartScheduler$5$B)
    2343                      .dwattr $C$DW$189, DW_AT_high_pc($C$DW$L$_vTaskStartScheduler$5$E)
    2344              $C$DW$190       .dwtag  DW_TAG_TI_loop_range
    2345                      .dwattr $C$DW$190, DW_AT_low_pc($C$DW$L$_vTaskStartScheduler$7$B)
    2346                      .dwattr $C$DW$190, DW_AT_high_pc($C$DW$L$_vTaskStartScheduler$7$E)
    2347              $C$DW$191       .dwtag  DW_TAG_TI_loop_range
    2348                      .dwattr $C$DW$191, DW_AT_low_pc($C$DW$L$_vTaskStartScheduler$9$B)
    2349                      .dwattr $C$DW$191, DW_AT_high_pc($C$DW$L$_vTaskStartScheduler$9$E)
    2350              
    2351              $C$DW$192       .dwtag  DW_TAG_TI_loop
    2352                      .dwattr $C$DW$192, DW_AT_name("F:\eZDSP_5535_Files\ccsws2\test\Debug\tasks.asm:$C$L53:2:1536312445")
    2353                      .dwattr $C$DW$192, DW_AT_TI_begin_file("../FreeRTOS/Source/tasks.c")
    2354                      .dwattr $C$DW$192, DW_AT_TI_begin_line(0x458)
    2355                      .dwattr $C$DW$192, DW_AT_TI_end_line(0x458)
    2356              $C$DW$193       .dwtag  DW_TAG_TI_loop_range
    2357                      .dwattr $C$DW$193, DW_AT_low_pc($C$DW$L$_vTaskStartScheduler$6$B)
    2358                      .dwattr $C$DW$193, DW_AT_high_pc($C$DW$L$_vTaskStartScheduler$6$E)
    2359                      .dwendtag $C$DW$192
    2360              
    2361              
    2362              $C$DW$194       .dwtag  DW_TAG_TI_loop
    2363                      .dwattr $C$DW$194, DW_AT_name("F:\eZDSP_5535_Files\ccsws2\test\Debug\tasks.asm:$C$L55:2:1536312445")
    2364                      .dwattr $C$DW$194, DW_AT_TI_begin_file("../FreeRTOS/Source/tasks.c")
    2365                      .dwattr $C$DW$194, DW_AT_TI_begin_line(0x45d)
    2366                      .dwattr $C$DW$194, DW_AT_TI_end_line(0x45d)
    2367              $C$DW$195       .dwtag  DW_TAG_TI_loop_range
    2368                      .dwattr $C$DW$195, DW_AT_low_pc($C$DW$L$_vTaskStartScheduler$8$B)
    2369                      .dwattr $C$DW$195, DW_AT_high_pc($C$DW$L$_vTaskStartScheduler$8$E)
    2370                      .dwendtag $C$DW$194
    2371              
    2372                      .dwendtag $C$DW$188
    2373              
TMS320C55x Assembler PC v4.4.1 Fri Sep 07 02:27:27 2018

Tools Copyright (c) 1996-2012 Texas Instruments Incorporated
tasks.asm                                                            PAGE   54

    2374                      .dwattr $C$DW$179, DW_AT_TI_end_file("../FreeRTOS/Source/tasks.c")
    2375                      .dwattr $C$DW$179, DW_AT_TI_end_line(0x460)
    2376                      .dwattr $C$DW$179, DW_AT_TI_end_column(0x01)
    2377                      .dwendentry
    2378                      .dwendtag $C$DW$179
    2379              
    2380 000804               .sect   ".text"
    2381                      .align 4
    2382                      .global _vTaskEndScheduler
    2383              
    2384              $C$DW$196       .dwtag  DW_TAG_subprogram, DW_AT_name("vTaskEndScheduler")
    2385                      .dwattr $C$DW$196, DW_AT_low_pc(_vTaskEndScheduler)
    2386                      .dwattr $C$DW$196, DW_AT_high_pc(0x00)
    2387                      .dwattr $C$DW$196, DW_AT_TI_symbol_name("_vTaskEndScheduler")
    2388                      .dwattr $C$DW$196, DW_AT_external
    2389                      .dwattr $C$DW$196, DW_AT_TI_begin_file("../FreeRTOS/Source/tasks.c")
    2390                      .dwattr $C$DW$196, DW_AT_TI_begin_line(0x463)
    2391                      .dwattr $C$DW$196, DW_AT_TI_begin_column(0x06)
    2392                      .dwattr $C$DW$196, DW_AT_TI_max_frame_size(0x02)
    2393                      .dwpsn  file "../FreeRTOS/Source/tasks.c",line 1124,column 1,is_stmt,address _vTaskEndScheduler
    2394              
    2395                      .dwfde $C$DW$CIE, _vTaskEndScheduler
    2396              ;*******************************************************************************
    2397              ;* FUNCTION NAME: vTaskEndScheduler                                            *
    2398              ;*                                                                             *
    2399              ;*   Function Uses Regs : SP,M40,SATA,SATD,RDM,FRCT,SMUL                       *
    2400              ;*   Stack Frame        : Compact (No Frame Pointer, w/ debug)                 *
    2401              ;*   Total Frame Size   : 2 words                                              *
    2402              ;*                        (2 return address/alignment)                         *
    2403              ;*   Min System Stack   : 1 word                                               *
    2404              ;*******************************************************************************
    2405 000804       _vTaskEndScheduler:
    2406                      .dwcfi  cfa_offset, 1
    2407                      .dwcfi  save_reg_to_mem, 91, -1
    2408 000804 4EFF          AADD #-1, SP
    2409                      .dwcfi  cfa_offset, 2
    2410                      .dwpsn  file "../FreeRTOS/Source/tasks.c",line 1128,column 2,is_stmt
    2411 000806 20     nop
    2412 000807 46B3   bset INTM
    2413                      .dwpsn  file "../FreeRTOS/Source/tasks.c",line 1129,column 2,is_stmt
    2414 000809 E631          MOV #0, *(#_xSchedulerRunning) ; |1129| 
         00080b 0000 
         00080d 0069-
    2415                      .dwpsn  file "../FreeRTOS/Source/tasks.c",line 1130,column 2,is_stmt
    2416              $C$DW$197       .dwtag  DW_TAG_TI_branch
    2417                      .dwattr $C$DW$197, DW_AT_low_pc(0x00)
    2418                      .dwattr $C$DW$197, DW_AT_name("_vPortEndScheduler")
    2419                      .dwattr $C$DW$197, DW_AT_TI_call
    2420 00080f 6C00          CALL #_vPortEndScheduler ; |1130| 
         000811 0000!
    2421                                                      ; call occurs [#_vPortEndScheduler] ; |1130| 
    2422                      .dwpsn  file "../FreeRTOS/Source/tasks.c",line 1131,column 1,is_stmt
    2423 000813 4E01          AADD #1, SP
    2424                      .dwcfi  cfa_offset, 1
    2425              $C$DW$198       .dwtag  DW_TAG_TI_branch
TMS320C55x Assembler PC v4.4.1 Fri Sep 07 02:27:27 2018

Tools Copyright (c) 1996-2012 Texas Instruments Incorporated
tasks.asm                                                            PAGE   55

    2426                      .dwattr $C$DW$198, DW_AT_low_pc(0x00)
    2427                      .dwattr $C$DW$198, DW_AT_TI_return
    2428 000815 4804          RET
    2429                                                      ; return occurs
    2430                      .dwattr $C$DW$196, DW_AT_TI_end_file("../FreeRTOS/Source/tasks.c")
    2431                      .dwattr $C$DW$196, DW_AT_TI_end_line(0x46b)
    2432                      .dwattr $C$DW$196, DW_AT_TI_end_column(0x01)
    2433                      .dwendentry
    2434                      .dwendtag $C$DW$196
    2435              
    2436 000817               .sect   ".text"
    2437                      .align 4
    2438                      .global _vTaskSuspendAll
    2439              
    2440              $C$DW$199       .dwtag  DW_TAG_subprogram, DW_AT_name("vTaskSuspendAll")
    2441                      .dwattr $C$DW$199, DW_AT_low_pc(_vTaskSuspendAll)
    2442                      .dwattr $C$DW$199, DW_AT_high_pc(0x00)
    2443                      .dwattr $C$DW$199, DW_AT_TI_symbol_name("_vTaskSuspendAll")
    2444                      .dwattr $C$DW$199, DW_AT_external
    2445                      .dwattr $C$DW$199, DW_AT_TI_begin_file("../FreeRTOS/Source/tasks.c")
    2446                      .dwattr $C$DW$199, DW_AT_TI_begin_line(0x46e)
    2447                      .dwattr $C$DW$199, DW_AT_TI_begin_column(0x06)
    2448                      .dwattr $C$DW$199, DW_AT_TI_max_frame_size(0x01)
    2449                      .dwpsn  file "../FreeRTOS/Source/tasks.c",line 1135,column 1,is_stmt,address _vTaskSuspendAll
    2450              
    2451                      .dwfde $C$DW$CIE, _vTaskSuspendAll
    2452              ;*******************************************************************************
    2453              ;* FUNCTION NAME: vTaskSuspendAll                                              *
    2454              ;*                                                                             *
    2455              ;*   Function Uses Regs : SP,CARRY,M40,SATA,SATD,RDM,FRCT,SMUL                 *
    2456              ;*   Stack Frame        : Compact (No Frame Pointer, w/ debug)                 *
    2457              ;*   Total Frame Size   : 1 word                                               *
    2458              ;*                        (1 return address/alignment)                         *
    2459              ;*   Min System Stack   : 1 word                                               *
    2460              ;*******************************************************************************
    2461 000818       _vTaskSuspendAll:
    2462                      .dwcfi  cfa_offset, 1
    2463                      .dwcfi  save_reg_to_mem, 91, -1
    2464                      .dwpsn  file "../FreeRTOS/Source/tasks.c",line 1138,column 2,is_stmt
    2465 000818 F731          ADD #1, *(#_uxSchedulerSuspended) ; |1138| 
         00081a 0001 
         00081c 0000 
         00081e 6A-  
    2466                      .dwpsn  file "../FreeRTOS/Source/tasks.c",line 1139,column 1,is_stmt
    2467              $C$DW$200       .dwtag  DW_TAG_TI_branch
    2468                      .dwattr $C$DW$200, DW_AT_low_pc(0x00)
    2469                      .dwattr $C$DW$200, DW_AT_TI_return
    2470 00081f 4804          RET
    2471                                                      ; return occurs
    2472                      .dwattr $C$DW$199, DW_AT_TI_end_file("../FreeRTOS/Source/tasks.c")
    2473                      .dwattr $C$DW$199, DW_AT_TI_end_line(0x473)
    2474                      .dwattr $C$DW$199, DW_AT_TI_end_column(0x01)
    2475                      .dwendentry
    2476                      .dwendtag $C$DW$199
    2477              
TMS320C55x Assembler PC v4.4.1 Fri Sep 07 02:27:27 2018

Tools Copyright (c) 1996-2012 Texas Instruments Incorporated
tasks.asm                                                            PAGE   56

    2478 000821               .sect   ".text"
    2479                      .align 4
    2480                      .global _xTaskResumeAll
    2481              
    2482              $C$DW$201       .dwtag  DW_TAG_subprogram, DW_AT_name("xTaskResumeAll")
    2483                      .dwattr $C$DW$201, DW_AT_low_pc(_xTaskResumeAll)
    2484                      .dwattr $C$DW$201, DW_AT_high_pc(0x00)
    2485                      .dwattr $C$DW$201, DW_AT_TI_symbol_name("_xTaskResumeAll")
    2486                      .dwattr $C$DW$201, DW_AT_external
    2487                      .dwattr $C$DW$201, DW_AT_type(*$C$DW$T$10)
    2488                      .dwattr $C$DW$201, DW_AT_TI_begin_file("../FreeRTOS/Source/tasks.c")
    2489                      .dwattr $C$DW$201, DW_AT_TI_begin_line(0x476)
    2490                      .dwattr $C$DW$201, DW_AT_TI_begin_column(0x16)
    2491                      .dwattr $C$DW$201, DW_AT_TI_max_frame_size(0x04)
    2492                      .dwpsn  file "../FreeRTOS/Source/tasks.c",line 1143,column 1,is_stmt,address _xTaskResumeAll
    2493              
    2494                      .dwfde $C$DW$CIE, _xTaskResumeAll
    2495              ;*******************************************************************************
    2496              ;* FUNCTION NAME: xTaskResumeAll                                               *
    2497              ;*                                                                             *
    2498              ;*   Function Uses Regs : AC0,AC0,T0,AR0,XAR0,AR1,XAR1,AR2,AR3,XAR3,AR5,XAR5,  *
    2499              ;*                        SP,CARRY,TC1,M40,SATA,SATD,RDM,FRCT,SMUL             *
    2500              ;*   Save On Entry Regs : AR5                                                  *
    2501              ;*   Stack Frame        : Compact (No Frame Pointer, w/ debug)                 *
    2502              ;*   Total Frame Size   : 4 words                                              *
    2503              ;*                        (1 return address/alignment)                         *
    2504              ;*                        (2 local values)                                     *
    2505              ;*                        (1 register save area)                               *
    2506              ;*   Min System Stack   : 2 words                                              *
    2507              ;*******************************************************************************
    2508 000824       _xTaskResumeAll:
    2509                      .dwcfi  cfa_offset, 1
    2510                      .dwcfi  save_reg_to_mem, 91, -1
    2511 000824 50D5          PSHBOTH XAR5
    2512                      .dwcfi  cfa_offset, 2
    2513                      .dwcfi  save_reg_to_mem, 26, -2
    2514 000826 4EFE          AADD #-2, SP
    2515                      .dwcfi  cfa_offset, 4
    2516              ;* AR5   assigned to _pxTCB
    2517              $C$DW$202       .dwtag  DW_TAG_variable, DW_AT_name("pxTCB")
    2518                      .dwattr $C$DW$202, DW_AT_TI_symbol_name("_pxTCB")
    2519                      .dwattr $C$DW$202, DW_AT_type(*$C$DW$T$79)
    2520                      .dwattr $C$DW$202, DW_AT_location[DW_OP_reg27]
    2521              $C$DW$203       .dwtag  DW_TAG_variable, DW_AT_name("xAlreadyYielded")
    2522                      .dwattr $C$DW$203, DW_AT_TI_symbol_name("_xAlreadyYielded")
    2523                      .dwattr $C$DW$203, DW_AT_type(*$C$DW$T$10)
    2524                      .dwattr $C$DW$203, DW_AT_location[DW_OP_bregx 0x24 0]
    2525                      .dwpsn  file "../FreeRTOS/Source/tasks.c",line 1145,column 22,is_stmt
    2526 000828 E600          MOV #0, *SP(#0) ; |1145| 
         00082a 00   
    2527                      .dwpsn  file "../FreeRTOS/Source/tasks.c",line 1152,column 2,is_stmt
    2528 00082b 20     nop
    2529 00082c 46B3   bset INTM
    2530 00082e F731          ADD #1, *(#_usCriticalNesting) ; |1152| 
         000830 0001 
TMS320C55x Assembler PC v4.4.1 Fri Sep 07 02:27:27 2018

Tools Copyright (c) 1996-2012 Texas Instruments Incorporated
tasks.asm                                                            PAGE   57

         000832 0000 
         000834 00!  
    2531                      .dwpsn  file "../FreeRTOS/Source/tasks.c",line 1154,column 3,is_stmt
    2532 000835 F731          SUB #1, *(#_uxSchedulerSuspended) ; |1154| 
         000837 FFFF 
         000839 0000 
         00083b 6A-  
    2533 00083c 20            NOP
    2534 00083d 20            NOP
    2535 00083e 20            NOP
    2536                      .dwpsn  file "../FreeRTOS/Source/tasks.c",line 1156,column 3,is_stmt
    2537 00083f A931          MOV *(#_uxSchedulerSuspended), AR1 ; |1156| 
         000841 0000 
         000843 6A-  
    2538 000844 6D19          BCC $C$L67,AR1 != #0 ; |1156| 
         000846 00CC 
    2539                                                      ; branchcc occurs ; |1156| 
    2540                      .dwpsn  file "../FreeRTOS/Source/tasks.c",line 1158,column 4,is_stmt
    2541 000848 A931          MOV *(#_uxCurrentNumberOfTasks), AR1 ; |1158| 
         00084a 0000 
         00084c 5B-  
    2542 00084d 6D09          BCC $C$L67,AR1 == #0 ; |1158| 
         00084f 00C3 
    2543                                                      ; branchcc occurs ; |1158| 
    2544              
    2545              $C$DW$204       .dwtag  DW_TAG_lexical_block, DW_AT_low_pc(0x00), DW_AT_high_pc(0x00)
    2546              $C$DW$205       .dwtag  DW_TAG_variable, DW_AT_name("xYieldRequired")
    2547                      .dwattr $C$DW$205, DW_AT_TI_symbol_name("_xYieldRequired")
    2548                      .dwattr $C$DW$205, DW_AT_type(*$C$DW$T$10)
    2549                      .dwattr $C$DW$205, DW_AT_location[DW_OP_bregx 0x24 1]
    2550                      .dwpsn  file "../FreeRTOS/Source/tasks.c",line 1160,column 19,is_stmt
    2551 000851 E602          MOV #0, *SP(#1) ; |1160| 
         000853 00   
    2552                      .dwpsn  file "../FreeRTOS/Source/tasks.c",line 1164,column 5,is_stmt
    2553 000854 0600          B $C$L59  ; |1164| 
         000856 5C   
    2554                                                      ; branch occurs ; |1164| 
    2555 000857       $C$L57:    
    2556 000857       $C$DW$L$_xTaskResumeAll$4$B:
    2557                      .dwpsn  file "../FreeRTOS/Source/tasks.c",line 1166,column 6,is_stmt
    2558 000857 ECA1          AMAR *AR5, XAR0
         000859 8E   
    2559 00085a 140E          AADD #14, AR0 ; |1166| 
         00085c 84   
    2560              $C$DW$206       .dwtag  DW_TAG_TI_branch
    2561                      .dwattr $C$DW$206, DW_AT_low_pc(0x00)
    2562                      .dwattr $C$DW$206, DW_AT_name("_vListRemove")
    2563                      .dwattr $C$DW$206, DW_AT_TI_call
    2564 00085d 6C00          CALL #_vListRemove ; |1166| 
         00085f 0000!
    2565                                                      ; call occurs [#_vListRemove] ; |1166| 
    2566                      .dwpsn  file "../FreeRTOS/Source/tasks.c",line 1167,column 6,is_stmt
    2567 000861 ECA1          AMAR *AR5, XAR0
         000863 8E   
    2568 000864 1404          AADD #4, AR0 ; |1167| 
TMS320C55x Assembler PC v4.4.1 Fri Sep 07 02:27:27 2018

Tools Copyright (c) 1996-2012 Texas Instruments Incorporated
tasks.asm                                                            PAGE   58

         000866 84   
    2569              $C$DW$207       .dwtag  DW_TAG_TI_branch
    2570                      .dwattr $C$DW$207, DW_AT_low_pc(0x00)
    2571                      .dwattr $C$DW$207, DW_AT_name("_vListRemove")
    2572                      .dwattr $C$DW$207, DW_AT_TI_call
    2573 000867 6C00          CALL #_vListRemove ; |1167| 
         000869 0000!
    2574                                                      ; call occurs [#_vListRemove] ; |1167| 
    2575                      .dwpsn  file "../FreeRTOS/Source/tasks.c",line 1168,column 6,is_stmt
    2576 00086b A931          MOV *(#_uxTopReadyPriority), AR1 ; |1168| 
         00086d 0000 
         00086f 68-  
    2577 000870 AAAD          MOV *AR5(#24), AR2 ; |1168| 
         000872 0018 
    2578 000874 1298          CMPU AR2 <= AR1, TC1 ; |1168| 
         000876 A4   
    2579 000877 64E4          BCC $C$L58,TC1 ; |1168| 
    2580                                                      ; branchcc occurs ; |1168| 
    2581 000879       $C$DW$L$_xTaskResumeAll$4$E:
    2582 000879       $C$DW$L$_xTaskResumeAll$5$B:
    2583 000879 A9AD          MOV *AR5(#24), AR1 ; |1168| 
         00087b 0018 
    2584 00087d C931          MOV AR1, *(#_uxTopReadyPriority) ; |1168| 
         00087f 0000 
         000881 68-  
    2585 000882       $C$DW$L$_xTaskResumeAll$5$E:
    2586 000882       $C$L58:    
    2587 000882       $C$DW$L$_xTaskResumeAll$6$B:
    2588 000882 F8AD          MPYMK *AR5(#24), #10, AC0 ; |1168| 
         000884 0A00 
         000886 0018 
    2589 000888 2209          MOV AC0, AR1 ; |1168| 
    2590 00088a EC31          AMOV #_pxReadyTasksLists, XAR0 ; |1168| 
         00088c 8E00 
         00088e 0006-
    2591 000890 1490          AADD AR1, AR0 ; |1168| 
         000892 80   
    2592 000893 ECA1          AMAR *AR5, XAR1
         000895 9E   
    2593 000896 1404          AADD #4, AR1 ; |1168| 
         000898 94   
    2594              $C$DW$208       .dwtag  DW_TAG_TI_branch
    2595                      .dwattr $C$DW$208, DW_AT_low_pc(0x00)
    2596                      .dwattr $C$DW$208, DW_AT_name("_vListInsertEnd")
    2597                      .dwattr $C$DW$208, DW_AT_TI_call
    2598 000899 6C00          CALL #_vListInsertEnd ; |1168| 
         00089b 0000!
    2599                                                      ; call occurs [#_vListInsertEnd] ; |1168| 
    2600                      .dwpsn  file "../FreeRTOS/Source/tasks.c",line 1172,column 6,is_stmt
    2601 00089d ED31          MOV dbl(*(#_pxCurrentTCB)), XAR3
         00089f BF00 
         0008a1 0004-
    2602 0008a3 AAAD          MOV *AR5(#24), AR2 ; |1172| 
         0008a5 0018 
    2603 0008a7 A96D          MOV *AR3(#24), AR1 ; |1172| 
TMS320C55x Assembler PC v4.4.1 Fri Sep 07 02:27:27 2018

Tools Copyright (c) 1996-2012 Texas Instruments Incorporated
tasks.asm                                                            PAGE   59

         0008a9 0018 
    2604 0008ab 12A4          CMPU AR2 < AR1, TC1 ; |1172| 
         0008ad 94   
    2605 0008ae 61E4          BCC $C$L59,TC1 ; |1172| 
    2606                                                      ; branchcc occurs ; |1172| 
    2607 0008b0       $C$DW$L$_xTaskResumeAll$6$E:
    2608 0008b0       $C$DW$L$_xTaskResumeAll$7$B:
    2609                      .dwpsn  file "../FreeRTOS/Source/tasks.c",line 1174,column 7,is_stmt
    2610 0008b0 E602          MOV #1, *SP(#1) ; |1174| 
         0008b2 01   
    2611 0008b3       $C$DW$L$_xTaskResumeAll$7$E:
    2612 0008b3       $C$L59:    
    2613 0008b3       $C$DW$L$_xTaskResumeAll$8$B:
    2614                      .dwpsn  file "../FreeRTOS/Source/tasks.c",line 1164,column 12,is_stmt
    2615 0008b3 A931          MOV *(#_xPendingReadyList), AR1 ; |1164| 
         0008b5 0000 
         0008b7 46-  
    2616 0008b8 6589          BCC $C$L60,AR1 == #0 ; |1164| 
    2617                                                      ; branchcc occurs ; |1164| 
    2618 0008ba       $C$DW$L$_xTaskResumeAll$8$E:
    2619 0008ba       $C$DW$L$_xTaskResumeAll$9$B:
    2620 0008ba ED31          MOV dbl(*(#(_xPendingReadyList+6))), XAR3
         0008bc BF00 
         0008be 004C-
    2621 0008c0 ED7D          MOV dbl(*AR3(short(#6))), XAR5
         0008c2 DF   
    2622 0008c3 4A06          B $C$L61  ; |1164| 
    2623                                                      ; branch occurs ; |1164| 
    2624 0008c5       $C$DW$L$_xTaskResumeAll$9$E:
    2625 0008c5       $C$L60:    
    2626 0008c5       $C$DW$L$_xTaskResumeAll$10$B:
    2627 0008c5 EC31          AMOV #0, XAR5 ; |1164| 
         0008c7 DE00 
         0008c9 0000 
    2628 0008cb       $C$DW$L$_xTaskResumeAll$10$E:
    2629 0008cb       $C$L61:    
    2630 0008cb       $C$DW$L$_xTaskResumeAll$11$B:
    2631 0008cb 90D0          MOV XAR5, AC0
    2632 0008cd 0410          BCC $C$L57,AC0 != #0 ; |1164| 
         0008cf 87   
    2633                                                      ; branchcc occurs ; |1164| 
    2634 0008d0       $C$DW$L$_xTaskResumeAll$11$E:
    2635                      .dwpsn  file "../FreeRTOS/Source/tasks.c",line 1181,column 5,is_stmt
    2636 0008d0 A931          MOV *(#_uxMissedTicks), AR1 ; |1181| 
         0008d2 0000 
         0008d4 6B-  
    2637 0008d5 0409          BCC $C$L64,AR1 == #0 ; |1181| 
         0008d7 20   
    2638                                                      ; branchcc occurs ; |1181| 
    2639                      .dwpsn  file "../FreeRTOS/Source/tasks.c",line 1183,column 13,is_stmt
    2640 0008d8 A931          MOV *(#_uxMissedTicks), AR1 ; |1183| 
         0008da 0000 
         0008dc 6B-  
    2641 0008dd 0409          BCC $C$L63,AR1 == #0 ; |1183| 
         0008df 15   
TMS320C55x Assembler PC v4.4.1 Fri Sep 07 02:27:27 2018

Tools Copyright (c) 1996-2012 Texas Instruments Incorporated
tasks.asm                                                            PAGE   60

    2642                                                      ; branchcc occurs ; |1183| 
    2643 0008e0       $C$L62:    
    2644 0008e0       $C$DW$L$_xTaskResumeAll$14$B:
    2645                      .dwpsn  file "../FreeRTOS/Source/tasks.c",line 1185,column 7,is_stmt
    2646              $C$DW$209       .dwtag  DW_TAG_TI_branch
    2647                      .dwattr $C$DW$209, DW_AT_low_pc(0x00)
    2648                      .dwattr $C$DW$209, DW_AT_name("_vTaskIncrementTick")
    2649                      .dwattr $C$DW$209, DW_AT_TI_call
    2650 0008e0 0800          CALL #_vTaskIncrementTick ; |1185| 
         0008e2 95   
    2651                                                      ; call occurs [#_vTaskIncrementTick] ; |1185| 
    2652                      .dwpsn  file "../FreeRTOS/Source/tasks.c",line 1186,column 7,is_stmt
    2653 0008e3 F731          SUB #1, *(#_uxMissedTicks) ; |1186| 
         0008e5 FFFF 
         0008e7 0000 
         0008e9 6B-  
    2654 0008ea 20            NOP
    2655 0008eb 20            NOP
    2656 0008ec 20            NOP
    2657                      .dwpsn  file "../FreeRTOS/Source/tasks.c",line 1183,column 13,is_stmt
    2658 0008ed A931          MOV *(#_uxMissedTicks), AR1 ; |1183| 
         0008ef 0000 
         0008f1 6B-  
    2659 0008f2 0419          BCC $C$L62,AR1 != #0 ; |1183| 
         0008f4 EB   
    2660                                                      ; branchcc occurs ; |1183| 
    2661 0008f5       $C$DW$L$_xTaskResumeAll$14$E:
    2662 0008f5       $C$L63:    
    2663                      .dwpsn  file "../FreeRTOS/Source/tasks.c",line 1194,column 7,is_stmt
    2664 0008f5 E602          MOV #1, *SP(#1) ; |1194| 
         0008f7 01   
    2665 0008f8       $C$L64:    
    2666                      .dwpsn  file "../FreeRTOS/Source/tasks.c",line 1199,column 5,is_stmt
    2667 0008f8 F002          CMP *SP(#1) == #1, TC1 ; |1199| 
         0008fa 0001 
    2668 0008fc 64E4          BCC $C$L65,TC1 ; |1199| 
    2669                                                      ; branchcc occurs ; |1199| 
    2670 0008fe F031          CMP *(#_xMissedYield) == #1, TC1 ; |1199| 
         000900 0001 
         000902 0000 
         000904 6C-  
    2671 000905 66F4          BCC $C$L66,!TC1 ; |1199| 
    2672                                                      ; branchcc occurs ; |1199| 
    2673 000907       $C$L65:    
    2674                      .dwpsn  file "../FreeRTOS/Source/tasks.c",line 1201,column 6,is_stmt
    2675 000907 E600          MOV #1, *SP(#0) ; |1201| 
         000909 01   
    2676                      .dwpsn  file "../FreeRTOS/Source/tasks.c",line 1202,column 6,is_stmt
    2677 00090a E631          MOV #0, *(#_xMissedYield) ; |1202| 
         00090c 0000 
         00090e 006C-
    2678                      .dwpsn  file "../FreeRTOS/Source/tasks.c",line 1203,column 6,is_stmt
    2679              $C$DW$210       .dwtag  DW_TAG_TI_branch
    2680                      .dwattr $C$DW$210, DW_AT_low_pc(0x00)
    2681                      .dwattr $C$DW$210, DW_AT_name("_vPortYield")
TMS320C55x Assembler PC v4.4.1 Fri Sep 07 02:27:27 2018

Tools Copyright (c) 1996-2012 Texas Instruments Incorporated
tasks.asm                                                            PAGE   61

    2682                      .dwattr $C$DW$210, DW_AT_TI_call
    2683 000910 6C00          CALL #_vPortYield ; |1203| 
         000912 0000!
    2684                                                      ; call occurs [#_vPortYield] ; |1203| 
    2685              $C$L66:    
    2686                      .dwendtag $C$DW$204
    2687              
    2688 000914       $C$L67:    
    2689                      .dwpsn  file "../FreeRTOS/Source/tasks.c",line 1208,column 2,is_stmt
    2690 000914 A931          MOV *(#_usCriticalNesting), AR1 ; |1208| 
         000916 0000 
         000918 00!  
    2691 000919 0409          BCC $C$L68,AR1 == #0 ; |1208| 
         00091b 14   
    2692                                                      ; branchcc occurs ; |1208| 
    2693 00091c F731          SUB #1, *(#_usCriticalNesting) ; |1208| 
         00091e FFFF 
         000920 0000 
         000922 00!  
    2694 000923 20            NOP
    2695 000924 20            NOP
    2696 000925 20            NOP
    2697 000926 A931          MOV *(#_usCriticalNesting), AR1 ; |1208| 
         000928 0000 
         00092a 00!  
    2698 00092b 6199          BCC $C$L68,AR1 != #0 ; |1208| 
    2699                                                      ; branchcc occurs ; |1208| 
    2700 00092d 20     nop
    2701 00092e 46B2   bclr INTM
    2702 000930       $C$L68:    
    2703                      .dwpsn  file "../FreeRTOS/Source/tasks.c",line 1210,column 2,is_stmt
    2704 000930 A400          MOV *SP(#0), T0 ; |1210| 
    2705                      .dwpsn  file "../FreeRTOS/Source/tasks.c",line 1211,column 1,is_stmt
    2706 000932 4E02          AADD #2, SP
    2707                      .dwcfi  cfa_offset, 2
    2708 000934 50D4          POPBOTH XAR5
    2709                      .dwcfi  restore_reg, 26
    2710                      .dwcfi  cfa_offset, 1
    2711              $C$DW$211       .dwtag  DW_TAG_TI_branch
    2712                      .dwattr $C$DW$211, DW_AT_low_pc(0x00)
    2713                      .dwattr $C$DW$211, DW_AT_TI_return
    2714 000936 4804          RET
    2715                                                      ; return occurs
    2716              
    2717              $C$DW$212       .dwtag  DW_TAG_TI_loop
    2718                      .dwattr $C$DW$212, DW_AT_name("F:\eZDSP_5535_Files\ccsws2\test\Debug\tasks.asm:$C$L62:1:1536312445")
    2719                      .dwattr $C$DW$212, DW_AT_TI_begin_file("../FreeRTOS/Source/tasks.c")
    2720                      .dwattr $C$DW$212, DW_AT_TI_begin_line(0x49f)
    2721                      .dwattr $C$DW$212, DW_AT_TI_end_line(0x4a3)
    2722              $C$DW$213       .dwtag  DW_TAG_TI_loop_range
    2723                      .dwattr $C$DW$213, DW_AT_low_pc($C$DW$L$_xTaskResumeAll$14$B)
    2724                      .dwattr $C$DW$213, DW_AT_high_pc($C$DW$L$_xTaskResumeAll$14$E)
    2725                      .dwendtag $C$DW$212
    2726              
    2727              
TMS320C55x Assembler PC v4.4.1 Fri Sep 07 02:27:27 2018

Tools Copyright (c) 1996-2012 Texas Instruments Incorporated
tasks.asm                                                            PAGE   62

    2728              $C$DW$214       .dwtag  DW_TAG_TI_loop
    2729                      .dwattr $C$DW$214, DW_AT_name("F:\eZDSP_5535_Files\ccsws2\test\Debug\tasks.asm:$C$L59:1:1536312445")
    2730                      .dwattr $C$DW$214, DW_AT_TI_begin_file("../FreeRTOS/Source/tasks.c")
    2731                      .dwattr $C$DW$214, DW_AT_TI_begin_line(0x48c)
    2732                      .dwattr $C$DW$214, DW_AT_TI_end_line(0x496)
    2733              $C$DW$215       .dwtag  DW_TAG_TI_loop_range
    2734                      .dwattr $C$DW$215, DW_AT_low_pc($C$DW$L$_xTaskResumeAll$8$B)
    2735                      .dwattr $C$DW$215, DW_AT_high_pc($C$DW$L$_xTaskResumeAll$8$E)
    2736              $C$DW$216       .dwtag  DW_TAG_TI_loop_range
    2737                      .dwattr $C$DW$216, DW_AT_low_pc($C$DW$L$_xTaskResumeAll$9$B)
    2738                      .dwattr $C$DW$216, DW_AT_high_pc($C$DW$L$_xTaskResumeAll$9$E)
    2739              $C$DW$217       .dwtag  DW_TAG_TI_loop_range
    2740                      .dwattr $C$DW$217, DW_AT_low_pc($C$DW$L$_xTaskResumeAll$10$B)
    2741                      .dwattr $C$DW$217, DW_AT_high_pc($C$DW$L$_xTaskResumeAll$10$E)
    2742              $C$DW$218       .dwtag  DW_TAG_TI_loop_range
    2743                      .dwattr $C$DW$218, DW_AT_low_pc($C$DW$L$_xTaskResumeAll$11$B)
    2744                      .dwattr $C$DW$218, DW_AT_high_pc($C$DW$L$_xTaskResumeAll$11$E)
    2745              $C$DW$219       .dwtag  DW_TAG_TI_loop_range
    2746                      .dwattr $C$DW$219, DW_AT_low_pc($C$DW$L$_xTaskResumeAll$4$B)
    2747                      .dwattr $C$DW$219, DW_AT_high_pc($C$DW$L$_xTaskResumeAll$4$E)
    2748              $C$DW$220       .dwtag  DW_TAG_TI_loop_range
    2749                      .dwattr $C$DW$220, DW_AT_low_pc($C$DW$L$_xTaskResumeAll$5$B)
    2750                      .dwattr $C$DW$220, DW_AT_high_pc($C$DW$L$_xTaskResumeAll$5$E)
    2751              $C$DW$221       .dwtag  DW_TAG_TI_loop_range
    2752                      .dwattr $C$DW$221, DW_AT_low_pc($C$DW$L$_xTaskResumeAll$7$B)
    2753                      .dwattr $C$DW$221, DW_AT_high_pc($C$DW$L$_xTaskResumeAll$7$E)
    2754              $C$DW$222       .dwtag  DW_TAG_TI_loop_range
    2755                      .dwattr $C$DW$222, DW_AT_low_pc($C$DW$L$_xTaskResumeAll$6$B)
    2756                      .dwattr $C$DW$222, DW_AT_high_pc($C$DW$L$_xTaskResumeAll$6$E)
    2757                      .dwendtag $C$DW$214
    2758              
    2759                      .dwattr $C$DW$201, DW_AT_TI_end_file("../FreeRTOS/Source/tasks.c")
    2760                      .dwattr $C$DW$201, DW_AT_TI_end_line(0x4bb)
    2761                      .dwattr $C$DW$201, DW_AT_TI_end_column(0x01)
    2762                      .dwendentry
    2763                      .dwendtag $C$DW$201
    2764              
    2765 000938               .sect   ".text"
    2766                      .align 4
    2767                      .global _xTaskGetTickCount
    2768              
    2769              $C$DW$223       .dwtag  DW_TAG_subprogram, DW_AT_name("xTaskGetTickCount")
    2770                      .dwattr $C$DW$223, DW_AT_low_pc(_xTaskGetTickCount)
    2771                      .dwattr $C$DW$223, DW_AT_high_pc(0x00)
    2772                      .dwattr $C$DW$223, DW_AT_TI_symbol_name("_xTaskGetTickCount")
    2773                      .dwattr $C$DW$223, DW_AT_external
    2774                      .dwattr $C$DW$223, DW_AT_type(*$C$DW$T$31)
    2775                      .dwattr $C$DW$223, DW_AT_TI_begin_file("../FreeRTOS/Source/tasks.c")
    2776                      .dwattr $C$DW$223, DW_AT_TI_begin_line(0x4c8)
    2777                      .dwattr $C$DW$223, DW_AT_TI_begin_column(0x0e)
    2778                      .dwattr $C$DW$223, DW_AT_TI_max_frame_size(0x02)
    2779                      .dwpsn  file "../FreeRTOS/Source/tasks.c",line 1225,column 1,is_stmt,address _xTaskGetTickCount
    2780              
    2781                      .dwfde $C$DW$CIE, _xTaskGetTickCount
    2782              ;*******************************************************************************
TMS320C55x Assembler PC v4.4.1 Fri Sep 07 02:27:27 2018

Tools Copyright (c) 1996-2012 Texas Instruments Incorporated
tasks.asm                                                            PAGE   63

    2783              ;* FUNCTION NAME: xTaskGetTickCount                                            *
    2784              ;*                                                                             *
    2785              ;*   Function Uses Regs : T0,AR1,SP,CARRY,M40,SATA,SATD,RDM,FRCT,SMUL          *
    2786              ;*   Stack Frame        : Compact (No Frame Pointer, w/ debug)                 *
    2787              ;*   Total Frame Size   : 2 words                                              *
    2788              ;*                        (1 return address/alignment)                         *
    2789              ;*                        (1 local values)                                     *
    2790              ;*   Min System Stack   : 1 word                                               *
    2791              ;*******************************************************************************
    2792 000938       _xTaskGetTickCount:
    2793                      .dwcfi  cfa_offset, 1
    2794                      .dwcfi  save_reg_to_mem, 91, -1
    2795 000938 4EFF          AADD #-1, SP
    2796                      .dwcfi  cfa_offset, 2
    2797              $C$DW$224       .dwtag  DW_TAG_variable, DW_AT_name("xTicks")
    2798                      .dwattr $C$DW$224, DW_AT_TI_symbol_name("_xTicks")
    2799                      .dwattr $C$DW$224, DW_AT_type(*$C$DW$T$31)
    2800                      .dwattr $C$DW$224, DW_AT_location[DW_OP_bregx 0x24 0]
    2801                      .dwpsn  file "../FreeRTOS/Source/tasks.c",line 1229,column 2,is_stmt
    2802 00093a 20     nop
    2803 00093b 46B3   bset INTM
    2804 00093d F731          ADD #1, *(#_usCriticalNesting) ; |1229| 
         00093f 0001 
         000941 0000 
         000943 00!  
    2805 000944 20            NOP
    2806 000945 20            NOP
    2807 000946 20            NOP
    2808                      .dwpsn  file "../FreeRTOS/Source/tasks.c",line 1231,column 3,is_stmt
    2809 000947 A931          MOV *(#_xTickCount), AR1 ; |1231| 
         000949 0000 
         00094b 66-  
    2810 00094c C900          MOV AR1, *SP(#0) ; |1231| 
    2811                      .dwpsn  file "../FreeRTOS/Source/tasks.c",line 1233,column 2,is_stmt
    2812 00094e A931          MOV *(#_usCriticalNesting), AR1 ; |1233| 
         000950 0000 
         000952 00!  
    2813 000953 0409          BCC $C$L69,AR1 == #0 ; |1233| 
         000955 14   
    2814                                                      ; branchcc occurs ; |1233| 
    2815 000956 F731          SUB #1, *(#_usCriticalNesting) ; |1233| 
         000958 FFFF 
         00095a 0000 
         00095c 00!  
    2816 00095d 20            NOP
    2817 00095e 20            NOP
    2818 00095f 20            NOP
    2819 000960 A931          MOV *(#_usCriticalNesting), AR1 ; |1233| 
         000962 0000 
         000964 00!  
    2820 000965 6199          BCC $C$L69,AR1 != #0 ; |1233| 
    2821                                                      ; branchcc occurs ; |1233| 
    2822 000967 20     nop
    2823 000968 46B2   bclr INTM
    2824 00096a       $C$L69:    
TMS320C55x Assembler PC v4.4.1 Fri Sep 07 02:27:27 2018

Tools Copyright (c) 1996-2012 Texas Instruments Incorporated
tasks.asm                                                            PAGE   64

    2825                      .dwpsn  file "../FreeRTOS/Source/tasks.c",line 1235,column 2,is_stmt
    2826 00096a A400          MOV *SP(#0), T0 ; |1235| 
    2827                      .dwpsn  file "../FreeRTOS/Source/tasks.c",line 1236,column 1,is_stmt
    2828 00096c 4E01          AADD #1, SP
    2829                      .dwcfi  cfa_offset, 1
    2830              $C$DW$225       .dwtag  DW_TAG_TI_branch
    2831                      .dwattr $C$DW$225, DW_AT_low_pc(0x00)
    2832                      .dwattr $C$DW$225, DW_AT_TI_return
    2833 00096e 4804          RET
    2834                                                      ; return occurs
    2835                      .dwattr $C$DW$223, DW_AT_TI_end_file("../FreeRTOS/Source/tasks.c")
    2836                      .dwattr $C$DW$223, DW_AT_TI_end_line(0x4d4)
    2837                      .dwattr $C$DW$223, DW_AT_TI_end_column(0x01)
    2838                      .dwendentry
    2839                      .dwendtag $C$DW$223
    2840              
    2841 000970               .sect   ".text"
    2842                      .align 4
    2843                      .global _uxTaskGetNumberOfTasks
    2844              
    2845              $C$DW$226       .dwtag  DW_TAG_subprogram, DW_AT_name("uxTaskGetNumberOfTasks")
    2846                      .dwattr $C$DW$226, DW_AT_low_pc(_uxTaskGetNumberOfTasks)
    2847                      .dwattr $C$DW$226, DW_AT_high_pc(0x00)
    2848                      .dwattr $C$DW$226, DW_AT_TI_symbol_name("_uxTaskGetNumberOfTasks")
    2849                      .dwattr $C$DW$226, DW_AT_external
    2850                      .dwattr $C$DW$226, DW_AT_type(*$C$DW$T$11)
    2851                      .dwattr $C$DW$226, DW_AT_TI_begin_file("../FreeRTOS/Source/tasks.c")
    2852                      .dwattr $C$DW$226, DW_AT_TI_begin_line(0x4d7)
    2853                      .dwattr $C$DW$226, DW_AT_TI_begin_column(0x18)
    2854                      .dwattr $C$DW$226, DW_AT_TI_max_frame_size(0x01)
    2855                      .dwpsn  file "../FreeRTOS/Source/tasks.c",line 1240,column 1,is_stmt,address _uxTaskGetNumberOfTasks
    2856              
    2857                      .dwfde $C$DW$CIE, _uxTaskGetNumberOfTasks
    2858              ;*******************************************************************************
    2859              ;* FUNCTION NAME: uxTaskGetNumberOfTasks                                       *
    2860              ;*                                                                             *
    2861              ;*   Function Uses Regs : T0,SP,M40,SATA,SATD,RDM,FRCT,SMUL                    *
    2862              ;*   Stack Frame        : Compact (No Frame Pointer, w/ debug)                 *
    2863              ;*   Total Frame Size   : 1 word                                               *
    2864              ;*                        (1 return address/alignment)                         *
    2865              ;*   Min System Stack   : 1 word                                               *
    2866              ;*******************************************************************************
    2867 000970       _uxTaskGetNumberOfTasks:
    2868                      .dwcfi  cfa_offset, 1
    2869                      .dwcfi  save_reg_to_mem, 91, -1
    2870                      .dwpsn  file "../FreeRTOS/Source/tasks.c",line 1243,column 2,is_stmt
    2871 000970 A431          MOV *(#_uxCurrentNumberOfTasks), T0 ; |1243| 
         000972 0000 
         000974 5B-  
    2872                      .dwpsn  file "../FreeRTOS/Source/tasks.c",line 1244,column 1,is_stmt
    2873              $C$DW$227       .dwtag  DW_TAG_TI_branch
    2874                      .dwattr $C$DW$227, DW_AT_low_pc(0x00)
    2875                      .dwattr $C$DW$227, DW_AT_TI_return
    2876 000975 4804          RET
    2877                                                      ; return occurs
TMS320C55x Assembler PC v4.4.1 Fri Sep 07 02:27:27 2018

Tools Copyright (c) 1996-2012 Texas Instruments Incorporated
tasks.asm                                                            PAGE   65

    2878                      .dwattr $C$DW$226, DW_AT_TI_end_file("../FreeRTOS/Source/tasks.c")
    2879                      .dwattr $C$DW$226, DW_AT_TI_end_line(0x4dc)
    2880                      .dwattr $C$DW$226, DW_AT_TI_end_column(0x01)
    2881                      .dwendentry
    2882                      .dwendtag $C$DW$226
    2883              
    2884 000977               .sect   ".text"
    2885                      .align 4
    2886                      .global _vTaskIncrementTick
    2887              
    2888              $C$DW$228       .dwtag  DW_TAG_subprogram, DW_AT_name("vTaskIncrementTick")
    2889                      .dwattr $C$DW$228, DW_AT_low_pc(_vTaskIncrementTick)
    2890                      .dwattr $C$DW$228, DW_AT_high_pc(0x00)
    2891                      .dwattr $C$DW$228, DW_AT_TI_symbol_name("_vTaskIncrementTick")
    2892                      .dwattr $C$DW$228, DW_AT_external
    2893                      .dwattr $C$DW$228, DW_AT_TI_begin_file("../FreeRTOS/Source/tasks.c")
    2894                      .dwattr $C$DW$228, DW_AT_TI_begin_line(0x589)
    2895                      .dwattr $C$DW$228, DW_AT_TI_begin_column(0x06)
    2896                      .dwattr $C$DW$228, DW_AT_TI_max_frame_size(0x04)
    2897                      .dwpsn  file "../FreeRTOS/Source/tasks.c",line 1418,column 1,is_stmt,address _vTaskIncrementTick
    2898              
    2899                      .dwfde $C$DW$CIE, _vTaskIncrementTick
    2900              ;*******************************************************************************
    2901              ;* FUNCTION NAME: vTaskIncrementTick                                           *
    2902              ;*                                                                             *
    2903              ;*   Function Uses Regs : AC0,AC0,AR0,XAR0,AR1,XAR1,AR2,AR3,XAR3,AR5,XAR5,SP,  *
    2904              ;*                        CARRY,TC1,M40,SATA,SATD,RDM,FRCT,SMUL                *
    2905              ;*   Save On Entry Regs : AR5                                                  *
    2906              ;*   Stack Frame        : Compact (No Frame Pointer, w/ debug)                 *
    2907              ;*   Total Frame Size   : 4 words                                              *
    2908              ;*                        (1 return address/alignment)                         *
    2909              ;*                        (2 local values)                                     *
    2910              ;*                        (1 register save area)                               *
    2911              ;*   Min System Stack   : 2 words                                              *
    2912              ;*******************************************************************************
    2913 000978       _vTaskIncrementTick:
    2914                      .dwcfi  cfa_offset, 1
    2915                      .dwcfi  save_reg_to_mem, 91, -1
    2916 000978 50D5          PSHBOTH XAR5
    2917                      .dwcfi  cfa_offset, 2
    2918                      .dwcfi  save_reg_to_mem, 26, -2
    2919 00097a 4EFE          AADD #-2, SP
    2920                      .dwcfi  cfa_offset, 4
    2921                      .dwpsn  file "../FreeRTOS/Source/tasks.c",line 1422,column 2,is_stmt
    2922 00097c A931          MOV *(#_uxSchedulerSuspended), AR1 ; |1422| 
         00097e 0000 
         000980 6A-  
    2923 000981 6D19          BCC $C$L76,AR1 != #0 ; |1422| 
         000983 00BC 
    2924                                                      ; branchcc occurs ; |1422| 
    2925                      .dwpsn  file "../FreeRTOS/Source/tasks.c",line 1424,column 3,is_stmt
    2926 000985 F731          ADD #1, *(#_xTickCount) ; |1424| 
         000987 0001 
         000989 0000 
         00098b 66-  
TMS320C55x Assembler PC v4.4.1 Fri Sep 07 02:27:27 2018

Tools Copyright (c) 1996-2012 Texas Instruments Incorporated
tasks.asm                                                            PAGE   66

    2927 00098c 20            NOP
    2928 00098d 20            NOP
    2929 00098e 20            NOP
    2930                      .dwpsn  file "../FreeRTOS/Source/tasks.c",line 1425,column 3,is_stmt
    2931 00098f A931          MOV *(#_xTickCount), AR1 ; |1425| 
         000991 0000 
         000993 66-  
    2932 000994 6D19          BCC $C$L73,AR1 != #0 ; |1425| 
         000996 0084 
    2933                                                      ; branchcc occurs ; |1425| 
    2934              
    2935              $C$DW$229       .dwtag  DW_TAG_lexical_block, DW_AT_low_pc(0x00), DW_AT_high_pc(0x00)
    2936              $C$DW$230       .dwtag  DW_TAG_variable, DW_AT_name("pxTemp")
    2937                      .dwattr $C$DW$230, DW_AT_TI_symbol_name("_pxTemp")
    2938                      .dwattr $C$DW$230, DW_AT_type(*$C$DW$T$55)
    2939                      .dwattr $C$DW$230, DW_AT_location[DW_OP_bregx 0x24 0]
    2940                      .dwpsn  file "../FreeRTOS/Source/tasks.c",line 1432,column 4,is_stmt
    2941 000998 ED31          MOV dbl(*(#_pxDelayedTaskList)), XAR3
         00099a BF00 
         00099c 0042-
    2942 00099e EB00          MOV XAR3, dbl(*SP(#0))
         0009a0 B5   
    2943                      .dwpsn  file "../FreeRTOS/Source/tasks.c",line 1433,column 4,is_stmt
    2944 0009a1 ED31          MOV dbl(*(#_pxOverflowDelayedTaskList)), XAR3
         0009a3 BF00 
         0009a5 0044-
    2945 0009a7 EB31          MOV XAR3, dbl(*(#_pxDelayedTaskList))
         0009a9 B500 
         0009ab 0042-
    2946                      .dwpsn  file "../FreeRTOS/Source/tasks.c",line 1434,column 4,is_stmt
    2947 0009ad ED00          MOV dbl(*SP(#0)), XAR3
         0009af BF   
    2948 0009b0 EB31          MOV XAR3, dbl(*(#_pxOverflowDelayedTaskList))
         0009b2 B500 
         0009b4 0044-
    2949                      .dwpsn  file "../FreeRTOS/Source/tasks.c",line 1435,column 4,is_stmt
    2950 0009b6 F731          ADD #1, *(#_xNumOfOverflows) ; |1435| 
         0009b8 0001 
         0009ba 0000 
         0009bc 6D-  
    2951                      .dwendtag $C$DW$229
    2952              
    2953              
    2954              $C$DW$231       .dwtag  DW_TAG_lexical_block, DW_AT_low_pc(0x00), DW_AT_high_pc(0x00)
    2955              ;* AR5   assigned to _pxTCB
    2956              $C$DW$232       .dwtag  DW_TAG_variable, DW_AT_name("pxTCB")
    2957                      .dwattr $C$DW$232, DW_AT_TI_symbol_name("_pxTCB")
    2958                      .dwattr $C$DW$232, DW_AT_type(*$C$DW$T$79)
    2959                      .dwattr $C$DW$232, DW_AT_location[DW_OP_reg27]
    2960                      .dwpsn  file "../FreeRTOS/Source/tasks.c",line 1439,column 3,is_stmt
    2961 0009bd 0600          B $C$L73  ; |1439| 
         0009bf 5C   
    2962                                                      ; branch occurs ; |1439| 
    2963 0009c0       $C$L70:    
    2964 0009c0       $C$DW$L$_vTaskIncrementTick$4$B:
TMS320C55x Assembler PC v4.4.1 Fri Sep 07 02:27:27 2018

Tools Copyright (c) 1996-2012 Texas Instruments Incorporated
tasks.asm                                                            PAGE   67

    2965 0009c0 A9B9          MOV *AR5(short(#4)), AR1 ; |1439| 
    2966 0009c2 AA31          MOV *(#_xTickCount), AR2 ; |1439| 
         0009c4 0000 
         0009c6 66-  
    2967 0009c7 12A8          CMPU AR2 >= AR1, TC1 ; |1439| 
         0009c9 94   
    2968 0009ca 0474          BCC $C$L77,!TC1 ; |1439| 
         0009cc 7B   
    2969                                                      ; branchcc occurs ; |1439| 
    2970 0009cd       $C$DW$L$_vTaskIncrementTick$4$E:
    2971 0009cd       $C$DW$L$_vTaskIncrementTick$5$B:
    2972 0009cd ECA1          AMAR *AR5, XAR0
         0009cf 8E   
    2973 0009d0 1404          AADD #4, AR0 ; |1439| 
         0009d2 84   
    2974              $C$DW$233       .dwtag  DW_TAG_TI_branch
    2975                      .dwattr $C$DW$233, DW_AT_low_pc(0x00)
    2976                      .dwattr $C$DW$233, DW_AT_name("_vListRemove")
    2977                      .dwattr $C$DW$233, DW_AT_TI_call
    2978 0009d3 6C00          CALL #_vListRemove ; |1439| 
         0009d5 0000!
    2979                                                      ; call occurs [#_vListRemove] ; |1439| 
    2980 0009d7 EDAD          MOV dbl(*AR5(#22)), XAR3
         0009d9 BF00 
         0009db 16   
    2981 0009dc 90B0          MOV XAR3, AC0
    2982 0009de 6500          BCC $C$L71,AC0 == #0 ; |1439| 
    2983                                                      ; branchcc occurs ; |1439| 
    2984 0009e0       $C$DW$L$_vTaskIncrementTick$5$E:
    2985 0009e0       $C$DW$L$_vTaskIncrementTick$6$B:
    2986 0009e0 ECA1          AMAR *AR5, XAR0
         0009e2 8E   
    2987 0009e3 140E          AADD #14, AR0 ; |1439| 
         0009e5 84   
    2988              $C$DW$234       .dwtag  DW_TAG_TI_branch
    2989                      .dwattr $C$DW$234, DW_AT_low_pc(0x00)
    2990                      .dwattr $C$DW$234, DW_AT_name("_vListRemove")
    2991                      .dwattr $C$DW$234, DW_AT_TI_call
    2992 0009e6 6C00          CALL #_vListRemove ; |1439| 
         0009e8 0000!
    2993                                                      ; call occurs [#_vListRemove] ; |1439| 
    2994 0009ea       $C$DW$L$_vTaskIncrementTick$6$E:
    2995 0009ea       $C$L71:    
    2996 0009ea       $C$DW$L$_vTaskIncrementTick$7$B:
    2997 0009ea A931          MOV *(#_uxTopReadyPriority), AR1 ; |1439| 
         0009ec 0000 
         0009ee 68-  
    2998 0009ef AAAD          MOV *AR5(#24), AR2 ; |1439| 
         0009f1 0018 
    2999 0009f3 1298          CMPU AR2 <= AR1, TC1 ; |1439| 
         0009f5 A4   
    3000 0009f6 64E4          BCC $C$L72,TC1 ; |1439| 
    3001                                                      ; branchcc occurs ; |1439| 
    3002 0009f8       $C$DW$L$_vTaskIncrementTick$7$E:
    3003 0009f8       $C$DW$L$_vTaskIncrementTick$8$B:
TMS320C55x Assembler PC v4.4.1 Fri Sep 07 02:27:27 2018

Tools Copyright (c) 1996-2012 Texas Instruments Incorporated
tasks.asm                                                            PAGE   68

    3004 0009f8 A9AD          MOV *AR5(#24), AR1 ; |1439| 
         0009fa 0018 
    3005 0009fc C931          MOV AR1, *(#_uxTopReadyPriority) ; |1439| 
         0009fe 0000 
         000a00 68-  
    3006 000a01       $C$DW$L$_vTaskIncrementTick$8$E:
    3007 000a01       $C$L72:    
    3008 000a01       $C$DW$L$_vTaskIncrementTick$9$B:
    3009 000a01 F8AD          MPYMK *AR5(#24), #10, AC0 ; |1439| 
         000a03 0A00 
         000a05 0018 
    3010 000a07 2209          MOV AC0, AR1 ; |1439| 
    3011 000a09 EC31          AMOV #_pxReadyTasksLists, XAR0 ; |1439| 
         000a0b 8E00 
         000a0d 0006-
    3012              
    3013 000a0f 1490          AADD AR1, AR0 ; |1439| 
         000a11 80   
    3014 000a12 1504  ||      AADD #4, AR5 ; |1439| 
         000a14 DC   
    3015              
    3016 000a15 ECA1          AMAR *AR5, XAR1
         000a17 9E   
    3017              $C$DW$235       .dwtag  DW_TAG_TI_branch
    3018                      .dwattr $C$DW$235, DW_AT_low_pc(0x00)
    3019                      .dwattr $C$DW$235, DW_AT_name("_vListInsertEnd")
    3020                      .dwattr $C$DW$235, DW_AT_TI_call
    3021 000a18 6C00          CALL #_vListInsertEnd ; |1439| 
         000a1a 0000!
    3022                                                      ; call occurs [#_vListInsertEnd] ; |1439| 
    3023 000a1c       $C$DW$L$_vTaskIncrementTick$9$E:
    3024 000a1c       $C$L73:    
    3025 000a1c       $C$DW$L$_vTaskIncrementTick$10$B:
    3026 000a1c ED31          MOV dbl(*(#_pxDelayedTaskList)), XAR3
         000a1e BF00 
         000a20 0042-
    3027 000a22 A961          MOV *AR3, AR1 ; |1439| 
    3028 000a24 6709          BCC $C$L74,AR1 == #0 ; |1439| 
    3029                                                      ; branchcc occurs ; |1439| 
    3030 000a26       $C$DW$L$_vTaskIncrementTick$10$E:
    3031 000a26       $C$DW$L$_vTaskIncrementTick$11$B:
    3032 000a26 ED31          MOV dbl(*(#_pxDelayedTaskList)), XAR3
         000a28 BF00 
         000a2a 0042-
    3033 000a2c ED7D          MOV dbl(*AR3(short(#6))), XAR3
         000a2e BF   
    3034 000a2f ED7D          MOV dbl(*AR3(short(#6))), XAR5
         000a31 DF   
    3035 000a32 4A06          B $C$L75  ; |1439| 
    3036                                                      ; branch occurs ; |1439| 
    3037 000a34       $C$DW$L$_vTaskIncrementTick$11$E:
    3038 000a34       $C$L74:    
    3039 000a34       $C$DW$L$_vTaskIncrementTick$12$B:
    3040 000a34 EC31          AMOV #0, XAR5 ; |1439| 
         000a36 DE00 
TMS320C55x Assembler PC v4.4.1 Fri Sep 07 02:27:27 2018

Tools Copyright (c) 1996-2012 Texas Instruments Incorporated
tasks.asm                                                            PAGE   69

         000a38 0000 
    3041 000a3a       $C$DW$L$_vTaskIncrementTick$12$E:
    3042 000a3a       $C$L75:    
    3043 000a3a       $C$DW$L$_vTaskIncrementTick$13$B:
    3044 000a3a 90D0          MOV XAR5, AC0
    3045 000a3c 0410          BCC $C$L70,AC0 != #0 ; |1439| 
         000a3e 81   
    3046                                                      ; branchcc occurs ; |1439| 
    3047              $C$DW$L$_vTaskIncrementTick$13$E:
    3048                      .dwendtag $C$DW$231
    3049              
    3050                      .dwpsn  file "../FreeRTOS/Source/tasks.c",line 1440,column 2,is_stmt
    3051 000a3f 4A07          B $C$L77  ; |1440| 
    3052                                                      ; branch occurs ; |1440| 
    3053 000a41       $C$L76:    
    3054                      .dwpsn  file "../FreeRTOS/Source/tasks.c",line 1443,column 3,is_stmt
    3055 000a41 F731          ADD #1, *(#_uxMissedTicks) ; |1443| 
         000a43 0001 
         000a45 0000 
         000a47 6B-  
    3056                      .dwpsn  file "../FreeRTOS/Source/tasks.c",line 1470,column 1,is_stmt
    3057 000a48       $C$L77:    
    3058 000a48 4E02          AADD #2, SP
    3059                      .dwcfi  cfa_offset, 2
    3060 000a4a 50D4          POPBOTH XAR5
    3061                      .dwcfi  restore_reg, 26
    3062                      .dwcfi  cfa_offset, 1
    3063              $C$DW$236       .dwtag  DW_TAG_TI_branch
    3064                      .dwattr $C$DW$236, DW_AT_low_pc(0x00)
    3065                      .dwattr $C$DW$236, DW_AT_TI_return
    3066 000a4c 4804          RET
    3067                                                      ; return occurs
    3068              
    3069              $C$DW$237       .dwtag  DW_TAG_TI_loop
    3070                      .dwattr $C$DW$237, DW_AT_name("F:\eZDSP_5535_Files\ccsws2\test\Debug\tasks.asm:$C$L73:1:1536312445")
    3071                      .dwattr $C$DW$237, DW_AT_TI_begin_file("../FreeRTOS/Source/tasks.c")
    3072                      .dwattr $C$DW$237, DW_AT_TI_begin_line(0x59f)
    3073                      .dwattr $C$DW$237, DW_AT_TI_end_line(0x59f)
    3074              $C$DW$238       .dwtag  DW_TAG_TI_loop_range
    3075                      .dwattr $C$DW$238, DW_AT_low_pc($C$DW$L$_vTaskIncrementTick$10$B)
    3076                      .dwattr $C$DW$238, DW_AT_high_pc($C$DW$L$_vTaskIncrementTick$10$E)
    3077              $C$DW$239       .dwtag  DW_TAG_TI_loop_range
    3078                      .dwattr $C$DW$239, DW_AT_low_pc($C$DW$L$_vTaskIncrementTick$11$B)
    3079                      .dwattr $C$DW$239, DW_AT_high_pc($C$DW$L$_vTaskIncrementTick$11$E)
    3080              $C$DW$240       .dwtag  DW_TAG_TI_loop_range
    3081                      .dwattr $C$DW$240, DW_AT_low_pc($C$DW$L$_vTaskIncrementTick$12$B)
    3082                      .dwattr $C$DW$240, DW_AT_high_pc($C$DW$L$_vTaskIncrementTick$12$E)
    3083              $C$DW$241       .dwtag  DW_TAG_TI_loop_range
    3084                      .dwattr $C$DW$241, DW_AT_low_pc($C$DW$L$_vTaskIncrementTick$13$B)
    3085                      .dwattr $C$DW$241, DW_AT_high_pc($C$DW$L$_vTaskIncrementTick$13$E)
    3086              $C$DW$242       .dwtag  DW_TAG_TI_loop_range
    3087                      .dwattr $C$DW$242, DW_AT_low_pc($C$DW$L$_vTaskIncrementTick$4$B)
    3088                      .dwattr $C$DW$242, DW_AT_high_pc($C$DW$L$_vTaskIncrementTick$4$E)
    3089              $C$DW$243       .dwtag  DW_TAG_TI_loop_range
    3090                      .dwattr $C$DW$243, DW_AT_low_pc($C$DW$L$_vTaskIncrementTick$5$B)
TMS320C55x Assembler PC v4.4.1 Fri Sep 07 02:27:27 2018

Tools Copyright (c) 1996-2012 Texas Instruments Incorporated
tasks.asm                                                            PAGE   70

    3091                      .dwattr $C$DW$243, DW_AT_high_pc($C$DW$L$_vTaskIncrementTick$5$E)
    3092              $C$DW$244       .dwtag  DW_TAG_TI_loop_range
    3093                      .dwattr $C$DW$244, DW_AT_low_pc($C$DW$L$_vTaskIncrementTick$6$B)
    3094                      .dwattr $C$DW$244, DW_AT_high_pc($C$DW$L$_vTaskIncrementTick$6$E)
    3095              $C$DW$245       .dwtag  DW_TAG_TI_loop_range
    3096                      .dwattr $C$DW$245, DW_AT_low_pc($C$DW$L$_vTaskIncrementTick$7$B)
    3097                      .dwattr $C$DW$245, DW_AT_high_pc($C$DW$L$_vTaskIncrementTick$7$E)
    3098              $C$DW$246       .dwtag  DW_TAG_TI_loop_range
    3099                      .dwattr $C$DW$246, DW_AT_low_pc($C$DW$L$_vTaskIncrementTick$8$B)
    3100                      .dwattr $C$DW$246, DW_AT_high_pc($C$DW$L$_vTaskIncrementTick$8$E)
    3101              $C$DW$247       .dwtag  DW_TAG_TI_loop_range
    3102                      .dwattr $C$DW$247, DW_AT_low_pc($C$DW$L$_vTaskIncrementTick$9$B)
    3103                      .dwattr $C$DW$247, DW_AT_high_pc($C$DW$L$_vTaskIncrementTick$9$E)
    3104                      .dwendtag $C$DW$237
    3105              
    3106                      .dwattr $C$DW$228, DW_AT_TI_end_file("../FreeRTOS/Source/tasks.c")
    3107                      .dwattr $C$DW$228, DW_AT_TI_end_line(0x5be)
    3108                      .dwattr $C$DW$228, DW_AT_TI_end_column(0x01)
    3109                      .dwendentry
    3110                      .dwendtag $C$DW$228
    3111              
    3112 000a4e               .sect   ".text"
    3113                      .align 4
    3114                      .global _vTaskCleanUpResources
    3115              
    3116              $C$DW$248       .dwtag  DW_TAG_subprogram, DW_AT_name("vTaskCleanUpResources")
    3117                      .dwattr $C$DW$248, DW_AT_low_pc(_vTaskCleanUpResources)
    3118                      .dwattr $C$DW$248, DW_AT_high_pc(0x00)
    3119                      .dwattr $C$DW$248, DW_AT_TI_symbol_name("_vTaskCleanUpResources")
    3120                      .dwattr $C$DW$248, DW_AT_external
    3121                      .dwattr $C$DW$248, DW_AT_TI_begin_file("../FreeRTOS/Source/tasks.c")
    3122                      .dwattr $C$DW$248, DW_AT_TI_begin_line(0x5c3)
    3123                      .dwattr $C$DW$248, DW_AT_TI_begin_column(0x07)
    3124                      .dwattr $C$DW$248, DW_AT_TI_max_frame_size(0x08)
    3125                      .dwpsn  file "../FreeRTOS/Source/tasks.c",line 1476,column 2,is_stmt,address _vTaskCleanUpResources
    3126              
    3127                      .dwfde $C$DW$CIE, _vTaskCleanUpResources
    3128              ;*******************************************************************************
    3129              ;* FUNCTION NAME: vTaskCleanUpResources                                        *
    3130              ;*                                                                             *
    3131              ;*   Function Uses Regs : AC0,AC0,AC1,AC1,T0,AR0,XAR0,AR1,AR2,XAR2,AR3,XAR3,SP,*
    3132              ;*                        CARRY,TC1,M40,SATA,SATD,RDM,FRCT,SMUL                *
    3133              ;*   Stack Frame        : Compact (No Frame Pointer, w/ debug)                 *
    3134              ;*   Total Frame Size   : 8 words                                              *
    3135              ;*                        (2 return address/alignment)                         *
    3136              ;*                        (6 local values)                                     *
    3137              ;*   Min System Stack   : 1 word                                               *
    3138              ;*******************************************************************************
    3139 000a50       _vTaskCleanUpResources:
    3140                      .dwcfi  cfa_offset, 1
    3141                      .dwcfi  save_reg_to_mem, 91, -1
    3142 000a50 4EF9          AADD #-7, SP
    3143                      .dwcfi  cfa_offset, 8
    3144              $C$DW$249       .dwtag  DW_TAG_variable, DW_AT_name("usQueue")
    3145                      .dwattr $C$DW$249, DW_AT_TI_symbol_name("_usQueue")
TMS320C55x Assembler PC v4.4.1 Fri Sep 07 02:27:27 2018

Tools Copyright (c) 1996-2012 Texas Instruments Incorporated
tasks.asm                                                            PAGE   71

    3146                      .dwattr $C$DW$249, DW_AT_type(*$C$DW$T$9)
    3147                      .dwattr $C$DW$249, DW_AT_location[DW_OP_bregx 0x24 0]
    3148              $C$DW$250       .dwtag  DW_TAG_variable, DW_AT_name("pxTCB")
    3149                      .dwattr $C$DW$250, DW_AT_TI_symbol_name("_pxTCB")
    3150                      .dwattr $C$DW$250, DW_AT_type(*$C$DW$T$131)
    3151                      .dwattr $C$DW$250, DW_AT_location[DW_OP_bregx 0x24 2]
    3152                      .dwpsn  file "../FreeRTOS/Source/tasks.c",line 1480,column 3,is_stmt
    3153 000a52 A931          MOV *(#_uxTopUsedPriority), AR1 ; |1480| 
         000a54 0000 
         000a56 67-  
    3154 000a57 4019          ADD #1, AR1 ; |1480| 
    3155 000a59 C900          MOV AR1, *SP(#0) ; |1480| 
    3156 000a5b       $C$L78:    
    3157 000a5b       $C$DW$L$_vTaskCleanUpResources$2$B:
    3158                      .dwpsn  file "../FreeRTOS/Source/tasks.c",line 1485,column 4,is_stmt
    3159 000a5b F700          SUB #1, *SP(#0) ; |1485| 
         000a5d FFFF 
    3160                      .dwpsn  file "../FreeRTOS/Source/tasks.c",line 1487,column 11,is_stmt
    3161 000a5f F800          MPYMK *SP(#0), #10, AC0 ; |1487| 
         000a61 0A00 
    3162 000a63 2204          MOV AC0, T0 ; |1487| 
    3163 000a65 EC31          AMOV #_pxReadyTasksLists, XAR3 ; |1487| 
         000a67 BE00 
         000a69 0006-
    3164 000a6b A96B          MOV *AR3(T0), AR1 ; |1487| 
    3165 000a6d 0409          BCC $C$L81,AR1 == #0 ; |1487| 
         000a6f 69   
