TMS320C55x Assembler PC v4.4.1 Thu Sep 13 03:23:49 2018

Tools Copyright (c) 1996-2012 Texas Instruments Incorporated
heap_5.asm                                                           PAGE    1

    1494              ; Temporary Registers Used: None
       1              ;*******************************************************************************
       2              ;* TMS320C55x C/C++ Codegen                                          PC v4.4.1 *
       3              ;* Date/Time created: Thu Sep 13 03:23:48 2018                                 *
       4              ;*******************************************************************************
       5                      .compiler_opts --hll_source=on --mem_model:code=flat --mem_model:data=large --object_format=coff --si
       6                      .mmregs
       7                      .cpl_on
       8                      .arms_on
       9                      .c54cm_off
      10                      .asg AR6, FP
      11                      .asg XAR6, XFP
      12                      .asg DPH, MDP
      13                      .model call=c55_std
      14                      .model mem=large
      15                      .noremark 5002  ; code respects overwrite rules
      16              ;*******************************************************************************
      17              ;* GLOBAL FILE PARAMETERS                                                      *
      18              ;*                                                                             *
      19              ;*   Architecture       : TMS320C55x                                           *
      20              ;*   Optimizing for     : Speed                                                *
      21              ;*   Memory             : Large Model (23-Bit Data Pointers)                   *
      22              ;*   Calls              : Normal Library ASM calls                             *
      23              ;*   Debug Info         : Standard TI Debug Information                        *
      24              ;*******************************************************************************
      25              
      26              $C$DW$CU        .dwtag  DW_TAG_compile_unit
      27                      .dwattr $C$DW$CU, DW_AT_name("../FreeRTOS/Source/portable/MemMang/heap_5.c")
      28                      .dwattr $C$DW$CU, DW_AT_producer("TMS320C55x C/C++ Codegen PC v4.4.1 Copyright (c) 1996-2012 Texas In
      29                      .dwattr $C$DW$CU, DW_AT_TI_version(0x01)
      30                      .dwattr $C$DW$CU, DW_AT_comp_dir("F:\eZdsp_DBG\eZDSP_5535_Files\ccsws2\test\Debug")
      31              ;******************************************************************************
      32              ;* CINIT RECORDS                                                              *
      33              ;******************************************************************************
      34 000000               .sect   ".cinit"
      35                      .align  1
      36 000000 0002          .field          2,16
      37 000001 0000-         .field          _pxEnd+0,24
         000002 0400 
      38 000002 0400          .field          0,8
      39 000003 0000          .field  0,32                    ; _pxEnd @ 0
         000004 0000 
      40              
      41 000005               .sect   ".cinit"
      42                      .align  1
      43 000005 0001          .field          1,16
      44 000006 0000-         .field          _xFreeBytesRemaining+0,24
         000007 0600 
      45 000007 0600          .field          0,8
      46 000008 0000          .field  0,16                    ; _xFreeBytesRemaining @ 0
      47              
      48 000009               .sect   ".cinit"
      49                      .align  1
      50 000009 0001          .field          1,16
      51 00000a 0000-         .field          _xMinimumEverFreeBytesRemaining+0,24
TMS320C55x Assembler PC v4.4.1 Thu Sep 13 03:23:49 2018

Tools Copyright (c) 1996-2012 Texas Instruments Incorporated
heap_5.asm                                                           PAGE    2

         00000b 0700 
      52 00000b 0700          .field          0,8
      53 00000c 0000          .field  0,16                    ; _xMinimumEverFreeBytesRemaining @ 0
      54              
      55 00000d               .sect   ".cinit"
      56                      .align  1
      57 00000d 0001          .field          1,16
      58 00000e 0000-         .field          _xBlockAllocatedBit+0,24
         00000f 0800 
      59 00000f 0800          .field          0,8
      60 000010 0000          .field  0,16                    ; _xBlockAllocatedBit @ 0
      61              
      62              
      63              $C$DW$1 .dwtag  DW_TAG_subprogram, DW_AT_name("vTaskSuspendAll")
      64                      .dwattr $C$DW$1, DW_AT_TI_symbol_name("_vTaskSuspendAll")
      65                      .dwattr $C$DW$1, DW_AT_declaration
      66                      .dwattr $C$DW$1, DW_AT_external
      67              
      68              $C$DW$2 .dwtag  DW_TAG_subprogram, DW_AT_name("xTaskResumeAll")
      69                      .dwattr $C$DW$2, DW_AT_TI_symbol_name("_xTaskResumeAll")
      70                      .dwattr $C$DW$2, DW_AT_type(*$C$DW$T$39)
      71                      .dwattr $C$DW$2, DW_AT_declaration
      72                      .dwattr $C$DW$2, DW_AT_external
      73              
      74              $C$DW$3 .dwtag  DW_TAG_subprogram, DW_AT_name("vApplicationMallocFailedHook")
      75                      .dwattr $C$DW$3, DW_AT_TI_symbol_name("_vApplicationMallocFailedHook")
      76                      .dwattr $C$DW$3, DW_AT_declaration
      77                      .dwattr $C$DW$3, DW_AT_external
      78 000000               .sect   ".const"
      79                      .align  1
      80 000000       _xHeapStructSize:
      81 000000 0004          .field  4,16                    ; _xHeapStructSize @ 0
      82              
      83              $C$DW$4 .dwtag  DW_TAG_variable, DW_AT_name("xHeapStructSize")
      84                      .dwattr $C$DW$4, DW_AT_TI_symbol_name("_xHeapStructSize")
      85                      .dwattr $C$DW$4, DW_AT_type(*$C$DW$T$43)
      86                      .dwattr $C$DW$4, DW_AT_location[DW_OP_addr _xHeapStructSize]
      87 000000               .bss    _xStart,4,0,2
      88              $C$DW$5 .dwtag  DW_TAG_variable, DW_AT_name("xStart")
      89                      .dwattr $C$DW$5, DW_AT_TI_symbol_name("_xStart")
      90                      .dwattr $C$DW$5, DW_AT_type(*$C$DW$T$25)
      91                      .dwattr $C$DW$5, DW_AT_location[DW_OP_addr _xStart]
      92 000004               .bss    _pxEnd,2,0,2
      93              $C$DW$6 .dwtag  DW_TAG_variable, DW_AT_name("pxEnd")
      94                      .dwattr $C$DW$6, DW_AT_TI_symbol_name("_pxEnd")
      95                      .dwattr $C$DW$6, DW_AT_type(*$C$DW$T$26)
      96                      .dwattr $C$DW$6, DW_AT_location[DW_OP_addr _pxEnd]
      97 000006               .bss    _xFreeBytesRemaining,1,0,0
      98              $C$DW$7 .dwtag  DW_TAG_variable, DW_AT_name("xFreeBytesRemaining")
      99                      .dwattr $C$DW$7, DW_AT_TI_symbol_name("_xFreeBytesRemaining")
     100                      .dwattr $C$DW$7, DW_AT_type(*$C$DW$T$20)
     101                      .dwattr $C$DW$7, DW_AT_location[DW_OP_addr _xFreeBytesRemaining]
     102 000007               .bss    _xMinimumEverFreeBytesRemaining,1,0,0
     103              $C$DW$8 .dwtag  DW_TAG_variable, DW_AT_name("xMinimumEverFreeBytesRemaining")
     104                      .dwattr $C$DW$8, DW_AT_TI_symbol_name("_xMinimumEverFreeBytesRemaining")
TMS320C55x Assembler PC v4.4.1 Thu Sep 13 03:23:49 2018

Tools Copyright (c) 1996-2012 Texas Instruments Incorporated
heap_5.asm                                                           PAGE    3

     105                      .dwattr $C$DW$8, DW_AT_type(*$C$DW$T$20)
     106                      .dwattr $C$DW$8, DW_AT_location[DW_OP_addr _xMinimumEverFreeBytesRemaining]
     107 000008               .bss    _xBlockAllocatedBit,1,0,0
     108              $C$DW$9 .dwtag  DW_TAG_variable, DW_AT_name("xBlockAllocatedBit")
     109                      .dwattr $C$DW$9, DW_AT_TI_symbol_name("_xBlockAllocatedBit")
     110                      .dwattr $C$DW$9, DW_AT_type(*$C$DW$T$20)
     111                      .dwattr $C$DW$9, DW_AT_location[DW_OP_addr _xBlockAllocatedBit]
     112              ;       F:\ti\ccs8p1\ccsv8\tools\compiler\alt-install-ti-cgt-c55x_4.4.1\bin\acp55.exe -@f:\\AppData\\Local\\T
     113 000000               .sect   ".text"
     114                      .align 4
     115                      .global _pvPortMalloc
     116              
     117              $C$DW$10        .dwtag  DW_TAG_subprogram, DW_AT_name("pvPortMalloc")
     118                      .dwattr $C$DW$10, DW_AT_low_pc(_pvPortMalloc)
     119                      .dwattr $C$DW$10, DW_AT_high_pc(0x00)
     120                      .dwattr $C$DW$10, DW_AT_TI_symbol_name("_pvPortMalloc")
     121                      .dwattr $C$DW$10, DW_AT_external
     122                      .dwattr $C$DW$10, DW_AT_type(*$C$DW$T$3)
     123                      .dwattr $C$DW$10, DW_AT_TI_begin_file("../FreeRTOS/Source/portable/MemMang/heap_5.c")
     124                      .dwattr $C$DW$10, DW_AT_TI_begin_line(0x84)
     125                      .dwattr $C$DW$10, DW_AT_TI_begin_column(0x07)
     126                      .dwattr $C$DW$10, DW_AT_TI_max_frame_size(0x0c)
     127                      .dwpsn  file "../FreeRTOS/Source/portable/MemMang/heap_5.c",line 133,column 1,is_stmt,address _pvPort
     128              
     129                      .dwfde $C$DW$CIE, _pvPortMalloc
     130              $C$DW$11        .dwtag  DW_TAG_formal_parameter, DW_AT_name("xWantedSize")
     131                      .dwattr $C$DW$11, DW_AT_TI_symbol_name("_xWantedSize")
     132                      .dwattr $C$DW$11, DW_AT_type(*$C$DW$T$20)
     133                      .dwattr $C$DW$11, DW_AT_location[DW_OP_reg12]
     134              ;*******************************************************************************
     135              ;* FUNCTION NAME: pvPortMalloc                                                 *
     136              ;*                                                                             *
     137              ;*   Function Uses Regs : AC0,AC0,AC1,AC1,T0,AR0,XAR0,AR1,AR2,XAR2,AR3,XAR3,SP,*
     138              ;*                        CARRY,TC1,M40,SATA,SATD,RDM,FRCT,SMUL                *
     139              ;*   Stack Frame        : Compact (No Frame Pointer, w/ debug)                 *
     140              ;*   Total Frame Size   : 12 words                                             *
     141              ;*                        (2 return address/alignment)                         *
     142              ;*                        (10 local values)                                    *
     143              ;*   Min System Stack   : 1 word                                               *
     144              ;*******************************************************************************
     145 000000       _pvPortMalloc:
     146                      .dwcfi  cfa_offset, 1
     147                      .dwcfi  save_reg_to_mem, 91, -1
     148 000000 4EF5          AADD #-11, SP
     149                      .dwcfi  cfa_offset, 12
     150              $C$DW$12        .dwtag  DW_TAG_variable, DW_AT_name("xWantedSize")
     151                      .dwattr $C$DW$12, DW_AT_TI_symbol_name("_xWantedSize")
     152                      .dwattr $C$DW$12, DW_AT_type(*$C$DW$T$20)
     153                      .dwattr $C$DW$12, DW_AT_location[DW_OP_bregx 0x24 0]
     154              $C$DW$13        .dwtag  DW_TAG_variable, DW_AT_name("pxBlock")
     155                      .dwattr $C$DW$13, DW_AT_TI_symbol_name("_pxBlock")
     156                      .dwattr $C$DW$13, DW_AT_type(*$C$DW$T$26)
     157                      .dwattr $C$DW$13, DW_AT_location[DW_OP_bregx 0x24 2]
     158              $C$DW$14        .dwtag  DW_TAG_variable, DW_AT_name("pxPreviousBlock")
     159                      .dwattr $C$DW$14, DW_AT_TI_symbol_name("_pxPreviousBlock")
TMS320C55x Assembler PC v4.4.1 Thu Sep 13 03:23:49 2018

Tools Copyright (c) 1996-2012 Texas Instruments Incorporated
heap_5.asm                                                           PAGE    4

     160                      .dwattr $C$DW$14, DW_AT_type(*$C$DW$T$26)
     161                      .dwattr $C$DW$14, DW_AT_location[DW_OP_bregx 0x24 4]
     162              $C$DW$15        .dwtag  DW_TAG_variable, DW_AT_name("pxNewBlockLink")
     163                      .dwattr $C$DW$15, DW_AT_TI_symbol_name("_pxNewBlockLink")
     164                      .dwattr $C$DW$15, DW_AT_type(*$C$DW$T$26)
     165                      .dwattr $C$DW$15, DW_AT_location[DW_OP_bregx 0x24 6]
     166              $C$DW$16        .dwtag  DW_TAG_variable, DW_AT_name("pvReturn")
     167                      .dwattr $C$DW$16, DW_AT_TI_symbol_name("_pvReturn")
     168                      .dwattr $C$DW$16, DW_AT_type(*$C$DW$T$3)
     169                      .dwattr $C$DW$16, DW_AT_location[DW_OP_bregx 0x24 8]
     170 000002 C400          MOV T0, *SP(#0) ; |133| 
     171                      .dwpsn  file "../FreeRTOS/Source/portable/MemMang/heap_5.c",line 135,column 7,is_stmt
     172 000004 3C00          MOV #0, AC0 ; |135| 
     173 000006 EB10          MOV AC0, dbl(*SP(#8))
         000008 08   
     174                      .dwpsn  file "../FreeRTOS/Source/portable/MemMang/heap_5.c",line 141,column 2,is_stmt
     175              $C$DW$17        .dwtag  DW_TAG_TI_branch
     176                      .dwattr $C$DW$17, DW_AT_low_pc(0x00)
     177                      .dwattr $C$DW$17, DW_AT_name("_vTaskSuspendAll")
     178                      .dwattr $C$DW$17, DW_AT_TI_call
     179 000009 6C00          CALL #_vTaskSuspendAll ; |141| 
         00000b 0000!
     180                                                      ; call occurs [#_vTaskSuspendAll] ; |141| 
     181                      .dwpsn  file "../FreeRTOS/Source/portable/MemMang/heap_5.c",line 147,column 3,is_stmt
     182 00000d A931          MOV *(#_xBlockAllocatedBit), AR1 ; |147| 
         00000f 0000 
         000011 08-  
     183 000012 D900          AND *SP(#0), AR1, AR1 ; |147| 
         000014 99   
     184 000015 6D19          BCC $C$L7,AR1 != #0 ; |147| 
         000017 0105 
     185                                                      ; branchcc occurs ; |147| 
     186                      .dwpsn  file "../FreeRTOS/Source/portable/MemMang/heap_5.c",line 151,column 4,is_stmt
     187 000019 A900          MOV *SP(#0), AR1 ; |151| 
     188 00001b 0409          BCC $C$L1,AR1 == #0 ; |151| 
         00001d 1C   
     189                                                      ; branchcc occurs ; |151| 
     190                      .dwpsn  file "../FreeRTOS/Source/portable/MemMang/heap_5.c",line 153,column 5,is_stmt
     191 00001e A931          MOV *(#_xHeapStructSize), AR1 ; |153| 
         000020 0000 
         000022 00+  
     192 000023 D600          ADD *SP(#0), AR1, AR1 ; |153| 
         000025 99   
     193 000026 C900          MOV AR1, *SP(#0) ; |153| 
     194                      .dwpsn  file "../FreeRTOS/Source/portable/MemMang/heap_5.c",line 157,column 5,is_stmt
     195 000028 F200          BAND *SP(#0), #3, TC1 ; |157| 
         00002a 0003 
     196 00002c 6674          BCC $C$L1,!TC1 ; |157| 
     197                                                      ; branchcc occurs ; |157| 
     198                      .dwpsn  file "../FreeRTOS/Source/portable/MemMang/heap_5.c",line 160,column 6,is_stmt
     199 00002e 1803          AND #0x0003, AR1, AR1 ; |160| 
         000030 99   
     200 000031 D800          SUB AR1, *SP(#0), AR1 ; |160| 
         000033 99   
     201 000034 4049          ADD #4, AR1 ; |160| 
TMS320C55x Assembler PC v4.4.1 Thu Sep 13 03:23:49 2018

Tools Copyright (c) 1996-2012 Texas Instruments Incorporated
heap_5.asm                                                           PAGE    5

     202 000036 C900          MOV AR1, *SP(#0) ; |160| 
     203                      .dwpsn  file "../FreeRTOS/Source/portable/MemMang/heap_5.c",line 161,column 5,is_stmt
     204 000038 4A00          B $C$L1   ; |161| 
     205                                                      ; branch occurs ; |161| 
     206 00003a       $C$L1:    
     207                      .dwpsn  file "../FreeRTOS/Source/portable/MemMang/heap_5.c",line 172,column 4,is_stmt
     208 00003a 6D09          BCC $C$L7,AR1 == #0 ; |172| 
         00003c 00E0 
     209                                                      ; branchcc occurs ; |172| 
     210 00003e A931          MOV *(#_xFreeBytesRemaining), AR1 ; |172| 
         000040 0000 
         000042 06-  
     211 000043 AA00          MOV *SP(#0), AR2 ; |172| 
     212 000045 1294          CMPU AR2 > AR1, TC1 ; |172| 
         000047 A4   
     213 000048 6D64          BCC $C$L7,TC1 ; |172| 
         00004a 00D2 
     214                                                      ; branchcc occurs ; |172| 
     215                      .dwpsn  file "../FreeRTOS/Source/portable/MemMang/heap_5.c",line 176,column 5,is_stmt
     216 00004c EC31          AMOV #_xStart, XAR3 ; |176| 
         00004e BE00 
         000050 0000-
     217 000052 EB08          MOV XAR3, dbl(*SP(#4))
         000054 B5   
     218                      .dwpsn  file "../FreeRTOS/Source/portable/MemMang/heap_5.c",line 177,column 5,is_stmt
     219 000055 ED31          MOV dbl(*(#_xStart)), XAR3
         000057 BF00 
         000059 0000-
     220 00005b EB04          MOV XAR3, dbl(*SP(#2))
         00005d B5   
     221                      .dwpsn  file "../FreeRTOS/Source/portable/MemMang/heap_5.c",line 178,column 5,is_stmt
     222 00005e 4A0F          B $C$L3   ; |178| 
     223                                                      ; branch occurs ; |178| 
     224 000060       $C$L2:    
     225 000060       $C$DW$L$_pvPortMalloc$9$B:
     226                      .dwpsn  file "../FreeRTOS/Source/portable/MemMang/heap_5.c",line 180,column 6,is_stmt
     227 000060 ED04          MOV dbl(*SP(#2)), XAR3
         000062 BF   
     228 000063 EB08          MOV XAR3, dbl(*SP(#4))
         000065 B5   
     229                      .dwpsn  file "../FreeRTOS/Source/portable/MemMang/heap_5.c",line 181,column 6,is_stmt
     230 000066 ED04          MOV dbl(*SP(#2)), XAR3
         000068 BF   
     231 000069 ED61          MOV dbl(*AR3), XAR3
         00006b BF   
     232 00006c EB04          MOV XAR3, dbl(*SP(#2))
         00006e B5   
     233 00006f       $C$DW$L$_pvPortMalloc$9$E:
     234 00006f       $C$L3:    
     235 00006f       $C$DW$L$_pvPortMalloc$10$B:
     236                      .dwpsn  file "../FreeRTOS/Source/portable/MemMang/heap_5.c",line 178,column 12,is_stmt
     237 00006f A900          MOV *SP(#0), AR1 ; |178| 
     238 000071 AA75          MOV *AR3(short(#2)), AR2 ; |178| 
     239 000073 12A8          CMPU AR2 >= AR1, TC1 ; |178| 
         000075 94   
TMS320C55x Assembler PC v4.4.1 Thu Sep 13 03:23:49 2018

Tools Copyright (c) 1996-2012 Texas Instruments Incorporated
heap_5.asm                                                           PAGE    6

     240 000076 6464          BCC $C$L4,TC1 ; |178| 
     241                                                      ; branchcc occurs ; |178| 
     242 000078       $C$DW$L$_pvPortMalloc$10$E:
     243 000078       $C$DW$L$_pvPortMalloc$11$B:
     244 000078 ED61          MOV dbl(*AR3), XAR3
         00007a BF   
     245 00007b 90B0          MOV XAR3, AC0
     246 00007d 0410          BCC $C$L2,AC0 != #0 ; |178| 
         00007f E0   
     247                                                      ; branchcc occurs ; |178| 
     248 000080       $C$DW$L$_pvPortMalloc$11$E:
     249 000080       $C$L4:    
     250                      .dwpsn  file "../FreeRTOS/Source/portable/MemMang/heap_5.c",line 186,column 5,is_stmt
     251 000080 ED31          MOV dbl(*(#_pxEnd)), XAR3
         000082 BF00 
         000084 0004-
     252 000086 90B0          MOV XAR3, AC0
     253 000088 ED04          MOV dbl(*SP(#2)), XAR3
         00008a BF   
     254 00008b 90B1          MOV XAR3, AC1
     255 00008d 1210          CMPU AC1 == AC0, TC1 ; |186| 
         00008f 04   
     256 000090 6D64          BCC $C$L7,TC1 ; |186| 
         000092 008A 
     257                                                      ; branchcc occurs ; |186| 
     258                      .dwpsn  file "../FreeRTOS/Source/portable/MemMang/heap_5.c",line 190,column 6,is_stmt
     259 000094 ED08          MOV dbl(*SP(#4)), XAR3
         000096 BF   
     260 000097 A931          MOV *(#_xHeapStructSize), AR1 ; |190| 
         000099 0000 
         00009b 00+  
     261 00009c ED61          MOV dbl(*AR3), XAR3
         00009e BF   
     262              
     263 00009f 8E10          MOV XAR3, dbl(*SP(#8))
         0000a1 BB10 
         0000a3 B590 
     264              ||      AADD AR1, AR3 ; |190| 
     265              
     266                      .dwpsn  file "../FreeRTOS/Source/portable/MemMang/heap_5.c",line 194,column 6,is_stmt
     267 0000a5 ED08          MOV dbl(*SP(#4)), XAR2
         0000a7 AF   
     268 0000a8 ED04          MOV dbl(*SP(#2)), XAR3
         0000aa BF   
     269 0000ab 8061          MOV dbl(*AR3), dbl(*AR2)
         0000ad 00   
     270                      .dwpsn  file "../FreeRTOS/Source/portable/MemMang/heap_5.c",line 198,column 6,is_stmt
     271 0000ae ED04          MOV dbl(*SP(#2)), XAR3
         0000b0 BF   
     272 0000b1 A931          MOV *(#_xHeapStructSize), AR1 ; |198| 
         0000b3 0000 
         0000b5 00+  
     273 0000b6 A075          MOV *AR3(short(#2)), AC0 ; |198| 
     274 0000b8 DF00          SUB uns(*SP(#0)), AC0, AC0 ; |198| 
         0000ba 0F   
TMS320C55x Assembler PC v4.4.1 Thu Sep 13 03:23:49 2018

Tools Copyright (c) 1996-2012 Texas Instruments Incorporated
heap_5.asm                                                           PAGE    7

     275 0000bb 5090          SFTL AR1, #1 ; |198| 
     276 0000bd 220A          MOV AC0, AR2 ; |198| 
     277 0000bf 1298          CMPU AR2 <= AR1, TC1 ; |198| 
         0000c1 A4   
     278 0000c2 0464          BCC $C$L5,TC1 ; |198| 
         0000c4 22   
     279                                                      ; branchcc occurs ; |198| 
     280                      .dwpsn  file "../FreeRTOS/Source/portable/MemMang/heap_5.c",line 204,column 7,is_stmt
     281 0000c5 A900          MOV *SP(#0), AR1 ; |204| 
     282              
     283 0000c7 8E0C          MOV XAR3, dbl(*SP(#6))
         0000c9 BB10 
         0000cb B590 
     284              ||      AADD AR1, AR3 ; |204| 
     285              
     286                      .dwpsn  file "../FreeRTOS/Source/portable/MemMang/heap_5.c",line 208,column 7,is_stmt
     287 0000cd ED04          MOV dbl(*SP(#2)), XAR3
         0000cf BF   
     288 0000d0 A075          MOV *AR3(short(#2)), AC0 ; |208| 
     289 0000d2 ED0C          MOV dbl(*SP(#6)), XAR3
         0000d4 BF   
     290 0000d5 DF00          SUB uns(*SP(#0)), AC0, AC0 ; |208| 
         0000d7 0F   
     291 0000d8 C075          MOV AC0, *AR3(short(#2)) ; |208| 
     292                      .dwpsn  file "../FreeRTOS/Source/portable/MemMang/heap_5.c",line 209,column 7,is_stmt
     293 0000da ED04          MOV dbl(*SP(#2)), XAR3
         0000dc BF   
     294 0000dd A900          MOV *SP(#0), AR1 ; |209| 
     295 0000df C975          MOV AR1, *AR3(short(#2)) ; |209| 
     296                      .dwpsn  file "../FreeRTOS/Source/portable/MemMang/heap_5.c",line 212,column 7,is_stmt
     297 0000e1 ED0C          MOV dbl(*SP(#6)), XAR0
         0000e3 8F   
     298              $C$DW$18        .dwtag  DW_TAG_TI_branch
     299                      .dwattr $C$DW$18, DW_AT_low_pc(0x00)
     300                      .dwattr $C$DW$18, DW_AT_name("_prvInsertBlockIntoFreeList")
     301                      .dwattr $C$DW$18, DW_AT_TI_call
     302 0000e4 0800          CALL #_prvInsertBlockIntoFreeList ; |212| 
         0000e6 C9   
     303                                                      ; call occurs [#_prvInsertBlockIntoFreeList] ; |212| 
     304                      .dwpsn  file "../FreeRTOS/Source/portable/MemMang/heap_5.c",line 213,column 6,is_stmt
     305 0000e7       $C$L5:    
     306                      .dwpsn  file "../FreeRTOS/Source/portable/MemMang/heap_5.c",line 219,column 6,is_stmt
     307 0000e7 ED04          MOV dbl(*SP(#2)), XAR3
         0000e9 BF   
     308 0000ea A031          MOV *(#_xFreeBytesRemaining), AC0 ; |219| 
         0000ec 0000 
         0000ee 06-  
     309 0000ef DF75          SUB uns(*AR3(short(#2))), AC0, AC0 ; |219| 
         0000f1 0F   
     310 0000f2 C031          MOV AC0, *(#_xFreeBytesRemaining) ; |219| 
         0000f4 0000 
         0000f6 06-  
     311                      .dwpsn  file "../FreeRTOS/Source/portable/MemMang/heap_5.c",line 221,column 6,is_stmt
     312 0000f7 A931          MOV *(#_xMinimumEverFreeBytesRemaining), AR1 ; |221| 
         0000f9 0000 
TMS320C55x Assembler PC v4.4.1 Thu Sep 13 03:23:49 2018

Tools Copyright (c) 1996-2012 Texas Instruments Incorporated
heap_5.asm                                                           PAGE    8

         0000fb 07-  
     313 0000fc 220A          MOV AC0, AR2 ; |221| 
     314 0000fe 12A8          CMPU AR2 >= AR1, TC1 ; |221| 
         000100 94   
     315 000101 63E4          BCC $C$L6,TC1 ; |221| 
     316                                                      ; branchcc occurs ; |221| 
     317                      .dwpsn  file "../FreeRTOS/Source/portable/MemMang/heap_5.c",line 223,column 7,is_stmt
     318 000103 22A9          MOV AR2, AR1
     319 000105 C931          MOV AR1, *(#_xMinimumEverFreeBytesRemaining) ; |223| 
         000107 0000 
         000109 07-  
     320                      .dwpsn  file "../FreeRTOS/Source/portable/MemMang/heap_5.c",line 224,column 6,is_stmt
     321 00010a       $C$L6:    
     322                      .dwpsn  file "../FreeRTOS/Source/portable/MemMang/heap_5.c",line 232,column 6,is_stmt
     323 00010a A931          MOV *(#_xBlockAllocatedBit), AR1 ; |232| 
         00010c 0000 
         00010e 08-  
     324 00010f DA75          OR *AR3(short(#2)), AR1, AR1 ; |232| 
         000111 99   
     325 000112 C975          MOV AR1, *AR3(short(#2)) ; |232| 
     326                      .dwpsn  file "../FreeRTOS/Source/portable/MemMang/heap_5.c",line 233,column 6,is_stmt
     327 000114 ED04          MOV dbl(*SP(#2)), XAR3
         000116 BF   
     328 000117 3C00          MOV #0, AC0 ; |233| 
     329 000119 EB61          MOV AC0, dbl(*AR3)
         00011b 08   
     330                      .dwpsn  file "../FreeRTOS/Source/portable/MemMang/heap_5.c",line 234,column 5,is_stmt
     331 00011c 4A00          B $C$L7   ; |234| 
     332                                                      ; branch occurs ; |234| 
     333 00011e       $C$L7:    
     334                      .dwpsn  file "../FreeRTOS/Source/portable/MemMang/heap_5.c",line 252,column 2,is_stmt
     335              $C$DW$19        .dwtag  DW_TAG_TI_branch
     336                      .dwattr $C$DW$19, DW_AT_low_pc(0x00)
     337                      .dwattr $C$DW$19, DW_AT_name("_xTaskResumeAll")
     338                      .dwattr $C$DW$19, DW_AT_TI_call
     339 00011e 6C00          CALL #_xTaskResumeAll ; |252| 
         000120 0000!
     340                                                      ; call occurs [#_xTaskResumeAll] ; |252| 
     341                      .dwpsn  file "../FreeRTOS/Source/portable/MemMang/heap_5.c",line 256,column 3,is_stmt
     342 000122 ED10          MOV dbl(*SP(#8)), XAR3
         000124 BF   
     343 000125 90B0          MOV XAR3, AC0
     344 000127 6210          BCC $C$L8,AC0 != #0 ; |256| 
     345                                                      ; branchcc occurs ; |256| 
     346                      .dwpsn  file "../FreeRTOS/Source/portable/MemMang/heap_5.c",line 259,column 4,is_stmt
     347              $C$DW$20        .dwtag  DW_TAG_TI_branch
     348                      .dwattr $C$DW$20, DW_AT_low_pc(0x00)
     349                      .dwattr $C$DW$20, DW_AT_name("_vApplicationMallocFailedHook")
     350                      .dwattr $C$DW$20, DW_AT_TI_call
     351 000129 6C00          CALL #_vApplicationMallocFailedHook ; |259| 
         00012b 0000!
     352                                                      ; call occurs [#_vApplicationMallocFailedHook] ; |259| 
     353                      .dwpsn  file "../FreeRTOS/Source/portable/MemMang/heap_5.c",line 260,column 3,is_stmt
     354 00012d       $C$L8:    
     355                      .dwpsn  file "../FreeRTOS/Source/portable/MemMang/heap_5.c",line 268,column 2,is_stmt
TMS320C55x Assembler PC v4.4.1 Thu Sep 13 03:23:49 2018

Tools Copyright (c) 1996-2012 Texas Instruments Incorporated
heap_5.asm                                                           PAGE    9

     356 00012d ED10          MOV dbl(*SP(#8)), XAR0
         00012f 8F   
     357                      .dwpsn  file "../FreeRTOS/Source/portable/MemMang/heap_5.c",line 269,column 1,is_stmt
     358 000130 4E0B          AADD #11, SP
     359                      .dwcfi  cfa_offset, 1
     360              $C$DW$21        .dwtag  DW_TAG_TI_branch
     361                      .dwattr $C$DW$21, DW_AT_low_pc(0x00)
     362                      .dwattr $C$DW$21, DW_AT_TI_return
     363 000132 4804          RET
     364                                                      ; return occurs
     365              
     366              $C$DW$22        .dwtag  DW_TAG_TI_loop
     367                      .dwattr $C$DW$22, DW_AT_name("F:\eZdsp_DBG\eZDSP_5535_Files\ccsws2\test\Debug\heap_5.asm:$C$L3:1:1536
     368                      .dwattr $C$DW$22, DW_AT_TI_begin_file("../FreeRTOS/Source/portable/MemMang/heap_5.c")
     369                      .dwattr $C$DW$22, DW_AT_TI_begin_line(0xb2)
     370                      .dwattr $C$DW$22, DW_AT_TI_end_line(0xb5)
     371              $C$DW$23        .dwtag  DW_TAG_TI_loop_range
     372                      .dwattr $C$DW$23, DW_AT_low_pc($C$DW$L$_pvPortMalloc$10$B)
     373                      .dwattr $C$DW$23, DW_AT_high_pc($C$DW$L$_pvPortMalloc$10$E)
     374              $C$DW$24        .dwtag  DW_TAG_TI_loop_range
     375                      .dwattr $C$DW$24, DW_AT_low_pc($C$DW$L$_pvPortMalloc$11$B)
     376                      .dwattr $C$DW$24, DW_AT_high_pc($C$DW$L$_pvPortMalloc$11$E)
     377              $C$DW$25        .dwtag  DW_TAG_TI_loop_range
     378                      .dwattr $C$DW$25, DW_AT_low_pc($C$DW$L$_pvPortMalloc$9$B)
     379                      .dwattr $C$DW$25, DW_AT_high_pc($C$DW$L$_pvPortMalloc$9$E)
     380                      .dwendtag $C$DW$22
     381              
     382                      .dwattr $C$DW$10, DW_AT_TI_end_file("../FreeRTOS/Source/portable/MemMang/heap_5.c")
     383                      .dwattr $C$DW$10, DW_AT_TI_end_line(0x10d)
     384                      .dwattr $C$DW$10, DW_AT_TI_end_column(0x01)
     385                      .dwendentry
     386                      .dwendtag $C$DW$10
     387              
     388 000134               .sect   ".text"
     389                      .align 4
     390                      .global _vPortFree
     391              
     392              $C$DW$26        .dwtag  DW_TAG_subprogram, DW_AT_name("vPortFree")
     393                      .dwattr $C$DW$26, DW_AT_low_pc(_vPortFree)
     394                      .dwattr $C$DW$26, DW_AT_high_pc(0x00)
     395                      .dwattr $C$DW$26, DW_AT_TI_symbol_name("_vPortFree")
     396                      .dwattr $C$DW$26, DW_AT_external
     397                      .dwattr $C$DW$26, DW_AT_TI_begin_file("../FreeRTOS/Source/portable/MemMang/heap_5.c")
     398                      .dwattr $C$DW$26, DW_AT_TI_begin_line(0x110)
     399                      .dwattr $C$DW$26, DW_AT_TI_begin_column(0x06)
     400                      .dwattr $C$DW$26, DW_AT_TI_max_frame_size(0x08)
     401                      .dwpsn  file "../FreeRTOS/Source/portable/MemMang/heap_5.c",line 273,column 1,is_stmt,address _vPortF
     402              
     403                      .dwfde $C$DW$CIE, _vPortFree
     404              $C$DW$27        .dwtag  DW_TAG_formal_parameter, DW_AT_name("pv")
     405                      .dwattr $C$DW$27, DW_AT_TI_symbol_name("_pv")
     406                      .dwattr $C$DW$27, DW_AT_type(*$C$DW$T$3)
     407                      .dwattr $C$DW$27, DW_AT_location[DW_OP_reg17]
     408              ;*******************************************************************************
     409              ;* FUNCTION NAME: vPortFree                                                    *
TMS320C55x Assembler PC v4.4.1 Thu Sep 13 03:23:49 2018

Tools Copyright (c) 1996-2012 Texas Instruments Incorporated
heap_5.asm                                                           PAGE   10

     410              ;*                                                                             *
     411              ;*   Function Uses Regs : AC0,AC0,AR0,XAR0,AR1,AR3,XAR3,SP,CARRY,M40,SATA,SATD,*
     412              ;*                        RDM,FRCT,SMUL                                        *
     413              ;*   Stack Frame        : Compact (No Frame Pointer, w/ debug)                 *
     414              ;*   Total Frame Size   : 8 words                                              *
     415              ;*                        (2 return address/alignment)                         *
     416              ;*                        (6 local values)                                     *
     417              ;*   Min System Stack   : 1 word                                               *
     418              ;*******************************************************************************
     419 000134       _vPortFree:
     420                      .dwcfi  cfa_offset, 1
     421                      .dwcfi  save_reg_to_mem, 91, -1
     422 000134 4EF9          AADD #-7, SP
     423                      .dwcfi  cfa_offset, 8
     424              $C$DW$28        .dwtag  DW_TAG_variable, DW_AT_name("pv")
     425                      .dwattr $C$DW$28, DW_AT_TI_symbol_name("_pv")
     426                      .dwattr $C$DW$28, DW_AT_type(*$C$DW$T$3)
     427                      .dwattr $C$DW$28, DW_AT_location[DW_OP_bregx 0x24 0]
     428              $C$DW$29        .dwtag  DW_TAG_variable, DW_AT_name("puc")
     429                      .dwattr $C$DW$29, DW_AT_TI_symbol_name("_puc")
     430                      .dwattr $C$DW$29, DW_AT_type(*$C$DW$T$23)
     431                      .dwattr $C$DW$29, DW_AT_location[DW_OP_bregx 0x24 2]
     432              $C$DW$30        .dwtag  DW_TAG_variable, DW_AT_name("pxLink")
     433                      .dwattr $C$DW$30, DW_AT_TI_symbol_name("_pxLink")
     434                      .dwattr $C$DW$30, DW_AT_type(*$C$DW$T$26)
     435                      .dwattr $C$DW$30, DW_AT_location[DW_OP_bregx 0x24 4]
     436 000136 EB00          MOV XAR0, dbl(*SP(#0))
         000138 85   
     437                      .dwpsn  file "../FreeRTOS/Source/portable/MemMang/heap_5.c",line 274,column 10,is_stmt
     438 000139 ED00          MOV dbl(*SP(#0)), XAR3
         00013b BF   
     439 00013c EB04          MOV XAR3, dbl(*SP(#2))
         00013e B5   
     440                      .dwpsn  file "../FreeRTOS/Source/portable/MemMang/heap_5.c",line 277,column 2,is_stmt
     441 00013f ED00          MOV dbl(*SP(#0)), XAR3
         000141 BF   
     442 000142 90B0          MOV XAR3, AC0
     443 000144 0400          BCC $C$L9,AC0 == #0 ; |277| 
         000146 53   
     444                                                      ; branchcc occurs ; |277| 
     445                      .dwpsn  file "../FreeRTOS/Source/portable/MemMang/heap_5.c",line 281,column 3,is_stmt
     446 000147 ED04          MOV dbl(*SP(#2)), XAR3
         000149 BF   
     447 00014a A931          MOV *(#_xHeapStructSize), AR1 ; |281| 
         00014c 0000 
         00014e 00+  
     448              
     449 00014f 8E04          MOV XAR3, dbl(*SP(#2))
         000151 BB12 
         000153 B590 
     450              ||      ASUB AR1, AR3 ; |281| 
     451              
     452                      .dwpsn  file "../FreeRTOS/Source/portable/MemMang/heap_5.c",line 284,column 3,is_stmt
     453 000155 EB08          MOV XAR3, dbl(*SP(#4))
         000157 B5   
TMS320C55x Assembler PC v4.4.1 Thu Sep 13 03:23:49 2018

Tools Copyright (c) 1996-2012 Texas Instruments Incorporated
heap_5.asm                                                           PAGE   11

     454                      .dwpsn  file "../FreeRTOS/Source/portable/MemMang/heap_5.c",line 290,column 3,is_stmt
     455 000158 A931          MOV *(#_xBlockAllocatedBit), AR1 ; |290| 
         00015a 0000 
         00015c 08-  
     456 00015d D975          AND *AR3(short(#2)), AR1, AR1 ; |290| 
         00015f 99   
     457 000160 0409          BCC $C$L9,AR1 == #0 ; |290| 
         000162 37   
     458                                                      ; branchcc occurs ; |290| 
     459                      .dwpsn  file "../FreeRTOS/Source/portable/MemMang/heap_5.c",line 292,column 4,is_stmt
     460 000163 ED61          MOV dbl(*AR3), XAR3
         000165 BF   
     461 000166 90B0          MOV XAR3, AC0
     462 000168 0410          BCC $C$L9,AC0 != #0 ; |292| 
         00016a 2F   
     463                                                      ; branchcc occurs ; |292| 
     464                      .dwpsn  file "../FreeRTOS/Source/portable/MemMang/heap_5.c",line 296,column 5,is_stmt
     465 00016b ED08          MOV dbl(*SP(#4)), XAR3
         00016d BF   
     466 00016e A931          MOV *(#_xBlockAllocatedBit), AR1 ; |296| 
         000170 0000 
         000172 08-  
     467 000173 3699          NOT AR1, AR1 ; |296| 
     468 000175 D975          AND *AR3(short(#2)), AR1, AC0 ; |296| 
         000177 09   
     469 000178 C075          MOV AC0, *AR3(short(#2)) ; |296| 
     470                      .dwpsn  file "../FreeRTOS/Source/portable/MemMang/heap_5.c",line 298,column 5,is_stmt
     471              $C$DW$31        .dwtag  DW_TAG_TI_branch
     472                      .dwattr $C$DW$31, DW_AT_low_pc(0x00)
     473                      .dwattr $C$DW$31, DW_AT_name("_vTaskSuspendAll")
     474                      .dwattr $C$DW$31, DW_AT_TI_call
     475 00017a 6C00          CALL #_vTaskSuspendAll ; |298| 
         00017c 0000!
     476                                                      ; call occurs [#_vTaskSuspendAll] ; |298| 
     477                      .dwpsn  file "../FreeRTOS/Source/portable/MemMang/heap_5.c",line 301,column 6,is_stmt
     478 00017e ED08          MOV dbl(*SP(#4)), XAR3
         000180 BF   
     479 000181 A975          MOV *AR3(short(#2)), AR1 ; |301| 
     480 000183 D631          ADD *(#_xFreeBytesRemaining), AR1, AR1 ; |301| 
         000185 9900 
         000187 0006-
     481 000189 C931          MOV AR1, *(#_xFreeBytesRemaining) ; |301| 
         00018b 0000 
         00018d 06-  
     482                      .dwpsn  file "../FreeRTOS/Source/portable/MemMang/heap_5.c",line 303,column 6,is_stmt
     483 00018e ED08          MOV dbl(*SP(#4)), XAR0
         000190 8F   
     484              $C$DW$32        .dwtag  DW_TAG_TI_branch
     485                      .dwattr $C$DW$32, DW_AT_low_pc(0x00)
     486                      .dwattr $C$DW$32, DW_AT_name("_prvInsertBlockIntoFreeList")
     487                      .dwattr $C$DW$32, DW_AT_TI_call
     488 000191 0800          CALL #_prvInsertBlockIntoFreeList ; |303| 
         000193 1C   
     489                                                      ; call occurs [#_prvInsertBlockIntoFreeList] ; |303| 
     490                      .dwpsn  file "../FreeRTOS/Source/portable/MemMang/heap_5.c",line 305,column 5,is_stmt
TMS320C55x Assembler PC v4.4.1 Thu Sep 13 03:23:49 2018

Tools Copyright (c) 1996-2012 Texas Instruments Incorporated
heap_5.asm                                                           PAGE   12

     491              $C$DW$33        .dwtag  DW_TAG_TI_branch
     492                      .dwattr $C$DW$33, DW_AT_low_pc(0x00)
     493                      .dwattr $C$DW$33, DW_AT_name("_xTaskResumeAll")
     494                      .dwattr $C$DW$33, DW_AT_TI_call
     495 000194 6C00          CALL #_xTaskResumeAll ; |305| 
         000196 0000!
     496                                                      ; call occurs [#_xTaskResumeAll] ; |305| 
     497                      .dwpsn  file "../FreeRTOS/Source/portable/MemMang/heap_5.c",line 306,column 4,is_stmt
     498 000198 4A00          B $C$L9   ; |306| 
     499                                                      ; branch occurs ; |306| 
     500 00019a       $C$L9:    
     501 00019a 4E07          AADD #7, SP
     502                      .dwcfi  cfa_offset, 1
     503              $C$DW$34        .dwtag  DW_TAG_TI_branch
     504                      .dwattr $C$DW$34, DW_AT_low_pc(0x00)
     505                      .dwattr $C$DW$34, DW_AT_TI_return
     506 00019c 4804          RET
     507                                                      ; return occurs
     508                      .dwattr $C$DW$26, DW_AT_TI_end_file("../FreeRTOS/Source/portable/MemMang/heap_5.c")
     509                      .dwattr $C$DW$26, DW_AT_TI_end_line(0x13d)
     510                      .dwattr $C$DW$26, DW_AT_TI_end_column(0x01)
     511                      .dwendentry
     512                      .dwendtag $C$DW$26
     513              
     514 00019e               .sect   ".text"
     515                      .align 4
     516                      .global _xPortGetFreeHeapSize
     517              
     518              $C$DW$35        .dwtag  DW_TAG_subprogram, DW_AT_name("xPortGetFreeHeapSize")
     519                      .dwattr $C$DW$35, DW_AT_low_pc(_xPortGetFreeHeapSize)
     520                      .dwattr $C$DW$35, DW_AT_high_pc(0x00)
     521                      .dwattr $C$DW$35, DW_AT_TI_symbol_name("_xPortGetFreeHeapSize")
     522                      .dwattr $C$DW$35, DW_AT_external
     523                      .dwattr $C$DW$35, DW_AT_type(*$C$DW$T$20)
     524                      .dwattr $C$DW$35, DW_AT_TI_begin_file("../FreeRTOS/Source/portable/MemMang/heap_5.c")
     525                      .dwattr $C$DW$35, DW_AT_TI_begin_line(0x140)
     526                      .dwattr $C$DW$35, DW_AT_TI_begin_column(0x08)
     527                      .dwattr $C$DW$35, DW_AT_TI_max_frame_size(0x01)
     528                      .dwpsn  file "../FreeRTOS/Source/portable/MemMang/heap_5.c",line 321,column 1,is_stmt,address _xPortG
     529              
     530                      .dwfde $C$DW$CIE, _xPortGetFreeHeapSize
     531              ;*******************************************************************************
     532              ;* FUNCTION NAME: xPortGetFreeHeapSize                                         *
     533              ;*                                                                             *
     534              ;*   Function Uses Regs : T0,SP,M40,SATA,SATD,RDM,FRCT,SMUL                    *
     535              ;*   Stack Frame        : Compact (No Frame Pointer, w/ debug)                 *
     536              ;*   Total Frame Size   : 1 word                                               *
     537              ;*                        (1 return address/alignment)                         *
     538              ;*   Min System Stack   : 1 word                                               *
     539              ;*******************************************************************************
     540 0001a0       _xPortGetFreeHeapSize:
     541                      .dwcfi  cfa_offset, 1
     542                      .dwcfi  save_reg_to_mem, 91, -1
     543                      .dwpsn  file "../FreeRTOS/Source/portable/MemMang/heap_5.c",line 322,column 2,is_stmt
     544 0001a0 A431          MOV *(#_xFreeBytesRemaining), T0 ; |322| 
TMS320C55x Assembler PC v4.4.1 Thu Sep 13 03:23:49 2018

Tools Copyright (c) 1996-2012 Texas Instruments Incorporated
heap_5.asm                                                           PAGE   13

         0001a2 0000 
         0001a4 06-  
     545                      .dwpsn  file "../FreeRTOS/Source/portable/MemMang/heap_5.c",line 323,column 1,is_stmt
     546              $C$DW$36        .dwtag  DW_TAG_TI_branch
     547                      .dwattr $C$DW$36, DW_AT_low_pc(0x00)
     548                      .dwattr $C$DW$36, DW_AT_TI_return
     549 0001a5 4804          RET
     550                                                      ; return occurs
     551                      .dwattr $C$DW$35, DW_AT_TI_end_file("../FreeRTOS/Source/portable/MemMang/heap_5.c")
     552                      .dwattr $C$DW$35, DW_AT_TI_end_line(0x143)
     553                      .dwattr $C$DW$35, DW_AT_TI_end_column(0x01)
     554                      .dwendentry
     555                      .dwendtag $C$DW$35
     556              
     557 0001a7               .sect   ".text"
     558                      .align 4
     559                      .global _xPortGetMinimumEverFreeHeapSize
     560              
     561              $C$DW$37        .dwtag  DW_TAG_subprogram, DW_AT_name("xPortGetMinimumEverFreeHeapSize")
     562                      .dwattr $C$DW$37, DW_AT_low_pc(_xPortGetMinimumEverFreeHeapSize)
     563                      .dwattr $C$DW$37, DW_AT_high_pc(0x00)
     564                      .dwattr $C$DW$37, DW_AT_TI_symbol_name("_xPortGetMinimumEverFreeHeapSize")
     565                      .dwattr $C$DW$37, DW_AT_external
     566                      .dwattr $C$DW$37, DW_AT_type(*$C$DW$T$20)
     567                      .dwattr $C$DW$37, DW_AT_TI_begin_file("../FreeRTOS/Source/portable/MemMang/heap_5.c")
     568                      .dwattr $C$DW$37, DW_AT_TI_begin_line(0x146)
     569                      .dwattr $C$DW$37, DW_AT_TI_begin_column(0x08)
     570                      .dwattr $C$DW$37, DW_AT_TI_max_frame_size(0x01)
     571                      .dwpsn  file "../FreeRTOS/Source/portable/MemMang/heap_5.c",line 327,column 1,is_stmt,address _xPortG
     572              
     573                      .dwfde $C$DW$CIE, _xPortGetMinimumEverFreeHeapSize
     574              ;*******************************************************************************
     575              ;* FUNCTION NAME: xPortGetMinimumEverFreeHeapSize                              *
     576              ;*                                                                             *
     577              ;*   Function Uses Regs : T0,SP,M40,SATA,SATD,RDM,FRCT,SMUL                    *
     578              ;*   Stack Frame        : Compact (No Frame Pointer, w/ debug)                 *
     579              ;*   Total Frame Size   : 1 word                                               *
     580              ;*                        (1 return address/alignment)                         *
     581              ;*   Min System Stack   : 1 word                                               *
     582              ;*******************************************************************************
     583 0001a8       _xPortGetMinimumEverFreeHeapSize:
     584                      .dwcfi  cfa_offset, 1
     585                      .dwcfi  save_reg_to_mem, 91, -1
     586                      .dwpsn  file "../FreeRTOS/Source/portable/MemMang/heap_5.c",line 328,column 2,is_stmt
     587 0001a8 A431          MOV *(#_xMinimumEverFreeBytesRemaining), T0 ; |328| 
         0001aa 0000 
         0001ac 07-  
     588                      .dwpsn  file "../FreeRTOS/Source/portable/MemMang/heap_5.c",line 329,column 1,is_stmt
     589              $C$DW$38        .dwtag  DW_TAG_TI_branch
     590                      .dwattr $C$DW$38, DW_AT_low_pc(0x00)
     591                      .dwattr $C$DW$38, DW_AT_TI_return
     592 0001ad 4804          RET
     593                                                      ; return occurs
     594                      .dwattr $C$DW$37, DW_AT_TI_end_file("../FreeRTOS/Source/portable/MemMang/heap_5.c")
     595                      .dwattr $C$DW$37, DW_AT_TI_end_line(0x149)
TMS320C55x Assembler PC v4.4.1 Thu Sep 13 03:23:49 2018

Tools Copyright (c) 1996-2012 Texas Instruments Incorporated
heap_5.asm                                                           PAGE   14

     596                      .dwattr $C$DW$37, DW_AT_TI_end_column(0x01)
     597                      .dwendentry
     598                      .dwendtag $C$DW$37
     599              
     600 0001af               .sect   ".text"
     601                      .align 4
     602              
     603              $C$DW$39        .dwtag  DW_TAG_subprogram, DW_AT_name("prvInsertBlockIntoFreeList")
     604                      .dwattr $C$DW$39, DW_AT_low_pc(_prvInsertBlockIntoFreeList)
     605                      .dwattr $C$DW$39, DW_AT_high_pc(0x00)
     606                      .dwattr $C$DW$39, DW_AT_TI_symbol_name("_prvInsertBlockIntoFreeList")
     607                      .dwattr $C$DW$39, DW_AT_TI_begin_file("../FreeRTOS/Source/portable/MemMang/heap_5.c")
     608                      .dwattr $C$DW$39, DW_AT_TI_begin_line(0x14c)
     609                      .dwattr $C$DW$39, DW_AT_TI_begin_column(0x0d)
     610                      .dwattr $C$DW$39, DW_AT_TI_max_frame_size(0x08)
     611                      .dwpsn  file "../FreeRTOS/Source/portable/MemMang/heap_5.c",line 333,column 1,is_stmt,address _prvIns
     612              
     613                      .dwfde $C$DW$CIE, _prvInsertBlockIntoFreeList
     614              $C$DW$40        .dwtag  DW_TAG_formal_parameter, DW_AT_name("pxBlockToInsert")
     615                      .dwattr $C$DW$40, DW_AT_TI_symbol_name("_pxBlockToInsert")
     616                      .dwattr $C$DW$40, DW_AT_type(*$C$DW$T$26)
     617                      .dwattr $C$DW$40, DW_AT_location[DW_OP_reg17]
     618              ;*******************************************************************************
     619              ;* FUNCTION NAME: prvInsertBlockIntoFreeList                                   *
     620              ;*                                                                             *
     621              ;*   Function Uses Regs : AC0,AC0,AC1,AC1,AR0,XAR0,AR1,AR2,XAR2,AR3,XAR3,SP,   *
     622              ;*                        CARRY,TC1,M40,SATA,SATD,RDM,FRCT,SMUL                *
     623              ;*   Stack Frame        : Compact (No Frame Pointer, w/ debug)                 *
     624              ;*   Total Frame Size   : 8 words                                              *
     625              ;*                        (2 return address/alignment)                         *
     626              ;*                        (6 local values)                                     *
     627              ;*   Min System Stack   : 1 word                                               *
     628              ;*******************************************************************************
     629 0001b0       _prvInsertBlockIntoFreeList:
     630                      .dwcfi  cfa_offset, 1
     631                      .dwcfi  save_reg_to_mem, 91, -1
     632 0001b0 4EF9          AADD #-7, SP
     633                      .dwcfi  cfa_offset, 8
     634              $C$DW$41        .dwtag  DW_TAG_variable, DW_AT_name("pxBlockToInsert")
     635                      .dwattr $C$DW$41, DW_AT_TI_symbol_name("_pxBlockToInsert")
     636                      .dwattr $C$DW$41, DW_AT_type(*$C$DW$T$26)
     637                      .dwattr $C$DW$41, DW_AT_location[DW_OP_bregx 0x24 0]
     638              $C$DW$42        .dwtag  DW_TAG_variable, DW_AT_name("pxIterator")
     639                      .dwattr $C$DW$42, DW_AT_TI_symbol_name("_pxIterator")
     640                      .dwattr $C$DW$42, DW_AT_type(*$C$DW$T$26)
     641                      .dwattr $C$DW$42, DW_AT_location[DW_OP_bregx 0x24 2]
     642              $C$DW$43        .dwtag  DW_TAG_variable, DW_AT_name("puc")
     643                      .dwattr $C$DW$43, DW_AT_TI_symbol_name("_puc")
     644                      .dwattr $C$DW$43, DW_AT_type(*$C$DW$T$23)
     645                      .dwattr $C$DW$43, DW_AT_location[DW_OP_bregx 0x24 4]
     646 0001b2 EB00          MOV XAR0, dbl(*SP(#0))
         0001b4 85   
     647                      .dwpsn  file "../FreeRTOS/Source/portable/MemMang/heap_5.c",line 339,column 7,is_stmt
     648 0001b5 EC31          AMOV #_xStart, XAR3 ; |339| 
         0001b7 BE00 
TMS320C55x Assembler PC v4.4.1 Thu Sep 13 03:23:49 2018

Tools Copyright (c) 1996-2012 Texas Instruments Incorporated
heap_5.asm                                                           PAGE   15

         0001b9 0000-
     649 0001bb EB04          MOV XAR3, dbl(*SP(#2))
         0001bd B5   
     650                      .dwpsn  file "../FreeRTOS/Source/portable/MemMang/heap_5.c",line 339,column 29,is_stmt
     651 0001be ED00          MOV dbl(*SP(#0)), XAR3
         0001c0 BF   
     652 0001c1 90B0          MOV XAR3, AC0
     653 0001c3 ED04          MOV dbl(*SP(#2)), XAR3
         0001c5 BF   
     654 0001c6 ED61          MOV dbl(*AR3), XAR3
         0001c8 BF   
     655 0001c9 90B1          MOV XAR3, AC1
     656 0001cb 1218          CMPU AC1 >= AC0, TC1 ; |339| 
         0001cd 04   
     657 0001ce 0464          BCC $C$L11,TC1 ; |339| 
         0001d0 1C   
     658                                                      ; branchcc occurs ; |339| 
     659 0001d1       $C$L10:    
     660 0001d1       $C$DW$L$_prvInsertBlockIntoFreeList$2$B:
     661                      .dwpsn  file "../FreeRTOS/Source/portable/MemMang/heap_5.c",line 339,column 76,is_stmt
     662 0001d1 ED04          MOV dbl(*SP(#2)), XAR3
         0001d3 BF   
     663 0001d4 ED61          MOV dbl(*AR3), XAR3
         0001d6 BF   
     664 0001d7 EB04          MOV XAR3, dbl(*SP(#2))
         0001d9 B5   
     665                      .dwpsn  file "../FreeRTOS/Source/portable/MemMang/heap_5.c",line 339,column 29,is_stmt
     666 0001da ED00          MOV dbl(*SP(#0)), XAR3
         0001dc BF   
     667 0001dd 90B0          MOV XAR3, AC0
     668 0001df ED04          MOV dbl(*SP(#2)), XAR3
         0001e1 BF   
     669 0001e2 ED61          MOV dbl(*AR3), XAR3
         0001e4 BF   
     670 0001e5 90B1          MOV XAR3, AC1
     671 0001e7 1214          CMPU AC1 < AC0, TC1 ; |339| 
         0001e9 04   
     672 0001ea 0464          BCC $C$L10,TC1 ; |339| 
         0001ec E4   
     673                                                      ; branchcc occurs ; |339| 
     674 0001ed       $C$DW$L$_prvInsertBlockIntoFreeList$2$E:
     675 0001ed       $C$L11:    
     676                      .dwpsn  file "../FreeRTOS/Source/portable/MemMang/heap_5.c",line 346,column 2,is_stmt
     677 0001ed ED04          MOV dbl(*SP(#2)), XAR3
         0001ef BF   
     678 0001f0 EB08          MOV XAR3, dbl(*SP(#4))
         0001f2 B5   
     679                      .dwpsn  file "../FreeRTOS/Source/portable/MemMang/heap_5.c",line 347,column 2,is_stmt
     680 0001f3 ED04          MOV dbl(*SP(#2)), XAR3
         0001f5 BF   
     681 0001f6 A975          MOV *AR3(short(#2)), AR1 ; |347| 
     682 0001f8 ED08          MOV dbl(*SP(#4)), XAR3
         0001fa BF   
     683 0001fb 1490          AADD AR1, AR3 ; |347| 
         0001fd B0   
TMS320C55x Assembler PC v4.4.1 Thu Sep 13 03:23:49 2018

Tools Copyright (c) 1996-2012 Texas Instruments Incorporated
heap_5.asm                                                           PAGE   16

     684 0001fe 90B0          MOV XAR3, AC0
     685 000200 ED00          MOV dbl(*SP(#0)), XAR3
         000202 BF   
     686 000203 90B1          MOV XAR3, AC1
     687 000205 120C          CMPU AC0 != AC1, TC1 ; |347| 
         000207 14   
     688 000208 0464          BCC $C$L12,TC1 ; |347| 
         00020a 13   
     689                                                      ; branchcc occurs ; |347| 
     690                      .dwpsn  file "../FreeRTOS/Source/portable/MemMang/heap_5.c",line 349,column 3,is_stmt
     691 00020b ED00          MOV dbl(*SP(#0)), XAR2
         00020d AF   
     692 00020e ED04          MOV dbl(*SP(#2)), XAR3
         000210 BF   
     693 000211 A955          MOV *AR2(short(#2)), AR1 ; |349| 
     694 000213 D675          ADD *AR3(short(#2)), AR1, AR1 ; |349| 
         000215 99   
     695 000216 C975          MOV AR1, *AR3(short(#2)) ; |349| 
     696                      .dwpsn  file "../FreeRTOS/Source/portable/MemMang/heap_5.c",line 350,column 3,is_stmt
     697 000218 ED04          MOV dbl(*SP(#2)), XAR3
         00021a BF   
     698 00021b EB00          MOV XAR3, dbl(*SP(#0))
         00021d B5   
     699                      .dwpsn  file "../FreeRTOS/Source/portable/MemMang/heap_5.c",line 351,column 2,is_stmt
     700 00021e       $C$L12:    
     701                      .dwpsn  file "../FreeRTOS/Source/portable/MemMang/heap_5.c",line 359,column 2,is_stmt
     702 00021e EB08          MOV XAR3, dbl(*SP(#4))
         000220 B5   
     703                      .dwpsn  file "../FreeRTOS/Source/portable/MemMang/heap_5.c",line 360,column 2,is_stmt
     704 000221 ED00          MOV dbl(*SP(#0)), XAR3
         000223 BF   
     705 000224 A975          MOV *AR3(short(#2)), AR1 ; |360| 
     706 000226 ED08          MOV dbl(*SP(#4)), XAR3
         000228 BF   
     707 000229 1490          AADD AR1, AR3 ; |360| 
         00022b B0   
     708 00022c 90B0          MOV XAR3, AC0
     709 00022e ED04          MOV dbl(*SP(#2)), XAR3
         000230 BF   
     710 000231 ED61          MOV dbl(*AR3), XAR3
         000233 BF   
     711 000234 90B1          MOV XAR3, AC1
     712 000236 120C          CMPU AC0 != AC1, TC1 ; |360| 
         000238 14   
     713 000239 0464          BCC $C$L14,TC1 ; |360| 
         00023b 42   
     714                                                      ; branchcc occurs ; |360| 
     715                      .dwpsn  file "../FreeRTOS/Source/portable/MemMang/heap_5.c",line 362,column 3,is_stmt
     716 00023c ED31          MOV dbl(*(#_pxEnd)), XAR3
         00023e BF00 
         000240 0004-
     717 000242 90B0          MOV XAR3, AC0
     718 000244 ED04          MOV dbl(*SP(#2)), XAR3
         000246 BF   
     719 000247 ED61          MOV dbl(*AR3), XAR3
TMS320C55x Assembler PC v4.4.1 Thu Sep 13 03:23:49 2018

Tools Copyright (c) 1996-2012 Texas Instruments Incorporated
heap_5.asm                                                           PAGE   17

         000249 BF   
     720 00024a 90B1          MOV XAR3, AC1
     721 00024c 1210          CMPU AC1 == AC0, TC1 ; |362| 
         00024e 04   
     722 00024f 0464          BCC $C$L13,TC1 ; |362| 
         000251 1E   
     723                                                      ; branchcc occurs ; |362| 
     724                      .dwpsn  file "../FreeRTOS/Source/portable/MemMang/heap_5.c",line 365,column 4,is_stmt
     725 000252 ED04          MOV dbl(*SP(#2)), XAR2
         000254 AF   
     726 000255 ED41          MOV dbl(*AR2), XAR2
         000257 AF   
     727 000258 ED00          MOV dbl(*SP(#0)), XAR3
         00025a BF   
     728 00025b A955          MOV *AR2(short(#2)), AR1 ; |365| 
     729 00025d D675          ADD *AR3(short(#2)), AR1, AR1 ; |365| 
         00025f 99   
     730 000260 C975          MOV AR1, *AR3(short(#2)) ; |365| 
     731                      .dwpsn  file "../FreeRTOS/Source/portable/MemMang/heap_5.c",line 366,column 4,is_stmt
     732 000262 ED04          MOV dbl(*SP(#2)), XAR3
         000264 BF   
     733 000265 ED00          MOV dbl(*SP(#0)), XAR2
         000267 AF   
     734 000268 ED61          MOV dbl(*AR3), XAR3
         00026a BF   
     735 00026b 8061          MOV dbl(*AR3), dbl(*AR2)
         00026d 00   
     736                      .dwpsn  file "../FreeRTOS/Source/portable/MemMang/heap_5.c",line 367,column 3,is_stmt
     737 00026e 4A17          B $C$L15  ; |367| 
     738                                                      ; branch occurs ; |367| 
     739 000270       $C$L13:    
     740                      .dwpsn  file "../FreeRTOS/Source/portable/MemMang/heap_5.c",line 370,column 4,is_stmt
     741 000270 ED00          MOV dbl(*SP(#0)), XAR2
         000272 AF   
     742 000273 ED31          MOV dbl(*(#_pxEnd)), XAR3
         000275 BF00 
         000277 0004-
     743 000279 EB41          MOV XAR3, dbl(*AR2)
         00027b B5   
     744                      .dwpsn  file "../FreeRTOS/Source/portable/MemMang/heap_5.c",line 372,column 2,is_stmt
     745 00027c 4A09          B $C$L15  ; |372| 
     746                                                      ; branch occurs ; |372| 
     747 00027e       $C$L14:    
     748                      .dwpsn  file "../FreeRTOS/Source/portable/MemMang/heap_5.c",line 375,column 3,is_stmt
     749 00027e ED04          MOV dbl(*SP(#2)), XAR3
         000280 BF   
     750 000281 ED00          MOV dbl(*SP(#0)), XAR2
         000283 AF   
     751 000284 8061          MOV dbl(*AR3), dbl(*AR2)
         000286 00   
     752 000287       $C$L15:    
     753                      .dwpsn  file "../FreeRTOS/Source/portable/MemMang/heap_5.c",line 382,column 2,is_stmt
     754 000287 ED00          MOV dbl(*SP(#0)), XAR3
         000289 BF   
     755 00028a 90B0          MOV XAR3, AC0
TMS320C55x Assembler PC v4.4.1 Thu Sep 13 03:23:49 2018

Tools Copyright (c) 1996-2012 Texas Instruments Incorporated
heap_5.asm                                                           PAGE   18

     756 00028c ED04          MOV dbl(*SP(#2)), XAR3
         00028e BF   
     757 00028f 90B1          MOV XAR3, AC1
     758 000291 1210          CMPU AC1 == AC0, TC1 ; |382| 
         000293 04   
     759 000294 65E4          BCC $C$L16,TC1 ; |382| 
     760                                                      ; branchcc occurs ; |382| 
     761                      .dwpsn  file "../FreeRTOS/Source/portable/MemMang/heap_5.c",line 384,column 3,is_stmt
     762 000296 ED04          MOV dbl(*SP(#2)), XAR2
         000298 AF   
     763 000299 ED00          MOV dbl(*SP(#0)), XAR3
         00029b BF   
     764 00029c EB41          MOV XAR3, dbl(*AR2)
         00029e B5   
     765                      .dwpsn  file "../FreeRTOS/Source/portable/MemMang/heap_5.c",line 385,column 2,is_stmt
     766 00029f 4A00          B $C$L16  ; |385| 
     767                                                      ; branch occurs ; |385| 
     768 0002a1       $C$L16:    
     769 0002a1 4E07          AADD #7, SP
     770                      .dwcfi  cfa_offset, 1
     771              $C$DW$44        .dwtag  DW_TAG_TI_branch
     772                      .dwattr $C$DW$44, DW_AT_low_pc(0x00)
     773                      .dwattr $C$DW$44, DW_AT_TI_return
     774 0002a3 4804          RET
     775                                                      ; return occurs
     776              
     777              $C$DW$45        .dwtag  DW_TAG_TI_loop
     778                      .dwattr $C$DW$45, DW_AT_name("F:\eZdsp_DBG\eZDSP_5535_Files\ccsws2\test\Debug\heap_5.asm:$C$L10:1:153
     779                      .dwattr $C$DW$45, DW_AT_TI_begin_file("../FreeRTOS/Source/portable/MemMang/heap_5.c")
     780                      .dwattr $C$DW$45, DW_AT_TI_begin_line(0x153)
     781                      .dwattr $C$DW$45, DW_AT_TI_end_line(0x156)
     782              $C$DW$46        .dwtag  DW_TAG_TI_loop_range
     783                      .dwattr $C$DW$46, DW_AT_low_pc($C$DW$L$_prvInsertBlockIntoFreeList$2$B)
     784                      .dwattr $C$DW$46, DW_AT_high_pc($C$DW$L$_prvInsertBlockIntoFreeList$2$E)
     785                      .dwendtag $C$DW$45
     786              
     787                      .dwattr $C$DW$39, DW_AT_TI_end_file("../FreeRTOS/Source/portable/MemMang/heap_5.c")
     788                      .dwattr $C$DW$39, DW_AT_TI_end_line(0x186)
     789                      .dwattr $C$DW$39, DW_AT_TI_end_column(0x01)
     790                      .dwendentry
     791                      .dwendtag $C$DW$39
     792              
     793 0002a5               .sect   ".text"
     794                      .align 4
     795                      .global _vPortDefineHeapRegions
     796              
     797              $C$DW$47        .dwtag  DW_TAG_subprogram, DW_AT_name("vPortDefineHeapRegions")
     798                      .dwattr $C$DW$47, DW_AT_low_pc(_vPortDefineHeapRegions)
     799                      .dwattr $C$DW$47, DW_AT_high_pc(0x00)
     800                      .dwattr $C$DW$47, DW_AT_TI_symbol_name("_vPortDefineHeapRegions")
     801                      .dwattr $C$DW$47, DW_AT_external
     802                      .dwattr $C$DW$47, DW_AT_TI_begin_file("../FreeRTOS/Source/portable/MemMang/heap_5.c")
     803                      .dwattr $C$DW$47, DW_AT_TI_begin_line(0x189)
     804                      .dwattr $C$DW$47, DW_AT_TI_begin_column(0x06)
     805                      .dwattr $C$DW$47, DW_AT_TI_max_frame_size(0x10)
TMS320C55x Assembler PC v4.4.1 Thu Sep 13 03:23:49 2018

Tools Copyright (c) 1996-2012 Texas Instruments Incorporated
heap_5.asm                                                           PAGE   19

     806                      .dwpsn  file "../FreeRTOS/Source/portable/MemMang/heap_5.c",line 394,column 1,is_stmt,address _vPortD
     807              
     808                      .dwfde $C$DW$CIE, _vPortDefineHeapRegions
     809              $C$DW$48        .dwtag  DW_TAG_formal_parameter, DW_AT_name("pxHeapRegions")
     810                      .dwattr $C$DW$48, DW_AT_TI_symbol_name("_pxHeapRegions")
     811                      .dwattr $C$DW$48, DW_AT_type(*$C$DW$T$30)
     812                      .dwattr $C$DW$48, DW_AT_location[DW_OP_reg17]
     813              ;*******************************************************************************
     814              ;* FUNCTION NAME: vPortDefineHeapRegions                                       *
     815              ;*                                                                             *
     816              ;*   Function Uses Regs : AC0,AC0,AR0,XAR0,AR1,AR2,XAR2,AR3,XAR3,SP,CARRY,TC1, *
     817              ;*                        M40,SATA,SATD,RDM,FRCT,SMUL                          *
     818              ;*   Stack Frame        : Compact (No Frame Pointer, w/ debug)                 *
     819              ;*   Total Frame Size   : 16 words                                             *
     820              ;*                        (2 return address/alignment)                         *
     821              ;*                        (14 local values)                                    *
     822              ;*   Min System Stack   : 1 word                                               *
     823              ;*******************************************************************************
     824 0002a8       _vPortDefineHeapRegions:
     825                      .dwcfi  cfa_offset, 1
     826                      .dwcfi  save_reg_to_mem, 91, -1
     827 0002a8 4EF1          AADD #-15, SP
     828                      .dwcfi  cfa_offset, 16
     829              $C$DW$49        .dwtag  DW_TAG_variable, DW_AT_name("pxHeapRegions")
     830                      .dwattr $C$DW$49, DW_AT_TI_symbol_name("_pxHeapRegions")
     831                      .dwattr $C$DW$49, DW_AT_type(*$C$DW$T$30)
     832                      .dwattr $C$DW$49, DW_AT_location[DW_OP_bregx 0x24 0]
     833              $C$DW$50        .dwtag  DW_TAG_variable, DW_AT_name("pxFirstFreeBlockInRegion")
     834                      .dwattr $C$DW$50, DW_AT_TI_symbol_name("_pxFirstFreeBlockInRegion")
     835                      .dwattr $C$DW$50, DW_AT_type(*$C$DW$T$26)
     836                      .dwattr $C$DW$50, DW_AT_location[DW_OP_bregx 0x24 2]
     837              $C$DW$51        .dwtag  DW_TAG_variable, DW_AT_name("pxPreviousFreeBlock")
     838                      .dwattr $C$DW$51, DW_AT_TI_symbol_name("_pxPreviousFreeBlock")
     839                      .dwattr $C$DW$51, DW_AT_type(*$C$DW$T$26)
     840                      .dwattr $C$DW$51, DW_AT_location[DW_OP_bregx 0x24 4]
     841              $C$DW$52        .dwtag  DW_TAG_variable, DW_AT_name("xAlignedHeap")
     842                      .dwattr $C$DW$52, DW_AT_TI_symbol_name("_xAlignedHeap")
     843                      .dwattr $C$DW$52, DW_AT_type(*$C$DW$T$20)
     844                      .dwattr $C$DW$52, DW_AT_location[DW_OP_bregx 0x24 6]
     845              $C$DW$53        .dwtag  DW_TAG_variable, DW_AT_name("xTotalRegionSize")
     846                      .dwattr $C$DW$53, DW_AT_TI_symbol_name("_xTotalRegionSize")
     847                      .dwattr $C$DW$53, DW_AT_type(*$C$DW$T$20)
     848                      .dwattr $C$DW$53, DW_AT_location[DW_OP_bregx 0x24 7]
     849              $C$DW$54        .dwtag  DW_TAG_variable, DW_AT_name("xTotalHeapSize")
     850                      .dwattr $C$DW$54, DW_AT_TI_symbol_name("_xTotalHeapSize")
     851                      .dwattr $C$DW$54, DW_AT_type(*$C$DW$T$20)
     852                      .dwattr $C$DW$54, DW_AT_location[DW_OP_bregx 0x24 8]
     853              $C$DW$55        .dwtag  DW_TAG_variable, DW_AT_name("xDefinedRegions")
     854                      .dwattr $C$DW$55, DW_AT_TI_symbol_name("_xDefinedRegions")
     855                      .dwattr $C$DW$55, DW_AT_type(*$C$DW$T$39)
     856                      .dwattr $C$DW$55, DW_AT_location[DW_OP_bregx 0x24 9]
     857              $C$DW$56        .dwtag  DW_TAG_variable, DW_AT_name("xAddress")
     858                      .dwattr $C$DW$56, DW_AT_TI_symbol_name("_xAddress")
     859                      .dwattr $C$DW$56, DW_AT_type(*$C$DW$T$20)
     860                      .dwattr $C$DW$56, DW_AT_location[DW_OP_bregx 0x24 10]
TMS320C55x Assembler PC v4.4.1 Thu Sep 13 03:23:49 2018

Tools Copyright (c) 1996-2012 Texas Instruments Incorporated
heap_5.asm                                                           PAGE   20

     861              $C$DW$57        .dwtag  DW_TAG_variable, DW_AT_name("pxHeapRegion")
     862                      .dwattr $C$DW$57, DW_AT_TI_symbol_name("_pxHeapRegion")
     863                      .dwattr $C$DW$57, DW_AT_type(*$C$DW$T$29)
     864                      .dwattr $C$DW$57, DW_AT_location[DW_OP_bregx 0x24 12]
     865 0002aa EB00          MOV XAR0, dbl(*SP(#0))
         0002ac 85   
     866                      .dwpsn  file "../FreeRTOS/Source/portable/MemMang/heap_5.c",line 395,column 14,is_stmt
     867 0002ad 3C00          MOV #0, AC0 ; |395| 
     868 0002af EB04          MOV AC0, dbl(*SP(#2))
         0002b1 08   
     869                      .dwpsn  file "../FreeRTOS/Source/portable/MemMang/heap_5.c",line 397,column 26,is_stmt
     870 0002b2 E610          MOV #0, *SP(#8) ; |397| 
         0002b4 00   
     871                      .dwpsn  file "../FreeRTOS/Source/portable/MemMang/heap_5.c",line 398,column 12,is_stmt
     872 0002b5 E612          MOV #0, *SP(#9) ; |398| 
         0002b7 00   
     873                      .dwpsn  file "../FreeRTOS/Source/portable/MemMang/heap_5.c",line 405,column 2,is_stmt
     874 0002b8 ED00          MOV dbl(*SP(#0)), XAR3
         0002ba BF   
     875 0002bb F912          MOV *SP(#9) << #2, AC0 ; |405| 
         0002bd 0208 
     876 0002bf 2209          MOV AC0, AR1 ; |405| 
     877              
     878 0002c1 8E18          MOV XAR3, dbl(*SP(#12))
         0002c3 BB10 
         0002c5 B590 
     879              ||      AADD AR1, AR3 ; |405| 
     880              
     881                      .dwpsn  file "../FreeRTOS/Source/portable/MemMang/heap_5.c",line 407,column 9,is_stmt
     882 0002c7 A975          MOV *AR3(short(#2)), AR1 ; |407| 
     883 0002c9 6D09          BCC $C$L21,AR1 == #0 ; |407| 
         0002cb 00C8 
     884                                                      ; branchcc occurs ; |407| 
     885 0002cd       $C$L17:    
     886 0002cd       $C$DW$L$_vPortDefineHeapRegions$2$B:
     887                      .dwpsn  file "../FreeRTOS/Source/portable/MemMang/heap_5.c",line 409,column 3,is_stmt
     888 0002cd A975          MOV *AR3(short(#2)), AR1 ; |409| 
     889 0002cf C90E          MOV AR1, *SP(#7) ; |409| 
     890                      .dwpsn  file "../FreeRTOS/Source/portable/MemMang/heap_5.c",line 412,column 3,is_stmt
     891 0002d1 ED18          MOV dbl(*SP(#12)), XAR3
         0002d3 BF   
     892 0002d4 A973          MOV *AR3(short(#1)), AR1 ; |412| 
     893 0002d6 C914          MOV AR1, *SP(#10) ; |412| 
     894                      .dwpsn  file "../FreeRTOS/Source/portable/MemMang/heap_5.c",line 413,column 3,is_stmt
     895 0002d8 F214          BAND *SP(#10), #3, TC1 ; |413| 
         0002da 0003 
     896 0002dc 0474          BCC $C$L18,!TC1 ; |413| 
         0002de 15   
     897                                                      ; branchcc occurs ; |413| 
     898 0002df       $C$DW$L$_vPortDefineHeapRegions$2$E:
     899 0002df       $C$DW$L$_vPortDefineHeapRegions$3$B:
     900                      .dwpsn  file "../FreeRTOS/Source/portable/MemMang/heap_5.c",line 415,column 4,is_stmt
     901 0002df F714          ADD #3, *SP(#10) ; |415| 
         0002e1 0003 
     902                      .dwpsn  file "../FreeRTOS/Source/portable/MemMang/heap_5.c",line 416,column 4,is_stmt
TMS320C55x Assembler PC v4.4.1 Thu Sep 13 03:23:49 2018

Tools Copyright (c) 1996-2012 Texas Instruments Incorporated
heap_5.asm                                                           PAGE   21

     903 0002e3 F414          AND #0xfffc, *SP(#10) ; |416| 
         0002e5 FFFC 
     904                      .dwpsn  file "../FreeRTOS/Source/portable/MemMang/heap_5.c",line 419,column 4,is_stmt
     905 0002e7 ED18          MOV dbl(*SP(#12)), XAR3
         0002e9 BF   
     906 0002ea A00E          MOV *SP(#7), AC0 ; |419| 
     907 0002ec DF14          SUB uns(*SP(#10)), AC0, AC0 ; |419| 
         0002ee 0F   
     908 0002ef D673          ADD *AR3(short(#1)), AC0, AR1 ; |419| 
         0002f1 90   
     909 0002f2 C90E          MOV AR1, *SP(#7) ; |419| 
     910 0002f4       $C$DW$L$_vPortDefineHeapRegions$3$E:
     911 0002f4       $C$L18:    
     912 0002f4       $C$DW$L$_vPortDefineHeapRegions$4$B:
     913                      .dwpsn  file "../FreeRTOS/Source/portable/MemMang/heap_5.c",line 422,column 3,is_stmt
     914 0002f4 A914          MOV *SP(#10), AR1 ; |422| 
     915 0002f6 C90C          MOV AR1, *SP(#6) ; |422| 
     916                      .dwpsn  file "../FreeRTOS/Source/portable/MemMang/heap_5.c",line 425,column 3,is_stmt
     917 0002f8 A912          MOV *SP(#9), AR1 ; |425| 
     918 0002fa 6799          BCC $C$L19,AR1 != #0 ; |425| 
     919                                                      ; branchcc occurs ; |425| 
     920 0002fc       $C$DW$L$_vPortDefineHeapRegions$4$E:
     921 0002fc       $C$DW$L$_vPortDefineHeapRegions$5$B:
     922                      .dwpsn  file "../FreeRTOS/Source/portable/MemMang/heap_5.c",line 429,column 4,is_stmt
     923 0002fc DF0C          MOV uns(*SP(#6)), AC0 ; |429| 
         0002fe 05   
     924 0002ff EB31          MOV AC0, dbl(*(#_xStart))
         000301 0800 
         000303 0000-
     925                      .dwpsn  file "../FreeRTOS/Source/portable/MemMang/heap_5.c",line 430,column 4,is_stmt
     926 000305 E631          MOV #0, *(#(_xStart+2)) ; |430| 
         000307 0000 
         000309 0002-
     927                      .dwpsn  file "../FreeRTOS/Source/portable/MemMang/heap_5.c",line 431,column 3,is_stmt
     928 00030b       $C$DW$L$_vPortDefineHeapRegions$5$E:
     929 00030b       $C$L19:    
     930 00030b       $C$DW$L$_vPortDefineHeapRegions$6$B:
     931                      .dwpsn  file "../FreeRTOS/Source/portable/MemMang/heap_5.c",line 444,column 3,is_stmt
     932 00030b ED31          MOV dbl(*(#_pxEnd)), XAR3
         00030d BF00 
         00030f 0004-
     933 000311 EB08          MOV XAR3, dbl(*SP(#4))
         000313 B5   
     934                      .dwpsn  file "../FreeRTOS/Source/portable/MemMang/heap_5.c",line 448,column 3,is_stmt
     935 000314 A90E          MOV *SP(#7), AR1 ; |448| 
     936 000316 D60C          ADD *SP(#6), AR1, AR1 ; |448| 
         000318 99   
     937 000319 C914          MOV AR1, *SP(#10) ; |448| 
     938                      .dwpsn  file "../FreeRTOS/Source/portable/MemMang/heap_5.c",line 449,column 3,is_stmt
     939 00031b 2290          MOV AR1, AC0
     940 00031d DF31          SUB uns(*(#_xHeapStructSize)), AC0, AC0 ; |449| 
         00031f 0F00 
         000321 0000+
     941 000323 C014          MOV AC0, *SP(#10) ; |449| 
     942                      .dwpsn  file "../FreeRTOS/Source/portable/MemMang/heap_5.c",line 450,column 3,is_stmt
TMS320C55x Assembler PC v4.4.1 Thu Sep 13 03:23:49 2018

Tools Copyright (c) 1996-2012 Texas Instruments Incorporated
heap_5.asm                                                           PAGE   22

     943 000325 F414          AND #0xfffc, *SP(#10) ; |450| 
         000327 FFFC 
     944                      .dwpsn  file "../FreeRTOS/Source/portable/MemMang/heap_5.c",line 451,column 3,is_stmt
     945 000329 DF14          MOV uns(*SP(#10)), AC0 ; |451| 
         00032b 05   
     946 00032c EB31          MOV AC0, dbl(*(#_pxEnd))
         00032e 0800 
         000330 0004-
     947                      .dwpsn  file "../FreeRTOS/Source/portable/MemMang/heap_5.c",line 452,column 3,is_stmt
     948 000332 ED31          MOV dbl(*(#_pxEnd)), XAR3
         000334 BF00 
         000336 0004-
     949 000338 E675          MOV #0, *AR3(short(#2)) ; |452| 
         00033a 00   
     950                      .dwpsn  file "../FreeRTOS/Source/portable/MemMang/heap_5.c",line 453,column 3,is_stmt
     951 00033b ED31          MOV dbl(*(#_pxEnd)), XAR3
         00033d BF00 
         00033f 0004-
     952 000341 3C00          MOV #0, AC0 ; |453| 
     953 000343 EB61          MOV AC0, dbl(*AR3)
         000345 08   
     954                      .dwpsn  file "../FreeRTOS/Source/portable/MemMang/heap_5.c",line 458,column 3,is_stmt
     955 000346 DF0C          MOV uns(*SP(#6)), AC0 ; |458| 
         000348 05   
     956 000349 EB04          MOV AC0, dbl(*SP(#2))
         00034b 08   
     957                      .dwpsn  file "../FreeRTOS/Source/portable/MemMang/heap_5.c",line 459,column 3,is_stmt
     958 00034c ED04          MOV dbl(*SP(#2)), XAR3
         00034e BF   
     959 00034f A014          MOV *SP(#10), AC0 ; |459| 
     960 000351 DF06          SUB uns(*SP(#3)), AC0, AC0 ; |459| 
         000353 0F   
     961 000354 C075          MOV AC0, *AR3(short(#2)) ; |459| 
     962                      .dwpsn  file "../FreeRTOS/Source/portable/MemMang/heap_5.c",line 460,column 3,is_stmt
     963 000356 ED04          MOV dbl(*SP(#2)), XAR2
         000358 AF   
     964 000359 ED31          MOV dbl(*(#_pxEnd)), XAR3
         00035b BF00 
         00035d 0004-
     965 00035f EB41          MOV XAR3, dbl(*AR2)
         000361 B5   
     966                      .dwpsn  file "../FreeRTOS/Source/portable/MemMang/heap_5.c",line 464,column 3,is_stmt
     967 000362 ED08          MOV dbl(*SP(#4)), XAR3
         000364 BF   
     968 000365 90B0          MOV XAR3, AC0
     969 000367 6480          BCC $C$L20,AC0 == #0 ; |464| 
     970                                                      ; branchcc occurs ; |464| 
     971 000369       $C$DW$L$_vPortDefineHeapRegions$6$E:
     972 000369       $C$DW$L$_vPortDefineHeapRegions$7$B:
     973                      .dwpsn  file "../FreeRTOS/Source/portable/MemMang/heap_5.c",line 466,column 4,is_stmt
     974 000369 ED08          MOV dbl(*SP(#4)), XAR2
         00036b AF   
     975 00036c ED04          MOV dbl(*SP(#2)), XAR3
         00036e BF   
     976 00036f EB41          MOV XAR3, dbl(*AR2)
TMS320C55x Assembler PC v4.4.1 Thu Sep 13 03:23:49 2018

Tools Copyright (c) 1996-2012 Texas Instruments Incorporated
heap_5.asm                                                           PAGE   23

         000371 B5   
     977 000372       $C$DW$L$_vPortDefineHeapRegions$7$E:
     978 000372       $C$L20:    
     979 000372       $C$DW$L$_vPortDefineHeapRegions$8$B:
     980                      .dwpsn  file "../FreeRTOS/Source/portable/MemMang/heap_5.c",line 469,column 3,is_stmt
     981 000372 ED04          MOV dbl(*SP(#2)), XAR3
         000374 BF   
     982 000375 A975          MOV *AR3(short(#2)), AR1 ; |469| 
     983 000377 D610          ADD *SP(#8), AR1, AR1 ; |469| 
         000379 99   
     984 00037a C910          MOV AR1, *SP(#8) ; |469| 
     985                      .dwpsn  file "../FreeRTOS/Source/portable/MemMang/heap_5.c",line 472,column 3,is_stmt
     986 00037c F712          ADD #1, *SP(#9) ; |472| 
         00037e 0001 
     987                      .dwpsn  file "../FreeRTOS/Source/portable/MemMang/heap_5.c",line 473,column 3,is_stmt
     988 000380 ED00          MOV dbl(*SP(#0)), XAR3
         000382 BF   
     989 000383 F912          MOV *SP(#9) << #2, AC0 ; |473| 
         000385 0208 
     990 000387 2209          MOV AC0, AR1 ; |473| 
     991              
     992 000389 8E18          MOV XAR3, dbl(*SP(#12))
         00038b BB10 
         00038d B590 
     993              ||      AADD AR1, AR3 ; |473| 
     994              
     995                      .dwpsn  file "../FreeRTOS/Source/portable/MemMang/heap_5.c",line 407,column 9,is_stmt
     996 00038f A975          MOV *AR3(short(#2)), AR1 ; |407| 
     997 000391 6D19          BCC $C$L17,AR1 != #0 ; |407| 
         000393 FF38 
     998                                                      ; branchcc occurs ; |407| 
     999 000395       $C$DW$L$_vPortDefineHeapRegions$8$E:
    1000 000395       $C$L21:    
    1001                      .dwpsn  file "../FreeRTOS/Source/portable/MemMang/heap_5.c",line 476,column 2,is_stmt
    1002 000395 A910          MOV *SP(#8), AR1 ; |476| 
    1003 000397 C931          MOV AR1, *(#_xMinimumEverFreeBytesRemaining) ; |476| 
         000399 0000 
         00039b 07-  
    1004                      .dwpsn  file "../FreeRTOS/Source/portable/MemMang/heap_5.c",line 477,column 2,is_stmt
    1005 00039c C931          MOV AR1, *(#_xFreeBytesRemaining) ; |477| 
         00039e 0000 
         0003a0 06-  
    1006                      .dwpsn  file "../FreeRTOS/Source/portable/MemMang/heap_5.c",line 483,column 2,is_stmt
    1007 0003a1 FB31          MOV #128, *(#_xBlockAllocatedBit) ; |483| 
         0003a3 0080 
         0003a5 0000 
         0003a7 08-  
    1008                      .dwpsn  file "../FreeRTOS/Source/portable/MemMang/heap_5.c",line 484,column 1,is_stmt
    1009 0003a8 4E0F          AADD #15, SP
    1010                      .dwcfi  cfa_offset, 1
    1011              $C$DW$58        .dwtag  DW_TAG_TI_branch
    1012                      .dwattr $C$DW$58, DW_AT_low_pc(0x00)
    1013                      .dwattr $C$DW$58, DW_AT_TI_return
    1014 0003aa 4804          RET
    1015                                                      ; return occurs
TMS320C55x Assembler PC v4.4.1 Thu Sep 13 03:23:49 2018

Tools Copyright (c) 1996-2012 Texas Instruments Incorporated
heap_5.asm                                                           PAGE   24

    1016              
    1017              $C$DW$59        .dwtag  DW_TAG_TI_loop
    1018                      .dwattr $C$DW$59, DW_AT_name("F:\eZdsp_DBG\eZDSP_5535_Files\ccsws2\test\Debug\heap_5.asm:$C$L17:1:153
    1019                      .dwattr $C$DW$59, DW_AT_TI_begin_file("../FreeRTOS/Source/portable/MemMang/heap_5.c")
    1020                      .dwattr $C$DW$59, DW_AT_TI_begin_line(0x197)
    1021                      .dwattr $C$DW$59, DW_AT_TI_end_line(0x1da)
    1022              $C$DW$60        .dwtag  DW_TAG_TI_loop_range
    1023                      .dwattr $C$DW$60, DW_AT_low_pc($C$DW$L$_vPortDefineHeapRegions$2$B)
    1024                      .dwattr $C$DW$60, DW_AT_high_pc($C$DW$L$_vPortDefineHeapRegions$2$E)
    1025              $C$DW$61        .dwtag  DW_TAG_TI_loop_range
    1026                      .dwattr $C$DW$61, DW_AT_low_pc($C$DW$L$_vPortDefineHeapRegions$3$B)
    1027                      .dwattr $C$DW$61, DW_AT_high_pc($C$DW$L$_vPortDefineHeapRegions$3$E)
    1028              $C$DW$62        .dwtag  DW_TAG_TI_loop_range
    1029                      .dwattr $C$DW$62, DW_AT_low_pc($C$DW$L$_vPortDefineHeapRegions$4$B)
    1030                      .dwattr $C$DW$62, DW_AT_high_pc($C$DW$L$_vPortDefineHeapRegions$4$E)
    1031              $C$DW$63        .dwtag  DW_TAG_TI_loop_range
    1032                      .dwattr $C$DW$63, DW_AT_low_pc($C$DW$L$_vPortDefineHeapRegions$5$B)
    1033                      .dwattr $C$DW$63, DW_AT_high_pc($C$DW$L$_vPortDefineHeapRegions$5$E)
    1034              $C$DW$64        .dwtag  DW_TAG_TI_loop_range
    1035                      .dwattr $C$DW$64, DW_AT_low_pc($C$DW$L$_vPortDefineHeapRegions$6$B)
    1036                      .dwattr $C$DW$64, DW_AT_high_pc($C$DW$L$_vPortDefineHeapRegions$6$E)
    1037              $C$DW$65        .dwtag  DW_TAG_TI_loop_range
    1038                      .dwattr $C$DW$65, DW_AT_low_pc($C$DW$L$_vPortDefineHeapRegions$7$B)
    1039                      .dwattr $C$DW$65, DW_AT_high_pc($C$DW$L$_vPortDefineHeapRegions$7$E)
    1040              $C$DW$66        .dwtag  DW_TAG_TI_loop_range
    1041                      .dwattr $C$DW$66, DW_AT_low_pc($C$DW$L$_vPortDefineHeapRegions$8$B)
    1042                      .dwattr $C$DW$66, DW_AT_high_pc($C$DW$L$_vPortDefineHeapRegions$8$E)
    1043                      .dwendtag $C$DW$59
    1044              
    1045                      .dwattr $C$DW$47, DW_AT_TI_end_file("../FreeRTOS/Source/portable/MemMang/heap_5.c")
    1046                      .dwattr $C$DW$47, DW_AT_TI_end_line(0x1e4)
    1047                      .dwattr $C$DW$47, DW_AT_TI_end_column(0x01)
    1048                      .dwendentry
    1049                      .dwendtag $C$DW$47
    1050              
    1051              ;******************************************************************************
    1052              ;* UNDEFINED EXTERNAL REFERENCES                                              *
    1053              ;******************************************************************************
    1054                      .global _vTaskSuspendAll
    1055                      .global _xTaskResumeAll
    1056                      .global _vApplicationMallocFailedHook
    1057              
    1058              ;*******************************************************************************
    1059              ;* TYPE INFORMATION                                                            *
    1060              ;*******************************************************************************
    1061              
    1062              $C$DW$T$21      .dwtag  DW_TAG_structure_type
    1063                      .dwattr $C$DW$T$21, DW_AT_name("A_BLOCK_LINK")
    1064                      .dwattr $C$DW$T$21, DW_AT_byte_size(0x04)
    1065              $C$DW$67        .dwtag  DW_TAG_member
    1066                      .dwattr $C$DW$67, DW_AT_type(*$C$DW$T$19)
    1067                      .dwattr $C$DW$67, DW_AT_name("pxNextFreeBlock")
    1068                      .dwattr $C$DW$67, DW_AT_TI_symbol_name("_pxNextFreeBlock")
    1069                      .dwattr $C$DW$67, DW_AT_data_member_location[DW_OP_plus_uconst 0x0]
    1070                      .dwattr $C$DW$67, DW_AT_accessibility(DW_ACCESS_public)
TMS320C55x Assembler PC v4.4.1 Thu Sep 13 03:23:49 2018

Tools Copyright (c) 1996-2012 Texas Instruments Incorporated
heap_5.asm                                                           PAGE   25

    1071              $C$DW$68        .dwtag  DW_TAG_member
    1072                      .dwattr $C$DW$68, DW_AT_type(*$C$DW$T$20)
    1073                      .dwattr $C$DW$68, DW_AT_name("xBlockSize")
    1074                      .dwattr $C$DW$68, DW_AT_TI_symbol_name("_xBlockSize")
    1075                      .dwattr $C$DW$68, DW_AT_data_member_location[DW_OP_plus_uconst 0x2]
    1076                      .dwattr $C$DW$68, DW_AT_accessibility(DW_ACCESS_public)
    1077                      .dwendtag $C$DW$T$21
    1078              
    1079              $C$DW$T$25      .dwtag  DW_TAG_typedef, DW_AT_name("BlockLink_t")
    1080                      .dwattr $C$DW$T$25, DW_AT_type(*$C$DW$T$21)
    1081                      .dwattr $C$DW$T$25, DW_AT_language(DW_LANG_C)
    1082              $C$DW$T$26      .dwtag  DW_TAG_pointer_type
    1083                      .dwattr $C$DW$T$26, DW_AT_type(*$C$DW$T$25)
    1084                      .dwattr $C$DW$T$26, DW_AT_address_class(0x17)
    1085              $C$DW$T$19      .dwtag  DW_TAG_pointer_type
    1086                      .dwattr $C$DW$T$19, DW_AT_type(*$C$DW$T$21)
    1087                      .dwattr $C$DW$T$19, DW_AT_address_class(0x17)
    1088              
    1089              $C$DW$T$24      .dwtag  DW_TAG_structure_type
    1090                      .dwattr $C$DW$T$24, DW_AT_name("HeapRegion")
    1091                      .dwattr $C$DW$T$24, DW_AT_byte_size(0x04)
    1092              $C$DW$69        .dwtag  DW_TAG_member
    1093                      .dwattr $C$DW$69, DW_AT_type(*$C$DW$T$23)
    1094                      .dwattr $C$DW$69, DW_AT_name("pucStartAddress")
    1095                      .dwattr $C$DW$69, DW_AT_TI_symbol_name("_pucStartAddress")
    1096                      .dwattr $C$DW$69, DW_AT_data_member_location[DW_OP_plus_uconst 0x0]
    1097                      .dwattr $C$DW$69, DW_AT_accessibility(DW_ACCESS_public)
    1098              $C$DW$70        .dwtag  DW_TAG_member
    1099                      .dwattr $C$DW$70, DW_AT_type(*$C$DW$T$20)
    1100                      .dwattr $C$DW$70, DW_AT_name("xSizeInBytes")
    1101                      .dwattr $C$DW$70, DW_AT_TI_symbol_name("_xSizeInBytes")
    1102                      .dwattr $C$DW$70, DW_AT_data_member_location[DW_OP_plus_uconst 0x2]
    1103                      .dwattr $C$DW$70, DW_AT_accessibility(DW_ACCESS_public)
    1104                      .dwendtag $C$DW$T$24
    1105              
    1106              $C$DW$T$27      .dwtag  DW_TAG_typedef, DW_AT_name("HeapRegion_t")
    1107                      .dwattr $C$DW$T$27, DW_AT_type(*$C$DW$T$24)
    1108                      .dwattr $C$DW$T$27, DW_AT_language(DW_LANG_C)
    1109              $C$DW$71        .dwtag  DW_TAG_TI_far_type
    1110                      .dwattr $C$DW$71, DW_AT_type(*$C$DW$T$27)
    1111              $C$DW$T$28      .dwtag  DW_TAG_const_type
    1112                      .dwattr $C$DW$T$28, DW_AT_type(*$C$DW$71)
    1113              $C$DW$T$29      .dwtag  DW_TAG_pointer_type
    1114                      .dwattr $C$DW$T$29, DW_AT_type(*$C$DW$T$28)
    1115                      .dwattr $C$DW$T$29, DW_AT_address_class(0x17)
    1116              $C$DW$72        .dwtag  DW_TAG_TI_far_type
    1117                      .dwattr $C$DW$72, DW_AT_type(*$C$DW$T$29)
    1118              $C$DW$T$30      .dwtag  DW_TAG_const_type
    1119                      .dwattr $C$DW$T$30, DW_AT_type(*$C$DW$72)
    1120              $C$DW$T$3       .dwtag  DW_TAG_pointer_type
    1121                      .dwattr $C$DW$T$3, DW_AT_address_class(0x17)
    1122              $C$DW$T$4       .dwtag  DW_TAG_base_type
    1123                      .dwattr $C$DW$T$4, DW_AT_encoding(DW_ATE_boolean)
    1124                      .dwattr $C$DW$T$4, DW_AT_name("bool")
    1125                      .dwattr $C$DW$T$4, DW_AT_byte_size(0x01)
TMS320C55x Assembler PC v4.4.1 Thu Sep 13 03:23:49 2018

Tools Copyright (c) 1996-2012 Texas Instruments Incorporated
heap_5.asm                                                           PAGE   26

    1126              $C$DW$T$5       .dwtag  DW_TAG_base_type
    1127                      .dwattr $C$DW$T$5, DW_AT_encoding(DW_ATE_signed_char)
    1128                      .dwattr $C$DW$T$5, DW_AT_name("signed char")
    1129                      .dwattr $C$DW$T$5, DW_AT_byte_size(0x01)
    1130              $C$DW$T$6       .dwtag  DW_TAG_base_type
    1131                      .dwattr $C$DW$T$6, DW_AT_encoding(DW_ATE_unsigned_char)
    1132                      .dwattr $C$DW$T$6, DW_AT_name("unsigned char")
    1133                      .dwattr $C$DW$T$6, DW_AT_byte_size(0x01)
    1134              $C$DW$T$22      .dwtag  DW_TAG_typedef, DW_AT_name("uint8_t")
    1135                      .dwattr $C$DW$T$22, DW_AT_type(*$C$DW$T$6)
    1136                      .dwattr $C$DW$T$22, DW_AT_language(DW_LANG_C)
    1137              $C$DW$T$23      .dwtag  DW_TAG_pointer_type
    1138                      .dwattr $C$DW$T$23, DW_AT_type(*$C$DW$T$22)
    1139                      .dwattr $C$DW$T$23, DW_AT_address_class(0x17)
    1140              $C$DW$T$7       .dwtag  DW_TAG_base_type
    1141                      .dwattr $C$DW$T$7, DW_AT_encoding(DW_ATE_signed_char)
    1142                      .dwattr $C$DW$T$7, DW_AT_name("wchar_t")
    1143                      .dwattr $C$DW$T$7, DW_AT_byte_size(0x01)
    1144              $C$DW$T$8       .dwtag  DW_TAG_base_type
    1145                      .dwattr $C$DW$T$8, DW_AT_encoding(DW_ATE_signed)
    1146                      .dwattr $C$DW$T$8, DW_AT_name("short")
    1147                      .dwattr $C$DW$T$8, DW_AT_byte_size(0x01)
    1148              $C$DW$T$39      .dwtag  DW_TAG_typedef, DW_AT_name("BaseType_t")
    1149                      .dwattr $C$DW$T$39, DW_AT_type(*$C$DW$T$8)
    1150                      .dwattr $C$DW$T$39, DW_AT_language(DW_LANG_C)
    1151              $C$DW$T$9       .dwtag  DW_TAG_base_type
    1152                      .dwattr $C$DW$T$9, DW_AT_encoding(DW_ATE_unsigned)
    1153                      .dwattr $C$DW$T$9, DW_AT_name("unsigned short")
    1154                      .dwattr $C$DW$T$9, DW_AT_byte_size(0x01)
    1155              $C$DW$T$10      .dwtag  DW_TAG_base_type
    1156                      .dwattr $C$DW$T$10, DW_AT_encoding(DW_ATE_signed)
    1157                      .dwattr $C$DW$T$10, DW_AT_name("int")
    1158                      .dwattr $C$DW$T$10, DW_AT_byte_size(0x01)
    1159              $C$DW$T$11      .dwtag  DW_TAG_base_type
    1160                      .dwattr $C$DW$T$11, DW_AT_encoding(DW_ATE_unsigned)
    1161                      .dwattr $C$DW$T$11, DW_AT_name("unsigned int")
    1162                      .dwattr $C$DW$T$11, DW_AT_byte_size(0x01)
    1163              $C$DW$T$20      .dwtag  DW_TAG_typedef, DW_AT_name("size_t")
    1164                      .dwattr $C$DW$T$20, DW_AT_type(*$C$DW$T$11)
    1165                      .dwattr $C$DW$T$20, DW_AT_language(DW_LANG_C)
    1166              $C$DW$73        .dwtag  DW_TAG_TI_far_type
    1167                      .dwattr $C$DW$73, DW_AT_type(*$C$DW$T$20)
    1168              $C$DW$T$43      .dwtag  DW_TAG_const_type
    1169                      .dwattr $C$DW$T$43, DW_AT_type(*$C$DW$73)
    1170              $C$DW$T$12      .dwtag  DW_TAG_base_type
    1171                      .dwattr $C$DW$T$12, DW_AT_encoding(DW_ATE_signed)
    1172                      .dwattr $C$DW$T$12, DW_AT_name("long")
    1173                      .dwattr $C$DW$T$12, DW_AT_byte_size(0x02)
    1174              $C$DW$T$13      .dwtag  DW_TAG_base_type
    1175                      .dwattr $C$DW$T$13, DW_AT_encoding(DW_ATE_unsigned)
    1176                      .dwattr $C$DW$T$13, DW_AT_name("unsigned long")
    1177                      .dwattr $C$DW$T$13, DW_AT_byte_size(0x02)
    1178              $C$DW$T$14      .dwtag  DW_TAG_base_type
    1179                      .dwattr $C$DW$T$14, DW_AT_encoding(DW_ATE_signed)
    1180                      .dwattr $C$DW$T$14, DW_AT_name("long long")
TMS320C55x Assembler PC v4.4.1 Thu Sep 13 03:23:49 2018

Tools Copyright (c) 1996-2012 Texas Instruments Incorporated
heap_5.asm                                                           PAGE   27

    1181                      .dwattr $C$DW$T$14, DW_AT_byte_size(0x04)
    1182                      .dwattr $C$DW$T$14, DW_AT_bit_size(0x28)
    1183                      .dwattr $C$DW$T$14, DW_AT_bit_offset(0x18)
    1184              $C$DW$T$15      .dwtag  DW_TAG_base_type
    1185                      .dwattr $C$DW$T$15, DW_AT_encoding(DW_ATE_unsigned)
    1186                      .dwattr $C$DW$T$15, DW_AT_name("unsigned long long")
    1187                      .dwattr $C$DW$T$15, DW_AT_byte_size(0x04)
    1188                      .dwattr $C$DW$T$15, DW_AT_bit_size(0x28)
    1189                      .dwattr $C$DW$T$15, DW_AT_bit_offset(0x18)
    1190              $C$DW$T$16      .dwtag  DW_TAG_base_type
    1191                      .dwattr $C$DW$T$16, DW_AT_encoding(DW_ATE_float)
    1192                      .dwattr $C$DW$T$16, DW_AT_name("float")
    1193                      .dwattr $C$DW$T$16, DW_AT_byte_size(0x02)
    1194              $C$DW$T$17      .dwtag  DW_TAG_base_type
    1195                      .dwattr $C$DW$T$17, DW_AT_encoding(DW_ATE_float)
    1196                      .dwattr $C$DW$T$17, DW_AT_name("double")
    1197                      .dwattr $C$DW$T$17, DW_AT_byte_size(0x02)
    1198              $C$DW$T$18      .dwtag  DW_TAG_base_type
    1199                      .dwattr $C$DW$T$18, DW_AT_encoding(DW_ATE_float)
    1200                      .dwattr $C$DW$T$18, DW_AT_name("long double")
    1201                      .dwattr $C$DW$T$18, DW_AT_byte_size(0x02)
    1202                      .dwattr $C$DW$CU, DW_AT_language(DW_LANG_C)
    1203              
    1204              ;***************************************************************
    1205              ;* DWARF CIE ENTRIES                                           *
    1206              ;***************************************************************
    1207              
    1208              $C$DW$CIE       .dwcie 91
    1209                      .dwcfi  cfa_register, 36
    1210                      .dwcfi  cfa_offset, 0
    1211                      .dwcfi  undefined, 0
    1212                      .dwcfi  undefined, 1
    1213                      .dwcfi  undefined, 2
    1214                      .dwcfi  undefined, 3
    1215                      .dwcfi  undefined, 4
    1216                      .dwcfi  undefined, 5
    1217                      .dwcfi  undefined, 6
    1218                      .dwcfi  undefined, 7
    1219                      .dwcfi  undefined, 8
    1220                      .dwcfi  undefined, 9
    1221                      .dwcfi  undefined, 10
    1222                      .dwcfi  undefined, 11
    1223                      .dwcfi  undefined, 12
    1224                      .dwcfi  undefined, 13
    1225                      .dwcfi  same_value, 14
    1226                      .dwcfi  same_value, 15
    1227                      .dwcfi  undefined, 16
    1228                      .dwcfi  undefined, 17
    1229                      .dwcfi  undefined, 18
    1230                      .dwcfi  undefined, 19
    1231                      .dwcfi  undefined, 20
    1232                      .dwcfi  undefined, 21
    1233                      .dwcfi  undefined, 22
    1234                      .dwcfi  undefined, 23
    1235                      .dwcfi  undefined, 24
TMS320C55x Assembler PC v4.4.1 Thu Sep 13 03:23:49 2018

Tools Copyright (c) 1996-2012 Texas Instruments Incorporated
heap_5.asm                                                           PAGE   28

    1236                      .dwcfi  undefined, 25
    1237                      .dwcfi  same_value, 26
    1238                      .dwcfi  same_value, 27
    1239                      .dwcfi  same_value, 28
    1240                      .dwcfi  same_value, 29
    1241                      .dwcfi  same_value, 30
    1242                      .dwcfi  same_value, 31
    1243                      .dwcfi  undefined, 32
    1244                      .dwcfi  undefined, 33
    1245                      .dwcfi  undefined, 34
    1246                      .dwcfi  undefined, 35
    1247                      .dwcfi  undefined, 36
    1248                      .dwcfi  undefined, 37
    1249                      .dwcfi  undefined, 38
    1250                      .dwcfi  undefined, 39
    1251                      .dwcfi  undefined, 40
    1252                      .dwcfi  undefined, 41
    1253                      .dwcfi  undefined, 42
    1254                      .dwcfi  undefined, 43
    1255                      .dwcfi  undefined, 44
    1256                      .dwcfi  undefined, 45
    1257                      .dwcfi  undefined, 46
    1258                      .dwcfi  undefined, 47
    1259                      .dwcfi  undefined, 48
    1260                      .dwcfi  undefined, 49
    1261                      .dwcfi  undefined, 50
    1262                      .dwcfi  undefined, 51
    1263                      .dwcfi  undefined, 52
    1264                      .dwcfi  undefined, 53
    1265                      .dwcfi  undefined, 54
    1266                      .dwcfi  undefined, 55
    1267                      .dwcfi  undefined, 56
    1268                      .dwcfi  undefined, 57
    1269                      .dwcfi  undefined, 58
    1270                      .dwcfi  undefined, 59
    1271                      .dwcfi  undefined, 60
    1272                      .dwcfi  undefined, 61
    1273                      .dwcfi  undefined, 62
    1274                      .dwcfi  undefined, 63
    1275                      .dwcfi  undefined, 64
    1276                      .dwcfi  undefined, 65
    1277                      .dwcfi  undefined, 66
    1278                      .dwcfi  undefined, 67
    1279                      .dwcfi  undefined, 68
    1280                      .dwcfi  undefined, 69
    1281                      .dwcfi  undefined, 70
    1282                      .dwcfi  undefined, 71
    1283                      .dwcfi  undefined, 72
    1284                      .dwcfi  undefined, 73
    1285                      .dwcfi  undefined, 74
    1286                      .dwcfi  undefined, 75
    1287                      .dwcfi  undefined, 76
    1288                      .dwcfi  undefined, 77
    1289                      .dwcfi  undefined, 78
    1290                      .dwcfi  undefined, 79
TMS320C55x Assembler PC v4.4.1 Thu Sep 13 03:23:49 2018

Tools Copyright (c) 1996-2012 Texas Instruments Incorporated
heap_5.asm                                                           PAGE   29

    1291                      .dwcfi  undefined, 80
    1292                      .dwcfi  undefined, 81
    1293                      .dwcfi  undefined, 82
    1294                      .dwcfi  undefined, 83
    1295                      .dwcfi  undefined, 84
    1296                      .dwcfi  undefined, 85
    1297                      .dwcfi  undefined, 86
    1298                      .dwcfi  undefined, 87
    1299                      .dwcfi  undefined, 88
    1300                      .dwcfi  undefined, 89
    1301                      .dwcfi  undefined, 90
    1302                      .dwcfi  undefined, 91
    1303                      .dwendentry
    1304              
    1305              ;***************************************************************
    1306              ;* DWARF REGISTER MAP                                          *
    1307              ;***************************************************************
    1308              
    1309              $C$DW$74        .dwtag  DW_TAG_TI_assign_register, DW_AT_name("AC0")
    1310                      .dwattr $C$DW$74, DW_AT_location[DW_OP_reg0]
    1311              $C$DW$75        .dwtag  DW_TAG_TI_assign_register, DW_AT_name("AC0")
    1312                      .dwattr $C$DW$75, DW_AT_location[DW_OP_reg1]
    1313              $C$DW$76        .dwtag  DW_TAG_TI_assign_register, DW_AT_name("AC0_G")
    1314                      .dwattr $C$DW$76, DW_AT_location[DW_OP_reg2]
    1315              $C$DW$77        .dwtag  DW_TAG_TI_assign_register, DW_AT_name("AC1")
    1316                      .dwattr $C$DW$77, DW_AT_location[DW_OP_reg3]
    1317              $C$DW$78        .dwtag  DW_TAG_TI_assign_register, DW_AT_name("AC1")
    1318                      .dwattr $C$DW$78, DW_AT_location[DW_OP_reg4]
    1319              $C$DW$79        .dwtag  DW_TAG_TI_assign_register, DW_AT_name("AC1_G")
    1320                      .dwattr $C$DW$79, DW_AT_location[DW_OP_reg5]
    1321              $C$DW$80        .dwtag  DW_TAG_TI_assign_register, DW_AT_name("AC2")
    1322                      .dwattr $C$DW$80, DW_AT_location[DW_OP_reg6]
    1323              $C$DW$81        .dwtag  DW_TAG_TI_assign_register, DW_AT_name("AC2")
    1324                      .dwattr $C$DW$81, DW_AT_location[DW_OP_reg7]
    1325              $C$DW$82        .dwtag  DW_TAG_TI_assign_register, DW_AT_name("AC2_G")
    1326                      .dwattr $C$DW$82, DW_AT_location[DW_OP_reg8]
    1327              $C$DW$83        .dwtag  DW_TAG_TI_assign_register, DW_AT_name("AC3")
    1328                      .dwattr $C$DW$83, DW_AT_location[DW_OP_reg9]
    1329              $C$DW$84        .dwtag  DW_TAG_TI_assign_register, DW_AT_name("AC3")
    1330                      .dwattr $C$DW$84, DW_AT_location[DW_OP_reg10]
    1331              $C$DW$85        .dwtag  DW_TAG_TI_assign_register, DW_AT_name("AC3_G")
    1332                      .dwattr $C$DW$85, DW_AT_location[DW_OP_reg11]
    1333              $C$DW$86        .dwtag  DW_TAG_TI_assign_register, DW_AT_name("T0")
    1334                      .dwattr $C$DW$86, DW_AT_location[DW_OP_reg12]
    1335              $C$DW$87        .dwtag  DW_TAG_TI_assign_register, DW_AT_name("T1")
    1336                      .dwattr $C$DW$87, DW_AT_location[DW_OP_reg13]
    1337              $C$DW$88        .dwtag  DW_TAG_TI_assign_register, DW_AT_name("T2")
    1338                      .dwattr $C$DW$88, DW_AT_location[DW_OP_reg14]
    1339              $C$DW$89        .dwtag  DW_TAG_TI_assign_register, DW_AT_name("T3")
    1340                      .dwattr $C$DW$89, DW_AT_location[DW_OP_reg15]
    1341              $C$DW$90        .dwtag  DW_TAG_TI_assign_register, DW_AT_name("AR0")
    1342                      .dwattr $C$DW$90, DW_AT_location[DW_OP_reg16]
    1343              $C$DW$91        .dwtag  DW_TAG_TI_assign_register, DW_AT_name("XAR0")
    1344                      .dwattr $C$DW$91, DW_AT_location[DW_OP_reg17]
    1345              $C$DW$92        .dwtag  DW_TAG_TI_assign_register, DW_AT_name("AR1")
TMS320C55x Assembler PC v4.4.1 Thu Sep 13 03:23:49 2018

Tools Copyright (c) 1996-2012 Texas Instruments Incorporated
heap_5.asm                                                           PAGE   30

    1346                      .dwattr $C$DW$92, DW_AT_location[DW_OP_reg18]
    1347              $C$DW$93        .dwtag  DW_TAG_TI_assign_register, DW_AT_name("XAR1")
    1348                      .dwattr $C$DW$93, DW_AT_location[DW_OP_reg19]
    1349              $C$DW$94        .dwtag  DW_TAG_TI_assign_register, DW_AT_name("AR2")
    1350                      .dwattr $C$DW$94, DW_AT_location[DW_OP_reg20]
    1351              $C$DW$95        .dwtag  DW_TAG_TI_assign_register, DW_AT_name("XAR2")
    1352                      .dwattr $C$DW$95, DW_AT_location[DW_OP_reg21]
    1353              $C$DW$96        .dwtag  DW_TAG_TI_assign_register, DW_AT_name("AR3")
    1354                      .dwattr $C$DW$96, DW_AT_location[DW_OP_reg22]
    1355              $C$DW$97        .dwtag  DW_TAG_TI_assign_register, DW_AT_name("XAR3")
    1356                      .dwattr $C$DW$97, DW_AT_location[DW_OP_reg23]
    1357              $C$DW$98        .dwtag  DW_TAG_TI_assign_register, DW_AT_name("AR4")
    1358                      .dwattr $C$DW$98, DW_AT_location[DW_OP_reg24]
    1359              $C$DW$99        .dwtag  DW_TAG_TI_assign_register, DW_AT_name("XAR4")
    1360                      .dwattr $C$DW$99, DW_AT_location[DW_OP_reg25]
    1361              $C$DW$100       .dwtag  DW_TAG_TI_assign_register, DW_AT_name("AR5")
    1362                      .dwattr $C$DW$100, DW_AT_location[DW_OP_reg26]
    1363              $C$DW$101       .dwtag  DW_TAG_TI_assign_register, DW_AT_name("XAR5")
    1364                      .dwattr $C$DW$101, DW_AT_location[DW_OP_reg27]
    1365              $C$DW$102       .dwtag  DW_TAG_TI_assign_register, DW_AT_name("AR6")
    1366                      .dwattr $C$DW$102, DW_AT_location[DW_OP_reg28]
    1367              $C$DW$103       .dwtag  DW_TAG_TI_assign_register, DW_AT_name("XAR6")
    1368                      .dwattr $C$DW$103, DW_AT_location[DW_OP_reg29]
    1369              $C$DW$104       .dwtag  DW_TAG_TI_assign_register, DW_AT_name("AR7")
    1370                      .dwattr $C$DW$104, DW_AT_location[DW_OP_reg30]
    1371              $C$DW$105       .dwtag  DW_TAG_TI_assign_register, DW_AT_name("XAR7")
    1372                      .dwattr $C$DW$105, DW_AT_location[DW_OP_reg31]
    1373              $C$DW$106       .dwtag  DW_TAG_TI_assign_register, DW_AT_name("FP")
    1374                      .dwattr $C$DW$106, DW_AT_location[DW_OP_regx 0x20]
    1375              $C$DW$107       .dwtag  DW_TAG_TI_assign_register, DW_AT_name("XFP")
    1376                      .dwattr $C$DW$107, DW_AT_location[DW_OP_regx 0x21]
    1377              $C$DW$108       .dwtag  DW_TAG_TI_assign_register, DW_AT_name("PC")
    1378                      .dwattr $C$DW$108, DW_AT_location[DW_OP_regx 0x22]
    1379              $C$DW$109       .dwtag  DW_TAG_TI_assign_register, DW_AT_name("SP")
    1380                      .dwattr $C$DW$109, DW_AT_location[DW_OP_regx 0x23]
    1381              $C$DW$110       .dwtag  DW_TAG_TI_assign_register, DW_AT_name("XSP")
    1382                      .dwattr $C$DW$110, DW_AT_location[DW_OP_regx 0x24]
    1383              $C$DW$111       .dwtag  DW_TAG_TI_assign_register, DW_AT_name("BKC")
    1384                      .dwattr $C$DW$111, DW_AT_location[DW_OP_regx 0x25]
    1385              $C$DW$112       .dwtag  DW_TAG_TI_assign_register, DW_AT_name("BK03")
    1386                      .dwattr $C$DW$112, DW_AT_location[DW_OP_regx 0x26]
    1387              $C$DW$113       .dwtag  DW_TAG_TI_assign_register, DW_AT_name("BK47")
    1388                      .dwattr $C$DW$113, DW_AT_location[DW_OP_regx 0x27]
    1389              $C$DW$114       .dwtag  DW_TAG_TI_assign_register, DW_AT_name("ST0")
    1390                      .dwattr $C$DW$114, DW_AT_location[DW_OP_regx 0x28]
    1391              $C$DW$115       .dwtag  DW_TAG_TI_assign_register, DW_AT_name("ST1")
    1392                      .dwattr $C$DW$115, DW_AT_location[DW_OP_regx 0x29]
    1393              $C$DW$116       .dwtag  DW_TAG_TI_assign_register, DW_AT_name("ST2")
    1394                      .dwattr $C$DW$116, DW_AT_location[DW_OP_regx 0x2a]
    1395              $C$DW$117       .dwtag  DW_TAG_TI_assign_register, DW_AT_name("ST3")
    1396                      .dwattr $C$DW$117, DW_AT_location[DW_OP_regx 0x2b]
    1397              $C$DW$118       .dwtag  DW_TAG_TI_assign_register, DW_AT_name("MDP")
    1398                      .dwattr $C$DW$118, DW_AT_location[DW_OP_regx 0x2c]
    1399              $C$DW$119       .dwtag  DW_TAG_TI_assign_register, DW_AT_name("MDP05")
    1400                      .dwattr $C$DW$119, DW_AT_location[DW_OP_regx 0x2d]
TMS320C55x Assembler PC v4.4.1 Thu Sep 13 03:23:49 2018

Tools Copyright (c) 1996-2012 Texas Instruments Incorporated
heap_5.asm                                                           PAGE   31

    1401              $C$DW$120       .dwtag  DW_TAG_TI_assign_register, DW_AT_name("MDP67")
    1402                      .dwattr $C$DW$120, DW_AT_location[DW_OP_regx 0x2e]
    1403              $C$DW$121       .dwtag  DW_TAG_TI_assign_register, DW_AT_name("BRC0")
    1404                      .dwattr $C$DW$121, DW_AT_location[DW_OP_regx 0x2f]
    1405              $C$DW$122       .dwtag  DW_TAG_TI_assign_register, DW_AT_name("RSA0")
    1406                      .dwattr $C$DW$122, DW_AT_location[DW_OP_regx 0x30]
    1407              $C$DW$123       .dwtag  DW_TAG_TI_assign_register, DW_AT_name("RSA0_H")
    1408                      .dwattr $C$DW$123, DW_AT_location[DW_OP_regx 0x31]
    1409              $C$DW$124       .dwtag  DW_TAG_TI_assign_register, DW_AT_name("REA0")
    1410                      .dwattr $C$DW$124, DW_AT_location[DW_OP_regx 0x32]
    1411              $C$DW$125       .dwtag  DW_TAG_TI_assign_register, DW_AT_name("REA0_H")
    1412                      .dwattr $C$DW$125, DW_AT_location[DW_OP_regx 0x33]
    1413              $C$DW$126       .dwtag  DW_TAG_TI_assign_register, DW_AT_name("BRS1")
    1414                      .dwattr $C$DW$126, DW_AT_location[DW_OP_regx 0x34]
    1415              $C$DW$127       .dwtag  DW_TAG_TI_assign_register, DW_AT_name("BRC1")
    1416                      .dwattr $C$DW$127, DW_AT_location[DW_OP_regx 0x35]
    1417              $C$DW$128       .dwtag  DW_TAG_TI_assign_register, DW_AT_name("RSA1")
    1418                      .dwattr $C$DW$128, DW_AT_location[DW_OP_regx 0x36]
    1419              $C$DW$129       .dwtag  DW_TAG_TI_assign_register, DW_AT_name("RSA1_H")
    1420                      .dwattr $C$DW$129, DW_AT_location[DW_OP_regx 0x37]
    1421              $C$DW$130       .dwtag  DW_TAG_TI_assign_register, DW_AT_name("REA1")
    1422                      .dwattr $C$DW$130, DW_AT_location[DW_OP_regx 0x38]
    1423              $C$DW$131       .dwtag  DW_TAG_TI_assign_register, DW_AT_name("REA1_H")
    1424                      .dwattr $C$DW$131, DW_AT_location[DW_OP_regx 0x39]
    1425              $C$DW$132       .dwtag  DW_TAG_TI_assign_register, DW_AT_name("CSR")
    1426                      .dwattr $C$DW$132, DW_AT_location[DW_OP_regx 0x3a]
    1427              $C$DW$133       .dwtag  DW_TAG_TI_assign_register, DW_AT_name("RPTC")
    1428                      .dwattr $C$DW$133, DW_AT_location[DW_OP_regx 0x3b]
    1429              $C$DW$134       .dwtag  DW_TAG_TI_assign_register, DW_AT_name("CDP")
    1430                      .dwattr $C$DW$134, DW_AT_location[DW_OP_regx 0x3c]
    1431              $C$DW$135       .dwtag  DW_TAG_TI_assign_register, DW_AT_name("XCDP")
    1432                      .dwattr $C$DW$135, DW_AT_location[DW_OP_regx 0x3d]
    1433              $C$DW$136       .dwtag  DW_TAG_TI_assign_register, DW_AT_name("TRN0")
    1434                      .dwattr $C$DW$136, DW_AT_location[DW_OP_regx 0x3e]
    1435              $C$DW$137       .dwtag  DW_TAG_TI_assign_register, DW_AT_name("TRN1")
    1436                      .dwattr $C$DW$137, DW_AT_location[DW_OP_regx 0x3f]
    1437              $C$DW$138       .dwtag  DW_TAG_TI_assign_register, DW_AT_name("BSA01")
    1438                      .dwattr $C$DW$138, DW_AT_location[DW_OP_regx 0x40]
    1439              $C$DW$139       .dwtag  DW_TAG_TI_assign_register, DW_AT_name("BSA23")
    1440                      .dwattr $C$DW$139, DW_AT_location[DW_OP_regx 0x41]
    1441              $C$DW$140       .dwtag  DW_TAG_TI_assign_register, DW_AT_name("BSA45")
    1442                      .dwattr $C$DW$140, DW_AT_location[DW_OP_regx 0x42]
    1443              $C$DW$141       .dwtag  DW_TAG_TI_assign_register, DW_AT_name("BSA67")
    1444                      .dwattr $C$DW$141, DW_AT_location[DW_OP_regx 0x43]
    1445              $C$DW$142       .dwtag  DW_TAG_TI_assign_register, DW_AT_name("BSAC")
    1446                      .dwattr $C$DW$142, DW_AT_location[DW_OP_regx 0x44]
    1447              $C$DW$143       .dwtag  DW_TAG_TI_assign_register, DW_AT_name("CARRY")
    1448                      .dwattr $C$DW$143, DW_AT_location[DW_OP_regx 0x45]
    1449              $C$DW$144       .dwtag  DW_TAG_TI_assign_register, DW_AT_name("TC1")
    1450                      .dwattr $C$DW$144, DW_AT_location[DW_OP_regx 0x46]
    1451              $C$DW$145       .dwtag  DW_TAG_TI_assign_register, DW_AT_name("TC2")
    1452                      .dwattr $C$DW$145, DW_AT_location[DW_OP_regx 0x47]
    1453              $C$DW$146       .dwtag  DW_TAG_TI_assign_register, DW_AT_name("M40")
    1454                      .dwattr $C$DW$146, DW_AT_location[DW_OP_regx 0x48]
    1455              $C$DW$147       .dwtag  DW_TAG_TI_assign_register, DW_AT_name("SXMD")
TMS320C55x Assembler PC v4.4.1 Thu Sep 13 03:23:49 2018

Tools Copyright (c) 1996-2012 Texas Instruments Incorporated
heap_5.asm                                                           PAGE   32

    1456                      .dwattr $C$DW$147, DW_AT_location[DW_OP_regx 0x49]
    1457              $C$DW$148       .dwtag  DW_TAG_TI_assign_register, DW_AT_name("ARMS")
    1458                      .dwattr $C$DW$148, DW_AT_location[DW_OP_regx 0x4a]
    1459              $C$DW$149       .dwtag  DW_TAG_TI_assign_register, DW_AT_name("C54CM")
    1460                      .dwattr $C$DW$149, DW_AT_location[DW_OP_regx 0x4b]
    1461              $C$DW$150       .dwtag  DW_TAG_TI_assign_register, DW_AT_name("SATA")
    1462                      .dwattr $C$DW$150, DW_AT_location[DW_OP_regx 0x4c]
    1463              $C$DW$151       .dwtag  DW_TAG_TI_assign_register, DW_AT_name("SATD")
    1464                      .dwattr $C$DW$151, DW_AT_location[DW_OP_regx 0x4d]
    1465              $C$DW$152       .dwtag  DW_TAG_TI_assign_register, DW_AT_name("RDM")
    1466                      .dwattr $C$DW$152, DW_AT_location[DW_OP_regx 0x4e]
    1467              $C$DW$153       .dwtag  DW_TAG_TI_assign_register, DW_AT_name("FRCT")
    1468                      .dwattr $C$DW$153, DW_AT_location[DW_OP_regx 0x4f]
    1469              $C$DW$154       .dwtag  DW_TAG_TI_assign_register, DW_AT_name("SMUL")
    1470                      .dwattr $C$DW$154, DW_AT_location[DW_OP_regx 0x50]
    1471              $C$DW$155       .dwtag  DW_TAG_TI_assign_register, DW_AT_name("INTM")
    1472                      .dwattr $C$DW$155, DW_AT_location[DW_OP_regx 0x51]
    1473              $C$DW$156       .dwtag  DW_TAG_TI_assign_register, DW_AT_name("AR0LC")
    1474                      .dwattr $C$DW$156, DW_AT_location[DW_OP_regx 0x52]
    1475              $C$DW$157       .dwtag  DW_TAG_TI_assign_register, DW_AT_name("AR1LC")
    1476                      .dwattr $C$DW$157, DW_AT_location[DW_OP_regx 0x53]
    1477              $C$DW$158       .dwtag  DW_TAG_TI_assign_register, DW_AT_name("AR2LC")
    1478                      .dwattr $C$DW$158, DW_AT_location[DW_OP_regx 0x54]
    1479              $C$DW$159       .dwtag  DW_TAG_TI_assign_register, DW_AT_name("AR3LC")
    1480                      .dwattr $C$DW$159, DW_AT_location[DW_OP_regx 0x55]
    1481              $C$DW$160       .dwtag  DW_TAG_TI_assign_register, DW_AT_name("AR4LC")
    1482                      .dwattr $C$DW$160, DW_AT_location[DW_OP_regx 0x56]
    1483              $C$DW$161       .dwtag  DW_TAG_TI_assign_register, DW_AT_name("AR5LC")
    1484                      .dwattr $C$DW$161, DW_AT_location[DW_OP_regx 0x57]
    1485              $C$DW$162       .dwtag  DW_TAG_TI_assign_register, DW_AT_name("AR6LC")
    1486                      .dwattr $C$DW$162, DW_AT_location[DW_OP_regx 0x58]
    1487              $C$DW$163       .dwtag  DW_TAG_TI_assign_register, DW_AT_name("AR7LC")
    1488                      .dwattr $C$DW$163, DW_AT_location[DW_OP_regx 0x59]
    1489              $C$DW$164       .dwtag  DW_TAG_TI_assign_register, DW_AT_name("CDPLC")
    1490                      .dwattr $C$DW$164, DW_AT_location[DW_OP_regx 0x5a]
    1491              $C$DW$165       .dwtag  DW_TAG_TI_assign_register, DW_AT_name("CIE_RETA")
    1492                      .dwattr $C$DW$165, DW_AT_location[DW_OP_regx 0x5b]
    1493                      .dwendtag $C$DW$CU
    1494              
    1494              
    1494              

No Assembly Errors, No Assembly Warnings
