TMS320C55x Assembler PC v4.4.1 Sat Sep 22 15:54:09 2018

Tools Copyright (c) 1996-2012 Texas Instruments Incorporated
heap_2.asm                                                           PAGE    1

    1139              ; Temporary Registers Used: None
       1              ;*******************************************************************************
       2              ;* TMS320C55x C/C++ Codegen                                          PC v4.4.1 *
       3              ;* Date/Time created: Sat Sep 22 15:54:09 2018                                 *
       4              ;*******************************************************************************
       5                      .compiler_opts --hll_source=on --mem_model:code=flat --mem_model:data=large --object_format=coff --si
       6                      .mmregs
       7                      .cpl_on
       8                      .arms_on
       9                      .c54cm_off
      10                      .asg AR6, FP
      11                      .asg XAR6, XFP
      12                      .asg DPH, MDP
      13                      .model call=c55_std
      14                      .model mem=large
      15                      .noremark 5002  ; code respects overwrite rules
      16              ;*******************************************************************************
      17              ;* GLOBAL FILE PARAMETERS                                                      *
      18              ;*                                                                             *
      19              ;*   Architecture       : TMS320C55x                                           *
      20              ;*   Optimizing for     : Speed                                                *
      21              ;*   Memory             : Large Model (23-Bit Data Pointers)                   *
      22              ;*   Calls              : Normal Library ASM calls                             *
      23              ;*   Debug Info         : Standard TI Debug Information                        *
      24              ;*******************************************************************************
      25              
      26              $C$DW$CU        .dwtag  DW_TAG_compile_unit
      27                      .dwattr $C$DW$CU, DW_AT_name("../FreeRTOS/Source/portable/MemMang/heap_2.c")
      28                      .dwattr $C$DW$CU, DW_AT_producer("TMS320C55x C/C++ Codegen PC v4.4.1 Copyright (c) 1996-2012 Texas In
      29                      .dwattr $C$DW$CU, DW_AT_TI_version(0x01)
      30                      .dwattr $C$DW$CU, DW_AT_comp_dir("F:\eZdsp_DBG\eZDSP_5535_Files\ccsws2\test\Debug")
      31              ;******************************************************************************
      32              ;* CINIT RECORDS                                                              *
      33              ;******************************************************************************
      34 000000               .sect   ".cinit"
      35                      .align  1
      36 000000 0001          .field          1,16
      37 000001 0030-         .field          _xFreeBytesRemaining+0,24
         000002 0800 
      38 000002 0800          .field          0,8
      39 000003 2FFE          .field  12286,16                        ; _xFreeBytesRemaining @ 0
      40              
      41 000004               .sect   ".cinit"
      42                      .align  1
      43 000004 0001          .field          1,16
      44 000005 0030-         .field          _xHeapHasBeenInitialised$1+0,24
         000006 0900 
      45 000006 0900          .field          0,8
      46 000007 0000          .field  0,16                    ; _xHeapHasBeenInitialised$1 @ 0
      47              
      48              
      49              $C$DW$1 .dwtag  DW_TAG_subprogram, DW_AT_name("vTaskSuspendAll")
      50                      .dwattr $C$DW$1, DW_AT_TI_symbol_name("_vTaskSuspendAll")
      51                      .dwattr $C$DW$1, DW_AT_declaration
      52                      .dwattr $C$DW$1, DW_AT_external
TMS320C55x Assembler PC v4.4.1 Sat Sep 22 15:54:09 2018

Tools Copyright (c) 1996-2012 Texas Instruments Incorporated
heap_2.asm                                                           PAGE    2

      53              
      54              $C$DW$2 .dwtag  DW_TAG_subprogram, DW_AT_name("xTaskResumeAll")
      55                      .dwattr $C$DW$2, DW_AT_TI_symbol_name("_xTaskResumeAll")
      56                      .dwattr $C$DW$2, DW_AT_type(*$C$DW$T$31)
      57                      .dwattr $C$DW$2, DW_AT_declaration
      58                      .dwattr $C$DW$2, DW_AT_external
      59              
      60              $C$DW$3 .dwtag  DW_TAG_subprogram, DW_AT_name("vApplicationMallocFailedHook")
      61                      .dwattr $C$DW$3, DW_AT_TI_symbol_name("_vApplicationMallocFailedHook")
      62                      .dwattr $C$DW$3, DW_AT_declaration
      63                      .dwattr $C$DW$3, DW_AT_external
      64 000000               .bss    _ucHeap,12288,0,0
      65              $C$DW$4 .dwtag  DW_TAG_variable, DW_AT_name("ucHeap")
      66                      .dwattr $C$DW$4, DW_AT_TI_symbol_name("_ucHeap")
      67                      .dwattr $C$DW$4, DW_AT_type(*$C$DW$T$29)
      68                      .dwattr $C$DW$4, DW_AT_location[DW_OP_addr _ucHeap]
      69 000000               .sect   ".const"
      70                      .align  1
      71 000000       _heapSTRUCT_SIZE:
      72 000000 0004          .field  4,16                    ; _heapSTRUCT_SIZE @ 0
      73              
      74              $C$DW$5 .dwtag  DW_TAG_variable, DW_AT_name("heapSTRUCT_SIZE")
      75                      .dwattr $C$DW$5, DW_AT_TI_symbol_name("_heapSTRUCT_SIZE")
      76                      .dwattr $C$DW$5, DW_AT_type(*$C$DW$T$36)
      77                      .dwattr $C$DW$5, DW_AT_location[DW_OP_addr _heapSTRUCT_SIZE]
      78 003000               .bss    _xStart,4,0,2
      79              $C$DW$6 .dwtag  DW_TAG_variable, DW_AT_name("xStart")
      80                      .dwattr $C$DW$6, DW_AT_TI_symbol_name("_xStart")
      81                      .dwattr $C$DW$6, DW_AT_type(*$C$DW$T$22)
      82                      .dwattr $C$DW$6, DW_AT_location[DW_OP_addr _xStart]
      83 003004               .bss    _xEnd,4,0,2
      84              $C$DW$7 .dwtag  DW_TAG_variable, DW_AT_name("xEnd")
      85                      .dwattr $C$DW$7, DW_AT_TI_symbol_name("_xEnd")
      86                      .dwattr $C$DW$7, DW_AT_type(*$C$DW$T$22)
      87                      .dwattr $C$DW$7, DW_AT_location[DW_OP_addr _xEnd]
      88 003008               .bss    _xFreeBytesRemaining,1,0,0
      89              $C$DW$8 .dwtag  DW_TAG_variable, DW_AT_name("xFreeBytesRemaining")
      90                      .dwattr $C$DW$8, DW_AT_TI_symbol_name("_xFreeBytesRemaining")
      91                      .dwattr $C$DW$8, DW_AT_type(*$C$DW$T$20)
      92                      .dwattr $C$DW$8, DW_AT_location[DW_OP_addr _xFreeBytesRemaining]
      93 003009               .bss    _xHeapHasBeenInitialised$1,1,0,0
      94              ;       F:\ti\ccs8p1\ccsv8\tools\compiler\alt-install-ti-cgt-c55x_4.4.1\bin\acp55.exe -@f:\\AppData\\Local\\T
      95 000000               .sect   ".text"
      96                      .align 4
      97                      .global _pvPortMalloc
      98              
      99              $C$DW$9 .dwtag  DW_TAG_subprogram, DW_AT_name("pvPortMalloc")
     100                      .dwattr $C$DW$9, DW_AT_low_pc(_pvPortMalloc)
     101                      .dwattr $C$DW$9, DW_AT_high_pc(0x00)
     102                      .dwattr $C$DW$9, DW_AT_TI_symbol_name("_pvPortMalloc")
     103                      .dwattr $C$DW$9, DW_AT_external
     104                      .dwattr $C$DW$9, DW_AT_type(*$C$DW$T$3)
     105                      .dwattr $C$DW$9, DW_AT_TI_begin_file("../FreeRTOS/Source/portable/MemMang/heap_2.c")
     106                      .dwattr $C$DW$9, DW_AT_TI_begin_line(0x76)
     107                      .dwattr $C$DW$9, DW_AT_TI_begin_column(0x07)
TMS320C55x Assembler PC v4.4.1 Sat Sep 22 15:54:09 2018

Tools Copyright (c) 1996-2012 Texas Instruments Incorporated
heap_2.asm                                                           PAGE    3

     108                      .dwattr $C$DW$9, DW_AT_TI_max_frame_size(0x0e)
     109                      .dwpsn  file "../FreeRTOS/Source/portable/MemMang/heap_2.c",line 119,column 1,is_stmt,address _pvPort
     110              
     111                      .dwfde $C$DW$CIE, _pvPortMalloc
     112              $C$DW$10        .dwtag  DW_TAG_variable, DW_AT_name("xHeapHasBeenInitialised")
     113                      .dwattr $C$DW$10, DW_AT_TI_symbol_name("_xHeapHasBeenInitialised$1")
     114                      .dwattr $C$DW$10, DW_AT_type(*$C$DW$T$31)
     115                      .dwattr $C$DW$10, DW_AT_location[DW_OP_addr _xHeapHasBeenInitialised$1]
     116              $C$DW$11        .dwtag  DW_TAG_formal_parameter, DW_AT_name("xWantedSize")
     117                      .dwattr $C$DW$11, DW_AT_TI_symbol_name("_xWantedSize")
     118                      .dwattr $C$DW$11, DW_AT_type(*$C$DW$T$20)
     119                      .dwattr $C$DW$11, DW_AT_location[DW_OP_reg12]
     120              ;*******************************************************************************
     121              ;* FUNCTION NAME: pvPortMalloc                                                 *
     122              ;*                                                                             *
     123              ;*   Function Uses Regs : AC0,AC0,AC1,AC1,T0,AR0,XAR0,AR1,AR2,XAR2,AR3,XAR3,SP,*
     124              ;*                        CARRY,TC1,M40,SATA,SATD,RDM,FRCT,SMUL                *
     125              ;*   Stack Frame        : Compact (No Frame Pointer, w/ debug)                 *
     126              ;*   Total Frame Size   : 14 words                                             *
     127              ;*                        (1 return address/alignment)                         *
     128              ;*                        (13 local values)                                    *
     129              ;*   Min System Stack   : 1 word                                               *
     130              ;*******************************************************************************
     131 000000       _pvPortMalloc:
     132                      .dwcfi  cfa_offset, 1
     133                      .dwcfi  save_reg_to_mem, 91, -1
     134 000000 4EF3          AADD #-13, SP
     135                      .dwcfi  cfa_offset, 14
     136              $C$DW$12        .dwtag  DW_TAG_variable, DW_AT_name("xWantedSize")
     137                      .dwattr $C$DW$12, DW_AT_TI_symbol_name("_xWantedSize")
     138                      .dwattr $C$DW$12, DW_AT_type(*$C$DW$T$20)
     139                      .dwattr $C$DW$12, DW_AT_location[DW_OP_bregx 0x24 0]
     140              $C$DW$13        .dwtag  DW_TAG_variable, DW_AT_name("pxBlock")
     141                      .dwattr $C$DW$13, DW_AT_TI_symbol_name("_pxBlock")
     142                      .dwattr $C$DW$13, DW_AT_type(*$C$DW$T$23)
     143                      .dwattr $C$DW$13, DW_AT_location[DW_OP_bregx 0x24 2]
     144              $C$DW$14        .dwtag  DW_TAG_variable, DW_AT_name("pxPreviousBlock")
     145                      .dwattr $C$DW$14, DW_AT_TI_symbol_name("_pxPreviousBlock")
     146                      .dwattr $C$DW$14, DW_AT_type(*$C$DW$T$23)
     147                      .dwattr $C$DW$14, DW_AT_location[DW_OP_bregx 0x24 4]
     148              $C$DW$15        .dwtag  DW_TAG_variable, DW_AT_name("pxNewBlockLink")
     149                      .dwattr $C$DW$15, DW_AT_TI_symbol_name("_pxNewBlockLink")
     150                      .dwattr $C$DW$15, DW_AT_type(*$C$DW$T$23)
     151                      .dwattr $C$DW$15, DW_AT_location[DW_OP_bregx 0x24 6]
     152              $C$DW$16        .dwtag  DW_TAG_variable, DW_AT_name("pvReturn")
     153                      .dwattr $C$DW$16, DW_AT_TI_symbol_name("_pvReturn")
     154                      .dwattr $C$DW$16, DW_AT_type(*$C$DW$T$3)
     155                      .dwattr $C$DW$16, DW_AT_location[DW_OP_bregx 0x24 8]
     156 000002 C400          MOV T0, *SP(#0) ; |119| 
     157                      .dwpsn  file "../FreeRTOS/Source/portable/MemMang/heap_2.c",line 122,column 7,is_stmt
     158 000004 3C00          MOV #0, AC0 ; |122| 
     159 000006 EB10          MOV AC0, dbl(*SP(#8))
         000008 08   
     160                      .dwpsn  file "../FreeRTOS/Source/portable/MemMang/heap_2.c",line 124,column 2,is_stmt
     161              $C$DW$17        .dwtag  DW_TAG_TI_branch
TMS320C55x Assembler PC v4.4.1 Sat Sep 22 15:54:09 2018

Tools Copyright (c) 1996-2012 Texas Instruments Incorporated
heap_2.asm                                                           PAGE    4

     162                      .dwattr $C$DW$17, DW_AT_low_pc(0x00)
     163                      .dwattr $C$DW$17, DW_AT_name("_vTaskSuspendAll")
     164                      .dwattr $C$DW$17, DW_AT_TI_call
     165 000009 6C00          CALL #_vTaskSuspendAll ; |124| 
         00000b 0000!
     166                                                      ; call occurs [#_vTaskSuspendAll] ; |124| 
     167                      .dwpsn  file "../FreeRTOS/Source/portable/MemMang/heap_2.c",line 128,column 3,is_stmt
     168 00000d A931          MOV *(#_xHeapHasBeenInitialised$1), AR1 ; |128| 
         00000f 0030 
         000011 09-  
     169 000012 6499          BCC $C$L1,AR1 != #0 ; |128| 
     170                                                      ; branchcc occurs ; |128| 
     171                      .dwpsn  file "../FreeRTOS/Source/portable/MemMang/heap_2.c",line 130,column 4,is_stmt
     172              $C$DW$18        .dwtag  DW_TAG_TI_branch
     173                      .dwattr $C$DW$18, DW_AT_low_pc(0x00)
     174                      .dwattr $C$DW$18, DW_AT_name("_prvHeapInit")
     175                      .dwattr $C$DW$18, DW_AT_TI_call
     176 000014 0801          CALL #_prvHeapInit ; |130| 
         000016 C9   
     177                                                      ; call occurs [#_prvHeapInit] ; |130| 
     178                      .dwpsn  file "../FreeRTOS/Source/portable/MemMang/heap_2.c",line 131,column 4,is_stmt
     179 000017 E631          MOV #1, *(#_xHeapHasBeenInitialised$1) ; |131| 
         000019 0100 
         00001b 3009-
     180 00001d       $C$L1:    
     181                      .dwpsn  file "../FreeRTOS/Source/portable/MemMang/heap_2.c",line 136,column 3,is_stmt
     182 00001d A900          MOV *SP(#0), AR1 ; |136| 
     183 00001f 0409          BCC $C$L2,AR1 == #0 ; |136| 
         000021 19   
     184                                                      ; branchcc occurs ; |136| 
     185                      .dwpsn  file "../FreeRTOS/Source/portable/MemMang/heap_2.c",line 138,column 4,is_stmt
     186 000022 A931          MOV *(#_heapSTRUCT_SIZE), AR1 ; |138| 
         000024 0000 
         000026 00+  
     187 000027 D600          ADD *SP(#0), AR1, AR1 ; |138| 
         000029 99   
     188 00002a C900          MOV AR1, *SP(#0) ; |138| 
     189                      .dwpsn  file "../FreeRTOS/Source/portable/MemMang/heap_2.c",line 141,column 4,is_stmt
     190 00002c DC00          BTST #0, *SP(#0), TC1 ; |141| 
         00002e 00   
     191 00002f 6574          BCC $C$L2,!TC1 ; |141| 
     192                                                      ; branchcc occurs ; |141| 
     193                      .dwpsn  file "../FreeRTOS/Source/portable/MemMang/heap_2.c",line 144,column 5,is_stmt
     194 000031 1801          AND #0x0001, AR1, AR1 ; |144| 
         000033 99   
     195 000034 D800          SUB AR1, *SP(#0), AR1 ; |144| 
         000036 99   
     196 000037 4029          ADD #2, AR1 ; |144| 
     197 000039 C900          MOV AR1, *SP(#0) ; |144| 
     198 00003b       $C$L2:    
     199                      .dwpsn  file "../FreeRTOS/Source/portable/MemMang/heap_2.c",line 148,column 3,is_stmt
     200 00003b 6D09          BCC $C$L9,AR1 == #0 ; |148| 
         00003d 00F5 
     201                                                      ; branchcc occurs ; |148| 
     202 00003f 762F          MOV #12286, AR2 ; |148| 
TMS320C55x Assembler PC v4.4.1 Sat Sep 22 15:54:09 2018

Tools Copyright (c) 1996-2012 Texas Instruments Incorporated
heap_2.asm                                                           PAGE    5

         000041 FEA8 
     203 000043 1298          CMPU AR1 >= AR2, TC1 ; |148| 
         000045 A4   
     204 000046 6D64          BCC $C$L9,TC1 ; |148| 
         000048 00EA 
     205                                                      ; branchcc occurs ; |148| 
     206                      .dwpsn  file "../FreeRTOS/Source/portable/MemMang/heap_2.c",line 152,column 4,is_stmt
     207 00004a EC31          AMOV #_xStart, XAR3 ; |152| 
         00004c BE00 
         00004e 3000-
     208 000050 EB08          MOV XAR3, dbl(*SP(#4))
         000052 B5   
     209                      .dwpsn  file "../FreeRTOS/Source/portable/MemMang/heap_2.c",line 153,column 4,is_stmt
     210 000053 ED31          MOV dbl(*(#_xStart)), XAR3
         000055 BF00 
         000057 3000-
     211 000059 EB04          MOV XAR3, dbl(*SP(#2))
         00005b B5   
     212                      .dwpsn  file "../FreeRTOS/Source/portable/MemMang/heap_2.c",line 154,column 4,is_stmt
     213 00005c 4A0F          B $C$L4   ; |154| 
     214                                                      ; branch occurs ; |154| 
     215 00005e       $C$L3:    
     216 00005e       $C$DW$L$_pvPortMalloc$9$B:
     217                      .dwpsn  file "../FreeRTOS/Source/portable/MemMang/heap_2.c",line 156,column 5,is_stmt
     218 00005e ED04          MOV dbl(*SP(#2)), XAR3
         000060 BF   
     219 000061 EB08          MOV XAR3, dbl(*SP(#4))
         000063 B5   
     220                      .dwpsn  file "../FreeRTOS/Source/portable/MemMang/heap_2.c",line 157,column 5,is_stmt
     221 000064 ED04          MOV dbl(*SP(#2)), XAR3
         000066 BF   
     222 000067 ED61          MOV dbl(*AR3), XAR3
         000069 BF   
     223 00006a EB04          MOV XAR3, dbl(*SP(#2))
         00006c B5   
     224 00006d       $C$DW$L$_pvPortMalloc$9$E:
     225 00006d       $C$L4:    
     226 00006d       $C$DW$L$_pvPortMalloc$10$B:
     227                      .dwpsn  file "../FreeRTOS/Source/portable/MemMang/heap_2.c",line 154,column 11,is_stmt
     228 00006d A900          MOV *SP(#0), AR1 ; |154| 
     229 00006f AA75          MOV *AR3(short(#2)), AR2 ; |154| 
     230 000071 12A8          CMPU AR2 >= AR1, TC1 ; |154| 
         000073 94   
     231 000074 6464          BCC $C$L5,TC1 ; |154| 
     232                                                      ; branchcc occurs ; |154| 
     233 000076       $C$DW$L$_pvPortMalloc$10$E:
     234 000076       $C$DW$L$_pvPortMalloc$11$B:
     235 000076 ED61          MOV dbl(*AR3), XAR3
         000078 BF   
     236 000079 90B0          MOV XAR3, AC0
     237 00007b 0410          BCC $C$L3,AC0 != #0 ; |154| 
         00007d E0   
     238                                                      ; branchcc occurs ; |154| 
     239 00007e       $C$DW$L$_pvPortMalloc$11$E:
     240 00007e       $C$L5:    
TMS320C55x Assembler PC v4.4.1 Sat Sep 22 15:54:09 2018

Tools Copyright (c) 1996-2012 Texas Instruments Incorporated
heap_2.asm                                                           PAGE    6

     241                      .dwpsn  file "../FreeRTOS/Source/portable/MemMang/heap_2.c",line 161,column 4,is_stmt
     242 00007e EC31          AMOV #_xEnd, XAR3 ; |161| 
         000080 BE00 
         000082 3004-
     243 000084 90B0          MOV XAR3, AC0
     244 000086 ED04          MOV dbl(*SP(#2)), XAR3
         000088 BF   
     245 000089 90B1          MOV XAR3, AC1
     246 00008b 1210          CMPU AC1 == AC0, TC1 ; |161| 
         00008d 04   
     247 00008e 6D64          BCC $C$L9,TC1 ; |161| 
         000090 00A2 
     248                                                      ; branchcc occurs ; |161| 
     249                      .dwpsn  file "../FreeRTOS/Source/portable/MemMang/heap_2.c",line 165,column 5,is_stmt
     250 000092 ED08          MOV dbl(*SP(#4)), XAR3
         000094 BF   
     251 000095 A931          MOV *(#_heapSTRUCT_SIZE), AR1 ; |165| 
         000097 0000 
         000099 00+  
     252 00009a ED61          MOV dbl(*AR3), XAR3
         00009c BF   
     253              
     254 00009d 8E10          MOV XAR3, dbl(*SP(#8))
         00009f BB10 
         0000a1 B590 
     255              ||      AADD AR1, AR3 ; |165| 
     256              
     257                      .dwpsn  file "../FreeRTOS/Source/portable/MemMang/heap_2.c",line 169,column 5,is_stmt
     258 0000a3 ED08          MOV dbl(*SP(#4)), XAR2
         0000a5 AF   
     259 0000a6 ED04          MOV dbl(*SP(#2)), XAR3
         0000a8 BF   
     260 0000a9 8061          MOV dbl(*AR3), dbl(*AR2)
         0000ab 00   
     261                      .dwpsn  file "../FreeRTOS/Source/portable/MemMang/heap_2.c",line 172,column 5,is_stmt
     262 0000ac ED04          MOV dbl(*SP(#2)), XAR3
         0000ae BF   
     263 0000af A931          MOV *(#_heapSTRUCT_SIZE), AR1 ; |172| 
         0000b1 0000 
         0000b3 00+  
     264 0000b4 A075          MOV *AR3(short(#2)), AC0 ; |172| 
     265 0000b6 DF00          SUB uns(*SP(#0)), AC0, AC0 ; |172| 
         0000b8 0F   
     266 0000b9 5090          SFTL AR1, #1 ; |172| 
     267 0000bb 220A          MOV AC0, AR2 ; |172| 
     268 0000bd 1298          CMPU AR2 <= AR1, TC1 ; |172| 
         0000bf A4   
     269 0000c0 0464          BCC $C$L8,TC1 ; |172| 
         0000c2 61   
     270                                                      ; branchcc occurs ; |172| 
     271                      .dwpsn  file "../FreeRTOS/Source/portable/MemMang/heap_2.c",line 177,column 6,is_stmt
     272 0000c3 A900          MOV *SP(#0), AR1 ; |177| 
     273              
     274 0000c5 8E0C          MOV XAR3, dbl(*SP(#6))
         0000c7 BB10 
TMS320C55x Assembler PC v4.4.1 Sat Sep 22 15:54:09 2018

Tools Copyright (c) 1996-2012 Texas Instruments Incorporated
heap_2.asm                                                           PAGE    7

         0000c9 B590 
     275              ||      AADD AR1, AR3 ; |177| 
     276              
     277                      .dwpsn  file "../FreeRTOS/Source/portable/MemMang/heap_2.c",line 181,column 6,is_stmt
     278 0000cb ED04          MOV dbl(*SP(#2)), XAR3
         0000cd BF   
     279 0000ce A075          MOV *AR3(short(#2)), AC0 ; |181| 
     280 0000d0 ED0C          MOV dbl(*SP(#6)), XAR3
         0000d2 BF   
     281 0000d3 DF00          SUB uns(*SP(#0)), AC0, AC0 ; |181| 
         0000d5 0F   
     282 0000d6 C075          MOV AC0, *AR3(short(#2)) ; |181| 
     283                      .dwpsn  file "../FreeRTOS/Source/portable/MemMang/heap_2.c",line 182,column 6,is_stmt
     284 0000d8 ED04          MOV dbl(*SP(#2)), XAR3
         0000da BF   
     285 0000db A900          MOV *SP(#0), AR1 ; |182| 
     286 0000dd C975          MOV AR1, *AR3(short(#2)) ; |182| 
     287              
     288              $C$DW$19        .dwtag  DW_TAG_lexical_block, DW_AT_low_pc(0x00), DW_AT_high_pc(0x00)
     289              $C$DW$20        .dwtag  DW_TAG_variable, DW_AT_name("pxIterator")
     290                      .dwattr $C$DW$20, DW_AT_TI_symbol_name("_pxIterator")
     291                      .dwattr $C$DW$20, DW_AT_type(*$C$DW$T$23)
     292                      .dwattr $C$DW$20, DW_AT_location[DW_OP_bregx 0x24 10]
     293              $C$DW$21        .dwtag  DW_TAG_variable, DW_AT_name("xBlockSize")
     294                      .dwattr $C$DW$21, DW_AT_TI_symbol_name("_xBlockSize")
     295                      .dwattr $C$DW$21, DW_AT_type(*$C$DW$T$20)
     296                      .dwattr $C$DW$21, DW_AT_location[DW_OP_bregx 0x24 12]
     297                      .dwpsn  file "../FreeRTOS/Source/portable/MemMang/heap_2.c",line 185,column 6,is_stmt
     298 0000df ED0C          MOV dbl(*SP(#6)), XAR3
         0000e1 BF   
     299 0000e2 A975          MOV *AR3(short(#2)), AR1 ; |185| 
     300 0000e4 EC31          AMOV #_xStart, XAR3 ; |185| 
         0000e6 BE00 
         0000e8 3000-
     301 0000ea C918          MOV AR1, *SP(#12) ; |185| 
     302 0000ec EB14          MOV XAR3, dbl(*SP(#10))
         0000ee B5   
     303 0000ef ED61          MOV dbl(*AR3), XAR3
         0000f1 BF   
     304 0000f2 A918          MOV *SP(#12), AR1 ; |185| 
     305 0000f4 AA75          MOV *AR3(short(#2)), AR2 ; |185| 
     306 0000f6 12A8          CMPU AR2 >= AR1, TC1 ; |185| 
         0000f8 94   
     307 0000f9 0464          BCC $C$L7,TC1 ; |185| 
         0000fb 16   
     308                                                      ; branchcc occurs ; |185| 
     309 0000fc       $C$L6:    
     310 0000fc       $C$DW$L$_pvPortMalloc$15$B:
     311 0000fc ED14          MOV dbl(*SP(#10)), XAR3
         0000fe BF   
     312 0000ff ED61          MOV dbl(*AR3), XAR3
         000101 BF   
     313 000102 EB14          MOV XAR3, dbl(*SP(#10))
         000104 B5   
     314 000105 ED61          MOV dbl(*AR3), XAR3
TMS320C55x Assembler PC v4.4.1 Sat Sep 22 15:54:09 2018

Tools Copyright (c) 1996-2012 Texas Instruments Incorporated
heap_2.asm                                                           PAGE    8

         000107 BF   
     315 000108 A918          MOV *SP(#12), AR1 ; |185| 
     316 00010a AA75          MOV *AR3(short(#2)), AR2 ; |185| 
     317 00010c 12A4          CMPU AR2 < AR1, TC1 ; |185| 
         00010e 94   
     318 00010f 0464          BCC $C$L6,TC1 ; |185| 
         000111 EA   
     319                                                      ; branchcc occurs ; |185| 
     320 000112       $C$DW$L$_pvPortMalloc$15$E:
     321 000112       $C$L7:    
     322 000112 ED14          MOV dbl(*SP(#10)), XAR3
         000114 BF   
     323 000115 ED0C          MOV dbl(*SP(#6)), XAR2
         000117 AF   
     324 000118 8061          MOV dbl(*AR3), dbl(*AR2)
         00011a 00   
     325 00011b ED14          MOV dbl(*SP(#10)), XAR2
         00011d AF   
     326 00011e ED0C          MOV dbl(*SP(#6)), XAR3
         000120 BF   
     327 000121 EB41          MOV XAR3, dbl(*AR2)
         000123 B5   
     328                      .dwendtag $C$DW$19
     329              
     330 000124       $C$L8:    
     331                      .dwpsn  file "../FreeRTOS/Source/portable/MemMang/heap_2.c",line 188,column 5,is_stmt
     332 000124 ED04          MOV dbl(*SP(#2)), XAR3
         000126 BF   
     333 000127 A031          MOV *(#_xFreeBytesRemaining), AC0 ; |188| 
         000129 0030 
         00012b 08-  
     334 00012c DF75          SUB uns(*AR3(short(#2))), AC0, AC0 ; |188| 
         00012e 0F   
     335 00012f C031          MOV AC0, *(#_xFreeBytesRemaining) ; |188| 
         000131 0030 
         000133 08-  
     336 000134       $C$L9:    
     337                      .dwpsn  file "../FreeRTOS/Source/portable/MemMang/heap_2.c",line 194,column 2,is_stmt
     338              $C$DW$22        .dwtag  DW_TAG_TI_branch
     339                      .dwattr $C$DW$22, DW_AT_low_pc(0x00)
     340                      .dwattr $C$DW$22, DW_AT_name("_xTaskResumeAll")
     341                      .dwattr $C$DW$22, DW_AT_TI_call
     342 000134 6C00          CALL #_xTaskResumeAll ; |194| 
         000136 0000!
     343                                                      ; call occurs [#_xTaskResumeAll] ; |194| 
     344                      .dwpsn  file "../FreeRTOS/Source/portable/MemMang/heap_2.c",line 198,column 3,is_stmt
     345 000138 ED10          MOV dbl(*SP(#8)), XAR3
         00013a BF   
     346 00013b 90B0          MOV XAR3, AC0
     347 00013d 6210          BCC $C$L10,AC0 != #0 ; |198| 
     348                                                      ; branchcc occurs ; |198| 
     349                      .dwpsn  file "../FreeRTOS/Source/portable/MemMang/heap_2.c",line 201,column 4,is_stmt
     350              $C$DW$23        .dwtag  DW_TAG_TI_branch
     351                      .dwattr $C$DW$23, DW_AT_low_pc(0x00)
     352                      .dwattr $C$DW$23, DW_AT_name("_vApplicationMallocFailedHook")
TMS320C55x Assembler PC v4.4.1 Sat Sep 22 15:54:09 2018

Tools Copyright (c) 1996-2012 Texas Instruments Incorporated
heap_2.asm                                                           PAGE    9

     353                      .dwattr $C$DW$23, DW_AT_TI_call
     354 00013f 6C00          CALL #_vApplicationMallocFailedHook ; |201| 
         000141 0000!
     355                                                      ; call occurs [#_vApplicationMallocFailedHook] ; |201| 
     356 000143       $C$L10:    
     357                      .dwpsn  file "../FreeRTOS/Source/portable/MemMang/heap_2.c",line 206,column 2,is_stmt
     358 000143 ED10          MOV dbl(*SP(#8)), XAR0
         000145 8F   
     359                      .dwpsn  file "../FreeRTOS/Source/portable/MemMang/heap_2.c",line 207,column 1,is_stmt
     360 000146 4E0D          AADD #13, SP
     361                      .dwcfi  cfa_offset, 1
     362              $C$DW$24        .dwtag  DW_TAG_TI_branch
     363                      .dwattr $C$DW$24, DW_AT_low_pc(0x00)
     364                      .dwattr $C$DW$24, DW_AT_TI_return
     365 000148 4804          RET
     366                                                      ; return occurs
     367              
     368              $C$DW$25        .dwtag  DW_TAG_TI_loop
     369                      .dwattr $C$DW$25, DW_AT_name("F:\eZdsp_DBG\eZDSP_5535_Files\ccsws2\test\Debug\heap_2.asm:$C$L6:1:1537
     370                      .dwattr $C$DW$25, DW_AT_TI_begin_file("../FreeRTOS/Source/portable/MemMang/heap_2.c")
     371                      .dwattr $C$DW$25, DW_AT_TI_begin_line(0xb9)
     372                      .dwattr $C$DW$25, DW_AT_TI_end_line(0xb9)
     373              $C$DW$26        .dwtag  DW_TAG_TI_loop_range
     374                      .dwattr $C$DW$26, DW_AT_low_pc($C$DW$L$_pvPortMalloc$15$B)
     375                      .dwattr $C$DW$26, DW_AT_high_pc($C$DW$L$_pvPortMalloc$15$E)
     376                      .dwendtag $C$DW$25
     377              
     378              
     379              $C$DW$27        .dwtag  DW_TAG_TI_loop
     380                      .dwattr $C$DW$27, DW_AT_name("F:\eZdsp_DBG\eZDSP_5535_Files\ccsws2\test\Debug\heap_2.asm:$C$L4:1:1537
     381                      .dwattr $C$DW$27, DW_AT_TI_begin_file("../FreeRTOS/Source/portable/MemMang/heap_2.c")
     382                      .dwattr $C$DW$27, DW_AT_TI_begin_line(0x9a)
     383                      .dwattr $C$DW$27, DW_AT_TI_end_line(0x9d)
     384              $C$DW$28        .dwtag  DW_TAG_TI_loop_range
     385                      .dwattr $C$DW$28, DW_AT_low_pc($C$DW$L$_pvPortMalloc$10$B)
     386                      .dwattr $C$DW$28, DW_AT_high_pc($C$DW$L$_pvPortMalloc$10$E)
     387              $C$DW$29        .dwtag  DW_TAG_TI_loop_range
     388                      .dwattr $C$DW$29, DW_AT_low_pc($C$DW$L$_pvPortMalloc$11$B)
     389                      .dwattr $C$DW$29, DW_AT_high_pc($C$DW$L$_pvPortMalloc$11$E)
     390              $C$DW$30        .dwtag  DW_TAG_TI_loop_range
     391                      .dwattr $C$DW$30, DW_AT_low_pc($C$DW$L$_pvPortMalloc$9$B)
     392                      .dwattr $C$DW$30, DW_AT_high_pc($C$DW$L$_pvPortMalloc$9$E)
     393                      .dwendtag $C$DW$27
     394              
     395                      .dwattr $C$DW$9, DW_AT_TI_end_file("../FreeRTOS/Source/portable/MemMang/heap_2.c")
     396                      .dwattr $C$DW$9, DW_AT_TI_end_line(0xcf)
     397                      .dwattr $C$DW$9, DW_AT_TI_end_column(0x01)
     398                      .dwendentry
     399                      .dwendtag $C$DW$9
     400              
     401 00014a               .sect   ".text"
     402                      .align 4
     403                      .global _vPortFree
     404              
     405              $C$DW$31        .dwtag  DW_TAG_subprogram, DW_AT_name("vPortFree")
TMS320C55x Assembler PC v4.4.1 Sat Sep 22 15:54:09 2018

Tools Copyright (c) 1996-2012 Texas Instruments Incorporated
heap_2.asm                                                           PAGE   10

     406                      .dwattr $C$DW$31, DW_AT_low_pc(_vPortFree)
     407                      .dwattr $C$DW$31, DW_AT_high_pc(0x00)
     408                      .dwattr $C$DW$31, DW_AT_TI_symbol_name("_vPortFree")
     409                      .dwattr $C$DW$31, DW_AT_external
     410                      .dwattr $C$DW$31, DW_AT_TI_begin_file("../FreeRTOS/Source/portable/MemMang/heap_2.c")
     411                      .dwattr $C$DW$31, DW_AT_TI_begin_line(0xd2)
     412                      .dwattr $C$DW$31, DW_AT_TI_begin_column(0x06)
     413                      .dwattr $C$DW$31, DW_AT_TI_max_frame_size(0x0a)
     414                      .dwpsn  file "../FreeRTOS/Source/portable/MemMang/heap_2.c",line 211,column 1,is_stmt,address _vPortF
     415              
     416                      .dwfde $C$DW$CIE, _vPortFree
     417              $C$DW$32        .dwtag  DW_TAG_formal_parameter, DW_AT_name("pv")
     418                      .dwattr $C$DW$32, DW_AT_TI_symbol_name("_pv")
     419                      .dwattr $C$DW$32, DW_AT_type(*$C$DW$T$3)
     420                      .dwattr $C$DW$32, DW_AT_location[DW_OP_reg17]
     421              ;*******************************************************************************
     422              ;* FUNCTION NAME: vPortFree                                                    *
     423              ;*                                                                             *
     424              ;*   Function Uses Regs : AC0,AC0,AR0,XAR0,AR1,AR2,XAR2,AR3,XAR3,SP,CARRY,TC1, *
     425              ;*                        M40,SATA,SATD,RDM,FRCT,SMUL                          *
     426              ;*   Stack Frame        : Compact (No Frame Pointer, w/ debug)                 *
     427              ;*   Total Frame Size   : 10 words                                             *
     428              ;*                        (1 return address/alignment)                         *
     429              ;*                        (9 local values)                                     *
     430              ;*   Min System Stack   : 1 word                                               *
     431              ;*******************************************************************************
     432 00014c       _vPortFree:
     433                      .dwcfi  cfa_offset, 1
     434                      .dwcfi  save_reg_to_mem, 91, -1
     435 00014c 4EF7          AADD #-9, SP
     436                      .dwcfi  cfa_offset, 10
     437              $C$DW$33        .dwtag  DW_TAG_variable, DW_AT_name("pv")
     438                      .dwattr $C$DW$33, DW_AT_TI_symbol_name("_pv")
     439                      .dwattr $C$DW$33, DW_AT_type(*$C$DW$T$3)
     440                      .dwattr $C$DW$33, DW_AT_location[DW_OP_bregx 0x24 0]
     441              $C$DW$34        .dwtag  DW_TAG_variable, DW_AT_name("puc")
     442                      .dwattr $C$DW$34, DW_AT_TI_symbol_name("_puc")
     443                      .dwattr $C$DW$34, DW_AT_type(*$C$DW$T$30)
     444                      .dwattr $C$DW$34, DW_AT_location[DW_OP_bregx 0x24 2]
     445              $C$DW$35        .dwtag  DW_TAG_variable, DW_AT_name("pxLink")
     446                      .dwattr $C$DW$35, DW_AT_TI_symbol_name("_pxLink")
     447                      .dwattr $C$DW$35, DW_AT_type(*$C$DW$T$23)
     448                      .dwattr $C$DW$35, DW_AT_location[DW_OP_bregx 0x24 4]
     449 00014e EB00          MOV XAR0, dbl(*SP(#0))
         000150 85   
     450                      .dwpsn  file "../FreeRTOS/Source/portable/MemMang/heap_2.c",line 212,column 10,is_stmt
     451 000151 ED00          MOV dbl(*SP(#0)), XAR3
         000153 BF   
     452 000154 EB04          MOV XAR3, dbl(*SP(#2))
         000156 B5   
     453                      .dwpsn  file "../FreeRTOS/Source/portable/MemMang/heap_2.c",line 215,column 2,is_stmt
     454 000157 ED00          MOV dbl(*SP(#0)), XAR3
         000159 BF   
     455 00015a 90B0          MOV XAR3, AC0
     456 00015c 0400          BCC $C$L13,AC0 == #0 ; |215| 
TMS320C55x Assembler PC v4.4.1 Sat Sep 22 15:54:09 2018

Tools Copyright (c) 1996-2012 Texas Instruments Incorporated
heap_2.asm                                                           PAGE   11

         00015e 6E   
     457                                                      ; branchcc occurs ; |215| 
     458                      .dwpsn  file "../FreeRTOS/Source/portable/MemMang/heap_2.c",line 219,column 3,is_stmt
     459 00015f ED04          MOV dbl(*SP(#2)), XAR3
         000161 BF   
     460 000162 A931          MOV *(#_heapSTRUCT_SIZE), AR1 ; |219| 
         000164 0000 
         000166 00+  
     461              
     462 000167 8E04          MOV XAR3, dbl(*SP(#2))
         000169 BB12 
         00016b B590 
     463              ||      ASUB AR1, AR3 ; |219| 
     464              
     465                      .dwpsn  file "../FreeRTOS/Source/portable/MemMang/heap_2.c",line 223,column 3,is_stmt
     466 00016d EB08          MOV XAR3, dbl(*SP(#4))
         00016f B5   
     467                      .dwpsn  file "../FreeRTOS/Source/portable/MemMang/heap_2.c",line 225,column 3,is_stmt
     468              $C$DW$36        .dwtag  DW_TAG_TI_branch
     469                      .dwattr $C$DW$36, DW_AT_low_pc(0x00)
     470                      .dwattr $C$DW$36, DW_AT_name("_vTaskSuspendAll")
     471                      .dwattr $C$DW$36, DW_AT_TI_call
     472 000170 6C00          CALL #_vTaskSuspendAll ; |225| 
         000172 0000!
     473                                                      ; call occurs [#_vTaskSuspendAll] ; |225| 
     474              
     475              $C$DW$37        .dwtag  DW_TAG_lexical_block, DW_AT_low_pc(0x00), DW_AT_high_pc(0x00)
     476              $C$DW$38        .dwtag  DW_TAG_variable, DW_AT_name("pxIterator")
     477                      .dwattr $C$DW$38, DW_AT_TI_symbol_name("_pxIterator")
     478                      .dwattr $C$DW$38, DW_AT_type(*$C$DW$T$23)
     479                      .dwattr $C$DW$38, DW_AT_location[DW_OP_bregx 0x24 6]
     480              $C$DW$39        .dwtag  DW_TAG_variable, DW_AT_name("xBlockSize")
     481                      .dwattr $C$DW$39, DW_AT_TI_symbol_name("_xBlockSize")
     482                      .dwattr $C$DW$39, DW_AT_type(*$C$DW$T$20)
     483                      .dwattr $C$DW$39, DW_AT_location[DW_OP_bregx 0x24 8]
     484                      .dwpsn  file "../FreeRTOS/Source/portable/MemMang/heap_2.c",line 228,column 4,is_stmt
     485 000174 ED08          MOV dbl(*SP(#4)), XAR3
         000176 BF   
     486 000177 A975          MOV *AR3(short(#2)), AR1 ; |228| 
     487 000179 C910          MOV AR1, *SP(#8) ; |228| 
     488 00017b EC31          AMOV #_xStart, XAR3 ; |228| 
         00017d BE00 
         00017f 3000-
     489 000181 EB0C          MOV XAR3, dbl(*SP(#6))
         000183 B5   
     490 000184 ED61          MOV dbl(*AR3), XAR3
         000186 BF   
     491 000187 A910          MOV *SP(#8), AR1 ; |228| 
     492 000189 AA75          MOV *AR3(short(#2)), AR2 ; |228| 
     493 00018b 12A8          CMPU AR2 >= AR1, TC1 ; |228| 
         00018d 94   
     494 00018e 0464          BCC $C$L12,TC1 ; |228| 
         000190 16   
     495                                                      ; branchcc occurs ; |228| 
     496 000191       $C$L11:    
TMS320C55x Assembler PC v4.4.1 Sat Sep 22 15:54:09 2018

Tools Copyright (c) 1996-2012 Texas Instruments Incorporated
heap_2.asm                                                           PAGE   12

     497 000191       $C$DW$L$_vPortFree$3$B:
     498 000191 ED0C          MOV dbl(*SP(#6)), XAR3
         000193 BF   
     499 000194 ED61          MOV dbl(*AR3), XAR3
         000196 BF   
     500 000197 EB0C          MOV XAR3, dbl(*SP(#6))
         000199 B5   
     501 00019a ED61          MOV dbl(*AR3), XAR3
         00019c BF   
     502 00019d A910          MOV *SP(#8), AR1 ; |228| 
     503 00019f AA75          MOV *AR3(short(#2)), AR2 ; |228| 
     504 0001a1 12A4          CMPU AR2 < AR1, TC1 ; |228| 
         0001a3 94   
     505 0001a4 0464          BCC $C$L11,TC1 ; |228| 
         0001a6 EA   
     506                                                      ; branchcc occurs ; |228| 
     507 0001a7       $C$DW$L$_vPortFree$3$E:
     508 0001a7       $C$L12:    
     509 0001a7 ED0C          MOV dbl(*SP(#6)), XAR3
         0001a9 BF   
     510 0001aa ED08          MOV dbl(*SP(#4)), XAR2
         0001ac AF   
     511 0001ad 8061          MOV dbl(*AR3), dbl(*AR2)
         0001af 00   
     512 0001b0 ED0C          MOV dbl(*SP(#6)), XAR2
         0001b2 AF   
     513 0001b3 ED08          MOV dbl(*SP(#4)), XAR3
         0001b5 BF   
     514 0001b6 EB41          MOV XAR3, dbl(*AR2)
         0001b8 B5   
     515                      .dwendtag $C$DW$37
     516              
     517                      .dwpsn  file "../FreeRTOS/Source/portable/MemMang/heap_2.c",line 229,column 4,is_stmt
     518 0001b9 ED08          MOV dbl(*SP(#4)), XAR3
         0001bb BF   
     519 0001bc A975          MOV *AR3(short(#2)), AR1 ; |229| 
     520 0001be D631          ADD *(#_xFreeBytesRemaining), AR1, AR1 ; |229| 
         0001c0 9900 
         0001c2 3008-
     521 0001c4 C931          MOV AR1, *(#_xFreeBytesRemaining) ; |229| 
         0001c6 0030 
         0001c8 08-  
     522                      .dwpsn  file "../FreeRTOS/Source/portable/MemMang/heap_2.c",line 232,column 3,is_stmt
     523              $C$DW$40        .dwtag  DW_TAG_TI_branch
     524                      .dwattr $C$DW$40, DW_AT_low_pc(0x00)
     525                      .dwattr $C$DW$40, DW_AT_name("_xTaskResumeAll")
     526                      .dwattr $C$DW$40, DW_AT_TI_call
     527 0001c9 6C00          CALL #_xTaskResumeAll ; |232| 
         0001cb 0000!
     528                                                      ; call occurs [#_xTaskResumeAll] ; |232| 
     529                      .dwpsn  file "../FreeRTOS/Source/portable/MemMang/heap_2.c",line 234,column 1,is_stmt
     530 0001cd       $C$L13:    
     531 0001cd 4E09          AADD #9, SP
     532                      .dwcfi  cfa_offset, 1
     533              $C$DW$41        .dwtag  DW_TAG_TI_branch
TMS320C55x Assembler PC v4.4.1 Sat Sep 22 15:54:09 2018

Tools Copyright (c) 1996-2012 Texas Instruments Incorporated
heap_2.asm                                                           PAGE   13

     534                      .dwattr $C$DW$41, DW_AT_low_pc(0x00)
     535                      .dwattr $C$DW$41, DW_AT_TI_return
     536 0001cf 4804          RET
     537                                                      ; return occurs
     538              
     539              $C$DW$42        .dwtag  DW_TAG_TI_loop
     540                      .dwattr $C$DW$42, DW_AT_name("F:\eZdsp_DBG\eZDSP_5535_Files\ccsws2\test\Debug\heap_2.asm:$C$L11:1:153
     541                      .dwattr $C$DW$42, DW_AT_TI_begin_file("../FreeRTOS/Source/portable/MemMang/heap_2.c")
     542                      .dwattr $C$DW$42, DW_AT_TI_begin_line(0xe4)
     543                      .dwattr $C$DW$42, DW_AT_TI_end_line(0xe4)
     544              $C$DW$43        .dwtag  DW_TAG_TI_loop_range
     545                      .dwattr $C$DW$43, DW_AT_low_pc($C$DW$L$_vPortFree$3$B)
     546                      .dwattr $C$DW$43, DW_AT_high_pc($C$DW$L$_vPortFree$3$E)
     547                      .dwendtag $C$DW$42
     548              
     549                      .dwattr $C$DW$31, DW_AT_TI_end_file("../FreeRTOS/Source/portable/MemMang/heap_2.c")
     550                      .dwattr $C$DW$31, DW_AT_TI_end_line(0xea)
     551                      .dwattr $C$DW$31, DW_AT_TI_end_column(0x01)
     552                      .dwendentry
     553                      .dwendtag $C$DW$31
     554              
     555 0001d1               .sect   ".text"
     556                      .align 4
     557                      .global _xPortGetFreeHeapSize
     558              
     559              $C$DW$44        .dwtag  DW_TAG_subprogram, DW_AT_name("xPortGetFreeHeapSize")
     560                      .dwattr $C$DW$44, DW_AT_low_pc(_xPortGetFreeHeapSize)
     561                      .dwattr $C$DW$44, DW_AT_high_pc(0x00)
     562                      .dwattr $C$DW$44, DW_AT_TI_symbol_name("_xPortGetFreeHeapSize")
     563                      .dwattr $C$DW$44, DW_AT_external
     564                      .dwattr $C$DW$44, DW_AT_type(*$C$DW$T$20)
     565                      .dwattr $C$DW$44, DW_AT_TI_begin_file("../FreeRTOS/Source/portable/MemMang/heap_2.c")
     566                      .dwattr $C$DW$44, DW_AT_TI_begin_line(0xed)
     567                      .dwattr $C$DW$44, DW_AT_TI_begin_column(0x08)
     568                      .dwattr $C$DW$44, DW_AT_TI_max_frame_size(0x01)
     569                      .dwpsn  file "../FreeRTOS/Source/portable/MemMang/heap_2.c",line 238,column 1,is_stmt,address _xPortG
     570              
     571                      .dwfde $C$DW$CIE, _xPortGetFreeHeapSize
     572              ;*******************************************************************************
     573              ;* FUNCTION NAME: xPortGetFreeHeapSize                                         *
     574              ;*                                                                             *
     575              ;*   Function Uses Regs : T0,SP,M40,SATA,SATD,RDM,FRCT,SMUL                    *
     576              ;*   Stack Frame        : Compact (No Frame Pointer, w/ debug)                 *
     577              ;*   Total Frame Size   : 1 word                                               *
     578              ;*                        (1 return address/alignment)                         *
     579              ;*   Min System Stack   : 1 word                                               *
     580              ;*******************************************************************************
     581 0001d4       _xPortGetFreeHeapSize:
     582                      .dwcfi  cfa_offset, 1
     583                      .dwcfi  save_reg_to_mem, 91, -1
     584                      .dwpsn  file "../FreeRTOS/Source/portable/MemMang/heap_2.c",line 239,column 2,is_stmt
     585 0001d4 A431          MOV *(#_xFreeBytesRemaining), T0 ; |239| 
         0001d6 0030 
         0001d8 08-  
     586                      .dwpsn  file "../FreeRTOS/Source/portable/MemMang/heap_2.c",line 240,column 1,is_stmt
TMS320C55x Assembler PC v4.4.1 Sat Sep 22 15:54:09 2018

Tools Copyright (c) 1996-2012 Texas Instruments Incorporated
heap_2.asm                                                           PAGE   14

     587              $C$DW$45        .dwtag  DW_TAG_TI_branch
     588                      .dwattr $C$DW$45, DW_AT_low_pc(0x00)
     589                      .dwattr $C$DW$45, DW_AT_TI_return
     590 0001d9 4804          RET
     591                                                      ; return occurs
     592                      .dwattr $C$DW$44, DW_AT_TI_end_file("../FreeRTOS/Source/portable/MemMang/heap_2.c")
     593                      .dwattr $C$DW$44, DW_AT_TI_end_line(0xf0)
     594                      .dwattr $C$DW$44, DW_AT_TI_end_column(0x01)
     595                      .dwendentry
     596                      .dwendtag $C$DW$44
     597              
     598 0001db               .sect   ".text"
     599                      .align 4
     600                      .global _vPortInitialiseBlocks
     601              
     602              $C$DW$46        .dwtag  DW_TAG_subprogram, DW_AT_name("vPortInitialiseBlocks")
     603                      .dwattr $C$DW$46, DW_AT_low_pc(_vPortInitialiseBlocks)
     604                      .dwattr $C$DW$46, DW_AT_high_pc(0x00)
     605                      .dwattr $C$DW$46, DW_AT_TI_symbol_name("_vPortInitialiseBlocks")
     606                      .dwattr $C$DW$46, DW_AT_external
     607                      .dwattr $C$DW$46, DW_AT_TI_begin_file("../FreeRTOS/Source/portable/MemMang/heap_2.c")
     608                      .dwattr $C$DW$46, DW_AT_TI_begin_line(0xf3)
     609                      .dwattr $C$DW$46, DW_AT_TI_begin_column(0x06)
     610                      .dwattr $C$DW$46, DW_AT_TI_max_frame_size(0x01)
     611                      .dwpsn  file "../FreeRTOS/Source/portable/MemMang/heap_2.c",line 244,column 1,is_stmt,address _vPortI
     612              
     613                      .dwfde $C$DW$CIE, _vPortInitialiseBlocks
     614              ;*******************************************************************************
     615              ;* FUNCTION NAME: vPortInitialiseBlocks                                        *
     616              ;*                                                                             *
     617              ;*   Function Uses Regs : SP,M40,SATA,SATD,RDM,FRCT,SMUL                       *
     618              ;*   Stack Frame        : Compact (No Frame Pointer, w/ debug)                 *
     619              ;*   Total Frame Size   : 1 word                                               *
     620              ;*                        (1 return address/alignment)                         *
     621              ;*   Min System Stack   : 1 word                                               *
     622              ;*******************************************************************************
     623 0001dc       _vPortInitialiseBlocks:
     624                      .dwcfi  cfa_offset, 1
     625                      .dwcfi  save_reg_to_mem, 91, -1
     626                      .dwpsn  file "../FreeRTOS/Source/portable/MemMang/heap_2.c",line 246,column 1,is_stmt
     627              $C$DW$47        .dwtag  DW_TAG_TI_branch
     628                      .dwattr $C$DW$47, DW_AT_low_pc(0x00)
     629                      .dwattr $C$DW$47, DW_AT_TI_return
     630 0001dc 4804          RET
     631                                                      ; return occurs
     632                      .dwattr $C$DW$46, DW_AT_TI_end_file("../FreeRTOS/Source/portable/MemMang/heap_2.c")
     633                      .dwattr $C$DW$46, DW_AT_TI_end_line(0xf6)
     634                      .dwattr $C$DW$46, DW_AT_TI_end_column(0x01)
     635                      .dwendentry
     636                      .dwendtag $C$DW$46
     637              
     638 0001de               .sect   ".text"
     639                      .align 4
     640              
     641              $C$DW$48        .dwtag  DW_TAG_subprogram, DW_AT_name("prvHeapInit")
TMS320C55x Assembler PC v4.4.1 Sat Sep 22 15:54:09 2018

Tools Copyright (c) 1996-2012 Texas Instruments Incorporated
heap_2.asm                                                           PAGE   15

     642                      .dwattr $C$DW$48, DW_AT_low_pc(_prvHeapInit)
     643                      .dwattr $C$DW$48, DW_AT_high_pc(0x00)
     644                      .dwattr $C$DW$48, DW_AT_TI_symbol_name("_prvHeapInit")
     645                      .dwattr $C$DW$48, DW_AT_TI_begin_file("../FreeRTOS/Source/portable/MemMang/heap_2.c")
     646                      .dwattr $C$DW$48, DW_AT_TI_begin_line(0xf9)
     647                      .dwattr $C$DW$48, DW_AT_TI_begin_column(0x0d)
     648                      .dwattr $C$DW$48, DW_AT_TI_max_frame_size(0x06)
     649                      .dwpsn  file "../FreeRTOS/Source/portable/MemMang/heap_2.c",line 250,column 1,is_stmt,address _prvHea
     650              
     651                      .dwfde $C$DW$CIE, _prvHeapInit
     652              ;*******************************************************************************
     653              ;* FUNCTION NAME: prvHeapInit                                                  *
     654              ;*                                                                             *
     655              ;*   Function Uses Regs : AC0,AC0,AR2,XAR2,AR3,XAR3,SP,M40,SATA,SATD,RDM,FRCT, *
     656              ;*                        SMUL                                                 *
     657              ;*   Stack Frame        : Compact (No Frame Pointer, w/ debug)                 *
     658              ;*   Total Frame Size   : 6 words                                              *
     659              ;*                        (2 return address/alignment)                         *
     660              ;*                        (4 local values)                                     *
     661              ;*   Min System Stack   : 1 word                                               *
     662              ;*******************************************************************************
     663 0001e0       _prvHeapInit:
     664                      .dwcfi  cfa_offset, 1
     665                      .dwcfi  save_reg_to_mem, 91, -1
     666 0001e0 4EFB          AADD #-5, SP
     667                      .dwcfi  cfa_offset, 6
     668              $C$DW$49        .dwtag  DW_TAG_variable, DW_AT_name("pxFirstFreeBlock")
     669                      .dwattr $C$DW$49, DW_AT_TI_symbol_name("_pxFirstFreeBlock")
     670                      .dwattr $C$DW$49, DW_AT_type(*$C$DW$T$23)
     671                      .dwattr $C$DW$49, DW_AT_location[DW_OP_bregx 0x24 0]
     672              $C$DW$50        .dwtag  DW_TAG_variable, DW_AT_name("pucAlignedHeap")
     673                      .dwattr $C$DW$50, DW_AT_TI_symbol_name("_pucAlignedHeap")
     674                      .dwattr $C$DW$50, DW_AT_type(*$C$DW$T$30)
     675                      .dwattr $C$DW$50, DW_AT_location[DW_OP_bregx 0x24 2]
     676                      .dwpsn  file "../FreeRTOS/Source/portable/MemMang/heap_2.c",line 255,column 2,is_stmt
     677 0001e2 7A00          MOV #((_ucHeap+2) >> 16) << #16, AC0 ; |255| 
         0001e4 000A%
     678 0001e6 7E00          OR #((_ucHeap+2) & 0xffff), AC0, AC0 ; |255| 
         0001e8 0000%
     679 0001ea EC00          BCLR @#0, AC0 ; |255| 
         0001ec 02   
     680 0001ed EB04          MOV AC0, dbl(*SP(#2))
         0001ef 08   
     681                      .dwpsn  file "../FreeRTOS/Source/portable/MemMang/heap_2.c",line 259,column 2,is_stmt
     682 0001f0 ED04          MOV dbl(*SP(#2)), XAR3
         0001f2 BF   
     683 0001f3 EB31          MOV XAR3, dbl(*(#_xStart))
         0001f5 B500 
         0001f7 3000-
     684                      .dwpsn  file "../FreeRTOS/Source/portable/MemMang/heap_2.c",line 260,column 2,is_stmt
     685 0001f9 E631          MOV #0, *(#(_xStart+2)) ; |260| 
         0001fb 0000 
         0001fd 3002-
     686                      .dwpsn  file "../FreeRTOS/Source/portable/MemMang/heap_2.c",line 263,column 2,is_stmt
     687 0001ff FB31          MOV #12286, *(#(_xEnd+2)) ; |263| 
TMS320C55x Assembler PC v4.4.1 Sat Sep 22 15:54:09 2018

Tools Copyright (c) 1996-2012 Texas Instruments Incorporated
heap_2.asm                                                           PAGE   16

         000201 2FFE 
         000203 0030 
         000205 06-  
     688                      .dwpsn  file "../FreeRTOS/Source/portable/MemMang/heap_2.c",line 264,column 2,is_stmt
     689 000206 3C00          MOV #0, AC0 ; |264| 
     690 000208 EB31          MOV AC0, dbl(*(#_xEnd))
         00020a 0800 
         00020c 3004-
     691                      .dwpsn  file "../FreeRTOS/Source/portable/MemMang/heap_2.c",line 268,column 2,is_stmt
     692 00020e EB00          MOV XAR3, dbl(*SP(#0))
         000210 B5   
     693                      .dwpsn  file "../FreeRTOS/Source/portable/MemMang/heap_2.c",line 269,column 2,is_stmt
     694 000211 FB75          MOV #12286, *AR3(short(#2)) ; |269| 
         000213 2FFE 
     695                      .dwpsn  file "../FreeRTOS/Source/portable/MemMang/heap_2.c",line 270,column 2,is_stmt
     696 000215 ED00          MOV dbl(*SP(#0)), XAR2
         000217 AF   
     697 000218 EC31          AMOV #_xEnd, XAR3 ; |270| 
         00021a BE00 
         00021c 3004-
     698 00021e EB41          MOV XAR3, dbl(*AR2)
         000220 B5   
     699                      .dwpsn  file "../FreeRTOS/Source/portable/MemMang/heap_2.c",line 271,column 1,is_stmt
     700 000221 4E05          AADD #5, SP
     701                      .dwcfi  cfa_offset, 1
     702              $C$DW$51        .dwtag  DW_TAG_TI_branch
     703                      .dwattr $C$DW$51, DW_AT_low_pc(0x00)
     704                      .dwattr $C$DW$51, DW_AT_TI_return
     705 000223 4804          RET
     706                                                      ; return occurs
     707                      .dwattr $C$DW$48, DW_AT_TI_end_file("../FreeRTOS/Source/portable/MemMang/heap_2.c")
     708                      .dwattr $C$DW$48, DW_AT_TI_end_line(0x10f)
     709                      .dwattr $C$DW$48, DW_AT_TI_end_column(0x01)
     710                      .dwendentry
     711                      .dwendtag $C$DW$48
     712              
     713              ;******************************************************************************
     714              ;* UNDEFINED EXTERNAL REFERENCES                                              *
     715              ;******************************************************************************
     716                      .global _vTaskSuspendAll
     717                      .global _xTaskResumeAll
     718                      .global _vApplicationMallocFailedHook
     719              
     720              ;*******************************************************************************
     721              ;* TYPE INFORMATION                                                            *
     722              ;*******************************************************************************
     723              
     724              $C$DW$T$21      .dwtag  DW_TAG_structure_type
     725                      .dwattr $C$DW$T$21, DW_AT_name("A_BLOCK_LINK")
     726                      .dwattr $C$DW$T$21, DW_AT_byte_size(0x04)
     727              $C$DW$52        .dwtag  DW_TAG_member
     728                      .dwattr $C$DW$52, DW_AT_type(*$C$DW$T$19)
     729                      .dwattr $C$DW$52, DW_AT_name("pxNextFreeBlock")
     730                      .dwattr $C$DW$52, DW_AT_TI_symbol_name("_pxNextFreeBlock")
     731                      .dwattr $C$DW$52, DW_AT_data_member_location[DW_OP_plus_uconst 0x0]
TMS320C55x Assembler PC v4.4.1 Sat Sep 22 15:54:09 2018

Tools Copyright (c) 1996-2012 Texas Instruments Incorporated
heap_2.asm                                                           PAGE   17

     732                      .dwattr $C$DW$52, DW_AT_accessibility(DW_ACCESS_public)
     733              $C$DW$53        .dwtag  DW_TAG_member
     734                      .dwattr $C$DW$53, DW_AT_type(*$C$DW$T$20)
     735                      .dwattr $C$DW$53, DW_AT_name("xBlockSize")
     736                      .dwattr $C$DW$53, DW_AT_TI_symbol_name("_xBlockSize")
     737                      .dwattr $C$DW$53, DW_AT_data_member_location[DW_OP_plus_uconst 0x2]
     738                      .dwattr $C$DW$53, DW_AT_accessibility(DW_ACCESS_public)
     739                      .dwendtag $C$DW$T$21
     740              
     741              $C$DW$T$22      .dwtag  DW_TAG_typedef, DW_AT_name("BlockLink_t")
     742                      .dwattr $C$DW$T$22, DW_AT_type(*$C$DW$T$21)
     743                      .dwattr $C$DW$T$22, DW_AT_language(DW_LANG_C)
     744              $C$DW$T$23      .dwtag  DW_TAG_pointer_type
     745                      .dwattr $C$DW$T$23, DW_AT_type(*$C$DW$T$22)
     746                      .dwattr $C$DW$T$23, DW_AT_address_class(0x17)
     747              $C$DW$T$19      .dwtag  DW_TAG_pointer_type
     748                      .dwattr $C$DW$T$19, DW_AT_type(*$C$DW$T$21)
     749                      .dwattr $C$DW$T$19, DW_AT_address_class(0x17)
     750              $C$DW$T$3       .dwtag  DW_TAG_pointer_type
     751                      .dwattr $C$DW$T$3, DW_AT_address_class(0x17)
     752              $C$DW$T$4       .dwtag  DW_TAG_base_type
     753                      .dwattr $C$DW$T$4, DW_AT_encoding(DW_ATE_boolean)
     754                      .dwattr $C$DW$T$4, DW_AT_name("bool")
     755                      .dwattr $C$DW$T$4, DW_AT_byte_size(0x01)
     756              $C$DW$T$5       .dwtag  DW_TAG_base_type
     757                      .dwattr $C$DW$T$5, DW_AT_encoding(DW_ATE_signed_char)
     758                      .dwattr $C$DW$T$5, DW_AT_name("signed char")
     759                      .dwattr $C$DW$T$5, DW_AT_byte_size(0x01)
     760              $C$DW$T$6       .dwtag  DW_TAG_base_type
     761                      .dwattr $C$DW$T$6, DW_AT_encoding(DW_ATE_unsigned_char)
     762                      .dwattr $C$DW$T$6, DW_AT_name("unsigned char")
     763                      .dwattr $C$DW$T$6, DW_AT_byte_size(0x01)
     764              $C$DW$T$28      .dwtag  DW_TAG_typedef, DW_AT_name("uint8_t")
     765                      .dwattr $C$DW$T$28, DW_AT_type(*$C$DW$T$6)
     766                      .dwattr $C$DW$T$28, DW_AT_language(DW_LANG_C)
     767              
     768              $C$DW$T$29      .dwtag  DW_TAG_array_type
     769                      .dwattr $C$DW$T$29, DW_AT_type(*$C$DW$T$28)
     770                      .dwattr $C$DW$T$29, DW_AT_language(DW_LANG_C)
     771                      .dwattr $C$DW$T$29, DW_AT_byte_size(0x3000)
     772              $C$DW$54        .dwtag  DW_TAG_subrange_type
     773                      .dwattr $C$DW$54, DW_AT_upper_bound(0x2fff)
     774                      .dwendtag $C$DW$T$29
     775              
     776              $C$DW$T$30      .dwtag  DW_TAG_pointer_type
     777                      .dwattr $C$DW$T$30, DW_AT_type(*$C$DW$T$28)
     778                      .dwattr $C$DW$T$30, DW_AT_address_class(0x17)
     779              $C$DW$T$7       .dwtag  DW_TAG_base_type
     780                      .dwattr $C$DW$T$7, DW_AT_encoding(DW_ATE_signed_char)
     781                      .dwattr $C$DW$T$7, DW_AT_name("wchar_t")
     782                      .dwattr $C$DW$T$7, DW_AT_byte_size(0x01)
     783              $C$DW$T$8       .dwtag  DW_TAG_base_type
     784                      .dwattr $C$DW$T$8, DW_AT_encoding(DW_ATE_signed)
     785                      .dwattr $C$DW$T$8, DW_AT_name("short")
     786                      .dwattr $C$DW$T$8, DW_AT_byte_size(0x01)
TMS320C55x Assembler PC v4.4.1 Sat Sep 22 15:54:09 2018

Tools Copyright (c) 1996-2012 Texas Instruments Incorporated
heap_2.asm                                                           PAGE   18

     787              $C$DW$T$31      .dwtag  DW_TAG_typedef, DW_AT_name("BaseType_t")
     788                      .dwattr $C$DW$T$31, DW_AT_type(*$C$DW$T$8)
     789                      .dwattr $C$DW$T$31, DW_AT_language(DW_LANG_C)
     790              $C$DW$T$9       .dwtag  DW_TAG_base_type
     791                      .dwattr $C$DW$T$9, DW_AT_encoding(DW_ATE_unsigned)
     792                      .dwattr $C$DW$T$9, DW_AT_name("unsigned short")
     793                      .dwattr $C$DW$T$9, DW_AT_byte_size(0x01)
     794              $C$DW$T$10      .dwtag  DW_TAG_base_type
     795                      .dwattr $C$DW$T$10, DW_AT_encoding(DW_ATE_signed)
     796                      .dwattr $C$DW$T$10, DW_AT_name("int")
     797                      .dwattr $C$DW$T$10, DW_AT_byte_size(0x01)
     798              $C$DW$T$11      .dwtag  DW_TAG_base_type
     799                      .dwattr $C$DW$T$11, DW_AT_encoding(DW_ATE_unsigned)
     800                      .dwattr $C$DW$T$11, DW_AT_name("unsigned int")
     801                      .dwattr $C$DW$T$11, DW_AT_byte_size(0x01)
     802              $C$DW$T$20      .dwtag  DW_TAG_typedef, DW_AT_name("size_t")
     803                      .dwattr $C$DW$T$20, DW_AT_type(*$C$DW$T$11)
     804                      .dwattr $C$DW$T$20, DW_AT_language(DW_LANG_C)
     805              $C$DW$T$35      .dwtag  DW_TAG_typedef, DW_AT_name("uint16_t")
     806                      .dwattr $C$DW$T$35, DW_AT_type(*$C$DW$T$11)
     807                      .dwattr $C$DW$T$35, DW_AT_language(DW_LANG_C)
     808              $C$DW$55        .dwtag  DW_TAG_TI_far_type
     809                      .dwattr $C$DW$55, DW_AT_type(*$C$DW$T$35)
     810              $C$DW$T$36      .dwtag  DW_TAG_const_type
     811                      .dwattr $C$DW$T$36, DW_AT_type(*$C$DW$55)
     812              $C$DW$T$12      .dwtag  DW_TAG_base_type
     813                      .dwattr $C$DW$T$12, DW_AT_encoding(DW_ATE_signed)
     814                      .dwattr $C$DW$T$12, DW_AT_name("long")
     815                      .dwattr $C$DW$T$12, DW_AT_byte_size(0x02)
     816              $C$DW$T$13      .dwtag  DW_TAG_base_type
     817                      .dwattr $C$DW$T$13, DW_AT_encoding(DW_ATE_unsigned)
     818                      .dwattr $C$DW$T$13, DW_AT_name("unsigned long")
     819                      .dwattr $C$DW$T$13, DW_AT_byte_size(0x02)
     820              $C$DW$T$37      .dwtag  DW_TAG_typedef, DW_AT_name("uint32_t")
     821                      .dwattr $C$DW$T$37, DW_AT_type(*$C$DW$T$13)
     822                      .dwattr $C$DW$T$37, DW_AT_language(DW_LANG_C)
     823              $C$DW$T$14      .dwtag  DW_TAG_base_type
     824                      .dwattr $C$DW$T$14, DW_AT_encoding(DW_ATE_signed)
     825                      .dwattr $C$DW$T$14, DW_AT_name("long long")
     826                      .dwattr $C$DW$T$14, DW_AT_byte_size(0x04)
     827                      .dwattr $C$DW$T$14, DW_AT_bit_size(0x28)
     828                      .dwattr $C$DW$T$14, DW_AT_bit_offset(0x18)
     829              $C$DW$T$15      .dwtag  DW_TAG_base_type
     830                      .dwattr $C$DW$T$15, DW_AT_encoding(DW_ATE_unsigned)
     831                      .dwattr $C$DW$T$15, DW_AT_name("unsigned long long")
     832                      .dwattr $C$DW$T$15, DW_AT_byte_size(0x04)
     833                      .dwattr $C$DW$T$15, DW_AT_bit_size(0x28)
     834                      .dwattr $C$DW$T$15, DW_AT_bit_offset(0x18)
     835              $C$DW$T$16      .dwtag  DW_TAG_base_type
     836                      .dwattr $C$DW$T$16, DW_AT_encoding(DW_ATE_float)
     837                      .dwattr $C$DW$T$16, DW_AT_name("float")
     838                      .dwattr $C$DW$T$16, DW_AT_byte_size(0x02)
     839              $C$DW$T$17      .dwtag  DW_TAG_base_type
     840                      .dwattr $C$DW$T$17, DW_AT_encoding(DW_ATE_float)
     841                      .dwattr $C$DW$T$17, DW_AT_name("double")
TMS320C55x Assembler PC v4.4.1 Sat Sep 22 15:54:09 2018

Tools Copyright (c) 1996-2012 Texas Instruments Incorporated
heap_2.asm                                                           PAGE   19

     842                      .dwattr $C$DW$T$17, DW_AT_byte_size(0x02)
     843              $C$DW$T$18      .dwtag  DW_TAG_base_type
     844                      .dwattr $C$DW$T$18, DW_AT_encoding(DW_ATE_float)
     845                      .dwattr $C$DW$T$18, DW_AT_name("long double")
     846                      .dwattr $C$DW$T$18, DW_AT_byte_size(0x02)
     847                      .dwattr $C$DW$CU, DW_AT_language(DW_LANG_C)
     848              
     849              ;***************************************************************
     850              ;* DWARF CIE ENTRIES                                           *
     851              ;***************************************************************
     852              
     853              $C$DW$CIE       .dwcie 91
     854                      .dwcfi  cfa_register, 36
     855                      .dwcfi  cfa_offset, 0
     856                      .dwcfi  undefined, 0
     857                      .dwcfi  undefined, 1
     858                      .dwcfi  undefined, 2
     859                      .dwcfi  undefined, 3
     860                      .dwcfi  undefined, 4
     861                      .dwcfi  undefined, 5
     862                      .dwcfi  undefined, 6
     863                      .dwcfi  undefined, 7
     864                      .dwcfi  undefined, 8
     865                      .dwcfi  undefined, 9
     866                      .dwcfi  undefined, 10
     867                      .dwcfi  undefined, 11
     868                      .dwcfi  undefined, 12
     869                      .dwcfi  undefined, 13
     870                      .dwcfi  same_value, 14
     871                      .dwcfi  same_value, 15
     872                      .dwcfi  undefined, 16
     873                      .dwcfi  undefined, 17
     874                      .dwcfi  undefined, 18
     875                      .dwcfi  undefined, 19
     876                      .dwcfi  undefined, 20
     877                      .dwcfi  undefined, 21
     878                      .dwcfi  undefined, 22
     879                      .dwcfi  undefined, 23
     880                      .dwcfi  undefined, 24
     881                      .dwcfi  undefined, 25
     882                      .dwcfi  same_value, 26
     883                      .dwcfi  same_value, 27
     884                      .dwcfi  same_value, 28
     885                      .dwcfi  same_value, 29
     886                      .dwcfi  same_value, 30
     887                      .dwcfi  same_value, 31
     888                      .dwcfi  undefined, 32
     889                      .dwcfi  undefined, 33
     890                      .dwcfi  undefined, 34
     891                      .dwcfi  undefined, 35
     892                      .dwcfi  undefined, 36
     893                      .dwcfi  undefined, 37
     894                      .dwcfi  undefined, 38
     895                      .dwcfi  undefined, 39
     896                      .dwcfi  undefined, 40
TMS320C55x Assembler PC v4.4.1 Sat Sep 22 15:54:09 2018

Tools Copyright (c) 1996-2012 Texas Instruments Incorporated
heap_2.asm                                                           PAGE   20

     897                      .dwcfi  undefined, 41
     898                      .dwcfi  undefined, 42
     899                      .dwcfi  undefined, 43
     900                      .dwcfi  undefined, 44
     901                      .dwcfi  undefined, 45
     902                      .dwcfi  undefined, 46
     903                      .dwcfi  undefined, 47
     904                      .dwcfi  undefined, 48
     905                      .dwcfi  undefined, 49
     906                      .dwcfi  undefined, 50
     907                      .dwcfi  undefined, 51
     908                      .dwcfi  undefined, 52
     909                      .dwcfi  undefined, 53
     910                      .dwcfi  undefined, 54
     911                      .dwcfi  undefined, 55
     912                      .dwcfi  undefined, 56
     913                      .dwcfi  undefined, 57
     914                      .dwcfi  undefined, 58
     915                      .dwcfi  undefined, 59
     916                      .dwcfi  undefined, 60
     917                      .dwcfi  undefined, 61
     918                      .dwcfi  undefined, 62
     919                      .dwcfi  undefined, 63
     920                      .dwcfi  undefined, 64
     921                      .dwcfi  undefined, 65
     922                      .dwcfi  undefined, 66
     923                      .dwcfi  undefined, 67
     924                      .dwcfi  undefined, 68
     925                      .dwcfi  undefined, 69
     926                      .dwcfi  undefined, 70
     927                      .dwcfi  undefined, 71
     928                      .dwcfi  undefined, 72
     929                      .dwcfi  undefined, 73
     930                      .dwcfi  undefined, 74
     931                      .dwcfi  undefined, 75
     932                      .dwcfi  undefined, 76
     933                      .dwcfi  undefined, 77
     934                      .dwcfi  undefined, 78
     935                      .dwcfi  undefined, 79
     936                      .dwcfi  undefined, 80
     937                      .dwcfi  undefined, 81
     938                      .dwcfi  undefined, 82
     939                      .dwcfi  undefined, 83
     940                      .dwcfi  undefined, 84
     941                      .dwcfi  undefined, 85
     942                      .dwcfi  undefined, 86
     943                      .dwcfi  undefined, 87
     944                      .dwcfi  undefined, 88
     945                      .dwcfi  undefined, 89
     946                      .dwcfi  undefined, 90
     947                      .dwcfi  undefined, 91
     948                      .dwendentry
     949              
     950              ;***************************************************************
     951              ;* DWARF REGISTER MAP                                          *
TMS320C55x Assembler PC v4.4.1 Sat Sep 22 15:54:09 2018

Tools Copyright (c) 1996-2012 Texas Instruments Incorporated
heap_2.asm                                                           PAGE   21

     952              ;***************************************************************
     953              
     954              $C$DW$56        .dwtag  DW_TAG_TI_assign_register, DW_AT_name("AC0")
     955                      .dwattr $C$DW$56, DW_AT_location[DW_OP_reg0]
     956              $C$DW$57        .dwtag  DW_TAG_TI_assign_register, DW_AT_name("AC0")
     957                      .dwattr $C$DW$57, DW_AT_location[DW_OP_reg1]
     958              $C$DW$58        .dwtag  DW_TAG_TI_assign_register, DW_AT_name("AC0_G")
     959                      .dwattr $C$DW$58, DW_AT_location[DW_OP_reg2]
     960              $C$DW$59        .dwtag  DW_TAG_TI_assign_register, DW_AT_name("AC1")
     961                      .dwattr $C$DW$59, DW_AT_location[DW_OP_reg3]
     962              $C$DW$60        .dwtag  DW_TAG_TI_assign_register, DW_AT_name("AC1")
     963                      .dwattr $C$DW$60, DW_AT_location[DW_OP_reg4]
     964              $C$DW$61        .dwtag  DW_TAG_TI_assign_register, DW_AT_name("AC1_G")
     965                      .dwattr $C$DW$61, DW_AT_location[DW_OP_reg5]
     966              $C$DW$62        .dwtag  DW_TAG_TI_assign_register, DW_AT_name("AC2")
     967                      .dwattr $C$DW$62, DW_AT_location[DW_OP_reg6]
     968              $C$DW$63        .dwtag  DW_TAG_TI_assign_register, DW_AT_name("AC2")
     969                      .dwattr $C$DW$63, DW_AT_location[DW_OP_reg7]
     970              $C$DW$64        .dwtag  DW_TAG_TI_assign_register, DW_AT_name("AC2_G")
     971                      .dwattr $C$DW$64, DW_AT_location[DW_OP_reg8]
     972              $C$DW$65        .dwtag  DW_TAG_TI_assign_register, DW_AT_name("AC3")
     973                      .dwattr $C$DW$65, DW_AT_location[DW_OP_reg9]
     974              $C$DW$66        .dwtag  DW_TAG_TI_assign_register, DW_AT_name("AC3")
     975                      .dwattr $C$DW$66, DW_AT_location[DW_OP_reg10]
     976              $C$DW$67        .dwtag  DW_TAG_TI_assign_register, DW_AT_name("AC3_G")
     977                      .dwattr $C$DW$67, DW_AT_location[DW_OP_reg11]
     978              $C$DW$68        .dwtag  DW_TAG_TI_assign_register, DW_AT_name("T0")
     979                      .dwattr $C$DW$68, DW_AT_location[DW_OP_reg12]
     980              $C$DW$69        .dwtag  DW_TAG_TI_assign_register, DW_AT_name("T1")
     981                      .dwattr $C$DW$69, DW_AT_location[DW_OP_reg13]
     982              $C$DW$70        .dwtag  DW_TAG_TI_assign_register, DW_AT_name("T2")
     983                      .dwattr $C$DW$70, DW_AT_location[DW_OP_reg14]
     984              $C$DW$71        .dwtag  DW_TAG_TI_assign_register, DW_AT_name("T3")
     985                      .dwattr $C$DW$71, DW_AT_location[DW_OP_reg15]
     986              $C$DW$72        .dwtag  DW_TAG_TI_assign_register, DW_AT_name("AR0")
     987                      .dwattr $C$DW$72, DW_AT_location[DW_OP_reg16]
     988              $C$DW$73        .dwtag  DW_TAG_TI_assign_register, DW_AT_name("XAR0")
     989                      .dwattr $C$DW$73, DW_AT_location[DW_OP_reg17]
     990              $C$DW$74        .dwtag  DW_TAG_TI_assign_register, DW_AT_name("AR1")
     991                      .dwattr $C$DW$74, DW_AT_location[DW_OP_reg18]
     992              $C$DW$75        .dwtag  DW_TAG_TI_assign_register, DW_AT_name("XAR1")
     993                      .dwattr $C$DW$75, DW_AT_location[DW_OP_reg19]
     994              $C$DW$76        .dwtag  DW_TAG_TI_assign_register, DW_AT_name("AR2")
     995                      .dwattr $C$DW$76, DW_AT_location[DW_OP_reg20]
     996              $C$DW$77        .dwtag  DW_TAG_TI_assign_register, DW_AT_name("XAR2")
     997                      .dwattr $C$DW$77, DW_AT_location[DW_OP_reg21]
     998              $C$DW$78        .dwtag  DW_TAG_TI_assign_register, DW_AT_name("AR3")
     999                      .dwattr $C$DW$78, DW_AT_location[DW_OP_reg22]
    1000              $C$DW$79        .dwtag  DW_TAG_TI_assign_register, DW_AT_name("XAR3")
    1001                      .dwattr $C$DW$79, DW_AT_location[DW_OP_reg23]
    1002              $C$DW$80        .dwtag  DW_TAG_TI_assign_register, DW_AT_name("AR4")
    1003                      .dwattr $C$DW$80, DW_AT_location[DW_OP_reg24]
    1004              $C$DW$81        .dwtag  DW_TAG_TI_assign_register, DW_AT_name("XAR4")
    1005                      .dwattr $C$DW$81, DW_AT_location[DW_OP_reg25]
    1006              $C$DW$82        .dwtag  DW_TAG_TI_assign_register, DW_AT_name("AR5")
TMS320C55x Assembler PC v4.4.1 Sat Sep 22 15:54:09 2018

Tools Copyright (c) 1996-2012 Texas Instruments Incorporated
heap_2.asm                                                           PAGE   22

    1007                      .dwattr $C$DW$82, DW_AT_location[DW_OP_reg26]
    1008              $C$DW$83        .dwtag  DW_TAG_TI_assign_register, DW_AT_name("XAR5")
    1009                      .dwattr $C$DW$83, DW_AT_location[DW_OP_reg27]
    1010              $C$DW$84        .dwtag  DW_TAG_TI_assign_register, DW_AT_name("AR6")
    1011                      .dwattr $C$DW$84, DW_AT_location[DW_OP_reg28]
    1012              $C$DW$85        .dwtag  DW_TAG_TI_assign_register, DW_AT_name("XAR6")
    1013                      .dwattr $C$DW$85, DW_AT_location[DW_OP_reg29]
    1014              $C$DW$86        .dwtag  DW_TAG_TI_assign_register, DW_AT_name("AR7")
    1015                      .dwattr $C$DW$86, DW_AT_location[DW_OP_reg30]
    1016              $C$DW$87        .dwtag  DW_TAG_TI_assign_register, DW_AT_name("XAR7")
    1017                      .dwattr $C$DW$87, DW_AT_location[DW_OP_reg31]
    1018              $C$DW$88        .dwtag  DW_TAG_TI_assign_register, DW_AT_name("FP")
    1019                      .dwattr $C$DW$88, DW_AT_location[DW_OP_regx 0x20]
    1020              $C$DW$89        .dwtag  DW_TAG_TI_assign_register, DW_AT_name("XFP")
    1021                      .dwattr $C$DW$89, DW_AT_location[DW_OP_regx 0x21]
    1022              $C$DW$90        .dwtag  DW_TAG_TI_assign_register, DW_AT_name("PC")
    1023                      .dwattr $C$DW$90, DW_AT_location[DW_OP_regx 0x22]
    1024              $C$DW$91        .dwtag  DW_TAG_TI_assign_register, DW_AT_name("SP")
    1025                      .dwattr $C$DW$91, DW_AT_location[DW_OP_regx 0x23]
    1026              $C$DW$92        .dwtag  DW_TAG_TI_assign_register, DW_AT_name("XSP")
    1027                      .dwattr $C$DW$92, DW_AT_location[DW_OP_regx 0x24]
    1028              $C$DW$93        .dwtag  DW_TAG_TI_assign_register, DW_AT_name("BKC")
    1029                      .dwattr $C$DW$93, DW_AT_location[DW_OP_regx 0x25]
    1030              $C$DW$94        .dwtag  DW_TAG_TI_assign_register, DW_AT_name("BK03")
    1031                      .dwattr $C$DW$94, DW_AT_location[DW_OP_regx 0x26]
    1032              $C$DW$95        .dwtag  DW_TAG_TI_assign_register, DW_AT_name("BK47")
    1033                      .dwattr $C$DW$95, DW_AT_location[DW_OP_regx 0x27]
    1034              $C$DW$96        .dwtag  DW_TAG_TI_assign_register, DW_AT_name("ST0")
    1035                      .dwattr $C$DW$96, DW_AT_location[DW_OP_regx 0x28]
    1036              $C$DW$97        .dwtag  DW_TAG_TI_assign_register, DW_AT_name("ST1")
    1037                      .dwattr $C$DW$97, DW_AT_location[DW_OP_regx 0x29]
    1038              $C$DW$98        .dwtag  DW_TAG_TI_assign_register, DW_AT_name("ST2")
    1039                      .dwattr $C$DW$98, DW_AT_location[DW_OP_regx 0x2a]
    1040              $C$DW$99        .dwtag  DW_TAG_TI_assign_register, DW_AT_name("ST3")
    1041                      .dwattr $C$DW$99, DW_AT_location[DW_OP_regx 0x2b]
    1042              $C$DW$100       .dwtag  DW_TAG_TI_assign_register, DW_AT_name("MDP")
    1043                      .dwattr $C$DW$100, DW_AT_location[DW_OP_regx 0x2c]
    1044              $C$DW$101       .dwtag  DW_TAG_TI_assign_register, DW_AT_name("MDP05")
    1045                      .dwattr $C$DW$101, DW_AT_location[DW_OP_regx 0x2d]
    1046              $C$DW$102       .dwtag  DW_TAG_TI_assign_register, DW_AT_name("MDP67")
    1047                      .dwattr $C$DW$102, DW_AT_location[DW_OP_regx 0x2e]
    1048              $C$DW$103       .dwtag  DW_TAG_TI_assign_register, DW_AT_name("BRC0")
    1049                      .dwattr $C$DW$103, DW_AT_location[DW_OP_regx 0x2f]
    1050              $C$DW$104       .dwtag  DW_TAG_TI_assign_register, DW_AT_name("RSA0")
    1051                      .dwattr $C$DW$104, DW_AT_location[DW_OP_regx 0x30]
    1052              $C$DW$105       .dwtag  DW_TAG_TI_assign_register, DW_AT_name("RSA0_H")
    1053                      .dwattr $C$DW$105, DW_AT_location[DW_OP_regx 0x31]
    1054              $C$DW$106       .dwtag  DW_TAG_TI_assign_register, DW_AT_name("REA0")
    1055                      .dwattr $C$DW$106, DW_AT_location[DW_OP_regx 0x32]
    1056              $C$DW$107       .dwtag  DW_TAG_TI_assign_register, DW_AT_name("REA0_H")
    1057                      .dwattr $C$DW$107, DW_AT_location[DW_OP_regx 0x33]
    1058              $C$DW$108       .dwtag  DW_TAG_TI_assign_register, DW_AT_name("BRS1")
    1059                      .dwattr $C$DW$108, DW_AT_location[DW_OP_regx 0x34]
    1060              $C$DW$109       .dwtag  DW_TAG_TI_assign_register, DW_AT_name("BRC1")
    1061                      .dwattr $C$DW$109, DW_AT_location[DW_OP_regx 0x35]
TMS320C55x Assembler PC v4.4.1 Sat Sep 22 15:54:09 2018

Tools Copyright (c) 1996-2012 Texas Instruments Incorporated
heap_2.asm                                                           PAGE   23

    1062              $C$DW$110       .dwtag  DW_TAG_TI_assign_register, DW_AT_name("RSA1")
    1063                      .dwattr $C$DW$110, DW_AT_location[DW_OP_regx 0x36]
    1064              $C$DW$111       .dwtag  DW_TAG_TI_assign_register, DW_AT_name("RSA1_H")
    1065                      .dwattr $C$DW$111, DW_AT_location[DW_OP_regx 0x37]
    1066              $C$DW$112       .dwtag  DW_TAG_TI_assign_register, DW_AT_name("REA1")
    1067                      .dwattr $C$DW$112, DW_AT_location[DW_OP_regx 0x38]
    1068              $C$DW$113       .dwtag  DW_TAG_TI_assign_register, DW_AT_name("REA1_H")
    1069                      .dwattr $C$DW$113, DW_AT_location[DW_OP_regx 0x39]
    1070              $C$DW$114       .dwtag  DW_TAG_TI_assign_register, DW_AT_name("CSR")
    1071                      .dwattr $C$DW$114, DW_AT_location[DW_OP_regx 0x3a]
    1072              $C$DW$115       .dwtag  DW_TAG_TI_assign_register, DW_AT_name("RPTC")
    1073                      .dwattr $C$DW$115, DW_AT_location[DW_OP_regx 0x3b]
    1074              $C$DW$116       .dwtag  DW_TAG_TI_assign_register, DW_AT_name("CDP")
    1075                      .dwattr $C$DW$116, DW_AT_location[DW_OP_regx 0x3c]
    1076              $C$DW$117       .dwtag  DW_TAG_TI_assign_register, DW_AT_name("XCDP")
    1077                      .dwattr $C$DW$117, DW_AT_location[DW_OP_regx 0x3d]
    1078              $C$DW$118       .dwtag  DW_TAG_TI_assign_register, DW_AT_name("TRN0")
    1079                      .dwattr $C$DW$118, DW_AT_location[DW_OP_regx 0x3e]
    1080              $C$DW$119       .dwtag  DW_TAG_TI_assign_register, DW_AT_name("TRN1")
    1081                      .dwattr $C$DW$119, DW_AT_location[DW_OP_regx 0x3f]
    1082              $C$DW$120       .dwtag  DW_TAG_TI_assign_register, DW_AT_name("BSA01")
    1083                      .dwattr $C$DW$120, DW_AT_location[DW_OP_regx 0x40]
    1084              $C$DW$121       .dwtag  DW_TAG_TI_assign_register, DW_AT_name("BSA23")
    1085                      .dwattr $C$DW$121, DW_AT_location[DW_OP_regx 0x41]
    1086              $C$DW$122       .dwtag  DW_TAG_TI_assign_register, DW_AT_name("BSA45")
    1087                      .dwattr $C$DW$122, DW_AT_location[DW_OP_regx 0x42]
    1088              $C$DW$123       .dwtag  DW_TAG_TI_assign_register, DW_AT_name("BSA67")
    1089                      .dwattr $C$DW$123, DW_AT_location[DW_OP_regx 0x43]
    1090              $C$DW$124       .dwtag  DW_TAG_TI_assign_register, DW_AT_name("BSAC")
    1091                      .dwattr $C$DW$124, DW_AT_location[DW_OP_regx 0x44]
    1092              $C$DW$125       .dwtag  DW_TAG_TI_assign_register, DW_AT_name("CARRY")
    1093                      .dwattr $C$DW$125, DW_AT_location[DW_OP_regx 0x45]
    1094              $C$DW$126       .dwtag  DW_TAG_TI_assign_register, DW_AT_name("TC1")
    1095                      .dwattr $C$DW$126, DW_AT_location[DW_OP_regx 0x46]
    1096              $C$DW$127       .dwtag  DW_TAG_TI_assign_register, DW_AT_name("TC2")
    1097                      .dwattr $C$DW$127, DW_AT_location[DW_OP_regx 0x47]
    1098              $C$DW$128       .dwtag  DW_TAG_TI_assign_register, DW_AT_name("M40")
    1099                      .dwattr $C$DW$128, DW_AT_location[DW_OP_regx 0x48]
    1100              $C$DW$129       .dwtag  DW_TAG_TI_assign_register, DW_AT_name("SXMD")
    1101                      .dwattr $C$DW$129, DW_AT_location[DW_OP_regx 0x49]
    1102              $C$DW$130       .dwtag  DW_TAG_TI_assign_register, DW_AT_name("ARMS")
    1103                      .dwattr $C$DW$130, DW_AT_location[DW_OP_regx 0x4a]
    1104              $C$DW$131       .dwtag  DW_TAG_TI_assign_register, DW_AT_name("C54CM")
    1105                      .dwattr $C$DW$131, DW_AT_location[DW_OP_regx 0x4b]
    1106              $C$DW$132       .dwtag  DW_TAG_TI_assign_register, DW_AT_name("SATA")
    1107                      .dwattr $C$DW$132, DW_AT_location[DW_OP_regx 0x4c]
    1108              $C$DW$133       .dwtag  DW_TAG_TI_assign_register, DW_AT_name("SATD")
    1109                      .dwattr $C$DW$133, DW_AT_location[DW_OP_regx 0x4d]
    1110              $C$DW$134       .dwtag  DW_TAG_TI_assign_register, DW_AT_name("RDM")
    1111                      .dwattr $C$DW$134, DW_AT_location[DW_OP_regx 0x4e]
    1112              $C$DW$135       .dwtag  DW_TAG_TI_assign_register, DW_AT_name("FRCT")
    1113                      .dwattr $C$DW$135, DW_AT_location[DW_OP_regx 0x4f]
    1114              $C$DW$136       .dwtag  DW_TAG_TI_assign_register, DW_AT_name("SMUL")
    1115                      .dwattr $C$DW$136, DW_AT_location[DW_OP_regx 0x50]
    1116              $C$DW$137       .dwtag  DW_TAG_TI_assign_register, DW_AT_name("INTM")
TMS320C55x Assembler PC v4.4.1 Sat Sep 22 15:54:09 2018

Tools Copyright (c) 1996-2012 Texas Instruments Incorporated
heap_2.asm                                                           PAGE   24

    1117                      .dwattr $C$DW$137, DW_AT_location[DW_OP_regx 0x51]
    1118              $C$DW$138       .dwtag  DW_TAG_TI_assign_register, DW_AT_name("AR0LC")
    1119                      .dwattr $C$DW$138, DW_AT_location[DW_OP_regx 0x52]
    1120              $C$DW$139       .dwtag  DW_TAG_TI_assign_register, DW_AT_name("AR1LC")
    1121                      .dwattr $C$DW$139, DW_AT_location[DW_OP_regx 0x53]
    1122              $C$DW$140       .dwtag  DW_TAG_TI_assign_register, DW_AT_name("AR2LC")
    1123                      .dwattr $C$DW$140, DW_AT_location[DW_OP_regx 0x54]
    1124              $C$DW$141       .dwtag  DW_TAG_TI_assign_register, DW_AT_name("AR3LC")
    1125                      .dwattr $C$DW$141, DW_AT_location[DW_OP_regx 0x55]
    1126              $C$DW$142       .dwtag  DW_TAG_TI_assign_register, DW_AT_name("AR4LC")
    1127                      .dwattr $C$DW$142, DW_AT_location[DW_OP_regx 0x56]
    1128              $C$DW$143       .dwtag  DW_TAG_TI_assign_register, DW_AT_name("AR5LC")
    1129                      .dwattr $C$DW$143, DW_AT_location[DW_OP_regx 0x57]
    1130              $C$DW$144       .dwtag  DW_TAG_TI_assign_register, DW_AT_name("AR6LC")
    1131                      .dwattr $C$DW$144, DW_AT_location[DW_OP_regx 0x58]
    1132              $C$DW$145       .dwtag  DW_TAG_TI_assign_register, DW_AT_name("AR7LC")
    1133                      .dwattr $C$DW$145, DW_AT_location[DW_OP_regx 0x59]
    1134              $C$DW$146       .dwtag  DW_TAG_TI_assign_register, DW_AT_name("CDPLC")
    1135                      .dwattr $C$DW$146, DW_AT_location[DW_OP_regx 0x5a]
    1136              $C$DW$147       .dwtag  DW_TAG_TI_assign_register, DW_AT_name("CIE_RETA")
    1137                      .dwattr $C$DW$147, DW_AT_location[DW_OP_regx 0x5b]
    1138                      .dwendtag $C$DW$CU
    1139              
    1139              
    1139              

No Assembly Errors, No Assembly Warnings
