TMS320C55x Assembler PC v4.4.1 Fri Sep 14 23:31:58 2018

Tools Copyright (c) 1996-2012 Texas Instruments Incorporated
csl_mmcsd_ataIf.asm                                                  PAGE    1

    5965              ; Temporary Registers Used: None
       1              ;*******************************************************************************
       2              ;* TMS320C55x C/C++ Codegen                                          PC v4.4.1 *
       3              ;* Date/Time created: Fri Sep 14 23:31:57 2018                                 *
       4              ;*******************************************************************************
       5                      .compiler_opts --hll_source=on --mem_model:code=flat --mem_model:data=large --object_format=coff --si
       6                      .mmregs
       7                      .cpl_on
       8                      .arms_on
       9                      .c54cm_off
      10                      .asg AR6, FP
      11                      .asg XAR6, XFP
      12                      .asg DPH, MDP
      13                      .model call=c55_std
      14                      .model mem=large
      15                      .noremark 5002  ; code respects overwrite rules
      16              ;*******************************************************************************
      17              ;* GLOBAL FILE PARAMETERS                                                      *
      18              ;*                                                                             *
      19              ;*   Architecture       : TMS320C55x                                           *
      20              ;*   Optimizing for     : Speed                                                *
      21              ;*   Memory             : Large Model (23-Bit Data Pointers)                   *
      22              ;*   Calls              : Normal Library ASM calls                             *
      23              ;*   Debug Info         : Standard TI Debug Information                        *
      24              ;*******************************************************************************
      25              
      26              $C$DW$CU        .dwtag  DW_TAG_compile_unit
      27                      .dwattr $C$DW$CU, DW_AT_name("../c5535_bsl_revc/ezdsp5535_v1/c55xx_csl/src/csl_mmcsd_ataIf.c")
      28                      .dwattr $C$DW$CU, DW_AT_producer("TMS320C55x C/C++ Codegen PC v4.4.1 Copyright (c) 1996-2012 Texas In
      29                      .dwattr $C$DW$CU, DW_AT_TI_version(0x01)
      30                      .dwattr $C$DW$CU, DW_AT_comp_dir("F:\eZdsp_DBG\eZDSP_5535_Files\ccsws2\test\Debug")
      31              ;******************************************************************************
      32              ;* CINIT RECORDS                                                              *
      33              ;******************************************************************************
      34 000000               .sect   ".cinit"
      35                      .align  1
      36 000000 0001          .field          $C$IR_1,16
      37 000001 0000-         .field          _gReadBuf+0,24
         000002 0000 
      38 000002 0000          .field          0,8
      39 000003 00BB          .field  187,16                  ; _gReadBuf[0] @ 0
      40              $C$IR_1:        .set    1
      41              
      42 000004               .sect   ".cinit"
      43                      .align  1
      44 000004 0001          .field          1,16
      45 000005 0001-         .field          _gWordCount+0,24
         000006 0000 
      46 000006 0000          .field          0,8
      47 000007 0100          .field  256,16                  ; _gWordCount @ 0
      48              
      49 000008               .sect   ".cinit"
      50                      .align  1
      51 000008 0002          .field          2,16
      52 000009 0001-         .field          _gNextPhySector+0,24
TMS320C55x Assembler PC v4.4.1 Fri Sep 14 23:31:58 2018

Tools Copyright (c) 1996-2012 Texas Instruments Incorporated
csl_mmcsd_ataIf.asm                                                  PAGE    2

         00000a 0200 
      53 00000a 0200          .field          0,8
      54 00000b 0000          .field  0,32                    ; _gNextPhySector @ 0
         00000c 0000 
      55              
      56 00000d               .sect   ".cinit"
      57                      .align  1
      58 00000d 0001          .field          1,16
      59 00000e 0001-         .field          _nbuf_cached+0,24
         00000f 0100 
      60 00000f 0100          .field          0,8
      61 000010 0000          .field  0,16                    ; _nbuf_cached @ 0
      62              
      63 000011               .sect   ".cinit"
      64                      .align  1
      65 000011 0001          .field          1,16
      66 000012 0005-         .field          _ATA_No_Swap+0,24
         000013 0C00 
      67 000013 0C00          .field          0,8
      68 000014 0000          .field  0,16                    ; _ATA_No_Swap @ 0
      69              
      70              
      71              $C$DW$1 .dwtag  DW_TAG_subprogram, DW_AT_name("MMC_read")
      72                      .dwattr $C$DW$1, DW_AT_TI_symbol_name("_MMC_read")
      73                      .dwattr $C$DW$1, DW_AT_type(*$C$DW$T$139)
      74                      .dwattr $C$DW$1, DW_AT_declaration
      75                      .dwattr $C$DW$1, DW_AT_external
      76              $C$DW$2 .dwtag  DW_TAG_formal_parameter
      77                      .dwattr $C$DW$2, DW_AT_type(*$C$DW$T$135)
      78              $C$DW$3 .dwtag  DW_TAG_formal_parameter
      79                      .dwattr $C$DW$3, DW_AT_type(*$C$DW$T$28)
      80              $C$DW$4 .dwtag  DW_TAG_formal_parameter
      81                      .dwattr $C$DW$4, DW_AT_type(*$C$DW$T$19)
      82              $C$DW$5 .dwtag  DW_TAG_formal_parameter
      83                      .dwattr $C$DW$5, DW_AT_type(*$C$DW$T$103)
      84                      .dwendtag $C$DW$1
      85              
      86              
      87              $C$DW$6 .dwtag  DW_TAG_subprogram, DW_AT_name("MMC_write")
      88                      .dwattr $C$DW$6, DW_AT_TI_symbol_name("_MMC_write")
      89                      .dwattr $C$DW$6, DW_AT_type(*$C$DW$T$139)
      90                      .dwattr $C$DW$6, DW_AT_declaration
      91                      .dwattr $C$DW$6, DW_AT_external
      92              $C$DW$7 .dwtag  DW_TAG_formal_parameter
      93                      .dwattr $C$DW$7, DW_AT_type(*$C$DW$T$135)
      94              $C$DW$8 .dwtag  DW_TAG_formal_parameter
      95                      .dwattr $C$DW$8, DW_AT_type(*$C$DW$T$28)
      96              $C$DW$9 .dwtag  DW_TAG_formal_parameter
      97                      .dwattr $C$DW$9, DW_AT_type(*$C$DW$T$19)
      98              $C$DW$10        .dwtag  DW_TAG_formal_parameter
      99                      .dwattr $C$DW$10, DW_AT_type(*$C$DW$T$103)
     100                      .dwendtag $C$DW$6
     101              
     102                      .global _gReadBuf
     103 000000               .bss    _gReadBuf,256,0,4
TMS320C55x Assembler PC v4.4.1 Fri Sep 14 23:31:58 2018

Tools Copyright (c) 1996-2012 Texas Instruments Incorporated
csl_mmcsd_ataIf.asm                                                  PAGE    3

     104              $C$DW$11        .dwtag  DW_TAG_variable, DW_AT_name("gReadBuf")
     105                      .dwattr $C$DW$11, DW_AT_TI_symbol_name("_gReadBuf")
     106                      .dwattr $C$DW$11, DW_AT_location[DW_OP_addr _gReadBuf]
     107                      .dwattr $C$DW$11, DW_AT_type(*$C$DW$T$151)
     108                      .dwattr $C$DW$11, DW_AT_external
     109                      .global _gWordCount
     110 000100               .bss    _gWordCount,1,0,0
     111              $C$DW$12        .dwtag  DW_TAG_variable, DW_AT_name("gWordCount")
     112                      .dwattr $C$DW$12, DW_AT_TI_symbol_name("_gWordCount")
     113                      .dwattr $C$DW$12, DW_AT_location[DW_OP_addr _gWordCount]
     114                      .dwattr $C$DW$12, DW_AT_type(*$C$DW$T$19)
     115                      .dwattr $C$DW$12, DW_AT_external
     116                      .global _gNextPhySector
     117 000102               .bss    _gNextPhySector,2,0,2
     118              $C$DW$13        .dwtag  DW_TAG_variable, DW_AT_name("gNextPhySector")
     119                      .dwattr $C$DW$13, DW_AT_TI_symbol_name("_gNextPhySector")
     120                      .dwattr $C$DW$13, DW_AT_location[DW_OP_addr _gNextPhySector]
     121                      .dwattr $C$DW$13, DW_AT_type(*$C$DW$T$105)
     122                      .dwattr $C$DW$13, DW_AT_external
     123                      .global _gWriteBuf
     124 000104               .bss    _gWriteBuf,1024,0,4
     125              $C$DW$14        .dwtag  DW_TAG_variable, DW_AT_name("gWriteBuf")
     126                      .dwattr $C$DW$14, DW_AT_TI_symbol_name("_gWriteBuf")
     127                      .dwattr $C$DW$14, DW_AT_location[DW_OP_addr _gWriteBuf]
     128                      .dwattr $C$DW$14, DW_AT_type(*$C$DW$T$152)
     129                      .dwattr $C$DW$14, DW_AT_external
     130                      .global _cached_phySector0
     131 000504               .bss    _cached_phySector0,2,0,2
     132              $C$DW$15        .dwtag  DW_TAG_variable, DW_AT_name("cached_phySector0")
     133                      .dwattr $C$DW$15, DW_AT_TI_symbol_name("_cached_phySector0")
     134                      .dwattr $C$DW$15, DW_AT_location[DW_OP_addr _cached_phySector0]
     135                      .dwattr $C$DW$15, DW_AT_type(*$C$DW$T$105)
     136                      .dwattr $C$DW$15, DW_AT_external
     137                      .global _cached_phySector1
     138 000506               .bss    _cached_phySector1,2,0,2
     139              $C$DW$16        .dwtag  DW_TAG_variable, DW_AT_name("cached_phySector1")
     140                      .dwattr $C$DW$16, DW_AT_TI_symbol_name("_cached_phySector1")
     141                      .dwattr $C$DW$16, DW_AT_location[DW_OP_addr _cached_phySector1]
     142                      .dwattr $C$DW$16, DW_AT_type(*$C$DW$T$105)
     143                      .dwattr $C$DW$16, DW_AT_external
     144                      .global _cached_phySector2
     145 000508               .bss    _cached_phySector2,2,0,2
     146              $C$DW$17        .dwtag  DW_TAG_variable, DW_AT_name("cached_phySector2")
     147                      .dwattr $C$DW$17, DW_AT_TI_symbol_name("_cached_phySector2")
     148                      .dwattr $C$DW$17, DW_AT_location[DW_OP_addr _cached_phySector2]
     149                      .dwattr $C$DW$17, DW_AT_type(*$C$DW$T$105)
     150                      .dwattr $C$DW$17, DW_AT_external
     151                      .global _cached_phySector3
     152 00050a               .bss    _cached_phySector3,2,0,2
     153              $C$DW$18        .dwtag  DW_TAG_variable, DW_AT_name("cached_phySector3")
     154                      .dwattr $C$DW$18, DW_AT_TI_symbol_name("_cached_phySector3")
     155                      .dwattr $C$DW$18, DW_AT_location[DW_OP_addr _cached_phySector3]
     156                      .dwattr $C$DW$18, DW_AT_type(*$C$DW$T$105)
     157                      .dwattr $C$DW$18, DW_AT_external
     158                      .global _nbuf_cached
TMS320C55x Assembler PC v4.4.1 Fri Sep 14 23:31:58 2018

Tools Copyright (c) 1996-2012 Texas Instruments Incorporated
csl_mmcsd_ataIf.asm                                                  PAGE    4

     159 000101               .bss    _nbuf_cached,1,0,0
     160              $C$DW$19        .dwtag  DW_TAG_variable, DW_AT_name("nbuf_cached")
     161                      .dwattr $C$DW$19, DW_AT_TI_symbol_name("_nbuf_cached")
     162                      .dwattr $C$DW$19, DW_AT_location[DW_OP_addr _nbuf_cached]
     163                      .dwattr $C$DW$19, DW_AT_type(*$C$DW$T$101)
     164                      .dwattr $C$DW$19, DW_AT_external
     165                      .global _ATA_No_Swap
     166 00050c               .bss    _ATA_No_Swap,1,0,0
     167              $C$DW$20        .dwtag  DW_TAG_variable, DW_AT_name("ATA_No_Swap")
     168                      .dwattr $C$DW$20, DW_AT_TI_symbol_name("_ATA_No_Swap")
     169                      .dwattr $C$DW$20, DW_AT_location[DW_OP_addr _ATA_No_Swap]
     170                      .dwattr $C$DW$20, DW_AT_type(*$C$DW$T$101)
     171                      .dwattr $C$DW$20, DW_AT_external
     172              ;       F:\ti\ccs8p1\ccsv8\tools\compiler\alt-install-ti-cgt-c55x_4.4.1\bin\acp55.exe -@f:\\AppData\\Local\\T
     173 000000               .sect   ".text"
     174                      .align 4
     175                      .global _MMC_initState
     176              
     177              $C$DW$21        .dwtag  DW_TAG_subprogram, DW_AT_name("MMC_initState")
     178                      .dwattr $C$DW$21, DW_AT_low_pc(_MMC_initState)
     179                      .dwattr $C$DW$21, DW_AT_high_pc(0x00)
     180                      .dwattr $C$DW$21, DW_AT_TI_symbol_name("_MMC_initState")
     181                      .dwattr $C$DW$21, DW_AT_external
     182                      .dwattr $C$DW$21, DW_AT_type(*$C$DW$T$107)
     183                      .dwattr $C$DW$21, DW_AT_TI_begin_file("../c5535_bsl_revc/ezdsp5535_v1/c55xx_csl/src/csl_mmcsd_ataIf.c
     184                      .dwattr $C$DW$21, DW_AT_TI_begin_line(0x69)
     185                      .dwattr $C$DW$21, DW_AT_TI_begin_column(0x0a)
     186                      .dwattr $C$DW$21, DW_AT_TI_max_frame_size(0x06)
     187                      .dwpsn  file "../c5535_bsl_revc/ezdsp5535_v1/c55xx_csl/src/csl_mmcsd_ataIf.c",line 106,column 1,is_st
     188              
     189                      .dwfde $C$DW$CIE, _MMC_initState
     190              $C$DW$22        .dwtag  DW_TAG_formal_parameter, DW_AT_name("pDrive")
     191                      .dwattr $C$DW$22, DW_AT_TI_symbol_name("_pDrive")
     192                      .dwattr $C$DW$22, DW_AT_type(*$C$DW$T$100)
     193                      .dwattr $C$DW$22, DW_AT_location[DW_OP_reg17]
     194              ;*******************************************************************************
     195              ;* FUNCTION NAME: MMC_initState                                                *
     196              ;*                                                                             *
     197              ;*   Function Uses Regs : AC0,AC0,T0,AR0,XAR0,AR2,XAR2,AR3,XAR3,SP,M40,SATA,   *
     198              ;*                        SATD,RDM,FRCT,SMUL                                   *
     199              ;*   Stack Frame        : Compact (No Frame Pointer, w/ debug)                 *
     200              ;*   Total Frame Size   : 6 words                                              *
     201              ;*                        (2 return address/alignment)                         *
     202              ;*                        (4 local values)                                     *
     203              ;*   Min System Stack   : 1 word                                               *
     204              ;*******************************************************************************
     205 000000       _MMC_initState:
     206                      .dwcfi  cfa_offset, 1
     207                      .dwcfi  save_reg_to_mem, 91, -1
     208 000000 4EFB          AADD #-5, SP
     209                      .dwcfi  cfa_offset, 6
     210              $C$DW$23        .dwtag  DW_TAG_variable, DW_AT_name("pDrive")
     211                      .dwattr $C$DW$23, DW_AT_TI_symbol_name("_pDrive")
     212                      .dwattr $C$DW$23, DW_AT_type(*$C$DW$T$100)
     213                      .dwattr $C$DW$23, DW_AT_location[DW_OP_bregx 0x24 0]
TMS320C55x Assembler PC v4.4.1 Fri Sep 14 23:31:58 2018

Tools Copyright (c) 1996-2012 Texas Instruments Incorporated
csl_mmcsd_ataIf.asm                                                  PAGE    5

     214              $C$DW$24        .dwtag  DW_TAG_variable, DW_AT_name("ataMMCState")
     215                      .dwattr $C$DW$24, DW_AT_TI_symbol_name("_ataMMCState")
     216                      .dwattr $C$DW$24, DW_AT_type(*$C$DW$T$137)
     217                      .dwattr $C$DW$24, DW_AT_location[DW_OP_bregx 0x24 2]
     218 000002 EB00          MOV XAR0, dbl(*SP(#0))
         000004 85   
     219                      .dwpsn  file "../c5535_bsl_revc/ezdsp5535_v1/c55xx_csl/src/csl_mmcsd_ataIf.c",line 109,column 5,is_st
     220 000005 ED00          MOV dbl(*SP(#0)), XAR3
         000007 BF   
     221 000008 90B0          MOV XAR3, AC0
     222 00000a 6480          BCC $C$L1,AC0 == #0 ; |109| 
     223                                                      ; branchcc occurs ; |109| 
     224 00000c ED6D          MOV dbl(*AR3(#24)), XAR3
         00000e BF00 
         000010 18   
     225 000011 90B0          MOV XAR3, AC0
     226 000013 6390          BCC $C$L2,AC0 != #0 ; |109| 
     227                                                      ; branchcc occurs ; |109| 
     228 000015       $C$L1:    
     229                      .dwpsn  file "../c5535_bsl_revc/ezdsp5535_v1/c55xx_csl/src/csl_mmcsd_ataIf.c",line 111,column 3,is_st
     230 000015 7603          MOV #768, T0 ; |111| 
         000017 0048 
     231 000019 0601          B $C$L3   ; |111| 
         00001b 23   
     232                                                      ; branch occurs ; |111| 
     233 00001c       $C$L2:    
     234                      .dwpsn  file "../c5535_bsl_revc/ezdsp5535_v1/c55xx_csl/src/csl_mmcsd_ataIf.c",line 114,column 2,is_st
     235 00001c ED00          MOV dbl(*SP(#0)), XAR3
         00001e BF   
     236 00001f ED6D          MOV dbl(*AR3(#24)), XAR3
         000021 BF00 
         000023 18   
     237 000024 EB04          MOV XAR3, dbl(*SP(#2))
         000026 B5   
     238                      .dwpsn  file "../c5535_bsl_revc/ezdsp5535_v1/c55xx_csl/src/csl_mmcsd_ataIf.c",line 116,column 5,is_st
     239 000027 ED00          MOV dbl(*SP(#0)), XAR2
         000029 AF   
     240 00002a EB75          MOV XAR2, dbl(*AR3(short(#2)))
         00002c A5   
     241                      .dwpsn  file "../c5535_bsl_revc/ezdsp5535_v1/c55xx_csl/src/csl_mmcsd_ataIf.c",line 118,column 5,is_st
     242 00002d ED00          MOV dbl(*SP(#0)), XAR3
         00002f BF   
     243 000030 7A00          MOV #(_MMC_reset >> 16) << #16, AC0 ; |118| 
         000032 000A%
     244 000034 7E00          OR #(_MMC_reset & 0xffff), AC0, AC0 ; |118| 
         000036 0000%
     245 000038 EB6D          MOV AC0, dbl(*AR3(#26)) ; |118| 
         00003a 0800 
         00003c 1A   
     246                      .dwpsn  file "../c5535_bsl_revc/ezdsp5535_v1/c55xx_csl/src/csl_mmcsd_ataIf.c",line 119,column 5,is_st
     247 00003d ED00          MOV dbl(*SP(#0)), XAR3
         00003f BF   
     248 000040 7A00          MOV #(_MMC_busyStatusCheck >> 16) << #16, AC0 ; |119| 
         000042 000A%
     249 000044 7E00          OR #(_MMC_busyStatusCheck & 0xffff), AC0, AC0 ; |119| 
TMS320C55x Assembler PC v4.4.1 Fri Sep 14 23:31:58 2018

Tools Copyright (c) 1996-2012 Texas Instruments Incorporated
csl_mmcsd_ataIf.asm                                                  PAGE    6

         000046 0000%
     250 000048 EB6D          MOV AC0, dbl(*AR3(#30)) ; |119| 
         00004a 0800 
         00004c 1E   
     251                      .dwpsn  file "../c5535_bsl_revc/ezdsp5535_v1/c55xx_csl/src/csl_mmcsd_ataIf.c",line 120,column 5,is_st
     252 00004d ED00          MOV dbl(*SP(#0)), XAR3
         00004f BF   
     253 000050 7A00          MOV #(_MMC_getSerialID >> 16) << #16, AC0 ; |120| 
         000052 000A%
     254 000054 7E00          OR #(_MMC_getSerialID & 0xffff), AC0, AC0 ; |120| 
         000056 0000%
     255 000058 EB6D          MOV AC0, dbl(*AR3(#32)) ; |120| 
         00005a 0800 
         00005c 20   
     256                      .dwpsn  file "../c5535_bsl_revc/ezdsp5535_v1/c55xx_csl/src/csl_mmcsd_ataIf.c",line 121,column 5,is_st
     257 00005d ED00          MOV dbl(*SP(#0)), XAR3
         00005f BF   
     258 000060 7A00          MOV #(_MMC_issueReadCommand >> 16) << #16, AC0 ; |121| 
         000062 000A%
     259 000064 7E00          OR #(_MMC_issueReadCommand & 0xffff), AC0, AC0 ; |121| 
         000066 0000%
     260 000068 EB6D          MOV AC0, dbl(*AR3(#34)) ; |121| 
         00006a 0800 
         00006c 22   
     261                      .dwpsn  file "../c5535_bsl_revc/ezdsp5535_v1/c55xx_csl/src/csl_mmcsd_ataIf.c",line 122,column 5,is_st
     262 00006d ED00          MOV dbl(*SP(#0)), XAR3
         00006f BF   
     263 000070 7A00          MOV #(_MMC_commandReadyStatusCheck >> 16) << #16, AC0 ; |122| 
         000072 000A%
     264 000074 7E00          OR #(_MMC_commandReadyStatusCheck & 0xffff), AC0, AC0 ; |122| 
         000076 0000%
     265 000078 EB6D          MOV AC0, dbl(*AR3(#28)) ; |122| 
         00007a 0800 
         00007c 1C   
     266                      .dwpsn  file "../c5535_bsl_revc/ezdsp5535_v1/c55xx_csl/src/csl_mmcsd_ataIf.c",line 123,column 5,is_st
     267 00007d ED00          MOV dbl(*SP(#0)), XAR3
         00007f BF   
     268 000080 7A00          MOV #(_MMC_dataReadyStatusCheck >> 16) << #16, AC0 ; |123| 
         000082 000A%
     269 000084 7E00          OR #(_MMC_dataReadyStatusCheck & 0xffff), AC0, AC0 ; |123| 
         000086 0000%
     270 000088 EB6D          MOV AC0, dbl(*AR3(#36)) ; |123| 
         00008a 0800 
         00008c 24   
     271                      .dwpsn  file "../c5535_bsl_revc/ezdsp5535_v1/c55xx_csl/src/csl_mmcsd_ataIf.c",line 124,column 5,is_st
     272 00008d ED00          MOV dbl(*SP(#0)), XAR3
         00008f BF   
     273 000090 7A00          MOV #(_MMC_readNextWord >> 16) << #16, AC0 ; |124| 
         000092 000A%
     274 000094 7E00          OR #(_MMC_readNextWord & 0xffff), AC0, AC0 ; |124| 
         000096 0000%
     275 000098 EB6D          MOV AC0, dbl(*AR3(#38)) ; |124| 
         00009a 0800 
         00009c 26   
     276                      .dwpsn  file "../c5535_bsl_revc/ezdsp5535_v1/c55xx_csl/src/csl_mmcsd_ataIf.c",line 125,column 5,is_st
TMS320C55x Assembler PC v4.4.1 Fri Sep 14 23:31:58 2018

Tools Copyright (c) 1996-2012 Texas Instruments Incorporated
csl_mmcsd_ataIf.asm                                                  PAGE    7

     277 00009d ED00          MOV dbl(*SP(#0)), XAR3
         00009f BF   
     278 0000a0 7A00          MOV #(_MMC_readNextWord1 >> 16) << #16, AC0 ; |125| 
         0000a2 000A%
     279 0000a4 7E00          OR #(_MMC_readNextWord1 & 0xffff), AC0, AC0 ; |125| 
         0000a6 0000%
     280 0000a8 EB6D          MOV AC0, dbl(*AR3(#40)) ; |125| 
         0000aa 0800 
         0000ac 28   
     281                      .dwpsn  file "../c5535_bsl_revc/ezdsp5535_v1/c55xx_csl/src/csl_mmcsd_ataIf.c",line 126,column 5,is_st
     282 0000ad ED00          MOV dbl(*SP(#0)), XAR3
         0000af BF   
     283 0000b0 7A00          MOV #(_MMC_readNextNWords >> 16) << #16, AC0 ; |126| 
         0000b2 000A%
     284 0000b4 7E00          OR #(_MMC_readNextNWords & 0xffff), AC0, AC0 ; |126| 
         0000b6 0000%
     285 0000b8 EB6D          MOV AC0, dbl(*AR3(#42)) ; |126| 
         0000ba 0800 
         0000bc 2A   
     286                      .dwpsn  file "../c5535_bsl_revc/ezdsp5535_v1/c55xx_csl/src/csl_mmcsd_ataIf.c",line 128,column 5,is_st
     287 0000bd ED00          MOV dbl(*SP(#0)), XAR3
         0000bf BF   
     288 0000c0 7A00          MOV #(_MMC_readWriteControl >> 16) << #16, AC0 ; |128| 
         0000c2 000A%
     289 0000c4 7E00          OR #(_MMC_readWriteControl & 0xffff), AC0, AC0 ; |128| 
         0000c6 0000%
     290 0000c8 EB6D          MOV AC0, dbl(*AR3(#44)) ; |128| 
         0000ca 0800 
         0000cc 2C   
     291                      .dwpsn  file "../c5535_bsl_revc/ezdsp5535_v1/c55xx_csl/src/csl_mmcsd_ataIf.c",line 129,column 5,is_st
     292 0000cd ED00          MOV dbl(*SP(#0)), XAR3
         0000cf BF   
     293 0000d0 7A00          MOV #(_MMC_writeSectorFlush >> 16) << #16, AC0 ; |129| 
         0000d2 000A%
     294 0000d4 7E00          OR #(_MMC_writeSectorFlush & 0xffff), AC0, AC0 ; |129| 
         0000d6 0000%
     295 0000d8 EB6D          MOV AC0, dbl(*AR3(#46)) ; |129| 
         0000da 0800 
         0000dc 2E   
     296                      .dwpsn  file "../c5535_bsl_revc/ezdsp5535_v1/c55xx_csl/src/csl_mmcsd_ataIf.c",line 130,column 5,is_st
     297 0000dd ED00          MOV dbl(*SP(#0)), XAR3
         0000df BF   
     298 0000e0 7A00          MOV #(_MMC_file_system_format >> 16) << #16, AC0 ; |130| 
         0000e2 000A%
     299 0000e4 7E00          OR #(_MMC_file_system_format & 0xffff), AC0, AC0 ; |130| 
         0000e6 0000%
     300 0000e8 EB6D          MOV AC0, dbl(*AR3(#54)) ; |130| 
         0000ea 0800 
         0000ec 36   
     301                      .dwpsn  file "../c5535_bsl_revc/ezdsp5535_v1/c55xx_csl/src/csl_mmcsd_ataIf.c",line 131,column 5,is_st
     302 0000ed ED00          MOV dbl(*SP(#0)), XAR3
         0000ef BF   
     303 0000f0 7A00          MOV #(_MMC_flushFat >> 16) << #16, AC0 ; |131| 
         0000f2 000A%
     304 0000f4 7E00          OR #(_MMC_flushFat & 0xffff), AC0, AC0 ; |131| 
TMS320C55x Assembler PC v4.4.1 Fri Sep 14 23:31:58 2018

Tools Copyright (c) 1996-2012 Texas Instruments Incorporated
csl_mmcsd_ataIf.asm                                                  PAGE    8

         0000f6 0000%
     305 0000f8 EB6D          MOV AC0, dbl(*AR3(#50)) ; |131| 
         0000fa 0800 
         0000fc 32   
     306                      .dwpsn  file "../c5535_bsl_revc/ezdsp5535_v1/c55xx_csl/src/csl_mmcsd_ataIf.c",line 132,column 5,is_st
     307 0000fd ED00          MOV dbl(*SP(#0)), XAR3
         0000ff BF   
     308 000100 7A00          MOV #(_MMC_get_date >> 16) << #16, AC0 ; |132| 
         000102 000A%
     309 000104 7E00          OR #(_MMC_get_date & 0xffff), AC0, AC0 ; |132| 
         000106 0000%
     310 000108 EB6D          MOV AC0, dbl(*AR3(#62)) ; |132| 
         00010a 0800 
         00010c 3E   
     311                      .dwpsn  file "../c5535_bsl_revc/ezdsp5535_v1/c55xx_csl/src/csl_mmcsd_ataIf.c",line 133,column 5,is_st
     312 00010d ED00          MOV dbl(*SP(#0)), XAR3
         00010f BF   
     313 000110 7A00          MOV #(_MMC_get_time >> 16) << #16, AC0 ; |133| 
         000112 000A%
     314 000114 7E00          OR #(_MMC_get_time & 0xffff), AC0, AC0 ; |133| 
         000116 0000%
     315 000118 EB6D          MOV AC0, dbl(*AR3(#60)) ; |133| 
         00011a 0800 
         00011c 3C   
     316                      .dwpsn  file "../c5535_bsl_revc/ezdsp5535_v1/c55xx_csl/src/csl_mmcsd_ataIf.c",line 134,column 5,is_st
     317 00011d ED00          MOV dbl(*SP(#0)), XAR3
         00011f BF   
     318 000120 7A00          MOV #(_MMC_get_mod_date >> 16) << #16, AC0 ; |134| 
         000122 000A%
     319 000124 7E00          OR #(_MMC_get_mod_date & 0xffff), AC0, AC0 ; |134| 
         000126 0000%
     320 000128 EB6D          MOV AC0, dbl(*AR3(#58)) ; |134| 
         00012a 0800 
         00012c 3A   
     321                      .dwpsn  file "../c5535_bsl_revc/ezdsp5535_v1/c55xx_csl/src/csl_mmcsd_ataIf.c",line 135,column 5,is_st
     322 00012d ED00          MOV dbl(*SP(#0)), XAR3
         00012f BF   
     323 000130 7A00          MOV #(_MMC_get_mod_time >> 16) << #16, AC0 ; |135| 
         000132 000A%
     324 000134 7E00          OR #(_MMC_get_mod_time & 0xffff), AC0, AC0 ; |135| 
         000136 0000%
     325 000138 EB6D          MOV AC0, dbl(*AR3(#56)) ; |135| 
         00013a 0800 
         00013c 38   
     326                      .dwpsn  file "../c5535_bsl_revc/ezdsp5535_v1/c55xx_csl/src/csl_mmcsd_ataIf.c",line 137,column 5,is_st
     327 00013d 3C04          MOV #0, T0
     328 00013f       $C$L3:    
     329                      .dwpsn  file "../c5535_bsl_revc/ezdsp5535_v1/c55xx_csl/src/csl_mmcsd_ataIf.c",line 138,column 1,is_st
     330 00013f 4E05          AADD #5, SP
     331                      .dwcfi  cfa_offset, 1
     332              $C$DW$25        .dwtag  DW_TAG_TI_branch
     333                      .dwattr $C$DW$25, DW_AT_low_pc(0x00)
     334                      .dwattr $C$DW$25, DW_AT_TI_return
     335 000141 4804          RET
     336                                                      ; return occurs
TMS320C55x Assembler PC v4.4.1 Fri Sep 14 23:31:58 2018

Tools Copyright (c) 1996-2012 Texas Instruments Incorporated
csl_mmcsd_ataIf.asm                                                  PAGE    9

     337                      .dwattr $C$DW$21, DW_AT_TI_end_file("../c5535_bsl_revc/ezdsp5535_v1/c55xx_csl/src/csl_mmcsd_ataIf.c")
     338                      .dwattr $C$DW$21, DW_AT_TI_end_line(0x8a)
     339                      .dwattr $C$DW$21, DW_AT_TI_end_column(0x01)
     340                      .dwendentry
     341                      .dwendtag $C$DW$21
     342              
     343 000143               .sect   ".text"
     344                      .align 4
     345                      .global _MMC_readWriteControl
     346              
     347              $C$DW$26        .dwtag  DW_TAG_subprogram, DW_AT_name("MMC_readWriteControl")
     348                      .dwattr $C$DW$26, DW_AT_low_pc(_MMC_readWriteControl)
     349                      .dwattr $C$DW$26, DW_AT_high_pc(0x00)
     350                      .dwattr $C$DW$26, DW_AT_TI_symbol_name("_MMC_readWriteControl")
     351                      .dwattr $C$DW$26, DW_AT_external
     352                      .dwattr $C$DW$26, DW_AT_type(*$C$DW$T$107)
     353                      .dwattr $C$DW$26, DW_AT_TI_begin_file("../c5535_bsl_revc/ezdsp5535_v1/c55xx_csl/src/csl_mmcsd_ataIf.c
     354                      .dwattr $C$DW$26, DW_AT_TI_begin_line(0xc3)
     355                      .dwattr $C$DW$26, DW_AT_TI_begin_column(0x0a)
     356                      .dwattr $C$DW$26, DW_AT_TI_max_frame_size(0x0a)
     357                      .dwpsn  file "../c5535_bsl_revc/ezdsp5535_v1/c55xx_csl/src/csl_mmcsd_ataIf.c",line 199,column 1,is_st
     358              
     359                      .dwfde $C$DW$CIE, _MMC_readWriteControl
     360              $C$DW$27        .dwtag  DW_TAG_formal_parameter, DW_AT_name("phySector")
     361                      .dwattr $C$DW$27, DW_AT_TI_symbol_name("_phySector")
     362                      .dwattr $C$DW$27, DW_AT_type(*$C$DW$T$105)
     363                      .dwattr $C$DW$27, DW_AT_location[DW_OP_reg0]
     364              $C$DW$28        .dwtag  DW_TAG_formal_parameter, DW_AT_name("pAtaMediaState")
     365                      .dwattr $C$DW$28, DW_AT_TI_symbol_name("_pAtaMediaState")
     366                      .dwattr $C$DW$28, DW_AT_type(*$C$DW$T$3)
     367                      .dwattr $C$DW$28, DW_AT_location[DW_OP_reg17]
     368              $C$DW$29        .dwtag  DW_TAG_formal_parameter, DW_AT_name("pWord")
     369                      .dwattr $C$DW$29, DW_AT_TI_symbol_name("_pWord")
     370                      .dwattr $C$DW$29, DW_AT_type(*$C$DW$T$102)
     371                      .dwattr $C$DW$29, DW_AT_location[DW_OP_reg19]
     372              $C$DW$30        .dwtag  DW_TAG_formal_parameter, DW_AT_name("last_sector")
     373                      .dwattr $C$DW$30, DW_AT_TI_symbol_name("_last_sector")
     374                      .dwattr $C$DW$30, DW_AT_type(*$C$DW$T$10)
     375                      .dwattr $C$DW$30, DW_AT_location[DW_OP_reg12]
     376              ;*******************************************************************************
     377              ;* FUNCTION NAME: MMC_readWriteControl                                         *
     378              ;*                                                                             *
     379              ;*   Function Uses Regs : AC0,AC0,AC1,AC1,T0,AR0,XAR0,AR1,XAR1,AR2,XAR2,AR3,   *
     380              ;*                        XAR3,SP,CARRY,TC1,M40,SATA,SATD,RDM,FRCT,SMUL        *
     381              ;*   Stack Frame        : Compact (No Frame Pointer, w/ debug)                 *
     382              ;*   Total Frame Size   : 10 words                                             *
     383              ;*                        (1 return address/alignment)                         *
     384              ;*                        (9 local values)                                     *
     385              ;*   Min System Stack   : 1 word                                               *
     386              ;*******************************************************************************
     387 000144       _MMC_readWriteControl:
     388                      .dwcfi  cfa_offset, 1
     389                      .dwcfi  save_reg_to_mem, 91, -1
     390 000144 4EF7          AADD #-9, SP
     391                      .dwcfi  cfa_offset, 10
TMS320C55x Assembler PC v4.4.1 Fri Sep 14 23:31:58 2018

Tools Copyright (c) 1996-2012 Texas Instruments Incorporated
csl_mmcsd_ataIf.asm                                                  PAGE   10

     392              $C$DW$31        .dwtag  DW_TAG_variable, DW_AT_name("phySector")
     393                      .dwattr $C$DW$31, DW_AT_TI_symbol_name("_phySector")
     394                      .dwattr $C$DW$31, DW_AT_type(*$C$DW$T$105)
     395                      .dwattr $C$DW$31, DW_AT_location[DW_OP_bregx 0x24 0]
     396              $C$DW$32        .dwtag  DW_TAG_variable, DW_AT_name("pAtaMediaState")
     397                      .dwattr $C$DW$32, DW_AT_TI_symbol_name("_pAtaMediaState")
     398                      .dwattr $C$DW$32, DW_AT_type(*$C$DW$T$3)
     399                      .dwattr $C$DW$32, DW_AT_location[DW_OP_bregx 0x24 2]
     400              $C$DW$33        .dwtag  DW_TAG_variable, DW_AT_name("pWord")
     401                      .dwattr $C$DW$33, DW_AT_TI_symbol_name("_pWord")
     402                      .dwattr $C$DW$33, DW_AT_type(*$C$DW$T$102)
     403                      .dwattr $C$DW$33, DW_AT_location[DW_OP_bregx 0x24 4]
     404              $C$DW$34        .dwtag  DW_TAG_variable, DW_AT_name("last_sector")
     405                      .dwattr $C$DW$34, DW_AT_TI_symbol_name("_last_sector")
     406                      .dwattr $C$DW$34, DW_AT_type(*$C$DW$T$10)
     407                      .dwattr $C$DW$34, DW_AT_location[DW_OP_bregx 0x24 6]
     408              $C$DW$35        .dwtag  DW_TAG_variable, DW_AT_name("ataResult")
     409                      .dwattr $C$DW$35, DW_AT_TI_symbol_name("_ataResult")
     410                      .dwattr $C$DW$35, DW_AT_type(*$C$DW$T$107)
     411                      .dwattr $C$DW$35, DW_AT_location[DW_OP_bregx 0x24 7]
     412              $C$DW$36        .dwtag  DW_TAG_variable, DW_AT_name("idx")
     413                      .dwattr $C$DW$36, DW_AT_TI_symbol_name("_idx")
     414                      .dwattr $C$DW$36, DW_AT_type(*$C$DW$T$101)
     415                      .dwattr $C$DW$36, DW_AT_location[DW_OP_bregx 0x24 8]
     416 000146 C40C          MOV T0, *SP(#6) ; |199| 
     417 000148 EB08          MOV XAR1, dbl(*SP(#4))
         00014a 95   
     418 00014b EB04          MOV XAR0, dbl(*SP(#2))
         00014d 85   
     419 00014e EB00          MOV AC0, dbl(*SP(#0)) ; |199| 
         000150 08   
     420                      .dwpsn  file "../c5535_bsl_revc/ezdsp5535_v1/c55xx_csl/src/csl_mmcsd_ataIf.c",line 203,column 3,is_st
     421 000151 E60E          MOV #0, *SP(#7) ; |203| 
         000153 00   
     422                      .dwpsn  file "../c5535_bsl_revc/ezdsp5535_v1/c55xx_csl/src/csl_mmcsd_ataIf.c",line 206,column 3,is_st
     423 000154 A931          MOV *(#_ATA_No_Swap), AR1 ; |206| 
         000156 0005 
         000158 0C-  
     424 000159 6D09          BCC $C$L22,AR1 == #0 ; |206| 
         00015b 02AB 
     425                                                      ; branchcc occurs ; |206| 
     426                      .dwpsn  file "../c5535_bsl_revc/ezdsp5535_v1/c55xx_csl/src/csl_mmcsd_ataIf.c",line 208,column 5,is_st
     427 00015d A931          MOV *(#_nbuf_cached), AR1 ; |208| 
         00015f 0001 
         000161 01-  
     428 000162 0419          BCC $C$L7,AR1 != #0 ; |208| 
         000164 63   
     429                                                      ; branchcc occurs ; |208| 
     430                      .dwpsn  file "../c5535_bsl_revc/ezdsp5535_v1/c55xx_csl/src/csl_mmcsd_ataIf.c",line 210,column 4,is_st
     431 000165 A90C          MOV *SP(#6), AR1 ; |210| 
     432 000167 0409          BCC $C$L4,AR1 == #0 ; |210| 
         000169 19   
     433                                                      ; branchcc occurs ; |210| 
     434                      .dwpsn  file "../c5535_bsl_revc/ezdsp5535_v1/c55xx_csl/src/csl_mmcsd_ataIf.c",line 212,column 9,is_st
     435 00016a ED00          MOV dbl(*SP(#0)), AC0 ; |212| 
TMS320C55x Assembler PC v4.4.1 Fri Sep 14 23:31:58 2018

Tools Copyright (c) 1996-2012 Texas Instruments Incorporated
csl_mmcsd_ataIf.asm                                                  PAGE   11

         00016c 08   
     436 00016d ED04          MOV dbl(*SP(#2)), XAR0
         00016f 8F   
     437 000170 ED08          MOV dbl(*SP(#4)), XAR1
         000172 9F   
     438              $C$DW$37        .dwtag  DW_TAG_TI_branch
     439                      .dwattr $C$DW$37, DW_AT_low_pc(0x00)
     440                      .dwattr $C$DW$37, DW_AT_name("_MMC_writeSector")
     441                      .dwattr $C$DW$37, DW_AT_TI_call
     442              
     443 000173 0805          CALL #_MMC_writeSector ; |212| 
         000175 BC   
     444 000176 3D04  ||      MOV #0, T0
     445              
     446                                                      ; call occurs [#_MMC_writeSector] ; |212| 
     447 000178 C40E          MOV T0, *SP(#7) ; |212| 
     448                      .dwpsn  file "../c5535_bsl_revc/ezdsp5535_v1/c55xx_csl/src/csl_mmcsd_ataIf.c",line 213,column 3,is_st
     449 00017a 2249          MOV T0, AR1
     450 00017c 6D09          BCC $C$L23,AR1 == #0 ; |213| 
         00017e 029C 
     451                                                      ; branchcc occurs ; |213| 
     452                      .dwpsn  file "../c5535_bsl_revc/ezdsp5535_v1/c55xx_csl/src/csl_mmcsd_ataIf.c",line 215,column 11,is_s
     453 000180 0602          B $C$L24  ; |215| 
         000182 9B   
     454                                                      ; branch occurs ; |215| 
     455 000183       $C$L4:    
     456                      .dwpsn  file "../c5535_bsl_revc/ezdsp5535_v1/c55xx_csl/src/csl_mmcsd_ataIf.c",line 220,column 9,is_st
     457 000183 ED00          MOV dbl(*SP(#0)), AC0 ; |220| 
         000185 08   
     458 000186 EB31          MOV AC0, dbl(*(#_cached_phySector0)) ; |220| 
         000188 0800 
         00018a 0504-
     459                      .dwpsn  file "../c5535_bsl_revc/ezdsp5535_v1/c55xx_csl/src/csl_mmcsd_ataIf.c",line 221,column 14,is_s
     460 00018c E610          MOV #0, *SP(#8) ; |221| 
         00018e 00   
     461                      .dwpsn  file "../c5535_bsl_revc/ezdsp5535_v1/c55xx_csl/src/csl_mmcsd_ataIf.c",line 221,column 20,is_s
     462 00018f 7601          MOV #256, AR2 ; |221| 
         000191 00A8 
     463 000193 A910          MOV *SP(#8), AR1 ; |221| 
     464 000195 1298          CMPU AR1 >= AR2, TC1 ; |221| 
         000197 A4   
     465 000198 0464          BCC $C$L6,TC1 ; |221| 
         00019a 23   
     466                                                      ; branchcc occurs ; |221| 
     467 00019b       $C$L5:    
     468 00019b       $C$DW$L$_MMC_readWriteControl$8$B:
     469                      .dwpsn  file "../c5535_bsl_revc/ezdsp5535_v1/c55xx_csl/src/csl_mmcsd_ataIf.c",line 221,column 53,is_s
     470 00019b A410          MOV *SP(#8), T0 ; |221| 
     471 00019d 2249          MOV T0, AR1 ; |221| 
     472 00019f ED08          MOV dbl(*SP(#4)), XAR2
         0001a1 AF   
     473 0001a2 EC31          AMOV #_gWriteBuf, XAR3 ; |221| 
         0001a4 BE00 
         0001a6 0104-
     474 0001a8 1490          AADD AR1, AR3 ; |221| 
TMS320C55x Assembler PC v4.4.1 Fri Sep 14 23:31:58 2018

Tools Copyright (c) 1996-2012 Texas Instruments Incorporated
csl_mmcsd_ataIf.asm                                                  PAGE   12

         0001aa B0   
     475 0001ab 805D          MOV *AR2(T0), *AR3 ; |221| 
         0001ad 84   
     476                      .dwpsn  file "../c5535_bsl_revc/ezdsp5535_v1/c55xx_csl/src/csl_mmcsd_ataIf.c",line 221,column 46,is_s
     477 0001ae F710          ADD #1, *SP(#8) ; |221| 
         0001b0 0001 
     478                      .dwpsn  file "../c5535_bsl_revc/ezdsp5535_v1/c55xx_csl/src/csl_mmcsd_ataIf.c",line 221,column 20,is_s
     479 0001b2 7601          MOV #256, AR2 ; |221| 
         0001b4 00A8 
     480 0001b6 A910          MOV *SP(#8), AR1 ; |221| 
     481 0001b8 1294          CMPU AR1 < AR2, TC1 ; |221| 
         0001ba A4   
     482 0001bb 0464          BCC $C$L5,TC1 ; |221| 
         0001bd DD   
     483                                                      ; branchcc occurs ; |221| 
     484 0001be       $C$DW$L$_MMC_readWriteControl$8$E:
     485 0001be       $C$L6:    
     486                      .dwpsn  file "../c5535_bsl_revc/ezdsp5535_v1/c55xx_csl/src/csl_mmcsd_ataIf.c",line 222,column 6,is_st
     487 0001be F731          ADD #1, *(#_nbuf_cached) ; |222| 
         0001c0 0001 
         0001c2 0001 
         0001c4 01-  
     488                      .dwpsn  file "../c5535_bsl_revc/ezdsp5535_v1/c55xx_csl/src/csl_mmcsd_ataIf.c",line 224,column 5,is_st
     489 0001c5 0602          B $C$L23  ; |224| 
         0001c7 54   
     490                                                      ; branch occurs ; |224| 
     491 0001c8       $C$L7:    
     492                      .dwpsn  file "../c5535_bsl_revc/ezdsp5535_v1/c55xx_csl/src/csl_mmcsd_ataIf.c",line 227,column 7,is_st
     493 0001c8 F031          CMP *(#_nbuf_cached) == #1, TC1 ; |227| 
         0001ca 0001 
         0001cc 0001 
         0001ce 01-  
     494 0001cf 6D74          BCC $C$L12,!TC1 ; |227| 
         0001d1 00BD 
     495                                                      ; branchcc occurs ; |227| 
     496                      .dwpsn  file "../c5535_bsl_revc/ezdsp5535_v1/c55xx_csl/src/csl_mmcsd_ataIf.c",line 229,column 9,is_st
     497 0001d3 ED31          MOV dbl(*(#_cached_phySector0)), AC0 ; |229| 
         0001d5 0800 
         0001d7 0504-
     498              
     499 0001dc 4110          ADD #1, AC0 ; |229| 
     500 0001d9 ED00  ||      MOV dbl(*SP(#0)), AC1 ; |229| 
         0001db 18   
     501              
     502 0001de 1210          CMPU AC1 == AC0, TC1 ; |229| 
         0001e0 04   
     503 0001e1 0464          BCC $C$L8,TC1 ; |229| 
         0001e3 3B   
     504                                                      ; branchcc occurs ; |229| 
     505                      .dwpsn  file "../c5535_bsl_revc/ezdsp5535_v1/c55xx_csl/src/csl_mmcsd_ataIf.c",line 231,column 11,is_s
     506 0001e4 ED04          MOV dbl(*SP(#2)), XAR0
         0001e6 8F   
     507 0001e7 ED31          MOV dbl(*(#_cached_phySector0)), AC0 ; |231| 
         0001e9 0800 
         0001eb 0504-
TMS320C55x Assembler PC v4.4.1 Fri Sep 14 23:31:58 2018

Tools Copyright (c) 1996-2012 Texas Instruments Incorporated
csl_mmcsd_ataIf.asm                                                  PAGE   13

     508 0001ed EC31          AMOV #_gWriteBuf, XAR1 ; |231| 
         0001ef 9E00 
         0001f1 0104-
     509              $C$DW$38        .dwtag  DW_TAG_TI_branch
     510                      .dwattr $C$DW$38, DW_AT_low_pc(0x00)
     511                      .dwattr $C$DW$38, DW_AT_name("_MMC_writeSector")
     512                      .dwattr $C$DW$38, DW_AT_TI_call
     513              
     514 0001f3 0805          CALL #_MMC_writeSector ; |231| 
         0001f5 3C   
     515 0001f6 3D04  ||      MOV #0, T0
     516              
     517                                                      ; call occurs [#_MMC_writeSector] ; |231| 
     518 0001f8 C40E          MOV T0, *SP(#7) ; |231| 
     519                      .dwpsn  file "../c5535_bsl_revc/ezdsp5535_v1/c55xx_csl/src/csl_mmcsd_ataIf.c",line 232,column 5,is_st
     520 0001fa 2249          MOV T0, AR1
     521 0001fc 6D19          BCC $C$L24,AR1 != #0 ; |232| 
         0001fe 021E 
     522                                                      ; branchcc occurs ; |232| 
     523                      .dwpsn  file "../c5535_bsl_revc/ezdsp5535_v1/c55xx_csl/src/csl_mmcsd_ataIf.c",line 234,column 13,is_s
     524                      .dwpsn  file "../c5535_bsl_revc/ezdsp5535_v1/c55xx_csl/src/csl_mmcsd_ataIf.c",line 236,column 11,is_s
     525 000200 ED00          MOV dbl(*SP(#0)), AC0 ; |236| 
         000202 08   
     526 000203 ED04          MOV dbl(*SP(#2)), XAR0
         000205 8F   
     527 000206 ED08          MOV dbl(*SP(#4)), XAR1
         000208 9F   
     528              $C$DW$39        .dwtag  DW_TAG_TI_branch
     529                      .dwattr $C$DW$39, DW_AT_low_pc(0x00)
     530                      .dwattr $C$DW$39, DW_AT_name("_MMC_writeSector")
     531                      .dwattr $C$DW$39, DW_AT_TI_call
     532              
     533 000209 0805          CALL #_MMC_writeSector ; |236| 
         00020b 26   
     534 00020c 3D04  ||      MOV #0, T0
     535              
     536                                                      ; call occurs [#_MMC_writeSector] ; |236| 
     537 00020e C40E          MOV T0, *SP(#7) ; |236| 
     538                      .dwpsn  file "../c5535_bsl_revc/ezdsp5535_v1/c55xx_csl/src/csl_mmcsd_ataIf.c",line 237,column 5,is_st
     539 000210 2249          MOV T0, AR1
     540 000212 6D19          BCC $C$L24,AR1 != #0 ; |237| 
         000214 0208 
     541                                                      ; branchcc occurs ; |237| 
     542                      .dwpsn  file "../c5535_bsl_revc/ezdsp5535_v1/c55xx_csl/src/csl_mmcsd_ataIf.c",line 239,column 13,is_s
     543                      .dwpsn  file "../c5535_bsl_revc/ezdsp5535_v1/c55xx_csl/src/csl_mmcsd_ataIf.c",line 241,column 5,is_st
     544 000216 E631          MOV #0, *(#_nbuf_cached) ; |241| 
         000218 0000 
         00021a 0101-
     545                      .dwpsn  file "../c5535_bsl_revc/ezdsp5535_v1/c55xx_csl/src/csl_mmcsd_ataIf.c",line 242,column 6,is_st
     546 00021c 0601          B $C$L23  ; |242| 
         00021e FD   
     547                                                      ; branch occurs ; |242| 
     548 00021f       $C$L8:    
     549                      .dwpsn  file "../c5535_bsl_revc/ezdsp5535_v1/c55xx_csl/src/csl_mmcsd_ataIf.c",line 245,column 11,is_s
     550 00021f ED00          MOV dbl(*SP(#0)), AC0 ; |245| 
TMS320C55x Assembler PC v4.4.1 Fri Sep 14 23:31:58 2018

Tools Copyright (c) 1996-2012 Texas Instruments Incorporated
csl_mmcsd_ataIf.asm                                                  PAGE   14

         000221 08   
     551 000222 EB31          MOV AC0, dbl(*(#_cached_phySector1)) ; |245| 
         000224 0800 
         000226 0506-
     552                      .dwpsn  file "../c5535_bsl_revc/ezdsp5535_v1/c55xx_csl/src/csl_mmcsd_ataIf.c",line 246,column 16,is_s
     553 000228 E610          MOV #0, *SP(#8) ; |246| 
         00022a 00   
     554                      .dwpsn  file "../c5535_bsl_revc/ezdsp5535_v1/c55xx_csl/src/csl_mmcsd_ataIf.c",line 246,column 22,is_s
     555 00022b 7601          MOV #256, AR2 ; |246| 
         00022d 00A8 
     556 00022f A910          MOV *SP(#8), AR1 ; |246| 
     557 000231 1298          CMPU AR1 >= AR2, TC1 ; |246| 
         000233 A4   
     558 000234 0464          BCC $C$L10,TC1 ; |246| 
         000236 25   
     559                                                      ; branchcc occurs ; |246| 
     560 000237       $C$L9:    
     561 000237       $C$DW$L$_MMC_readWriteControl$16$B:
     562                      .dwpsn  file "../c5535_bsl_revc/ezdsp5535_v1/c55xx_csl/src/csl_mmcsd_ataIf.c",line 246,column 55,is_s
     563 000237 7B01          ADD #256, AR1, AR1 ; |246| 
         000239 0099 
     564 00023b ED08          MOV dbl(*SP(#4)), XAR2
         00023d AF   
     565 00023e A410          MOV *SP(#8), T0 ; |246| 
     566 000240 EC31          AMOV #_gWriteBuf, XAR3 ; |246| 
         000242 BE00 
         000244 0104-
     567 000246 1490          AADD AR1, AR3 ; |246| 
         000248 B0   
     568 000249 805D          MOV *AR2(T0), *AR3 ; |246| 
         00024b 84   
     569                      .dwpsn  file "../c5535_bsl_revc/ezdsp5535_v1/c55xx_csl/src/csl_mmcsd_ataIf.c",line 246,column 48,is_s
     570 00024c F710          ADD #1, *SP(#8) ; |246| 
         00024e 0001 
     571                      .dwpsn  file "../c5535_bsl_revc/ezdsp5535_v1/c55xx_csl/src/csl_mmcsd_ataIf.c",line 246,column 22,is_s
     572 000250 7601          MOV #256, AR2 ; |246| 
         000252 00A8 
     573 000254 A910          MOV *SP(#8), AR1 ; |246| 
     574 000256 1294          CMPU AR1 < AR2, TC1 ; |246| 
         000258 A4   
     575 000259 0464          BCC $C$L9,TC1 ; |246| 
         00025b DB   
     576                                                      ; branchcc occurs ; |246| 
     577 00025c       $C$DW$L$_MMC_readWriteControl$16$E:
     578 00025c       $C$L10:    
     579                      .dwpsn  file "../c5535_bsl_revc/ezdsp5535_v1/c55xx_csl/src/csl_mmcsd_ataIf.c",line 247,column 5,is_st
     580 00025c A90C          MOV *SP(#6), AR1 ; |247| 
     581 00025e 0409          BCC $C$L11,AR1 == #0 ; |247| 
         000260 25   
     582                                                      ; branchcc occurs ; |247| 
     583                      .dwpsn  file "../c5535_bsl_revc/ezdsp5535_v1/c55xx_csl/src/csl_mmcsd_ataIf.c",line 249,column 13,is_s
     584 000261 ED04          MOV dbl(*SP(#2)), XAR0
         000263 8F   
     585 000264 ED31          MOV dbl(*(#_cached_phySector0)), AC0 ; |249| 
         000266 0800 
TMS320C55x Assembler PC v4.4.1 Fri Sep 14 23:31:58 2018

Tools Copyright (c) 1996-2012 Texas Instruments Incorporated
csl_mmcsd_ataIf.asm                                                  PAGE   15

         000268 0504-
     586 00026a EC31          AMOV #_gWriteBuf, XAR1 ; |249| 
         00026c 9E00 
         00026e 0104-
     587              $C$DW$40        .dwtag  DW_TAG_TI_branch
     588                      .dwattr $C$DW$40, DW_AT_low_pc(0x00)
     589                      .dwattr $C$DW$40, DW_AT_name("_MMC_writeNSectors")
     590                      .dwattr $C$DW$40, DW_AT_TI_call
     591              
     592 000270 0806          CALL #_MMC_writeNSectors ; |249| 
         000272 7F   
     593 000273 3D24  ||      MOV #2, T0
     594              
     595                                                      ; call occurs [#_MMC_writeNSectors] ; |249| 
     596 000275 C40E          MOV T0, *SP(#7) ; |249| 
     597                      .dwpsn  file "../c5535_bsl_revc/ezdsp5535_v1/c55xx_csl/src/csl_mmcsd_ataIf.c",line 250,column 7,is_st
     598 000277 2249          MOV T0, AR1
     599 000279 6D19          BCC $C$L24,AR1 != #0 ; |250| 
         00027b 01A1 
     600                                                      ; branchcc occurs ; |250| 
     601                      .dwpsn  file "../c5535_bsl_revc/ezdsp5535_v1/c55xx_csl/src/csl_mmcsd_ataIf.c",line 252,column 15,is_s
     602                      .dwpsn  file "../c5535_bsl_revc/ezdsp5535_v1/c55xx_csl/src/csl_mmcsd_ataIf.c",line 254,column 4,is_st
     603 00027d E631          MOV #0, *(#_nbuf_cached) ; |254| 
         00027f 0000 
         000281 0101-
     604                      .dwpsn  file "../c5535_bsl_revc/ezdsp5535_v1/c55xx_csl/src/csl_mmcsd_ataIf.c",line 255,column 5,is_st
     605 000283 0601          B $C$L23  ; |255| 
         000285 96   
     606                                                      ; branch occurs ; |255| 
     607 000286       $C$L11:    
     608                      .dwpsn  file "../c5535_bsl_revc/ezdsp5535_v1/c55xx_csl/src/csl_mmcsd_ataIf.c",line 258,column 13,is_s
     609 000286 F731          ADD #1, *(#_nbuf_cached) ; |258| 
         000288 0001 
         00028a 0001 
         00028c 01-  
     610                      .dwpsn  file "../c5535_bsl_revc/ezdsp5535_v1/c55xx_csl/src/csl_mmcsd_ataIf.c",line 262,column 4,is_st
     611 00028d 0601          B $C$L23  ; |262| 
         00028f 8C   
     612                                                      ; branch occurs ; |262| 
     613 000290       $C$L12:    
     614                      .dwpsn  file "../c5535_bsl_revc/ezdsp5535_v1/c55xx_csl/src/csl_mmcsd_ataIf.c",line 265,column 6,is_st
     615 000290 F031          CMP *(#_nbuf_cached) == #2, TC1 ; |265| 
         000292 0002 
         000294 0001 
         000296 01-  
     616 000297 6D74          BCC $C$L17,!TC1 ; |265| 
         000299 00BD 
     617                                                      ; branchcc occurs ; |265| 
     618                      .dwpsn  file "../c5535_bsl_revc/ezdsp5535_v1/c55xx_csl/src/csl_mmcsd_ataIf.c",line 267,column 11,is_s
     619 00029b ED31          MOV dbl(*(#_cached_phySector1)), AC0 ; |267| 
         00029d 0800 
         00029f 0506-
     620              
     621 0002a4 4110          ADD #1, AC0 ; |267| 
     622 0002a1 ED00  ||      MOV dbl(*SP(#0)), AC1 ; |267| 
TMS320C55x Assembler PC v4.4.1 Fri Sep 14 23:31:58 2018

Tools Copyright (c) 1996-2012 Texas Instruments Incorporated
csl_mmcsd_ataIf.asm                                                  PAGE   16

         0002a3 18   
     623              
     624 0002a6 1210          CMPU AC1 == AC0, TC1 ; |267| 
         0002a8 04   
     625 0002a9 0464          BCC $C$L13,TC1 ; |267| 
         0002ab 3B   
     626                                                      ; branchcc occurs ; |267| 
     627                      .dwpsn  file "../c5535_bsl_revc/ezdsp5535_v1/c55xx_csl/src/csl_mmcsd_ataIf.c",line 269,column 13,is_s
     628 0002ac ED04          MOV dbl(*SP(#2)), XAR0
         0002ae 8F   
     629 0002af ED31          MOV dbl(*(#_cached_phySector0)), AC0 ; |269| 
         0002b1 0800 
         0002b3 0504-
     630 0002b5 EC31          AMOV #_gWriteBuf, XAR1 ; |269| 
         0002b7 9E00 
         0002b9 0104-
     631              $C$DW$41        .dwtag  DW_TAG_TI_branch
     632                      .dwattr $C$DW$41, DW_AT_low_pc(0x00)
     633                      .dwattr $C$DW$41, DW_AT_name("_MMC_writeNSectors")
     634                      .dwattr $C$DW$41, DW_AT_TI_call
     635              
     636 0002bb 0806          CALL #_MMC_writeNSectors ; |269| 
         0002bd 34   
     637 0002be 3D24  ||      MOV #2, T0
     638              
     639                                                      ; call occurs [#_MMC_writeNSectors] ; |269| 
     640 0002c0 C40E          MOV T0, *SP(#7) ; |269| 
     641                      .dwpsn  file "../c5535_bsl_revc/ezdsp5535_v1/c55xx_csl/src/csl_mmcsd_ataIf.c",line 270,column 7,is_st
     642 0002c2 2249          MOV T0, AR1
     643 0002c4 6D19          BCC $C$L24,AR1 != #0 ; |270| 
         0002c6 0156 
     644                                                      ; branchcc occurs ; |270| 
     645                      .dwpsn  file "../c5535_bsl_revc/ezdsp5535_v1/c55xx_csl/src/csl_mmcsd_ataIf.c",line 272,column 15,is_s
     646                      .dwpsn  file "../c5535_bsl_revc/ezdsp5535_v1/c55xx_csl/src/csl_mmcsd_ataIf.c",line 274,column 13,is_s
     647 0002c8 ED00          MOV dbl(*SP(#0)), AC0 ; |274| 
         0002ca 08   
     648 0002cb ED04          MOV dbl(*SP(#2)), XAR0
         0002cd 8F   
     649 0002ce ED08          MOV dbl(*SP(#4)), XAR1
         0002d0 9F   
     650              $C$DW$42        .dwtag  DW_TAG_TI_branch
     651                      .dwattr $C$DW$42, DW_AT_low_pc(0x00)
     652                      .dwattr $C$DW$42, DW_AT_name("_MMC_writeSector")
     653                      .dwattr $C$DW$42, DW_AT_TI_call
     654              
     655 0002d1 0804          CALL #_MMC_writeSector ; |274| 
         0002d3 5E   
     656 0002d4 3D04  ||      MOV #0, T0
     657              
     658                                                      ; call occurs [#_MMC_writeSector] ; |274| 
     659 0002d6 C40E          MOV T0, *SP(#7) ; |274| 
     660                      .dwpsn  file "../c5535_bsl_revc/ezdsp5535_v1/c55xx_csl/src/csl_mmcsd_ataIf.c",line 275,column 7,is_st
     661 0002d8 2249          MOV T0, AR1
     662 0002da 6D19          BCC $C$L24,AR1 != #0 ; |275| 
         0002dc 0140 
TMS320C55x Assembler PC v4.4.1 Fri Sep 14 23:31:58 2018

Tools Copyright (c) 1996-2012 Texas Instruments Incorporated
csl_mmcsd_ataIf.asm                                                  PAGE   17

     663                                                      ; branchcc occurs ; |275| 
     664                      .dwpsn  file "../c5535_bsl_revc/ezdsp5535_v1/c55xx_csl/src/csl_mmcsd_ataIf.c",line 277,column 15,is_s
     665                      .dwpsn  file "../c5535_bsl_revc/ezdsp5535_v1/c55xx_csl/src/csl_mmcsd_ataIf.c",line 279,column 4,is_st
     666 0002de E631          MOV #0, *(#_nbuf_cached) ; |279| 
         0002e0 0000 
         0002e2 0101-
     667                      .dwpsn  file "../c5535_bsl_revc/ezdsp5535_v1/c55xx_csl/src/csl_mmcsd_ataIf.c",line 280,column 5,is_st
     668 0002e4 0601          B $C$L23  ; |280| 
         0002e6 35   
     669                                                      ; branch occurs ; |280| 
     670 0002e7       $C$L13:    
     671                      .dwpsn  file "../c5535_bsl_revc/ezdsp5535_v1/c55xx_csl/src/csl_mmcsd_ataIf.c",line 283,column 13,is_s
     672 0002e7 ED00          MOV dbl(*SP(#0)), AC0 ; |283| 
         0002e9 08   
     673 0002ea EB31          MOV AC0, dbl(*(#_cached_phySector2)) ; |283| 
         0002ec 0800 
         0002ee 0508-
     674                      .dwpsn  file "../c5535_bsl_revc/ezdsp5535_v1/c55xx_csl/src/csl_mmcsd_ataIf.c",line 284,column 18,is_s
     675 0002f0 E610          MOV #0, *SP(#8) ; |284| 
         0002f2 00   
     676                      .dwpsn  file "../c5535_bsl_revc/ezdsp5535_v1/c55xx_csl/src/csl_mmcsd_ataIf.c",line 284,column 24,is_s
     677 0002f3 7601          MOV #256, AR2 ; |284| 
         0002f5 00A8 
     678 0002f7 A910          MOV *SP(#8), AR1 ; |284| 
     679 0002f9 1298          CMPU AR1 >= AR2, TC1 ; |284| 
         0002fb A4   
     680 0002fc 0464          BCC $C$L15,TC1 ; |284| 
         0002fe 25   
     681                                                      ; branchcc occurs ; |284| 
     682 0002ff       $C$L14:    
     683 0002ff       $C$DW$L$_MMC_readWriteControl$27$B:
     684                      .dwpsn  file "../c5535_bsl_revc/ezdsp5535_v1/c55xx_csl/src/csl_mmcsd_ataIf.c",line 284,column 57,is_s
     685 0002ff 7B02          ADD #512, AR1, AR1 ; |284| 
         000301 0099 
     686 000303 ED08          MOV dbl(*SP(#4)), XAR2
         000305 AF   
     687 000306 A410          MOV *SP(#8), T0 ; |284| 
     688 000308 EC31          AMOV #_gWriteBuf, XAR3 ; |284| 
         00030a BE00 
         00030c 0104-
     689 00030e 1490          AADD AR1, AR3 ; |284| 
         000310 B0   
     690 000311 805D          MOV *AR2(T0), *AR3 ; |284| 
         000313 84   
     691                      .dwpsn  file "../c5535_bsl_revc/ezdsp5535_v1/c55xx_csl/src/csl_mmcsd_ataIf.c",line 284,column 50,is_s
     692 000314 F710          ADD #1, *SP(#8) ; |284| 
         000316 0001 
     693                      .dwpsn  file "../c5535_bsl_revc/ezdsp5535_v1/c55xx_csl/src/csl_mmcsd_ataIf.c",line 284,column 24,is_s
     694 000318 7601          MOV #256, AR2 ; |284| 
         00031a 00A8 
     695 00031c A910          MOV *SP(#8), AR1 ; |284| 
     696 00031e 1294          CMPU AR1 < AR2, TC1 ; |284| 
         000320 A4   
     697 000321 0464          BCC $C$L14,TC1 ; |284| 
         000323 DB   
TMS320C55x Assembler PC v4.4.1 Fri Sep 14 23:31:58 2018

Tools Copyright (c) 1996-2012 Texas Instruments Incorporated
csl_mmcsd_ataIf.asm                                                  PAGE   18

     698                                                      ; branchcc occurs ; |284| 
     699 000324       $C$DW$L$_MMC_readWriteControl$27$E:
     700 000324       $C$L15:    
     701                      .dwpsn  file "../c5535_bsl_revc/ezdsp5535_v1/c55xx_csl/src/csl_mmcsd_ataIf.c",line 285,column 4,is_st
     702 000324 A90C          MOV *SP(#6), AR1 ; |285| 
     703 000326 0409          BCC $C$L16,AR1 == #0 ; |285| 
         000328 25   
     704                                                      ; branchcc occurs ; |285| 
     705                      .dwpsn  file "../c5535_bsl_revc/ezdsp5535_v1/c55xx_csl/src/csl_mmcsd_ataIf.c",line 287,column 15,is_s
     706 000329 ED04          MOV dbl(*SP(#2)), XAR0
         00032b 8F   
     707 00032c ED31          MOV dbl(*(#_cached_phySector0)), AC0 ; |287| 
         00032e 0800 
         000330 0504-
     708 000332 EC31          AMOV #_gWriteBuf, XAR1 ; |287| 
         000334 9E00 
         000336 0104-
     709              $C$DW$43        .dwtag  DW_TAG_TI_branch
     710                      .dwattr $C$DW$43, DW_AT_low_pc(0x00)
     711                      .dwattr $C$DW$43, DW_AT_name("_MMC_writeNSectors")
     712                      .dwattr $C$DW$43, DW_AT_TI_call
     713              
     714 000338 0805          CALL #_MMC_writeNSectors ; |287| 
         00033a B7   
     715 00033b 3D34  ||      MOV #3, T0
     716              
     717                                                      ; call occurs [#_MMC_writeNSectors] ; |287| 
     718 00033d C40E          MOV T0, *SP(#7) ; |287| 
     719                      .dwpsn  file "../c5535_bsl_revc/ezdsp5535_v1/c55xx_csl/src/csl_mmcsd_ataIf.c",line 288,column 9,is_st
     720 00033f 2249          MOV T0, AR1
     721 000341 6D19          BCC $C$L24,AR1 != #0 ; |288| 
         000343 00D9 
     722                                                      ; branchcc occurs ; |288| 
     723                      .dwpsn  file "../c5535_bsl_revc/ezdsp5535_v1/c55xx_csl/src/csl_mmcsd_ataIf.c",line 290,column 17,is_s
     724                      .dwpsn  file "../c5535_bsl_revc/ezdsp5535_v1/c55xx_csl/src/csl_mmcsd_ataIf.c",line 292,column 6,is_st
     725 000345 E631          MOV #0, *(#_nbuf_cached) ; |292| 
         000347 0000 
         000349 0101-
     726                      .dwpsn  file "../c5535_bsl_revc/ezdsp5535_v1/c55xx_csl/src/csl_mmcsd_ataIf.c",line 293,column 4,is_st
     727 00034b 0600          B $C$L23  ; |293| 
         00034d CE   
     728                                                      ; branch occurs ; |293| 
     729 00034e       $C$L16:    
     730                      .dwpsn  file "../c5535_bsl_revc/ezdsp5535_v1/c55xx_csl/src/csl_mmcsd_ataIf.c",line 296,column 6,is_st
     731 00034e F731          ADD #1, *(#_nbuf_cached) ; |296| 
         000350 0001 
         000352 0001 
         000354 01-  
     732                      .dwpsn  file "../c5535_bsl_revc/ezdsp5535_v1/c55xx_csl/src/csl_mmcsd_ataIf.c",line 300,column 3,is_st
     733 000355 0600          B $C$L23  ; |300| 
         000357 C4   
     734                                                      ; branch occurs ; |300| 
     735 000358       $C$L17:    
     736                      .dwpsn  file "../c5535_bsl_revc/ezdsp5535_v1/c55xx_csl/src/csl_mmcsd_ataIf.c",line 303,column 11,is_s
     737 000358 F031          CMP *(#_nbuf_cached) == #3, TC1 ; |303| 
TMS320C55x Assembler PC v4.4.1 Fri Sep 14 23:31:58 2018

Tools Copyright (c) 1996-2012 Texas Instruments Incorporated
csl_mmcsd_ataIf.asm                                                  PAGE   19

         00035a 0003 
         00035c 0001 
         00035e 01-  
     738 00035f 6D74          BCC $C$L23,!TC1 ; |303| 
         000361 00B9 
     739                                                      ; branchcc occurs ; |303| 
     740                      .dwpsn  file "../c5535_bsl_revc/ezdsp5535_v1/c55xx_csl/src/csl_mmcsd_ataIf.c",line 305,column 13,is_s
     741 000363 ED31          MOV dbl(*(#_cached_phySector2)), AC0 ; |305| 
         000365 0800 
         000367 0508-
     742              
     743 00036c 4110          ADD #1, AC0 ; |305| 
     744 000369 ED00  ||      MOV dbl(*SP(#0)), AC1 ; |305| 
         00036b 18   
     745              
     746 00036e 1210          CMPU AC1 == AC0, TC1 ; |305| 
         000370 04   
     747 000371 0464          BCC $C$L18,TC1 ; |305| 
         000373 34   
     748                                                      ; branchcc occurs ; |305| 
     749                      .dwpsn  file "../c5535_bsl_revc/ezdsp5535_v1/c55xx_csl/src/csl_mmcsd_ataIf.c",line 307,column 15,is_s
     750 000374 ED04          MOV dbl(*SP(#2)), XAR0
         000376 8F   
     751 000377 ED31          MOV dbl(*(#_cached_phySector0)), AC0 ; |307| 
         000379 0800 
         00037b 0504-
     752 00037d EC31          AMOV #_gWriteBuf, XAR1 ; |307| 
         00037f 9E00 
         000381 0104-
     753              $C$DW$44        .dwtag  DW_TAG_TI_branch
     754                      .dwattr $C$DW$44, DW_AT_low_pc(0x00)
     755                      .dwattr $C$DW$44, DW_AT_name("_MMC_writeNSectors")
     756                      .dwattr $C$DW$44, DW_AT_TI_call
     757              
     758 000383 0805          CALL #_MMC_writeNSectors ; |307| 
         000385 6C   
     759 000386 3D34  ||      MOV #3, T0
     760              
     761                                                      ; call occurs [#_MMC_writeNSectors] ; |307| 
     762 000388 C40E          MOV T0, *SP(#7) ; |307| 
     763                      .dwpsn  file "../c5535_bsl_revc/ezdsp5535_v1/c55xx_csl/src/csl_mmcsd_ataIf.c",line 308,column 9,is_st
     764 00038a 2249          MOV T0, AR1
     765 00038c 6D19          BCC $C$L24,AR1 != #0 ; |308| 
         00038e 008E 
     766                                                      ; branchcc occurs ; |308| 
     767                      .dwpsn  file "../c5535_bsl_revc/ezdsp5535_v1/c55xx_csl/src/csl_mmcsd_ataIf.c",line 310,column 17,is_s
     768                      .dwpsn  file "../c5535_bsl_revc/ezdsp5535_v1/c55xx_csl/src/csl_mmcsd_ataIf.c",line 312,column 15,is_s
     769 000390 ED00          MOV dbl(*SP(#0)), AC0 ; |312| 
         000392 08   
     770 000393 ED04          MOV dbl(*SP(#2)), XAR0
         000395 8F   
     771 000396 ED08          MOV dbl(*SP(#4)), XAR1
         000398 9F   
     772              $C$DW$45        .dwtag  DW_TAG_TI_branch
     773                      .dwattr $C$DW$45, DW_AT_low_pc(0x00)
TMS320C55x Assembler PC v4.4.1 Fri Sep 14 23:31:58 2018

Tools Copyright (c) 1996-2012 Texas Instruments Incorporated
csl_mmcsd_ataIf.asm                                                  PAGE   20

     774                      .dwattr $C$DW$45, DW_AT_name("_MMC_writeSector")
     775                      .dwattr $C$DW$45, DW_AT_TI_call
     776              
     777 000399 0803          CALL #_MMC_writeSector ; |312| 
         00039b 96   
     778 00039c 3D04  ||      MOV #0, T0
     779              
     780                                                      ; call occurs [#_MMC_writeSector] ; |312| 
     781 00039e C40E          MOV T0, *SP(#7) ; |312| 
     782                      .dwpsn  file "../c5535_bsl_revc/ezdsp5535_v1/c55xx_csl/src/csl_mmcsd_ataIf.c",line 313,column 9,is_st
     783 0003a0 2249          MOV T0, AR1
     784 0003a2 0409          BCC $C$L21,AR1 == #0 ; |313| 
         0003a4 5B   
     785                                                      ; branchcc occurs ; |313| 
     786                      .dwpsn  file "../c5535_bsl_revc/ezdsp5535_v1/c55xx_csl/src/csl_mmcsd_ataIf.c",line 315,column 17,is_s
     787 0003a5 0600          B $C$L24  ; |315| 
         0003a7 76   
     788                                                      ; branch occurs ; |315| 
     789 0003a8       $C$L18:    
     790                      .dwpsn  file "../c5535_bsl_revc/ezdsp5535_v1/c55xx_csl/src/csl_mmcsd_ataIf.c",line 320,column 15,is_s
     791 0003a8 ED00          MOV dbl(*SP(#0)), AC0 ; |320| 
         0003aa 08   
     792 0003ab EB31          MOV AC0, dbl(*(#_cached_phySector3)) ; |320| 
         0003ad 0800 
         0003af 050A-
     793                      .dwpsn  file "../c5535_bsl_revc/ezdsp5535_v1/c55xx_csl/src/csl_mmcsd_ataIf.c",line 321,column 20,is_s
     794 0003b1 E610          MOV #0, *SP(#8) ; |321| 
         0003b3 00   
     795                      .dwpsn  file "../c5535_bsl_revc/ezdsp5535_v1/c55xx_csl/src/csl_mmcsd_ataIf.c",line 321,column 26,is_s
     796 0003b4 7601          MOV #256, AR2 ; |321| 
         0003b6 00A8 
     797 0003b8 A910          MOV *SP(#8), AR1 ; |321| 
     798 0003ba 1298          CMPU AR1 >= AR2, TC1 ; |321| 
         0003bc A4   
     799 0003bd 0464          BCC $C$L20,TC1 ; |321| 
         0003bf 25   
     800                                                      ; branchcc occurs ; |321| 
     801 0003c0       $C$L19:    
     802 0003c0       $C$DW$L$_MMC_readWriteControl$39$B:
     803                      .dwpsn  file "../c5535_bsl_revc/ezdsp5535_v1/c55xx_csl/src/csl_mmcsd_ataIf.c",line 321,column 59,is_s
     804 0003c0 7B03          ADD #768, AR1, AR1 ; |321| 
         0003c2 0099 
     805 0003c4 ED08          MOV dbl(*SP(#4)), XAR2
         0003c6 AF   
     806 0003c7 A410          MOV *SP(#8), T0 ; |321| 
     807 0003c9 EC31          AMOV #_gWriteBuf, XAR3 ; |321| 
         0003cb BE00 
         0003cd 0104-
     808 0003cf 1490          AADD AR1, AR3 ; |321| 
         0003d1 B0   
     809 0003d2 805D          MOV *AR2(T0), *AR3 ; |321| 
         0003d4 84   
     810                      .dwpsn  file "../c5535_bsl_revc/ezdsp5535_v1/c55xx_csl/src/csl_mmcsd_ataIf.c",line 321,column 52,is_s
     811 0003d5 F710          ADD #1, *SP(#8) ; |321| 
         0003d7 0001 
TMS320C55x Assembler PC v4.4.1 Fri Sep 14 23:31:58 2018

Tools Copyright (c) 1996-2012 Texas Instruments Incorporated
csl_mmcsd_ataIf.asm                                                  PAGE   21

     812                      .dwpsn  file "../c5535_bsl_revc/ezdsp5535_v1/c55xx_csl/src/csl_mmcsd_ataIf.c",line 321,column 26,is_s
     813 0003d9 7601          MOV #256, AR2 ; |321| 
         0003db 00A8 
     814 0003dd A910          MOV *SP(#8), AR1 ; |321| 
     815 0003df 1294          CMPU AR1 < AR2, TC1 ; |321| 
         0003e1 A4   
     816 0003e2 0464          BCC $C$L19,TC1 ; |321| 
         0003e4 DB   
     817                                                      ; branchcc occurs ; |321| 
     818 0003e5       $C$DW$L$_MMC_readWriteControl$39$E:
     819 0003e5       $C$L20:    
     820                      .dwpsn  file "../c5535_bsl_revc/ezdsp5535_v1/c55xx_csl/src/csl_mmcsd_ataIf.c",line 322,column 12,is_s
     821 0003e5 ED04          MOV dbl(*SP(#2)), XAR0
         0003e7 8F   
     822 0003e8 ED31          MOV dbl(*(#_cached_phySector0)), AC0 ; |322| 
         0003ea 0800 
         0003ec 0504-
     823 0003ee EC31          AMOV #_gWriteBuf, XAR1 ; |322| 
         0003f0 9E00 
         0003f2 0104-
     824              $C$DW$46        .dwtag  DW_TAG_TI_branch
     825                      .dwattr $C$DW$46, DW_AT_low_pc(0x00)
     826                      .dwattr $C$DW$46, DW_AT_name("_MMC_writeNSectors")
     827                      .dwattr $C$DW$46, DW_AT_TI_call
     828              
     829 0003f4 0804          CALL #_MMC_writeNSectors ; |322| 
         0003f6 FB   
     830 0003f7 3D44  ||      MOV #4, T0
     831              
     832                                                      ; call occurs [#_MMC_writeNSectors] ; |322| 
     833 0003f9 C40E          MOV T0, *SP(#7) ; |322| 
     834                      .dwpsn  file "../c5535_bsl_revc/ezdsp5535_v1/c55xx_csl/src/csl_mmcsd_ataIf.c",line 323,column 9,is_st
     835 0003fb 2249          MOV T0, AR1
     836 0003fd 0419          BCC $C$L24,AR1 != #0 ; |323| 
         0003ff 1E   
     837                                                      ; branchcc occurs ; |323| 
     838                      .dwpsn  file "../c5535_bsl_revc/ezdsp5535_v1/c55xx_csl/src/csl_mmcsd_ataIf.c",line 325,column 17,is_s
     839 000400       $C$L21:    
     840                      .dwpsn  file "../c5535_bsl_revc/ezdsp5535_v1/c55xx_csl/src/csl_mmcsd_ataIf.c",line 328,column 7,is_st
     841 000400 E631          MOV #0, *(#_nbuf_cached) ; |328| 
         000402 0000 
         000404 0101-
     842                      .dwpsn  file "../c5535_bsl_revc/ezdsp5535_v1/c55xx_csl/src/csl_mmcsd_ataIf.c",line 334,column 3,is_st
     843 000406 4A14          B $C$L23  ; |334| 
     844                                                      ; branch occurs ; |334| 
     845 000408       $C$L22:    
     846                      .dwpsn  file "../c5535_bsl_revc/ezdsp5535_v1/c55xx_csl/src/csl_mmcsd_ataIf.c",line 337,column 5,is_st
     847 000408 ED00          MOV dbl(*SP(#0)), AC0 ; |337| 
         00040a 08   
     848 00040b ED04          MOV dbl(*SP(#2)), XAR0
         00040d 8F   
     849 00040e ED08          MOV dbl(*SP(#4)), XAR1
         000410 9F   
     850 000411 A40C          MOV *SP(#6), T0 ; |337| 
     851              $C$DW$47        .dwtag  DW_TAG_TI_branch
TMS320C55x Assembler PC v4.4.1 Fri Sep 14 23:31:58 2018

Tools Copyright (c) 1996-2012 Texas Instruments Incorporated
csl_mmcsd_ataIf.asm                                                  PAGE   22

     852                      .dwattr $C$DW$47, DW_AT_low_pc(0x00)
     853                      .dwattr $C$DW$47, DW_AT_name("_MMC_writeSector")
     854                      .dwattr $C$DW$47, DW_AT_TI_call
     855 000413 0803          CALL #_MMC_writeSector ; |337| 
         000415 1E   
     856                                                      ; call occurs [#_MMC_writeSector] ; |337| 
     857 000416 C40E          MOV T0, *SP(#7) ; |337| 
     858                      .dwpsn  file "../c5535_bsl_revc/ezdsp5535_v1/c55xx_csl/src/csl_mmcsd_ataIf.c",line 338,column 2,is_st
     859 000418 2249          MOV T0, AR1
     860 00041a 6119          BCC $C$L24,AR1 != #0 ; |338| 
     861                                                      ; branchcc occurs ; |338| 
     862                      .dwpsn  file "../c5535_bsl_revc/ezdsp5535_v1/c55xx_csl/src/csl_mmcsd_ataIf.c",line 340,column 7,is_st
     863 00041c       $C$L23:    
     864                      .dwpsn  file "../c5535_bsl_revc/ezdsp5535_v1/c55xx_csl/src/csl_mmcsd_ataIf.c",line 351,column 3,is_st
     865 00041c A40E          MOV *SP(#7), T0 ; |351| 
     866 00041e       $C$L24:    
     867                      .dwpsn  file "../c5535_bsl_revc/ezdsp5535_v1/c55xx_csl/src/csl_mmcsd_ataIf.c",line 353,column 1,is_st
     868 00041e 4E09          AADD #9, SP
     869                      .dwcfi  cfa_offset, 1
     870              $C$DW$48        .dwtag  DW_TAG_TI_branch
     871                      .dwattr $C$DW$48, DW_AT_low_pc(0x00)
     872                      .dwattr $C$DW$48, DW_AT_TI_return
     873 000420 4804          RET
     874                                                      ; return occurs
     875              
     876              $C$DW$49        .dwtag  DW_TAG_TI_loop
     877                      .dwattr $C$DW$49, DW_AT_name("F:\eZdsp_DBG\eZDSP_5535_Files\ccsws2\test\Debug\csl_mmcsd_ataIf.asm:$C$
     878                      .dwattr $C$DW$49, DW_AT_TI_begin_file("../c5535_bsl_revc/ezdsp5535_v1/c55xx_csl/src/csl_mmcsd_ataIf.c
     879                      .dwattr $C$DW$49, DW_AT_TI_begin_line(0x141)
     880                      .dwattr $C$DW$49, DW_AT_TI_end_line(0x141)
     881              $C$DW$50        .dwtag  DW_TAG_TI_loop_range
     882                      .dwattr $C$DW$50, DW_AT_low_pc($C$DW$L$_MMC_readWriteControl$39$B)
     883                      .dwattr $C$DW$50, DW_AT_high_pc($C$DW$L$_MMC_readWriteControl$39$E)
     884                      .dwendtag $C$DW$49
     885              
     886              
     887              $C$DW$51        .dwtag  DW_TAG_TI_loop
     888                      .dwattr $C$DW$51, DW_AT_name("F:\eZdsp_DBG\eZDSP_5535_Files\ccsws2\test\Debug\csl_mmcsd_ataIf.asm:$C$
     889                      .dwattr $C$DW$51, DW_AT_TI_begin_file("../c5535_bsl_revc/ezdsp5535_v1/c55xx_csl/src/csl_mmcsd_ataIf.c
     890                      .dwattr $C$DW$51, DW_AT_TI_begin_line(0x11c)
     891                      .dwattr $C$DW$51, DW_AT_TI_end_line(0x11c)
     892              $C$DW$52        .dwtag  DW_TAG_TI_loop_range
     893                      .dwattr $C$DW$52, DW_AT_low_pc($C$DW$L$_MMC_readWriteControl$27$B)
     894                      .dwattr $C$DW$52, DW_AT_high_pc($C$DW$L$_MMC_readWriteControl$27$E)
     895                      .dwendtag $C$DW$51
     896              
     897              
     898              $C$DW$53        .dwtag  DW_TAG_TI_loop
     899                      .dwattr $C$DW$53, DW_AT_name("F:\eZdsp_DBG\eZDSP_5535_Files\ccsws2\test\Debug\csl_mmcsd_ataIf.asm:$C$
     900                      .dwattr $C$DW$53, DW_AT_TI_begin_file("../c5535_bsl_revc/ezdsp5535_v1/c55xx_csl/src/csl_mmcsd_ataIf.c
     901                      .dwattr $C$DW$53, DW_AT_TI_begin_line(0xf6)
     902                      .dwattr $C$DW$53, DW_AT_TI_end_line(0xf6)
     903              $C$DW$54        .dwtag  DW_TAG_TI_loop_range
     904                      .dwattr $C$DW$54, DW_AT_low_pc($C$DW$L$_MMC_readWriteControl$16$B)
     905                      .dwattr $C$DW$54, DW_AT_high_pc($C$DW$L$_MMC_readWriteControl$16$E)
TMS320C55x Assembler PC v4.4.1 Fri Sep 14 23:31:58 2018

Tools Copyright (c) 1996-2012 Texas Instruments Incorporated
csl_mmcsd_ataIf.asm                                                  PAGE   23

     906                      .dwendtag $C$DW$53
     907              
     908              
     909              $C$DW$55        .dwtag  DW_TAG_TI_loop
     910                      .dwattr $C$DW$55, DW_AT_name("F:\eZdsp_DBG\eZDSP_5535_Files\ccsws2\test\Debug\csl_mmcsd_ataIf.asm:$C$
     911                      .dwattr $C$DW$55, DW_AT_TI_begin_file("../c5535_bsl_revc/ezdsp5535_v1/c55xx_csl/src/csl_mmcsd_ataIf.c
     912                      .dwattr $C$DW$55, DW_AT_TI_begin_line(0xdd)
     913                      .dwattr $C$DW$55, DW_AT_TI_end_line(0xdd)
     914              $C$DW$56        .dwtag  DW_TAG_TI_loop_range
     915                      .dwattr $C$DW$56, DW_AT_low_pc($C$DW$L$_MMC_readWriteControl$8$B)
     916                      .dwattr $C$DW$56, DW_AT_high_pc($C$DW$L$_MMC_readWriteControl$8$E)
     917                      .dwendtag $C$DW$55
     918              
     919                      .dwattr $C$DW$26, DW_AT_TI_end_file("../c5535_bsl_revc/ezdsp5535_v1/c55xx_csl/src/csl_mmcsd_ataIf.c")
     920                      .dwattr $C$DW$26, DW_AT_TI_end_line(0x161)
     921                      .dwattr $C$DW$26, DW_AT_TI_end_column(0x01)
     922                      .dwendentry
     923                      .dwendtag $C$DW$26
     924              
     925 000422               .sect   ".text"
     926                      .align 4
     927                      .global _MMC_issueReadCommand
     928              
     929              $C$DW$57        .dwtag  DW_TAG_subprogram, DW_AT_name("MMC_issueReadCommand")
     930                      .dwattr $C$DW$57, DW_AT_low_pc(_MMC_issueReadCommand)
     931                      .dwattr $C$DW$57, DW_AT_high_pc(0x00)
     932                      .dwattr $C$DW$57, DW_AT_TI_symbol_name("_MMC_issueReadCommand")
     933                      .dwattr $C$DW$57, DW_AT_external
     934                      .dwattr $C$DW$57, DW_AT_type(*$C$DW$T$107)
     935                      .dwattr $C$DW$57, DW_AT_TI_begin_file("../c5535_bsl_revc/ezdsp5535_v1/c55xx_csl/src/csl_mmcsd_ataIf.c
     936                      .dwattr $C$DW$57, DW_AT_TI_begin_line(0x19b)
     937                      .dwattr $C$DW$57, DW_AT_TI_begin_column(0x0a)
     938                      .dwattr $C$DW$57, DW_AT_TI_max_frame_size(0x10)
     939                      .dwpsn  file "../c5535_bsl_revc/ezdsp5535_v1/c55xx_csl/src/csl_mmcsd_ataIf.c",line 414,column 1,is_st
     940              
     941                      .dwfde $C$DW$CIE, _MMC_issueReadCommand
     942              $C$DW$58        .dwtag  DW_TAG_formal_parameter, DW_AT_name("phySector")
     943                      .dwattr $C$DW$58, DW_AT_TI_symbol_name("_phySector")
     944                      .dwattr $C$DW$58, DW_AT_type(*$C$DW$T$105)
     945                      .dwattr $C$DW$58, DW_AT_location[DW_OP_reg0]
     946              $C$DW$59        .dwtag  DW_TAG_formal_parameter, DW_AT_name("pAtaMediaState")
     947                      .dwattr $C$DW$59, DW_AT_TI_symbol_name("_pAtaMediaState")
     948                      .dwattr $C$DW$59, DW_AT_type(*$C$DW$T$3)
     949                      .dwattr $C$DW$59, DW_AT_location[DW_OP_reg17]
     950              $C$DW$60        .dwtag  DW_TAG_formal_parameter, DW_AT_name("sectorCount")
     951                      .dwattr $C$DW$60, DW_AT_TI_symbol_name("_sectorCount")
     952                      .dwattr $C$DW$60, DW_AT_type(*$C$DW$T$101)
     953                      .dwattr $C$DW$60, DW_AT_location[DW_OP_reg12]
     954              ;*******************************************************************************
     955              ;* FUNCTION NAME: MMC_issueReadCommand                                         *
     956              ;*                                                                             *
     957              ;*   Function Uses Regs : AC0,AC0,AC1,AC1,T0,AR0,XAR0,AR1,XAR1,AR2,AR3,XAR3,SP,*
     958              ;*                        CARRY,TC1,M40,SATA,SATD,RDM,FRCT,SMUL                *
     959              ;*   Stack Frame        : Compact (No Frame Pointer, w/ debug)                 *
     960              ;*   Total Frame Size   : 16 words                                             *
TMS320C55x Assembler PC v4.4.1 Fri Sep 14 23:31:58 2018

Tools Copyright (c) 1996-2012 Texas Instruments Incorporated
csl_mmcsd_ataIf.asm                                                  PAGE   24

     961              ;*                        (2 return address/alignment)                         *
     962              ;*                        (14 local values)                                    *
     963              ;*   Min System Stack   : 1 word                                               *
     964              ;*******************************************************************************
     965 000424       _MMC_issueReadCommand:
     966                      .dwcfi  cfa_offset, 1
     967                      .dwcfi  save_reg_to_mem, 91, -1
     968 000424 4EF1          AADD #-15, SP
     969                      .dwcfi  cfa_offset, 16
     970              $C$DW$61        .dwtag  DW_TAG_variable, DW_AT_name("phySector")
     971                      .dwattr $C$DW$61, DW_AT_TI_symbol_name("_phySector")
     972                      .dwattr $C$DW$61, DW_AT_type(*$C$DW$T$105)
     973                      .dwattr $C$DW$61, DW_AT_location[DW_OP_bregx 0x24 0]
     974              $C$DW$62        .dwtag  DW_TAG_variable, DW_AT_name("pAtaMediaState")
     975                      .dwattr $C$DW$62, DW_AT_TI_symbol_name("_pAtaMediaState")
     976                      .dwattr $C$DW$62, DW_AT_type(*$C$DW$T$3)
     977                      .dwattr $C$DW$62, DW_AT_location[DW_OP_bregx 0x24 2]
     978              $C$DW$63        .dwtag  DW_TAG_variable, DW_AT_name("sectorCount")
     979                      .dwattr $C$DW$63, DW_AT_TI_symbol_name("_sectorCount")
     980                      .dwattr $C$DW$63, DW_AT_type(*$C$DW$T$101)
     981                      .dwattr $C$DW$63, DW_AT_location[DW_OP_bregx 0x24 4]
     982              $C$DW$64        .dwtag  DW_TAG_variable, DW_AT_name("result")
     983                      .dwattr $C$DW$64, DW_AT_TI_symbol_name("_result")
     984                      .dwattr $C$DW$64, DW_AT_type(*$C$DW$T$139)
     985                      .dwattr $C$DW$64, DW_AT_location[DW_OP_bregx 0x24 5]
     986              $C$DW$65        .dwtag  DW_TAG_variable, DW_AT_name("ataResult")
     987                      .dwattr $C$DW$65, DW_AT_TI_symbol_name("_ataResult")
     988                      .dwattr $C$DW$65, DW_AT_type(*$C$DW$T$107)
     989                      .dwattr $C$DW$65, DW_AT_location[DW_OP_bregx 0x24 6]
     990              $C$DW$66        .dwtag  DW_TAG_variable, DW_AT_name("pMediaState")
     991                      .dwattr $C$DW$66, DW_AT_TI_symbol_name("_pMediaState")
     992                      .dwattr $C$DW$66, DW_AT_type(*$C$DW$T$137)
     993                      .dwattr $C$DW$66, DW_AT_location[DW_OP_bregx 0x24 8]
     994              $C$DW$67        .dwtag  DW_TAG_variable, DW_AT_name("hMmcSd")
     995                      .dwattr $C$DW$67, DW_AT_TI_symbol_name("_hMmcSd")
     996                      .dwattr $C$DW$67, DW_AT_type(*$C$DW$T$135)
     997                      .dwattr $C$DW$67, DW_AT_location[DW_OP_bregx 0x24 10]
     998              $C$DW$68        .dwtag  DW_TAG_variable, DW_AT_name("ATA_No_Swap_sav")
     999                      .dwattr $C$DW$68, DW_AT_TI_symbol_name("_ATA_No_Swap_sav")
    1000                      .dwattr $C$DW$68, DW_AT_type(*$C$DW$T$101)
    1001                      .dwattr $C$DW$68, DW_AT_location[DW_OP_bregx 0x24 12]
    1002              $C$DW$69        .dwtag  DW_TAG_variable, DW_AT_name("readEndianMode")
    1003                      .dwattr $C$DW$69, DW_AT_TI_symbol_name("_readEndianMode")
    1004                      .dwattr $C$DW$69, DW_AT_type(*$C$DW$T$97)
    1005                      .dwattr $C$DW$69, DW_AT_location[DW_OP_bregx 0x24 13]
    1006 000426 C408          MOV T0, *SP(#4) ; |414| 
    1007 000428 EB04          MOV XAR0, dbl(*SP(#2))
         00042a 85   
    1008 00042b EB00          MOV AC0, dbl(*SP(#0)) ; |414| 
         00042d 08   
    1009                      .dwpsn  file "../c5535_bsl_revc/ezdsp5535_v1/c55xx_csl/src/csl_mmcsd_ataIf.c",line 425,column 5,is_st
    1010 00042e E60A          MOV #0, *SP(#5) ; |425| 
         000430 00   
    1011                      .dwpsn  file "../c5535_bsl_revc/ezdsp5535_v1/c55xx_csl/src/csl_mmcsd_ataIf.c",line 426,column 5,is_st
    1012 000431 E60C          MOV #0, *SP(#6) ; |426| 
TMS320C55x Assembler PC v4.4.1 Fri Sep 14 23:31:58 2018

Tools Copyright (c) 1996-2012 Texas Instruments Incorporated
csl_mmcsd_ataIf.asm                                                  PAGE   25

         000433 00   
    1013                      .dwpsn  file "../c5535_bsl_revc/ezdsp5535_v1/c55xx_csl/src/csl_mmcsd_ataIf.c",line 432,column 5,is_st
    1014 000434 F031          CMP *(#_nbuf_cached) == #1, TC1 ; |432| 
         000436 0001 
         000438 0001 
         00043a 01-  
    1015 00043b 0474          BCC $C$L25,!TC1 ; |432| 
         00043d 39   
    1016                                                      ; branchcc occurs ; |432| 
    1017                      .dwpsn  file "../c5535_bsl_revc/ezdsp5535_v1/c55xx_csl/src/csl_mmcsd_ataIf.c",line 433,column 4,is_st
    1018 00043e A931          MOV *(#_ATA_No_Swap), AR1 ; |433| 
         000440 0005 
         000442 0C-  
    1019 000443 C918          MOV AR1, *SP(#12) ; |433| 
    1020                      .dwpsn  file "../c5535_bsl_revc/ezdsp5535_v1/c55xx_csl/src/csl_mmcsd_ataIf.c",line 434,column 4,is_st
    1021 000445 E631          MOV #1, *(#_ATA_No_Swap) ; |434| 
         000447 0100 
         000449 050C-
    1022                      .dwpsn  file "../c5535_bsl_revc/ezdsp5535_v1/c55xx_csl/src/csl_mmcsd_ataIf.c",line 435,column 7,is_st
    1023 00044b ED31          MOV dbl(*(#_cached_phySector0)), AC0 ; |435| 
         00044d 0800 
         00044f 0504-
    1024 000451 ED04          MOV dbl(*SP(#2)), XAR0
         000453 8F   
    1025 000454 EC31          AMOV #_gWriteBuf, XAR1 ; |435| 
         000456 9E00 
         000458 0104-
    1026              $C$DW$70        .dwtag  DW_TAG_TI_branch
    1027                      .dwattr $C$DW$70, DW_AT_low_pc(0x00)
    1028                      .dwattr $C$DW$70, DW_AT_name("_MMC_writeSector")
    1029                      .dwattr $C$DW$70, DW_AT_TI_call
    1030              
    1031 00045a 0802          CALL #_MMC_writeSector ; |435| 
         00045c D5   
    1032 00045d 3D04  ||      MOV #0, T0
    1033              
    1034                                                      ; call occurs [#_MMC_writeSector] ; |435| 
    1035 00045f C40C          MOV T0, *SP(#6) ; |435| 
    1036                      .dwpsn  file "../c5535_bsl_revc/ezdsp5535_v1/c55xx_csl/src/csl_mmcsd_ataIf.c",line 436,column 4,is_st
    1037 000461 2249          MOV T0, AR1
    1038 000463 6D19          BCC $C$L36,AR1 != #0 ; |436| 
         000465 0173 
    1039                                                      ; branchcc occurs ; |436| 
    1040                      .dwpsn  file "../c5535_bsl_revc/ezdsp5535_v1/c55xx_csl/src/csl_mmcsd_ataIf.c",line 438,column 9,is_st
    1041                      .dwpsn  file "../c5535_bsl_revc/ezdsp5535_v1/c55xx_csl/src/csl_mmcsd_ataIf.c",line 440,column 4,is_st
    1042 000467 E631          MOV #0, *(#_nbuf_cached) ; |440| 
         000469 0000 
         00046b 0101-
    1043                      .dwpsn  file "../c5535_bsl_revc/ezdsp5535_v1/c55xx_csl/src/csl_mmcsd_ataIf.c",line 441,column 4,is_st
    1044 00046d A918          MOV *SP(#12), AR1 ; |441| 
    1045 00046f C931          MOV AR1, *(#_ATA_No_Swap) ; |441| 
         000471 0005 
         000473 0C-  
    1046                      .dwpsn  file "../c5535_bsl_revc/ezdsp5535_v1/c55xx_csl/src/csl_mmcsd_ataIf.c",line 442,column 2,is_st
    1047 000474 0600          B $C$L27  ; |442| 
TMS320C55x Assembler PC v4.4.1 Fri Sep 14 23:31:58 2018

Tools Copyright (c) 1996-2012 Texas Instruments Incorporated
csl_mmcsd_ataIf.asm                                                  PAGE   26

         000476 83   
    1048                                                      ; branch occurs ; |442| 
    1049 000477       $C$L25:    
    1050                      .dwpsn  file "../c5535_bsl_revc/ezdsp5535_v1/c55xx_csl/src/csl_mmcsd_ataIf.c",line 445,column 7,is_st
    1051 000477 F031          CMP *(#_nbuf_cached) == #2, TC1 ; |445| 
         000479 0002 
         00047b 0001 
         00047d 01-  
    1052 00047e 0474          BCC $C$L26,!TC1 ; |445| 
         000480 39   
    1053                                                      ; branchcc occurs ; |445| 
    1054                      .dwpsn  file "../c5535_bsl_revc/ezdsp5535_v1/c55xx_csl/src/csl_mmcsd_ataIf.c",line 447,column 6,is_st
    1055 000481 A931          MOV *(#_ATA_No_Swap), AR1 ; |447| 
         000483 0005 
         000485 0C-  
    1056 000486 C918          MOV AR1, *SP(#12) ; |447| 
    1057                      .dwpsn  file "../c5535_bsl_revc/ezdsp5535_v1/c55xx_csl/src/csl_mmcsd_ataIf.c",line 448,column 6,is_st
    1058 000488 E631          MOV #1, *(#_ATA_No_Swap) ; |448| 
         00048a 0100 
         00048c 050C-
    1059                      .dwpsn  file "../c5535_bsl_revc/ezdsp5535_v1/c55xx_csl/src/csl_mmcsd_ataIf.c",line 449,column 6,is_st
    1060 00048e ED31          MOV dbl(*(#_cached_phySector0)), AC0 ; |449| 
         000490 0800 
         000492 0504-
    1061 000494 ED04          MOV dbl(*SP(#2)), XAR0
         000496 8F   
    1062 000497 EC31          AMOV #_gWriteBuf, XAR1 ; |449| 
         000499 9E00 
         00049b 0104-
    1063              $C$DW$71        .dwtag  DW_TAG_TI_branch
    1064                      .dwattr $C$DW$71, DW_AT_low_pc(0x00)
    1065                      .dwattr $C$DW$71, DW_AT_name("_MMC_writeNSectors")
    1066                      .dwattr $C$DW$71, DW_AT_TI_call
    1067              
    1068 00049d 0804          CALL #_MMC_writeNSectors ; |449| 
         00049f 52   
    1069 0004a0 3D24  ||      MOV #2, T0
    1070              
    1071                                                      ; call occurs [#_MMC_writeNSectors] ; |449| 
    1072 0004a2 C40C          MOV T0, *SP(#6) ; |449| 
    1073                      .dwpsn  file "../c5535_bsl_revc/ezdsp5535_v1/c55xx_csl/src/csl_mmcsd_ataIf.c",line 450,column 6,is_st
    1074 0004a4 2249          MOV T0, AR1
    1075 0004a6 6D19          BCC $C$L36,AR1 != #0 ; |450| 
         0004a8 0130 
    1076                                                      ; branchcc occurs ; |450| 
    1077                      .dwpsn  file "../c5535_bsl_revc/ezdsp5535_v1/c55xx_csl/src/csl_mmcsd_ataIf.c",line 452,column 11,is_s
    1078                      .dwpsn  file "../c5535_bsl_revc/ezdsp5535_v1/c55xx_csl/src/csl_mmcsd_ataIf.c",line 454,column 9,is_st
    1079 0004aa E631          MOV #0, *(#_nbuf_cached) ; |454| 
         0004ac 0000 
         0004ae 0101-
    1080                      .dwpsn  file "../c5535_bsl_revc/ezdsp5535_v1/c55xx_csl/src/csl_mmcsd_ataIf.c",line 455,column 6,is_st
    1081 0004b0 A918          MOV *SP(#12), AR1 ; |455| 
    1082 0004b2 C931          MOV AR1, *(#_ATA_No_Swap) ; |455| 
         0004b4 0005 
         0004b6 0C-  
TMS320C55x Assembler PC v4.4.1 Fri Sep 14 23:31:58 2018

Tools Copyright (c) 1996-2012 Texas Instruments Incorporated
csl_mmcsd_ataIf.asm                                                  PAGE   27

    1083                      .dwpsn  file "../c5535_bsl_revc/ezdsp5535_v1/c55xx_csl/src/csl_mmcsd_ataIf.c",line 456,column 4,is_st
    1084 0004b7 0600          B $C$L27  ; |456| 
         0004b9 40   
    1085                                                      ; branch occurs ; |456| 
    1086 0004ba       $C$L26:    
    1087                      .dwpsn  file "../c5535_bsl_revc/ezdsp5535_v1/c55xx_csl/src/csl_mmcsd_ataIf.c",line 459,column 6,is_st
    1088 0004ba F031          CMP *(#_nbuf_cached) == #3, TC1 ; |459| 
         0004bc 0003 
         0004be 0001 
         0004c0 01-  
    1089 0004c1 0474          BCC $C$L27,!TC1 ; |459| 
         0004c3 36   
    1090                                                      ; branchcc occurs ; |459| 
    1091                      .dwpsn  file "../c5535_bsl_revc/ezdsp5535_v1/c55xx_csl/src/csl_mmcsd_ataIf.c",line 461,column 8,is_st
    1092 0004c4 A931          MOV *(#_ATA_No_Swap), AR1 ; |461| 
         0004c6 0005 
         0004c8 0C-  
    1093 0004c9 C918          MOV AR1, *SP(#12) ; |461| 
    1094                      .dwpsn  file "../c5535_bsl_revc/ezdsp5535_v1/c55xx_csl/src/csl_mmcsd_ataIf.c",line 462,column 8,is_st
    1095 0004cb E631          MOV #1, *(#_ATA_No_Swap) ; |462| 
         0004cd 0100 
         0004cf 050C-
    1096                      .dwpsn  file "../c5535_bsl_revc/ezdsp5535_v1/c55xx_csl/src/csl_mmcsd_ataIf.c",line 463,column 8,is_st
    1097 0004d1 ED31          MOV dbl(*(#_cached_phySector0)), AC0 ; |463| 
         0004d3 0800 
         0004d5 0504-
    1098 0004d7 ED04          MOV dbl(*SP(#2)), XAR0
         0004d9 8F   
    1099 0004da EC31          AMOV #_gWriteBuf, XAR1 ; |463| 
         0004dc 9E00 
         0004de 0104-
    1100              $C$DW$72        .dwtag  DW_TAG_TI_branch
    1101                      .dwattr $C$DW$72, DW_AT_low_pc(0x00)
    1102                      .dwattr $C$DW$72, DW_AT_name("_MMC_writeNSectors")
    1103                      .dwattr $C$DW$72, DW_AT_TI_call
    1104              
    1105 0004e0 0804          CALL #_MMC_writeNSectors ; |463| 
         0004e2 0F   
    1106 0004e3 3D34  ||      MOV #3, T0
    1107              
    1108                                                      ; call occurs [#_MMC_writeNSectors] ; |463| 
    1109 0004e5 C40C          MOV T0, *SP(#6) ; |463| 
    1110                      .dwpsn  file "../c5535_bsl_revc/ezdsp5535_v1/c55xx_csl/src/csl_mmcsd_ataIf.c",line 464,column 8,is_st
    1111 0004e7 2249          MOV T0, AR1
    1112 0004e9 6D19          BCC $C$L36,AR1 != #0 ; |464| 
         0004eb 00ED 
    1113                                                      ; branchcc occurs ; |464| 
    1114                      .dwpsn  file "../c5535_bsl_revc/ezdsp5535_v1/c55xx_csl/src/csl_mmcsd_ataIf.c",line 466,column 13,is_s
    1115                      .dwpsn  file "../c5535_bsl_revc/ezdsp5535_v1/c55xx_csl/src/csl_mmcsd_ataIf.c",line 468,column 11,is_s
    1116 0004ed E631          MOV #0, *(#_nbuf_cached) ; |468| 
         0004ef 0000 
         0004f1 0101-
    1117                      .dwpsn  file "../c5535_bsl_revc/ezdsp5535_v1/c55xx_csl/src/csl_mmcsd_ataIf.c",line 469,column 8,is_st
    1118 0004f3 A918          MOV *SP(#12), AR1 ; |469| 
    1119 0004f5 C931          MOV AR1, *(#_ATA_No_Swap) ; |469| 
TMS320C55x Assembler PC v4.4.1 Fri Sep 14 23:31:58 2018

Tools Copyright (c) 1996-2012 Texas Instruments Incorporated
csl_mmcsd_ataIf.asm                                                  PAGE   28

         0004f7 0005 
         0004f9 0C-  
    1120 0004fa       $C$L27:    
    1121                      .dwpsn  file "../c5535_bsl_revc/ezdsp5535_v1/c55xx_csl/src/csl_mmcsd_ataIf.c",line 477,column 2,is_st
    1122 0004fa ED04          MOV dbl(*SP(#2)), XAR3
         0004fc BF   
    1123 0004fd EB10          MOV XAR3, dbl(*SP(#8))
         0004ff B5   
    1124                      .dwpsn  file "../c5535_bsl_revc/ezdsp5535_v1/c55xx_csl/src/csl_mmcsd_ataIf.c",line 479,column 5,is_st
    1125              
    1126 000500 90B0          MOV XAR3, AC0
    1127 000502 3D01  ||      MOV #0, AC1 ; |479| 
    1128              
    1129 000504 1210          CMPU AC1 == AC0, TC1 ; |479| 
         000506 04   
    1130 000507 0464          BCC $C$L28,TC1 ; |479| 
         000509 13   
    1131                                                      ; branchcc occurs ; |479| 
    1132 00050a ED61          MOV dbl(*AR3), XAR3
         00050c BF   
    1133 00050d 90B0          MOV XAR3, AC0
    1134 00050f 1210          CMPU AC1 == AC0, TC1 ; |479| 
         000511 04   
    1135 000512 64E4          BCC $C$L28,TC1 ; |479| 
    1136                                                      ; branchcc occurs ; |479| 
    1137              
    1138 000516 3D0A          MOV #0, AR2
    1139 000514 A908  ||      MOV *SP(#4), AR1 ; |479| 
    1140              
    1141 000518 12AC          CMPU AR2 != AR1, TC1 ; |479| 
         00051a 94   
    1142 00051b 64E4          BCC $C$L29,TC1 ; |479| 
    1143                                                      ; branchcc occurs ; |479| 
    1144 00051d       $C$L28:    
    1145                      .dwpsn  file "../c5535_bsl_revc/ezdsp5535_v1/c55xx_csl/src/csl_mmcsd_ataIf.c",line 483,column 3,is_st
    1146 00051d FB0C          MOV #768, *SP(#6) ; |483| 
         00051f 0300 
    1147                      .dwpsn  file "../c5535_bsl_revc/ezdsp5535_v1/c55xx_csl/src/csl_mmcsd_ataIf.c",line 484,column 3,is_st
    1148 000521 A40C          MOV *SP(#6), T0 ; |484| 
    1149 000523 0600          B $C$L36  ; |484| 
         000525 B4   
    1150                                                      ; branch occurs ; |484| 
    1151 000526       $C$L29:    
    1152                      .dwpsn  file "../c5535_bsl_revc/ezdsp5535_v1/c55xx_csl/src/csl_mmcsd_ataIf.c",line 488,column 3,is_st
    1153 000526 ED10          MOV dbl(*SP(#8)), XAR3
         000528 BF   
    1154 000529 ED61          MOV dbl(*AR3), XAR3
         00052b BF   
    1155 00052c EB14          MOV XAR3, dbl(*SP(#10))
         00052e B5   
    1156                      .dwpsn  file "../c5535_bsl_revc/ezdsp5535_v1/c55xx_csl/src/csl_mmcsd_ataIf.c",line 490,column 3,is_st
    1157 00052f ED75          MOV dbl(*AR3(short(#2))), XAR3
         000531 BF   
    1158 000532 ED6D          MOV dbl(*AR3(#12)), AC0 ; |490| 
         000534 0800 
TMS320C55x Assembler PC v4.4.1 Fri Sep 14 23:31:58 2018

Tools Copyright (c) 1996-2012 Texas Instruments Incorporated
csl_mmcsd_ataIf.asm                                                  PAGE   29

         000536 0C   
    1159              
    1160 00053a 4310          SUB #1, AC0 ; |490| 
    1161 000537 ED00  ||      MOV dbl(*SP(#0)), AC1 ; |490| 
         000539 18   
    1162              
    1163 00053c 1208          CMPU AC1 <= AC0, TC1 ; |490| 
         00053e 14   
    1164 00053f 64E4          BCC $C$L30,TC1 ; |490| 
    1165                                                      ; branchcc occurs ; |490| 
    1166                      .dwpsn  file "../c5535_bsl_revc/ezdsp5535_v1/c55xx_csl/src/csl_mmcsd_ataIf.c",line 492,column 4,is_st
    1167 000541 FB0C          MOV #768, *SP(#6) ; |492| 
         000543 0300 
    1168                      .dwpsn  file "../c5535_bsl_revc/ezdsp5535_v1/c55xx_csl/src/csl_mmcsd_ataIf.c",line 493,column 11,is_s
    1169 000545 A40C          MOV *SP(#6), T0 ; |493| 
    1170 000547 0600          B $C$L36  ; |493| 
         000549 90   
    1171                                                      ; branch occurs ; |493| 
    1172 00054a       $C$L30:    
    1173                      .dwpsn  file "../c5535_bsl_revc/ezdsp5535_v1/c55xx_csl/src/csl_mmcsd_ataIf.c",line 500,column 4,is_st
    1174 00054a ED14          MOV dbl(*SP(#10)), XAR3
         00054c BF   
    1175 00054d A96D          MOV *AR3(#61), AR1 ; |500| 
         00054f 003D 
    1176 000551 C91A          MOV AR1, *SP(#13) ; |500| 
    1177                      .dwpsn  file "../c5535_bsl_revc/ezdsp5535_v1/c55xx_csl/src/csl_mmcsd_ataIf.c",line 502,column 4,is_st
    1178 000553 3C1A          MOV #1, AR2
    1179 000555 A931          MOV *(#_ATA_No_Swap), AR1 ; |502| 
         000557 0005 
         000559 0C-  
    1180 00055a 12AC          CMPU AR2 != AR1, TC1 ; |502| 
         00055c 94   
    1181 00055d 6564          BCC $C$L31,TC1 ; |502| 
    1182                                                      ; branchcc occurs ; |502| 
    1183                      .dwpsn  file "../c5535_bsl_revc/ezdsp5535_v1/c55xx_csl/src/csl_mmcsd_ataIf.c",line 504,column 5,is_st
    1184 00055f ED14          MOV dbl(*SP(#10)), XAR3
         000561 BF   
    1185 000562 E66D          MOV #1, *AR3(#61) ; |504| 
         000564 0100 
         000566 3D   
    1186                      .dwpsn  file "../c5535_bsl_revc/ezdsp5535_v1/c55xx_csl/src/csl_mmcsd_ataIf.c",line 505,column 4,is_st
    1187 000567 4A08          B $C$L32  ; |505| 
    1188                                                      ; branch occurs ; |505| 
    1189 000569       $C$L31:    
    1190                      .dwpsn  file "../c5535_bsl_revc/ezdsp5535_v1/c55xx_csl/src/csl_mmcsd_ataIf.c",line 508,column 5,is_st
    1191 000569 ED14          MOV dbl(*SP(#10)), XAR3
         00056b BF   
    1192 00056c E66D          MOV #0, *AR3(#61) ; |508| 
         00056e 0000 
         000570 3D   
    1193 000571       $C$L32:    
    1194                      .dwpsn  file "../c5535_bsl_revc/ezdsp5535_v1/c55xx_csl/src/csl_mmcsd_ataIf.c",line 512,column 4,is_st
    1195 000571 E631          MOV #0, *(#_gWordCount) ; |512| 
         000573 0000 
         000575 0100-
TMS320C55x Assembler PC v4.4.1 Fri Sep 14 23:31:58 2018

Tools Copyright (c) 1996-2012 Texas Instruments Incorporated
csl_mmcsd_ataIf.asm                                                  PAGE   30

    1196                      .dwpsn  file "../c5535_bsl_revc/ezdsp5535_v1/c55xx_csl/src/csl_mmcsd_ataIf.c",line 513,column 4,is_st
    1197 000577 ED00          MOV dbl(*SP(#0)), AC0 ; |513| 
         000579 08   
    1198 00057a 4010          ADD #1, AC0 ; |513| 
    1199 00057c EB31          MOV AC0, dbl(*(#_gNextPhySector)) ; |513| 
         00057e 0800 
         000580 0102-
    1200                      .dwpsn  file "../c5535_bsl_revc/ezdsp5535_v1/c55xx_csl/src/csl_mmcsd_ataIf.c",line 515,column 4,is_st
    1201 000582 ED14          MOV dbl(*SP(#10)), XAR3
         000584 BF   
    1202 000585 ED75          MOV dbl(*AR3(short(#2))), XAR3
         000587 BF   
    1203 000588 F06D          CMP *AR3(#26) == #1, TC1 ; |515| 
         00058a 0001 
         00058c 001A 
    1204 00058e 0474          BCC $C$L33,!TC1 ; |515| 
         000590 18   
    1205                                                      ; branchcc occurs ; |515| 
    1206                      .dwpsn  file "../c5535_bsl_revc/ezdsp5535_v1/c55xx_csl/src/csl_mmcsd_ataIf.c",line 519,column 5,is_st
    1207 000591 ED14          MOV dbl(*SP(#10)), XAR0
         000593 8F   
    1208 000594 ED00          MOV dbl(*SP(#0)), AC0 ; |519| 
         000596 08   
    1209 000597 EC31          AMOV #_gReadBuf, XAR1 ; |519| 
         000599 9E00 
         00059b 0000-
    1210 00059d 7602          MOV #512, T0 ; |519| 
         00059f 0048 
    1211              $C$DW$73        .dwtag  DW_TAG_TI_branch
    1212                      .dwattr $C$DW$73, DW_AT_low_pc(0x00)
    1213                      .dwattr $C$DW$73, DW_AT_name("_MMC_read")
    1214                      .dwattr $C$DW$73, DW_AT_TI_call
    1215 0005a1 6C00          CALL #_MMC_read ; |519| 
         0005a3 0000!
    1216                                                      ; call occurs [#_MMC_read] ; |519| 
    1217 0005a5 C40A          MOV T0, *SP(#5) ; |519| 
    1218                      .dwpsn  file "../c5535_bsl_revc/ezdsp5535_v1/c55xx_csl/src/csl_mmcsd_ataIf.c",line 521,column 4,is_st
    1219 0005a7 4A19          B $C$L34  ; |521| 
    1220                                                      ; branch occurs ; |521| 
    1221 0005a9       $C$L33:    
    1222                      .dwpsn  file "../c5535_bsl_revc/ezdsp5535_v1/c55xx_csl/src/csl_mmcsd_ataIf.c",line 526,column 5,is_st
    1223 0005a9 ED14          MOV dbl(*SP(#10)), XAR0
         0005ab 8F   
    1224 0005ac ED00          MOV dbl(*SP(#0)), AC0 ; |526| 
         0005ae 08   
    1225 0005af EC31          AMOV #_gReadBuf, XAR1 ; |526| 
         0005b1 9E00 
         0005b3 0000-
    1226 0005b5 7602          MOV #512, T0 ; |526| 
         0005b7 0048 
    1227              $C$DW$74        .dwtag  DW_TAG_TI_branch
    1228                      .dwattr $C$DW$74, DW_AT_low_pc(0x00)
    1229                      .dwattr $C$DW$74, DW_AT_name("_MMC_read")
    1230                      .dwattr $C$DW$74, DW_AT_TI_call
    1231              
TMS320C55x Assembler PC v4.4.1 Fri Sep 14 23:31:58 2018

Tools Copyright (c) 1996-2012 Texas Instruments Incorporated
csl_mmcsd_ataIf.asm                                                  PAGE   31

    1232 0005b9 6C00          CALL #_MMC_read ; |526| 
         0005bb 0000!
    1233 0005bd 1107  ||      SFTL AC0, #9, AC0 ; |526| 
         0005bf 09   
    1234              
    1235                                                      ; call occurs [#_MMC_read] ; |526| 
    1236 0005c0 C40A          MOV T0, *SP(#5) ; |526| 
    1237 0005c2       $C$L34:    
    1238                      .dwpsn  file "../c5535_bsl_revc/ezdsp5535_v1/c55xx_csl/src/csl_mmcsd_ataIf.c",line 531,column 4,is_st
    1239 0005c2 ED14          MOV dbl(*SP(#10)), XAR3
         0005c4 BF   
    1240 0005c5 A91A          MOV *SP(#13), AR1 ; |531| 
    1241 0005c7 C96D          MOV AR1, *AR3(#61) ; |531| 
         0005c9 003D 
    1242                      .dwpsn  file "../c5535_bsl_revc/ezdsp5535_v1/c55xx_csl/src/csl_mmcsd_ataIf.c",line 534,column 4,is_st
    1243 0005cb A90A          MOV *SP(#5), AR1 ; |534| 
    1244 0005cd 6489          BCC $C$L35,AR1 == #0 ; |534| 
    1245                                                      ; branchcc occurs ; |534| 
    1246                      .dwpsn  file "../c5535_bsl_revc/ezdsp5535_v1/c55xx_csl/src/csl_mmcsd_ataIf.c",line 536,column 5,is_st
    1247              $C$DW$75        .dwtag  DW_TAG_TI_branch
    1248                      .dwattr $C$DW$75, DW_AT_low_pc(0x00)
    1249                      .dwattr $C$DW$75, DW_AT_name("_getAtaErrorNo")
    1250                      .dwattr $C$DW$75, DW_AT_TI_call
    1251              
    1252 0005cf 0805          CALL #_getAtaErrorNo ; |536| 
         0005d1 44   
    1253 0005d2 2394  ||      MOV AR1, T0
    1254              
    1255                                                      ; call occurs [#_getAtaErrorNo] ; |536| 
    1256 0005d4 C40C          MOV T0, *SP(#6) ; |536| 
    1257                      .dwpsn  file "../c5535_bsl_revc/ezdsp5535_v1/c55xx_csl/src/csl_mmcsd_ataIf.c",line 537,column 12,is_s
    1258 0005d6 4A02          B $C$L36  ; |537| 
    1259                                                      ; branch occurs ; |537| 
    1260 0005d8       $C$L35:    
    1261                      .dwpsn  file "../c5535_bsl_revc/ezdsp5535_v1/c55xx_csl/src/csl_mmcsd_ataIf.c",line 542,column 5,is_st
    1262 0005d8 A40C          MOV *SP(#6), T0 ; |542| 
    1263 0005da       $C$L36:    
    1264                      .dwpsn  file "../c5535_bsl_revc/ezdsp5535_v1/c55xx_csl/src/csl_mmcsd_ataIf.c",line 543,column 1,is_st
    1265 0005da 4E0F          AADD #15, SP
    1266                      .dwcfi  cfa_offset, 1
    1267              $C$DW$76        .dwtag  DW_TAG_TI_branch
    1268                      .dwattr $C$DW$76, DW_AT_low_pc(0x00)
    1269                      .dwattr $C$DW$76, DW_AT_TI_return
    1270 0005dc 4804          RET
    1271                                                      ; return occurs
    1272                      .dwattr $C$DW$57, DW_AT_TI_end_file("../c5535_bsl_revc/ezdsp5535_v1/c55xx_csl/src/csl_mmcsd_ataIf.c")
    1273                      .dwattr $C$DW$57, DW_AT_TI_end_line(0x21f)
    1274                      .dwattr $C$DW$57, DW_AT_TI_end_column(0x01)
    1275                      .dwendentry
    1276                      .dwendtag $C$DW$57
    1277              
    1278 0005de               .sect   ".text"
    1279                      .align 4
    1280                      .global _MMC_readNextWord
    1281              
TMS320C55x Assembler PC v4.4.1 Fri Sep 14 23:31:58 2018

Tools Copyright (c) 1996-2012 Texas Instruments Incorporated
csl_mmcsd_ataIf.asm                                                  PAGE   32

    1282              $C$DW$77        .dwtag  DW_TAG_subprogram, DW_AT_name("MMC_readNextWord")
    1283                      .dwattr $C$DW$77, DW_AT_low_pc(_MMC_readNextWord)
    1284                      .dwattr $C$DW$77, DW_AT_high_pc(0x00)
    1285                      .dwattr $C$DW$77, DW_AT_TI_symbol_name("_MMC_readNextWord")
    1286                      .dwattr $C$DW$77, DW_AT_external
    1287                      .dwattr $C$DW$77, DW_AT_type(*$C$DW$T$107)
    1288                      .dwattr $C$DW$77, DW_AT_TI_begin_file("../c5535_bsl_revc/ezdsp5535_v1/c55xx_csl/src/csl_mmcsd_ataIf.c
    1289                      .dwattr $C$DW$77, DW_AT_TI_begin_line(0x25e)
    1290                      .dwattr $C$DW$77, DW_AT_TI_begin_column(0x0a)
    1291                      .dwattr $C$DW$77, DW_AT_TI_max_frame_size(0x08)
    1292                      .dwpsn  file "../c5535_bsl_revc/ezdsp5535_v1/c55xx_csl/src/csl_mmcsd_ataIf.c",line 608,column 1,is_st
    1293              
    1294                      .dwfde $C$DW$CIE, _MMC_readNextWord
    1295              $C$DW$78        .dwtag  DW_TAG_formal_parameter, DW_AT_name("pAtaMediaState")
    1296                      .dwattr $C$DW$78, DW_AT_TI_symbol_name("_pAtaMediaState")
    1297                      .dwattr $C$DW$78, DW_AT_type(*$C$DW$T$3)
    1298                      .dwattr $C$DW$78, DW_AT_location[DW_OP_reg17]
    1299              $C$DW$79        .dwtag  DW_TAG_formal_parameter, DW_AT_name("pWord")
    1300                      .dwattr $C$DW$79, DW_AT_TI_symbol_name("_pWord")
    1301                      .dwattr $C$DW$79, DW_AT_type(*$C$DW$T$102)
    1302                      .dwattr $C$DW$79, DW_AT_location[DW_OP_reg19]
    1303              ;*******************************************************************************
    1304              ;* FUNCTION NAME: MMC_readNextWord                                             *
    1305              ;*                                                                             *
    1306              ;*   Function Uses Regs : AC0,AC0,AC1,AC1,T0,AR0,XAR0,AR1,XAR1,AR2,XAR2,AR3,   *
    1307              ;*                        XAR3,SP,CARRY,TC1,M40,SATA,SATD,RDM,FRCT,SMUL        *
    1308              ;*   Stack Frame        : Compact (No Frame Pointer, w/ debug)                 *
    1309              ;*   Total Frame Size   : 8 words                                              *
    1310              ;*                        (1 return address/alignment)                         *
    1311              ;*                        (7 local values)                                     *
    1312              ;*   Min System Stack   : 1 word                                               *
    1313              ;*******************************************************************************
    1314 0005e0       _MMC_readNextWord:
    1315                      .dwcfi  cfa_offset, 1
    1316                      .dwcfi  save_reg_to_mem, 91, -1
    1317 0005e0 4EF9          AADD #-7, SP
    1318                      .dwcfi  cfa_offset, 8
    1319              $C$DW$80        .dwtag  DW_TAG_variable, DW_AT_name("pAtaMediaState")
    1320                      .dwattr $C$DW$80, DW_AT_TI_symbol_name("_pAtaMediaState")
    1321                      .dwattr $C$DW$80, DW_AT_type(*$C$DW$T$3)
    1322                      .dwattr $C$DW$80, DW_AT_location[DW_OP_bregx 0x24 0]
    1323              $C$DW$81        .dwtag  DW_TAG_variable, DW_AT_name("pWord")
    1324                      .dwattr $C$DW$81, DW_AT_TI_symbol_name("_pWord")
    1325                      .dwattr $C$DW$81, DW_AT_type(*$C$DW$T$102)
    1326                      .dwattr $C$DW$81, DW_AT_location[DW_OP_bregx 0x24 2]
    1327              $C$DW$82        .dwtag  DW_TAG_variable, DW_AT_name("pMediaState")
    1328                      .dwattr $C$DW$82, DW_AT_TI_symbol_name("_pMediaState")
    1329                      .dwattr $C$DW$82, DW_AT_type(*$C$DW$T$137)
    1330                      .dwattr $C$DW$82, DW_AT_location[DW_OP_bregx 0x24 4]
    1331              $C$DW$83        .dwtag  DW_TAG_variable, DW_AT_name("ataResult")
    1332                      .dwattr $C$DW$83, DW_AT_TI_symbol_name("_ataResult")
    1333                      .dwattr $C$DW$83, DW_AT_type(*$C$DW$T$107)
    1334                      .dwattr $C$DW$83, DW_AT_location[DW_OP_bregx 0x24 6]
    1335 0005e2 EB04          MOV XAR1, dbl(*SP(#2))
         0005e4 95   
TMS320C55x Assembler PC v4.4.1 Fri Sep 14 23:31:58 2018

Tools Copyright (c) 1996-2012 Texas Instruments Incorporated
csl_mmcsd_ataIf.asm                                                  PAGE   33

    1336 0005e5 EB00          MOV XAR0, dbl(*SP(#0))
         0005e7 85   
    1337                      .dwpsn  file "../c5535_bsl_revc/ezdsp5535_v1/c55xx_csl/src/csl_mmcsd_ataIf.c",line 612,column 5,is_st
    1338 0005e8 E60C          MOV #0, *SP(#6) ; |612| 
         0005ea 00   
    1339                      .dwpsn  file "../c5535_bsl_revc/ezdsp5535_v1/c55xx_csl/src/csl_mmcsd_ataIf.c",line 614,column 2,is_st
    1340 0005eb ED00          MOV dbl(*SP(#0)), XAR3
         0005ed BF   
    1341              
    1342 0005ee 90B0          MOV XAR3, AC0
    1343 0005f0 3D01  ||      MOV #0, AC1 ; |614| 
    1344              
    1345 0005f2 1210          CMPU AC1 == AC0, TC1 ; |614| 
         0005f4 04   
    1346 0005f5 6564          BCC $C$L37,TC1 ; |614| 
    1347                                                      ; branchcc occurs ; |614| 
    1348 0005f7 ED04          MOV dbl(*SP(#2)), XAR3
         0005f9 BF   
    1349 0005fa 90B0          MOV XAR3, AC0
    1350 0005fc 121C          CMPU AC1 != AC0, TC1 ; |614| 
         0005fe 04   
    1351 0005ff 64E4          BCC $C$L38,TC1 ; |614| 
    1352                                                      ; branchcc occurs ; |614| 
    1353 000601       $C$L37:    
    1354                      .dwpsn  file "../c5535_bsl_revc/ezdsp5535_v1/c55xx_csl/src/csl_mmcsd_ataIf.c",line 617,column 3,is_st
    1355 000601 FB0C          MOV #768, *SP(#6) ; |617| 
         000603 0300 
    1356                      .dwpsn  file "../c5535_bsl_revc/ezdsp5535_v1/c55xx_csl/src/csl_mmcsd_ataIf.c",line 618,column 3,is_st
    1357 000605 A40C          MOV *SP(#6), T0 ; |618| 
    1358 000607 0600          B $C$L40  ; |618| 
         000609 41   
    1359                                                      ; branch occurs ; |618| 
    1360 00060a       $C$L38:    
    1361                      .dwpsn  file "../c5535_bsl_revc/ezdsp5535_v1/c55xx_csl/src/csl_mmcsd_ataIf.c",line 621,column 5,is_st
    1362 00060a ED00          MOV dbl(*SP(#0)), XAR3
         00060c BF   
    1363 00060d EB08          MOV XAR3, dbl(*SP(#4))
         00060f B5   
    1364                      .dwpsn  file "../c5535_bsl_revc/ezdsp5535_v1/c55xx_csl/src/csl_mmcsd_ataIf.c",line 623,column 5,is_st
    1365 000610 A931          MOV *(#_gWordCount), AR1 ; |623| 
         000612 0001 
         000614 00-  
    1366 000615 7601          MOV #256, AR2 ; |623| 
         000617 00A8 
    1367 000619 12AC          CMPU AR2 != AR1, TC1 ; |623| 
         00061b 94   
    1368 00061c 0464          BCC $C$L39,TC1 ; |623| 
         00061e 10   
    1369                                                      ; branchcc occurs ; |623| 
    1370                      .dwpsn  file "../c5535_bsl_revc/ezdsp5535_v1/c55xx_csl/src/csl_mmcsd_ataIf.c",line 625,column 3,is_st
    1371 00061f ED08          MOV dbl(*SP(#4)), XAR0
         000621 8F   
    1372 000622 ED31          MOV dbl(*(#_gNextPhySector)), AC0 ; |625| 
         000624 0800 
         000626 0102-
TMS320C55x Assembler PC v4.4.1 Fri Sep 14 23:31:58 2018

Tools Copyright (c) 1996-2012 Texas Instruments Incorporated
csl_mmcsd_ataIf.asm                                                  PAGE   34

    1373              $C$DW$84        .dwtag  DW_TAG_TI_branch
    1374                      .dwattr $C$DW$84, DW_AT_low_pc(0x00)
    1375                      .dwattr $C$DW$84, DW_AT_name("_MMC_issueReadCommand")
    1376                      .dwattr $C$DW$84, DW_AT_TI_call
    1377              
    1378 000628 08FD          CALL #_MMC_issueReadCommand ; |625| 
         00062a F7   
    1379 00062b 3D14  ||      MOV #1, T0
    1380              
    1381                                                      ; call occurs [#_MMC_issueReadCommand] ; |625| 
    1382 00062d C40C          MOV T0, *SP(#6) ; |625| 
    1383 00062f       $C$L39:    
    1384                      .dwpsn  file "../c5535_bsl_revc/ezdsp5535_v1/c55xx_csl/src/csl_mmcsd_ataIf.c",line 628,column 2,is_st
    1385 00062f A431          MOV *(#_gWordCount), T0 ; |628| 
         000631 0001 
         000633 00-  
    1386 000634 ED04          MOV dbl(*SP(#2)), XAR2
         000636 AF   
    1387 000637 EC31          AMOV #_gReadBuf, XAR3 ; |628| 
         000639 BE00 
         00063b 0000-
    1388 00063d 7B00          ADD #1, T0, AR1 ; |628| 
         00063f 0194 
    1389 000641 C931          MOV AR1, *(#_gWordCount) ; |628| 
         000643 0001 
         000645 00-  
    1390 000646 807D          MOV *AR3(T0), *AR2 ; |628| 
         000648 04   
    1391                      .dwpsn  file "../c5535_bsl_revc/ezdsp5535_v1/c55xx_csl/src/csl_mmcsd_ataIf.c",line 630,column 5,is_st
    1392 000649 A40C          MOV *SP(#6), T0 ; |630| 
    1393 00064b       $C$L40:    
    1394                      .dwpsn  file "../c5535_bsl_revc/ezdsp5535_v1/c55xx_csl/src/csl_mmcsd_ataIf.c",line 631,column 1,is_st
    1395 00064b 4E07          AADD #7, SP
    1396                      .dwcfi  cfa_offset, 1
    1397              $C$DW$85        .dwtag  DW_TAG_TI_branch
    1398                      .dwattr $C$DW$85, DW_AT_low_pc(0x00)
    1399                      .dwattr $C$DW$85, DW_AT_TI_return
    1400 00064d 4804          RET
    1401                                                      ; return occurs
    1402                      .dwattr $C$DW$77, DW_AT_TI_end_file("../c5535_bsl_revc/ezdsp5535_v1/c55xx_csl/src/csl_mmcsd_ataIf.c")
    1403                      .dwattr $C$DW$77, DW_AT_TI_end_line(0x277)
    1404                      .dwattr $C$DW$77, DW_AT_TI_end_column(0x01)
    1405                      .dwendentry
    1406                      .dwendtag $C$DW$77
    1407              
    1408 00064f               .sect   ".text"
    1409                      .align 4
    1410                      .global _MMC_readNextWord1
    1411              
    1412              $C$DW$86        .dwtag  DW_TAG_subprogram, DW_AT_name("MMC_readNextWord1")
    1413                      .dwattr $C$DW$86, DW_AT_low_pc(_MMC_readNextWord1)
    1414                      .dwattr $C$DW$86, DW_AT_high_pc(0x00)
    1415                      .dwattr $C$DW$86, DW_AT_TI_symbol_name("_MMC_readNextWord1")
    1416                      .dwattr $C$DW$86, DW_AT_external
    1417                      .dwattr $C$DW$86, DW_AT_type(*$C$DW$T$107)
TMS320C55x Assembler PC v4.4.1 Fri Sep 14 23:31:58 2018

Tools Copyright (c) 1996-2012 Texas Instruments Incorporated
csl_mmcsd_ataIf.asm                                                  PAGE   35

    1418                      .dwattr $C$DW$86, DW_AT_TI_begin_file("../c5535_bsl_revc/ezdsp5535_v1/c55xx_csl/src/csl_mmcsd_ataIf.c
    1419                      .dwattr $C$DW$86, DW_AT_TI_begin_line(0x2b7)
    1420                      .dwattr $C$DW$86, DW_AT_TI_begin_column(0x0a)
    1421                      .dwattr $C$DW$86, DW_AT_TI_max_frame_size(0x0c)
    1422                      .dwpsn  file "../c5535_bsl_revc/ezdsp5535_v1/c55xx_csl/src/csl_mmcsd_ataIf.c",line 698,column 1,is_st
    1423              
    1424                      .dwfde $C$DW$CIE, _MMC_readNextWord1
    1425              $C$DW$87        .dwtag  DW_TAG_formal_parameter, DW_AT_name("pAtaMediaState")
    1426                      .dwattr $C$DW$87, DW_AT_TI_symbol_name("_pAtaMediaState")
    1427                      .dwattr $C$DW$87, DW_AT_type(*$C$DW$T$3)
    1428                      .dwattr $C$DW$87, DW_AT_location[DW_OP_reg17]
    1429              $C$DW$88        .dwtag  DW_TAG_formal_parameter, DW_AT_name("pWord")
    1430                      .dwattr $C$DW$88, DW_AT_TI_symbol_name("_pWord")
    1431                      .dwattr $C$DW$88, DW_AT_type(*$C$DW$T$102)
    1432                      .dwattr $C$DW$88, DW_AT_location[DW_OP_reg19]
    1433              $C$DW$89        .dwtag  DW_TAG_formal_parameter, DW_AT_name("word_delta")
    1434                      .dwattr $C$DW$89, DW_AT_TI_symbol_name("_word_delta")
    1435                      .dwattr $C$DW$89, DW_AT_type(*$C$DW$T$101)
    1436                      .dwattr $C$DW$89, DW_AT_location[DW_OP_reg12]
    1437              ;*******************************************************************************
    1438              ;* FUNCTION NAME: MMC_readNextWord1                                            *
    1439              ;*                                                                             *
    1440              ;*   Function Uses Regs : AC0,AC0,AC1,AC1,T0,AR0,XAR0,AR1,XAR1,AR2,XAR2,AR3,   *
    1441              ;*                        XAR3,SP,CARRY,TC1,M40,SATA,SATD,RDM,FRCT,SMUL        *
    1442              ;*   Stack Frame        : Compact (No Frame Pointer, w/ debug)                 *
    1443              ;*   Total Frame Size   : 12 words                                             *
    1444              ;*                        (2 return address/alignment)                         *
    1445              ;*                        (10 local values)                                    *
    1446              ;*   Min System Stack   : 1 word                                               *
    1447              ;*******************************************************************************
    1448 000650       _MMC_readNextWord1:
    1449                      .dwcfi  cfa_offset, 1
    1450                      .dwcfi  save_reg_to_mem, 91, -1
    1451 000650 4EF5          AADD #-11, SP
    1452                      .dwcfi  cfa_offset, 12
    1453              $C$DW$90        .dwtag  DW_TAG_variable, DW_AT_name("pAtaMediaState")
    1454                      .dwattr $C$DW$90, DW_AT_TI_symbol_name("_pAtaMediaState")
    1455                      .dwattr $C$DW$90, DW_AT_type(*$C$DW$T$3)
    1456                      .dwattr $C$DW$90, DW_AT_location[DW_OP_bregx 0x24 0]
    1457              $C$DW$91        .dwtag  DW_TAG_variable, DW_AT_name("pWord")
    1458                      .dwattr $C$DW$91, DW_AT_TI_symbol_name("_pWord")
    1459                      .dwattr $C$DW$91, DW_AT_type(*$C$DW$T$102)
    1460                      .dwattr $C$DW$91, DW_AT_location[DW_OP_bregx 0x24 2]
    1461              $C$DW$92        .dwtag  DW_TAG_variable, DW_AT_name("word_delta")
    1462                      .dwattr $C$DW$92, DW_AT_TI_symbol_name("_word_delta")
    1463                      .dwattr $C$DW$92, DW_AT_type(*$C$DW$T$101)
    1464                      .dwattr $C$DW$92, DW_AT_location[DW_OP_bregx 0x24 4]
    1465              $C$DW$93        .dwtag  DW_TAG_variable, DW_AT_name("pMediaState")
    1466                      .dwattr $C$DW$93, DW_AT_TI_symbol_name("_pMediaState")
    1467                      .dwattr $C$DW$93, DW_AT_type(*$C$DW$T$137)
    1468                      .dwattr $C$DW$93, DW_AT_location[DW_OP_bregx 0x24 6]
    1469              $C$DW$94        .dwtag  DW_TAG_variable, DW_AT_name("ataResult")
    1470                      .dwattr $C$DW$94, DW_AT_TI_symbol_name("_ataResult")
    1471                      .dwattr $C$DW$94, DW_AT_type(*$C$DW$T$107)
    1472                      .dwattr $C$DW$94, DW_AT_location[DW_OP_bregx 0x24 8]
TMS320C55x Assembler PC v4.4.1 Fri Sep 14 23:31:58 2018

Tools Copyright (c) 1996-2012 Texas Instruments Incorporated
csl_mmcsd_ataIf.asm                                                  PAGE   36

    1473              $C$DW$95        .dwtag  DW_TAG_variable, DW_AT_name("temp")
    1474                      .dwattr $C$DW$95, DW_AT_TI_symbol_name("_temp")
    1475                      .dwattr $C$DW$95, DW_AT_type(*$C$DW$T$101)
    1476                      .dwattr $C$DW$95, DW_AT_location[DW_OP_bregx 0x24 9]
    1477 000652 C408          MOV T0, *SP(#4) ; |698| 
    1478 000654 EB04          MOV XAR1, dbl(*SP(#2))
         000656 95   
    1479 000657 EB00          MOV XAR0, dbl(*SP(#0))
         000659 85   
    1480                      .dwpsn  file "../c5535_bsl_revc/ezdsp5535_v1/c55xx_csl/src/csl_mmcsd_ataIf.c",line 703,column 5,is_st
    1481 00065a E610          MOV #0, *SP(#8) ; |703| 
         00065c 00   
    1482                      .dwpsn  file "../c5535_bsl_revc/ezdsp5535_v1/c55xx_csl/src/csl_mmcsd_ataIf.c",line 705,column 2,is_st
    1483 00065d ED00          MOV dbl(*SP(#0)), XAR3
         00065f BF   
    1484              
    1485 000660 90B0          MOV XAR3, AC0
    1486 000662 3D01  ||      MOV #0, AC1 ; |705| 
    1487              
    1488 000664 121C          CMPU AC1 != AC0, TC1 ; |705| 
         000666 04   
    1489 000667 64E4          BCC $C$L41,TC1 ; |705| 
    1490                                                      ; branchcc occurs ; |705| 
    1491                      .dwpsn  file "../c5535_bsl_revc/ezdsp5535_v1/c55xx_csl/src/csl_mmcsd_ataIf.c",line 707,column 3,is_st
    1492 000669 FB10          MOV #768, *SP(#8) ; |707| 
         00066b 0300 
    1493                      .dwpsn  file "../c5535_bsl_revc/ezdsp5535_v1/c55xx_csl/src/csl_mmcsd_ataIf.c",line 708,column 3,is_st
    1494 00066d A410          MOV *SP(#8), T0 ; |708| 
    1495 00066f 0600          B $C$L44  ; |708| 
         000671 4C   
    1496                                                      ; branch occurs ; |708| 
    1497 000672       $C$L41:    
    1498                      .dwpsn  file "../c5535_bsl_revc/ezdsp5535_v1/c55xx_csl/src/csl_mmcsd_ataIf.c",line 711,column 5,is_st
    1499 000672 EB0C          MOV XAR3, dbl(*SP(#6))
         000674 B5   
    1500                      .dwpsn  file "../c5535_bsl_revc/ezdsp5535_v1/c55xx_csl/src/csl_mmcsd_ataIf.c",line 727,column 5,is_st
    1501 000675 7601          MOV #256, AR2 ; |727| 
         000677 00A8 
    1502 000679 A908          MOV *SP(#4), AR1 ; |727| 
    1503 00067b 1294          CMPU AR1 < AR2, TC1 ; |727| 
         00067d A4   
    1504 00067e 0464          BCC $C$L42,TC1 ; |727| 
         000680 1F   
    1505                                                      ; branchcc occurs ; |727| 
    1506                      .dwpsn  file "../c5535_bsl_revc/ezdsp5535_v1/c55xx_csl/src/csl_mmcsd_ataIf.c",line 729,column 4,is_st
    1507 000681 7C01          SUB #256, AR1, AR1 ; |729| 
         000683 0099 
    1508 000685 C912          MOV AR1, *SP(#9) ; |729| 
    1509                      .dwpsn  file "../c5535_bsl_revc/ezdsp5535_v1/c55xx_csl/src/csl_mmcsd_ataIf.c",line 730,column 4,is_st
    1510 000687 ED31          MOV dbl(*(#_gNextPhySector)), AC0 ; |730| 
         000689 0800 
         00068b 0102-
    1511 00068d ED0C          MOV dbl(*SP(#6)), XAR0
         00068f 8F   
    1512              $C$DW$96        .dwtag  DW_TAG_TI_branch
TMS320C55x Assembler PC v4.4.1 Fri Sep 14 23:31:58 2018

Tools Copyright (c) 1996-2012 Texas Instruments Incorporated
csl_mmcsd_ataIf.asm                                                  PAGE   37

    1513                      .dwattr $C$DW$96, DW_AT_low_pc(0x00)
    1514                      .dwattr $C$DW$96, DW_AT_name("_MMC_issueReadCommand")
    1515                      .dwattr $C$DW$96, DW_AT_TI_call
    1516              
    1517 000690 08FD          CALL #_MMC_issueReadCommand ; |730| 
         000692 8F   
    1518 000693 3D14  ||      MOV #1, T0
    1519              
    1520                                                      ; call occurs [#_MMC_issueReadCommand] ; |730| 
    1521 000695 C410          MOV T0, *SP(#8) ; |730| 
    1522                      .dwpsn  file "../c5535_bsl_revc/ezdsp5535_v1/c55xx_csl/src/csl_mmcsd_ataIf.c",line 731,column 4,is_st
    1523 000697 A912          MOV *SP(#9), AR1 ; |731| 
    1524 000699 C931          MOV AR1, *(#_gWordCount) ; |731| 
         00069b 0001 
         00069d 00-  
    1525                      .dwpsn  file "../c5535_bsl_revc/ezdsp5535_v1/c55xx_csl/src/csl_mmcsd_ataIf.c",line 732,column 5,is_st
    1526 00069e 4A05          B $C$L43  ; |732| 
    1527                                                      ; branch occurs ; |732| 
    1528 0006a0       $C$L42:    
    1529                      .dwpsn  file "../c5535_bsl_revc/ezdsp5535_v1/c55xx_csl/src/csl_mmcsd_ataIf.c",line 735,column 4,is_st
    1530 0006a0 C931          MOV AR1, *(#_gWordCount) ; |735| 
         0006a2 0001 
         0006a4 00-  
    1531 0006a5       $C$L43:    
    1532                      .dwpsn  file "../c5535_bsl_revc/ezdsp5535_v1/c55xx_csl/src/csl_mmcsd_ataIf.c",line 738,column 2,is_st
    1533 0006a5 2294          MOV AR1, T0
    1534 0006a7 ED04          MOV dbl(*SP(#2)), XAR2
         0006a9 AF   
    1535 0006aa EC31          AMOV #_gReadBuf, XAR3 ; |738| 
         0006ac BE00 
         0006ae 0000-
    1536 0006b0 7B00          ADD #1, T0, AR1 ; |738| 
         0006b2 0194 
    1537 0006b4 C931          MOV AR1, *(#_gWordCount) ; |738| 
         0006b6 0001 
         0006b8 00-  
    1538 0006b9 807D          MOV *AR3(T0), *AR2 ; |738| 
         0006bb 04   
    1539                      .dwpsn  file "../c5535_bsl_revc/ezdsp5535_v1/c55xx_csl/src/csl_mmcsd_ataIf.c",line 740,column 5,is_st
    1540 0006bc A410          MOV *SP(#8), T0 ; |740| 
    1541 0006be       $C$L44:    
    1542                      .dwpsn  file "../c5535_bsl_revc/ezdsp5535_v1/c55xx_csl/src/csl_mmcsd_ataIf.c",line 741,column 1,is_st
    1543 0006be 4E0B          AADD #11, SP
    1544                      .dwcfi  cfa_offset, 1
    1545              $C$DW$97        .dwtag  DW_TAG_TI_branch
    1546                      .dwattr $C$DW$97, DW_AT_low_pc(0x00)
    1547                      .dwattr $C$DW$97, DW_AT_TI_return
    1548 0006c0 4804          RET
    1549                                                      ; return occurs
    1550                      .dwattr $C$DW$86, DW_AT_TI_end_file("../c5535_bsl_revc/ezdsp5535_v1/c55xx_csl/src/csl_mmcsd_ataIf.c")
    1551                      .dwattr $C$DW$86, DW_AT_TI_end_line(0x2e5)
    1552                      .dwattr $C$DW$86, DW_AT_TI_end_column(0x01)
    1553                      .dwendentry
    1554                      .dwendtag $C$DW$86
    1555              
TMS320C55x Assembler PC v4.4.1 Fri Sep 14 23:31:58 2018

Tools Copyright (c) 1996-2012 Texas Instruments Incorporated
csl_mmcsd_ataIf.asm                                                  PAGE   38

    1556 0006c2               .sect   ".text"
    1557                      .align 4
    1558                      .global _MMC_readNextNWords
    1559              
    1560              $C$DW$98        .dwtag  DW_TAG_subprogram, DW_AT_name("MMC_readNextNWords")
    1561                      .dwattr $C$DW$98, DW_AT_low_pc(_MMC_readNextNWords)
    1562                      .dwattr $C$DW$98, DW_AT_high_pc(0x00)
    1563                      .dwattr $C$DW$98, DW_AT_TI_symbol_name("_MMC_readNextNWords")
    1564                      .dwattr $C$DW$98, DW_AT_external
    1565                      .dwattr $C$DW$98, DW_AT_type(*$C$DW$T$107)
    1566                      .dwattr $C$DW$98, DW_AT_TI_begin_file("../c5535_bsl_revc/ezdsp5535_v1/c55xx_csl/src/csl_mmcsd_ataIf.c
    1567                      .dwattr $C$DW$98, DW_AT_TI_begin_line(0x31f)
    1568                      .dwattr $C$DW$98, DW_AT_TI_begin_column(0x0a)
    1569                      .dwattr $C$DW$98, DW_AT_TI_max_frame_size(0x0c)
    1570                      .dwpsn  file "../c5535_bsl_revc/ezdsp5535_v1/c55xx_csl/src/csl_mmcsd_ataIf.c",line 802,column 1,is_st
    1571              
    1572                      .dwfde $C$DW$CIE, _MMC_readNextNWords
    1573              $C$DW$99        .dwtag  DW_TAG_formal_parameter, DW_AT_name("pAtaMediaState")
    1574                      .dwattr $C$DW$99, DW_AT_TI_symbol_name("_pAtaMediaState")
    1575                      .dwattr $C$DW$99, DW_AT_type(*$C$DW$T$3)
    1576                      .dwattr $C$DW$99, DW_AT_location[DW_OP_reg17]
    1577              $C$DW$100       .dwtag  DW_TAG_formal_parameter, DW_AT_name("pData")
    1578                      .dwattr $C$DW$100, DW_AT_TI_symbol_name("_pData")
    1579                      .dwattr $C$DW$100, DW_AT_type(*$C$DW$T$102)
    1580                      .dwattr $C$DW$100, DW_AT_location[DW_OP_reg19]
    1581              $C$DW$101       .dwtag  DW_TAG_formal_parameter, DW_AT_name("words")
    1582                      .dwattr $C$DW$101, DW_AT_TI_symbol_name("_words")
    1583                      .dwattr $C$DW$101, DW_AT_type(*$C$DW$T$101)
    1584                      .dwattr $C$DW$101, DW_AT_location[DW_OP_reg12]
    1585              ;*******************************************************************************
    1586              ;* FUNCTION NAME: MMC_readNextNWords                                           *
    1587              ;*                                                                             *
    1588              ;*   Function Uses Regs : AC0,AC0,AC1,AC1,T0,AR0,XAR0,AR1,XAR1,AR2,AR3,XAR3,SP,*
    1589              ;*                        CARRY,TC1,M40,SATA,SATD,RDM,FRCT,SMUL                *
    1590              ;*   Stack Frame        : Compact (No Frame Pointer, w/ debug)                 *
    1591              ;*   Total Frame Size   : 12 words                                             *
    1592              ;*                        (2 return address/alignment)                         *
    1593              ;*                        (10 local values)                                    *
    1594              ;*   Min System Stack   : 1 word                                               *
    1595              ;*******************************************************************************
    1596 0006c4       _MMC_readNextNWords:
    1597                      .dwcfi  cfa_offset, 1
    1598                      .dwcfi  save_reg_to_mem, 91, -1
    1599 0006c4 4EF5          AADD #-11, SP
    1600                      .dwcfi  cfa_offset, 12
    1601              $C$DW$102       .dwtag  DW_TAG_variable, DW_AT_name("pAtaMediaState")
    1602                      .dwattr $C$DW$102, DW_AT_TI_symbol_name("_pAtaMediaState")
    1603                      .dwattr $C$DW$102, DW_AT_type(*$C$DW$T$3)
    1604                      .dwattr $C$DW$102, DW_AT_location[DW_OP_bregx 0x24 0]
    1605              $C$DW$103       .dwtag  DW_TAG_variable, DW_AT_name("pData")
    1606                      .dwattr $C$DW$103, DW_AT_TI_symbol_name("_pData")
    1607                      .dwattr $C$DW$103, DW_AT_type(*$C$DW$T$102)
    1608                      .dwattr $C$DW$103, DW_AT_location[DW_OP_bregx 0x24 2]
    1609              $C$DW$104       .dwtag  DW_TAG_variable, DW_AT_name("words")
    1610                      .dwattr $C$DW$104, DW_AT_TI_symbol_name("_words")
TMS320C55x Assembler PC v4.4.1 Fri Sep 14 23:31:58 2018

Tools Copyright (c) 1996-2012 Texas Instruments Incorporated
csl_mmcsd_ataIf.asm                                                  PAGE   39

    1611                      .dwattr $C$DW$104, DW_AT_type(*$C$DW$T$101)
    1612                      .dwattr $C$DW$104, DW_AT_location[DW_OP_bregx 0x24 4]
    1613              $C$DW$105       .dwtag  DW_TAG_variable, DW_AT_name("result")
    1614                      .dwattr $C$DW$105, DW_AT_TI_symbol_name("_result")
    1615                      .dwattr $C$DW$105, DW_AT_type(*$C$DW$T$107)
    1616                      .dwattr $C$DW$105, DW_AT_location[DW_OP_bregx 0x24 5]
    1617              $C$DW$106       .dwtag  DW_TAG_variable, DW_AT_name("index")
    1618                      .dwattr $C$DW$106, DW_AT_TI_symbol_name("_index")
    1619                      .dwattr $C$DW$106, DW_AT_type(*$C$DW$T$19)
    1620                      .dwattr $C$DW$106, DW_AT_location[DW_OP_bregx 0x24 6]
    1621              $C$DW$107       .dwtag  DW_TAG_variable, DW_AT_name("pMediaState")
    1622                      .dwattr $C$DW$107, DW_AT_TI_symbol_name("_pMediaState")
    1623                      .dwattr $C$DW$107, DW_AT_type(*$C$DW$T$137)
    1624                      .dwattr $C$DW$107, DW_AT_location[DW_OP_bregx 0x24 8]
    1625 0006c6 C408          MOV T0, *SP(#4) ; |802| 
    1626 0006c8 EB04          MOV XAR1, dbl(*SP(#2))
         0006ca 95   
    1627 0006cb EB00          MOV XAR0, dbl(*SP(#0))
         0006cd 85   
    1628                      .dwpsn  file "../c5535_bsl_revc/ezdsp5535_v1/c55xx_csl/src/csl_mmcsd_ataIf.c",line 808,column 5,is_st
    1629 0006ce E60A          MOV #0, *SP(#5) ; |808| 
         0006d0 00   
    1630                      .dwpsn  file "../c5535_bsl_revc/ezdsp5535_v1/c55xx_csl/src/csl_mmcsd_ataIf.c",line 810,column 5,is_st
    1631 0006d1 ED00          MOV dbl(*SP(#0)), XAR3
         0006d3 BF   
    1632              
    1633 0006d4 90B0          MOV XAR3, AC0
    1634 0006d6 3D01  ||      MOV #0, AC1 ; |810| 
    1635              
    1636 0006d8 1210          CMPU AC1 == AC0, TC1 ; |810| 
         0006da 04   
    1637 0006db 0464          BCC $C$L45,TC1 ; |810| 
         0006dd 13   
    1638                                                      ; branchcc occurs ; |810| 
    1639 0006de ED04          MOV dbl(*SP(#2)), XAR3
         0006e0 BF   
    1640 0006e1 90B0          MOV XAR3, AC0
    1641 0006e3 1210          CMPU AC1 == AC0, TC1 ; |810| 
         0006e5 04   
    1642 0006e6 64E4          BCC $C$L45,TC1 ; |810| 
    1643                                                      ; branchcc occurs ; |810| 
    1644              
    1645 0006ea 3D0A          MOV #0, AR2
    1646 0006e8 A908  ||      MOV *SP(#4), AR1 ; |810| 
    1647              
    1648 0006ec 12AC          CMPU AR2 != AR1, TC1 ; |810| 
         0006ee 94   
    1649 0006ef 6364          BCC $C$L46,TC1 ; |810| 
    1650                                                      ; branchcc occurs ; |810| 
    1651 0006f1       $C$L45:    
    1652                      .dwpsn  file "../c5535_bsl_revc/ezdsp5535_v1/c55xx_csl/src/csl_mmcsd_ataIf.c",line 814,column 3,is_st
    1653 0006f1 7603          MOV #768, T0 ; |814| 
         0006f3 0048 
    1654 0006f5 4A37          B $C$L49  ; |814| 
    1655                                                      ; branch occurs ; |814| 
TMS320C55x Assembler PC v4.4.1 Fri Sep 14 23:31:58 2018

Tools Copyright (c) 1996-2012 Texas Instruments Incorporated
csl_mmcsd_ataIf.asm                                                  PAGE   40

    1656 0006f7       $C$L46:    
    1657                      .dwpsn  file "../c5535_bsl_revc/ezdsp5535_v1/c55xx_csl/src/csl_mmcsd_ataIf.c",line 817,column 5,is_st
    1658 0006f7 ED00          MOV dbl(*SP(#0)), XAR3
         0006f9 BF   
    1659 0006fa EB10          MOV XAR3, dbl(*SP(#8))
         0006fc B5   
    1660                      .dwpsn  file "../c5535_bsl_revc/ezdsp5535_v1/c55xx_csl/src/csl_mmcsd_ataIf.c",line 820,column 9,is_st
    1661 0006fd E60C          MOV #0, *SP(#6) ; |820| 
         0006ff 00   
    1662                      .dwpsn  file "../c5535_bsl_revc/ezdsp5535_v1/c55xx_csl/src/csl_mmcsd_ataIf.c",line 820,column 20,is_s
    1663 000700 A908          MOV *SP(#4), AR1 ; |820| 
    1664 000702 AA0C          MOV *SP(#6), AR2 ; |820| 
    1665 000704 12A8          CMPU AR2 >= AR1, TC1 ; |820| 
         000706 94   
    1666 000707 0464          BCC $C$L48,TC1 ; |820| 
         000709 22   
    1667                                                      ; branchcc occurs ; |820| 
    1668 00070a       $C$L47:    
    1669 00070a       $C$DW$L$_MMC_readNextNWords$6$B:
    1670                      .dwpsn  file "../c5535_bsl_revc/ezdsp5535_v1/c55xx_csl/src/csl_mmcsd_ataIf.c",line 822,column 3,is_st
    1671 00070a AA0C          MOV *SP(#6), AR2 ; |822| 
    1672 00070c ED04          MOV dbl(*SP(#2)), XAR1
         00070e 9F   
    1673 00070f ED10          MOV dbl(*SP(#8)), XAR0
         000711 8F   
    1674 000712 14A0          AADD AR2, AR1 ; |822| 
         000714 90   
    1675              $C$DW$108       .dwtag  DW_TAG_TI_branch
    1676                      .dwattr $C$DW$108, DW_AT_low_pc(0x00)
    1677                      .dwattr $C$DW$108, DW_AT_name("_MMC_readNextWord")
    1678                      .dwattr $C$DW$108, DW_AT_TI_call
    1679 000715 08FE          CALL #_MMC_readNextWord ; |822| 
         000717 C8   
    1680                                                      ; call occurs [#_MMC_readNextWord] ; |822| 
    1681 000718 C40A          MOV T0, *SP(#5) ; |822| 
    1682                      .dwpsn  file "../c5535_bsl_revc/ezdsp5535_v1/c55xx_csl/src/csl_mmcsd_ataIf.c",line 823,column 3,is_st
    1683 00071a 2249          MOV T0, AR1
    1684 00071c 6719          BCC $C$L48,AR1 != #0 ; |823| 
    1685                                                      ; branchcc occurs ; |823| 
    1686 00071e       $C$DW$L$_MMC_readNextNWords$6$E:
    1687 00071e       $C$DW$L$_MMC_readNextNWords$7$B:
    1688                      .dwpsn  file "../c5535_bsl_revc/ezdsp5535_v1/c55xx_csl/src/csl_mmcsd_ataIf.c",line 825,column 4,is_st
    1689                      .dwpsn  file "../c5535_bsl_revc/ezdsp5535_v1/c55xx_csl/src/csl_mmcsd_ataIf.c",line 820,column 35,is_s
    1690 00071e F70C          ADD #1, *SP(#6) ; |820| 
         000720 0001 
    1691                      .dwpsn  file "../c5535_bsl_revc/ezdsp5535_v1/c55xx_csl/src/csl_mmcsd_ataIf.c",line 820,column 20,is_s
    1692 000722 A908          MOV *SP(#4), AR1 ; |820| 
    1693 000724 AA0C          MOV *SP(#6), AR2 ; |820| 
    1694 000726 12A4          CMPU AR2 < AR1, TC1 ; |820| 
         000728 94   
    1695 000729 0464          BCC $C$L47,TC1 ; |820| 
         00072b DE   
    1696                                                      ; branchcc occurs ; |820| 
    1697 00072c       $C$DW$L$_MMC_readNextNWords$7$E:
    1698 00072c       $C$L48:    
TMS320C55x Assembler PC v4.4.1 Fri Sep 14 23:31:58 2018

Tools Copyright (c) 1996-2012 Texas Instruments Incorporated
csl_mmcsd_ataIf.asm                                                  PAGE   41

    1699                      .dwpsn  file "../c5535_bsl_revc/ezdsp5535_v1/c55xx_csl/src/csl_mmcsd_ataIf.c",line 829,column 2,is_st
    1700 00072c A40A          MOV *SP(#5), T0 ; |829| 
    1701 00072e       $C$L49:    
    1702                      .dwpsn  file "../c5535_bsl_revc/ezdsp5535_v1/c55xx_csl/src/csl_mmcsd_ataIf.c",line 830,column 1,is_st
    1703 00072e 4E0B          AADD #11, SP
    1704                      .dwcfi  cfa_offset, 1
    1705              $C$DW$109       .dwtag  DW_TAG_TI_branch
    1706                      .dwattr $C$DW$109, DW_AT_low_pc(0x00)
    1707                      .dwattr $C$DW$109, DW_AT_TI_return
    1708 000730 4804          RET
    1709                                                      ; return occurs
    1710              
    1711              $C$DW$110       .dwtag  DW_TAG_TI_loop
    1712                      .dwattr $C$DW$110, DW_AT_name("F:\eZdsp_DBG\eZDSP_5535_Files\ccsws2\test\Debug\csl_mmcsd_ataIf.asm:$C
    1713                      .dwattr $C$DW$110, DW_AT_TI_begin_file("../c5535_bsl_revc/ezdsp5535_v1/c55xx_csl/src/csl_mmcsd_ataIf.
    1714                      .dwattr $C$DW$110, DW_AT_TI_begin_line(0x334)
    1715                      .dwattr $C$DW$110, DW_AT_TI_end_line(0x33b)
    1716              $C$DW$111       .dwtag  DW_TAG_TI_loop_range
    1717                      .dwattr $C$DW$111, DW_AT_low_pc($C$DW$L$_MMC_readNextNWords$6$B)
    1718                      .dwattr $C$DW$111, DW_AT_high_pc($C$DW$L$_MMC_readNextNWords$6$E)
    1719              $C$DW$112       .dwtag  DW_TAG_TI_loop_range
    1720                      .dwattr $C$DW$112, DW_AT_low_pc($C$DW$L$_MMC_readNextNWords$7$B)
    1721                      .dwattr $C$DW$112, DW_AT_high_pc($C$DW$L$_MMC_readNextNWords$7$E)
    1722                      .dwendtag $C$DW$110
    1723              
    1724                      .dwattr $C$DW$98, DW_AT_TI_end_file("../c5535_bsl_revc/ezdsp5535_v1/c55xx_csl/src/csl_mmcsd_ataIf.c")
    1725                      .dwattr $C$DW$98, DW_AT_TI_end_line(0x33e)
    1726                      .dwattr $C$DW$98, DW_AT_TI_end_column(0x01)
    1727                      .dwendentry
    1728                      .dwendtag $C$DW$98
    1729              
    1730 000732               .sect   ".text"
    1731                      .align 4
    1732                      .global _MMC_writeSector
    1733              
    1734              $C$DW$113       .dwtag  DW_TAG_subprogram, DW_AT_name("MMC_writeSector")
    1735                      .dwattr $C$DW$113, DW_AT_low_pc(_MMC_writeSector)
    1736                      .dwattr $C$DW$113, DW_AT_high_pc(0x00)
    1737                      .dwattr $C$DW$113, DW_AT_TI_symbol_name("_MMC_writeSector")
    1738                      .dwattr $C$DW$113, DW_AT_external
    1739                      .dwattr $C$DW$113, DW_AT_type(*$C$DW$T$107)
    1740                      .dwattr $C$DW$113, DW_AT_TI_begin_file("../c5535_bsl_revc/ezdsp5535_v1/c55xx_csl/src/csl_mmcsd_ataIf.
    1741                      .dwattr $C$DW$113, DW_AT_TI_begin_line(0x37a)
    1742                      .dwattr $C$DW$113, DW_AT_TI_begin_column(0x0a)
    1743                      .dwattr $C$DW$113, DW_AT_TI_max_frame_size(0x10)
    1744                      .dwpsn  file "../c5535_bsl_revc/ezdsp5535_v1/c55xx_csl/src/csl_mmcsd_ataIf.c",line 894,column 1,is_st
    1745              
    1746                      .dwfde $C$DW$CIE, _MMC_writeSector
    1747              $C$DW$114       .dwtag  DW_TAG_formal_parameter, DW_AT_name("phySector")
    1748                      .dwattr $C$DW$114, DW_AT_TI_symbol_name("_phySector")
    1749                      .dwattr $C$DW$114, DW_AT_type(*$C$DW$T$105)
    1750                      .dwattr $C$DW$114, DW_AT_location[DW_OP_reg0]
    1751              $C$DW$115       .dwtag  DW_TAG_formal_parameter, DW_AT_name("pAtaMediaState")
    1752                      .dwattr $C$DW$115, DW_AT_TI_symbol_name("_pAtaMediaState")
    1753                      .dwattr $C$DW$115, DW_AT_type(*$C$DW$T$3)
TMS320C55x Assembler PC v4.4.1 Fri Sep 14 23:31:58 2018

Tools Copyright (c) 1996-2012 Texas Instruments Incorporated
csl_mmcsd_ataIf.asm                                                  PAGE   42

    1754                      .dwattr $C$DW$115, DW_AT_location[DW_OP_reg17]
    1755              $C$DW$116       .dwtag  DW_TAG_formal_parameter, DW_AT_name("pWord")
    1756                      .dwattr $C$DW$116, DW_AT_TI_symbol_name("_pWord")
    1757                      .dwattr $C$DW$116, DW_AT_type(*$C$DW$T$102)
    1758                      .dwattr $C$DW$116, DW_AT_location[DW_OP_reg19]
    1759              $C$DW$117       .dwtag  DW_TAG_formal_parameter, DW_AT_name("byteSwap")
    1760                      .dwattr $C$DW$117, DW_AT_TI_symbol_name("_byteSwap")
    1761                      .dwattr $C$DW$117, DW_AT_type(*$C$DW$T$10)
    1762                      .dwattr $C$DW$117, DW_AT_location[DW_OP_reg12]
    1763              ;*******************************************************************************
    1764              ;* FUNCTION NAME: MMC_writeSector                                              *
    1765              ;*                                                                             *
    1766              ;*   Function Uses Regs : AC0,AC0,AC1,AC1,T0,AR0,XAR0,AR1,XAR1,AR2,AR3,XAR3,SP,*
    1767              ;*                        CARRY,TC1,M40,SATA,SATD,RDM,FRCT,SMUL                *
    1768              ;*   Stack Frame        : Compact (No Frame Pointer, w/ debug)                 *
    1769              ;*   Total Frame Size   : 16 words                                             *
    1770              ;*                        (1 return address/alignment)                         *
    1771              ;*                        (15 local values)                                    *
    1772              ;*   Min System Stack   : 1 word                                               *
    1773              ;*******************************************************************************
    1774 000734       _MMC_writeSector:
    1775                      .dwcfi  cfa_offset, 1
    1776                      .dwcfi  save_reg_to_mem, 91, -1
    1777 000734 4EF1          AADD #-15, SP
    1778                      .dwcfi  cfa_offset, 16
    1779              $C$DW$118       .dwtag  DW_TAG_variable, DW_AT_name("phySector")
    1780                      .dwattr $C$DW$118, DW_AT_TI_symbol_name("_phySector")
    1781                      .dwattr $C$DW$118, DW_AT_type(*$C$DW$T$105)
    1782                      .dwattr $C$DW$118, DW_AT_location[DW_OP_bregx 0x24 0]
    1783              $C$DW$119       .dwtag  DW_TAG_variable, DW_AT_name("pAtaMediaState")
    1784                      .dwattr $C$DW$119, DW_AT_TI_symbol_name("_pAtaMediaState")
    1785                      .dwattr $C$DW$119, DW_AT_type(*$C$DW$T$3)
    1786                      .dwattr $C$DW$119, DW_AT_location[DW_OP_bregx 0x24 2]
    1787              $C$DW$120       .dwtag  DW_TAG_variable, DW_AT_name("pWord")
    1788                      .dwattr $C$DW$120, DW_AT_TI_symbol_name("_pWord")
    1789                      .dwattr $C$DW$120, DW_AT_type(*$C$DW$T$102)
    1790                      .dwattr $C$DW$120, DW_AT_location[DW_OP_bregx 0x24 4]
    1791              $C$DW$121       .dwtag  DW_TAG_variable, DW_AT_name("byteSwap")
    1792                      .dwattr $C$DW$121, DW_AT_TI_symbol_name("_byteSwap")
    1793                      .dwattr $C$DW$121, DW_AT_type(*$C$DW$T$10)
    1794                      .dwattr $C$DW$121, DW_AT_location[DW_OP_bregx 0x24 6]
    1795              $C$DW$122       .dwtag  DW_TAG_variable, DW_AT_name("result")
    1796                      .dwattr $C$DW$122, DW_AT_TI_symbol_name("_result")
    1797                      .dwattr $C$DW$122, DW_AT_type(*$C$DW$T$139)
    1798                      .dwattr $C$DW$122, DW_AT_location[DW_OP_bregx 0x24 7]
    1799              $C$DW$123       .dwtag  DW_TAG_variable, DW_AT_name("ataResult")
    1800                      .dwattr $C$DW$123, DW_AT_TI_symbol_name("_ataResult")
    1801                      .dwattr $C$DW$123, DW_AT_type(*$C$DW$T$107)
    1802                      .dwattr $C$DW$123, DW_AT_location[DW_OP_bregx 0x24 8]
    1803              $C$DW$124       .dwtag  DW_TAG_variable, DW_AT_name("pMediaState")
    1804                      .dwattr $C$DW$124, DW_AT_TI_symbol_name("_pMediaState")
    1805                      .dwattr $C$DW$124, DW_AT_type(*$C$DW$T$137)
    1806                      .dwattr $C$DW$124, DW_AT_location[DW_OP_bregx 0x24 10]
    1807              $C$DW$125       .dwtag  DW_TAG_variable, DW_AT_name("hMmcSd")
    1808                      .dwattr $C$DW$125, DW_AT_TI_symbol_name("_hMmcSd")
TMS320C55x Assembler PC v4.4.1 Fri Sep 14 23:31:58 2018

Tools Copyright (c) 1996-2012 Texas Instruments Incorporated
csl_mmcsd_ataIf.asm                                                  PAGE   43

    1809                      .dwattr $C$DW$125, DW_AT_type(*$C$DW$T$135)
    1810                      .dwattr $C$DW$125, DW_AT_location[DW_OP_bregx 0x24 12]
    1811              $C$DW$126       .dwtag  DW_TAG_variable, DW_AT_name("writeEndianMode")
    1812                      .dwattr $C$DW$126, DW_AT_TI_symbol_name("_writeEndianMode")
    1813                      .dwattr $C$DW$126, DW_AT_type(*$C$DW$T$97)
    1814                      .dwattr $C$DW$126, DW_AT_location[DW_OP_bregx 0x24 14]
    1815 000736 C40C          MOV T0, *SP(#6) ; |894| 
    1816 000738 EB08          MOV XAR1, dbl(*SP(#4))
         00073a 95   
    1817 00073b EB04          MOV XAR0, dbl(*SP(#2))
         00073d 85   
    1818 00073e EB00          MOV AC0, dbl(*SP(#0)) ; |894| 
         000740 08   
    1819                      .dwpsn  file "../c5535_bsl_revc/ezdsp5535_v1/c55xx_csl/src/csl_mmcsd_ataIf.c",line 904,column 5,is_st
    1820 000741 E60E          MOV #0, *SP(#7) ; |904| 
         000743 00   
    1821                      .dwpsn  file "../c5535_bsl_revc/ezdsp5535_v1/c55xx_csl/src/csl_mmcsd_ataIf.c",line 905,column 5,is_st
    1822 000744 E610          MOV #0, *SP(#8) ; |905| 
         000746 00   
    1823                      .dwpsn  file "../c5535_bsl_revc/ezdsp5535_v1/c55xx_csl/src/csl_mmcsd_ataIf.c",line 907,column 2,is_st
    1824 000747 ED04          MOV dbl(*SP(#2)), XAR3
         000749 BF   
    1825 00074a EB14          MOV XAR3, dbl(*SP(#10))
         00074c B5   
    1826                      .dwpsn  file "../c5535_bsl_revc/ezdsp5535_v1/c55xx_csl/src/csl_mmcsd_ataIf.c",line 909,column 5,is_st
    1827 00074d ED04          MOV dbl(*SP(#2)), XAR3
         00074f BF   
    1828              
    1829 000750 90B0          MOV XAR3, AC0
    1830 000752 3D01  ||      MOV #0, AC1 ; |909| 
    1831              
    1832 000754 1210          CMPU AC1 == AC0, TC1 ; |909| 
         000756 04   
    1833 000757 0464          BCC $C$L50,TC1 ; |909| 
         000759 17   
    1834                                                      ; branchcc occurs ; |909| 
    1835 00075a ED14          MOV dbl(*SP(#10)), XAR3
         00075c BF   
    1836 00075d ED61          MOV dbl(*AR3), XAR3
         00075f BF   
    1837 000760 90B0          MOV XAR3, AC0
    1838 000762 1210          CMPU AC1 == AC0, TC1 ; |909| 
         000764 04   
    1839 000765 6564          BCC $C$L50,TC1 ; |909| 
    1840                                                      ; branchcc occurs ; |909| 
    1841 000767 ED08          MOV dbl(*SP(#4)), XAR3
         000769 BF   
    1842 00076a 90B0          MOV XAR3, AC0
    1843 00076c 121C          CMPU AC1 != AC0, TC1 ; |909| 
         00076e 04   
    1844 00076f 63E4          BCC $C$L51,TC1 ; |909| 
    1845                                                      ; branchcc occurs ; |909| 
    1846 000771       $C$L50:    
    1847                      .dwpsn  file "../c5535_bsl_revc/ezdsp5535_v1/c55xx_csl/src/csl_mmcsd_ataIf.c",line 913,column 3,is_st
    1848 000771 7603          MOV #768, T0 ; |913| 
TMS320C55x Assembler PC v4.4.1 Fri Sep 14 23:31:58 2018

Tools Copyright (c) 1996-2012 Texas Instruments Incorporated
csl_mmcsd_ataIf.asm                                                  PAGE   44

         000773 0048 
    1849 000775 0600          B $C$L58  ; |913| 
         000777 9D   
    1850                                                      ; branch occurs ; |913| 
    1851 000778       $C$L51:    
    1852                      .dwpsn  file "../c5535_bsl_revc/ezdsp5535_v1/c55xx_csl/src/csl_mmcsd_ataIf.c",line 916,column 2,is_st
    1853 000778 ED14          MOV dbl(*SP(#10)), XAR3
         00077a BF   
    1854 00077b ED61          MOV dbl(*AR3), XAR3
         00077d BF   
    1855 00077e EB18          MOV XAR3, dbl(*SP(#12))
         000780 B5   
    1856                      .dwpsn  file "../c5535_bsl_revc/ezdsp5535_v1/c55xx_csl/src/csl_mmcsd_ataIf.c",line 918,column 2,is_st
    1857 000781 ED75          MOV dbl(*AR3(short(#2))), XAR3
         000783 BF   
    1858 000784 ED6D          MOV dbl(*AR3(#12)), AC0 ; |918| 
         000786 0800 
         000788 0C   
    1859              
    1860 00078c 4310          SUB #1, AC0 ; |918| 
    1861 000789 ED00  ||      MOV dbl(*SP(#0)), AC1 ; |918| 
         00078b 18   
    1862              
    1863 00078e 1208          CMPU AC1 <= AC0, TC1 ; |918| 
         000790 14   
    1864 000791 64E4          BCC $C$L52,TC1 ; |918| 
    1865                                                      ; branchcc occurs ; |918| 
    1866                      .dwpsn  file "../c5535_bsl_revc/ezdsp5535_v1/c55xx_csl/src/csl_mmcsd_ataIf.c",line 920,column 3,is_st
    1867 000793 FB10          MOV #768, *SP(#8) ; |920| 
         000795 0300 
    1868                      .dwpsn  file "../c5535_bsl_revc/ezdsp5535_v1/c55xx_csl/src/csl_mmcsd_ataIf.c",line 921,column 3,is_st
    1869 000797 A410          MOV *SP(#8), T0 ; |921| 
    1870 000799 0600          B $C$L58  ; |921| 
         00079b 79   
    1871                                                      ; branch occurs ; |921| 
    1872 00079c       $C$L52:    
    1873                      .dwpsn  file "../c5535_bsl_revc/ezdsp5535_v1/c55xx_csl/src/csl_mmcsd_ataIf.c",line 927,column 3,is_st
    1874 00079c ED18          MOV dbl(*SP(#12)), XAR3
         00079e BF   
    1875 00079f A96D          MOV *AR3(#62), AR1 ; |927| 
         0007a1 003E 
    1876 0007a3 C91C          MOV AR1, *SP(#14) ; |927| 
    1877                      .dwpsn  file "../c5535_bsl_revc/ezdsp5535_v1/c55xx_csl/src/csl_mmcsd_ataIf.c",line 929,column 3,is_st
    1878 0007a5 3C1A          MOV #1, AR2
    1879 0007a7 A931          MOV *(#_ATA_No_Swap), AR1 ; |929| 
         0007a9 0005 
         0007ab 0C-  
    1880 0007ac 12AC          CMPU AR2 != AR1, TC1 ; |929| 
         0007ae 94   
    1881 0007af 6564          BCC $C$L53,TC1 ; |929| 
    1882                                                      ; branchcc occurs ; |929| 
    1883                      .dwpsn  file "../c5535_bsl_revc/ezdsp5535_v1/c55xx_csl/src/csl_mmcsd_ataIf.c",line 931,column 4,is_st
    1884 0007b1 ED18          MOV dbl(*SP(#12)), XAR3
         0007b3 BF   
    1885 0007b4 E66D          MOV #1, *AR3(#62) ; |931| 
TMS320C55x Assembler PC v4.4.1 Fri Sep 14 23:31:58 2018

Tools Copyright (c) 1996-2012 Texas Instruments Incorporated
csl_mmcsd_ataIf.asm                                                  PAGE   45

         0007b6 0100 
         0007b8 3E   
    1886                      .dwpsn  file "../c5535_bsl_revc/ezdsp5535_v1/c55xx_csl/src/csl_mmcsd_ataIf.c",line 932,column 3,is_st
    1887 0007b9 4A08          B $C$L54  ; |932| 
    1888                                                      ; branch occurs ; |932| 
    1889 0007bb       $C$L53:    
    1890                      .dwpsn  file "../c5535_bsl_revc/ezdsp5535_v1/c55xx_csl/src/csl_mmcsd_ataIf.c",line 935,column 4,is_st
    1891 0007bb ED18          MOV dbl(*SP(#12)), XAR3
         0007bd BF   
    1892 0007be E66D          MOV #0, *AR3(#62) ; |935| 
         0007c0 0000 
         0007c2 3E   
    1893 0007c3       $C$L54:    
    1894                      .dwpsn  file "../c5535_bsl_revc/ezdsp5535_v1/c55xx_csl/src/csl_mmcsd_ataIf.c",line 940,column 3,is_st
    1895 0007c3 ED18          MOV dbl(*SP(#12)), XAR3
         0007c5 BF   
    1896 0007c6 ED75          MOV dbl(*AR3(short(#2))), XAR3
         0007c8 BF   
    1897 0007c9 F06D          CMP *AR3(#26) == #1, TC1 ; |940| 
         0007cb 0001 
         0007cd 001A 
    1898 0007cf 0474          BCC $C$L55,!TC1 ; |940| 
         0007d1 15   
    1899                                                      ; branchcc occurs ; |940| 
    1900                      .dwpsn  file "../c5535_bsl_revc/ezdsp5535_v1/c55xx_csl/src/csl_mmcsd_ataIf.c",line 945,column 4,is_st
    1901 0007d2 ED18          MOV dbl(*SP(#12)), XAR0
         0007d4 8F   
    1902 0007d5 ED00          MOV dbl(*SP(#0)), AC0 ; |945| 
         0007d7 08   
    1903 0007d8 ED08          MOV dbl(*SP(#4)), XAR1
         0007da 9F   
    1904 0007db 7602          MOV #512, T0 ; |945| 
         0007dd 0048 
    1905              $C$DW$127       .dwtag  DW_TAG_TI_branch
    1906                      .dwattr $C$DW$127, DW_AT_low_pc(0x00)
    1907                      .dwattr $C$DW$127, DW_AT_name("_MMC_write")
    1908                      .dwattr $C$DW$127, DW_AT_TI_call
    1909 0007df 6C00          CALL #_MMC_write ; |945| 
         0007e1 0000!
    1910                                                      ; call occurs [#_MMC_write] ; |945| 
    1911 0007e3 C40E          MOV T0, *SP(#7) ; |945| 
    1912                      .dwpsn  file "../c5535_bsl_revc/ezdsp5535_v1/c55xx_csl/src/csl_mmcsd_ataIf.c",line 946,column 3,is_st
    1913 0007e5 4A16          B $C$L56  ; |946| 
    1914                                                      ; branch occurs ; |946| 
    1915 0007e7       $C$L55:    
    1916                      .dwpsn  file "../c5535_bsl_revc/ezdsp5535_v1/c55xx_csl/src/csl_mmcsd_ataIf.c",line 951,column 4,is_st
    1917 0007e7 ED18          MOV dbl(*SP(#12)), XAR0
         0007e9 8F   
    1918 0007ea ED08          MOV dbl(*SP(#4)), XAR1
         0007ec 9F   
    1919 0007ed ED00          MOV dbl(*SP(#0)), AC0 ; |951| 
         0007ef 08   
    1920 0007f0 7602          MOV #512, T0 ; |951| 
         0007f2 0048 
    1921              $C$DW$128       .dwtag  DW_TAG_TI_branch
TMS320C55x Assembler PC v4.4.1 Fri Sep 14 23:31:58 2018

Tools Copyright (c) 1996-2012 Texas Instruments Incorporated
csl_mmcsd_ataIf.asm                                                  PAGE   46

    1922                      .dwattr $C$DW$128, DW_AT_low_pc(0x00)
    1923                      .dwattr $C$DW$128, DW_AT_name("_MMC_write")
    1924                      .dwattr $C$DW$128, DW_AT_TI_call
    1925              
    1926 0007f4 6C00          CALL #_MMC_write ; |951| 
         0007f6 0000!
    1927 0007f8 1107  ||      SFTL AC0, #9, AC0 ; |951| 
         0007fa 09   
    1928              
    1929                                                      ; call occurs [#_MMC_write] ; |951| 
    1930 0007fb C40E          MOV T0, *SP(#7) ; |951| 
    1931 0007fd       $C$L56:    
    1932                      .dwpsn  file "../c5535_bsl_revc/ezdsp5535_v1/c55xx_csl/src/csl_mmcsd_ataIf.c",line 956,column 4,is_st
    1933 0007fd ED18          MOV dbl(*SP(#12)), XAR3
         0007ff BF   
    1934 000800 A91C          MOV *SP(#14), AR1 ; |956| 
    1935 000802 C96D          MOV AR1, *AR3(#62) ; |956| 
         000804 003E 
    1936                      .dwpsn  file "../c5535_bsl_revc/ezdsp5535_v1/c55xx_csl/src/csl_mmcsd_ataIf.c",line 959,column 3,is_st
    1937 000806 A90E          MOV *SP(#7), AR1 ; |959| 
    1938 000808 6489          BCC $C$L57,AR1 == #0 ; |959| 
    1939                                                      ; branchcc occurs ; |959| 
    1940                      .dwpsn  file "../c5535_bsl_revc/ezdsp5535_v1/c55xx_csl/src/csl_mmcsd_ataIf.c",line 961,column 4,is_st
    1941              $C$DW$129       .dwtag  DW_TAG_TI_branch
    1942                      .dwattr $C$DW$129, DW_AT_low_pc(0x00)
    1943                      .dwattr $C$DW$129, DW_AT_name("_getAtaErrorNo")
    1944                      .dwattr $C$DW$129, DW_AT_TI_call
    1945              
    1946 00080a 0803          CALL #_getAtaErrorNo ; |961| 
         00080c 09   
    1947 00080d 2394  ||      MOV AR1, T0
    1948              
    1949                                                      ; call occurs [#_getAtaErrorNo] ; |961| 
    1950 00080f C410          MOV T0, *SP(#8) ; |961| 
    1951                      .dwpsn  file "../c5535_bsl_revc/ezdsp5535_v1/c55xx_csl/src/csl_mmcsd_ataIf.c",line 962,column 4,is_st
    1952 000811 4A02          B $C$L58  ; |962| 
    1953                                                      ; branch occurs ; |962| 
    1954 000813       $C$L57:    
    1955                      .dwpsn  file "../c5535_bsl_revc/ezdsp5535_v1/c55xx_csl/src/csl_mmcsd_ataIf.c",line 966,column 5,is_st
    1956 000813 A410          MOV *SP(#8), T0 ; |966| 
    1957 000815       $C$L58:    
    1958                      .dwpsn  file "../c5535_bsl_revc/ezdsp5535_v1/c55xx_csl/src/csl_mmcsd_ataIf.c",line 967,column 1,is_st
    1959 000815 4E0F          AADD #15, SP
    1960                      .dwcfi  cfa_offset, 1
    1961              $C$DW$130       .dwtag  DW_TAG_TI_branch
    1962                      .dwattr $C$DW$130, DW_AT_low_pc(0x00)
    1963                      .dwattr $C$DW$130, DW_AT_TI_return
    1964 000817 4804          RET
    1965                                                      ; return occurs
    1966                      .dwattr $C$DW$113, DW_AT_TI_end_file("../c5535_bsl_revc/ezdsp5535_v1/c55xx_csl/src/csl_mmcsd_ataIf.c"
    1967                      .dwattr $C$DW$113, DW_AT_TI_end_line(0x3c7)
    1968                      .dwattr $C$DW$113, DW_AT_TI_end_column(0x01)
    1969                      .dwendentry
    1970                      .dwendtag $C$DW$113
    1971              
TMS320C55x Assembler PC v4.4.1 Fri Sep 14 23:31:58 2018

Tools Copyright (c) 1996-2012 Texas Instruments Incorporated
csl_mmcsd_ataIf.asm                                                  PAGE   47

    1972 000819               .sect   ".text"
    1973                      .align 4
    1974                      .global _MMC_readNSectors
    1975              
    1976              $C$DW$131       .dwtag  DW_TAG_subprogram, DW_AT_name("MMC_readNSectors")
    1977                      .dwattr $C$DW$131, DW_AT_low_pc(_MMC_readNSectors)
    1978                      .dwattr $C$DW$131, DW_AT_high_pc(0x00)
    1979                      .dwattr $C$DW$131, DW_AT_TI_symbol_name("_MMC_readNSectors")
    1980                      .dwattr $C$DW$131, DW_AT_external
    1981                      .dwattr $C$DW$131, DW_AT_type(*$C$DW$T$107)
    1982                      .dwattr $C$DW$131, DW_AT_TI_begin_file("../c5535_bsl_revc/ezdsp5535_v1/c55xx_csl/src/csl_mmcsd_ataIf.
    1983                      .dwattr $C$DW$131, DW_AT_TI_begin_line(0x3ff)
    1984                      .dwattr $C$DW$131, DW_AT_TI_begin_column(0x0a)
    1985                      .dwattr $C$DW$131, DW_AT_TI_max_frame_size(0x12)
    1986                      .dwpsn  file "../c5535_bsl_revc/ezdsp5535_v1/c55xx_csl/src/csl_mmcsd_ataIf.c",line 1027,column 1,is_s
    1987              
    1988                      .dwfde $C$DW$CIE, _MMC_readNSectors
    1989              $C$DW$132       .dwtag  DW_TAG_formal_parameter, DW_AT_name("pAtaMediaState")
    1990                      .dwattr $C$DW$132, DW_AT_TI_symbol_name("_pAtaMediaState")
    1991                      .dwattr $C$DW$132, DW_AT_type(*$C$DW$T$3)
    1992                      .dwattr $C$DW$132, DW_AT_location[DW_OP_reg17]
    1993              $C$DW$133       .dwtag  DW_TAG_formal_parameter, DW_AT_name("pReadBuf")
    1994                      .dwattr $C$DW$133, DW_AT_TI_symbol_name("_pReadBuf")
    1995                      .dwattr $C$DW$133, DW_AT_type(*$C$DW$T$102)
    1996                      .dwattr $C$DW$133, DW_AT_location[DW_OP_reg19]
    1997              $C$DW$134       .dwtag  DW_TAG_formal_parameter, DW_AT_name("startSector")
    1998                      .dwattr $C$DW$134, DW_AT_TI_symbol_name("_startSector")
    1999                      .dwattr $C$DW$134, DW_AT_type(*$C$DW$T$105)
    2000                      .dwattr $C$DW$134, DW_AT_location[DW_OP_reg0]
    2001              $C$DW$135       .dwtag  DW_TAG_formal_parameter, DW_AT_name("sectorCount")
    2002                      .dwattr $C$DW$135, DW_AT_TI_symbol_name("_sectorCount")
    2003                      .dwattr $C$DW$135, DW_AT_type(*$C$DW$T$101)
    2004                      .dwattr $C$DW$135, DW_AT_location[DW_OP_reg12]
    2005              ;*******************************************************************************
    2006              ;* FUNCTION NAME: MMC_readNSectors                                             *
    2007              ;*                                                                             *
    2008              ;*   Function Uses Regs : AC0,AC0,AC1,AC1,T0,AR0,XAR0,AR1,XAR1,AR2,AR3,XAR3,SP,*
    2009              ;*                        CARRY,TC1,M40,SATA,SATD,RDM,FRCT,SMUL                *
    2010              ;*   Stack Frame        : Compact (No Frame Pointer, w/ debug)                 *
    2011              ;*   Total Frame Size   : 18 words                                             *
    2012              ;*                        (2 return address/alignment)                         *
    2013              ;*                        (16 local values)                                    *
    2014              ;*   Min System Stack   : 1 word                                               *
    2015              ;*******************************************************************************
    2016 00081c       _MMC_readNSectors:
    2017                      .dwcfi  cfa_offset, 1
    2018                      .dwcfi  save_reg_to_mem, 91, -1
    2019 00081c 4EEF          AADD #-17, SP
    2020                      .dwcfi  cfa_offset, 18
    2021              $C$DW$136       .dwtag  DW_TAG_variable, DW_AT_name("pAtaMediaState")
    2022                      .dwattr $C$DW$136, DW_AT_TI_symbol_name("_pAtaMediaState")
    2023                      .dwattr $C$DW$136, DW_AT_type(*$C$DW$T$3)
    2024                      .dwattr $C$DW$136, DW_AT_location[DW_OP_bregx 0x24 0]
    2025              $C$DW$137       .dwtag  DW_TAG_variable, DW_AT_name("pReadBuf")
    2026                      .dwattr $C$DW$137, DW_AT_TI_symbol_name("_pReadBuf")
TMS320C55x Assembler PC v4.4.1 Fri Sep 14 23:31:58 2018

Tools Copyright (c) 1996-2012 Texas Instruments Incorporated
csl_mmcsd_ataIf.asm                                                  PAGE   48

    2027                      .dwattr $C$DW$137, DW_AT_type(*$C$DW$T$102)
    2028                      .dwattr $C$DW$137, DW_AT_location[DW_OP_bregx 0x24 2]
    2029              $C$DW$138       .dwtag  DW_TAG_variable, DW_AT_name("startSector")
    2030                      .dwattr $C$DW$138, DW_AT_TI_symbol_name("_startSector")
    2031                      .dwattr $C$DW$138, DW_AT_type(*$C$DW$T$105)
    2032                      .dwattr $C$DW$138, DW_AT_location[DW_OP_bregx 0x24 4]
    2033              $C$DW$139       .dwtag  DW_TAG_variable, DW_AT_name("sectorCount")
    2034                      .dwattr $C$DW$139, DW_AT_TI_symbol_name("_sectorCount")
    2035                      .dwattr $C$DW$139, DW_AT_type(*$C$DW$T$101)
    2036                      .dwattr $C$DW$139, DW_AT_location[DW_OP_bregx 0x24 6]
    2037              $C$DW$140       .dwtag  DW_TAG_variable, DW_AT_name("ataResult")
    2038                      .dwattr $C$DW$140, DW_AT_TI_symbol_name("_ataResult")
    2039                      .dwattr $C$DW$140, DW_AT_type(*$C$DW$T$107)
    2040                      .dwattr $C$DW$140, DW_AT_location[DW_OP_bregx 0x24 7]
    2041              $C$DW$141       .dwtag  DW_TAG_variable, DW_AT_name("result")
    2042                      .dwattr $C$DW$141, DW_AT_TI_symbol_name("_result")
    2043                      .dwattr $C$DW$141, DW_AT_type(*$C$DW$T$139)
    2044                      .dwattr $C$DW$141, DW_AT_location[DW_OP_bregx 0x24 8]
    2045              $C$DW$142       .dwtag  DW_TAG_variable, DW_AT_name("hMmcSd")
    2046                      .dwattr $C$DW$142, DW_AT_TI_symbol_name("_hMmcSd")
    2047                      .dwattr $C$DW$142, DW_AT_type(*$C$DW$T$135)
    2048                      .dwattr $C$DW$142, DW_AT_location[DW_OP_bregx 0x24 10]
    2049              $C$DW$143       .dwtag  DW_TAG_variable, DW_AT_name("pMediaState")
    2050                      .dwattr $C$DW$143, DW_AT_TI_symbol_name("_pMediaState")
    2051                      .dwattr $C$DW$143, DW_AT_type(*$C$DW$T$137)
    2052                      .dwattr $C$DW$143, DW_AT_location[DW_OP_bregx 0x24 12]
    2053              $C$DW$144       .dwtag  DW_TAG_variable, DW_AT_name("validSectors")
    2054                      .dwattr $C$DW$144, DW_AT_TI_symbol_name("_validSectors")
    2055                      .dwattr $C$DW$144, DW_AT_type(*$C$DW$T$28)
    2056                      .dwattr $C$DW$144, DW_AT_location[DW_OP_bregx 0x24 14]
    2057 00081e C40C          MOV T0, *SP(#6) ; |1027| 
    2058 000820 EB08          MOV AC0, dbl(*SP(#4)) ; |1027| 
         000822 08   
    2059 000823 EB04          MOV XAR1, dbl(*SP(#2))
         000825 95   
    2060 000826 EB00          MOV XAR0, dbl(*SP(#0))
         000828 85   
    2061                      .dwpsn  file "../c5535_bsl_revc/ezdsp5535_v1/c55xx_csl/src/csl_mmcsd_ataIf.c",line 1034,column 5,is_s
    2062 000829 E60E          MOV #0, *SP(#7) ; |1034| 
         00082b 00   
    2063                      .dwpsn  file "../c5535_bsl_revc/ezdsp5535_v1/c55xx_csl/src/csl_mmcsd_ataIf.c",line 1035,column 5,is_s
    2064 00082c E610          MOV #0, *SP(#8) ; |1035| 
         00082e 00   
    2065                      .dwpsn  file "../c5535_bsl_revc/ezdsp5535_v1/c55xx_csl/src/csl_mmcsd_ataIf.c",line 1037,column 2,is_s
    2066 00082f ED00          MOV dbl(*SP(#0)), XAR3
         000831 BF   
    2067 000832 EB18          MOV XAR3, dbl(*SP(#12))
         000834 B5   
    2068                      .dwpsn  file "../c5535_bsl_revc/ezdsp5535_v1/c55xx_csl/src/csl_mmcsd_ataIf.c",line 1039,column 5,is_s
    2069              
    2070 000835 90B0          MOV XAR3, AC0
    2071 000837 3D01  ||      MOV #0, AC1 ; |1039| 
    2072              
    2073 000839 1210          CMPU AC1 == AC0, TC1 ; |1039| 
         00083b 04   
TMS320C55x Assembler PC v4.4.1 Fri Sep 14 23:31:58 2018

Tools Copyright (c) 1996-2012 Texas Instruments Incorporated
csl_mmcsd_ataIf.asm                                                  PAGE   49

    2074 00083c 0464          BCC $C$L59,TC1 ; |1039| 
         00083e 1E   
    2075                                                      ; branchcc occurs ; |1039| 
    2076 00083f ED61          MOV dbl(*AR3), XAR3
         000841 BF   
    2077 000842 90B0          MOV XAR3, AC0
    2078 000844 1210          CMPU AC1 == AC0, TC1 ; |1039| 
         000846 04   
    2079 000847 0464          BCC $C$L59,TC1 ; |1039| 
         000849 13   
    2080                                                      ; branchcc occurs ; |1039| 
    2081 00084a ED04          MOV dbl(*SP(#2)), XAR3
         00084c BF   
    2082 00084d 90B0          MOV XAR3, AC0
    2083 00084f 1210          CMPU AC1 == AC0, TC1 ; |1039| 
         000851 04   
    2084 000852 64E4          BCC $C$L59,TC1 ; |1039| 
    2085                                                      ; branchcc occurs ; |1039| 
    2086              
    2087 000856 3D0A          MOV #0, AR2
    2088 000854 A90C  ||      MOV *SP(#6), AR1 ; |1039| 
    2089              
    2090 000858 12AC          CMPU AR2 != AR1, TC1 ; |1039| 
         00085a 94   
    2091 00085b 63E4          BCC $C$L60,TC1 ; |1039| 
    2092                                                      ; branchcc occurs ; |1039| 
    2093 00085d       $C$L59:    
    2094                      .dwpsn  file "../c5535_bsl_revc/ezdsp5535_v1/c55xx_csl/src/csl_mmcsd_ataIf.c",line 1044,column 3,is_s
    2095 00085d 7603          MOV #768, T0 ; |1044| 
         00085f 0048 
    2096 000861 0600          B $C$L66  ; |1044| 
         000863 8B   
    2097                                                      ; branch occurs ; |1044| 
    2098 000864       $C$L60:    
    2099                      .dwpsn  file "../c5535_bsl_revc/ezdsp5535_v1/c55xx_csl/src/csl_mmcsd_ataIf.c",line 1047,column 2,is_s
    2100 000864 ED18          MOV dbl(*SP(#12)), XAR3
         000866 BF   
    2101 000867 ED61          MOV dbl(*AR3), XAR3
         000869 BF   
    2102 00086a EB14          MOV XAR3, dbl(*SP(#10))
         00086c B5   
    2103                      .dwpsn  file "../c5535_bsl_revc/ezdsp5535_v1/c55xx_csl/src/csl_mmcsd_ataIf.c",line 1049,column 2,is_s
    2104 00086d ED75          MOV dbl(*AR3(short(#2))), XAR3
         00086f BF   
    2105 000870 ED08          MOV dbl(*SP(#4)), AC0 ; |1049| 
         000872 08   
    2106 000873 ED6D          SUB AC0, dbl(*AR3(#12)), AC0 ; |1049| 
         000875 0400 
         000877 0C   
    2107 000878 EB1C          MOV AC0, dbl(*SP(#14)) ; |1049| 
         00087a 08   
    2108                      .dwpsn  file "../c5535_bsl_revc/ezdsp5535_v1/c55xx_csl/src/csl_mmcsd_ataIf.c",line 1051,column 2,is_s
    2109 00087b ED14          MOV dbl(*SP(#10)), XAR3
         00087d BF   
    2110 00087e ED75          MOV dbl(*AR3(short(#2))), XAR3
TMS320C55x Assembler PC v4.4.1 Fri Sep 14 23:31:58 2018

Tools Copyright (c) 1996-2012 Texas Instruments Incorporated
csl_mmcsd_ataIf.asm                                                  PAGE   50

         000880 BF   
    2111 000881 ED6D          MOV dbl(*AR3(#12)), AC0 ; |1051| 
         000883 0800 
         000885 0C   
    2112              
    2113 000889 4310          SUB #1, AC0 ; |1051| 
    2114 000886 ED08  ||      MOV dbl(*SP(#4)), AC1 ; |1051| 
         000888 18   
    2115              
    2116 00088b 1204          CMPU AC1 > AC0, TC1 ; |1051| 
         00088d 14   
    2117 00088e 65E4          BCC $C$L61,TC1 ; |1051| 
    2118                                                      ; branchcc occurs ; |1051| 
    2119 000890 ED1C          MOV dbl(*SP(#14)), AC0 ; |1051| 
         000892 08   
    2120 000893 DF0C          MOV uns(*SP(#6)), AC1 ; |1051| 
         000895 15   
    2121 000896 1208          CMPU AC1 <= AC0, TC1 ; |1051| 
         000898 14   
    2122 000899 64E4          BCC $C$L62,TC1 ; |1051| 
    2123                                                      ; branchcc occurs ; |1051| 
    2124 00089b       $C$L61:    
    2125                      .dwpsn  file "../c5535_bsl_revc/ezdsp5535_v1/c55xx_csl/src/csl_mmcsd_ataIf.c",line 1054,column 3,is_s
    2126 00089b FB0E          MOV #768, *SP(#7) ; |1054| 
         00089d 0300 
    2127                      .dwpsn  file "../c5535_bsl_revc/ezdsp5535_v1/c55xx_csl/src/csl_mmcsd_ataIf.c",line 1055,column 3,is_s
    2128 00089f A40E          MOV *SP(#7), T0 ; |1055| 
    2129 0008a1 0600          B $C$L66  ; |1055| 
         0008a3 4B   
    2130                                                      ; branch occurs ; |1055| 
    2131 0008a4       $C$L62:    
    2132                      .dwpsn  file "../c5535_bsl_revc/ezdsp5535_v1/c55xx_csl/src/csl_mmcsd_ataIf.c",line 1059,column 3,is_s
    2133 0008a4 ED14          MOV dbl(*SP(#10)), XAR3
         0008a6 BF   
    2134 0008a7 ED75          MOV dbl(*AR3(short(#2))), XAR3
         0008a9 BF   
    2135 0008aa F06D          CMP *AR3(#26) == #1, TC1 ; |1059| 
         0008ac 0001 
         0008ae 001A 
    2136 0008b0 0474          BCC $C$L63,!TC1 ; |1059| 
         0008b2 18   
    2137                                                      ; branchcc occurs ; |1059| 
    2138                      .dwpsn  file "../c5535_bsl_revc/ezdsp5535_v1/c55xx_csl/src/csl_mmcsd_ataIf.c",line 1063,column 4,is_s
    2139 0008b3 A00C          MOV *SP(#6), AC0 ; |1063| 
    2140 0008b5 ED14          MOV dbl(*SP(#10)), XAR0
         0008b7 8F   
    2141 0008b8 ED04          MOV dbl(*SP(#2)), XAR1
         0008ba 9F   
    2142              
    2143 0008bb ED08          MOV dbl(*SP(#4)), AC0 ; |1063| 
         0008bd 08   
    2144 0008be 1147  ||      SFTL AC0, #9, AC1 ; |1063| 
         0008c0 09   
    2145              
    2146              $C$DW$145       .dwtag  DW_TAG_TI_branch
TMS320C55x Assembler PC v4.4.1 Fri Sep 14 23:31:58 2018

Tools Copyright (c) 1996-2012 Texas Instruments Incorporated
csl_mmcsd_ataIf.asm                                                  PAGE   51

    2147                      .dwattr $C$DW$145, DW_AT_low_pc(0x00)
    2148                      .dwattr $C$DW$145, DW_AT_name("_MMC_read")
    2149                      .dwattr $C$DW$145, DW_AT_TI_call
    2150              
    2151 0008c1 6C00          CALL #_MMC_read ; |1063| 
         0008c3 0000!
    2152 0008c5 2314  ||      MOV AC1, T0 ; |1063| 
    2153              
    2154                                                      ; call occurs [#_MMC_read] ; |1063| 
    2155 0008c7 C410          MOV T0, *SP(#8) ; |1063| 
    2156                      .dwpsn  file "../c5535_bsl_revc/ezdsp5535_v1/c55xx_csl/src/csl_mmcsd_ataIf.c",line 1065,column 3,is_s
    2157 0008c9 4A19          B $C$L64  ; |1065| 
    2158                                                      ; branch occurs ; |1065| 
    2159 0008cb       $C$L63:    
    2160                      .dwpsn  file "../c5535_bsl_revc/ezdsp5535_v1/c55xx_csl/src/csl_mmcsd_ataIf.c",line 1070,column 4,is_s
    2161 0008cb ED08          MOV dbl(*SP(#4)), AC0 ; |1070| 
         0008cd 08   
    2162 0008ce ED14          MOV dbl(*SP(#10)), XAR0
         0008d0 8F   
    2163 0008d1 ED04          MOV dbl(*SP(#2)), XAR1
         0008d3 9F   
    2164              
    2165 0008d6 1107          SFTL AC0, #9, AC0 ; |1070| 
         0008d8 09   
    2166 0008d4 A10C  ||      MOV *SP(#6), AC1 ; |1070| 
    2167              
    2168 0008d9 1057          SFTL AC1, #9, AC1 ; |1070| 
         0008db 09   
    2169              $C$DW$146       .dwtag  DW_TAG_TI_branch
    2170                      .dwattr $C$DW$146, DW_AT_low_pc(0x00)
    2171                      .dwattr $C$DW$146, DW_AT_name("_MMC_read")
    2172                      .dwattr $C$DW$146, DW_AT_TI_call
    2173              
    2174 0008dc 6C00          CALL #_MMC_read ; |1070| 
         0008de 0000!
    2175 0008e0 2314  ||      MOV AC1, T0 ; |1070| 
    2176              
    2177                                                      ; call occurs [#_MMC_read] ; |1070| 
    2178 0008e2 C410          MOV T0, *SP(#8) ; |1070| 
    2179 0008e4       $C$L64:    
    2180                      .dwpsn  file "../c5535_bsl_revc/ezdsp5535_v1/c55xx_csl/src/csl_mmcsd_ataIf.c",line 1074,column 3,is_s
    2181 0008e4 2249          MOV T0, AR1
    2182 0008e6 6289          BCC $C$L65,AR1 == #0 ; |1074| 
    2183                                                      ; branchcc occurs ; |1074| 
    2184                      .dwpsn  file "../c5535_bsl_revc/ezdsp5535_v1/c55xx_csl/src/csl_mmcsd_ataIf.c",line 1076,column 4,is_s
    2185              $C$DW$147       .dwtag  DW_TAG_TI_branch
    2186                      .dwattr $C$DW$147, DW_AT_low_pc(0x00)
    2187                      .dwattr $C$DW$147, DW_AT_name("_getAtaErrorNo")
    2188                      .dwattr $C$DW$147, DW_AT_TI_call
    2189 0008e8 0802          CALL #_getAtaErrorNo ; |1076| 
         0008ea 2D   
    2190                                                      ; call occurs [#_getAtaErrorNo] ; |1076| 
    2191 0008eb C40E          MOV T0, *SP(#7) ; |1076| 
    2192 0008ed       $C$L65:    
    2193                      .dwpsn  file "../c5535_bsl_revc/ezdsp5535_v1/c55xx_csl/src/csl_mmcsd_ataIf.c",line 1080,column 5,is_s
TMS320C55x Assembler PC v4.4.1 Fri Sep 14 23:31:58 2018

Tools Copyright (c) 1996-2012 Texas Instruments Incorporated
csl_mmcsd_ataIf.asm                                                  PAGE   52

    2194 0008ed A40E          MOV *SP(#7), T0 ; |1080| 
    2195 0008ef       $C$L66:    
    2196                      .dwpsn  file "../c5535_bsl_revc/ezdsp5535_v1/c55xx_csl/src/csl_mmcsd_ataIf.c",line 1081,column 1,is_s
    2197 0008ef 4E11          AADD #17, SP
    2198                      .dwcfi  cfa_offset, 1
    2199              $C$DW$148       .dwtag  DW_TAG_TI_branch
    2200                      .dwattr $C$DW$148, DW_AT_low_pc(0x00)
    2201                      .dwattr $C$DW$148, DW_AT_TI_return
    2202 0008f1 4804          RET
    2203                                                      ; return occurs
    2204                      .dwattr $C$DW$131, DW_AT_TI_end_file("../c5535_bsl_revc/ezdsp5535_v1/c55xx_csl/src/csl_mmcsd_ataIf.c"
    2205                      .dwattr $C$DW$131, DW_AT_TI_end_line(0x439)
    2206                      .dwattr $C$DW$131, DW_AT_TI_end_column(0x01)
    2207                      .dwendentry
    2208                      .dwendtag $C$DW$131
    2209              
    2210 0008f3               .sect   ".text"
    2211                      .align 4
    2212                      .global _MMC_writeNSectors
    2213              
    2214              $C$DW$149       .dwtag  DW_TAG_subprogram, DW_AT_name("MMC_writeNSectors")
    2215                      .dwattr $C$DW$149, DW_AT_low_pc(_MMC_writeNSectors)
    2216                      .dwattr $C$DW$149, DW_AT_high_pc(0x00)
    2217                      .dwattr $C$DW$149, DW_AT_TI_symbol_name("_MMC_writeNSectors")
    2218                      .dwattr $C$DW$149, DW_AT_external
    2219                      .dwattr $C$DW$149, DW_AT_type(*$C$DW$T$107)
    2220                      .dwattr $C$DW$149, DW_AT_TI_begin_file("../c5535_bsl_revc/ezdsp5535_v1/c55xx_csl/src/csl_mmcsd_ataIf.
    2221                      .dwattr $C$DW$149, DW_AT_TI_begin_line(0x470)
    2222                      .dwattr $C$DW$149, DW_AT_TI_begin_column(0x0a)
    2223                      .dwattr $C$DW$149, DW_AT_TI_max_frame_size(0x12)
    2224                      .dwpsn  file "../c5535_bsl_revc/ezdsp5535_v1/c55xx_csl/src/csl_mmcsd_ataIf.c",line 1140,column 1,is_s
    2225              
    2226                      .dwfde $C$DW$CIE, _MMC_writeNSectors
    2227              $C$DW$150       .dwtag  DW_TAG_formal_parameter, DW_AT_name("pAtaMediaState")
    2228                      .dwattr $C$DW$150, DW_AT_TI_symbol_name("_pAtaMediaState")
    2229                      .dwattr $C$DW$150, DW_AT_type(*$C$DW$T$3)
    2230                      .dwattr $C$DW$150, DW_AT_location[DW_OP_reg17]
    2231              $C$DW$151       .dwtag  DW_TAG_formal_parameter, DW_AT_name("pWriteBuf")
    2232                      .dwattr $C$DW$151, DW_AT_TI_symbol_name("_pWriteBuf")
    2233                      .dwattr $C$DW$151, DW_AT_type(*$C$DW$T$102)
    2234                      .dwattr $C$DW$151, DW_AT_location[DW_OP_reg19]
    2235              $C$DW$152       .dwtag  DW_TAG_formal_parameter, DW_AT_name("startSector")
    2236                      .dwattr $C$DW$152, DW_AT_TI_symbol_name("_startSector")
    2237                      .dwattr $C$DW$152, DW_AT_type(*$C$DW$T$105)
    2238                      .dwattr $C$DW$152, DW_AT_location[DW_OP_reg0]
    2239              $C$DW$153       .dwtag  DW_TAG_formal_parameter, DW_AT_name("sectorCount")
    2240                      .dwattr $C$DW$153, DW_AT_TI_symbol_name("_sectorCount")
    2241                      .dwattr $C$DW$153, DW_AT_type(*$C$DW$T$101)
    2242                      .dwattr $C$DW$153, DW_AT_location[DW_OP_reg12]
    2243              ;*******************************************************************************
    2244              ;* FUNCTION NAME: MMC_writeNSectors                                            *
    2245              ;*                                                                             *
    2246              ;*   Function Uses Regs : AC0,AC0,AC1,AC1,T0,AR0,XAR0,AR1,XAR1,AR2,AR3,XAR3,SP,*
    2247              ;*                        CARRY,TC1,M40,SATA,SATD,RDM,FRCT,SMUL                *
    2248              ;*   Stack Frame        : Compact (No Frame Pointer, w/ debug)                 *
TMS320C55x Assembler PC v4.4.1 Fri Sep 14 23:31:58 2018

Tools Copyright (c) 1996-2012 Texas Instruments Incorporated
csl_mmcsd_ataIf.asm                                                  PAGE   53

    2249              ;*   Total Frame Size   : 18 words                                             *
    2250              ;*                        (2 return address/alignment)                         *
    2251              ;*                        (16 local values)                                    *
    2252              ;*   Min System Stack   : 1 word                                               *
    2253              ;*******************************************************************************
    2254 0008f4       _MMC_writeNSectors:
    2255                      .dwcfi  cfa_offset, 1
    2256                      .dwcfi  save_reg_to_mem, 91, -1
    2257 0008f4 4EEF          AADD #-17, SP
    2258                      .dwcfi  cfa_offset, 18
    2259              $C$DW$154       .dwtag  DW_TAG_variable, DW_AT_name("pAtaMediaState")
    2260                      .dwattr $C$DW$154, DW_AT_TI_symbol_name("_pAtaMediaState")
    2261                      .dwattr $C$DW$154, DW_AT_type(*$C$DW$T$3)
    2262                      .dwattr $C$DW$154, DW_AT_location[DW_OP_bregx 0x24 0]
    2263              $C$DW$155       .dwtag  DW_TAG_variable, DW_AT_name("pWriteBuf")
    2264                      .dwattr $C$DW$155, DW_AT_TI_symbol_name("_pWriteBuf")
    2265                      .dwattr $C$DW$155, DW_AT_type(*$C$DW$T$102)
    2266                      .dwattr $C$DW$155, DW_AT_location[DW_OP_bregx 0x24 2]
    2267              $C$DW$156       .dwtag  DW_TAG_variable, DW_AT_name("startSector")
    2268                      .dwattr $C$DW$156, DW_AT_TI_symbol_name("_startSector")
    2269                      .dwattr $C$DW$156, DW_AT_type(*$C$DW$T$105)
    2270                      .dwattr $C$DW$156, DW_AT_location[DW_OP_bregx 0x24 4]
    2271              $C$DW$157       .dwtag  DW_TAG_variable, DW_AT_name("sectorCount")
    2272                      .dwattr $C$DW$157, DW_AT_TI_symbol_name("_sectorCount")
    2273                      .dwattr $C$DW$157, DW_AT_type(*$C$DW$T$101)
    2274                      .dwattr $C$DW$157, DW_AT_location[DW_OP_bregx 0x24 6]
    2275              $C$DW$158       .dwtag  DW_TAG_variable, DW_AT_name("ataResult")
    2276                      .dwattr $C$DW$158, DW_AT_TI_symbol_name("_ataResult")
    2277                      .dwattr $C$DW$158, DW_AT_type(*$C$DW$T$107)
    2278                      .dwattr $C$DW$158, DW_AT_location[DW_OP_bregx 0x24 7]
    2279              $C$DW$159       .dwtag  DW_TAG_variable, DW_AT_name("result")
    2280                      .dwattr $C$DW$159, DW_AT_TI_symbol_name("_result")
    2281                      .dwattr $C$DW$159, DW_AT_type(*$C$DW$T$139)
    2282                      .dwattr $C$DW$159, DW_AT_location[DW_OP_bregx 0x24 8]
    2283              $C$DW$160       .dwtag  DW_TAG_variable, DW_AT_name("hMmcSd")
    2284                      .dwattr $C$DW$160, DW_AT_TI_symbol_name("_hMmcSd")
    2285                      .dwattr $C$DW$160, DW_AT_type(*$C$DW$T$135)
    2286                      .dwattr $C$DW$160, DW_AT_location[DW_OP_bregx 0x24 10]
    2287              $C$DW$161       .dwtag  DW_TAG_variable, DW_AT_name("pMediaState")
    2288                      .dwattr $C$DW$161, DW_AT_TI_symbol_name("_pMediaState")
    2289                      .dwattr $C$DW$161, DW_AT_type(*$C$DW$T$137)
    2290                      .dwattr $C$DW$161, DW_AT_location[DW_OP_bregx 0x24 12]
    2291              $C$DW$162       .dwtag  DW_TAG_variable, DW_AT_name("validSectors")
    2292                      .dwattr $C$DW$162, DW_AT_TI_symbol_name("_validSectors")
    2293                      .dwattr $C$DW$162, DW_AT_type(*$C$DW$T$28)
    2294                      .dwattr $C$DW$162, DW_AT_location[DW_OP_bregx 0x24 14]
    2295 0008f6 C40C          MOV T0, *SP(#6) ; |1140| 
    2296 0008f8 EB08          MOV AC0, dbl(*SP(#4)) ; |1140| 
         0008fa 08   
    2297 0008fb EB04          MOV XAR1, dbl(*SP(#2))
         0008fd 95   
    2298 0008fe EB00          MOV XAR0, dbl(*SP(#0))
         000900 85   
    2299                      .dwpsn  file "../c5535_bsl_revc/ezdsp5535_v1/c55xx_csl/src/csl_mmcsd_ataIf.c",line 1147,column 5,is_s
    2300 000901 E60E          MOV #0, *SP(#7) ; |1147| 
TMS320C55x Assembler PC v4.4.1 Fri Sep 14 23:31:58 2018

Tools Copyright (c) 1996-2012 Texas Instruments Incorporated
csl_mmcsd_ataIf.asm                                                  PAGE   54

         000903 00   
    2301                      .dwpsn  file "../c5535_bsl_revc/ezdsp5535_v1/c55xx_csl/src/csl_mmcsd_ataIf.c",line 1148,column 5,is_s
    2302 000904 E610          MOV #0, *SP(#8) ; |1148| 
         000906 00   
    2303                      .dwpsn  file "../c5535_bsl_revc/ezdsp5535_v1/c55xx_csl/src/csl_mmcsd_ataIf.c",line 1150,column 2,is_s
    2304 000907 ED00          MOV dbl(*SP(#0)), XAR3
         000909 BF   
    2305 00090a EB18          MOV XAR3, dbl(*SP(#12))
         00090c B5   
    2306                      .dwpsn  file "../c5535_bsl_revc/ezdsp5535_v1/c55xx_csl/src/csl_mmcsd_ataIf.c",line 1152,column 5,is_s
    2307              
    2308 00090d 90B0          MOV XAR3, AC0
    2309 00090f 3D01  ||      MOV #0, AC1 ; |1152| 
    2310              
    2311 000911 1210          CMPU AC1 == AC0, TC1 ; |1152| 
         000913 04   
    2312 000914 0464          BCC $C$L67,TC1 ; |1152| 
         000916 1E   
    2313                                                      ; branchcc occurs ; |1152| 
    2314 000917 ED61          MOV dbl(*AR3), XAR3
         000919 BF   
    2315 00091a 90B0          MOV XAR3, AC0
    2316 00091c 1210          CMPU AC1 == AC0, TC1 ; |1152| 
         00091e 04   
    2317 00091f 0464          BCC $C$L67,TC1 ; |1152| 
         000921 13   
    2318                                                      ; branchcc occurs ; |1152| 
    2319 000922 ED04          MOV dbl(*SP(#2)), XAR3
         000924 BF   
    2320 000925 90B0          MOV XAR3, AC0
    2321 000927 1210          CMPU AC1 == AC0, TC1 ; |1152| 
         000929 04   
    2322 00092a 64E4          BCC $C$L67,TC1 ; |1152| 
    2323                                                      ; branchcc occurs ; |1152| 
    2324              
    2325 00092e 3D0A          MOV #0, AR2
    2326 00092c A90C  ||      MOV *SP(#6), AR1 ; |1152| 
    2327              
    2328 000930 12AC          CMPU AR2 != AR1, TC1 ; |1152| 
         000932 94   
    2329 000933 63E4          BCC $C$L68,TC1 ; |1152| 
    2330                                                      ; branchcc occurs ; |1152| 
    2331 000935       $C$L67:    
    2332                      .dwpsn  file "../c5535_bsl_revc/ezdsp5535_v1/c55xx_csl/src/csl_mmcsd_ataIf.c",line 1157,column 3,is_s
    2333 000935 7603          MOV #768, T0 ; |1157| 
         000937 0048 
    2334 000939 0600          B $C$L74  ; |1157| 
         00093b 8B   
    2335                                                      ; branch occurs ; |1157| 
    2336 00093c       $C$L68:    
    2337                      .dwpsn  file "../c5535_bsl_revc/ezdsp5535_v1/c55xx_csl/src/csl_mmcsd_ataIf.c",line 1160,column 2,is_s
    2338 00093c ED18          MOV dbl(*SP(#12)), XAR3
         00093e BF   
    2339 00093f ED61          MOV dbl(*AR3), XAR3
         000941 BF   
TMS320C55x Assembler PC v4.4.1 Fri Sep 14 23:31:58 2018

Tools Copyright (c) 1996-2012 Texas Instruments Incorporated
csl_mmcsd_ataIf.asm                                                  PAGE   55

    2340 000942 EB14          MOV XAR3, dbl(*SP(#10))
         000944 B5   
    2341                      .dwpsn  file "../c5535_bsl_revc/ezdsp5535_v1/c55xx_csl/src/csl_mmcsd_ataIf.c",line 1162,column 2,is_s
    2342 000945 ED75          MOV dbl(*AR3(short(#2))), XAR3
         000947 BF   
    2343 000948 ED08          MOV dbl(*SP(#4)), AC0 ; |1162| 
         00094a 08   
    2344 00094b ED6D          SUB AC0, dbl(*AR3(#12)), AC0 ; |1162| 
         00094d 0400 
         00094f 0C   
    2345 000950 EB1C          MOV AC0, dbl(*SP(#14)) ; |1162| 
         000952 08   
    2346                      .dwpsn  file "../c5535_bsl_revc/ezdsp5535_v1/c55xx_csl/src/csl_mmcsd_ataIf.c",line 1164,column 2,is_s
    2347 000953 ED14          MOV dbl(*SP(#10)), XAR3
         000955 BF   
    2348 000956 ED75          MOV dbl(*AR3(short(#2))), XAR3
         000958 BF   
    2349 000959 ED6D          MOV dbl(*AR3(#12)), AC0 ; |1164| 
         00095b 0800 
         00095d 0C   
    2350              
    2351 000961 4310          SUB #1, AC0 ; |1164| 
    2352 00095e ED08  ||      MOV dbl(*SP(#4)), AC1 ; |1164| 
         000960 18   
    2353              
    2354 000963 1204          CMPU AC1 > AC0, TC1 ; |1164| 
         000965 14   
    2355 000966 65E4          BCC $C$L69,TC1 ; |1164| 
    2356                                                      ; branchcc occurs ; |1164| 
    2357 000968 ED1C          MOV dbl(*SP(#14)), AC0 ; |1164| 
         00096a 08   
    2358 00096b DF0C          MOV uns(*SP(#6)), AC1 ; |1164| 
         00096d 15   
    2359 00096e 1208          CMPU AC1 <= AC0, TC1 ; |1164| 
         000970 14   
    2360 000971 64E4          BCC $C$L70,TC1 ; |1164| 
    2361                                                      ; branchcc occurs ; |1164| 
    2362 000973       $C$L69:    
    2363                      .dwpsn  file "../c5535_bsl_revc/ezdsp5535_v1/c55xx_csl/src/csl_mmcsd_ataIf.c",line 1167,column 3,is_s
    2364 000973 FB0E          MOV #768, *SP(#7) ; |1167| 
         000975 0300 
    2365                      .dwpsn  file "../c5535_bsl_revc/ezdsp5535_v1/c55xx_csl/src/csl_mmcsd_ataIf.c",line 1168,column 3,is_s
    2366 000977 A40E          MOV *SP(#7), T0 ; |1168| 
    2367 000979 0600          B $C$L74  ; |1168| 
         00097b 4B   
    2368                                                      ; branch occurs ; |1168| 
    2369 00097c       $C$L70:    
    2370                      .dwpsn  file "../c5535_bsl_revc/ezdsp5535_v1/c55xx_csl/src/csl_mmcsd_ataIf.c",line 1173,column 3,is_s
    2371 00097c ED14          MOV dbl(*SP(#10)), XAR3
         00097e BF   
    2372 00097f ED75          MOV dbl(*AR3(short(#2))), XAR3
         000981 BF   
    2373 000982 F06D          CMP *AR3(#26) == #1, TC1 ; |1173| 
         000984 0001 
         000986 001A 
TMS320C55x Assembler PC v4.4.1 Fri Sep 14 23:31:58 2018

Tools Copyright (c) 1996-2012 Texas Instruments Incorporated
csl_mmcsd_ataIf.asm                                                  PAGE   56

    2374 000988 0474          BCC $C$L71,!TC1 ; |1173| 
         00098a 18   
    2375                                                      ; branchcc occurs ; |1173| 
    2376                      .dwpsn  file "../c5535_bsl_revc/ezdsp5535_v1/c55xx_csl/src/csl_mmcsd_ataIf.c",line 1177,column 4,is_s
    2377 00098b A00C          MOV *SP(#6), AC0 ; |1177| 
    2378 00098d ED14          MOV dbl(*SP(#10)), XAR0
         00098f 8F   
    2379 000990 ED04          MOV dbl(*SP(#2)), XAR1
         000992 9F   
    2380              
    2381 000993 ED08          MOV dbl(*SP(#4)), AC0 ; |1177| 
         000995 08   
    2382 000996 1147  ||      SFTL AC0, #9, AC1 ; |1177| 
         000998 09   
    2383              
    2384              $C$DW$163       .dwtag  DW_TAG_TI_branch
    2385                      .dwattr $C$DW$163, DW_AT_low_pc(0x00)
    2386                      .dwattr $C$DW$163, DW_AT_name("_MMC_write")
    2387                      .dwattr $C$DW$163, DW_AT_TI_call
    2388              
    2389 000999 6C00          CALL #_MMC_write ; |1177| 
         00099b 0000!
    2390 00099d 2314  ||      MOV AC1, T0 ; |1177| 
    2391              
    2392                                                      ; call occurs [#_MMC_write] ; |1177| 
    2393 00099f C410          MOV T0, *SP(#8) ; |1177| 
    2394                      .dwpsn  file "../c5535_bsl_revc/ezdsp5535_v1/c55xx_csl/src/csl_mmcsd_ataIf.c",line 1179,column 3,is_s
    2395 0009a1 4A19          B $C$L72  ; |1179| 
    2396                                                      ; branch occurs ; |1179| 
    2397 0009a3       $C$L71:    
    2398                      .dwpsn  file "../c5535_bsl_revc/ezdsp5535_v1/c55xx_csl/src/csl_mmcsd_ataIf.c",line 1184,column 4,is_s
    2399 0009a3 ED08          MOV dbl(*SP(#4)), AC0 ; |1184| 
         0009a5 08   
    2400 0009a6 ED14          MOV dbl(*SP(#10)), XAR0
         0009a8 8F   
    2401 0009a9 ED04          MOV dbl(*SP(#2)), XAR1
         0009ab 9F   
    2402              
    2403 0009ae 1107          SFTL AC0, #9, AC0 ; |1184| 
         0009b0 09   
    2404 0009ac A10C  ||      MOV *SP(#6), AC1 ; |1184| 
    2405              
    2406 0009b1 1057          SFTL AC1, #9, AC1 ; |1184| 
         0009b3 09   
    2407              $C$DW$164       .dwtag  DW_TAG_TI_branch
    2408                      .dwattr $C$DW$164, DW_AT_low_pc(0x00)
    2409                      .dwattr $C$DW$164, DW_AT_name("_MMC_write")
    2410                      .dwattr $C$DW$164, DW_AT_TI_call
    2411              
    2412 0009b4 6C00          CALL #_MMC_write ; |1184| 
         0009b6 0000!
    2413 0009b8 2314  ||      MOV AC1, T0 ; |1184| 
    2414              
    2415                                                      ; call occurs [#_MMC_write] ; |1184| 
    2416 0009ba C410          MOV T0, *SP(#8) ; |1184| 
TMS320C55x Assembler PC v4.4.1 Fri Sep 14 23:31:58 2018

Tools Copyright (c) 1996-2012 Texas Instruments Incorporated
csl_mmcsd_ataIf.asm                                                  PAGE   57

    2417 0009bc       $C$L72:    
    2418                      .dwpsn  file "../c5535_bsl_revc/ezdsp5535_v1/c55xx_csl/src/csl_mmcsd_ataIf.c",line 1188,column 3,is_s
    2419 0009bc 2249          MOV T0, AR1
    2420 0009be 6289          BCC $C$L73,AR1 == #0 ; |1188| 
    2421                                                      ; branchcc occurs ; |1188| 
    2422                      .dwpsn  file "../c5535_bsl_revc/ezdsp5535_v1/c55xx_csl/src/csl_mmcsd_ataIf.c",line 1190,column 4,is_s
    2423              $C$DW$165       .dwtag  DW_TAG_TI_branch
    2424                      .dwattr $C$DW$165, DW_AT_low_pc(0x00)
    2425                      .dwattr $C$DW$165, DW_AT_name("_getAtaErrorNo")
    2426                      .dwattr $C$DW$165, DW_AT_TI_call
    2427 0009c0 0801          CALL #_getAtaErrorNo ; |1190| 
         0009c2 55   
    2428                                                      ; call occurs [#_getAtaErrorNo] ; |1190| 
    2429 0009c3 C40E          MOV T0, *SP(#7) ; |1190| 
    2430 0009c5       $C$L73:    
    2431                      .dwpsn  file "../c5535_bsl_revc/ezdsp5535_v1/c55xx_csl/src/csl_mmcsd_ataIf.c",line 1194,column 5,is_s
    2432 0009c5 A40E          MOV *SP(#7), T0 ; |1194| 
    2433 0009c7       $C$L74:    
    2434                      .dwpsn  file "../c5535_bsl_revc/ezdsp5535_v1/c55xx_csl/src/csl_mmcsd_ataIf.c",line 1195,column 1,is_s
    2435 0009c7 4E11          AADD #17, SP
    2436                      .dwcfi  cfa_offset, 1
    2437              $C$DW$166       .dwtag  DW_TAG_TI_branch
    2438                      .dwattr $C$DW$166, DW_AT_low_pc(0x00)
    2439                      .dwattr $C$DW$166, DW_AT_TI_return
    2440 0009c9 4804          RET
    2441                                                      ; return occurs
    2442                      .dwattr $C$DW$149, DW_AT_TI_end_file("../c5535_bsl_revc/ezdsp5535_v1/c55xx_csl/src/csl_mmcsd_ataIf.c"
    2443                      .dwattr $C$DW$149, DW_AT_TI_end_line(0x4ab)
    2444                      .dwattr $C$DW$149, DW_AT_TI_end_column(0x01)
    2445                      .dwendentry
    2446                      .dwendtag $C$DW$149
    2447              
    2448 0009cb               .sect   ".text"
    2449                      .align 4
    2450                      .global _MMC_read_CID
    2451              
    2452              $C$DW$167       .dwtag  DW_TAG_subprogram, DW_AT_name("MMC_read_CID")
    2453                      .dwattr $C$DW$167, DW_AT_low_pc(_MMC_read_CID)
    2454                      .dwattr $C$DW$167, DW_AT_high_pc(0x00)
    2455                      .dwattr $C$DW$167, DW_AT_TI_symbol_name("_MMC_read_CID")
    2456                      .dwattr $C$DW$167, DW_AT_external
    2457                      .dwattr $C$DW$167, DW_AT_type(*$C$DW$T$107)
    2458                      .dwattr $C$DW$167, DW_AT_TI_begin_file("../c5535_bsl_revc/ezdsp5535_v1/c55xx_csl/src/csl_mmcsd_ataIf.
    2459                      .dwattr $C$DW$167, DW_AT_TI_begin_line(0x4e6)
    2460                      .dwattr $C$DW$167, DW_AT_TI_begin_column(0x0a)
    2461                      .dwattr $C$DW$167, DW_AT_TI_max_frame_size(0x0c)
    2462                      .dwpsn  file "../c5535_bsl_revc/ezdsp5535_v1/c55xx_csl/src/csl_mmcsd_ataIf.c",line 1256,column 1,is_s
    2463              
    2464                      .dwfde $C$DW$CIE, _MMC_read_CID
    2465              $C$DW$168       .dwtag  DW_TAG_formal_parameter, DW_AT_name("pAtaMediaState")
    2466                      .dwattr $C$DW$168, DW_AT_TI_symbol_name("_pAtaMediaState")
    2467                      .dwattr $C$DW$168, DW_AT_type(*$C$DW$T$3)
    2468                      .dwattr $C$DW$168, DW_AT_location[DW_OP_reg17]
    2469              $C$DW$169       .dwtag  DW_TAG_formal_parameter, DW_AT_name("pBuf")
    2470                      .dwattr $C$DW$169, DW_AT_TI_symbol_name("_pBuf")
TMS320C55x Assembler PC v4.4.1 Fri Sep 14 23:31:58 2018

Tools Copyright (c) 1996-2012 Texas Instruments Incorporated
csl_mmcsd_ataIf.asm                                                  PAGE   58

    2471                      .dwattr $C$DW$169, DW_AT_type(*$C$DW$T$145)
    2472                      .dwattr $C$DW$169, DW_AT_location[DW_OP_reg19]
    2473              ;*******************************************************************************
    2474              ;* FUNCTION NAME: MMC_read_CID                                                 *
    2475              ;*                                                                             *
    2476              ;*   Function Uses Regs : AC0,AC0,AC1,AC1,T0,AR0,XAR0,AR1,XAR1,AR2,AR3,XAR3,SP,*
    2477              ;*                        CARRY,TC1,M40,SATA,SATD,RDM,FRCT,SMUL                *
    2478              ;*   Stack Frame        : Compact (No Frame Pointer, w/ debug)                 *
    2479              ;*   Total Frame Size   : 12 words                                             *
    2480              ;*                        (2 return address/alignment)                         *
    2481              ;*                        (10 local values)                                    *
    2482              ;*   Min System Stack   : 1 word                                               *
    2483              ;*******************************************************************************
    2484 0009cc       _MMC_read_CID:
    2485                      .dwcfi  cfa_offset, 1
    2486                      .dwcfi  save_reg_to_mem, 91, -1
    2487 0009cc 4EF5          AADD #-11, SP
    2488                      .dwcfi  cfa_offset, 12
    2489              $C$DW$170       .dwtag  DW_TAG_variable, DW_AT_name("pAtaMediaState")
    2490                      .dwattr $C$DW$170, DW_AT_TI_symbol_name("_pAtaMediaState")
    2491                      .dwattr $C$DW$170, DW_AT_type(*$C$DW$T$3)
    2492                      .dwattr $C$DW$170, DW_AT_location[DW_OP_bregx 0x24 0]
    2493              $C$DW$171       .dwtag  DW_TAG_variable, DW_AT_name("pBuf")
    2494                      .dwattr $C$DW$171, DW_AT_TI_symbol_name("_pBuf")
    2495                      .dwattr $C$DW$171, DW_AT_type(*$C$DW$T$145)
    2496                      .dwattr $C$DW$171, DW_AT_location[DW_OP_bregx 0x24 2]
    2497              $C$DW$172       .dwtag  DW_TAG_variable, DW_AT_name("hMmcSd")
    2498                      .dwattr $C$DW$172, DW_AT_TI_symbol_name("_hMmcSd")
    2499                      .dwattr $C$DW$172, DW_AT_type(*$C$DW$T$135)
    2500                      .dwattr $C$DW$172, DW_AT_location[DW_OP_bregx 0x24 4]
    2501              $C$DW$173       .dwtag  DW_TAG_variable, DW_AT_name("pMediaState")
    2502                      .dwattr $C$DW$173, DW_AT_TI_symbol_name("_pMediaState")
    2503                      .dwattr $C$DW$173, DW_AT_type(*$C$DW$T$137)
    2504                      .dwattr $C$DW$173, DW_AT_location[DW_OP_bregx 0x24 6]
    2505              $C$DW$174       .dwtag  DW_TAG_variable, DW_AT_name("offset")
    2506                      .dwattr $C$DW$174, DW_AT_TI_symbol_name("_offset")
    2507                      .dwattr $C$DW$174, DW_AT_type(*$C$DW$T$138)
    2508                      .dwattr $C$DW$174, DW_AT_location[DW_OP_bregx 0x24 8]
    2509              $C$DW$175       .dwtag  DW_TAG_variable, DW_AT_name("index")
    2510                      .dwattr $C$DW$175, DW_AT_TI_symbol_name("_index")
    2511                      .dwattr $C$DW$175, DW_AT_type(*$C$DW$T$19)
    2512                      .dwattr $C$DW$175, DW_AT_location[DW_OP_bregx 0x24 9]
    2513 0009ce EB04          MOV XAR1, dbl(*SP(#2))
         0009d0 95   
    2514 0009d1 EB00          MOV XAR0, dbl(*SP(#0))
         0009d3 85   
    2515                      .dwpsn  file "../c5535_bsl_revc/ezdsp5535_v1/c55xx_csl/src/csl_mmcsd_ataIf.c",line 1262,column 2,is_s
    2516 0009d4 ED00          MOV dbl(*SP(#0)), XAR3
         0009d6 BF   
    2517 0009d7 EB0C          MOV XAR3, dbl(*SP(#6))
         0009d9 B5   
    2518                      .dwpsn  file "../c5535_bsl_revc/ezdsp5535_v1/c55xx_csl/src/csl_mmcsd_ataIf.c",line 1264,column 5,is_s
    2519              
    2520 0009da 90B0          MOV XAR3, AC0
    2521 0009dc 3D01  ||      MOV #0, AC1 ; |1264| 
TMS320C55x Assembler PC v4.4.1 Fri Sep 14 23:31:58 2018

Tools Copyright (c) 1996-2012 Texas Instruments Incorporated
csl_mmcsd_ataIf.asm                                                  PAGE   59

    2522              
    2523 0009de 1210          CMPU AC1 == AC0, TC1 ; |1264| 
         0009e0 04   
    2524 0009e1 0464          BCC $C$L75,TC1 ; |1264| 
         0009e3 14   
    2525                                                      ; branchcc occurs ; |1264| 
    2526 0009e4 ED61          MOV dbl(*AR3), XAR3
         0009e6 BF   
    2527 0009e7 90B0          MOV XAR3, AC0
    2528 0009e9 1210          CMPU AC1 == AC0, TC1 ; |1264| 
         0009eb 04   
    2529 0009ec 6564          BCC $C$L75,TC1 ; |1264| 
    2530                                                      ; branchcc occurs ; |1264| 
    2531 0009ee ED04          MOV dbl(*SP(#2)), XAR3
         0009f0 BF   
    2532 0009f1 90B0          MOV XAR3, AC0
    2533 0009f3 121C          CMPU AC1 != AC0, TC1 ; |1264| 
         0009f5 04   
    2534 0009f6 6364          BCC $C$L76,TC1 ; |1264| 
    2535                                                      ; branchcc occurs ; |1264| 
    2536 0009f8       $C$L75:    
    2537                      .dwpsn  file "../c5535_bsl_revc/ezdsp5535_v1/c55xx_csl/src/csl_mmcsd_ataIf.c",line 1268,column 3,is_s
    2538 0009f8 7603          MOV #768, T0 ; |1268| 
         0009fa 0048 
    2539 0009fc 4A36          B $C$L79  ; |1268| 
    2540                                                      ; branch occurs ; |1268| 
    2541 0009fe       $C$L76:    
    2542                      .dwpsn  file "../c5535_bsl_revc/ezdsp5535_v1/c55xx_csl/src/csl_mmcsd_ataIf.c",line 1271,column 2,is_s
    2543 0009fe ED0C          MOV dbl(*SP(#6)), XAR3
         000a00 BF   
    2544 000a01 ED61          MOV dbl(*AR3), XAR3
         000a03 BF   
    2545 000a04 EB08          MOV XAR3, dbl(*SP(#4))
         000a06 B5   
    2546                      .dwpsn  file "../c5535_bsl_revc/ezdsp5535_v1/c55xx_csl/src/csl_mmcsd_ataIf.c",line 1273,column 2,is_s
    2547 000a07 E612          MOV #0, *SP(#9) ; |1273| 
         000a09 00   
    2548                      .dwpsn  file "../c5535_bsl_revc/ezdsp5535_v1/c55xx_csl/src/csl_mmcsd_ataIf.c",line 1274,column 6,is_s
    2549 000a0a E610          MOV #7, *SP(#8) ; |1274| 
         000a0c 07   
    2550                      .dwpsn  file "../c5535_bsl_revc/ezdsp5535_v1/c55xx_csl/src/csl_mmcsd_ataIf.c",line 1274,column 18,is_
    2551 000a0d A910          MOV *SP(#8), AR1 ; |1274| 
    2552 000a0f 0429          BCC $C$L78,AR1 < #0 ; |1274| 
         000a11 20   
    2553                                                      ; branchcc occurs ; |1274| 
    2554 000a12       $C$L77:    
    2555 000a12       $C$DW$L$_MMC_read_CID$6$B:
    2556                      .dwpsn  file "../c5535_bsl_revc/ezdsp5535_v1/c55xx_csl/src/csl_mmcsd_ataIf.c",line 1276,column 9,is_s
    2557 000a12 ED08          MOV dbl(*SP(#4)), XAR3
         000a14 BF   
    2558 000a15 A412          MOV *SP(#9), T0 ; |1276| 
    2559 000a17 7B00          ADD #1, T0, AR2 ; |1276| 
         000a19 01A4 
    2560 000a1b 1490          AADD AR1, AR3 ; |1276| 
         000a1d B0   
TMS320C55x Assembler PC v4.4.1 Fri Sep 14 23:31:58 2018

Tools Copyright (c) 1996-2012 Texas Instruments Incorporated
csl_mmcsd_ataIf.asm                                                  PAGE   60

    2561 000a1e A96D          MOV *AR3(#53), AR1 ; |1276| 
         000a20 0035 
    2562 000a22 CA12          MOV AR2, *SP(#9) ; |1276| 
    2563 000a24 ED04          MOV dbl(*SP(#2)), XAR3
         000a26 BF   
    2564 000a27 C96B          MOV AR1, *AR3(T0) ; |1276| 
    2565                      .dwpsn  file "../c5535_bsl_revc/ezdsp5535_v1/c55xx_csl/src/csl_mmcsd_ataIf.c",line 1274,column 31,is_
    2566 000a29 F710          SUB #1, *SP(#8) ; |1274| 
         000a2b FFFF 
    2567                      .dwpsn  file "../c5535_bsl_revc/ezdsp5535_v1/c55xx_csl/src/csl_mmcsd_ataIf.c",line 1274,column 18,is_
    2568 000a2d A910          MOV *SP(#8), AR1 ; |1274| 
    2569 000a2f 0459          BCC $C$L77,AR1 >= #0 ; |1274| 
         000a31 E0   
    2570                                                      ; branchcc occurs ; |1274| 
    2571 000a32       $C$DW$L$_MMC_read_CID$6$E:
    2572 000a32       $C$L78:    
    2573                      .dwpsn  file "../c5535_bsl_revc/ezdsp5535_v1/c55xx_csl/src/csl_mmcsd_ataIf.c",line 1279,column 5,is_s
    2574 000a32 3C04          MOV #0, T0
    2575 000a34       $C$L79:    
    2576                      .dwpsn  file "../c5535_bsl_revc/ezdsp5535_v1/c55xx_csl/src/csl_mmcsd_ataIf.c",line 1280,column 1,is_s
    2577 000a34 4E0B          AADD #11, SP
    2578                      .dwcfi  cfa_offset, 1
    2579              $C$DW$176       .dwtag  DW_TAG_TI_branch
    2580                      .dwattr $C$DW$176, DW_AT_low_pc(0x00)
    2581                      .dwattr $C$DW$176, DW_AT_TI_return
    2582 000a36 4804          RET
    2583                                                      ; return occurs
    2584              
    2585              $C$DW$177       .dwtag  DW_TAG_TI_loop
    2586                      .dwattr $C$DW$177, DW_AT_name("F:\eZdsp_DBG\eZDSP_5535_Files\ccsws2\test\Debug\csl_mmcsd_ataIf.asm:$C
    2587                      .dwattr $C$DW$177, DW_AT_TI_begin_file("../c5535_bsl_revc/ezdsp5535_v1/c55xx_csl/src/csl_mmcsd_ataIf.
    2588                      .dwattr $C$DW$177, DW_AT_TI_begin_line(0x4fa)
    2589                      .dwattr $C$DW$177, DW_AT_TI_end_line(0x4fd)
    2590              $C$DW$178       .dwtag  DW_TAG_TI_loop_range
    2591                      .dwattr $C$DW$178, DW_AT_low_pc($C$DW$L$_MMC_read_CID$6$B)
    2592                      .dwattr $C$DW$178, DW_AT_high_pc($C$DW$L$_MMC_read_CID$6$E)
    2593                      .dwendtag $C$DW$177
    2594              
    2595                      .dwattr $C$DW$167, DW_AT_TI_end_file("../c5535_bsl_revc/ezdsp5535_v1/c55xx_csl/src/csl_mmcsd_ataIf.c"
    2596                      .dwattr $C$DW$167, DW_AT_TI_end_line(0x500)
    2597                      .dwattr $C$DW$167, DW_AT_TI_end_column(0x01)
    2598                      .dwendentry
    2599                      .dwendtag $C$DW$167
    2600              
    2601 000a38               .sect   ".text"
    2602                      .align 4
    2603                      .global _MMC_read_CSD
    2604              
    2605              $C$DW$179       .dwtag  DW_TAG_subprogram, DW_AT_name("MMC_read_CSD")
    2606                      .dwattr $C$DW$179, DW_AT_low_pc(_MMC_read_CSD)
    2607                      .dwattr $C$DW$179, DW_AT_high_pc(0x00)
    2608                      .dwattr $C$DW$179, DW_AT_TI_symbol_name("_MMC_read_CSD")
    2609                      .dwattr $C$DW$179, DW_AT_external
    2610                      .dwattr $C$DW$179, DW_AT_type(*$C$DW$T$107)
    2611                      .dwattr $C$DW$179, DW_AT_TI_begin_file("../c5535_bsl_revc/ezdsp5535_v1/c55xx_csl/src/csl_mmcsd_ataIf.
TMS320C55x Assembler PC v4.4.1 Fri Sep 14 23:31:58 2018

Tools Copyright (c) 1996-2012 Texas Instruments Incorporated
csl_mmcsd_ataIf.asm                                                  PAGE   61

    2612                      .dwattr $C$DW$179, DW_AT_TI_begin_line(0x53b)
    2613                      .dwattr $C$DW$179, DW_AT_TI_begin_column(0x0a)
    2614                      .dwattr $C$DW$179, DW_AT_TI_max_frame_size(0x0c)
    2615                      .dwpsn  file "../c5535_bsl_revc/ezdsp5535_v1/c55xx_csl/src/csl_mmcsd_ataIf.c",line 1341,column 1,is_s
    2616              
    2617                      .dwfde $C$DW$CIE, _MMC_read_CSD
    2618              $C$DW$180       .dwtag  DW_TAG_formal_parameter, DW_AT_name("pAtaMediaState")
    2619                      .dwattr $C$DW$180, DW_AT_TI_symbol_name("_pAtaMediaState")
    2620                      .dwattr $C$DW$180, DW_AT_type(*$C$DW$T$3)
    2621                      .dwattr $C$DW$180, DW_AT_location[DW_OP_reg17]
    2622              $C$DW$181       .dwtag  DW_TAG_formal_parameter, DW_AT_name("pBuf")
    2623                      .dwattr $C$DW$181, DW_AT_TI_symbol_name("_pBuf")
    2624                      .dwattr $C$DW$181, DW_AT_type(*$C$DW$T$145)
    2625                      .dwattr $C$DW$181, DW_AT_location[DW_OP_reg19]
    2626              ;*******************************************************************************
    2627              ;* FUNCTION NAME: MMC_read_CSD                                                 *
    2628              ;*                                                                             *
    2629              ;*   Function Uses Regs : AC0,AC0,AC1,AC1,T0,AR0,XAR0,AR1,XAR1,AR2,AR3,XAR3,SP,*
    2630              ;*                        CARRY,TC1,M40,SATA,SATD,RDM,FRCT,SMUL                *
    2631              ;*   Stack Frame        : Compact (No Frame Pointer, w/ debug)                 *
    2632              ;*   Total Frame Size   : 12 words                                             *
    2633              ;*                        (2 return address/alignment)                         *
    2634              ;*                        (10 local values)                                    *
    2635              ;*   Min System Stack   : 1 word                                               *
    2636              ;*******************************************************************************
    2637 000a38       _MMC_read_CSD:
    2638                      .dwcfi  cfa_offset, 1
    2639                      .dwcfi  save_reg_to_mem, 91, -1
    2640 000a38 4EF5          AADD #-11, SP
    2641                      .dwcfi  cfa_offset, 12
    2642              $C$DW$182       .dwtag  DW_TAG_variable, DW_AT_name("pAtaMediaState")
    2643                      .dwattr $C$DW$182, DW_AT_TI_symbol_name("_pAtaMediaState")
    2644                      .dwattr $C$DW$182, DW_AT_type(*$C$DW$T$3)
    2645                      .dwattr $C$DW$182, DW_AT_location[DW_OP_bregx 0x24 0]
    2646              $C$DW$183       .dwtag  DW_TAG_variable, DW_AT_name("pBuf")
    2647                      .dwattr $C$DW$183, DW_AT_TI_symbol_name("_pBuf")
    2648                      .dwattr $C$DW$183, DW_AT_type(*$C$DW$T$145)
    2649                      .dwattr $C$DW$183, DW_AT_location[DW_OP_bregx 0x24 2]
    2650              $C$DW$184       .dwtag  DW_TAG_variable, DW_AT_name("hMmcSd")
    2651                      .dwattr $C$DW$184, DW_AT_TI_symbol_name("_hMmcSd")
    2652                      .dwattr $C$DW$184, DW_AT_type(*$C$DW$T$135)
    2653                      .dwattr $C$DW$184, DW_AT_location[DW_OP_bregx 0x24 4]
    2654              $C$DW$185       .dwtag  DW_TAG_variable, DW_AT_name("pMediaState")
    2655                      .dwattr $C$DW$185, DW_AT_TI_symbol_name("_pMediaState")
    2656                      .dwattr $C$DW$185, DW_AT_type(*$C$DW$T$137)
    2657                      .dwattr $C$DW$185, DW_AT_location[DW_OP_bregx 0x24 6]
    2658              $C$DW$186       .dwtag  DW_TAG_variable, DW_AT_name("offset")
    2659                      .dwattr $C$DW$186, DW_AT_TI_symbol_name("_offset")
    2660                      .dwattr $C$DW$186, DW_AT_type(*$C$DW$T$138)
    2661                      .dwattr $C$DW$186, DW_AT_location[DW_OP_bregx 0x24 8]
    2662              $C$DW$187       .dwtag  DW_TAG_variable, DW_AT_name("index")
    2663                      .dwattr $C$DW$187, DW_AT_TI_symbol_name("_index")
    2664                      .dwattr $C$DW$187, DW_AT_type(*$C$DW$T$19)
    2665                      .dwattr $C$DW$187, DW_AT_location[DW_OP_bregx 0x24 9]
    2666 000a3a EB04          MOV XAR1, dbl(*SP(#2))
TMS320C55x Assembler PC v4.4.1 Fri Sep 14 23:31:58 2018

Tools Copyright (c) 1996-2012 Texas Instruments Incorporated
csl_mmcsd_ataIf.asm                                                  PAGE   62

         000a3c 95   
    2667 000a3d EB00          MOV XAR0, dbl(*SP(#0))
         000a3f 85   
    2668                      .dwpsn  file "../c5535_bsl_revc/ezdsp5535_v1/c55xx_csl/src/csl_mmcsd_ataIf.c",line 1348,column 2,is_s
    2669 000a40 ED00          MOV dbl(*SP(#0)), XAR3
         000a42 BF   
    2670 000a43 EB0C          MOV XAR3, dbl(*SP(#6))
         000a45 B5   
    2671                      .dwpsn  file "../c5535_bsl_revc/ezdsp5535_v1/c55xx_csl/src/csl_mmcsd_ataIf.c",line 1350,column 5,is_s
    2672              
    2673 000a46 90B0          MOV XAR3, AC0
    2674 000a48 3D01  ||      MOV #0, AC1 ; |1350| 
    2675              
    2676 000a4a 1210          CMPU AC1 == AC0, TC1 ; |1350| 
         000a4c 04   
    2677 000a4d 0464          BCC $C$L80,TC1 ; |1350| 
         000a4f 14   
    2678                                                      ; branchcc occurs ; |1350| 
    2679 000a50 ED61          MOV dbl(*AR3), XAR3
         000a52 BF   
    2680 000a53 90B0          MOV XAR3, AC0
    2681 000a55 1210          CMPU AC1 == AC0, TC1 ; |1350| 
         000a57 04   
    2682 000a58 6564          BCC $C$L80,TC1 ; |1350| 
    2683                                                      ; branchcc occurs ; |1350| 
    2684 000a5a ED04          MOV dbl(*SP(#2)), XAR3
         000a5c BF   
    2685 000a5d 90B0          MOV XAR3, AC0
    2686 000a5f 121C          CMPU AC1 != AC0, TC1 ; |1350| 
         000a61 04   
    2687 000a62 6364          BCC $C$L81,TC1 ; |1350| 
    2688                                                      ; branchcc occurs ; |1350| 
    2689 000a64       $C$L80:    
    2690                      .dwpsn  file "../c5535_bsl_revc/ezdsp5535_v1/c55xx_csl/src/csl_mmcsd_ataIf.c",line 1354,column 3,is_s
    2691 000a64 7603          MOV #768, T0 ; |1354| 
         000a66 0048 
    2692 000a68 4A36          B $C$L84  ; |1354| 
    2693                                                      ; branch occurs ; |1354| 
    2694 000a6a       $C$L81:    
    2695                      .dwpsn  file "../c5535_bsl_revc/ezdsp5535_v1/c55xx_csl/src/csl_mmcsd_ataIf.c",line 1357,column 2,is_s
    2696 000a6a ED0C          MOV dbl(*SP(#6)), XAR3
         000a6c BF   
    2697 000a6d ED61          MOV dbl(*AR3), XAR3
         000a6f BF   
    2698 000a70 EB08          MOV XAR3, dbl(*SP(#4))
         000a72 B5   
    2699                      .dwpsn  file "../c5535_bsl_revc/ezdsp5535_v1/c55xx_csl/src/csl_mmcsd_ataIf.c",line 1359,column 2,is_s
    2700 000a73 E612          MOV #0, *SP(#9) ; |1359| 
         000a75 00   
    2701                      .dwpsn  file "../c5535_bsl_revc/ezdsp5535_v1/c55xx_csl/src/csl_mmcsd_ataIf.c",line 1360,column 6,is_s
    2702 000a76 E610          MOV #7, *SP(#8) ; |1360| 
         000a78 07   
    2703                      .dwpsn  file "../c5535_bsl_revc/ezdsp5535_v1/c55xx_csl/src/csl_mmcsd_ataIf.c",line 1360,column 18,is_
    2704 000a79 A910          MOV *SP(#8), AR1 ; |1360| 
    2705 000a7b 0429          BCC $C$L83,AR1 < #0 ; |1360| 
TMS320C55x Assembler PC v4.4.1 Fri Sep 14 23:31:58 2018

Tools Copyright (c) 1996-2012 Texas Instruments Incorporated
csl_mmcsd_ataIf.asm                                                  PAGE   63

         000a7d 20   
    2706                                                      ; branchcc occurs ; |1360| 
    2707 000a7e       $C$L82:    
    2708 000a7e       $C$DW$L$_MMC_read_CSD$6$B:
    2709                      .dwpsn  file "../c5535_bsl_revc/ezdsp5535_v1/c55xx_csl/src/csl_mmcsd_ataIf.c",line 1362,column 9,is_s
    2710 000a7e ED08          MOV dbl(*SP(#4)), XAR3
         000a80 BF   
    2711 000a81 A412          MOV *SP(#9), T0 ; |1362| 
    2712 000a83 7B00          ADD #1, T0, AR2 ; |1362| 
         000a85 01A4 
    2713 000a87 1490          AADD AR1, AR3 ; |1362| 
         000a89 B0   
    2714 000a8a A96D          MOV *AR3(#53), AR1 ; |1362| 
         000a8c 0035 
    2715 000a8e CA12          MOV AR2, *SP(#9) ; |1362| 
    2716 000a90 ED04          MOV dbl(*SP(#2)), XAR3
         000a92 BF   
    2717 000a93 C96B          MOV AR1, *AR3(T0) ; |1362| 
    2718                      .dwpsn  file "../c5535_bsl_revc/ezdsp5535_v1/c55xx_csl/src/csl_mmcsd_ataIf.c",line 1360,column 31,is_
    2719 000a95 F710          SUB #1, *SP(#8) ; |1360| 
         000a97 FFFF 
    2720                      .dwpsn  file "../c5535_bsl_revc/ezdsp5535_v1/c55xx_csl/src/csl_mmcsd_ataIf.c",line 1360,column 18,is_
    2721 000a99 A910          MOV *SP(#8), AR1 ; |1360| 
    2722 000a9b 0459          BCC $C$L82,AR1 >= #0 ; |1360| 
         000a9d E0   
    2723                                                      ; branchcc occurs ; |1360| 
    2724 000a9e       $C$DW$L$_MMC_read_CSD$6$E:
    2725 000a9e       $C$L83:    
    2726                      .dwpsn  file "../c5535_bsl_revc/ezdsp5535_v1/c55xx_csl/src/csl_mmcsd_ataIf.c",line 1365,column 5,is_s
    2727 000a9e 3C04          MOV #0, T0
    2728 000aa0       $C$L84:    
    2729                      .dwpsn  file "../c5535_bsl_revc/ezdsp5535_v1/c55xx_csl/src/csl_mmcsd_ataIf.c",line 1366,column 1,is_s
    2730 000aa0 4E0B          AADD #11, SP
    2731                      .dwcfi  cfa_offset, 1
    2732              $C$DW$188       .dwtag  DW_TAG_TI_branch
    2733                      .dwattr $C$DW$188, DW_AT_low_pc(0x00)
    2734                      .dwattr $C$DW$188, DW_AT_TI_return
    2735 000aa2 4804          RET
    2736                                                      ; return occurs
    2737              
    2738              $C$DW$189       .dwtag  DW_TAG_TI_loop
    2739                      .dwattr $C$DW$189, DW_AT_name("F:\eZdsp_DBG\eZDSP_5535_Files\ccsws2\test\Debug\csl_mmcsd_ataIf.asm:$C
    2740                      .dwattr $C$DW$189, DW_AT_TI_begin_file("../c5535_bsl_revc/ezdsp5535_v1/c55xx_csl/src/csl_mmcsd_ataIf.
    2741                      .dwattr $C$DW$189, DW_AT_TI_begin_line(0x550)
    2742                      .dwattr $C$DW$189, DW_AT_TI_end_line(0x553)
    2743              $C$DW$190       .dwtag  DW_TAG_TI_loop_range
    2744                      .dwattr $C$DW$190, DW_AT_low_pc($C$DW$L$_MMC_read_CSD$6$B)
    2745                      .dwattr $C$DW$190, DW_AT_high_pc($C$DW$L$_MMC_read_CSD$6$E)
    2746                      .dwendtag $C$DW$189
    2747              
    2748                      .dwattr $C$DW$179, DW_AT_TI_end_file("../c5535_bsl_revc/ezdsp5535_v1/c55xx_csl/src/csl_mmcsd_ataIf.c"
    2749                      .dwattr $C$DW$179, DW_AT_TI_end_line(0x556)
    2750                      .dwattr $C$DW$179, DW_AT_TI_end_column(0x01)
    2751                      .dwendentry
    2752                      .dwendtag $C$DW$179
TMS320C55x Assembler PC v4.4.1 Fri Sep 14 23:31:58 2018

Tools Copyright (c) 1996-2012 Texas Instruments Incorporated
csl_mmcsd_ataIf.asm                                                  PAGE   64

    2753              
    2754 000aa4               .sect   ".text"
    2755                      .align 4
    2756                      .global _MMC_writeSectorFlush
    2757              
    2758              $C$DW$191       .dwtag  DW_TAG_subprogram, DW_AT_name("MMC_writeSectorFlush")
    2759                      .dwattr $C$DW$191, DW_AT_low_pc(_MMC_writeSectorFlush)
    2760                      .dwattr $C$DW$191, DW_AT_high_pc(0x00)
    2761                      .dwattr $C$DW$191, DW_AT_TI_symbol_name("_MMC_writeSectorFlush")
    2762                      .dwattr $C$DW$191, DW_AT_external
    2763                      .dwattr $C$DW$191, DW_AT_type(*$C$DW$T$107)
    2764                      .dwattr $C$DW$191, DW_AT_TI_begin_file("../c5535_bsl_revc/ezdsp5535_v1/c55xx_csl/src/csl_mmcsd_ataIf.
    2765                      .dwattr $C$DW$191, DW_AT_TI_begin_line(0x583)
    2766                      .dwattr $C$DW$191, DW_AT_TI_begin_column(0x0a)
    2767                      .dwattr $C$DW$191, DW_AT_TI_max_frame_size(0x04)
    2768                      .dwpsn  file "../c5535_bsl_revc/ezdsp5535_v1/c55xx_csl/src/csl_mmcsd_ataIf.c",line 1412,column 1,is_s
    2769              
    2770                      .dwfde $C$DW$CIE, _MMC_writeSectorFlush
    2771              $C$DW$192       .dwtag  DW_TAG_formal_parameter, DW_AT_name("pAtaMediaState")
    2772                      .dwattr $C$DW$192, DW_AT_TI_symbol_name("_pAtaMediaState")
    2773                      .dwattr $C$DW$192, DW_AT_type(*$C$DW$T$3)
    2774                      .dwattr $C$DW$192, DW_AT_location[DW_OP_reg17]
    2775              ;*******************************************************************************
    2776              ;* FUNCTION NAME: MMC_writeSectorFlush                                         *
    2777              ;*                                                                             *
    2778              ;*   Function Uses Regs : T0,AR0,XAR0,SP,M40,SATA,SATD,RDM,FRCT,SMUL           *
    2779              ;*   Stack Frame        : Compact (No Frame Pointer, w/ debug)                 *
    2780              ;*   Total Frame Size   : 4 words                                              *
    2781              ;*                        (2 return address/alignment)                         *
    2782              ;*                        (2 local values)                                     *
    2783              ;*   Min System Stack   : 1 word                                               *
    2784              ;*******************************************************************************
    2785 000aa4       _MMC_writeSectorFlush:
    2786                      .dwcfi  cfa_offset, 1
    2787                      .dwcfi  save_reg_to_mem, 91, -1
    2788 000aa4 4EFD          AADD #-3, SP
    2789                      .dwcfi  cfa_offset, 4
    2790              $C$DW$193       .dwtag  DW_TAG_variable, DW_AT_name("pAtaMediaState")
    2791                      .dwattr $C$DW$193, DW_AT_TI_symbol_name("_pAtaMediaState")
    2792                      .dwattr $C$DW$193, DW_AT_type(*$C$DW$T$3)
    2793                      .dwattr $C$DW$193, DW_AT_location[DW_OP_bregx 0x24 0]
    2794 000aa6 EB00          MOV XAR0, dbl(*SP(#0))
         000aa8 85   
    2795                      .dwpsn  file "../c5535_bsl_revc/ezdsp5535_v1/c55xx_csl/src/csl_mmcsd_ataIf.c",line 1413,column 5,is_s
    2796 000aa9 3C04          MOV #0, T0
    2797                      .dwpsn  file "../c5535_bsl_revc/ezdsp5535_v1/c55xx_csl/src/csl_mmcsd_ataIf.c",line 1414,column 1,is_s
    2798 000aab 4E03          AADD #3, SP
    2799                      .dwcfi  cfa_offset, 1
    2800              $C$DW$194       .dwtag  DW_TAG_TI_branch
    2801                      .dwattr $C$DW$194, DW_AT_low_pc(0x00)
    2802                      .dwattr $C$DW$194, DW_AT_TI_return
    2803 000aad 4804          RET
    2804                                                      ; return occurs
    2805                      .dwattr $C$DW$191, DW_AT_TI_end_file("../c5535_bsl_revc/ezdsp5535_v1/c55xx_csl/src/csl_mmcsd_ataIf.c"
    2806                      .dwattr $C$DW$191, DW_AT_TI_end_line(0x586)
TMS320C55x Assembler PC v4.4.1 Fri Sep 14 23:31:58 2018

Tools Copyright (c) 1996-2012 Texas Instruments Incorporated
csl_mmcsd_ataIf.asm                                                  PAGE   65

    2807                      .dwattr $C$DW$191, DW_AT_TI_end_column(0x01)
    2808                      .dwendentry
    2809                      .dwendtag $C$DW$191
    2810              
    2811 000aaf               .sect   ".text"
    2812                      .align 4
    2813                      .global _MMC_commandReadyStatusCheck
    2814              
    2815              $C$DW$195       .dwtag  DW_TAG_subprogram, DW_AT_name("MMC_commandReadyStatusCheck")
    2816                      .dwattr $C$DW$195, DW_AT_low_pc(_MMC_commandReadyStatusCheck)
    2817                      .dwattr $C$DW$195, DW_AT_high_pc(0x00)
    2818                      .dwattr $C$DW$195, DW_AT_TI_symbol_name("_MMC_commandReadyStatusCheck")
    2819                      .dwattr $C$DW$195, DW_AT_external
    2820                      .dwattr $C$DW$195, DW_AT_type(*$C$DW$T$10)
    2821                      .dwattr $C$DW$195, DW_AT_TI_begin_file("../c5535_bsl_revc/ezdsp5535_v1/c55xx_csl/src/csl_mmcsd_ataIf.
    2822                      .dwattr $C$DW$195, DW_AT_TI_begin_line(0x5b4)
    2823                      .dwattr $C$DW$195, DW_AT_TI_begin_column(0x05)
    2824                      .dwattr $C$DW$195, DW_AT_TI_max_frame_size(0x04)
    2825                      .dwpsn  file "../c5535_bsl_revc/ezdsp5535_v1/c55xx_csl/src/csl_mmcsd_ataIf.c",line 1461,column 1,is_s
    2826              
    2827                      .dwfde $C$DW$CIE, _MMC_commandReadyStatusCheck
    2828              $C$DW$196       .dwtag  DW_TAG_formal_parameter, DW_AT_name("pAtaMediaState")
    2829                      .dwattr $C$DW$196, DW_AT_TI_symbol_name("_pAtaMediaState")
    2830                      .dwattr $C$DW$196, DW_AT_type(*$C$DW$T$3)
    2831                      .dwattr $C$DW$196, DW_AT_location[DW_OP_reg17]
    2832              ;*******************************************************************************
    2833              ;* FUNCTION NAME: MMC_commandReadyStatusCheck                                  *
    2834              ;*                                                                             *
    2835              ;*   Function Uses Regs : T0,AR0,XAR0,SP,M40,SATA,SATD,RDM,FRCT,SMUL           *
    2836              ;*   Stack Frame        : Compact (No Frame Pointer, w/ debug)                 *
    2837              ;*   Total Frame Size   : 4 words                                              *
    2838              ;*                        (2 return address/alignment)                         *
    2839              ;*                        (2 local values)                                     *
    2840              ;*   Min System Stack   : 1 word                                               *
    2841              ;*******************************************************************************
    2842 000ab0       _MMC_commandReadyStatusCheck:
    2843                      .dwcfi  cfa_offset, 1
    2844                      .dwcfi  save_reg_to_mem, 91, -1
    2845 000ab0 4EFD          AADD #-3, SP
    2846                      .dwcfi  cfa_offset, 4
    2847              $C$DW$197       .dwtag  DW_TAG_variable, DW_AT_name("pAtaMediaState")
    2848                      .dwattr $C$DW$197, DW_AT_TI_symbol_name("_pAtaMediaState")
    2849                      .dwattr $C$DW$197, DW_AT_type(*$C$DW$T$3)
    2850                      .dwattr $C$DW$197, DW_AT_location[DW_OP_bregx 0x24 0]
    2851 000ab2 EB00          MOV XAR0, dbl(*SP(#0))
         000ab4 85   
    2852                      .dwpsn  file "../c5535_bsl_revc/ezdsp5535_v1/c55xx_csl/src/csl_mmcsd_ataIf.c",line 1462,column 5,is_s
    2853 000ab5 3C04          MOV #0, T0
    2854                      .dwpsn  file "../c5535_bsl_revc/ezdsp5535_v1/c55xx_csl/src/csl_mmcsd_ataIf.c",line 1463,column 1,is_s
    2855 000ab7 4E03          AADD #3, SP
    2856                      .dwcfi  cfa_offset, 1
    2857              $C$DW$198       .dwtag  DW_TAG_TI_branch
    2858                      .dwattr $C$DW$198, DW_AT_low_pc(0x00)
    2859                      .dwattr $C$DW$198, DW_AT_TI_return
    2860 000ab9 4804          RET
TMS320C55x Assembler PC v4.4.1 Fri Sep 14 23:31:58 2018

Tools Copyright (c) 1996-2012 Texas Instruments Incorporated
csl_mmcsd_ataIf.asm                                                  PAGE   66

    2861                                                      ; return occurs
    2862                      .dwattr $C$DW$195, DW_AT_TI_end_file("../c5535_bsl_revc/ezdsp5535_v1/c55xx_csl/src/csl_mmcsd_ataIf.c"
    2863                      .dwattr $C$DW$195, DW_AT_TI_end_line(0x5b7)
    2864                      .dwattr $C$DW$195, DW_AT_TI_end_column(0x01)
    2865                      .dwendentry
    2866                      .dwendtag $C$DW$195
    2867              
    2868 000abb               .sect   ".text"
    2869                      .align 4
    2870                      .global _MMC_dataReadyStatusCheck
    2871              
    2872              $C$DW$199       .dwtag  DW_TAG_subprogram, DW_AT_name("MMC_dataReadyStatusCheck")
    2873                      .dwattr $C$DW$199, DW_AT_low_pc(_MMC_dataReadyStatusCheck)
    2874                      .dwattr $C$DW$199, DW_AT_high_pc(0x00)
    2875                      .dwattr $C$DW$199, DW_AT_TI_symbol_name("_MMC_dataReadyStatusCheck")
    2876                      .dwattr $C$DW$199, DW_AT_external
    2877                      .dwattr $C$DW$199, DW_AT_type(*$C$DW$T$107)
    2878                      .dwattr $C$DW$199, DW_AT_TI_begin_file("../c5535_bsl_revc/ezdsp5535_v1/c55xx_csl/src/csl_mmcsd_ataIf.
    2879                      .dwattr $C$DW$199, DW_AT_TI_begin_line(0x5e4)
    2880                      .dwattr $C$DW$199, DW_AT_TI_begin_column(0x0a)
    2881                      .dwattr $C$DW$199, DW_AT_TI_max_frame_size(0x04)
    2882                      .dwpsn  file "../c5535_bsl_revc/ezdsp5535_v1/c55xx_csl/src/csl_mmcsd_ataIf.c",line 1509,column 1,is_s
    2883              
    2884                      .dwfde $C$DW$CIE, _MMC_dataReadyStatusCheck
    2885              $C$DW$200       .dwtag  DW_TAG_formal_parameter, DW_AT_name("pAtaMediaState")
    2886                      .dwattr $C$DW$200, DW_AT_TI_symbol_name("_pAtaMediaState")
    2887                      .dwattr $C$DW$200, DW_AT_type(*$C$DW$T$3)
    2888                      .dwattr $C$DW$200, DW_AT_location[DW_OP_reg17]
    2889              ;*******************************************************************************
    2890              ;* FUNCTION NAME: MMC_dataReadyStatusCheck                                     *
    2891              ;*                                                                             *
    2892              ;*   Function Uses Regs : T0,AR0,XAR0,SP,M40,SATA,SATD,RDM,FRCT,SMUL           *
    2893              ;*   Stack Frame        : Compact (No Frame Pointer, w/ debug)                 *
    2894              ;*   Total Frame Size   : 4 words                                              *
    2895              ;*                        (2 return address/alignment)                         *
    2896              ;*                        (2 local values)                                     *
    2897              ;*   Min System Stack   : 1 word                                               *
    2898              ;*******************************************************************************
    2899 000abc       _MMC_dataReadyStatusCheck:
    2900                      .dwcfi  cfa_offset, 1
    2901                      .dwcfi  save_reg_to_mem, 91, -1
    2902 000abc 4EFD          AADD #-3, SP
    2903                      .dwcfi  cfa_offset, 4
    2904              $C$DW$201       .dwtag  DW_TAG_variable, DW_AT_name("pAtaMediaState")
    2905                      .dwattr $C$DW$201, DW_AT_TI_symbol_name("_pAtaMediaState")
    2906                      .dwattr $C$DW$201, DW_AT_type(*$C$DW$T$3)
    2907                      .dwattr $C$DW$201, DW_AT_location[DW_OP_bregx 0x24 0]
    2908 000abe EB00          MOV XAR0, dbl(*SP(#0))
         000ac0 85   
    2909                      .dwpsn  file "../c5535_bsl_revc/ezdsp5535_v1/c55xx_csl/src/csl_mmcsd_ataIf.c",line 1510,column 5,is_s
    2910 000ac1 3C04          MOV #0, T0
    2911                      .dwpsn  file "../c5535_bsl_revc/ezdsp5535_v1/c55xx_csl/src/csl_mmcsd_ataIf.c",line 1511,column 1,is_s
    2912 000ac3 4E03          AADD #3, SP
    2913                      .dwcfi  cfa_offset, 1
    2914              $C$DW$202       .dwtag  DW_TAG_TI_branch
TMS320C55x Assembler PC v4.4.1 Fri Sep 14 23:31:58 2018

Tools Copyright (c) 1996-2012 Texas Instruments Incorporated
csl_mmcsd_ataIf.asm                                                  PAGE   67

    2915                      .dwattr $C$DW$202, DW_AT_low_pc(0x00)
    2916                      .dwattr $C$DW$202, DW_AT_TI_return
    2917 000ac5 4804          RET
    2918                                                      ; return occurs
    2919                      .dwattr $C$DW$199, DW_AT_TI_end_file("../c5535_bsl_revc/ezdsp5535_v1/c55xx_csl/src/csl_mmcsd_ataIf.c"
    2920                      .dwattr $C$DW$199, DW_AT_TI_end_line(0x5e7)
    2921                      .dwattr $C$DW$199, DW_AT_TI_end_column(0x01)
    2922                      .dwendentry
    2923                      .dwendtag $C$DW$199
    2924              
    2925 000ac7               .sect   ".text"
    2926                      .align 4
    2927                      .global _MMC_busyStatusCheck
    2928              
    2929              $C$DW$203       .dwtag  DW_TAG_subprogram, DW_AT_name("MMC_busyStatusCheck")
    2930                      .dwattr $C$DW$203, DW_AT_low_pc(_MMC_busyStatusCheck)
    2931                      .dwattr $C$DW$203, DW_AT_high_pc(0x00)
    2932                      .dwattr $C$DW$203, DW_AT_TI_symbol_name("_MMC_busyStatusCheck")
    2933                      .dwattr $C$DW$203, DW_AT_external
    2934                      .dwattr $C$DW$203, DW_AT_type(*$C$DW$T$107)
    2935                      .dwattr $C$DW$203, DW_AT_TI_begin_file("../c5535_bsl_revc/ezdsp5535_v1/c55xx_csl/src/csl_mmcsd_ataIf.
    2936                      .dwattr $C$DW$203, DW_AT_TI_begin_line(0x614)
    2937                      .dwattr $C$DW$203, DW_AT_TI_begin_column(0x0a)
    2938                      .dwattr $C$DW$203, DW_AT_TI_max_frame_size(0x04)
    2939                      .dwpsn  file "../c5535_bsl_revc/ezdsp5535_v1/c55xx_csl/src/csl_mmcsd_ataIf.c",line 1557,column 1,is_s
    2940              
    2941                      .dwfde $C$DW$CIE, _MMC_busyStatusCheck
    2942              $C$DW$204       .dwtag  DW_TAG_formal_parameter, DW_AT_name("pAtaMediaState")
    2943                      .dwattr $C$DW$204, DW_AT_TI_symbol_name("_pAtaMediaState")
    2944                      .dwattr $C$DW$204, DW_AT_type(*$C$DW$T$3)
    2945                      .dwattr $C$DW$204, DW_AT_location[DW_OP_reg17]
    2946              ;*******************************************************************************
    2947              ;* FUNCTION NAME: MMC_busyStatusCheck                                          *
    2948              ;*                                                                             *
    2949              ;*   Function Uses Regs : T0,AR0,XAR0,SP,M40,SATA,SATD,RDM,FRCT,SMUL           *
    2950              ;*   Stack Frame        : Compact (No Frame Pointer, w/ debug)                 *
    2951              ;*   Total Frame Size   : 4 words                                              *
    2952              ;*                        (2 return address/alignment)                         *
    2953              ;*                        (2 local values)                                     *
    2954              ;*   Min System Stack   : 1 word                                               *
    2955              ;*******************************************************************************
    2956 000ac8       _MMC_busyStatusCheck:
    2957                      .dwcfi  cfa_offset, 1
    2958                      .dwcfi  save_reg_to_mem, 91, -1
    2959 000ac8 4EFD          AADD #-3, SP
    2960                      .dwcfi  cfa_offset, 4
    2961              $C$DW$205       .dwtag  DW_TAG_variable, DW_AT_name("pAtaMediaState")
    2962                      .dwattr $C$DW$205, DW_AT_TI_symbol_name("_pAtaMediaState")
    2963                      .dwattr $C$DW$205, DW_AT_type(*$C$DW$T$3)
    2964                      .dwattr $C$DW$205, DW_AT_location[DW_OP_bregx 0x24 0]
    2965 000aca EB00          MOV XAR0, dbl(*SP(#0))
         000acc 85   
    2966                      .dwpsn  file "../c5535_bsl_revc/ezdsp5535_v1/c55xx_csl/src/csl_mmcsd_ataIf.c",line 1558,column 5,is_s
    2967 000acd 3C04          MOV #0, T0
    2968                      .dwpsn  file "../c5535_bsl_revc/ezdsp5535_v1/c55xx_csl/src/csl_mmcsd_ataIf.c",line 1559,column 1,is_s
TMS320C55x Assembler PC v4.4.1 Fri Sep 14 23:31:58 2018

Tools Copyright (c) 1996-2012 Texas Instruments Incorporated
csl_mmcsd_ataIf.asm                                                  PAGE   68

    2969 000acf 4E03          AADD #3, SP
    2970                      .dwcfi  cfa_offset, 1
    2971              $C$DW$206       .dwtag  DW_TAG_TI_branch
    2972                      .dwattr $C$DW$206, DW_AT_low_pc(0x00)
    2973                      .dwattr $C$DW$206, DW_AT_TI_return
    2974 000ad1 4804          RET
    2975                                                      ; return occurs
    2976                      .dwattr $C$DW$203, DW_AT_TI_end_file("../c5535_bsl_revc/ezdsp5535_v1/c55xx_csl/src/csl_mmcsd_ataIf.c"
    2977                      .dwattr $C$DW$203, DW_AT_TI_end_line(0x617)
    2978                      .dwattr $C$DW$203, DW_AT_TI_end_column(0x01)
    2979                      .dwendentry
    2980                      .dwendtag $C$DW$203
    2981              
    2982 000ad3               .sect   ".text"
    2983                      .align 4
    2984                      .global _MMC_getSerialID
    2985              
    2986              $C$DW$207       .dwtag  DW_TAG_subprogram, DW_AT_name("MMC_getSerialID")
    2987                      .dwattr $C$DW$207, DW_AT_low_pc(_MMC_getSerialID)
    2988                      .dwattr $C$DW$207, DW_AT_high_pc(0x00)
    2989                      .dwattr $C$DW$207, DW_AT_TI_symbol_name("_MMC_getSerialID")
    2990                      .dwattr $C$DW$207, DW_AT_external
    2991                      .dwattr $C$DW$207, DW_AT_type(*$C$DW$T$101)
    2992                      .dwattr $C$DW$207, DW_AT_TI_begin_file("../c5535_bsl_revc/ezdsp5535_v1/c55xx_csl/src/csl_mmcsd_ataIf.
    2993                      .dwattr $C$DW$207, DW_AT_TI_begin_line(0x648)
    2994                      .dwattr $C$DW$207, DW_AT_TI_begin_column(0x0b)
    2995                      .dwattr $C$DW$207, DW_AT_TI_max_frame_size(0x06)
    2996                      .dwpsn  file "../c5535_bsl_revc/ezdsp5535_v1/c55xx_csl/src/csl_mmcsd_ataIf.c",line 1610,column 1,is_s
    2997              
    2998                      .dwfde $C$DW$CIE, _MMC_getSerialID
    2999              $C$DW$208       .dwtag  DW_TAG_formal_parameter, DW_AT_name("pAtaMediaState")
    3000                      .dwattr $C$DW$208, DW_AT_TI_symbol_name("_pAtaMediaState")
    3001                      .dwattr $C$DW$208, DW_AT_type(*$C$DW$T$3)
    3002                      .dwattr $C$DW$208, DW_AT_location[DW_OP_reg17]
    3003              $C$DW$209       .dwtag  DW_TAG_formal_parameter, DW_AT_name("pSerID")
    3004                      .dwattr $C$DW$209, DW_AT_TI_symbol_name("_pSerID")
    3005                      .dwattr $C$DW$209, DW_AT_type(*$C$DW$T$114)
    3006                      .dwattr $C$DW$209, DW_AT_location[DW_OP_reg19]
    3007              ;*******************************************************************************
    3008              ;* FUNCTION NAME: MMC_getSerialID                                              *
    3009              ;*                                                                             *
    3010              ;*   Function Uses Regs : T0,AR0,XAR0,AR1,XAR1,SP,M40,SATA,SATD,RDM,FRCT,SMUL  *
    3011              ;*   Stack Frame        : Compact (No Frame Pointer, w/ debug)                 *
    3012              ;*   Total Frame Size   : 6 words                                              *
    3013              ;*                        (2 return address/alignment)                         *
    3014              ;*                        (4 local values)                                     *
    3015              ;*   Min System Stack   : 1 word                                               *
    3016              ;*******************************************************************************
    3017 000ad4       _MMC_getSerialID:
    3018                      .dwcfi  cfa_offset, 1
    3019                      .dwcfi  save_reg_to_mem, 91, -1
    3020 000ad4 4EFB          AADD #-5, SP
    3021                      .dwcfi  cfa_offset, 6
    3022              $C$DW$210       .dwtag  DW_TAG_variable, DW_AT_name("pAtaMediaState")
    3023                      .dwattr $C$DW$210, DW_AT_TI_symbol_name("_pAtaMediaState")
TMS320C55x Assembler PC v4.4.1 Fri Sep 14 23:31:58 2018

Tools Copyright (c) 1996-2012 Texas Instruments Incorporated
csl_mmcsd_ataIf.asm                                                  PAGE   69

    3024                      .dwattr $C$DW$210, DW_AT_type(*$C$DW$T$3)
    3025                      .dwattr $C$DW$210, DW_AT_location[DW_OP_bregx 0x24 0]
    3026              $C$DW$211       .dwtag  DW_TAG_variable, DW_AT_name("pSerID")
    3027                      .dwattr $C$DW$211, DW_AT_TI_symbol_name("_pSerID")
    3028                      .dwattr $C$DW$211, DW_AT_type(*$C$DW$T$114)
    3029                      .dwattr $C$DW$211, DW_AT_location[DW_OP_bregx 0x24 2]
    3030 000ad6 EB04          MOV XAR1, dbl(*SP(#2))
         000ad8 95   
    3031 000ad9 EB00          MOV XAR0, dbl(*SP(#0))
         000adb 85   
    3032                      .dwpsn  file "../c5535_bsl_revc/ezdsp5535_v1/c55xx_csl/src/csl_mmcsd_ataIf.c",line 1611,column 5,is_s
    3033 000adc 3C04          MOV #0, T0
    3034                      .dwpsn  file "../c5535_bsl_revc/ezdsp5535_v1/c55xx_csl/src/csl_mmcsd_ataIf.c",line 1612,column 1,is_s
    3035 000ade 4E05          AADD #5, SP
    3036                      .dwcfi  cfa_offset, 1
    3037              $C$DW$212       .dwtag  DW_TAG_TI_branch
    3038                      .dwattr $C$DW$212, DW_AT_low_pc(0x00)
    3039                      .dwattr $C$DW$212, DW_AT_TI_return
    3040 000ae0 4804          RET
    3041                                                      ; return occurs
    3042                      .dwattr $C$DW$207, DW_AT_TI_end_file("../c5535_bsl_revc/ezdsp5535_v1/c55xx_csl/src/csl_mmcsd_ataIf.c"
    3043                      .dwattr $C$DW$207, DW_AT_TI_end_line(0x64c)
    3044                      .dwattr $C$DW$207, DW_AT_TI_end_column(0x01)
    3045                      .dwendentry
    3046                      .dwendtag $C$DW$207
    3047              
    3048 000ae2               .sect   ".text"
    3049                      .align 4
    3050                      .global _MMC_file_system_format
    3051              
    3052              $C$DW$213       .dwtag  DW_TAG_subprogram, DW_AT_name("MMC_file_system_format")
    3053                      .dwattr $C$DW$213, DW_AT_low_pc(_MMC_file_system_format)
    3054                      .dwattr $C$DW$213, DW_AT_high_pc(0x00)
    3055                      .dwattr $C$DW$213, DW_AT_TI_symbol_name("_MMC_file_system_format")
    3056                      .dwattr $C$DW$213, DW_AT_external
    3057                      .dwattr $C$DW$213, DW_AT_type(*$C$DW$T$101)
    3058                      .dwattr $C$DW$213, DW_AT_TI_begin_file("../c5535_bsl_revc/ezdsp5535_v1/c55xx_csl/src/csl_mmcsd_ataIf.
    3059                      .dwattr $C$DW$213, DW_AT_TI_begin_line(0x67a)
    3060                      .dwattr $C$DW$213, DW_AT_TI_begin_column(0x0b)
    3061                      .dwattr $C$DW$213, DW_AT_TI_max_frame_size(0x04)
    3062                      .dwpsn  file "../c5535_bsl_revc/ezdsp5535_v1/c55xx_csl/src/csl_mmcsd_ataIf.c",line 1659,column 1,is_s
    3063              
    3064                      .dwfde $C$DW$CIE, _MMC_file_system_format
    3065              $C$DW$214       .dwtag  DW_TAG_formal_parameter, DW_AT_name("pAtaMediaState")
    3066                      .dwattr $C$DW$214, DW_AT_TI_symbol_name("_pAtaMediaState")
    3067                      .dwattr $C$DW$214, DW_AT_type(*$C$DW$T$3)
    3068                      .dwattr $C$DW$214, DW_AT_location[DW_OP_reg17]
    3069              ;*******************************************************************************
    3070              ;* FUNCTION NAME: MMC_file_system_format                                       *
    3071              ;*                                                                             *
    3072              ;*   Function Uses Regs : T0,AR0,XAR0,SP,M40,SATA,SATD,RDM,FRCT,SMUL           *
    3073              ;*   Stack Frame        : Compact (No Frame Pointer, w/ debug)                 *
    3074              ;*   Total Frame Size   : 4 words                                              *
    3075              ;*                        (2 return address/alignment)                         *
    3076              ;*                        (2 local values)                                     *
TMS320C55x Assembler PC v4.4.1 Fri Sep 14 23:31:58 2018

Tools Copyright (c) 1996-2012 Texas Instruments Incorporated
csl_mmcsd_ataIf.asm                                                  PAGE   70

    3077              ;*   Min System Stack   : 1 word                                               *
    3078              ;*******************************************************************************
    3079 000ae4       _MMC_file_system_format:
    3080                      .dwcfi  cfa_offset, 1
    3081                      .dwcfi  save_reg_to_mem, 91, -1
    3082 000ae4 4EFD          AADD #-3, SP
    3083                      .dwcfi  cfa_offset, 4
    3084              $C$DW$215       .dwtag  DW_TAG_variable, DW_AT_name("pAtaMediaState")
    3085                      .dwattr $C$DW$215, DW_AT_TI_symbol_name("_pAtaMediaState")
    3086                      .dwattr $C$DW$215, DW_AT_type(*$C$DW$T$3)
    3087                      .dwattr $C$DW$215, DW_AT_location[DW_OP_bregx 0x24 0]
    3088 000ae6 EB00          MOV XAR0, dbl(*SP(#0))
         000ae8 85   
    3089                      .dwpsn  file "../c5535_bsl_revc/ezdsp5535_v1/c55xx_csl/src/csl_mmcsd_ataIf.c",line 1660,column 5,is_s
    3090 000ae9 3C04          MOV #0, T0
    3091                      .dwpsn  file "../c5535_bsl_revc/ezdsp5535_v1/c55xx_csl/src/csl_mmcsd_ataIf.c",line 1661,column 1,is_s
    3092 000aeb 4E03          AADD #3, SP
    3093                      .dwcfi  cfa_offset, 1
    3094              $C$DW$216       .dwtag  DW_TAG_TI_branch
    3095                      .dwattr $C$DW$216, DW_AT_low_pc(0x00)
    3096                      .dwattr $C$DW$216, DW_AT_TI_return
    3097 000aed 4804          RET
    3098                                                      ; return occurs
    3099                      .dwattr $C$DW$213, DW_AT_TI_end_file("../c5535_bsl_revc/ezdsp5535_v1/c55xx_csl/src/csl_mmcsd_ataIf.c"
    3100                      .dwattr $C$DW$213, DW_AT_TI_end_line(0x67d)
    3101                      .dwattr $C$DW$213, DW_AT_TI_end_column(0x01)
    3102                      .dwendentry
    3103                      .dwendtag $C$DW$213
    3104              
    3105 000aef               .sect   ".text"
    3106                      .align 4
    3107                      .global _MMC_reset
    3108              
    3109              $C$DW$217       .dwtag  DW_TAG_subprogram, DW_AT_name("MMC_reset")
    3110                      .dwattr $C$DW$217, DW_AT_low_pc(_MMC_reset)
    3111                      .dwattr $C$DW$217, DW_AT_high_pc(0x00)
    3112                      .dwattr $C$DW$217, DW_AT_TI_symbol_name("_MMC_reset")
    3113                      .dwattr $C$DW$217, DW_AT_external
    3114                      .dwattr $C$DW$217, DW_AT_type(*$C$DW$T$107)
    3115                      .dwattr $C$DW$217, DW_AT_TI_begin_file("../c5535_bsl_revc/ezdsp5535_v1/c55xx_csl/src/csl_mmcsd_ataIf.
    3116                      .dwattr $C$DW$217, DW_AT_TI_begin_line(0x6aa)
    3117                      .dwattr $C$DW$217, DW_AT_TI_begin_column(0x0a)
    3118                      .dwattr $C$DW$217, DW_AT_TI_max_frame_size(0x04)
    3119                      .dwpsn  file "../c5535_bsl_revc/ezdsp5535_v1/c55xx_csl/src/csl_mmcsd_ataIf.c",line 1707,column 1,is_s
    3120              
    3121                      .dwfde $C$DW$CIE, _MMC_reset
    3122              $C$DW$218       .dwtag  DW_TAG_formal_parameter, DW_AT_name("pAtaMediaState")
    3123                      .dwattr $C$DW$218, DW_AT_TI_symbol_name("_pAtaMediaState")
    3124                      .dwattr $C$DW$218, DW_AT_type(*$C$DW$T$3)
    3125                      .dwattr $C$DW$218, DW_AT_location[DW_OP_reg17]
    3126              ;*******************************************************************************
    3127              ;* FUNCTION NAME: MMC_reset                                                    *
    3128              ;*                                                                             *
    3129              ;*   Function Uses Regs : T0,AR0,XAR0,SP,M40,SATA,SATD,RDM,FRCT,SMUL           *
    3130              ;*   Stack Frame        : Compact (No Frame Pointer, w/ debug)                 *
TMS320C55x Assembler PC v4.4.1 Fri Sep 14 23:31:58 2018

Tools Copyright (c) 1996-2012 Texas Instruments Incorporated
csl_mmcsd_ataIf.asm                                                  PAGE   71

    3131              ;*   Total Frame Size   : 4 words                                              *
    3132              ;*                        (2 return address/alignment)                         *
    3133              ;*                        (2 local values)                                     *
    3134              ;*   Min System Stack   : 1 word                                               *
    3135              ;*******************************************************************************
    3136 000af0       _MMC_reset:
    3137                      .dwcfi  cfa_offset, 1
    3138                      .dwcfi  save_reg_to_mem, 91, -1
    3139 000af0 4EFD          AADD #-3, SP
    3140                      .dwcfi  cfa_offset, 4
    3141              $C$DW$219       .dwtag  DW_TAG_variable, DW_AT_name("pAtaMediaState")
    3142                      .dwattr $C$DW$219, DW_AT_TI_symbol_name("_pAtaMediaState")
    3143                      .dwattr $C$DW$219, DW_AT_type(*$C$DW$T$3)
    3144                      .dwattr $C$DW$219, DW_AT_location[DW_OP_bregx 0x24 0]
    3145 000af2 EB00          MOV XAR0, dbl(*SP(#0))
         000af4 85   
    3146                      .dwpsn  file "../c5535_bsl_revc/ezdsp5535_v1/c55xx_csl/src/csl_mmcsd_ataIf.c",line 1708,column 5,is_s
    3147 000af5 3C04          MOV #0, T0
    3148                      .dwpsn  file "../c5535_bsl_revc/ezdsp5535_v1/c55xx_csl/src/csl_mmcsd_ataIf.c",line 1709,column 1,is_s
    3149 000af7 4E03          AADD #3, SP
    3150                      .dwcfi  cfa_offset, 1
    3151              $C$DW$220       .dwtag  DW_TAG_TI_branch
    3152                      .dwattr $C$DW$220, DW_AT_low_pc(0x00)
    3153                      .dwattr $C$DW$220, DW_AT_TI_return
    3154 000af9 4804          RET
    3155                                                      ; return occurs
    3156                      .dwattr $C$DW$217, DW_AT_TI_end_file("../c5535_bsl_revc/ezdsp5535_v1/c55xx_csl/src/csl_mmcsd_ataIf.c"
    3157                      .dwattr $C$DW$217, DW_AT_TI_end_line(0x6ad)
    3158                      .dwattr $C$DW$217, DW_AT_TI_end_column(0x01)
    3159                      .dwendentry
    3160                      .dwendtag $C$DW$217
    3161              
    3162 000afb               .sect   ".text"
    3163                      .align 4
    3164                      .global _MMC_get_time
    3165              
    3166              $C$DW$221       .dwtag  DW_TAG_subprogram, DW_AT_name("MMC_get_time")
    3167                      .dwattr $C$DW$221, DW_AT_low_pc(_MMC_get_time)
    3168                      .dwattr $C$DW$221, DW_AT_high_pc(0x00)
    3169                      .dwattr $C$DW$221, DW_AT_TI_symbol_name("_MMC_get_time")
    3170                      .dwattr $C$DW$221, DW_AT_external
    3171                      .dwattr $C$DW$221, DW_AT_type(*$C$DW$T$101)
    3172                      .dwattr $C$DW$221, DW_AT_TI_begin_file("../c5535_bsl_revc/ezdsp5535_v1/c55xx_csl/src/csl_mmcsd_ataIf.
    3173                      .dwattr $C$DW$221, DW_AT_TI_begin_line(0x6d8)
    3174                      .dwattr $C$DW$221, DW_AT_TI_begin_column(0x0b)
    3175                      .dwattr $C$DW$221, DW_AT_TI_max_frame_size(0x01)
    3176                      .dwpsn  file "../c5535_bsl_revc/ezdsp5535_v1/c55xx_csl/src/csl_mmcsd_ataIf.c",line 1753,column 1,is_s
    3177              
    3178                      .dwfde $C$DW$CIE, _MMC_get_time
    3179              ;*******************************************************************************
    3180              ;* FUNCTION NAME: MMC_get_time                                                 *
    3181              ;*                                                                             *
    3182              ;*   Function Uses Regs : T0,SP,M40,SATA,SATD,RDM,FRCT,SMUL                    *
    3183              ;*   Stack Frame        : Compact (No Frame Pointer, w/ debug)                 *
    3184              ;*   Total Frame Size   : 1 word                                               *
TMS320C55x Assembler PC v4.4.1 Fri Sep 14 23:31:58 2018

Tools Copyright (c) 1996-2012 Texas Instruments Incorporated
csl_mmcsd_ataIf.asm                                                  PAGE   72

    3185              ;*                        (1 return address/alignment)                         *
    3186              ;*   Min System Stack   : 1 word                                               *
    3187              ;*******************************************************************************
    3188 000afc       _MMC_get_time:
    3189                      .dwcfi  cfa_offset, 1
    3190                      .dwcfi  save_reg_to_mem, 91, -1
    3191                      .dwpsn  file "../c5535_bsl_revc/ezdsp5535_v1/c55xx_csl/src/csl_mmcsd_ataIf.c",line 1754,column 3,is_s
    3192 000afc 3C04          MOV #0, T0
    3193                      .dwpsn  file "../c5535_bsl_revc/ezdsp5535_v1/c55xx_csl/src/csl_mmcsd_ataIf.c",line 1755,column 1,is_s
    3194              $C$DW$222       .dwtag  DW_TAG_TI_branch
    3195                      .dwattr $C$DW$222, DW_AT_low_pc(0x00)
    3196                      .dwattr $C$DW$222, DW_AT_TI_return
    3197 000afe 4804          RET
    3198                                                      ; return occurs
    3199                      .dwattr $C$DW$221, DW_AT_TI_end_file("../c5535_bsl_revc/ezdsp5535_v1/c55xx_csl/src/csl_mmcsd_ataIf.c"
    3200                      .dwattr $C$DW$221, DW_AT_TI_end_line(0x6db)
    3201                      .dwattr $C$DW$221, DW_AT_TI_end_column(0x01)
    3202                      .dwendentry
    3203                      .dwendtag $C$DW$221
    3204              
    3205 000b00               .sect   ".text"
    3206                      .align 4
    3207                      .global _MMC_get_mod_time
    3208              
    3209              $C$DW$223       .dwtag  DW_TAG_subprogram, DW_AT_name("MMC_get_mod_time")
    3210                      .dwattr $C$DW$223, DW_AT_low_pc(_MMC_get_mod_time)
    3211                      .dwattr $C$DW$223, DW_AT_high_pc(0x00)
    3212                      .dwattr $C$DW$223, DW_AT_TI_symbol_name("_MMC_get_mod_time")
    3213                      .dwattr $C$DW$223, DW_AT_external
    3214                      .dwattr $C$DW$223, DW_AT_type(*$C$DW$T$101)
    3215                      .dwattr $C$DW$223, DW_AT_TI_begin_file("../c5535_bsl_revc/ezdsp5535_v1/c55xx_csl/src/csl_mmcsd_ataIf.
    3216                      .dwattr $C$DW$223, DW_AT_TI_begin_line(0x706)
    3217                      .dwattr $C$DW$223, DW_AT_TI_begin_column(0x0b)
    3218                      .dwattr $C$DW$223, DW_AT_TI_max_frame_size(0x01)
    3219                      .dwpsn  file "../c5535_bsl_revc/ezdsp5535_v1/c55xx_csl/src/csl_mmcsd_ataIf.c",line 1799,column 1,is_s
    3220              
    3221                      .dwfde $C$DW$CIE, _MMC_get_mod_time
    3222              ;*******************************************************************************
    3223              ;* FUNCTION NAME: MMC_get_mod_time                                             *
    3224              ;*                                                                             *
    3225              ;*   Function Uses Regs : T0,SP,M40,SATA,SATD,RDM,FRCT,SMUL                    *
    3226              ;*   Stack Frame        : Compact (No Frame Pointer, w/ debug)                 *
    3227              ;*   Total Frame Size   : 1 word                                               *
    3228              ;*                        (1 return address/alignment)                         *
    3229              ;*   Min System Stack   : 1 word                                               *
    3230              ;*******************************************************************************
    3231 000b00       _MMC_get_mod_time:
    3232                      .dwcfi  cfa_offset, 1
    3233                      .dwcfi  save_reg_to_mem, 91, -1
    3234                      .dwpsn  file "../c5535_bsl_revc/ezdsp5535_v1/c55xx_csl/src/csl_mmcsd_ataIf.c",line 1800,column 3,is_s
    3235 000b00 3C04          MOV #0, T0
    3236                      .dwpsn  file "../c5535_bsl_revc/ezdsp5535_v1/c55xx_csl/src/csl_mmcsd_ataIf.c",line 1801,column 1,is_s
    3237              $C$DW$224       .dwtag  DW_TAG_TI_branch
    3238                      .dwattr $C$DW$224, DW_AT_low_pc(0x00)
    3239                      .dwattr $C$DW$224, DW_AT_TI_return
TMS320C55x Assembler PC v4.4.1 Fri Sep 14 23:31:58 2018

Tools Copyright (c) 1996-2012 Texas Instruments Incorporated
csl_mmcsd_ataIf.asm                                                  PAGE   73

    3240 000b02 4804          RET
    3241                                                      ; return occurs
    3242                      .dwattr $C$DW$223, DW_AT_TI_end_file("../c5535_bsl_revc/ezdsp5535_v1/c55xx_csl/src/csl_mmcsd_ataIf.c"
    3243                      .dwattr $C$DW$223, DW_AT_TI_end_line(0x709)
    3244                      .dwattr $C$DW$223, DW_AT_TI_end_column(0x01)
    3245                      .dwendentry
    3246                      .dwendtag $C$DW$223
    3247              
    3248 000b04               .sect   ".text"
    3249                      .align 4
    3250                      .global _MMC_get_date
    3251              
    3252              $C$DW$225       .dwtag  DW_TAG_subprogram, DW_AT_name("MMC_get_date")
    3253                      .dwattr $C$DW$225, DW_AT_low_pc(_MMC_get_date)
    3254                      .dwattr $C$DW$225, DW_AT_high_pc(0x00)
    3255                      .dwattr $C$DW$225, DW_AT_TI_symbol_name("_MMC_get_date")
    3256                      .dwattr $C$DW$225, DW_AT_external
    3257                      .dwattr $C$DW$225, DW_AT_type(*$C$DW$T$101)
    3258                      .dwattr $C$DW$225, DW_AT_TI_begin_file("../c5535_bsl_revc/ezdsp5535_v1/c55xx_csl/src/csl_mmcsd_ataIf.
    3259                      .dwattr $C$DW$225, DW_AT_TI_begin_line(0x735)
    3260                      .dwattr $C$DW$225, DW_AT_TI_begin_column(0x0b)
    3261                      .dwattr $C$DW$225, DW_AT_TI_max_frame_size(0x01)
    3262                      .dwpsn  file "../c5535_bsl_revc/ezdsp5535_v1/c55xx_csl/src/csl_mmcsd_ataIf.c",line 1846,column 1,is_s
    3263              
    3264                      .dwfde $C$DW$CIE, _MMC_get_date
    3265              ;*******************************************************************************
    3266              ;* FUNCTION NAME: MMC_get_date                                                 *
    3267              ;*                                                                             *
    3268              ;*   Function Uses Regs : T0,SP,M40,SATA,SATD,RDM,FRCT,SMUL                    *
    3269              ;*   Stack Frame        : Compact (No Frame Pointer, w/ debug)                 *
    3270              ;*   Total Frame Size   : 1 word                                               *
    3271              ;*                        (1 return address/alignment)                         *
    3272              ;*   Min System Stack   : 1 word                                               *
    3273              ;*******************************************************************************
    3274 000b04       _MMC_get_date:
    3275                      .dwcfi  cfa_offset, 1
    3276                      .dwcfi  save_reg_to_mem, 91, -1
    3277                      .dwpsn  file "../c5535_bsl_revc/ezdsp5535_v1/c55xx_csl/src/csl_mmcsd_ataIf.c",line 1847,column 3,is_s
    3278 000b04 3C04          MOV #0, T0
    3279                      .dwpsn  file "../c5535_bsl_revc/ezdsp5535_v1/c55xx_csl/src/csl_mmcsd_ataIf.c",line 1848,column 1,is_s
    3280              $C$DW$226       .dwtag  DW_TAG_TI_branch
    3281                      .dwattr $C$DW$226, DW_AT_low_pc(0x00)
    3282                      .dwattr $C$DW$226, DW_AT_TI_return
    3283 000b06 4804          RET
    3284                                                      ; return occurs
    3285                      .dwattr $C$DW$225, DW_AT_TI_end_file("../c5535_bsl_revc/ezdsp5535_v1/c55xx_csl/src/csl_mmcsd_ataIf.c"
    3286                      .dwattr $C$DW$225, DW_AT_TI_end_line(0x738)
    3287                      .dwattr $C$DW$225, DW_AT_TI_end_column(0x01)
    3288                      .dwendentry
    3289                      .dwendtag $C$DW$225
    3290              
    3291 000b08               .sect   ".text"
    3292                      .align 4
    3293                      .global _MMC_get_mod_date
    3294              
TMS320C55x Assembler PC v4.4.1 Fri Sep 14 23:31:58 2018

Tools Copyright (c) 1996-2012 Texas Instruments Incorporated
csl_mmcsd_ataIf.asm                                                  PAGE   74

    3295              $C$DW$227       .dwtag  DW_TAG_subprogram, DW_AT_name("MMC_get_mod_date")
    3296                      .dwattr $C$DW$227, DW_AT_low_pc(_MMC_get_mod_date)
    3297                      .dwattr $C$DW$227, DW_AT_high_pc(0x00)
    3298                      .dwattr $C$DW$227, DW_AT_TI_symbol_name("_MMC_get_mod_date")
    3299                      .dwattr $C$DW$227, DW_AT_external
    3300                      .dwattr $C$DW$227, DW_AT_type(*$C$DW$T$101)
    3301                      .dwattr $C$DW$227, DW_AT_TI_begin_file("../c5535_bsl_revc/ezdsp5535_v1/c55xx_csl/src/csl_mmcsd_ataIf.
    3302                      .dwattr $C$DW$227, DW_AT_TI_begin_line(0x763)
    3303                      .dwattr $C$DW$227, DW_AT_TI_begin_column(0x0b)
    3304                      .dwattr $C$DW$227, DW_AT_TI_max_frame_size(0x01)
    3305                      .dwpsn  file "../c5535_bsl_revc/ezdsp5535_v1/c55xx_csl/src/csl_mmcsd_ataIf.c",line 1892,column 1,is_s
    3306              
    3307                      .dwfde $C$DW$CIE, _MMC_get_mod_date
    3308              ;*******************************************************************************
    3309              ;* FUNCTION NAME: MMC_get_mod_date                                             *
    3310              ;*                                                                             *
    3311              ;*   Function Uses Regs : T0,SP,M40,SATA,SATD,RDM,FRCT,SMUL                    *
    3312              ;*   Stack Frame        : Compact (No Frame Pointer, w/ debug)                 *
    3313              ;*   Total Frame Size   : 1 word                                               *
    3314              ;*                        (1 return address/alignment)                         *
    3315              ;*   Min System Stack   : 1 word                                               *
    3316              ;*******************************************************************************
    3317 000b08       _MMC_get_mod_date:
    3318                      .dwcfi  cfa_offset, 1
    3319                      .dwcfi  save_reg_to_mem, 91, -1
    3320                      .dwpsn  file "../c5535_bsl_revc/ezdsp5535_v1/c55xx_csl/src/csl_mmcsd_ataIf.c",line 1893,column 3,is_s
    3321 000b08 3C04          MOV #0, T0
    3322                      .dwpsn  file "../c5535_bsl_revc/ezdsp5535_v1/c55xx_csl/src/csl_mmcsd_ataIf.c",line 1894,column 1,is_s
    3323              $C$DW$228       .dwtag  DW_TAG_TI_branch
    3324                      .dwattr $C$DW$228, DW_AT_low_pc(0x00)
    3325                      .dwattr $C$DW$228, DW_AT_TI_return
    3326 000b0a 4804          RET
    3327                                                      ; return occurs
    3328                      .dwattr $C$DW$227, DW_AT_TI_end_file("../c5535_bsl_revc/ezdsp5535_v1/c55xx_csl/src/csl_mmcsd_ataIf.c"
    3329                      .dwattr $C$DW$227, DW_AT_TI_end_line(0x766)
    3330                      .dwattr $C$DW$227, DW_AT_TI_end_column(0x01)
    3331                      .dwendentry
    3332                      .dwendtag $C$DW$227
    3333              
    3334 000b0c               .sect   ".text"
    3335                      .align 4
    3336                      .global _MMC_flushFat
    3337              
    3338              $C$DW$229       .dwtag  DW_TAG_subprogram, DW_AT_name("MMC_flushFat")
    3339                      .dwattr $C$DW$229, DW_AT_low_pc(_MMC_flushFat)
    3340                      .dwattr $C$DW$229, DW_AT_high_pc(0x00)
    3341                      .dwattr $C$DW$229, DW_AT_TI_symbol_name("_MMC_flushFat")
    3342                      .dwattr $C$DW$229, DW_AT_external
    3343                      .dwattr $C$DW$229, DW_AT_type(*$C$DW$T$107)
    3344                      .dwattr $C$DW$229, DW_AT_TI_begin_file("../c5535_bsl_revc/ezdsp5535_v1/c55xx_csl/src/csl_mmcsd_ataIf.
    3345                      .dwattr $C$DW$229, DW_AT_TI_begin_line(0x792)
    3346                      .dwattr $C$DW$229, DW_AT_TI_begin_column(0x0b)
    3347                      .dwattr $C$DW$229, DW_AT_TI_max_frame_size(0x04)
    3348                      .dwpsn  file "../c5535_bsl_revc/ezdsp5535_v1/c55xx_csl/src/csl_mmcsd_ataIf.c",line 1939,column 1,is_s
    3349              
TMS320C55x Assembler PC v4.4.1 Fri Sep 14 23:31:58 2018

Tools Copyright (c) 1996-2012 Texas Instruments Incorporated
csl_mmcsd_ataIf.asm                                                  PAGE   75

    3350                      .dwfde $C$DW$CIE, _MMC_flushFat
    3351              $C$DW$230       .dwtag  DW_TAG_formal_parameter, DW_AT_name("pAtaMediaState")
    3352                      .dwattr $C$DW$230, DW_AT_TI_symbol_name("_pAtaMediaState")
    3353                      .dwattr $C$DW$230, DW_AT_type(*$C$DW$T$3)
    3354                      .dwattr $C$DW$230, DW_AT_location[DW_OP_reg17]
    3355              ;*******************************************************************************
    3356              ;* FUNCTION NAME: MMC_flushFat                                                 *
    3357              ;*                                                                             *
    3358              ;*   Function Uses Regs : T0,AR0,XAR0,SP,M40,SATA,SATD,RDM,FRCT,SMUL           *
    3359              ;*   Stack Frame        : Compact (No Frame Pointer, w/ debug)                 *
    3360              ;*   Total Frame Size   : 4 words                                              *
    3361              ;*                        (2 return address/alignment)                         *
    3362              ;*                        (2 local values)                                     *
    3363              ;*   Min System Stack   : 1 word                                               *
    3364              ;*******************************************************************************
    3365 000b0c       _MMC_flushFat:
    3366                      .dwcfi  cfa_offset, 1
    3367                      .dwcfi  save_reg_to_mem, 91, -1
    3368 000b0c 4EFD          AADD #-3, SP
    3369                      .dwcfi  cfa_offset, 4
    3370              $C$DW$231       .dwtag  DW_TAG_variable, DW_AT_name("pAtaMediaState")
    3371                      .dwattr $C$DW$231, DW_AT_TI_symbol_name("_pAtaMediaState")
    3372                      .dwattr $C$DW$231, DW_AT_type(*$C$DW$T$3)
    3373                      .dwattr $C$DW$231, DW_AT_location[DW_OP_bregx 0x24 0]
    3374 000b0e EB00          MOV XAR0, dbl(*SP(#0))
         000b10 85   
    3375                      .dwpsn  file "../c5535_bsl_revc/ezdsp5535_v1/c55xx_csl/src/csl_mmcsd_ataIf.c",line 1940,column 2,is_s
    3376 000b11 3C04          MOV #0, T0
    3377                      .dwpsn  file "../c5535_bsl_revc/ezdsp5535_v1/c55xx_csl/src/csl_mmcsd_ataIf.c",line 1941,column 1,is_s
    3378 000b13 4E03          AADD #3, SP
    3379                      .dwcfi  cfa_offset, 1
    3380              $C$DW$232       .dwtag  DW_TAG_TI_branch
    3381                      .dwattr $C$DW$232, DW_AT_low_pc(0x00)
    3382                      .dwattr $C$DW$232, DW_AT_TI_return
    3383 000b15 4804          RET
    3384                                                      ; return occurs
    3385                      .dwattr $C$DW$229, DW_AT_TI_end_file("../c5535_bsl_revc/ezdsp5535_v1/c55xx_csl/src/csl_mmcsd_ataIf.c"
    3386                      .dwattr $C$DW$229, DW_AT_TI_end_line(0x795)
    3387                      .dwattr $C$DW$229, DW_AT_TI_end_column(0x01)
    3388                      .dwendentry
    3389                      .dwendtag $C$DW$229
    3390              
    3391 000b17               .sect   ".text"
    3392                      .align 4
    3393              
    3394              $C$DW$233       .dwtag  DW_TAG_subprogram, DW_AT_name("getAtaErrorNo")
    3395                      .dwattr $C$DW$233, DW_AT_low_pc(_getAtaErrorNo)
    3396                      .dwattr $C$DW$233, DW_AT_high_pc(0x00)
    3397                      .dwattr $C$DW$233, DW_AT_TI_symbol_name("_getAtaErrorNo")
    3398                      .dwattr $C$DW$233, DW_AT_type(*$C$DW$T$107)
    3399                      .dwattr $C$DW$233, DW_AT_TI_begin_file("../c5535_bsl_revc/ezdsp5535_v1/c55xx_csl/src/csl_mmcsd_ataIf.
    3400                      .dwattr $C$DW$233, DW_AT_TI_begin_line(0x7be)
    3401                      .dwattr $C$DW$233, DW_AT_TI_begin_column(0x11)
    3402                      .dwattr $C$DW$233, DW_AT_TI_max_frame_size(0x02)
    3403                      .dwpsn  file "../c5535_bsl_revc/ezdsp5535_v1/c55xx_csl/src/csl_mmcsd_ataIf.c",line 1983,column 1,is_s
TMS320C55x Assembler PC v4.4.1 Fri Sep 14 23:31:58 2018

Tools Copyright (c) 1996-2012 Texas Instruments Incorporated
csl_mmcsd_ataIf.asm                                                  PAGE   76

    3404              
    3405                      .dwfde $C$DW$CIE, _getAtaErrorNo
    3406              $C$DW$234       .dwtag  DW_TAG_formal_parameter, DW_AT_name("result")
    3407                      .dwattr $C$DW$234, DW_AT_TI_symbol_name("_result")
    3408                      .dwattr $C$DW$234, DW_AT_type(*$C$DW$T$139)
    3409                      .dwattr $C$DW$234, DW_AT_location[DW_OP_reg12]
    3410              ;*******************************************************************************
    3411              ;* FUNCTION NAME: getAtaErrorNo                                                *
    3412              ;*                                                                             *
    3413              ;*   Function Uses Regs : T0,SP,TC1,M40,SATA,SATD,RDM,FRCT,SMUL                *
    3414              ;*   Stack Frame        : Compact (No Frame Pointer, w/ debug)                 *
    3415              ;*   Total Frame Size   : 2 words                                              *
    3416              ;*                        (1 return address/alignment)                         *
    3417              ;*                        (1 local values)                                     *
    3418              ;*   Min System Stack   : 1 word                                               *
    3419              ;*******************************************************************************
    3420 000b18       _getAtaErrorNo:
    3421                      .dwcfi  cfa_offset, 1
    3422                      .dwcfi  save_reg_to_mem, 91, -1
    3423 000b18 4EFF          AADD #-1, SP
    3424                      .dwcfi  cfa_offset, 2
    3425              $C$DW$235       .dwtag  DW_TAG_variable, DW_AT_name("result")
    3426                      .dwattr $C$DW$235, DW_AT_TI_symbol_name("_result")
    3427                      .dwattr $C$DW$235, DW_AT_type(*$C$DW$T$139)
    3428                      .dwattr $C$DW$235, DW_AT_location[DW_OP_bregx 0x24 0]
    3429 000b1a C400          MOV T0, *SP(#0) ; |1983| 
    3430                      .dwpsn  file "../c5535_bsl_revc/ezdsp5535_v1/c55xx_csl/src/csl_mmcsd_ataIf.c",line 1984,column 2,is_s
    3431 000b1c F000          CMP *SP(#0) == #-10, TC1 ; |1984| 
         000b1e FFF6 
    3432 000b20 6274          BCC $C$L85,!TC1 ; |1984| 
    3433                                                      ; branchcc occurs ; |1984| 
    3434                      .dwpsn  file "../c5535_bsl_revc/ezdsp5535_v1/c55xx_csl/src/csl_mmcsd_ataIf.c",line 1986,column 9,is_s
    3435 000b22 3C44          MOV #4, T0
    3436 000b24 4A14          B $C$L88  ; |1986| 
    3437                                                      ; branch occurs ; |1986| 
    3438 000b26       $C$L85:    
    3439                      .dwpsn  file "../c5535_bsl_revc/ezdsp5535_v1/c55xx_csl/src/csl_mmcsd_ataIf.c",line 1988,column 10,is_
    3440 000b26 F000          CMP *SP(#0) == #-6, TC1 ; |1988| 
         000b28 FFFA 
    3441 000b2a 6364          BCC $C$L86,TC1 ; |1988| 
    3442                                                      ; branchcc occurs ; |1988| 
    3443 000b2c F000          CMP *SP(#0) == #-5, TC1 ; |1988| 
         000b2e FFFB 
    3444 000b30 6374          BCC $C$L87,!TC1 ; |1988| 
    3445                                                      ; branchcc occurs ; |1988| 
    3446 000b32       $C$L86:    
    3447                      .dwpsn  file "../c5535_bsl_revc/ezdsp5535_v1/c55xx_csl/src/csl_mmcsd_ataIf.c",line 1990,column 9,is_s
    3448 000b32 7603          MOV #768, T0 ; |1990| 
         000b34 0048 
    3449 000b36 4A02          B $C$L88  ; |1990| 
    3450                                                      ; branch occurs ; |1990| 
    3451 000b38       $C$L87:    
    3452                      .dwpsn  file "../c5535_bsl_revc/ezdsp5535_v1/c55xx_csl/src/csl_mmcsd_ataIf.c",line 1994,column 9,is_s
    3453 000b38 3C14          MOV #1, T0
    3454 000b3a       $C$L88:    
TMS320C55x Assembler PC v4.4.1 Fri Sep 14 23:31:58 2018

Tools Copyright (c) 1996-2012 Texas Instruments Incorporated
csl_mmcsd_ataIf.asm                                                  PAGE   77

    3455                      .dwpsn  file "../c5535_bsl_revc/ezdsp5535_v1/c55xx_csl/src/csl_mmcsd_ataIf.c",line 1996,column 1,is_s
    3456 000b3a 4E01          AADD #1, SP
    3457                      .dwcfi  cfa_offset, 1
    3458              $C$DW$236       .dwtag  DW_TAG_TI_branch
    3459                      .dwattr $C$DW$236, DW_AT_low_pc(0x00)
    3460                      .dwattr $C$DW$236, DW_AT_TI_return
    3461 000b3c 4804          RET
    3462                                                      ; return occurs
    3463                      .dwattr $C$DW$233, DW_AT_TI_end_file("../c5535_bsl_revc/ezdsp5535_v1/c55xx_csl/src/csl_mmcsd_ataIf.c"
    3464                      .dwattr $C$DW$233, DW_AT_TI_end_line(0x7cc)
    3465                      .dwattr $C$DW$233, DW_AT_TI_end_column(0x01)
    3466                      .dwendentry
    3467                      .dwendtag $C$DW$233
    3468              
    3469              ;******************************************************************************
    3470              ;* UNDEFINED EXTERNAL REFERENCES                                              *
    3471              ;******************************************************************************
    3472                      .global _MMC_read
    3473                      .global _MMC_write
    3474              
    3475              ;*******************************************************************************
    3476              ;* TYPE INFORMATION                                                            *
    3477              ;*******************************************************************************
    3478              
    3479              $C$DW$T$32      .dwtag  DW_TAG_enumeration_type
    3480                      .dwattr $C$DW$T$32, DW_AT_byte_size(0x01)
    3481              $C$DW$237       .dwtag  DW_TAG_enumerator, DW_AT_name("CSL_CARD_NONE"), DW_AT_const_value(0x00)
    3482              $C$DW$238       .dwtag  DW_TAG_enumerator, DW_AT_name("CSL_SD_CARD"), DW_AT_const_value(0x01)
    3483              $C$DW$239       .dwtag  DW_TAG_enumerator, DW_AT_name("CSL_MMC_CARD"), DW_AT_const_value(0x02)
    3484                      .dwendtag $C$DW$T$32
    3485              
    3486              $C$DW$T$33      .dwtag  DW_TAG_typedef, DW_AT_name("CSL_CardType")
    3487                      .dwattr $C$DW$T$33, DW_AT_type(*$C$DW$T$32)
    3488                      .dwattr $C$DW$T$33, DW_AT_language(DW_LANG_C)
    3489              
    3490              $C$DW$T$53      .dwtag  DW_TAG_enumeration_type
    3491                      .dwattr $C$DW$T$53, DW_AT_byte_size(0x01)
    3492              $C$DW$240       .dwtag  DW_TAG_enumerator, DW_AT_name("CSL_DMA_CHAN0"), DW_AT_const_value(0x00)
    3493              $C$DW$241       .dwtag  DW_TAG_enumerator, DW_AT_name("CSL_DMA_CHAN1"), DW_AT_const_value(0x01)
    3494              $C$DW$242       .dwtag  DW_TAG_enumerator, DW_AT_name("CSL_DMA_CHAN2"), DW_AT_const_value(0x02)
    3495              $C$DW$243       .dwtag  DW_TAG_enumerator, DW_AT_name("CSL_DMA_CHAN3"), DW_AT_const_value(0x03)
    3496              $C$DW$244       .dwtag  DW_TAG_enumerator, DW_AT_name("CSL_DMA_CHAN4"), DW_AT_const_value(0x04)
    3497              $C$DW$245       .dwtag  DW_TAG_enumerator, DW_AT_name("CSL_DMA_CHAN5"), DW_AT_const_value(0x05)
    3498              $C$DW$246       .dwtag  DW_TAG_enumerator, DW_AT_name("CSL_DMA_CHAN6"), DW_AT_const_value(0x06)
    3499              $C$DW$247       .dwtag  DW_TAG_enumerator, DW_AT_name("CSL_DMA_CHAN7"), DW_AT_const_value(0x07)
    3500              $C$DW$248       .dwtag  DW_TAG_enumerator, DW_AT_name("CSL_DMA_CHAN8"), DW_AT_const_value(0x08)
    3501              $C$DW$249       .dwtag  DW_TAG_enumerator, DW_AT_name("CSL_DMA_CHAN9"), DW_AT_const_value(0x09)
    3502              $C$DW$250       .dwtag  DW_TAG_enumerator, DW_AT_name("CSL_DMA_CHAN10"), DW_AT_const_value(0x0a)
    3503              $C$DW$251       .dwtag  DW_TAG_enumerator, DW_AT_name("CSL_DMA_CHAN11"), DW_AT_const_value(0x0b)
    3504              $C$DW$252       .dwtag  DW_TAG_enumerator, DW_AT_name("CSL_DMA_CHAN12"), DW_AT_const_value(0x0c)
    3505              $C$DW$253       .dwtag  DW_TAG_enumerator, DW_AT_name("CSL_DMA_CHAN13"), DW_AT_const_value(0x0d)
    3506              $C$DW$254       .dwtag  DW_TAG_enumerator, DW_AT_name("CSL_DMA_CHAN14"), DW_AT_const_value(0x0e)
    3507              $C$DW$255       .dwtag  DW_TAG_enumerator, DW_AT_name("CSL_DMA_CHAN15"), DW_AT_const_value(0x0f)
    3508              $C$DW$256       .dwtag  DW_TAG_enumerator, DW_AT_name("CSL_DMA_CHAN_INV"), DW_AT_const_value(0x10)
    3509                      .dwendtag $C$DW$T$53
TMS320C55x Assembler PC v4.4.1 Fri Sep 14 23:31:58 2018

Tools Copyright (c) 1996-2012 Texas Instruments Incorporated
csl_mmcsd_ataIf.asm                                                  PAGE   78

    3510              
    3511              $C$DW$T$54      .dwtag  DW_TAG_typedef, DW_AT_name("CSL_DMAChanNum")
    3512                      .dwattr $C$DW$T$54, DW_AT_type(*$C$DW$T$53)
    3513                      .dwattr $C$DW$T$54, DW_AT_language(DW_LANG_C)
    3514              
    3515              $C$DW$T$55      .dwtag  DW_TAG_enumeration_type
    3516                      .dwattr $C$DW$T$55, DW_AT_byte_size(0x01)
    3517              $C$DW$257       .dwtag  DW_TAG_enumerator, DW_AT_name("CSL_DMA_ENGINE0"), DW_AT_const_value(0x00)
    3518              $C$DW$258       .dwtag  DW_TAG_enumerator, DW_AT_name("CSL_DMA_ENGINE1"), DW_AT_const_value(0x01)
    3519              $C$DW$259       .dwtag  DW_TAG_enumerator, DW_AT_name("CSL_DMA_ENGINE2"), DW_AT_const_value(0x02)
    3520              $C$DW$260       .dwtag  DW_TAG_enumerator, DW_AT_name("CSL_DMA_ENGINE3"), DW_AT_const_value(0x03)
    3521              $C$DW$261       .dwtag  DW_TAG_enumerator, DW_AT_name("CSL_DMA_ENGINEINV"), DW_AT_const_value(0x04)
    3522                      .dwendtag $C$DW$T$55
    3523              
    3524              $C$DW$T$56      .dwtag  DW_TAG_typedef, DW_AT_name("CSL_DMAEngineId")
    3525                      .dwattr $C$DW$T$56, DW_AT_type(*$C$DW$T$55)
    3526                      .dwattr $C$DW$T$56, DW_AT_language(DW_LANG_C)
    3527              
    3528              $C$DW$T$57      .dwtag  DW_TAG_enumeration_type
    3529                      .dwattr $C$DW$T$57, DW_AT_byte_size(0x01)
    3530              $C$DW$262       .dwtag  DW_TAG_enumerator, DW_AT_name("CSL_DMA_READ"), DW_AT_const_value(0x00)
    3531              $C$DW$263       .dwtag  DW_TAG_enumerator, DW_AT_name("CSL_DMA_WRITE"), DW_AT_const_value(0x01)
    3532                      .dwendtag $C$DW$T$57
    3533              
    3534              $C$DW$T$58      .dwtag  DW_TAG_typedef, DW_AT_name("CSL_DMAChanDir")
    3535                      .dwattr $C$DW$T$58, DW_AT_type(*$C$DW$T$57)
    3536                      .dwattr $C$DW$T$58, DW_AT_language(DW_LANG_C)
    3537              
    3538              $C$DW$T$59      .dwtag  DW_TAG_enumeration_type
    3539                      .dwattr $C$DW$T$59, DW_AT_byte_size(0x01)
    3540              $C$DW$264       .dwtag  DW_TAG_enumerator, DW_AT_name("CSL_DMA_SOFTWARE_TRIGGER"), DW_AT_const_value(0x00)
    3541              $C$DW$265       .dwtag  DW_TAG_enumerator, DW_AT_name("CSL_DMA_EVENT_TRIGGER"), DW_AT_const_value(0x01)
    3542                      .dwendtag $C$DW$T$59
    3543              
    3544              $C$DW$T$60      .dwtag  DW_TAG_typedef, DW_AT_name("CSL_DMATriggerType")
    3545                      .dwattr $C$DW$T$60, DW_AT_type(*$C$DW$T$59)
    3546                      .dwattr $C$DW$T$60, DW_AT_language(DW_LANG_C)
    3547              
    3548              $C$DW$T$61      .dwtag  DW_TAG_enumeration_type
    3549                      .dwattr $C$DW$T$61, DW_AT_byte_size(0x01)
    3550              $C$DW$266       .dwtag  DW_TAG_enumerator, DW_AT_name("CSL_DMA_TRANSFER_IO_MEMORY"), DW_AT_const_value(0x00)
    3551              $C$DW$267       .dwtag  DW_TAG_enumerator, DW_AT_name("CSL_DMA_TRANSFER_MEMORY"), DW_AT_const_value(0x01)
    3552                      .dwendtag $C$DW$T$61
    3553              
    3554              $C$DW$T$62      .dwtag  DW_TAG_typedef, DW_AT_name("CSL_DMATransferType")
    3555                      .dwattr $C$DW$T$62, DW_AT_type(*$C$DW$T$61)
    3556                      .dwattr $C$DW$T$62, DW_AT_language(DW_LANG_C)
    3557              
    3558              $C$DW$T$63      .dwtag  DW_TAG_enumeration_type
    3559                      .dwattr $C$DW$T$63, DW_AT_byte_size(0x01)
    3560              $C$DW$268       .dwtag  DW_TAG_enumerator, DW_AT_name("CSL_DMA_INTERRUPT_DISABLE"), DW_AT_const_value(0x00)
    3561              $C$DW$269       .dwtag  DW_TAG_enumerator, DW_AT_name("CSL_DMA_INTERRUPT_ENABLE"), DW_AT_const_value(0x01)
    3562                      .dwendtag $C$DW$T$63
    3563              
    3564              $C$DW$T$64      .dwtag  DW_TAG_typedef, DW_AT_name("CSL_DMAInterruptState")
TMS320C55x Assembler PC v4.4.1 Fri Sep 14 23:31:58 2018

Tools Copyright (c) 1996-2012 Texas Instruments Incorporated
csl_mmcsd_ataIf.asm                                                  PAGE   79

    3565                      .dwattr $C$DW$T$64, DW_AT_type(*$C$DW$T$63)
    3566                      .dwattr $C$DW$T$64, DW_AT_language(DW_LANG_C)
    3567              
    3568              $C$DW$T$66      .dwtag  DW_TAG_enumeration_type
    3569                      .dwattr $C$DW$T$66, DW_AT_byte_size(0x01)
    3570              $C$DW$270       .dwtag  DW_TAG_enumerator, DW_AT_name("CSL_DMA_PING_PONG_DISABLE"), DW_AT_const_value(0x00)
    3571              $C$DW$271       .dwtag  DW_TAG_enumerator, DW_AT_name("CSL_DMA_PING_PONG_ENABLE"), DW_AT_const_value(0x01)
    3572                      .dwendtag $C$DW$T$66
    3573              
    3574              $C$DW$T$67      .dwtag  DW_TAG_typedef, DW_AT_name("CSL_DMAPingPongMode")
    3575                      .dwattr $C$DW$T$67, DW_AT_type(*$C$DW$T$66)
    3576                      .dwattr $C$DW$T$67, DW_AT_language(DW_LANG_C)
    3577              
    3578              $C$DW$T$68      .dwtag  DW_TAG_enumeration_type
    3579                      .dwattr $C$DW$T$68, DW_AT_byte_size(0x01)
    3580              $C$DW$272       .dwtag  DW_TAG_enumerator, DW_AT_name("CSL_DMA_AUTORELOAD_DISABLE"), DW_AT_const_value(0x00)
    3581              $C$DW$273       .dwtag  DW_TAG_enumerator, DW_AT_name("CSL_DMA_AUTORELOAD_ENABLE"), DW_AT_const_value(0x01)
    3582                      .dwendtag $C$DW$T$68
    3583              
    3584              $C$DW$T$69      .dwtag  DW_TAG_typedef, DW_AT_name("CSL_DMAAutoReloadMode")
    3585                      .dwattr $C$DW$T$69, DW_AT_type(*$C$DW$T$68)
    3586                      .dwattr $C$DW$T$69, DW_AT_language(DW_LANG_C)
    3587              
    3588              $C$DW$T$70      .dwtag  DW_TAG_enumeration_type
    3589                      .dwattr $C$DW$T$70, DW_AT_byte_size(0x01)
    3590              $C$DW$274       .dwtag  DW_TAG_enumerator, DW_AT_name("CSL_DMA_TXBURST_1WORD"), DW_AT_const_value(0x00)
    3591              $C$DW$275       .dwtag  DW_TAG_enumerator, DW_AT_name("CSL_DMA_TXBURST_2WORD"), DW_AT_const_value(0x01)
    3592              $C$DW$276       .dwtag  DW_TAG_enumerator, DW_AT_name("CSL_DMA_TXBURST_4WORD"), DW_AT_const_value(0x02)
    3593              $C$DW$277       .dwtag  DW_TAG_enumerator, DW_AT_name("CSL_DMA_TXBURST_8WORD"), DW_AT_const_value(0x03)
    3594              $C$DW$278       .dwtag  DW_TAG_enumerator, DW_AT_name("CSL_DMA_TXBURST_16WORD"), DW_AT_const_value(0x04)
    3595                      .dwendtag $C$DW$T$70
    3596              
    3597              $C$DW$T$71      .dwtag  DW_TAG_typedef, DW_AT_name("CSL_DMATxBurstLen")
    3598                      .dwattr $C$DW$T$71, DW_AT_type(*$C$DW$T$70)
    3599                      .dwattr $C$DW$T$71, DW_AT_language(DW_LANG_C)
    3600              
    3601              $C$DW$T$72      .dwtag  DW_TAG_enumeration_type
    3602                      .dwattr $C$DW$T$72, DW_AT_byte_size(0x01)
    3603              $C$DW$279       .dwtag  DW_TAG_enumerator, DW_AT_name("CSL_DMA_EVT_NONE"), DW_AT_const_value(0x00)
    3604              $C$DW$280       .dwtag  DW_TAG_enumerator, DW_AT_name("CSL_DMA_EVT_I2S0_TX"), DW_AT_const_value(0x01)
    3605              $C$DW$281       .dwtag  DW_TAG_enumerator, DW_AT_name("CSL_DMA_EVT_I2S0_RX"), DW_AT_const_value(0x02)
    3606              $C$DW$282       .dwtag  DW_TAG_enumerator, DW_AT_name("CSL_DMA_EVT_I2S1_TX"), DW_AT_const_value(0x01)
    3607              $C$DW$283       .dwtag  DW_TAG_enumerator, DW_AT_name("CSL_DMA_EVT_I2S1_RX"), DW_AT_const_value(0x02)
    3608              $C$DW$284       .dwtag  DW_TAG_enumerator, DW_AT_name("CSL_DMA_EVT_I2S2_TX"), DW_AT_const_value(0x01)
    3609              $C$DW$285       .dwtag  DW_TAG_enumerator, DW_AT_name("CSL_DMA_EVT_I2S2_RX"), DW_AT_const_value(0x02)
    3610              $C$DW$286       .dwtag  DW_TAG_enumerator, DW_AT_name("CSL_DMA_EVT_I2S3_TX"), DW_AT_const_value(0x04)
    3611              $C$DW$287       .dwtag  DW_TAG_enumerator, DW_AT_name("CSL_DMA_EVT_I2S3_RX"), DW_AT_const_value(0x05)
    3612              $C$DW$288       .dwtag  DW_TAG_enumerator, DW_AT_name("CSL_DMA_EVT_MMC_SD0_TX"), DW_AT_const_value(0x05)
    3613              $C$DW$289       .dwtag  DW_TAG_enumerator, DW_AT_name("CSL_DMA_EVT_MMC_SD0_RX"), DW_AT_const_value(0x06)
    3614              $C$DW$290       .dwtag  DW_TAG_enumerator, DW_AT_name("CSL_DMA_EVT_MMC_SD1_TX"), DW_AT_const_value(0x07)
    3615              $C$DW$291       .dwtag  DW_TAG_enumerator, DW_AT_name("CSL_DMA_EVT_MMC_SD1_RX"), DW_AT_const_value(0x08)
    3616              $C$DW$292       .dwtag  DW_TAG_enumerator, DW_AT_name("CSL_DMA_EVT_TIMER0"), DW_AT_const_value(0x0c)
    3617              $C$DW$293       .dwtag  DW_TAG_enumerator, DW_AT_name("CSL_DMA_EVT_TIMER1"), DW_AT_const_value(0x0d)
    3618              $C$DW$294       .dwtag  DW_TAG_enumerator, DW_AT_name("CSL_DMA_EVT_TIMER2"), DW_AT_const_value(0x0e)
    3619              $C$DW$295       .dwtag  DW_TAG_enumerator, DW_AT_name("CSL_DMA_EVT_UART_TX"), DW_AT_const_value(0x05)
TMS320C55x Assembler PC v4.4.1 Fri Sep 14 23:31:58 2018

Tools Copyright (c) 1996-2012 Texas Instruments Incorporated
csl_mmcsd_ataIf.asm                                                  PAGE   80

    3620              $C$DW$296       .dwtag  DW_TAG_enumerator, DW_AT_name("CSL_DMA_EVT_UART_RX"), DW_AT_const_value(0x06)
    3621              $C$DW$297       .dwtag  DW_TAG_enumerator, DW_AT_name("CSL_DMA_EVT_I2C_TX"), DW_AT_const_value(0x01)
    3622              $C$DW$298       .dwtag  DW_TAG_enumerator, DW_AT_name("CSL_DMA_EVT_I2C_RX"), DW_AT_const_value(0x02)
    3623              $C$DW$299       .dwtag  DW_TAG_enumerator, DW_AT_name("CSL_DMA_EVT_SAR_AD"), DW_AT_const_value(0x03)
    3624              $C$DW$300       .dwtag  DW_TAG_enumerator, DW_AT_name("CSL_DMA_EVT_INVALID"), DW_AT_const_value(0x04)
    3625                      .dwendtag $C$DW$T$72
    3626              
    3627              $C$DW$T$73      .dwtag  DW_TAG_typedef, DW_AT_name("CSL_DMAEvtType")
    3628                      .dwattr $C$DW$T$73, DW_AT_type(*$C$DW$T$72)
    3629                      .dwattr $C$DW$T$73, DW_AT_language(DW_LANG_C)
    3630              
    3631              $C$DW$T$85      .dwtag  DW_TAG_enumeration_type
    3632                      .dwattr $C$DW$T$85, DW_AT_byte_size(0x01)
    3633              $C$DW$301       .dwtag  DW_TAG_enumerator, DW_AT_name("CSL_MMCSD_OPMODE_POLLED"), DW_AT_const_value(0x00)
    3634              $C$DW$302       .dwtag  DW_TAG_enumerator, DW_AT_name("CSL_MMCSD_OPMODE_INTERRUPT"), DW_AT_const_value(0x01)
    3635              $C$DW$303       .dwtag  DW_TAG_enumerator, DW_AT_name("CSL_MMCSD_OPMODE_DMA"), DW_AT_const_value(0x02)
    3636              $C$DW$304       .dwtag  DW_TAG_enumerator, DW_AT_name("CSL_MMCSD_OPMODE_NONE"), DW_AT_const_value(0x03)
    3637                      .dwendtag $C$DW$T$85
    3638              
    3639              $C$DW$T$86      .dwtag  DW_TAG_typedef, DW_AT_name("CSL_MMCSDOpMode")
    3640                      .dwattr $C$DW$T$86, DW_AT_type(*$C$DW$T$85)
    3641                      .dwattr $C$DW$T$86, DW_AT_language(DW_LANG_C)
    3642              
    3643              $C$DW$T$96      .dwtag  DW_TAG_enumeration_type
    3644                      .dwattr $C$DW$T$96, DW_AT_byte_size(0x01)
    3645              $C$DW$305       .dwtag  DW_TAG_enumerator, DW_AT_name("CSL_MMCSD_ENDIAN_LITTLE"), DW_AT_const_value(0x00)
    3646              $C$DW$306       .dwtag  DW_TAG_enumerator, DW_AT_name("CSL_MMCSD_ENDIAN_BIG"), DW_AT_const_value(0x01)
    3647                      .dwendtag $C$DW$T$96
    3648              
    3649              $C$DW$T$97      .dwtag  DW_TAG_typedef, DW_AT_name("CSL_MmcsdEndianMode")
    3650                      .dwattr $C$DW$T$97, DW_AT_type(*$C$DW$T$96)
    3651                      .dwattr $C$DW$T$97, DW_AT_language(DW_LANG_C)
    3652              
    3653              $C$DW$T$25      .dwtag  DW_TAG_structure_type
    3654                      .dwattr $C$DW$T$25, DW_AT_byte_size(0x75)
    3655              $C$DW$307       .dwtag  DW_TAG_member
    3656                      .dwattr $C$DW$307, DW_AT_type(*$C$DW$T$20)
    3657                      .dwattr $C$DW$307, DW_AT_name("MMCCTL")
    3658                      .dwattr $C$DW$307, DW_AT_TI_symbol_name("_MMCCTL")
    3659                      .dwattr $C$DW$307, DW_AT_data_member_location[DW_OP_plus_uconst 0x0]
    3660                      .dwattr $C$DW$307, DW_AT_accessibility(DW_ACCESS_public)
    3661              $C$DW$308       .dwtag  DW_TAG_member
    3662                      .dwattr $C$DW$308, DW_AT_type(*$C$DW$T$21)
    3663                      .dwattr $C$DW$308, DW_AT_name("RSVD0")
    3664                      .dwattr $C$DW$308, DW_AT_TI_symbol_name("_RSVD0")
    3665                      .dwattr $C$DW$308, DW_AT_data_member_location[DW_OP_plus_uconst 0x1]
    3666                      .dwattr $C$DW$308, DW_AT_accessibility(DW_ACCESS_public)
    3667              $C$DW$309       .dwtag  DW_TAG_member
    3668                      .dwattr $C$DW$309, DW_AT_type(*$C$DW$T$20)
    3669                      .dwattr $C$DW$309, DW_AT_name("MMCCLK")
    3670                      .dwattr $C$DW$309, DW_AT_TI_symbol_name("_MMCCLK")
    3671                      .dwattr $C$DW$309, DW_AT_data_member_location[DW_OP_plus_uconst 0x4]
    3672                      .dwattr $C$DW$309, DW_AT_accessibility(DW_ACCESS_public)
    3673              $C$DW$310       .dwtag  DW_TAG_member
    3674                      .dwattr $C$DW$310, DW_AT_type(*$C$DW$T$21)
TMS320C55x Assembler PC v4.4.1 Fri Sep 14 23:31:58 2018

Tools Copyright (c) 1996-2012 Texas Instruments Incorporated
csl_mmcsd_ataIf.asm                                                  PAGE   81

    3675                      .dwattr $C$DW$310, DW_AT_name("RSVD1")
    3676                      .dwattr $C$DW$310, DW_AT_TI_symbol_name("_RSVD1")
    3677                      .dwattr $C$DW$310, DW_AT_data_member_location[DW_OP_plus_uconst 0x5]
    3678                      .dwattr $C$DW$310, DW_AT_accessibility(DW_ACCESS_public)
    3679              $C$DW$311       .dwtag  DW_TAG_member
    3680                      .dwattr $C$DW$311, DW_AT_type(*$C$DW$T$20)
    3681                      .dwattr $C$DW$311, DW_AT_name("MMCST0")
    3682                      .dwattr $C$DW$311, DW_AT_TI_symbol_name("_MMCST0")
    3683                      .dwattr $C$DW$311, DW_AT_data_member_location[DW_OP_plus_uconst 0x8]
    3684                      .dwattr $C$DW$311, DW_AT_accessibility(DW_ACCESS_public)
    3685              $C$DW$312       .dwtag  DW_TAG_member
    3686                      .dwattr $C$DW$312, DW_AT_type(*$C$DW$T$21)
    3687                      .dwattr $C$DW$312, DW_AT_name("RSVD2")
    3688                      .dwattr $C$DW$312, DW_AT_TI_symbol_name("_RSVD2")
    3689                      .dwattr $C$DW$312, DW_AT_data_member_location[DW_OP_plus_uconst 0x9]
    3690                      .dwattr $C$DW$312, DW_AT_accessibility(DW_ACCESS_public)
    3691              $C$DW$313       .dwtag  DW_TAG_member
    3692                      .dwattr $C$DW$313, DW_AT_type(*$C$DW$T$20)
    3693                      .dwattr $C$DW$313, DW_AT_name("MMCST1")
    3694                      .dwattr $C$DW$313, DW_AT_TI_symbol_name("_MMCST1")
    3695                      .dwattr $C$DW$313, DW_AT_data_member_location[DW_OP_plus_uconst 0xc]
    3696                      .dwattr $C$DW$313, DW_AT_accessibility(DW_ACCESS_public)
    3697              $C$DW$314       .dwtag  DW_TAG_member
    3698                      .dwattr $C$DW$314, DW_AT_type(*$C$DW$T$21)
    3699                      .dwattr $C$DW$314, DW_AT_name("RSVD3")
    3700                      .dwattr $C$DW$314, DW_AT_TI_symbol_name("_RSVD3")
    3701                      .dwattr $C$DW$314, DW_AT_data_member_location[DW_OP_plus_uconst 0xd]
    3702                      .dwattr $C$DW$314, DW_AT_accessibility(DW_ACCESS_public)
    3703              $C$DW$315       .dwtag  DW_TAG_member
    3704                      .dwattr $C$DW$315, DW_AT_type(*$C$DW$T$20)
    3705                      .dwattr $C$DW$315, DW_AT_name("MMCIM")
    3706                      .dwattr $C$DW$315, DW_AT_TI_symbol_name("_MMCIM")
    3707                      .dwattr $C$DW$315, DW_AT_data_member_location[DW_OP_plus_uconst 0x10]
    3708                      .dwattr $C$DW$315, DW_AT_accessibility(DW_ACCESS_public)
    3709              $C$DW$316       .dwtag  DW_TAG_member
    3710                      .dwattr $C$DW$316, DW_AT_type(*$C$DW$T$21)
    3711                      .dwattr $C$DW$316, DW_AT_name("RSVD4")
    3712                      .dwattr $C$DW$316, DW_AT_TI_symbol_name("_RSVD4")
    3713                      .dwattr $C$DW$316, DW_AT_data_member_location[DW_OP_plus_uconst 0x11]
    3714                      .dwattr $C$DW$316, DW_AT_accessibility(DW_ACCESS_public)
    3715              $C$DW$317       .dwtag  DW_TAG_member
    3716                      .dwattr $C$DW$317, DW_AT_type(*$C$DW$T$20)
    3717                      .dwattr $C$DW$317, DW_AT_name("MMCTOR")
    3718                      .dwattr $C$DW$317, DW_AT_TI_symbol_name("_MMCTOR")
    3719                      .dwattr $C$DW$317, DW_AT_data_member_location[DW_OP_plus_uconst 0x14]
    3720                      .dwattr $C$DW$317, DW_AT_accessibility(DW_ACCESS_public)
    3721              $C$DW$318       .dwtag  DW_TAG_member
    3722                      .dwattr $C$DW$318, DW_AT_type(*$C$DW$T$21)
    3723                      .dwattr $C$DW$318, DW_AT_name("RSVD5")
    3724                      .dwattr $C$DW$318, DW_AT_TI_symbol_name("_RSVD5")
    3725                      .dwattr $C$DW$318, DW_AT_data_member_location[DW_OP_plus_uconst 0x15]
    3726                      .dwattr $C$DW$318, DW_AT_accessibility(DW_ACCESS_public)
    3727              $C$DW$319       .dwtag  DW_TAG_member
    3728                      .dwattr $C$DW$319, DW_AT_type(*$C$DW$T$20)
    3729                      .dwattr $C$DW$319, DW_AT_name("MMCTOD")
TMS320C55x Assembler PC v4.4.1 Fri Sep 14 23:31:58 2018

Tools Copyright (c) 1996-2012 Texas Instruments Incorporated
csl_mmcsd_ataIf.asm                                                  PAGE   82

    3730                      .dwattr $C$DW$319, DW_AT_TI_symbol_name("_MMCTOD")
    3731                      .dwattr $C$DW$319, DW_AT_data_member_location[DW_OP_plus_uconst 0x18]
    3732                      .dwattr $C$DW$319, DW_AT_accessibility(DW_ACCESS_public)
    3733              $C$DW$320       .dwtag  DW_TAG_member
    3734                      .dwattr $C$DW$320, DW_AT_type(*$C$DW$T$21)
    3735                      .dwattr $C$DW$320, DW_AT_name("RSVD6")
    3736                      .dwattr $C$DW$320, DW_AT_TI_symbol_name("_RSVD6")
    3737                      .dwattr $C$DW$320, DW_AT_data_member_location[DW_OP_plus_uconst 0x19]
    3738                      .dwattr $C$DW$320, DW_AT_accessibility(DW_ACCESS_public)
    3739              $C$DW$321       .dwtag  DW_TAG_member
    3740                      .dwattr $C$DW$321, DW_AT_type(*$C$DW$T$20)
    3741                      .dwattr $C$DW$321, DW_AT_name("MMCBLEN")
    3742                      .dwattr $C$DW$321, DW_AT_TI_symbol_name("_MMCBLEN")
    3743                      .dwattr $C$DW$321, DW_AT_data_member_location[DW_OP_plus_uconst 0x1c]
    3744                      .dwattr $C$DW$321, DW_AT_accessibility(DW_ACCESS_public)
    3745              $C$DW$322       .dwtag  DW_TAG_member
    3746                      .dwattr $C$DW$322, DW_AT_type(*$C$DW$T$21)
    3747                      .dwattr $C$DW$322, DW_AT_name("RSVD7")
    3748                      .dwattr $C$DW$322, DW_AT_TI_symbol_name("_RSVD7")
    3749                      .dwattr $C$DW$322, DW_AT_data_member_location[DW_OP_plus_uconst 0x1d]
    3750                      .dwattr $C$DW$322, DW_AT_accessibility(DW_ACCESS_public)
    3751              $C$DW$323       .dwtag  DW_TAG_member
    3752                      .dwattr $C$DW$323, DW_AT_type(*$C$DW$T$20)
    3753                      .dwattr $C$DW$323, DW_AT_name("MMCNBLK")
    3754                      .dwattr $C$DW$323, DW_AT_TI_symbol_name("_MMCNBLK")
    3755                      .dwattr $C$DW$323, DW_AT_data_member_location[DW_OP_plus_uconst 0x20]
    3756                      .dwattr $C$DW$323, DW_AT_accessibility(DW_ACCESS_public)
    3757              $C$DW$324       .dwtag  DW_TAG_member
    3758                      .dwattr $C$DW$324, DW_AT_type(*$C$DW$T$21)
    3759                      .dwattr $C$DW$324, DW_AT_name("RSVD8")
    3760                      .dwattr $C$DW$324, DW_AT_TI_symbol_name("_RSVD8")
    3761                      .dwattr $C$DW$324, DW_AT_data_member_location[DW_OP_plus_uconst 0x21]
    3762                      .dwattr $C$DW$324, DW_AT_accessibility(DW_ACCESS_public)
    3763              $C$DW$325       .dwtag  DW_TAG_member
    3764                      .dwattr $C$DW$325, DW_AT_type(*$C$DW$T$20)
    3765                      .dwattr $C$DW$325, DW_AT_name("MMCNBLC")
    3766                      .dwattr $C$DW$325, DW_AT_TI_symbol_name("_MMCNBLC")
    3767                      .dwattr $C$DW$325, DW_AT_data_member_location[DW_OP_plus_uconst 0x24]
    3768                      .dwattr $C$DW$325, DW_AT_accessibility(DW_ACCESS_public)
    3769              $C$DW$326       .dwtag  DW_TAG_member
    3770                      .dwattr $C$DW$326, DW_AT_type(*$C$DW$T$21)
    3771                      .dwattr $C$DW$326, DW_AT_name("RSVD9")
    3772                      .dwattr $C$DW$326, DW_AT_TI_symbol_name("_RSVD9")
    3773                      .dwattr $C$DW$326, DW_AT_data_member_location[DW_OP_plus_uconst 0x25]
    3774                      .dwattr $C$DW$326, DW_AT_accessibility(DW_ACCESS_public)
    3775              $C$DW$327       .dwtag  DW_TAG_member
    3776                      .dwattr $C$DW$327, DW_AT_type(*$C$DW$T$20)
    3777                      .dwattr $C$DW$327, DW_AT_name("MMCDRR1")
    3778                      .dwattr $C$DW$327, DW_AT_TI_symbol_name("_MMCDRR1")
    3779                      .dwattr $C$DW$327, DW_AT_data_member_location[DW_OP_plus_uconst 0x28]
    3780                      .dwattr $C$DW$327, DW_AT_accessibility(DW_ACCESS_public)
    3781              $C$DW$328       .dwtag  DW_TAG_member
    3782                      .dwattr $C$DW$328, DW_AT_type(*$C$DW$T$20)
    3783                      .dwattr $C$DW$328, DW_AT_name("MMCDRR2")
    3784                      .dwattr $C$DW$328, DW_AT_TI_symbol_name("_MMCDRR2")
TMS320C55x Assembler PC v4.4.1 Fri Sep 14 23:31:58 2018

Tools Copyright (c) 1996-2012 Texas Instruments Incorporated
csl_mmcsd_ataIf.asm                                                  PAGE   83

    3785                      .dwattr $C$DW$328, DW_AT_data_member_location[DW_OP_plus_uconst 0x29]
    3786                      .dwattr $C$DW$328, DW_AT_accessibility(DW_ACCESS_public)
    3787              $C$DW$329       .dwtag  DW_TAG_member
    3788                      .dwattr $C$DW$329, DW_AT_type(*$C$DW$T$22)
    3789                      .dwattr $C$DW$329, DW_AT_name("RSVD10")
    3790                      .dwattr $C$DW$329, DW_AT_TI_symbol_name("_RSVD10")
    3791                      .dwattr $C$DW$329, DW_AT_data_member_location[DW_OP_plus_uconst 0x2a]
    3792                      .dwattr $C$DW$329, DW_AT_accessibility(DW_ACCESS_public)
    3793              $C$DW$330       .dwtag  DW_TAG_member
    3794                      .dwattr $C$DW$330, DW_AT_type(*$C$DW$T$20)
    3795                      .dwattr $C$DW$330, DW_AT_name("MMCDXR1")
    3796                      .dwattr $C$DW$330, DW_AT_TI_symbol_name("_MMCDXR1")
    3797                      .dwattr $C$DW$330, DW_AT_data_member_location[DW_OP_plus_uconst 0x2c]
    3798                      .dwattr $C$DW$330, DW_AT_accessibility(DW_ACCESS_public)
    3799              $C$DW$331       .dwtag  DW_TAG_member
    3800                      .dwattr $C$DW$331, DW_AT_type(*$C$DW$T$20)
    3801                      .dwattr $C$DW$331, DW_AT_name("MMCDXR2")
    3802                      .dwattr $C$DW$331, DW_AT_TI_symbol_name("_MMCDXR2")
    3803                      .dwattr $C$DW$331, DW_AT_data_member_location[DW_OP_plus_uconst 0x2d]
    3804                      .dwattr $C$DW$331, DW_AT_accessibility(DW_ACCESS_public)
    3805              $C$DW$332       .dwtag  DW_TAG_member
    3806                      .dwattr $C$DW$332, DW_AT_type(*$C$DW$T$22)
    3807                      .dwattr $C$DW$332, DW_AT_name("RSVD11")
    3808                      .dwattr $C$DW$332, DW_AT_TI_symbol_name("_RSVD11")
    3809                      .dwattr $C$DW$332, DW_AT_data_member_location[DW_OP_plus_uconst 0x2e]
    3810                      .dwattr $C$DW$332, DW_AT_accessibility(DW_ACCESS_public)
    3811              $C$DW$333       .dwtag  DW_TAG_member
    3812                      .dwattr $C$DW$333, DW_AT_type(*$C$DW$T$20)
    3813                      .dwattr $C$DW$333, DW_AT_name("MMCCMD1")
    3814                      .dwattr $C$DW$333, DW_AT_TI_symbol_name("_MMCCMD1")
    3815                      .dwattr $C$DW$333, DW_AT_data_member_location[DW_OP_plus_uconst 0x30]
    3816                      .dwattr $C$DW$333, DW_AT_accessibility(DW_ACCESS_public)
    3817              $C$DW$334       .dwtag  DW_TAG_member
    3818                      .dwattr $C$DW$334, DW_AT_type(*$C$DW$T$20)
    3819                      .dwattr $C$DW$334, DW_AT_name("MMCCMD2")
    3820                      .dwattr $C$DW$334, DW_AT_TI_symbol_name("_MMCCMD2")
    3821                      .dwattr $C$DW$334, DW_AT_data_member_location[DW_OP_plus_uconst 0x31]
    3822                      .dwattr $C$DW$334, DW_AT_accessibility(DW_ACCESS_public)
    3823              $C$DW$335       .dwtag  DW_TAG_member
    3824                      .dwattr $C$DW$335, DW_AT_type(*$C$DW$T$22)
    3825                      .dwattr $C$DW$335, DW_AT_name("RSVD12")
    3826                      .dwattr $C$DW$335, DW_AT_TI_symbol_name("_RSVD12")
    3827                      .dwattr $C$DW$335, DW_AT_data_member_location[DW_OP_plus_uconst 0x32]
    3828                      .dwattr $C$DW$335, DW_AT_accessibility(DW_ACCESS_public)
    3829              $C$DW$336       .dwtag  DW_TAG_member
    3830                      .dwattr $C$DW$336, DW_AT_type(*$C$DW$T$20)
    3831                      .dwattr $C$DW$336, DW_AT_name("MMCARG1")
    3832                      .dwattr $C$DW$336, DW_AT_TI_symbol_name("_MMCARG1")
    3833                      .dwattr $C$DW$336, DW_AT_data_member_location[DW_OP_plus_uconst 0x34]
    3834                      .dwattr $C$DW$336, DW_AT_accessibility(DW_ACCESS_public)
    3835              $C$DW$337       .dwtag  DW_TAG_member
    3836                      .dwattr $C$DW$337, DW_AT_type(*$C$DW$T$20)
    3837                      .dwattr $C$DW$337, DW_AT_name("MMCARG2")
    3838                      .dwattr $C$DW$337, DW_AT_TI_symbol_name("_MMCARG2")
    3839                      .dwattr $C$DW$337, DW_AT_data_member_location[DW_OP_plus_uconst 0x35]
TMS320C55x Assembler PC v4.4.1 Fri Sep 14 23:31:58 2018

Tools Copyright (c) 1996-2012 Texas Instruments Incorporated
csl_mmcsd_ataIf.asm                                                  PAGE   84

    3840                      .dwattr $C$DW$337, DW_AT_accessibility(DW_ACCESS_public)
    3841              $C$DW$338       .dwtag  DW_TAG_member
    3842                      .dwattr $C$DW$338, DW_AT_type(*$C$DW$T$22)
    3843                      .dwattr $C$DW$338, DW_AT_name("RSVD13")
    3844                      .dwattr $C$DW$338, DW_AT_TI_symbol_name("_RSVD13")
    3845                      .dwattr $C$DW$338, DW_AT_data_member_location[DW_OP_plus_uconst 0x36]
    3846                      .dwattr $C$DW$338, DW_AT_accessibility(DW_ACCESS_public)
    3847              $C$DW$339       .dwtag  DW_TAG_member
    3848                      .dwattr $C$DW$339, DW_AT_type(*$C$DW$T$20)
    3849                      .dwattr $C$DW$339, DW_AT_name("MMCRSP0")
    3850                      .dwattr $C$DW$339, DW_AT_TI_symbol_name("_MMCRSP0")
    3851                      .dwattr $C$DW$339, DW_AT_data_member_location[DW_OP_plus_uconst 0x38]
    3852                      .dwattr $C$DW$339, DW_AT_accessibility(DW_ACCESS_public)
    3853              $C$DW$340       .dwtag  DW_TAG_member
    3854                      .dwattr $C$DW$340, DW_AT_type(*$C$DW$T$20)
    3855                      .dwattr $C$DW$340, DW_AT_name("MMCRSP1")
    3856                      .dwattr $C$DW$340, DW_AT_TI_symbol_name("_MMCRSP1")
    3857                      .dwattr $C$DW$340, DW_AT_data_member_location[DW_OP_plus_uconst 0x39]
    3858                      .dwattr $C$DW$340, DW_AT_accessibility(DW_ACCESS_public)
    3859              $C$DW$341       .dwtag  DW_TAG_member
    3860                      .dwattr $C$DW$341, DW_AT_type(*$C$DW$T$22)
    3861                      .dwattr $C$DW$341, DW_AT_name("RSVD14")
    3862                      .dwattr $C$DW$341, DW_AT_TI_symbol_name("_RSVD14")
    3863                      .dwattr $C$DW$341, DW_AT_data_member_location[DW_OP_plus_uconst 0x3a]
    3864                      .dwattr $C$DW$341, DW_AT_accessibility(DW_ACCESS_public)
    3865              $C$DW$342       .dwtag  DW_TAG_member
    3866                      .dwattr $C$DW$342, DW_AT_type(*$C$DW$T$20)
    3867                      .dwattr $C$DW$342, DW_AT_name("MMCRSP2")
    3868                      .dwattr $C$DW$342, DW_AT_TI_symbol_name("_MMCRSP2")
    3869                      .dwattr $C$DW$342, DW_AT_data_member_location[DW_OP_plus_uconst 0x3c]
    3870                      .dwattr $C$DW$342, DW_AT_accessibility(DW_ACCESS_public)
    3871              $C$DW$343       .dwtag  DW_TAG_member
    3872                      .dwattr $C$DW$343, DW_AT_type(*$C$DW$T$20)
    3873                      .dwattr $C$DW$343, DW_AT_name("MMCRSP3")
    3874                      .dwattr $C$DW$343, DW_AT_TI_symbol_name("_MMCRSP3")
    3875                      .dwattr $C$DW$343, DW_AT_data_member_location[DW_OP_plus_uconst 0x3d]
    3876                      .dwattr $C$DW$343, DW_AT_accessibility(DW_ACCESS_public)
    3877              $C$DW$344       .dwtag  DW_TAG_member
    3878                      .dwattr $C$DW$344, DW_AT_type(*$C$DW$T$22)
    3879                      .dwattr $C$DW$344, DW_AT_name("RSVD15")
    3880                      .dwattr $C$DW$344, DW_AT_TI_symbol_name("_RSVD15")
    3881                      .dwattr $C$DW$344, DW_AT_data_member_location[DW_OP_plus_uconst 0x3e]
    3882                      .dwattr $C$DW$344, DW_AT_accessibility(DW_ACCESS_public)
    3883              $C$DW$345       .dwtag  DW_TAG_member
    3884                      .dwattr $C$DW$345, DW_AT_type(*$C$DW$T$20)
    3885                      .dwattr $C$DW$345, DW_AT_name("MMCRSP4")
    3886                      .dwattr $C$DW$345, DW_AT_TI_symbol_name("_MMCRSP4")
    3887                      .dwattr $C$DW$345, DW_AT_data_member_location[DW_OP_plus_uconst 0x40]
    3888                      .dwattr $C$DW$345, DW_AT_accessibility(DW_ACCESS_public)
    3889              $C$DW$346       .dwtag  DW_TAG_member
    3890                      .dwattr $C$DW$346, DW_AT_type(*$C$DW$T$20)
    3891                      .dwattr $C$DW$346, DW_AT_name("MMCRSP5")
    3892                      .dwattr $C$DW$346, DW_AT_TI_symbol_name("_MMCRSP5")
    3893                      .dwattr $C$DW$346, DW_AT_data_member_location[DW_OP_plus_uconst 0x41]
    3894                      .dwattr $C$DW$346, DW_AT_accessibility(DW_ACCESS_public)
TMS320C55x Assembler PC v4.4.1 Fri Sep 14 23:31:58 2018

Tools Copyright (c) 1996-2012 Texas Instruments Incorporated
csl_mmcsd_ataIf.asm                                                  PAGE   85

    3895              $C$DW$347       .dwtag  DW_TAG_member
    3896                      .dwattr $C$DW$347, DW_AT_type(*$C$DW$T$22)
    3897                      .dwattr $C$DW$347, DW_AT_name("RSVD16")
    3898                      .dwattr $C$DW$347, DW_AT_TI_symbol_name("_RSVD16")
    3899                      .dwattr $C$DW$347, DW_AT_data_member_location[DW_OP_plus_uconst 0x42]
    3900                      .dwattr $C$DW$347, DW_AT_accessibility(DW_ACCESS_public)
    3901              $C$DW$348       .dwtag  DW_TAG_member
    3902                      .dwattr $C$DW$348, DW_AT_type(*$C$DW$T$20)
    3903                      .dwattr $C$DW$348, DW_AT_name("MMCRSP6")
    3904                      .dwattr $C$DW$348, DW_AT_TI_symbol_name("_MMCRSP6")
    3905                      .dwattr $C$DW$348, DW_AT_data_member_location[DW_OP_plus_uconst 0x44]
    3906                      .dwattr $C$DW$348, DW_AT_accessibility(DW_ACCESS_public)
    3907              $C$DW$349       .dwtag  DW_TAG_member
    3908                      .dwattr $C$DW$349, DW_AT_type(*$C$DW$T$20)
    3909                      .dwattr $C$DW$349, DW_AT_name("MMCRSP7")
    3910                      .dwattr $C$DW$349, DW_AT_TI_symbol_name("_MMCRSP7")
    3911                      .dwattr $C$DW$349, DW_AT_data_member_location[DW_OP_plus_uconst 0x45]
    3912                      .dwattr $C$DW$349, DW_AT_accessibility(DW_ACCESS_public)
    3913              $C$DW$350       .dwtag  DW_TAG_member
    3914                      .dwattr $C$DW$350, DW_AT_type(*$C$DW$T$22)
    3915                      .dwattr $C$DW$350, DW_AT_name("RSVD17")
    3916                      .dwattr $C$DW$350, DW_AT_TI_symbol_name("_RSVD17")
    3917                      .dwattr $C$DW$350, DW_AT_data_member_location[DW_OP_plus_uconst 0x46]
    3918                      .dwattr $C$DW$350, DW_AT_accessibility(DW_ACCESS_public)
    3919              $C$DW$351       .dwtag  DW_TAG_member
    3920                      .dwattr $C$DW$351, DW_AT_type(*$C$DW$T$20)
    3921                      .dwattr $C$DW$351, DW_AT_name("MMCDRSP")
    3922                      .dwattr $C$DW$351, DW_AT_TI_symbol_name("_MMCDRSP")
    3923                      .dwattr $C$DW$351, DW_AT_data_member_location[DW_OP_plus_uconst 0x48]
    3924                      .dwattr $C$DW$351, DW_AT_accessibility(DW_ACCESS_public)
    3925              $C$DW$352       .dwtag  DW_TAG_member
    3926                      .dwattr $C$DW$352, DW_AT_type(*$C$DW$T$23)
    3927                      .dwattr $C$DW$352, DW_AT_name("RSVD18")
    3928                      .dwattr $C$DW$352, DW_AT_TI_symbol_name("_RSVD18")
    3929                      .dwattr $C$DW$352, DW_AT_data_member_location[DW_OP_plus_uconst 0x49]
    3930                      .dwattr $C$DW$352, DW_AT_accessibility(DW_ACCESS_public)
    3931              $C$DW$353       .dwtag  DW_TAG_member
    3932                      .dwattr $C$DW$353, DW_AT_type(*$C$DW$T$20)
    3933                      .dwattr $C$DW$353, DW_AT_name("MMCCIDX")
    3934                      .dwattr $C$DW$353, DW_AT_TI_symbol_name("_MMCCIDX")
    3935                      .dwattr $C$DW$353, DW_AT_data_member_location[DW_OP_plus_uconst 0x50]
    3936                      .dwattr $C$DW$353, DW_AT_accessibility(DW_ACCESS_public)
    3937              $C$DW$354       .dwtag  DW_TAG_member
    3938                      .dwattr $C$DW$354, DW_AT_type(*$C$DW$T$24)
    3939                      .dwattr $C$DW$354, DW_AT_name("RSVD19")
    3940                      .dwattr $C$DW$354, DW_AT_TI_symbol_name("_RSVD19")
    3941                      .dwattr $C$DW$354, DW_AT_data_member_location[DW_OP_plus_uconst 0x51]
    3942                      .dwattr $C$DW$354, DW_AT_accessibility(DW_ACCESS_public)
    3943              $C$DW$355       .dwtag  DW_TAG_member
    3944                      .dwattr $C$DW$355, DW_AT_type(*$C$DW$T$20)
    3945                      .dwattr $C$DW$355, DW_AT_name("SDIOCTL")
    3946                      .dwattr $C$DW$355, DW_AT_TI_symbol_name("_SDIOCTL")
    3947                      .dwattr $C$DW$355, DW_AT_data_member_location[DW_OP_plus_uconst 0x64]
    3948                      .dwattr $C$DW$355, DW_AT_accessibility(DW_ACCESS_public)
    3949              $C$DW$356       .dwtag  DW_TAG_member
TMS320C55x Assembler PC v4.4.1 Fri Sep 14 23:31:58 2018

Tools Copyright (c) 1996-2012 Texas Instruments Incorporated
csl_mmcsd_ataIf.asm                                                  PAGE   86

    3950                      .dwattr $C$DW$356, DW_AT_type(*$C$DW$T$21)
    3951                      .dwattr $C$DW$356, DW_AT_name("RSVD20")
    3952                      .dwattr $C$DW$356, DW_AT_TI_symbol_name("_RSVD20")
    3953                      .dwattr $C$DW$356, DW_AT_data_member_location[DW_OP_plus_uconst 0x65]
    3954                      .dwattr $C$DW$356, DW_AT_accessibility(DW_ACCESS_public)
    3955              $C$DW$357       .dwtag  DW_TAG_member
    3956                      .dwattr $C$DW$357, DW_AT_type(*$C$DW$T$20)
    3957                      .dwattr $C$DW$357, DW_AT_name("SDIOST0")
    3958                      .dwattr $C$DW$357, DW_AT_TI_symbol_name("_SDIOST0")
    3959                      .dwattr $C$DW$357, DW_AT_data_member_location[DW_OP_plus_uconst 0x68]
    3960                      .dwattr $C$DW$357, DW_AT_accessibility(DW_ACCESS_public)
    3961              $C$DW$358       .dwtag  DW_TAG_member
    3962                      .dwattr $C$DW$358, DW_AT_type(*$C$DW$T$21)
    3963                      .dwattr $C$DW$358, DW_AT_name("RSVD21")
    3964                      .dwattr $C$DW$358, DW_AT_TI_symbol_name("_RSVD21")
    3965                      .dwattr $C$DW$358, DW_AT_data_member_location[DW_OP_plus_uconst 0x69]
    3966                      .dwattr $C$DW$358, DW_AT_accessibility(DW_ACCESS_public)
    3967              $C$DW$359       .dwtag  DW_TAG_member
    3968                      .dwattr $C$DW$359, DW_AT_type(*$C$DW$T$20)
    3969                      .dwattr $C$DW$359, DW_AT_name("SDIOIEN")
    3970                      .dwattr $C$DW$359, DW_AT_TI_symbol_name("_SDIOIEN")
    3971                      .dwattr $C$DW$359, DW_AT_data_member_location[DW_OP_plus_uconst 0x6c]
    3972                      .dwattr $C$DW$359, DW_AT_accessibility(DW_ACCESS_public)
    3973              $C$DW$360       .dwtag  DW_TAG_member
    3974                      .dwattr $C$DW$360, DW_AT_type(*$C$DW$T$21)
    3975                      .dwattr $C$DW$360, DW_AT_name("RSVD22")
    3976                      .dwattr $C$DW$360, DW_AT_TI_symbol_name("_RSVD22")
    3977                      .dwattr $C$DW$360, DW_AT_data_member_location[DW_OP_plus_uconst 0x6d]
    3978                      .dwattr $C$DW$360, DW_AT_accessibility(DW_ACCESS_public)
    3979              $C$DW$361       .dwtag  DW_TAG_member
    3980                      .dwattr $C$DW$361, DW_AT_type(*$C$DW$T$20)
    3981                      .dwattr $C$DW$361, DW_AT_name("SDIOIST")
    3982                      .dwattr $C$DW$361, DW_AT_TI_symbol_name("_SDIOIST")
    3983                      .dwattr $C$DW$361, DW_AT_data_member_location[DW_OP_plus_uconst 0x70]
    3984                      .dwattr $C$DW$361, DW_AT_accessibility(DW_ACCESS_public)
    3985              $C$DW$362       .dwtag  DW_TAG_member
    3986                      .dwattr $C$DW$362, DW_AT_type(*$C$DW$T$21)
    3987                      .dwattr $C$DW$362, DW_AT_name("RSVD23")
    3988                      .dwattr $C$DW$362, DW_AT_TI_symbol_name("_RSVD23")
    3989                      .dwattr $C$DW$362, DW_AT_data_member_location[DW_OP_plus_uconst 0x71]
    3990                      .dwattr $C$DW$362, DW_AT_accessibility(DW_ACCESS_public)
    3991              $C$DW$363       .dwtag  DW_TAG_member
    3992                      .dwattr $C$DW$363, DW_AT_type(*$C$DW$T$20)
    3993                      .dwattr $C$DW$363, DW_AT_name("MMCFIFOCTL")
    3994                      .dwattr $C$DW$363, DW_AT_TI_symbol_name("_MMCFIFOCTL")
    3995                      .dwattr $C$DW$363, DW_AT_data_member_location[DW_OP_plus_uconst 0x74]
    3996                      .dwattr $C$DW$363, DW_AT_accessibility(DW_ACCESS_public)
    3997                      .dwendtag $C$DW$T$25
    3998              
    3999              $C$DW$T$77      .dwtag  DW_TAG_typedef, DW_AT_name("CSL_MmcsdRegs")
    4000                      .dwattr $C$DW$T$77, DW_AT_type(*$C$DW$T$25)
    4001                      .dwattr $C$DW$T$77, DW_AT_language(DW_LANG_C)
    4002              $C$DW$364       .dwtag  DW_TAG_TI_far_type
    4003                      .dwattr $C$DW$364, DW_AT_type(*$C$DW$T$77)
    4004              $C$DW$365       .dwtag  DW_TAG_TI_ioport_type
TMS320C55x Assembler PC v4.4.1 Fri Sep 14 23:31:58 2018

Tools Copyright (c) 1996-2012 Texas Instruments Incorporated
csl_mmcsd_ataIf.asm                                                  PAGE   87

    4005                      .dwattr $C$DW$365, DW_AT_type(*$C$DW$364)
    4006              $C$DW$T$78      .dwtag  DW_TAG_volatile_type
    4007                      .dwattr $C$DW$T$78, DW_AT_type(*$C$DW$365)
    4008              $C$DW$T$79      .dwtag  DW_TAG_pointer_type
    4009                      .dwattr $C$DW$T$79, DW_AT_type(*$C$DW$T$78)
    4010                      .dwattr $C$DW$T$79, DW_AT_address_class(0x10)
    4011              $C$DW$T$80      .dwtag  DW_TAG_typedef, DW_AT_name("CSL_MmcsdRegsOvly")
    4012                      .dwattr $C$DW$T$80, DW_AT_type(*$C$DW$T$79)
    4013                      .dwattr $C$DW$T$80, DW_AT_language(DW_LANG_C)
    4014              
    4015              $C$DW$T$29      .dwtag  DW_TAG_structure_type
    4016                      .dwattr $C$DW$T$29, DW_AT_byte_size(0x10)
    4017              $C$DW$366       .dwtag  DW_TAG_member
    4018                      .dwattr $C$DW$366, DW_AT_type(*$C$DW$T$19)
    4019                      .dwattr $C$DW$366, DW_AT_name("mfgId")
    4020                      .dwattr $C$DW$366, DW_AT_TI_symbol_name("_mfgId")
    4021                      .dwattr $C$DW$366, DW_AT_data_member_location[DW_OP_plus_uconst 0x0]
    4022                      .dwattr $C$DW$366, DW_AT_accessibility(DW_ACCESS_public)
    4023              $C$DW$367       .dwtag  DW_TAG_member
    4024                      .dwattr $C$DW$367, DW_AT_type(*$C$DW$T$19)
    4025                      .dwattr $C$DW$367, DW_AT_name("oemAppId")
    4026                      .dwattr $C$DW$367, DW_AT_TI_symbol_name("_oemAppId")
    4027                      .dwattr $C$DW$367, DW_AT_data_member_location[DW_OP_plus_uconst 0x1]
    4028                      .dwattr $C$DW$367, DW_AT_accessibility(DW_ACCESS_public)
    4029              $C$DW$368       .dwtag  DW_TAG_member
    4030                      .dwattr $C$DW$368, DW_AT_type(*$C$DW$T$27)
    4031                      .dwattr $C$DW$368, DW_AT_name("productName")
    4032                      .dwattr $C$DW$368, DW_AT_TI_symbol_name("_productName")
    4033                      .dwattr $C$DW$368, DW_AT_data_member_location[DW_OP_plus_uconst 0x2]
    4034                      .dwattr $C$DW$368, DW_AT_accessibility(DW_ACCESS_public)
    4035              $C$DW$369       .dwtag  DW_TAG_member
    4036                      .dwattr $C$DW$369, DW_AT_type(*$C$DW$T$19)
    4037                      .dwattr $C$DW$369, DW_AT_name("productRev")
    4038                      .dwattr $C$DW$369, DW_AT_TI_symbol_name("_productRev")
    4039                      .dwattr $C$DW$369, DW_AT_data_member_location[DW_OP_plus_uconst 0x8]
    4040                      .dwattr $C$DW$369, DW_AT_accessibility(DW_ACCESS_public)
    4041              $C$DW$370       .dwtag  DW_TAG_member
    4042                      .dwattr $C$DW$370, DW_AT_type(*$C$DW$T$28)
    4043                      .dwattr $C$DW$370, DW_AT_name("serialNumber")
    4044                      .dwattr $C$DW$370, DW_AT_TI_symbol_name("_serialNumber")
    4045                      .dwattr $C$DW$370, DW_AT_data_member_location[DW_OP_plus_uconst 0xa]
    4046                      .dwattr $C$DW$370, DW_AT_accessibility(DW_ACCESS_public)
    4047              $C$DW$371       .dwtag  DW_TAG_member
    4048                      .dwattr $C$DW$371, DW_AT_type(*$C$DW$T$19)
    4049                      .dwattr $C$DW$371, DW_AT_name("month")
    4050                      .dwattr $C$DW$371, DW_AT_TI_symbol_name("_month")
    4051                      .dwattr $C$DW$371, DW_AT_data_member_location[DW_OP_plus_uconst 0xc]
    4052                      .dwattr $C$DW$371, DW_AT_accessibility(DW_ACCESS_public)
    4053              $C$DW$372       .dwtag  DW_TAG_member
    4054                      .dwattr $C$DW$372, DW_AT_type(*$C$DW$T$19)
    4055                      .dwattr $C$DW$372, DW_AT_name("year")
    4056                      .dwattr $C$DW$372, DW_AT_TI_symbol_name("_year")
    4057                      .dwattr $C$DW$372, DW_AT_data_member_location[DW_OP_plus_uconst 0xd]
    4058                      .dwattr $C$DW$372, DW_AT_accessibility(DW_ACCESS_public)
    4059              $C$DW$373       .dwtag  DW_TAG_member
TMS320C55x Assembler PC v4.4.1 Fri Sep 14 23:31:58 2018

Tools Copyright (c) 1996-2012 Texas Instruments Incorporated
csl_mmcsd_ataIf.asm                                                  PAGE   88

    4060                      .dwattr $C$DW$373, DW_AT_type(*$C$DW$T$19)
    4061                      .dwattr $C$DW$373, DW_AT_name("checksum")
    4062                      .dwattr $C$DW$373, DW_AT_TI_symbol_name("_checksum")
    4063                      .dwattr $C$DW$373, DW_AT_data_member_location[DW_OP_plus_uconst 0xe]
    4064                      .dwattr $C$DW$373, DW_AT_accessibility(DW_ACCESS_public)
    4065                      .dwendtag $C$DW$T$29
    4066              
    4067              $C$DW$T$34      .dwtag  DW_TAG_typedef, DW_AT_name("CSL_MMCCardIdObj")
    4068                      .dwattr $C$DW$T$34, DW_AT_type(*$C$DW$T$29)
    4069                      .dwattr $C$DW$T$34, DW_AT_language(DW_LANG_C)
    4070              $C$DW$T$35      .dwtag  DW_TAG_pointer_type
    4071                      .dwattr $C$DW$T$35, DW_AT_type(*$C$DW$T$34)
    4072                      .dwattr $C$DW$T$35, DW_AT_address_class(0x17)
    4073              
    4074              $C$DW$T$30      .dwtag  DW_TAG_structure_type
    4075                      .dwattr $C$DW$T$30, DW_AT_byte_size(0x22)
    4076              $C$DW$374       .dwtag  DW_TAG_member
    4077                      .dwattr $C$DW$374, DW_AT_type(*$C$DW$T$19)
    4078                      .dwattr $C$DW$374, DW_AT_name("csdStruct")
    4079                      .dwattr $C$DW$374, DW_AT_TI_symbol_name("_csdStruct")
    4080                      .dwattr $C$DW$374, DW_AT_data_member_location[DW_OP_plus_uconst 0x0]
    4081                      .dwattr $C$DW$374, DW_AT_accessibility(DW_ACCESS_public)
    4082              $C$DW$375       .dwtag  DW_TAG_member
    4083                      .dwattr $C$DW$375, DW_AT_type(*$C$DW$T$19)
    4084                      .dwattr $C$DW$375, DW_AT_name("mmcProt")
    4085                      .dwattr $C$DW$375, DW_AT_TI_symbol_name("_mmcProt")
    4086                      .dwattr $C$DW$375, DW_AT_data_member_location[DW_OP_plus_uconst 0x1]
    4087                      .dwattr $C$DW$375, DW_AT_accessibility(DW_ACCESS_public)
    4088              $C$DW$376       .dwtag  DW_TAG_member
    4089                      .dwattr $C$DW$376, DW_AT_type(*$C$DW$T$19)
    4090                      .dwattr $C$DW$376, DW_AT_name("taac")
    4091                      .dwattr $C$DW$376, DW_AT_TI_symbol_name("_taac")
    4092                      .dwattr $C$DW$376, DW_AT_data_member_location[DW_OP_plus_uconst 0x2]
    4093                      .dwattr $C$DW$376, DW_AT_accessibility(DW_ACCESS_public)
    4094              $C$DW$377       .dwtag  DW_TAG_member
    4095                      .dwattr $C$DW$377, DW_AT_type(*$C$DW$T$19)
    4096                      .dwattr $C$DW$377, DW_AT_name("nsac")
    4097                      .dwattr $C$DW$377, DW_AT_TI_symbol_name("_nsac")
    4098                      .dwattr $C$DW$377, DW_AT_data_member_location[DW_OP_plus_uconst 0x3]
    4099                      .dwattr $C$DW$377, DW_AT_accessibility(DW_ACCESS_public)
    4100              $C$DW$378       .dwtag  DW_TAG_member
    4101                      .dwattr $C$DW$378, DW_AT_type(*$C$DW$T$19)
    4102                      .dwattr $C$DW$378, DW_AT_name("tranSpeed")
    4103                      .dwattr $C$DW$378, DW_AT_TI_symbol_name("_tranSpeed")
    4104                      .dwattr $C$DW$378, DW_AT_data_member_location[DW_OP_plus_uconst 0x4]
    4105                      .dwattr $C$DW$378, DW_AT_accessibility(DW_ACCESS_public)
    4106              $C$DW$379       .dwtag  DW_TAG_member
    4107                      .dwattr $C$DW$379, DW_AT_type(*$C$DW$T$19)
    4108                      .dwattr $C$DW$379, DW_AT_name("ccc")
    4109                      .dwattr $C$DW$379, DW_AT_TI_symbol_name("_ccc")
    4110                      .dwattr $C$DW$379, DW_AT_data_member_location[DW_OP_plus_uconst 0x5]
    4111                      .dwattr $C$DW$379, DW_AT_accessibility(DW_ACCESS_public)
    4112              $C$DW$380       .dwtag  DW_TAG_member
    4113                      .dwattr $C$DW$380, DW_AT_type(*$C$DW$T$19)
    4114                      .dwattr $C$DW$380, DW_AT_name("readBlLen")
TMS320C55x Assembler PC v4.4.1 Fri Sep 14 23:31:58 2018

Tools Copyright (c) 1996-2012 Texas Instruments Incorporated
csl_mmcsd_ataIf.asm                                                  PAGE   89

    4115                      .dwattr $C$DW$380, DW_AT_TI_symbol_name("_readBlLen")
    4116                      .dwattr $C$DW$380, DW_AT_data_member_location[DW_OP_plus_uconst 0x6]
    4117                      .dwattr $C$DW$380, DW_AT_accessibility(DW_ACCESS_public)
    4118              $C$DW$381       .dwtag  DW_TAG_member
    4119                      .dwattr $C$DW$381, DW_AT_type(*$C$DW$T$19)
    4120                      .dwattr $C$DW$381, DW_AT_name("readBlPartial")
    4121                      .dwattr $C$DW$381, DW_AT_TI_symbol_name("_readBlPartial")
    4122                      .dwattr $C$DW$381, DW_AT_data_member_location[DW_OP_plus_uconst 0x7]
    4123                      .dwattr $C$DW$381, DW_AT_accessibility(DW_ACCESS_public)
    4124              $C$DW$382       .dwtag  DW_TAG_member
    4125                      .dwattr $C$DW$382, DW_AT_type(*$C$DW$T$19)
    4126                      .dwattr $C$DW$382, DW_AT_name("writeBlkMisalign")
    4127                      .dwattr $C$DW$382, DW_AT_TI_symbol_name("_writeBlkMisalign")
    4128                      .dwattr $C$DW$382, DW_AT_data_member_location[DW_OP_plus_uconst 0x8]
    4129                      .dwattr $C$DW$382, DW_AT_accessibility(DW_ACCESS_public)
    4130              $C$DW$383       .dwtag  DW_TAG_member
    4131                      .dwattr $C$DW$383, DW_AT_type(*$C$DW$T$19)
    4132                      .dwattr $C$DW$383, DW_AT_name("readBlkMisalign")
    4133                      .dwattr $C$DW$383, DW_AT_TI_symbol_name("_readBlkMisalign")
    4134                      .dwattr $C$DW$383, DW_AT_data_member_location[DW_OP_plus_uconst 0x9]
    4135                      .dwattr $C$DW$383, DW_AT_accessibility(DW_ACCESS_public)
    4136              $C$DW$384       .dwtag  DW_TAG_member
    4137                      .dwattr $C$DW$384, DW_AT_type(*$C$DW$T$19)
    4138                      .dwattr $C$DW$384, DW_AT_name("dsrImp")
    4139                      .dwattr $C$DW$384, DW_AT_TI_symbol_name("_dsrImp")
    4140                      .dwattr $C$DW$384, DW_AT_data_member_location[DW_OP_plus_uconst 0xa]
    4141                      .dwattr $C$DW$384, DW_AT_accessibility(DW_ACCESS_public)
    4142              $C$DW$385       .dwtag  DW_TAG_member
    4143                      .dwattr $C$DW$385, DW_AT_type(*$C$DW$T$19)
    4144                      .dwattr $C$DW$385, DW_AT_name("cSize")
    4145                      .dwattr $C$DW$385, DW_AT_TI_symbol_name("_cSize")
    4146                      .dwattr $C$DW$385, DW_AT_data_member_location[DW_OP_plus_uconst 0xb]
    4147                      .dwattr $C$DW$385, DW_AT_accessibility(DW_ACCESS_public)
    4148              $C$DW$386       .dwtag  DW_TAG_member
    4149                      .dwattr $C$DW$386, DW_AT_type(*$C$DW$T$19)
    4150                      .dwattr $C$DW$386, DW_AT_name("vddRCurrMin")
    4151                      .dwattr $C$DW$386, DW_AT_TI_symbol_name("_vddRCurrMin")
    4152                      .dwattr $C$DW$386, DW_AT_data_member_location[DW_OP_plus_uconst 0xc]
    4153                      .dwattr $C$DW$386, DW_AT_accessibility(DW_ACCESS_public)
    4154              $C$DW$387       .dwtag  DW_TAG_member
    4155                      .dwattr $C$DW$387, DW_AT_type(*$C$DW$T$19)
    4156                      .dwattr $C$DW$387, DW_AT_name("vddRCurrMax")
    4157                      .dwattr $C$DW$387, DW_AT_TI_symbol_name("_vddRCurrMax")
    4158                      .dwattr $C$DW$387, DW_AT_data_member_location[DW_OP_plus_uconst 0xd]
    4159                      .dwattr $C$DW$387, DW_AT_accessibility(DW_ACCESS_public)
    4160              $C$DW$388       .dwtag  DW_TAG_member
    4161                      .dwattr $C$DW$388, DW_AT_type(*$C$DW$T$19)
    4162                      .dwattr $C$DW$388, DW_AT_name("vddWCurrMin")
    4163                      .dwattr $C$DW$388, DW_AT_TI_symbol_name("_vddWCurrMin")
    4164                      .dwattr $C$DW$388, DW_AT_data_member_location[DW_OP_plus_uconst 0xe]
    4165                      .dwattr $C$DW$388, DW_AT_accessibility(DW_ACCESS_public)
    4166              $C$DW$389       .dwtag  DW_TAG_member
    4167                      .dwattr $C$DW$389, DW_AT_type(*$C$DW$T$19)
    4168                      .dwattr $C$DW$389, DW_AT_name("vddWCurrMax")
    4169                      .dwattr $C$DW$389, DW_AT_TI_symbol_name("_vddWCurrMax")
TMS320C55x Assembler PC v4.4.1 Fri Sep 14 23:31:58 2018

Tools Copyright (c) 1996-2012 Texas Instruments Incorporated
csl_mmcsd_ataIf.asm                                                  PAGE   90

    4170                      .dwattr $C$DW$389, DW_AT_data_member_location[DW_OP_plus_uconst 0xf]
    4171                      .dwattr $C$DW$389, DW_AT_accessibility(DW_ACCESS_public)
    4172              $C$DW$390       .dwtag  DW_TAG_member
    4173                      .dwattr $C$DW$390, DW_AT_type(*$C$DW$T$19)
    4174                      .dwattr $C$DW$390, DW_AT_name("cSizeMult")
    4175                      .dwattr $C$DW$390, DW_AT_TI_symbol_name("_cSizeMult")
    4176                      .dwattr $C$DW$390, DW_AT_data_member_location[DW_OP_plus_uconst 0x10]
    4177                      .dwattr $C$DW$390, DW_AT_accessibility(DW_ACCESS_public)
    4178              $C$DW$391       .dwtag  DW_TAG_member
    4179                      .dwattr $C$DW$391, DW_AT_type(*$C$DW$T$19)
    4180                      .dwattr $C$DW$391, DW_AT_name("eraseBlkEnable")
    4181                      .dwattr $C$DW$391, DW_AT_TI_symbol_name("_eraseBlkEnable")
    4182                      .dwattr $C$DW$391, DW_AT_data_member_location[DW_OP_plus_uconst 0x11]
    4183                      .dwattr $C$DW$391, DW_AT_accessibility(DW_ACCESS_public)
    4184              $C$DW$392       .dwtag  DW_TAG_member
    4185                      .dwattr $C$DW$392, DW_AT_type(*$C$DW$T$19)
    4186                      .dwattr $C$DW$392, DW_AT_name("eraseGrpSize")
    4187                      .dwattr $C$DW$392, DW_AT_TI_symbol_name("_eraseGrpSize")
    4188                      .dwattr $C$DW$392, DW_AT_data_member_location[DW_OP_plus_uconst 0x12]
    4189                      .dwattr $C$DW$392, DW_AT_accessibility(DW_ACCESS_public)
    4190              $C$DW$393       .dwtag  DW_TAG_member
    4191                      .dwattr $C$DW$393, DW_AT_type(*$C$DW$T$19)
    4192                      .dwattr $C$DW$393, DW_AT_name("eraseGrpMult")
    4193                      .dwattr $C$DW$393, DW_AT_TI_symbol_name("_eraseGrpMult")
    4194                      .dwattr $C$DW$393, DW_AT_data_member_location[DW_OP_plus_uconst 0x13]
    4195                      .dwattr $C$DW$393, DW_AT_accessibility(DW_ACCESS_public)
    4196              $C$DW$394       .dwtag  DW_TAG_member
    4197                      .dwattr $C$DW$394, DW_AT_type(*$C$DW$T$19)
    4198                      .dwattr $C$DW$394, DW_AT_name("wpGrpSize")
    4199                      .dwattr $C$DW$394, DW_AT_TI_symbol_name("_wpGrpSize")
    4200                      .dwattr $C$DW$394, DW_AT_data_member_location[DW_OP_plus_uconst 0x14]
    4201                      .dwattr $C$DW$394, DW_AT_accessibility(DW_ACCESS_public)
    4202              $C$DW$395       .dwtag  DW_TAG_member
    4203                      .dwattr $C$DW$395, DW_AT_type(*$C$DW$T$19)
    4204                      .dwattr $C$DW$395, DW_AT_name("wpGrpEnable")
    4205                      .dwattr $C$DW$395, DW_AT_TI_symbol_name("_wpGrpEnable")
    4206                      .dwattr $C$DW$395, DW_AT_data_member_location[DW_OP_plus_uconst 0x15]
    4207                      .dwattr $C$DW$395, DW_AT_accessibility(DW_ACCESS_public)
    4208              $C$DW$396       .dwtag  DW_TAG_member
    4209                      .dwattr $C$DW$396, DW_AT_type(*$C$DW$T$19)
    4210                      .dwattr $C$DW$396, DW_AT_name("defaultEcc")
    4211                      .dwattr $C$DW$396, DW_AT_TI_symbol_name("_defaultEcc")
    4212                      .dwattr $C$DW$396, DW_AT_data_member_location[DW_OP_plus_uconst 0x16]
    4213                      .dwattr $C$DW$396, DW_AT_accessibility(DW_ACCESS_public)
    4214              $C$DW$397       .dwtag  DW_TAG_member
    4215                      .dwattr $C$DW$397, DW_AT_type(*$C$DW$T$19)
    4216                      .dwattr $C$DW$397, DW_AT_name("r2wFactor")
    4217                      .dwattr $C$DW$397, DW_AT_TI_symbol_name("_r2wFactor")
    4218                      .dwattr $C$DW$397, DW_AT_data_member_location[DW_OP_plus_uconst 0x17]
    4219                      .dwattr $C$DW$397, DW_AT_accessibility(DW_ACCESS_public)
    4220              $C$DW$398       .dwtag  DW_TAG_member
    4221                      .dwattr $C$DW$398, DW_AT_type(*$C$DW$T$19)
    4222                      .dwattr $C$DW$398, DW_AT_name("writeBlLen")
    4223                      .dwattr $C$DW$398, DW_AT_TI_symbol_name("_writeBlLen")
    4224                      .dwattr $C$DW$398, DW_AT_data_member_location[DW_OP_plus_uconst 0x18]
TMS320C55x Assembler PC v4.4.1 Fri Sep 14 23:31:58 2018

Tools Copyright (c) 1996-2012 Texas Instruments Incorporated
csl_mmcsd_ataIf.asm                                                  PAGE   91

    4225                      .dwattr $C$DW$398, DW_AT_accessibility(DW_ACCESS_public)
    4226              $C$DW$399       .dwtag  DW_TAG_member
    4227                      .dwattr $C$DW$399, DW_AT_type(*$C$DW$T$19)
    4228                      .dwattr $C$DW$399, DW_AT_name("writeBlPartial")
    4229                      .dwattr $C$DW$399, DW_AT_TI_symbol_name("_writeBlPartial")
    4230                      .dwattr $C$DW$399, DW_AT_data_member_location[DW_OP_plus_uconst 0x19]
    4231                      .dwattr $C$DW$399, DW_AT_accessibility(DW_ACCESS_public)
    4232              $C$DW$400       .dwtag  DW_TAG_member
    4233                      .dwattr $C$DW$400, DW_AT_type(*$C$DW$T$19)
    4234                      .dwattr $C$DW$400, DW_AT_name("contProtApp")
    4235                      .dwattr $C$DW$400, DW_AT_TI_symbol_name("_contProtApp")
    4236                      .dwattr $C$DW$400, DW_AT_data_member_location[DW_OP_plus_uconst 0x1a]
    4237                      .dwattr $C$DW$400, DW_AT_accessibility(DW_ACCESS_public)
    4238              $C$DW$401       .dwtag  DW_TAG_member
    4239                      .dwattr $C$DW$401, DW_AT_type(*$C$DW$T$19)
    4240                      .dwattr $C$DW$401, DW_AT_name("fileFmtGrp")
    4241                      .dwattr $C$DW$401, DW_AT_TI_symbol_name("_fileFmtGrp")
    4242                      .dwattr $C$DW$401, DW_AT_data_member_location[DW_OP_plus_uconst 0x1b]
    4243                      .dwattr $C$DW$401, DW_AT_accessibility(DW_ACCESS_public)
    4244              $C$DW$402       .dwtag  DW_TAG_member
    4245                      .dwattr $C$DW$402, DW_AT_type(*$C$DW$T$19)
    4246                      .dwattr $C$DW$402, DW_AT_name("copyFlag")
    4247                      .dwattr $C$DW$402, DW_AT_TI_symbol_name("_copyFlag")
    4248                      .dwattr $C$DW$402, DW_AT_data_member_location[DW_OP_plus_uconst 0x1c]
    4249                      .dwattr $C$DW$402, DW_AT_accessibility(DW_ACCESS_public)
    4250              $C$DW$403       .dwtag  DW_TAG_member
    4251                      .dwattr $C$DW$403, DW_AT_type(*$C$DW$T$19)
    4252                      .dwattr $C$DW$403, DW_AT_name("permWriteProtect")
    4253                      .dwattr $C$DW$403, DW_AT_TI_symbol_name("_permWriteProtect")
    4254                      .dwattr $C$DW$403, DW_AT_data_member_location[DW_OP_plus_uconst 0x1d]
    4255                      .dwattr $C$DW$403, DW_AT_accessibility(DW_ACCESS_public)
    4256              $C$DW$404       .dwtag  DW_TAG_member
    4257                      .dwattr $C$DW$404, DW_AT_type(*$C$DW$T$19)
    4258                      .dwattr $C$DW$404, DW_AT_name("tmpWriteProtect")
    4259                      .dwattr $C$DW$404, DW_AT_TI_symbol_name("_tmpWriteProtect")
    4260                      .dwattr $C$DW$404, DW_AT_data_member_location[DW_OP_plus_uconst 0x1e]
    4261                      .dwattr $C$DW$404, DW_AT_accessibility(DW_ACCESS_public)
    4262              $C$DW$405       .dwtag  DW_TAG_member
    4263                      .dwattr $C$DW$405, DW_AT_type(*$C$DW$T$19)
    4264                      .dwattr $C$DW$405, DW_AT_name("fileFmt")
    4265                      .dwattr $C$DW$405, DW_AT_TI_symbol_name("_fileFmt")
    4266                      .dwattr $C$DW$405, DW_AT_data_member_location[DW_OP_plus_uconst 0x1f]
    4267                      .dwattr $C$DW$405, DW_AT_accessibility(DW_ACCESS_public)
    4268              $C$DW$406       .dwtag  DW_TAG_member
    4269                      .dwattr $C$DW$406, DW_AT_type(*$C$DW$T$19)
    4270                      .dwattr $C$DW$406, DW_AT_name("ecc")
    4271                      .dwattr $C$DW$406, DW_AT_TI_symbol_name("_ecc")
    4272                      .dwattr $C$DW$406, DW_AT_data_member_location[DW_OP_plus_uconst 0x20]
    4273                      .dwattr $C$DW$406, DW_AT_accessibility(DW_ACCESS_public)
    4274              $C$DW$407       .dwtag  DW_TAG_member
    4275                      .dwattr $C$DW$407, DW_AT_type(*$C$DW$T$19)
    4276                      .dwattr $C$DW$407, DW_AT_name("crc")
    4277                      .dwattr $C$DW$407, DW_AT_TI_symbol_name("_crc")
    4278                      .dwattr $C$DW$407, DW_AT_data_member_location[DW_OP_plus_uconst 0x21]
    4279                      .dwattr $C$DW$407, DW_AT_accessibility(DW_ACCESS_public)
TMS320C55x Assembler PC v4.4.1 Fri Sep 14 23:31:58 2018

Tools Copyright (c) 1996-2012 Texas Instruments Incorporated
csl_mmcsd_ataIf.asm                                                  PAGE   92

    4280                      .dwendtag $C$DW$T$30
    4281              
    4282              $C$DW$T$36      .dwtag  DW_TAG_typedef, DW_AT_name("CSL_MMCCardCsdObj")
    4283                      .dwattr $C$DW$T$36, DW_AT_type(*$C$DW$T$30)
    4284                      .dwattr $C$DW$T$36, DW_AT_language(DW_LANG_C)
    4285              $C$DW$T$37      .dwtag  DW_TAG_pointer_type
    4286                      .dwattr $C$DW$T$37, DW_AT_type(*$C$DW$T$36)
    4287                      .dwattr $C$DW$T$37, DW_AT_address_class(0x17)
    4288              
    4289              $C$DW$T$31      .dwtag  DW_TAG_structure_type
    4290                      .dwattr $C$DW$T$31, DW_AT_byte_size(0x06)
    4291              $C$DW$408       .dwtag  DW_TAG_member
    4292                      .dwattr $C$DW$408, DW_AT_type(*$C$DW$T$19)
    4293                      .dwattr $C$DW$408, DW_AT_name("securitySysId")
    4294                      .dwattr $C$DW$408, DW_AT_TI_symbol_name("_securitySysId")
    4295                      .dwattr $C$DW$408, DW_AT_data_member_location[DW_OP_plus_uconst 0x0]
    4296                      .dwattr $C$DW$408, DW_AT_accessibility(DW_ACCESS_public)
    4297              $C$DW$409       .dwtag  DW_TAG_member
    4298                      .dwattr $C$DW$409, DW_AT_type(*$C$DW$T$19)
    4299                      .dwattr $C$DW$409, DW_AT_name("securitySysVers")
    4300                      .dwattr $C$DW$409, DW_AT_TI_symbol_name("_securitySysVers")
    4301                      .dwattr $C$DW$409, DW_AT_data_member_location[DW_OP_plus_uconst 0x1]
    4302                      .dwattr $C$DW$409, DW_AT_accessibility(DW_ACCESS_public)
    4303              $C$DW$410       .dwtag  DW_TAG_member
    4304                      .dwattr $C$DW$410, DW_AT_type(*$C$DW$T$19)
    4305                      .dwattr $C$DW$410, DW_AT_name("maxLicenses")
    4306                      .dwattr $C$DW$410, DW_AT_TI_symbol_name("_maxLicenses")
    4307                      .dwattr $C$DW$410, DW_AT_data_member_location[DW_OP_plus_uconst 0x2]
    4308                      .dwattr $C$DW$410, DW_AT_accessibility(DW_ACCESS_public)
    4309              $C$DW$411       .dwtag  DW_TAG_member
    4310                      .dwattr $C$DW$411, DW_AT_type(*$C$DW$T$28)
    4311                      .dwattr $C$DW$411, DW_AT_name("xStatus")
    4312                      .dwattr $C$DW$411, DW_AT_TI_symbol_name("_xStatus")
    4313                      .dwattr $C$DW$411, DW_AT_data_member_location[DW_OP_plus_uconst 0x4]
    4314                      .dwattr $C$DW$411, DW_AT_accessibility(DW_ACCESS_public)
    4315                      .dwendtag $C$DW$T$31
    4316              
    4317              $C$DW$T$38      .dwtag  DW_TAG_typedef, DW_AT_name("CSL_MMCCardXCsdObj")
    4318                      .dwattr $C$DW$T$38, DW_AT_type(*$C$DW$T$31)
    4319                      .dwattr $C$DW$T$38, DW_AT_language(DW_LANG_C)
    4320              $C$DW$T$39      .dwtag  DW_TAG_pointer_type
    4321                      .dwattr $C$DW$T$39, DW_AT_type(*$C$DW$T$38)
    4322                      .dwattr $C$DW$T$39, DW_AT_address_class(0x17)
    4323              
    4324              $C$DW$T$41      .dwtag  DW_TAG_structure_type
    4325                      .dwattr $C$DW$T$41, DW_AT_byte_size(0x1e)
    4326              $C$DW$412       .dwtag  DW_TAG_member
    4327                      .dwattr $C$DW$412, DW_AT_type(*$C$DW$T$19)
    4328                      .dwattr $C$DW$412, DW_AT_name("rca")
    4329                      .dwattr $C$DW$412, DW_AT_TI_symbol_name("_rca")
    4330                      .dwattr $C$DW$412, DW_AT_data_member_location[DW_OP_plus_uconst 0x0]
    4331                      .dwattr $C$DW$412, DW_AT_accessibility(DW_ACCESS_public)
    4332              $C$DW$413       .dwtag  DW_TAG_member
    4333                      .dwattr $C$DW$413, DW_AT_type(*$C$DW$T$19)
    4334                      .dwattr $C$DW$413, DW_AT_name("ST0")
TMS320C55x Assembler PC v4.4.1 Fri Sep 14 23:31:58 2018

Tools Copyright (c) 1996-2012 Texas Instruments Incorporated
csl_mmcsd_ataIf.asm                                                  PAGE   93

    4335                      .dwattr $C$DW$413, DW_AT_TI_symbol_name("_ST0")
    4336                      .dwattr $C$DW$413, DW_AT_data_member_location[DW_OP_plus_uconst 0x1]
    4337                      .dwattr $C$DW$413, DW_AT_accessibility(DW_ACCESS_public)
    4338              $C$DW$414       .dwtag  DW_TAG_member
    4339                      .dwattr $C$DW$414, DW_AT_type(*$C$DW$T$19)
    4340                      .dwattr $C$DW$414, DW_AT_name("ST1")
    4341                      .dwattr $C$DW$414, DW_AT_TI_symbol_name("_ST1")
    4342                      .dwattr $C$DW$414, DW_AT_data_member_location[DW_OP_plus_uconst 0x2]
    4343                      .dwattr $C$DW$414, DW_AT_accessibility(DW_ACCESS_public)
    4344              $C$DW$415       .dwtag  DW_TAG_member
    4345                      .dwattr $C$DW$415, DW_AT_type(*$C$DW$T$19)
    4346                      .dwattr $C$DW$415, DW_AT_name("cardIndex")
    4347                      .dwattr $C$DW$415, DW_AT_TI_symbol_name("_cardIndex")
    4348                      .dwattr $C$DW$415, DW_AT_data_member_location[DW_OP_plus_uconst 0x3]
    4349                      .dwattr $C$DW$415, DW_AT_accessibility(DW_ACCESS_public)
    4350              $C$DW$416       .dwtag  DW_TAG_member
    4351                      .dwattr $C$DW$416, DW_AT_type(*$C$DW$T$28)
    4352                      .dwattr $C$DW$416, DW_AT_name("maxXfrRate")
    4353                      .dwattr $C$DW$416, DW_AT_TI_symbol_name("_maxXfrRate")
    4354                      .dwattr $C$DW$416, DW_AT_data_member_location[DW_OP_plus_uconst 0x4]
    4355                      .dwattr $C$DW$416, DW_AT_accessibility(DW_ACCESS_public)
    4356              $C$DW$417       .dwtag  DW_TAG_member
    4357                      .dwattr $C$DW$417, DW_AT_type(*$C$DW$T$28)
    4358                      .dwattr $C$DW$417, DW_AT_name("readAccessTime")
    4359                      .dwattr $C$DW$417, DW_AT_TI_symbol_name("_readAccessTime")
    4360                      .dwattr $C$DW$417, DW_AT_data_member_location[DW_OP_plus_uconst 0x6]
    4361                      .dwattr $C$DW$417, DW_AT_accessibility(DW_ACCESS_public)
    4362              $C$DW$418       .dwtag  DW_TAG_member
    4363                      .dwattr $C$DW$418, DW_AT_type(*$C$DW$T$28)
    4364                      .dwattr $C$DW$418, DW_AT_name("cardCapacity")
    4365                      .dwattr $C$DW$418, DW_AT_TI_symbol_name("_cardCapacity")
    4366                      .dwattr $C$DW$418, DW_AT_data_member_location[DW_OP_plus_uconst 0x8]
    4367                      .dwattr $C$DW$418, DW_AT_accessibility(DW_ACCESS_public)
    4368              $C$DW$419       .dwtag  DW_TAG_member
    4369                      .dwattr $C$DW$419, DW_AT_type(*$C$DW$T$28)
    4370                      .dwattr $C$DW$419, DW_AT_name("blockLength")
    4371                      .dwattr $C$DW$419, DW_AT_TI_symbol_name("_blockLength")
    4372                      .dwattr $C$DW$419, DW_AT_data_member_location[DW_OP_plus_uconst 0xa]
    4373                      .dwattr $C$DW$419, DW_AT_accessibility(DW_ACCESS_public)
    4374              $C$DW$420       .dwtag  DW_TAG_member
    4375                      .dwattr $C$DW$420, DW_AT_type(*$C$DW$T$28)
    4376                      .dwattr $C$DW$420, DW_AT_name("totalSectors")
    4377                      .dwattr $C$DW$420, DW_AT_TI_symbol_name("_totalSectors")
    4378                      .dwattr $C$DW$420, DW_AT_data_member_location[DW_OP_plus_uconst 0xc]
    4379                      .dwattr $C$DW$420, DW_AT_accessibility(DW_ACCESS_public)
    4380              $C$DW$421       .dwtag  DW_TAG_member
    4381                      .dwattr $C$DW$421, DW_AT_type(*$C$DW$T$28)
    4382                      .dwattr $C$DW$421, DW_AT_name("lastAddrRead")
    4383                      .dwattr $C$DW$421, DW_AT_TI_symbol_name("_lastAddrRead")
    4384                      .dwattr $C$DW$421, DW_AT_data_member_location[DW_OP_plus_uconst 0xe]
    4385                      .dwattr $C$DW$421, DW_AT_accessibility(DW_ACCESS_public)
    4386              $C$DW$422       .dwtag  DW_TAG_member
    4387                      .dwattr $C$DW$422, DW_AT_type(*$C$DW$T$28)
    4388                      .dwattr $C$DW$422, DW_AT_name("lastAddrWritten")
    4389                      .dwattr $C$DW$422, DW_AT_TI_symbol_name("_lastAddrWritten")
TMS320C55x Assembler PC v4.4.1 Fri Sep 14 23:31:58 2018

Tools Copyright (c) 1996-2012 Texas Instruments Incorporated
csl_mmcsd_ataIf.asm                                                  PAGE   94

    4390                      .dwattr $C$DW$422, DW_AT_data_member_location[DW_OP_plus_uconst 0x10]
    4391                      .dwattr $C$DW$422, DW_AT_accessibility(DW_ACCESS_public)
    4392              $C$DW$423       .dwtag  DW_TAG_member
    4393                      .dwattr $C$DW$423, DW_AT_type(*$C$DW$T$33)
    4394                      .dwattr $C$DW$423, DW_AT_name("cardType")
    4395                      .dwattr $C$DW$423, DW_AT_TI_symbol_name("_cardType")
    4396                      .dwattr $C$DW$423, DW_AT_data_member_location[DW_OP_plus_uconst 0x12]
    4397                      .dwattr $C$DW$423, DW_AT_accessibility(DW_ACCESS_public)
    4398              $C$DW$424       .dwtag  DW_TAG_member
    4399                      .dwattr $C$DW$424, DW_AT_type(*$C$DW$T$35)
    4400                      .dwattr $C$DW$424, DW_AT_name("cid")
    4401                      .dwattr $C$DW$424, DW_AT_TI_symbol_name("_cid")
    4402                      .dwattr $C$DW$424, DW_AT_data_member_location[DW_OP_plus_uconst 0x14]
    4403                      .dwattr $C$DW$424, DW_AT_accessibility(DW_ACCESS_public)
    4404              $C$DW$425       .dwtag  DW_TAG_member
    4405                      .dwattr $C$DW$425, DW_AT_type(*$C$DW$T$37)
    4406                      .dwattr $C$DW$425, DW_AT_name("csd")
    4407                      .dwattr $C$DW$425, DW_AT_TI_symbol_name("_csd")
    4408                      .dwattr $C$DW$425, DW_AT_data_member_location[DW_OP_plus_uconst 0x16]
    4409                      .dwattr $C$DW$425, DW_AT_accessibility(DW_ACCESS_public)
    4410              $C$DW$426       .dwtag  DW_TAG_member
    4411                      .dwattr $C$DW$426, DW_AT_type(*$C$DW$T$39)
    4412                      .dwattr $C$DW$426, DW_AT_name("xcsd")
    4413                      .dwattr $C$DW$426, DW_AT_TI_symbol_name("_xcsd")
    4414                      .dwattr $C$DW$426, DW_AT_data_member_location[DW_OP_plus_uconst 0x18]
    4415                      .dwattr $C$DW$426, DW_AT_accessibility(DW_ACCESS_public)
    4416              $C$DW$427       .dwtag  DW_TAG_member
    4417                      .dwattr $C$DW$427, DW_AT_type(*$C$DW$T$40)
    4418                      .dwattr $C$DW$427, DW_AT_name("sdHcDetected")
    4419                      .dwattr $C$DW$427, DW_AT_TI_symbol_name("_sdHcDetected")
    4420                      .dwattr $C$DW$427, DW_AT_data_member_location[DW_OP_plus_uconst 0x1a]
    4421                      .dwattr $C$DW$427, DW_AT_accessibility(DW_ACCESS_public)
    4422              $C$DW$428       .dwtag  DW_TAG_member
    4423                      .dwattr $C$DW$428, DW_AT_type(*$C$DW$T$40)
    4424                      .dwattr $C$DW$428, DW_AT_name("cardAtaFsOpen")
    4425                      .dwattr $C$DW$428, DW_AT_TI_symbol_name("_cardAtaFsOpen")
    4426                      .dwattr $C$DW$428, DW_AT_data_member_location[DW_OP_plus_uconst 0x1b]
    4427                      .dwattr $C$DW$428, DW_AT_accessibility(DW_ACCESS_public)
    4428              $C$DW$429       .dwtag  DW_TAG_member
    4429                      .dwattr $C$DW$429, DW_AT_type(*$C$DW$T$19)
    4430                      .dwattr $C$DW$429, DW_AT_name("cardMscStatus")
    4431                      .dwattr $C$DW$429, DW_AT_TI_symbol_name("_cardMscStatus")
    4432                      .dwattr $C$DW$429, DW_AT_data_member_location[DW_OP_plus_uconst 0x1c]
    4433                      .dwattr $C$DW$429, DW_AT_accessibility(DW_ACCESS_public)
    4434                      .dwendtag $C$DW$T$41
    4435              
    4436              $C$DW$T$81      .dwtag  DW_TAG_typedef, DW_AT_name("CSL_MMCCardObj")
    4437                      .dwattr $C$DW$T$81, DW_AT_type(*$C$DW$T$41)
    4438                      .dwattr $C$DW$T$81, DW_AT_language(DW_LANG_C)
    4439              $C$DW$T$82      .dwtag  DW_TAG_pointer_type
    4440                      .dwattr $C$DW$T$82, DW_AT_type(*$C$DW$T$81)
    4441                      .dwattr $C$DW$T$82, DW_AT_address_class(0x17)
    4442              
    4443              $C$DW$T$46      .dwtag  DW_TAG_structure_type
    4444                      .dwattr $C$DW$T$46, DW_AT_byte_size(0x18)
TMS320C55x Assembler PC v4.4.1 Fri Sep 14 23:31:58 2018

Tools Copyright (c) 1996-2012 Texas Instruments Incorporated
csl_mmcsd_ataIf.asm                                                  PAGE   95

    4445              $C$DW$430       .dwtag  DW_TAG_member
    4446                      .dwattr $C$DW$430, DW_AT_type(*$C$DW$T$45)
    4447                      .dwattr $C$DW$430, DW_AT_name("isr")
    4448                      .dwattr $C$DW$430, DW_AT_TI_symbol_name("_isr")
    4449                      .dwattr $C$DW$430, DW_AT_data_member_location[DW_OP_plus_uconst 0x0]
    4450                      .dwattr $C$DW$430, DW_AT_accessibility(DW_ACCESS_public)
    4451                      .dwendtag $C$DW$T$46
    4452              
    4453              $C$DW$T$83      .dwtag  DW_TAG_typedef, DW_AT_name("CSL_MMCCallBackObj")
    4454                      .dwattr $C$DW$T$83, DW_AT_type(*$C$DW$T$46)
    4455                      .dwattr $C$DW$T$83, DW_AT_language(DW_LANG_C)
    4456              $C$DW$T$84      .dwtag  DW_TAG_pointer_type
    4457                      .dwattr $C$DW$T$84, DW_AT_type(*$C$DW$T$83)
    4458                      .dwattr $C$DW$T$84, DW_AT_address_class(0x17)
    4459              
    4460              $C$DW$T$48      .dwtag  DW_TAG_structure_type
    4461                      .dwattr $C$DW$T$48, DW_AT_byte_size(0x66)
    4462              $C$DW$431       .dwtag  DW_TAG_member
    4463                      .dwattr $C$DW$431, DW_AT_type(*$C$DW$T$20)
    4464                      .dwattr $C$DW$431, DW_AT_name("DMACH0SSAL")
    4465                      .dwattr $C$DW$431, DW_AT_TI_symbol_name("_DMACH0SSAL")
    4466                      .dwattr $C$DW$431, DW_AT_data_member_location[DW_OP_plus_uconst 0x0]
    4467                      .dwattr $C$DW$431, DW_AT_accessibility(DW_ACCESS_public)
    4468              $C$DW$432       .dwtag  DW_TAG_member
    4469                      .dwattr $C$DW$432, DW_AT_type(*$C$DW$T$20)
    4470                      .dwattr $C$DW$432, DW_AT_name("DMACH0SSAU")
    4471                      .dwattr $C$DW$432, DW_AT_TI_symbol_name("_DMACH0SSAU")
    4472                      .dwattr $C$DW$432, DW_AT_data_member_location[DW_OP_plus_uconst 0x1]
    4473                      .dwattr $C$DW$432, DW_AT_accessibility(DW_ACCESS_public)
    4474              $C$DW$433       .dwtag  DW_TAG_member
    4475                      .dwattr $C$DW$433, DW_AT_type(*$C$DW$T$20)
    4476                      .dwattr $C$DW$433, DW_AT_name("DMACH0DSAL")
    4477                      .dwattr $C$DW$433, DW_AT_TI_symbol_name("_DMACH0DSAL")
    4478                      .dwattr $C$DW$433, DW_AT_data_member_location[DW_OP_plus_uconst 0x2]
    4479                      .dwattr $C$DW$433, DW_AT_accessibility(DW_ACCESS_public)
    4480              $C$DW$434       .dwtag  DW_TAG_member
    4481                      .dwattr $C$DW$434, DW_AT_type(*$C$DW$T$20)
    4482                      .dwattr $C$DW$434, DW_AT_name("DMACH0DSAU")
    4483                      .dwattr $C$DW$434, DW_AT_TI_symbol_name("_DMACH0DSAU")
    4484                      .dwattr $C$DW$434, DW_AT_data_member_location[DW_OP_plus_uconst 0x3]
    4485                      .dwattr $C$DW$434, DW_AT_accessibility(DW_ACCESS_public)
    4486              $C$DW$435       .dwtag  DW_TAG_member
    4487                      .dwattr $C$DW$435, DW_AT_type(*$C$DW$T$20)
    4488                      .dwattr $C$DW$435, DW_AT_name("DMACH0TCR1")
    4489                      .dwattr $C$DW$435, DW_AT_TI_symbol_name("_DMACH0TCR1")
    4490                      .dwattr $C$DW$435, DW_AT_data_member_location[DW_OP_plus_uconst 0x4]
    4491                      .dwattr $C$DW$435, DW_AT_accessibility(DW_ACCESS_public)
    4492              $C$DW$436       .dwtag  DW_TAG_member
    4493                      .dwattr $C$DW$436, DW_AT_type(*$C$DW$T$20)
    4494                      .dwattr $C$DW$436, DW_AT_name("DMACH0TCR2")
    4495                      .dwattr $C$DW$436, DW_AT_TI_symbol_name("_DMACH0TCR2")
    4496                      .dwattr $C$DW$436, DW_AT_data_member_location[DW_OP_plus_uconst 0x5]
    4497                      .dwattr $C$DW$436, DW_AT_accessibility(DW_ACCESS_public)
    4498              $C$DW$437       .dwtag  DW_TAG_member
    4499                      .dwattr $C$DW$437, DW_AT_type(*$C$DW$T$47)
TMS320C55x Assembler PC v4.4.1 Fri Sep 14 23:31:58 2018

Tools Copyright (c) 1996-2012 Texas Instruments Incorporated
csl_mmcsd_ataIf.asm                                                  PAGE   96

    4500                      .dwattr $C$DW$437, DW_AT_name("RSVD0")
    4501                      .dwattr $C$DW$437, DW_AT_TI_symbol_name("_RSVD0")
    4502                      .dwattr $C$DW$437, DW_AT_data_member_location[DW_OP_plus_uconst 0x6]
    4503                      .dwattr $C$DW$437, DW_AT_accessibility(DW_ACCESS_public)
    4504              $C$DW$438       .dwtag  DW_TAG_member
    4505                      .dwattr $C$DW$438, DW_AT_type(*$C$DW$T$20)
    4506                      .dwattr $C$DW$438, DW_AT_name("DMACH1SSAL")
    4507                      .dwattr $C$DW$438, DW_AT_TI_symbol_name("_DMACH1SSAL")
    4508                      .dwattr $C$DW$438, DW_AT_data_member_location[DW_OP_plus_uconst 0x20]
    4509                      .dwattr $C$DW$438, DW_AT_accessibility(DW_ACCESS_public)
    4510              $C$DW$439       .dwtag  DW_TAG_member
    4511                      .dwattr $C$DW$439, DW_AT_type(*$C$DW$T$20)
    4512                      .dwattr $C$DW$439, DW_AT_name("DMACH1SSAU")
    4513                      .dwattr $C$DW$439, DW_AT_TI_symbol_name("_DMACH1SSAU")
    4514                      .dwattr $C$DW$439, DW_AT_data_member_location[DW_OP_plus_uconst 0x21]
    4515                      .dwattr $C$DW$439, DW_AT_accessibility(DW_ACCESS_public)
    4516              $C$DW$440       .dwtag  DW_TAG_member
    4517                      .dwattr $C$DW$440, DW_AT_type(*$C$DW$T$20)
    4518                      .dwattr $C$DW$440, DW_AT_name("DMACH1DSAL")
    4519                      .dwattr $C$DW$440, DW_AT_TI_symbol_name("_DMACH1DSAL")
    4520                      .dwattr $C$DW$440, DW_AT_data_member_location[DW_OP_plus_uconst 0x22]
    4521                      .dwattr $C$DW$440, DW_AT_accessibility(DW_ACCESS_public)
    4522              $C$DW$441       .dwtag  DW_TAG_member
    4523                      .dwattr $C$DW$441, DW_AT_type(*$C$DW$T$20)
    4524                      .dwattr $C$DW$441, DW_AT_name("DMACH1DSAU")
    4525                      .dwattr $C$DW$441, DW_AT_TI_symbol_name("_DMACH1DSAU")
    4526                      .dwattr $C$DW$441, DW_AT_data_member_location[DW_OP_plus_uconst 0x23]
    4527                      .dwattr $C$DW$441, DW_AT_accessibility(DW_ACCESS_public)
    4528              $C$DW$442       .dwtag  DW_TAG_member
    4529                      .dwattr $C$DW$442, DW_AT_type(*$C$DW$T$20)
    4530                      .dwattr $C$DW$442, DW_AT_name("DMACH1TCR1")
    4531                      .dwattr $C$DW$442, DW_AT_TI_symbol_name("_DMACH1TCR1")
    4532                      .dwattr $C$DW$442, DW_AT_data_member_location[DW_OP_plus_uconst 0x24]
    4533                      .dwattr $C$DW$442, DW_AT_accessibility(DW_ACCESS_public)
    4534              $C$DW$443       .dwtag  DW_TAG_member
    4535                      .dwattr $C$DW$443, DW_AT_type(*$C$DW$T$20)
    4536                      .dwattr $C$DW$443, DW_AT_name("DMACH1TCR2")
    4537                      .dwattr $C$DW$443, DW_AT_TI_symbol_name("_DMACH1TCR2")
    4538                      .dwattr $C$DW$443, DW_AT_data_member_location[DW_OP_plus_uconst 0x25]
    4539                      .dwattr $C$DW$443, DW_AT_accessibility(DW_ACCESS_public)
    4540              $C$DW$444       .dwtag  DW_TAG_member
    4541                      .dwattr $C$DW$444, DW_AT_type(*$C$DW$T$47)
    4542                      .dwattr $C$DW$444, DW_AT_name("RSVD1")
    4543                      .dwattr $C$DW$444, DW_AT_TI_symbol_name("_RSVD1")
    4544                      .dwattr $C$DW$444, DW_AT_data_member_location[DW_OP_plus_uconst 0x26]
    4545                      .dwattr $C$DW$444, DW_AT_accessibility(DW_ACCESS_public)
    4546              $C$DW$445       .dwtag  DW_TAG_member
    4547                      .dwattr $C$DW$445, DW_AT_type(*$C$DW$T$20)
    4548                      .dwattr $C$DW$445, DW_AT_name("DMACH2SSAL")
    4549                      .dwattr $C$DW$445, DW_AT_TI_symbol_name("_DMACH2SSAL")
    4550                      .dwattr $C$DW$445, DW_AT_data_member_location[DW_OP_plus_uconst 0x40]
    4551                      .dwattr $C$DW$445, DW_AT_accessibility(DW_ACCESS_public)
    4552              $C$DW$446       .dwtag  DW_TAG_member
    4553                      .dwattr $C$DW$446, DW_AT_type(*$C$DW$T$20)
    4554                      .dwattr $C$DW$446, DW_AT_name("DMACH2SSAU")
TMS320C55x Assembler PC v4.4.1 Fri Sep 14 23:31:58 2018

Tools Copyright (c) 1996-2012 Texas Instruments Incorporated
csl_mmcsd_ataIf.asm                                                  PAGE   97

    4555                      .dwattr $C$DW$446, DW_AT_TI_symbol_name("_DMACH2SSAU")
    4556                      .dwattr $C$DW$446, DW_AT_data_member_location[DW_OP_plus_uconst 0x41]
    4557                      .dwattr $C$DW$446, DW_AT_accessibility(DW_ACCESS_public)
    4558              $C$DW$447       .dwtag  DW_TAG_member
    4559                      .dwattr $C$DW$447, DW_AT_type(*$C$DW$T$20)
    4560                      .dwattr $C$DW$447, DW_AT_name("DMACH2DSAL")
    4561                      .dwattr $C$DW$447, DW_AT_TI_symbol_name("_DMACH2DSAL")
    4562                      .dwattr $C$DW$447, DW_AT_data_member_location[DW_OP_plus_uconst 0x42]
    4563                      .dwattr $C$DW$447, DW_AT_accessibility(DW_ACCESS_public)
    4564              $C$DW$448       .dwtag  DW_TAG_member
    4565                      .dwattr $C$DW$448, DW_AT_type(*$C$DW$T$20)
    4566                      .dwattr $C$DW$448, DW_AT_name("DMACH2DSAU")
    4567                      .dwattr $C$DW$448, DW_AT_TI_symbol_name("_DMACH2DSAU")
    4568                      .dwattr $C$DW$448, DW_AT_data_member_location[DW_OP_plus_uconst 0x43]
    4569                      .dwattr $C$DW$448, DW_AT_accessibility(DW_ACCESS_public)
    4570              $C$DW$449       .dwtag  DW_TAG_member
    4571                      .dwattr $C$DW$449, DW_AT_type(*$C$DW$T$20)
    4572                      .dwattr $C$DW$449, DW_AT_name("DMACH2TCR1")
    4573                      .dwattr $C$DW$449, DW_AT_TI_symbol_name("_DMACH2TCR1")
    4574                      .dwattr $C$DW$449, DW_AT_data_member_location[DW_OP_plus_uconst 0x44]
    4575                      .dwattr $C$DW$449, DW_AT_accessibility(DW_ACCESS_public)
    4576              $C$DW$450       .dwtag  DW_TAG_member
    4577                      .dwattr $C$DW$450, DW_AT_type(*$C$DW$T$20)
    4578                      .dwattr $C$DW$450, DW_AT_name("DMACH2TCR2")
    4579                      .dwattr $C$DW$450, DW_AT_TI_symbol_name("_DMACH2TCR2")
    4580                      .dwattr $C$DW$450, DW_AT_data_member_location[DW_OP_plus_uconst 0x45]
    4581                      .dwattr $C$DW$450, DW_AT_accessibility(DW_ACCESS_public)
    4582              $C$DW$451       .dwtag  DW_TAG_member
    4583                      .dwattr $C$DW$451, DW_AT_type(*$C$DW$T$47)
    4584                      .dwattr $C$DW$451, DW_AT_name("RSVD2")
    4585                      .dwattr $C$DW$451, DW_AT_TI_symbol_name("_RSVD2")
    4586                      .dwattr $C$DW$451, DW_AT_data_member_location[DW_OP_plus_uconst 0x46]
    4587                      .dwattr $C$DW$451, DW_AT_accessibility(DW_ACCESS_public)
    4588              $C$DW$452       .dwtag  DW_TAG_member
    4589                      .dwattr $C$DW$452, DW_AT_type(*$C$DW$T$20)
    4590                      .dwattr $C$DW$452, DW_AT_name("DMACH3SSAL")
    4591                      .dwattr $C$DW$452, DW_AT_TI_symbol_name("_DMACH3SSAL")
    4592                      .dwattr $C$DW$452, DW_AT_data_member_location[DW_OP_plus_uconst 0x60]
    4593                      .dwattr $C$DW$452, DW_AT_accessibility(DW_ACCESS_public)
    4594              $C$DW$453       .dwtag  DW_TAG_member
    4595                      .dwattr $C$DW$453, DW_AT_type(*$C$DW$T$20)
    4596                      .dwattr $C$DW$453, DW_AT_name("DMACH3SSAU")
    4597                      .dwattr $C$DW$453, DW_AT_TI_symbol_name("_DMACH3SSAU")
    4598                      .dwattr $C$DW$453, DW_AT_data_member_location[DW_OP_plus_uconst 0x61]
    4599                      .dwattr $C$DW$453, DW_AT_accessibility(DW_ACCESS_public)
    4600              $C$DW$454       .dwtag  DW_TAG_member
    4601                      .dwattr $C$DW$454, DW_AT_type(*$C$DW$T$20)
    4602                      .dwattr $C$DW$454, DW_AT_name("DMACH3DSAL")
    4603                      .dwattr $C$DW$454, DW_AT_TI_symbol_name("_DMACH3DSAL")
    4604                      .dwattr $C$DW$454, DW_AT_data_member_location[DW_OP_plus_uconst 0x62]
    4605                      .dwattr $C$DW$454, DW_AT_accessibility(DW_ACCESS_public)
    4606              $C$DW$455       .dwtag  DW_TAG_member
    4607                      .dwattr $C$DW$455, DW_AT_type(*$C$DW$T$20)
    4608                      .dwattr $C$DW$455, DW_AT_name("DMACH3DSAU")
    4609                      .dwattr $C$DW$455, DW_AT_TI_symbol_name("_DMACH3DSAU")
TMS320C55x Assembler PC v4.4.1 Fri Sep 14 23:31:58 2018

Tools Copyright (c) 1996-2012 Texas Instruments Incorporated
csl_mmcsd_ataIf.asm                                                  PAGE   98

    4610                      .dwattr $C$DW$455, DW_AT_data_member_location[DW_OP_plus_uconst 0x63]
    4611                      .dwattr $C$DW$455, DW_AT_accessibility(DW_ACCESS_public)
    4612              $C$DW$456       .dwtag  DW_TAG_member
    4613                      .dwattr $C$DW$456, DW_AT_type(*$C$DW$T$20)
    4614                      .dwattr $C$DW$456, DW_AT_name("DMACH3TCR1")
    4615                      .dwattr $C$DW$456, DW_AT_TI_symbol_name("_DMACH3TCR1")
    4616                      .dwattr $C$DW$456, DW_AT_data_member_location[DW_OP_plus_uconst 0x64]
    4617                      .dwattr $C$DW$456, DW_AT_accessibility(DW_ACCESS_public)
    4618              $C$DW$457       .dwtag  DW_TAG_member
    4619                      .dwattr $C$DW$457, DW_AT_type(*$C$DW$T$20)
    4620                      .dwattr $C$DW$457, DW_AT_name("DMACH3TCR2")
    4621                      .dwattr $C$DW$457, DW_AT_TI_symbol_name("_DMACH3TCR2")
    4622                      .dwattr $C$DW$457, DW_AT_data_member_location[DW_OP_plus_uconst 0x65]
    4623                      .dwattr $C$DW$457, DW_AT_accessibility(DW_ACCESS_public)
    4624                      .dwendtag $C$DW$T$48
    4625              
    4626              $C$DW$T$49      .dwtag  DW_TAG_typedef, DW_AT_name("CSL_DmaRegs")
    4627                      .dwattr $C$DW$T$49, DW_AT_type(*$C$DW$T$48)
    4628                      .dwattr $C$DW$T$49, DW_AT_language(DW_LANG_C)
    4629              $C$DW$458       .dwtag  DW_TAG_TI_far_type
    4630                      .dwattr $C$DW$458, DW_AT_type(*$C$DW$T$49)
    4631              $C$DW$459       .dwtag  DW_TAG_TI_ioport_type
    4632                      .dwattr $C$DW$459, DW_AT_type(*$C$DW$458)
    4633              $C$DW$T$50      .dwtag  DW_TAG_volatile_type
    4634                      .dwattr $C$DW$T$50, DW_AT_type(*$C$DW$459)
    4635              $C$DW$T$51      .dwtag  DW_TAG_pointer_type
    4636                      .dwattr $C$DW$T$51, DW_AT_type(*$C$DW$T$50)
    4637                      .dwattr $C$DW$T$51, DW_AT_address_class(0x10)
    4638              $C$DW$T$52      .dwtag  DW_TAG_typedef, DW_AT_name("CSL_DmaRegsOvly")
    4639                      .dwattr $C$DW$T$52, DW_AT_type(*$C$DW$T$51)
    4640                      .dwattr $C$DW$T$52, DW_AT_language(DW_LANG_C)
    4641              
    4642              $C$DW$T$65      .dwtag  DW_TAG_structure_type
    4643                      .dwattr $C$DW$T$65, DW_AT_byte_size(0x09)
    4644              $C$DW$460       .dwtag  DW_TAG_member
    4645                      .dwattr $C$DW$460, DW_AT_type(*$C$DW$T$52)
    4646                      .dwattr $C$DW$460, DW_AT_name("dmaRegs")
    4647                      .dwattr $C$DW$460, DW_AT_TI_symbol_name("_dmaRegs")
    4648                      .dwattr $C$DW$460, DW_AT_data_member_location[DW_OP_plus_uconst 0x0]
    4649                      .dwattr $C$DW$460, DW_AT_accessibility(DW_ACCESS_public)
    4650              $C$DW$461       .dwtag  DW_TAG_member
    4651                      .dwattr $C$DW$461, DW_AT_type(*$C$DW$T$54)
    4652                      .dwattr $C$DW$461, DW_AT_name("chanNum")
    4653                      .dwattr $C$DW$461, DW_AT_TI_symbol_name("_chanNum")
    4654                      .dwattr $C$DW$461, DW_AT_data_member_location[DW_OP_plus_uconst 0x1]
    4655                      .dwattr $C$DW$461, DW_AT_accessibility(DW_ACCESS_public)
    4656              $C$DW$462       .dwtag  DW_TAG_member
    4657                      .dwattr $C$DW$462, DW_AT_type(*$C$DW$T$56)
    4658                      .dwattr $C$DW$462, DW_AT_name("dmaInstNum")
    4659                      .dwattr $C$DW$462, DW_AT_TI_symbol_name("_dmaInstNum")
    4660                      .dwattr $C$DW$462, DW_AT_data_member_location[DW_OP_plus_uconst 0x2]
    4661                      .dwattr $C$DW$462, DW_AT_accessibility(DW_ACCESS_public)
    4662              $C$DW$463       .dwtag  DW_TAG_member
    4663                      .dwattr $C$DW$463, DW_AT_type(*$C$DW$T$40)
    4664                      .dwattr $C$DW$463, DW_AT_name("isChanFree")
TMS320C55x Assembler PC v4.4.1 Fri Sep 14 23:31:58 2018

Tools Copyright (c) 1996-2012 Texas Instruments Incorporated
csl_mmcsd_ataIf.asm                                                  PAGE   99

    4665                      .dwattr $C$DW$463, DW_AT_TI_symbol_name("_isChanFree")
    4666                      .dwattr $C$DW$463, DW_AT_data_member_location[DW_OP_plus_uconst 0x3]
    4667                      .dwattr $C$DW$463, DW_AT_accessibility(DW_ACCESS_public)
    4668              $C$DW$464       .dwtag  DW_TAG_member
    4669                      .dwattr $C$DW$464, DW_AT_type(*$C$DW$T$58)
    4670                      .dwattr $C$DW$464, DW_AT_name("chanDir")
    4671                      .dwattr $C$DW$464, DW_AT_TI_symbol_name("_chanDir")
    4672                      .dwattr $C$DW$464, DW_AT_data_member_location[DW_OP_plus_uconst 0x4]
    4673                      .dwattr $C$DW$464, DW_AT_accessibility(DW_ACCESS_public)
    4674              $C$DW$465       .dwtag  DW_TAG_member
    4675                      .dwattr $C$DW$465, DW_AT_type(*$C$DW$T$60)
    4676                      .dwattr $C$DW$465, DW_AT_name("trigger")
    4677                      .dwattr $C$DW$465, DW_AT_TI_symbol_name("_trigger")
    4678                      .dwattr $C$DW$465, DW_AT_data_member_location[DW_OP_plus_uconst 0x5]
    4679                      .dwattr $C$DW$465, DW_AT_accessibility(DW_ACCESS_public)
    4680              $C$DW$466       .dwtag  DW_TAG_member
    4681                      .dwattr $C$DW$466, DW_AT_type(*$C$DW$T$62)
    4682                      .dwattr $C$DW$466, DW_AT_name("trfType")
    4683                      .dwattr $C$DW$466, DW_AT_TI_symbol_name("_trfType")
    4684                      .dwattr $C$DW$466, DW_AT_data_member_location[DW_OP_plus_uconst 0x6]
    4685                      .dwattr $C$DW$466, DW_AT_accessibility(DW_ACCESS_public)
    4686              $C$DW$467       .dwtag  DW_TAG_member
    4687                      .dwattr $C$DW$467, DW_AT_type(*$C$DW$T$64)
    4688                      .dwattr $C$DW$467, DW_AT_name("dmaInt")
    4689                      .dwattr $C$DW$467, DW_AT_TI_symbol_name("_dmaInt")
    4690                      .dwattr $C$DW$467, DW_AT_data_member_location[DW_OP_plus_uconst 0x7]
    4691                      .dwattr $C$DW$467, DW_AT_accessibility(DW_ACCESS_public)
    4692              $C$DW$468       .dwtag  DW_TAG_member
    4693                      .dwattr $C$DW$468, DW_AT_type(*$C$DW$T$40)
    4694                      .dwattr $C$DW$468, DW_AT_name("pingPongEnabled")
    4695                      .dwattr $C$DW$468, DW_AT_TI_symbol_name("_pingPongEnabled")
    4696                      .dwattr $C$DW$468, DW_AT_data_member_location[DW_OP_plus_uconst 0x8]
    4697                      .dwattr $C$DW$468, DW_AT_accessibility(DW_ACCESS_public)
    4698                      .dwendtag $C$DW$T$65
    4699              
    4700              $C$DW$T$87      .dwtag  DW_TAG_typedef, DW_AT_name("CSL_DMA_ChannelObj")
    4701                      .dwattr $C$DW$T$87, DW_AT_type(*$C$DW$T$65)
    4702                      .dwattr $C$DW$T$87, DW_AT_language(DW_LANG_C)
    4703              $C$DW$T$88      .dwtag  DW_TAG_pointer_type
    4704                      .dwattr $C$DW$T$88, DW_AT_type(*$C$DW$T$87)
    4705                      .dwattr $C$DW$T$88, DW_AT_address_class(0x17)
    4706              $C$DW$T$89      .dwtag  DW_TAG_typedef, DW_AT_name("CSL_DMA_Handle")
    4707                      .dwattr $C$DW$T$89, DW_AT_type(*$C$DW$T$88)
    4708                      .dwattr $C$DW$T$89, DW_AT_language(DW_LANG_C)
    4709              
    4710              $C$DW$T$74      .dwtag  DW_TAG_structure_type
    4711                      .dwattr $C$DW$T$74, DW_AT_byte_size(0x0e)
    4712              $C$DW$469       .dwtag  DW_TAG_member
    4713                      .dwattr $C$DW$469, DW_AT_type(*$C$DW$T$67)
    4714                      .dwattr $C$DW$469, DW_AT_name("pingPongMode")
    4715                      .dwattr $C$DW$469, DW_AT_TI_symbol_name("_pingPongMode")
    4716                      .dwattr $C$DW$469, DW_AT_data_member_location[DW_OP_plus_uconst 0x0]
    4717                      .dwattr $C$DW$469, DW_AT_accessibility(DW_ACCESS_public)
    4718              $C$DW$470       .dwtag  DW_TAG_member
    4719                      .dwattr $C$DW$470, DW_AT_type(*$C$DW$T$69)
TMS320C55x Assembler PC v4.4.1 Fri Sep 14 23:31:58 2018

Tools Copyright (c) 1996-2012 Texas Instruments Incorporated
csl_mmcsd_ataIf.asm                                                  PAGE  100

    4720                      .dwattr $C$DW$470, DW_AT_name("autoMode")
    4721                      .dwattr $C$DW$470, DW_AT_TI_symbol_name("_autoMode")
    4722                      .dwattr $C$DW$470, DW_AT_data_member_location[DW_OP_plus_uconst 0x1]
    4723                      .dwattr $C$DW$470, DW_AT_accessibility(DW_ACCESS_public)
    4724              $C$DW$471       .dwtag  DW_TAG_member
    4725                      .dwattr $C$DW$471, DW_AT_type(*$C$DW$T$71)
    4726                      .dwattr $C$DW$471, DW_AT_name("burstLen")
    4727                      .dwattr $C$DW$471, DW_AT_TI_symbol_name("_burstLen")
    4728                      .dwattr $C$DW$471, DW_AT_data_member_location[DW_OP_plus_uconst 0x2]
    4729                      .dwattr $C$DW$471, DW_AT_accessibility(DW_ACCESS_public)
    4730              $C$DW$472       .dwtag  DW_TAG_member
    4731                      .dwattr $C$DW$472, DW_AT_type(*$C$DW$T$60)
    4732                      .dwattr $C$DW$472, DW_AT_name("trigger")
    4733                      .dwattr $C$DW$472, DW_AT_TI_symbol_name("_trigger")
    4734                      .dwattr $C$DW$472, DW_AT_data_member_location[DW_OP_plus_uconst 0x3]
    4735                      .dwattr $C$DW$472, DW_AT_accessibility(DW_ACCESS_public)
    4736              $C$DW$473       .dwtag  DW_TAG_member
    4737                      .dwattr $C$DW$473, DW_AT_type(*$C$DW$T$73)
    4738                      .dwattr $C$DW$473, DW_AT_name("dmaEvt")
    4739                      .dwattr $C$DW$473, DW_AT_TI_symbol_name("_dmaEvt")
    4740                      .dwattr $C$DW$473, DW_AT_data_member_location[DW_OP_plus_uconst 0x4]
    4741                      .dwattr $C$DW$473, DW_AT_accessibility(DW_ACCESS_public)
    4742              $C$DW$474       .dwtag  DW_TAG_member
    4743                      .dwattr $C$DW$474, DW_AT_type(*$C$DW$T$64)
    4744                      .dwattr $C$DW$474, DW_AT_name("dmaInt")
    4745                      .dwattr $C$DW$474, DW_AT_TI_symbol_name("_dmaInt")
    4746                      .dwattr $C$DW$474, DW_AT_data_member_location[DW_OP_plus_uconst 0x5]
    4747                      .dwattr $C$DW$474, DW_AT_accessibility(DW_ACCESS_public)
    4748              $C$DW$475       .dwtag  DW_TAG_member
    4749                      .dwattr $C$DW$475, DW_AT_type(*$C$DW$T$58)
    4750                      .dwattr $C$DW$475, DW_AT_name("chanDir")
    4751                      .dwattr $C$DW$475, DW_AT_TI_symbol_name("_chanDir")
    4752                      .dwattr $C$DW$475, DW_AT_data_member_location[DW_OP_plus_uconst 0x6]
    4753                      .dwattr $C$DW$475, DW_AT_accessibility(DW_ACCESS_public)
    4754              $C$DW$476       .dwtag  DW_TAG_member
    4755                      .dwattr $C$DW$476, DW_AT_type(*$C$DW$T$62)
    4756                      .dwattr $C$DW$476, DW_AT_name("trfType")
    4757                      .dwattr $C$DW$476, DW_AT_TI_symbol_name("_trfType")
    4758                      .dwattr $C$DW$476, DW_AT_data_member_location[DW_OP_plus_uconst 0x7]
    4759                      .dwattr $C$DW$476, DW_AT_accessibility(DW_ACCESS_public)
    4760              $C$DW$477       .dwtag  DW_TAG_member
    4761                      .dwattr $C$DW$477, DW_AT_type(*$C$DW$T$19)
    4762                      .dwattr $C$DW$477, DW_AT_name("dataLen")
    4763                      .dwattr $C$DW$477, DW_AT_TI_symbol_name("_dataLen")
    4764                      .dwattr $C$DW$477, DW_AT_data_member_location[DW_OP_plus_uconst 0x8]
    4765                      .dwattr $C$DW$477, DW_AT_accessibility(DW_ACCESS_public)
    4766              $C$DW$478       .dwtag  DW_TAG_member
    4767                      .dwattr $C$DW$478, DW_AT_type(*$C$DW$T$28)
    4768                      .dwattr $C$DW$478, DW_AT_name("srcAddr")
    4769                      .dwattr $C$DW$478, DW_AT_TI_symbol_name("_srcAddr")
    4770                      .dwattr $C$DW$478, DW_AT_data_member_location[DW_OP_plus_uconst 0xa]
    4771                      .dwattr $C$DW$478, DW_AT_accessibility(DW_ACCESS_public)
    4772              $C$DW$479       .dwtag  DW_TAG_member
    4773                      .dwattr $C$DW$479, DW_AT_type(*$C$DW$T$28)
    4774                      .dwattr $C$DW$479, DW_AT_name("destAddr")
TMS320C55x Assembler PC v4.4.1 Fri Sep 14 23:31:58 2018

Tools Copyright (c) 1996-2012 Texas Instruments Incorporated
csl_mmcsd_ataIf.asm                                                  PAGE  101

    4775                      .dwattr $C$DW$479, DW_AT_TI_symbol_name("_destAddr")
    4776                      .dwattr $C$DW$479, DW_AT_data_member_location[DW_OP_plus_uconst 0xc]
    4777                      .dwattr $C$DW$479, DW_AT_accessibility(DW_ACCESS_public)
    4778                      .dwendtag $C$DW$T$74
    4779              
    4780              $C$DW$T$90      .dwtag  DW_TAG_typedef, DW_AT_name("CSL_DMA_Config")
    4781                      .dwattr $C$DW$T$90, DW_AT_type(*$C$DW$T$74)
    4782                      .dwattr $C$DW$T$90, DW_AT_language(DW_LANG_C)
    4783              
    4784              $C$DW$T$75      .dwtag  DW_TAG_structure_type
    4785                      .dwattr $C$DW$T$75, DW_AT_byte_size(0x08)
    4786              $C$DW$480       .dwtag  DW_TAG_member
    4787                      .dwattr $C$DW$480, DW_AT_type(*$C$DW$T$19)
    4788                      .dwattr $C$DW$480, DW_AT_name("slice127_112")
    4789                      .dwattr $C$DW$480, DW_AT_TI_symbol_name("_slice127_112")
    4790                      .dwattr $C$DW$480, DW_AT_data_member_location[DW_OP_plus_uconst 0x0]
    4791                      .dwattr $C$DW$480, DW_AT_accessibility(DW_ACCESS_public)
    4792              $C$DW$481       .dwtag  DW_TAG_member
    4793                      .dwattr $C$DW$481, DW_AT_type(*$C$DW$T$19)
    4794                      .dwattr $C$DW$481, DW_AT_name("slice111_96")
    4795                      .dwattr $C$DW$481, DW_AT_TI_symbol_name("_slice111_96")
    4796                      .dwattr $C$DW$481, DW_AT_data_member_location[DW_OP_plus_uconst 0x1]
    4797                      .dwattr $C$DW$481, DW_AT_accessibility(DW_ACCESS_public)
    4798              $C$DW$482       .dwtag  DW_TAG_member
    4799                      .dwattr $C$DW$482, DW_AT_type(*$C$DW$T$19)
    4800                      .dwattr $C$DW$482, DW_AT_name("slice95_80")
    4801                      .dwattr $C$DW$482, DW_AT_TI_symbol_name("_slice95_80")
    4802                      .dwattr $C$DW$482, DW_AT_data_member_location[DW_OP_plus_uconst 0x2]
    4803                      .dwattr $C$DW$482, DW_AT_accessibility(DW_ACCESS_public)
    4804              $C$DW$483       .dwtag  DW_TAG_member
    4805                      .dwattr $C$DW$483, DW_AT_type(*$C$DW$T$19)
    4806                      .dwattr $C$DW$483, DW_AT_name("slice79_64")
    4807                      .dwattr $C$DW$483, DW_AT_TI_symbol_name("_slice79_64")
    4808                      .dwattr $C$DW$483, DW_AT_data_member_location[DW_OP_plus_uconst 0x3]
    4809                      .dwattr $C$DW$483, DW_AT_accessibility(DW_ACCESS_public)
    4810              $C$DW$484       .dwtag  DW_TAG_member
    4811                      .dwattr $C$DW$484, DW_AT_type(*$C$DW$T$19)
    4812                      .dwattr $C$DW$484, DW_AT_name("slice63_48")
    4813                      .dwattr $C$DW$484, DW_AT_TI_symbol_name("_slice63_48")
    4814                      .dwattr $C$DW$484, DW_AT_data_member_location[DW_OP_plus_uconst 0x4]
    4815                      .dwattr $C$DW$484, DW_AT_accessibility(DW_ACCESS_public)
    4816              $C$DW$485       .dwtag  DW_TAG_member
    4817                      .dwattr $C$DW$485, DW_AT_type(*$C$DW$T$19)
    4818                      .dwattr $C$DW$485, DW_AT_name("slice47_32")
    4819                      .dwattr $C$DW$485, DW_AT_TI_symbol_name("_slice47_32")
    4820                      .dwattr $C$DW$485, DW_AT_data_member_location[DW_OP_plus_uconst 0x5]
    4821                      .dwattr $C$DW$485, DW_AT_accessibility(DW_ACCESS_public)
    4822              $C$DW$486       .dwtag  DW_TAG_member
    4823                      .dwattr $C$DW$486, DW_AT_type(*$C$DW$T$19)
    4824                      .dwattr $C$DW$486, DW_AT_name("slice31_16")
    4825                      .dwattr $C$DW$486, DW_AT_TI_symbol_name("_slice31_16")
    4826                      .dwattr $C$DW$486, DW_AT_data_member_location[DW_OP_plus_uconst 0x6]
    4827                      .dwattr $C$DW$486, DW_AT_accessibility(DW_ACCESS_public)
    4828              $C$DW$487       .dwtag  DW_TAG_member
    4829                      .dwattr $C$DW$487, DW_AT_type(*$C$DW$T$19)
TMS320C55x Assembler PC v4.4.1 Fri Sep 14 23:31:58 2018

Tools Copyright (c) 1996-2012 Texas Instruments Incorporated
csl_mmcsd_ataIf.asm                                                  PAGE  102

    4830                      .dwattr $C$DW$487, DW_AT_name("slice15_0")
    4831                      .dwattr $C$DW$487, DW_AT_TI_symbol_name("_slice15_0")
    4832                      .dwattr $C$DW$487, DW_AT_data_member_location[DW_OP_plus_uconst 0x7]
    4833                      .dwattr $C$DW$487, DW_AT_accessibility(DW_ACCESS_public)
    4834                      .dwendtag $C$DW$T$75
    4835              
    4836              $C$DW$T$94      .dwtag  DW_TAG_typedef, DW_AT_name("CSL_MMCSDCidStruct")
    4837                      .dwattr $C$DW$T$94, DW_AT_type(*$C$DW$T$75)
    4838                      .dwattr $C$DW$T$94, DW_AT_language(DW_LANG_C)
    4839              
    4840              $C$DW$T$76      .dwtag  DW_TAG_structure_type
    4841                      .dwattr $C$DW$T$76, DW_AT_byte_size(0x08)
    4842              $C$DW$488       .dwtag  DW_TAG_member
    4843                      .dwattr $C$DW$488, DW_AT_type(*$C$DW$T$19)
    4844                      .dwattr $C$DW$488, DW_AT_name("slice127_112")
    4845                      .dwattr $C$DW$488, DW_AT_TI_symbol_name("_slice127_112")
    4846                      .dwattr $C$DW$488, DW_AT_data_member_location[DW_OP_plus_uconst 0x0]
    4847                      .dwattr $C$DW$488, DW_AT_accessibility(DW_ACCESS_public)
    4848              $C$DW$489       .dwtag  DW_TAG_member
    4849                      .dwattr $C$DW$489, DW_AT_type(*$C$DW$T$19)
    4850                      .dwattr $C$DW$489, DW_AT_name("slice111_96")
    4851                      .dwattr $C$DW$489, DW_AT_TI_symbol_name("_slice111_96")
    4852                      .dwattr $C$DW$489, DW_AT_data_member_location[DW_OP_plus_uconst 0x1]
    4853                      .dwattr $C$DW$489, DW_AT_accessibility(DW_ACCESS_public)
    4854              $C$DW$490       .dwtag  DW_TAG_member
    4855                      .dwattr $C$DW$490, DW_AT_type(*$C$DW$T$19)
    4856                      .dwattr $C$DW$490, DW_AT_name("slice95_80")
    4857                      .dwattr $C$DW$490, DW_AT_TI_symbol_name("_slice95_80")
    4858                      .dwattr $C$DW$490, DW_AT_data_member_location[DW_OP_plus_uconst 0x2]
    4859                      .dwattr $C$DW$490, DW_AT_accessibility(DW_ACCESS_public)
    4860              $C$DW$491       .dwtag  DW_TAG_member
    4861                      .dwattr $C$DW$491, DW_AT_type(*$C$DW$T$19)
    4862                      .dwattr $C$DW$491, DW_AT_name("slice79_64")
    4863                      .dwattr $C$DW$491, DW_AT_TI_symbol_name("_slice79_64")
    4864                      .dwattr $C$DW$491, DW_AT_data_member_location[DW_OP_plus_uconst 0x3]
    4865                      .dwattr $C$DW$491, DW_AT_accessibility(DW_ACCESS_public)
    4866              $C$DW$492       .dwtag  DW_TAG_member
    4867                      .dwattr $C$DW$492, DW_AT_type(*$C$DW$T$19)
    4868                      .dwattr $C$DW$492, DW_AT_name("slice63_48")
    4869                      .dwattr $C$DW$492, DW_AT_TI_symbol_name("_slice63_48")
    4870                      .dwattr $C$DW$492, DW_AT_data_member_location[DW_OP_plus_uconst 0x4]
    4871                      .dwattr $C$DW$492, DW_AT_accessibility(DW_ACCESS_public)
    4872              $C$DW$493       .dwtag  DW_TAG_member
    4873                      .dwattr $C$DW$493, DW_AT_type(*$C$DW$T$19)
    4874                      .dwattr $C$DW$493, DW_AT_name("slice47_32")
    4875                      .dwattr $C$DW$493, DW_AT_TI_symbol_name("_slice47_32")
    4876                      .dwattr $C$DW$493, DW_AT_data_member_location[DW_OP_plus_uconst 0x5]
    4877                      .dwattr $C$DW$493, DW_AT_accessibility(DW_ACCESS_public)
    4878              $C$DW$494       .dwtag  DW_TAG_member
    4879                      .dwattr $C$DW$494, DW_AT_type(*$C$DW$T$19)
    4880                      .dwattr $C$DW$494, DW_AT_name("slice31_16")
    4881                      .dwattr $C$DW$494, DW_AT_TI_symbol_name("_slice31_16")
    4882                      .dwattr $C$DW$494, DW_AT_data_member_location[DW_OP_plus_uconst 0x6]
    4883                      .dwattr $C$DW$494, DW_AT_accessibility(DW_ACCESS_public)
    4884              $C$DW$495       .dwtag  DW_TAG_member
TMS320C55x Assembler PC v4.4.1 Fri Sep 14 23:31:58 2018

Tools Copyright (c) 1996-2012 Texas Instruments Incorporated
csl_mmcsd_ataIf.asm                                                  PAGE  103

    4885                      .dwattr $C$DW$495, DW_AT_type(*$C$DW$T$19)
    4886                      .dwattr $C$DW$495, DW_AT_name("slice15_0")
    4887                      .dwattr $C$DW$495, DW_AT_TI_symbol_name("_slice15_0")
    4888                      .dwattr $C$DW$495, DW_AT_data_member_location[DW_OP_plus_uconst 0x7]
    4889                      .dwattr $C$DW$495, DW_AT_accessibility(DW_ACCESS_public)
    4890                      .dwendtag $C$DW$T$76
    4891              
    4892              $C$DW$T$95      .dwtag  DW_TAG_typedef, DW_AT_name("CSL_MMCSDCsdStruct")
    4893                      .dwattr $C$DW$T$95, DW_AT_type(*$C$DW$T$76)
    4894                      .dwattr $C$DW$T$95, DW_AT_language(DW_LANG_C)
    4895              
    4896              $C$DW$T$98      .dwtag  DW_TAG_structure_type
    4897                      .dwattr $C$DW$T$98, DW_AT_byte_size(0x40)
    4898              $C$DW$496       .dwtag  DW_TAG_member
    4899                      .dwattr $C$DW$496, DW_AT_type(*$C$DW$T$80)
    4900                      .dwattr $C$DW$496, DW_AT_name("mmcRegs")
    4901                      .dwattr $C$DW$496, DW_AT_TI_symbol_name("_mmcRegs")
    4902                      .dwattr $C$DW$496, DW_AT_data_member_location[DW_OP_plus_uconst 0x0]
    4903                      .dwattr $C$DW$496, DW_AT_accessibility(DW_ACCESS_public)
    4904              $C$DW$497       .dwtag  DW_TAG_member
    4905                      .dwattr $C$DW$497, DW_AT_type(*$C$DW$T$82)
    4906                      .dwattr $C$DW$497, DW_AT_name("cardObj")
    4907                      .dwattr $C$DW$497, DW_AT_TI_symbol_name("_cardObj")
    4908                      .dwattr $C$DW$497, DW_AT_data_member_location[DW_OP_plus_uconst 0x2]
    4909                      .dwattr $C$DW$497, DW_AT_accessibility(DW_ACCESS_public)
    4910              $C$DW$498       .dwtag  DW_TAG_member
    4911                      .dwattr $C$DW$498, DW_AT_type(*$C$DW$T$19)
    4912                      .dwattr $C$DW$498, DW_AT_name("numCardsActive")
    4913                      .dwattr $C$DW$498, DW_AT_TI_symbol_name("_numCardsActive")
    4914                      .dwattr $C$DW$498, DW_AT_data_member_location[DW_OP_plus_uconst 0x4]
    4915                      .dwattr $C$DW$498, DW_AT_accessibility(DW_ACCESS_public)
    4916              $C$DW$499       .dwtag  DW_TAG_member
    4917                      .dwattr $C$DW$499, DW_AT_type(*$C$DW$T$84)
    4918                      .dwattr $C$DW$499, DW_AT_name("callBackTbl")
    4919                      .dwattr $C$DW$499, DW_AT_TI_symbol_name("_callBackTbl")
    4920                      .dwattr $C$DW$499, DW_AT_data_member_location[DW_OP_plus_uconst 0x6]
    4921                      .dwattr $C$DW$499, DW_AT_accessibility(DW_ACCESS_public)
    4922              $C$DW$500       .dwtag  DW_TAG_member
    4923                      .dwattr $C$DW$500, DW_AT_type(*$C$DW$T$86)
    4924                      .dwattr $C$DW$500, DW_AT_name("opMode")
    4925                      .dwattr $C$DW$500, DW_AT_TI_symbol_name("_opMode")
    4926                      .dwattr $C$DW$500, DW_AT_data_member_location[DW_OP_plus_uconst 0x8]
    4927                      .dwattr $C$DW$500, DW_AT_accessibility(DW_ACCESS_public)
    4928              $C$DW$501       .dwtag  DW_TAG_member
    4929                      .dwattr $C$DW$501, DW_AT_type(*$C$DW$T$89)
    4930                      .dwattr $C$DW$501, DW_AT_name("hDmaWrite")
    4931                      .dwattr $C$DW$501, DW_AT_TI_symbol_name("_hDmaWrite")
    4932                      .dwattr $C$DW$501, DW_AT_data_member_location[DW_OP_plus_uconst 0xa]
    4933                      .dwattr $C$DW$501, DW_AT_accessibility(DW_ACCESS_public)
    4934              $C$DW$502       .dwtag  DW_TAG_member
    4935                      .dwattr $C$DW$502, DW_AT_type(*$C$DW$T$89)
    4936                      .dwattr $C$DW$502, DW_AT_name("hDmaRead")
    4937                      .dwattr $C$DW$502, DW_AT_TI_symbol_name("_hDmaRead")
    4938                      .dwattr $C$DW$502, DW_AT_data_member_location[DW_OP_plus_uconst 0xc]
    4939                      .dwattr $C$DW$502, DW_AT_accessibility(DW_ACCESS_public)
TMS320C55x Assembler PC v4.4.1 Fri Sep 14 23:31:58 2018

Tools Copyright (c) 1996-2012 Texas Instruments Incorporated
csl_mmcsd_ataIf.asm                                                  PAGE  104

    4940              $C$DW$503       .dwtag  DW_TAG_member
    4941                      .dwattr $C$DW$503, DW_AT_type(*$C$DW$T$90)
    4942                      .dwattr $C$DW$503, DW_AT_name("dmaWriteCfg")
    4943                      .dwattr $C$DW$503, DW_AT_TI_symbol_name("_dmaWriteCfg")
    4944                      .dwattr $C$DW$503, DW_AT_data_member_location[DW_OP_plus_uconst 0xe]
    4945                      .dwattr $C$DW$503, DW_AT_accessibility(DW_ACCESS_public)
    4946              $C$DW$504       .dwtag  DW_TAG_member
    4947                      .dwattr $C$DW$504, DW_AT_type(*$C$DW$T$90)
    4948                      .dwattr $C$DW$504, DW_AT_name("dmaReadCfg")
    4949                      .dwattr $C$DW$504, DW_AT_TI_symbol_name("_dmaReadCfg")
    4950                      .dwattr $C$DW$504, DW_AT_data_member_location[DW_OP_plus_uconst 0x1c]
    4951                      .dwattr $C$DW$504, DW_AT_accessibility(DW_ACCESS_public)
    4952              $C$DW$505       .dwtag  DW_TAG_member
    4953                      .dwattr $C$DW$505, DW_AT_type(*$C$DW$T$93)
    4954                      .dwattr $C$DW$505, DW_AT_name("dataTransferCallback")
    4955                      .dwattr $C$DW$505, DW_AT_TI_symbol_name("_dataTransferCallback")
    4956                      .dwattr $C$DW$505, DW_AT_data_member_location[DW_OP_plus_uconst 0x2a]
    4957                      .dwattr $C$DW$505, DW_AT_accessibility(DW_ACCESS_public)
    4958              $C$DW$506       .dwtag  DW_TAG_member
    4959                      .dwattr $C$DW$506, DW_AT_type(*$C$DW$T$40)
    4960                      .dwattr $C$DW$506, DW_AT_name("isCallbackSet")
    4961                      .dwattr $C$DW$506, DW_AT_TI_symbol_name("_isCallbackSet")
    4962                      .dwattr $C$DW$506, DW_AT_data_member_location[DW_OP_plus_uconst 0x2c]
    4963                      .dwattr $C$DW$506, DW_AT_accessibility(DW_ACCESS_public)
    4964              $C$DW$507       .dwtag  DW_TAG_member
    4965                      .dwattr $C$DW$507, DW_AT_type(*$C$DW$T$94)
    4966                      .dwattr $C$DW$507, DW_AT_name("cidSliceInfo")
    4967                      .dwattr $C$DW$507, DW_AT_TI_symbol_name("_cidSliceInfo")
    4968                      .dwattr $C$DW$507, DW_AT_data_member_location[DW_OP_plus_uconst 0x2d]
    4969                      .dwattr $C$DW$507, DW_AT_accessibility(DW_ACCESS_public)
    4970              $C$DW$508       .dwtag  DW_TAG_member
    4971                      .dwattr $C$DW$508, DW_AT_type(*$C$DW$T$95)
    4972                      .dwattr $C$DW$508, DW_AT_name("csdSliceInfo")
    4973                      .dwattr $C$DW$508, DW_AT_TI_symbol_name("_csdSliceInfo")
    4974                      .dwattr $C$DW$508, DW_AT_data_member_location[DW_OP_plus_uconst 0x35]
    4975                      .dwattr $C$DW$508, DW_AT_accessibility(DW_ACCESS_public)
    4976              $C$DW$509       .dwtag  DW_TAG_member
    4977                      .dwattr $C$DW$509, DW_AT_type(*$C$DW$T$97)
    4978                      .dwattr $C$DW$509, DW_AT_name("readEndianMode")
    4979                      .dwattr $C$DW$509, DW_AT_TI_symbol_name("_readEndianMode")
    4980                      .dwattr $C$DW$509, DW_AT_data_member_location[DW_OP_plus_uconst 0x3d]
    4981                      .dwattr $C$DW$509, DW_AT_accessibility(DW_ACCESS_public)
    4982              $C$DW$510       .dwtag  DW_TAG_member
    4983                      .dwattr $C$DW$510, DW_AT_type(*$C$DW$T$97)
    4984                      .dwattr $C$DW$510, DW_AT_name("writeEndianMode")
    4985                      .dwattr $C$DW$510, DW_AT_TI_symbol_name("_writeEndianMode")
    4986                      .dwattr $C$DW$510, DW_AT_data_member_location[DW_OP_plus_uconst 0x3e]
    4987                      .dwattr $C$DW$510, DW_AT_accessibility(DW_ACCESS_public)
    4988              $C$DW$511       .dwtag  DW_TAG_member
    4989                      .dwattr $C$DW$511, DW_AT_type(*$C$DW$T$19)
    4990                      .dwattr $C$DW$511, DW_AT_name("blockLen")
    4991                      .dwattr $C$DW$511, DW_AT_TI_symbol_name("_blockLen")
    4992                      .dwattr $C$DW$511, DW_AT_data_member_location[DW_OP_plus_uconst 0x3f]
    4993                      .dwattr $C$DW$511, DW_AT_accessibility(DW_ACCESS_public)
    4994                      .dwendtag $C$DW$T$98
TMS320C55x Assembler PC v4.4.1 Fri Sep 14 23:31:58 2018

Tools Copyright (c) 1996-2012 Texas Instruments Incorporated
csl_mmcsd_ataIf.asm                                                  PAGE  105

    4995              
    4996              $C$DW$T$133     .dwtag  DW_TAG_typedef, DW_AT_name("CSL_MMCControllerObj")
    4997                      .dwattr $C$DW$T$133, DW_AT_type(*$C$DW$T$98)
    4998                      .dwattr $C$DW$T$133, DW_AT_language(DW_LANG_C)
    4999              $C$DW$T$134     .dwtag  DW_TAG_pointer_type
    5000                      .dwattr $C$DW$T$134, DW_AT_type(*$C$DW$T$133)
    5001                      .dwattr $C$DW$T$134, DW_AT_address_class(0x17)
    5002              $C$DW$T$135     .dwtag  DW_TAG_typedef, DW_AT_name("CSL_MmcsdHandle")
    5003                      .dwattr $C$DW$T$135, DW_AT_type(*$C$DW$T$134)
    5004                      .dwattr $C$DW$T$135, DW_AT_language(DW_LANG_C)
    5005              
    5006              $C$DW$T$104     .dwtag  DW_TAG_structure_type
    5007                      .dwattr $C$DW$T$104, DW_AT_name("AtaMMCState")
    5008                      .dwattr $C$DW$T$104, DW_AT_byte_size(0x14)
    5009              $C$DW$512       .dwtag  DW_TAG_member
    5010                      .dwattr $C$DW$512, DW_AT_type(*$C$DW$T$3)
    5011                      .dwattr $C$DW$512, DW_AT_name("hMmcSd")
    5012                      .dwattr $C$DW$512, DW_AT_TI_symbol_name("_hMmcSd")
    5013                      .dwattr $C$DW$512, DW_AT_data_member_location[DW_OP_plus_uconst 0x0]
    5014                      .dwattr $C$DW$512, DW_AT_accessibility(DW_ACCESS_public)
    5015              $C$DW$513       .dwtag  DW_TAG_member
    5016                      .dwattr $C$DW$513, DW_AT_type(*$C$DW$T$100)
    5017                      .dwattr $C$DW$513, DW_AT_name("pDrive")
    5018                      .dwattr $C$DW$513, DW_AT_TI_symbol_name("_pDrive")
    5019                      .dwattr $C$DW$513, DW_AT_data_member_location[DW_OP_plus_uconst 0x2]
    5020                      .dwattr $C$DW$513, DW_AT_accessibility(DW_ACCESS_public)
    5021              $C$DW$514       .dwtag  DW_TAG_member
    5022                      .dwattr $C$DW$514, DW_AT_type(*$C$DW$T$3)
    5023                      .dwattr $C$DW$514, DW_AT_name("pMmcSdptr")
    5024                      .dwattr $C$DW$514, DW_AT_TI_symbol_name("_pMmcSdptr")
    5025                      .dwattr $C$DW$514, DW_AT_data_member_location[DW_OP_plus_uconst 0x4]
    5026                      .dwattr $C$DW$514, DW_AT_accessibility(DW_ACCESS_public)
    5027              $C$DW$515       .dwtag  DW_TAG_member
    5028                      .dwattr $C$DW$515, DW_AT_type(*$C$DW$T$102)
    5029                      .dwattr $C$DW$515, DW_AT_name("pReadBuf")
    5030                      .dwattr $C$DW$515, DW_AT_TI_symbol_name("_pReadBuf")
    5031                      .dwattr $C$DW$515, DW_AT_data_member_location[DW_OP_plus_uconst 0x6]
    5032                      .dwattr $C$DW$515, DW_AT_accessibility(DW_ACCESS_public)
    5033              $C$DW$516       .dwtag  DW_TAG_member
    5034                      .dwattr $C$DW$516, DW_AT_type(*$C$DW$T$103)
    5035                      .dwattr $C$DW$516, DW_AT_name("pWriteBuf")
    5036                      .dwattr $C$DW$516, DW_AT_TI_symbol_name("_pWriteBuf")
    5037                      .dwattr $C$DW$516, DW_AT_data_member_location[DW_OP_plus_uconst 0x8]
    5038                      .dwattr $C$DW$516, DW_AT_accessibility(DW_ACCESS_public)
    5039              $C$DW$517       .dwtag  DW_TAG_member
    5040                      .dwattr $C$DW$517, DW_AT_type(*$C$DW$T$28)
    5041                      .dwattr $C$DW$517, DW_AT_name("currentsectorR")
    5042                      .dwattr $C$DW$517, DW_AT_TI_symbol_name("_currentsectorR")
    5043                      .dwattr $C$DW$517, DW_AT_data_member_location[DW_OP_plus_uconst 0xa]
    5044                      .dwattr $C$DW$517, DW_AT_accessibility(DW_ACCESS_public)
    5045              $C$DW$518       .dwtag  DW_TAG_member
    5046                      .dwattr $C$DW$518, DW_AT_type(*$C$DW$T$28)
    5047                      .dwattr $C$DW$518, DW_AT_name("currentwordR")
    5048                      .dwattr $C$DW$518, DW_AT_TI_symbol_name("_currentwordR")
    5049                      .dwattr $C$DW$518, DW_AT_data_member_location[DW_OP_plus_uconst 0xc]
TMS320C55x Assembler PC v4.4.1 Fri Sep 14 23:31:58 2018

Tools Copyright (c) 1996-2012 Texas Instruments Incorporated
csl_mmcsd_ataIf.asm                                                  PAGE  106

    5050                      .dwattr $C$DW$518, DW_AT_accessibility(DW_ACCESS_public)
    5051              $C$DW$519       .dwtag  DW_TAG_member
    5052                      .dwattr $C$DW$519, DW_AT_type(*$C$DW$T$28)
    5053                      .dwattr $C$DW$519, DW_AT_name("currentsectorWr")
    5054                      .dwattr $C$DW$519, DW_AT_TI_symbol_name("_currentsectorWr")
    5055                      .dwattr $C$DW$519, DW_AT_data_member_location[DW_OP_plus_uconst 0xe]
    5056                      .dwattr $C$DW$519, DW_AT_accessibility(DW_ACCESS_public)
    5057              $C$DW$520       .dwtag  DW_TAG_member
    5058                      .dwattr $C$DW$520, DW_AT_type(*$C$DW$T$28)
    5059                      .dwattr $C$DW$520, DW_AT_name("currentwordWr")
    5060                      .dwattr $C$DW$520, DW_AT_TI_symbol_name("_currentwordWr")
    5061                      .dwattr $C$DW$520, DW_AT_data_member_location[DW_OP_plus_uconst 0x10]
    5062                      .dwattr $C$DW$520, DW_AT_accessibility(DW_ACCESS_public)
    5063              $C$DW$521       .dwtag  DW_TAG_member
    5064                      .dwattr $C$DW$521, DW_AT_type(*$C$DW$T$43)
    5065                      .dwattr $C$DW$521, DW_AT_name("mmcsdCallBack")
    5066                      .dwattr $C$DW$521, DW_AT_TI_symbol_name("_mmcsdCallBack")
    5067                      .dwattr $C$DW$521, DW_AT_data_member_location[DW_OP_plus_uconst 0x12]
    5068                      .dwattr $C$DW$521, DW_AT_accessibility(DW_ACCESS_public)
    5069                      .dwendtag $C$DW$T$104
    5070              
    5071              $C$DW$T$136     .dwtag  DW_TAG_typedef, DW_AT_name("AtaMMCState")
    5072                      .dwattr $C$DW$T$136, DW_AT_type(*$C$DW$T$104)
    5073                      .dwattr $C$DW$T$136, DW_AT_language(DW_LANG_C)
    5074              $C$DW$T$137     .dwtag  DW_TAG_pointer_type
    5075                      .dwattr $C$DW$T$137, DW_AT_type(*$C$DW$T$136)
    5076                      .dwattr $C$DW$T$137, DW_AT_address_class(0x17)
    5077              
    5078              $C$DW$T$131     .dwtag  DW_TAG_structure_type
    5079                      .dwattr $C$DW$T$131, DW_AT_name("AtaStateStruct")
    5080                      .dwattr $C$DW$T$131, DW_AT_byte_size(0x44)
    5081              $C$DW$522       .dwtag  DW_TAG_member
    5082                      .dwattr $C$DW$522, DW_AT_type(*$C$DW$T$105)
    5083                      .dwattr $C$DW$522, DW_AT_name("BootPhySector")
    5084                      .dwattr $C$DW$522, DW_AT_TI_symbol_name("_BootPhySector")
    5085                      .dwattr $C$DW$522, DW_AT_data_member_location[DW_OP_plus_uconst 0x0]
    5086                      .dwattr $C$DW$522, DW_AT_accessibility(DW_ACCESS_public)
    5087              $C$DW$523       .dwtag  DW_TAG_member
    5088                      .dwattr $C$DW$523, DW_AT_type(*$C$DW$T$101)
    5089                      .dwattr $C$DW$523, DW_AT_name("FatType")
    5090                      .dwattr $C$DW$523, DW_AT_TI_symbol_name("_FatType")
    5091                      .dwattr $C$DW$523, DW_AT_data_member_location[DW_OP_plus_uconst 0x2]
    5092                      .dwattr $C$DW$523, DW_AT_accessibility(DW_ACCESS_public)
    5093              $C$DW$524       .dwtag  DW_TAG_member
    5094                      .dwattr $C$DW$524, DW_AT_type(*$C$DW$T$101)
    5095                      .dwattr $C$DW$524, DW_AT_name("WordsPerLogSector")
    5096                      .dwattr $C$DW$524, DW_AT_TI_symbol_name("_WordsPerLogSector")
    5097                      .dwattr $C$DW$524, DW_AT_data_member_location[DW_OP_plus_uconst 0x3]
    5098                      .dwattr $C$DW$524, DW_AT_accessibility(DW_ACCESS_public)
    5099              $C$DW$525       .dwtag  DW_TAG_member
    5100                      .dwattr $C$DW$525, DW_AT_type(*$C$DW$T$101)
    5101                      .dwattr $C$DW$525, DW_AT_name("LogSectorsPerCluster")
    5102                      .dwattr $C$DW$525, DW_AT_TI_symbol_name("_LogSectorsPerCluster")
    5103                      .dwattr $C$DW$525, DW_AT_data_member_location[DW_OP_plus_uconst 0x4]
    5104                      .dwattr $C$DW$525, DW_AT_accessibility(DW_ACCESS_public)
TMS320C55x Assembler PC v4.4.1 Fri Sep 14 23:31:58 2018

Tools Copyright (c) 1996-2012 Texas Instruments Incorporated
csl_mmcsd_ataIf.asm                                                  PAGE  107

    5105              $C$DW$526       .dwtag  DW_TAG_member
    5106                      .dwattr $C$DW$526, DW_AT_type(*$C$DW$T$101)
    5107                      .dwattr $C$DW$526, DW_AT_name("RootDirEntries")
    5108                      .dwattr $C$DW$526, DW_AT_TI_symbol_name("_RootDirEntries")
    5109                      .dwattr $C$DW$526, DW_AT_data_member_location[DW_OP_plus_uconst 0x5]
    5110                      .dwattr $C$DW$526, DW_AT_accessibility(DW_ACCESS_public)
    5111              $C$DW$527       .dwtag  DW_TAG_member
    5112                      .dwattr $C$DW$527, DW_AT_type(*$C$DW$T$106)
    5113                      .dwattr $C$DW$527, DW_AT_name("LogSectorsPerFat")
    5114                      .dwattr $C$DW$527, DW_AT_TI_symbol_name("_LogSectorsPerFat")
    5115                      .dwattr $C$DW$527, DW_AT_data_member_location[DW_OP_plus_uconst 0x6]
    5116                      .dwattr $C$DW$527, DW_AT_accessibility(DW_ACCESS_public)
    5117              $C$DW$528       .dwtag  DW_TAG_member
    5118                      .dwattr $C$DW$528, DW_AT_type(*$C$DW$T$105)
    5119                      .dwattr $C$DW$528, DW_AT_name("FirstFatSector")
    5120                      .dwattr $C$DW$528, DW_AT_TI_symbol_name("_FirstFatSector")
    5121                      .dwattr $C$DW$528, DW_AT_data_member_location[DW_OP_plus_uconst 0x8]
    5122                      .dwattr $C$DW$528, DW_AT_accessibility(DW_ACCESS_public)
    5123              $C$DW$529       .dwtag  DW_TAG_member
    5124                      .dwattr $C$DW$529, DW_AT_type(*$C$DW$T$105)
    5125                      .dwattr $C$DW$529, DW_AT_name("RootDirSector")
    5126                      .dwattr $C$DW$529, DW_AT_TI_symbol_name("_RootDirSector")
    5127                      .dwattr $C$DW$529, DW_AT_data_member_location[DW_OP_plus_uconst 0xa]
    5128                      .dwattr $C$DW$529, DW_AT_accessibility(DW_ACCESS_public)
    5129              $C$DW$530       .dwtag  DW_TAG_member
    5130                      .dwattr $C$DW$530, DW_AT_type(*$C$DW$T$105)
    5131                      .dwattr $C$DW$530, DW_AT_name("FirstDataSector")
    5132                      .dwattr $C$DW$530, DW_AT_TI_symbol_name("_FirstDataSector")
    5133                      .dwattr $C$DW$530, DW_AT_data_member_location[DW_OP_plus_uconst 0xc]
    5134                      .dwattr $C$DW$530, DW_AT_accessibility(DW_ACCESS_public)
    5135              $C$DW$531       .dwtag  DW_TAG_member
    5136                      .dwattr $C$DW$531, DW_AT_type(*$C$DW$T$105)
    5137                      .dwattr $C$DW$531, DW_AT_name("TotalSectors")
    5138                      .dwattr $C$DW$531, DW_AT_TI_symbol_name("_TotalSectors")
    5139                      .dwattr $C$DW$531, DW_AT_data_member_location[DW_OP_plus_uconst 0xe]
    5140                      .dwattr $C$DW$531, DW_AT_accessibility(DW_ACCESS_public)
    5141              $C$DW$532       .dwtag  DW_TAG_member
    5142                      .dwattr $C$DW$532, DW_AT_type(*$C$DW$T$101)
    5143                      .dwattr $C$DW$532, DW_AT_name("Data")
    5144                      .dwattr $C$DW$532, DW_AT_TI_symbol_name("_Data")
    5145                      .dwattr $C$DW$532, DW_AT_data_member_location[DW_OP_plus_uconst 0x10]
    5146                      .dwattr $C$DW$532, DW_AT_accessibility(DW_ACCESS_public)
    5147              $C$DW$533       .dwtag  DW_TAG_member
    5148                      .dwattr $C$DW$533, DW_AT_type(*$C$DW$T$101)
    5149                      .dwattr $C$DW$533, DW_AT_name("CurrentWord")
    5150                      .dwattr $C$DW$533, DW_AT_TI_symbol_name("_CurrentWord")
    5151                      .dwattr $C$DW$533, DW_AT_data_member_location[DW_OP_plus_uconst 0x11]
    5152                      .dwattr $C$DW$533, DW_AT_accessibility(DW_ACCESS_public)
    5153              $C$DW$534       .dwtag  DW_TAG_member
    5154                      .dwattr $C$DW$534, DW_AT_type(*$C$DW$T$105)
    5155                      .dwattr $C$DW$534, DW_AT_name("CurrentPhySector")
    5156                      .dwattr $C$DW$534, DW_AT_TI_symbol_name("_CurrentPhySector")
    5157                      .dwattr $C$DW$534, DW_AT_data_member_location[DW_OP_plus_uconst 0x12]
    5158                      .dwattr $C$DW$534, DW_AT_accessibility(DW_ACCESS_public)
    5159              $C$DW$535       .dwtag  DW_TAG_member
TMS320C55x Assembler PC v4.4.1 Fri Sep 14 23:31:58 2018

Tools Copyright (c) 1996-2012 Texas Instruments Incorporated
csl_mmcsd_ataIf.asm                                                  PAGE  108

    5160                      .dwattr $C$DW$535, DW_AT_type(*$C$DW$T$101)
    5161                      .dwattr $C$DW$535, DW_AT_name("WordsPerCluster")
    5162                      .dwattr $C$DW$535, DW_AT_TI_symbol_name("_WordsPerCluster")
    5163                      .dwattr $C$DW$535, DW_AT_data_member_location[DW_OP_plus_uconst 0x14]
    5164                      .dwattr $C$DW$535, DW_AT_accessibility(DW_ACCESS_public)
    5165              $C$DW$536       .dwtag  DW_TAG_member
    5166                      .dwattr $C$DW$536, DW_AT_type(*$C$DW$T$101)
    5167                      .dwattr $C$DW$536, DW_AT_name("NumberOfFats")
    5168                      .dwattr $C$DW$536, DW_AT_TI_symbol_name("_NumberOfFats")
    5169                      .dwattr $C$DW$536, DW_AT_data_member_location[DW_OP_plus_uconst 0x15]
    5170                      .dwattr $C$DW$536, DW_AT_accessibility(DW_ACCESS_public)
    5171              $C$DW$537       .dwtag  DW_TAG_member
    5172                      .dwattr $C$DW$537, DW_AT_type(*$C$DW$T$101)
    5173                      .dwattr $C$DW$537, DW_AT_name("MFWFlag")
    5174                      .dwattr $C$DW$537, DW_AT_TI_symbol_name("_MFWFlag")
    5175                      .dwattr $C$DW$537, DW_AT_data_member_location[DW_OP_plus_uconst 0x16]
    5176                      .dwattr $C$DW$537, DW_AT_accessibility(DW_ACCESS_public)
    5177              $C$DW$538       .dwtag  DW_TAG_member
    5178                      .dwattr $C$DW$538, DW_AT_type(*$C$DW$T$107)
    5179                      .dwattr $C$DW$538, DW_AT_name("Err_Status")
    5180                      .dwattr $C$DW$538, DW_AT_TI_symbol_name("_Err_Status")
    5181                      .dwattr $C$DW$538, DW_AT_data_member_location[DW_OP_plus_uconst 0x17]
    5182                      .dwattr $C$DW$538, DW_AT_accessibility(DW_ACCESS_public)
    5183              $C$DW$539       .dwtag  DW_TAG_member
    5184                      .dwattr $C$DW$539, DW_AT_type(*$C$DW$T$3)
    5185                      .dwattr $C$DW$539, DW_AT_name("pAtaMediaState")
    5186                      .dwattr $C$DW$539, DW_AT_TI_symbol_name("_pAtaMediaState")
    5187                      .dwattr $C$DW$539, DW_AT_data_member_location[DW_OP_plus_uconst 0x18]
    5188                      .dwattr $C$DW$539, DW_AT_accessibility(DW_ACCESS_public)
    5189              $C$DW$540       .dwtag  DW_TAG_member
    5190                      .dwattr $C$DW$540, DW_AT_type(*$C$DW$T$109)
    5191                      .dwattr $C$DW$540, DW_AT_name("AtaReset")
    5192                      .dwattr $C$DW$540, DW_AT_TI_symbol_name("_AtaReset")
    5193                      .dwattr $C$DW$540, DW_AT_data_member_location[DW_OP_plus_uconst 0x1a]
    5194                      .dwattr $C$DW$540, DW_AT_accessibility(DW_ACCESS_public)
    5195              $C$DW$541       .dwtag  DW_TAG_member
    5196                      .dwattr $C$DW$541, DW_AT_type(*$C$DW$T$111)
    5197                      .dwattr $C$DW$541, DW_AT_name("AtaCommandReadyStatusCheck")
    5198                      .dwattr $C$DW$541, DW_AT_TI_symbol_name("_AtaCommandReadyStatusCheck")
    5199                      .dwattr $C$DW$541, DW_AT_data_member_location[DW_OP_plus_uconst 0x1c]
    5200                      .dwattr $C$DW$541, DW_AT_accessibility(DW_ACCESS_public)
    5201              $C$DW$542       .dwtag  DW_TAG_member
    5202                      .dwattr $C$DW$542, DW_AT_type(*$C$DW$T$109)
    5203                      .dwattr $C$DW$542, DW_AT_name("AtaBusyStatusCheck")
    5204                      .dwattr $C$DW$542, DW_AT_TI_symbol_name("_AtaBusyStatusCheck")
    5205                      .dwattr $C$DW$542, DW_AT_data_member_location[DW_OP_plus_uconst 0x1e]
    5206                      .dwattr $C$DW$542, DW_AT_accessibility(DW_ACCESS_public)
    5207              $C$DW$543       .dwtag  DW_TAG_member
    5208                      .dwattr $C$DW$543, DW_AT_type(*$C$DW$T$116)
    5209                      .dwattr $C$DW$543, DW_AT_name("AtaGetSerialID")
    5210                      .dwattr $C$DW$543, DW_AT_TI_symbol_name("_AtaGetSerialID")
    5211                      .dwattr $C$DW$543, DW_AT_data_member_location[DW_OP_plus_uconst 0x20]
    5212                      .dwattr $C$DW$543, DW_AT_accessibility(DW_ACCESS_public)
    5213              $C$DW$544       .dwtag  DW_TAG_member
    5214                      .dwattr $C$DW$544, DW_AT_type(*$C$DW$T$118)
TMS320C55x Assembler PC v4.4.1 Fri Sep 14 23:31:58 2018

Tools Copyright (c) 1996-2012 Texas Instruments Incorporated
csl_mmcsd_ataIf.asm                                                  PAGE  109

    5215                      .dwattr $C$DW$544, DW_AT_name("AtaIssueReadCommand")
    5216                      .dwattr $C$DW$544, DW_AT_TI_symbol_name("_AtaIssueReadCommand")
    5217                      .dwattr $C$DW$544, DW_AT_data_member_location[DW_OP_plus_uconst 0x22]
    5218                      .dwattr $C$DW$544, DW_AT_accessibility(DW_ACCESS_public)
    5219              $C$DW$545       .dwtag  DW_TAG_member
    5220                      .dwattr $C$DW$545, DW_AT_type(*$C$DW$T$109)
    5221                      .dwattr $C$DW$545, DW_AT_name("AtaDataReadyStatusCheck")
    5222                      .dwattr $C$DW$545, DW_AT_TI_symbol_name("_AtaDataReadyStatusCheck")
    5223                      .dwattr $C$DW$545, DW_AT_data_member_location[DW_OP_plus_uconst 0x24]
    5224                      .dwattr $C$DW$545, DW_AT_accessibility(DW_ACCESS_public)
    5225              $C$DW$546       .dwtag  DW_TAG_member
    5226                      .dwattr $C$DW$546, DW_AT_type(*$C$DW$T$120)
    5227                      .dwattr $C$DW$546, DW_AT_name("AtaReadNextWord")
    5228                      .dwattr $C$DW$546, DW_AT_TI_symbol_name("_AtaReadNextWord")
    5229                      .dwattr $C$DW$546, DW_AT_data_member_location[DW_OP_plus_uconst 0x26]
    5230                      .dwattr $C$DW$546, DW_AT_accessibility(DW_ACCESS_public)
    5231              $C$DW$547       .dwtag  DW_TAG_member
    5232                      .dwattr $C$DW$547, DW_AT_type(*$C$DW$T$122)
    5233                      .dwattr $C$DW$547, DW_AT_name("AtaReadNextWord1")
    5234                      .dwattr $C$DW$547, DW_AT_TI_symbol_name("_AtaReadNextWord1")
    5235                      .dwattr $C$DW$547, DW_AT_data_member_location[DW_OP_plus_uconst 0x28]
    5236                      .dwattr $C$DW$547, DW_AT_accessibility(DW_ACCESS_public)
    5237              $C$DW$548       .dwtag  DW_TAG_member
    5238                      .dwattr $C$DW$548, DW_AT_type(*$C$DW$T$122)
    5239                      .dwattr $C$DW$548, DW_AT_name("AtaReadNextNWords")
    5240                      .dwattr $C$DW$548, DW_AT_TI_symbol_name("_AtaReadNextNWords")
    5241                      .dwattr $C$DW$548, DW_AT_data_member_location[DW_OP_plus_uconst 0x2a]
    5242                      .dwattr $C$DW$548, DW_AT_accessibility(DW_ACCESS_public)
    5243              $C$DW$549       .dwtag  DW_TAG_member
    5244                      .dwattr $C$DW$549, DW_AT_type(*$C$DW$T$124)
    5245                      .dwattr $C$DW$549, DW_AT_name("AtaWriteSector")
    5246                      .dwattr $C$DW$549, DW_AT_TI_symbol_name("_AtaWriteSector")
    5247                      .dwattr $C$DW$549, DW_AT_data_member_location[DW_OP_plus_uconst 0x2c]
    5248                      .dwattr $C$DW$549, DW_AT_accessibility(DW_ACCESS_public)
    5249              $C$DW$550       .dwtag  DW_TAG_member
    5250                      .dwattr $C$DW$550, DW_AT_type(*$C$DW$T$109)
    5251                      .dwattr $C$DW$550, DW_AT_name("AtaWriteSectorFlush")
    5252                      .dwattr $C$DW$550, DW_AT_TI_symbol_name("_AtaWriteSectorFlush")
    5253                      .dwattr $C$DW$550, DW_AT_data_member_location[DW_OP_plus_uconst 0x2e]
    5254                      .dwattr $C$DW$550, DW_AT_accessibility(DW_ACCESS_public)
    5255              $C$DW$551       .dwtag  DW_TAG_member
    5256                      .dwattr $C$DW$551, DW_AT_type(*$C$DW$T$109)
    5257                      .dwattr $C$DW$551, DW_AT_name("AtaInitAtaMediaState")
    5258                      .dwattr $C$DW$551, DW_AT_TI_symbol_name("_AtaInitAtaMediaState")
    5259                      .dwattr $C$DW$551, DW_AT_data_member_location[DW_OP_plus_uconst 0x30]
    5260                      .dwattr $C$DW$551, DW_AT_accessibility(DW_ACCESS_public)
    5261              $C$DW$552       .dwtag  DW_TAG_member
    5262                      .dwattr $C$DW$552, DW_AT_type(*$C$DW$T$109)
    5263                      .dwattr $C$DW$552, DW_AT_name("AtaFlushFat")
    5264                      .dwattr $C$DW$552, DW_AT_TI_symbol_name("_AtaFlushFat")
    5265                      .dwattr $C$DW$552, DW_AT_data_member_location[DW_OP_plus_uconst 0x32]
    5266                      .dwattr $C$DW$552, DW_AT_accessibility(DW_ACCESS_public)
    5267              $C$DW$553       .dwtag  DW_TAG_member
    5268                      .dwattr $C$DW$553, DW_AT_type(*$C$DW$T$126)
    5269                      .dwattr $C$DW$553, DW_AT_name("AtaErrorCallback")
TMS320C55x Assembler PC v4.4.1 Fri Sep 14 23:31:58 2018

Tools Copyright (c) 1996-2012 Texas Instruments Incorporated
csl_mmcsd_ataIf.asm                                                  PAGE  110

    5270                      .dwattr $C$DW$553, DW_AT_TI_symbol_name("_AtaErrorCallback")
    5271                      .dwattr $C$DW$553, DW_AT_data_member_location[DW_OP_plus_uconst 0x34]
    5272                      .dwattr $C$DW$553, DW_AT_accessibility(DW_ACCESS_public)
    5273              $C$DW$554       .dwtag  DW_TAG_member
    5274                      .dwattr $C$DW$554, DW_AT_type(*$C$DW$T$128)
    5275                      .dwattr $C$DW$554, DW_AT_name("AtaFileSystemType")
    5276                      .dwattr $C$DW$554, DW_AT_TI_symbol_name("_AtaFileSystemType")
    5277                      .dwattr $C$DW$554, DW_AT_data_member_location[DW_OP_plus_uconst 0x36]
    5278                      .dwattr $C$DW$554, DW_AT_accessibility(DW_ACCESS_public)
    5279              $C$DW$555       .dwtag  DW_TAG_member
    5280                      .dwattr $C$DW$555, DW_AT_type(*$C$DW$T$130)
    5281                      .dwattr $C$DW$555, DW_AT_name("get_mod_time")
    5282                      .dwattr $C$DW$555, DW_AT_TI_symbol_name("_get_mod_time")
    5283                      .dwattr $C$DW$555, DW_AT_data_member_location[DW_OP_plus_uconst 0x38]
    5284                      .dwattr $C$DW$555, DW_AT_accessibility(DW_ACCESS_public)
    5285              $C$DW$556       .dwtag  DW_TAG_member
    5286                      .dwattr $C$DW$556, DW_AT_type(*$C$DW$T$130)
    5287                      .dwattr $C$DW$556, DW_AT_name("get_mod_date")
    5288                      .dwattr $C$DW$556, DW_AT_TI_symbol_name("_get_mod_date")
    5289                      .dwattr $C$DW$556, DW_AT_data_member_location[DW_OP_plus_uconst 0x3a]
    5290                      .dwattr $C$DW$556, DW_AT_accessibility(DW_ACCESS_public)
    5291              $C$DW$557       .dwtag  DW_TAG_member
    5292                      .dwattr $C$DW$557, DW_AT_type(*$C$DW$T$130)
    5293                      .dwattr $C$DW$557, DW_AT_name("get_time")
    5294                      .dwattr $C$DW$557, DW_AT_TI_symbol_name("_get_time")
    5295                      .dwattr $C$DW$557, DW_AT_data_member_location[DW_OP_plus_uconst 0x3c]
    5296                      .dwattr $C$DW$557, DW_AT_accessibility(DW_ACCESS_public)
    5297              $C$DW$558       .dwtag  DW_TAG_member
    5298                      .dwattr $C$DW$558, DW_AT_type(*$C$DW$T$130)
    5299                      .dwattr $C$DW$558, DW_AT_name("get_date")
    5300                      .dwattr $C$DW$558, DW_AT_TI_symbol_name("_get_date")
    5301                      .dwattr $C$DW$558, DW_AT_data_member_location[DW_OP_plus_uconst 0x3e]
    5302                      .dwattr $C$DW$558, DW_AT_accessibility(DW_ACCESS_public)
    5303              $C$DW$559       .dwtag  DW_TAG_member
    5304                      .dwattr $C$DW$559, DW_AT_type(*$C$DW$T$102)
    5305                      .dwattr $C$DW$559, DW_AT_name("_AtaWriteBuffer")
    5306                      .dwattr $C$DW$559, DW_AT_TI_symbol_name("__AtaWriteBuffer")
    5307                      .dwattr $C$DW$559, DW_AT_data_member_location[DW_OP_plus_uconst 0x40]
    5308                      .dwattr $C$DW$559, DW_AT_accessibility(DW_ACCESS_public)
    5309              $C$DW$560       .dwtag  DW_TAG_member
    5310                      .dwattr $C$DW$560, DW_AT_type(*$C$DW$T$105)
    5311                      .dwattr $C$DW$560, DW_AT_name("_AtaWriteCurrentPhySector")
    5312                      .dwattr $C$DW$560, DW_AT_TI_symbol_name("__AtaWriteCurrentPhySector")
    5313                      .dwattr $C$DW$560, DW_AT_data_member_location[DW_OP_plus_uconst 0x42]
    5314                      .dwattr $C$DW$560, DW_AT_accessibility(DW_ACCESS_public)
    5315                      .dwendtag $C$DW$T$131
    5316              
    5317              $C$DW$T$99      .dwtag  DW_TAG_typedef, DW_AT_name("AtaState")
    5318                      .dwattr $C$DW$T$99, DW_AT_type(*$C$DW$T$131)
    5319                      .dwattr $C$DW$T$99, DW_AT_language(DW_LANG_C)
    5320              $C$DW$T$100     .dwtag  DW_TAG_pointer_type
    5321                      .dwattr $C$DW$T$100, DW_AT_type(*$C$DW$T$99)
    5322                      .dwattr $C$DW$T$100, DW_AT_address_class(0x17)
    5323              $C$DW$T$3       .dwtag  DW_TAG_pointer_type
    5324                      .dwattr $C$DW$T$3, DW_AT_address_class(0x17)
TMS320C55x Assembler PC v4.4.1 Fri Sep 14 23:31:58 2018

Tools Copyright (c) 1996-2012 Texas Instruments Incorporated
csl_mmcsd_ataIf.asm                                                  PAGE  111

    5325              
    5326              $C$DW$T$42      .dwtag  DW_TAG_subroutine_type
    5327                      .dwattr $C$DW$T$42, DW_AT_language(DW_LANG_C)
    5328              $C$DW$T$43      .dwtag  DW_TAG_pointer_type
    5329                      .dwattr $C$DW$T$43, DW_AT_type(*$C$DW$T$42)
    5330                      .dwattr $C$DW$T$43, DW_AT_address_class(0x20)
    5331              $C$DW$T$44      .dwtag  DW_TAG_typedef, DW_AT_name("CSL_MMCCallBackPtr")
    5332                      .dwattr $C$DW$T$44, DW_AT_type(*$C$DW$T$43)
    5333                      .dwattr $C$DW$T$44, DW_AT_language(DW_LANG_C)
    5334              
    5335              $C$DW$T$45      .dwtag  DW_TAG_array_type
    5336                      .dwattr $C$DW$T$45, DW_AT_type(*$C$DW$T$44)
    5337                      .dwattr $C$DW$T$45, DW_AT_language(DW_LANG_C)
    5338                      .dwattr $C$DW$T$45, DW_AT_byte_size(0x18)
    5339              $C$DW$561       .dwtag  DW_TAG_subrange_type
    5340                      .dwattr $C$DW$561, DW_AT_upper_bound(0x0b)
    5341                      .dwendtag $C$DW$T$45
    5342              
    5343              
    5344              $C$DW$T$91      .dwtag  DW_TAG_subroutine_type
    5345                      .dwattr $C$DW$T$91, DW_AT_language(DW_LANG_C)
    5346              $C$DW$562       .dwtag  DW_TAG_formal_parameter
    5347                      .dwattr $C$DW$562, DW_AT_type(*$C$DW$T$3)
    5348                      .dwendtag $C$DW$T$91
    5349              
    5350              $C$DW$T$92      .dwtag  DW_TAG_pointer_type
    5351                      .dwattr $C$DW$T$92, DW_AT_type(*$C$DW$T$91)
    5352                      .dwattr $C$DW$T$92, DW_AT_address_class(0x20)
    5353              $C$DW$T$93      .dwtag  DW_TAG_typedef, DW_AT_name("CSL_MMCDataTxferCallBackPtr")
    5354                      .dwattr $C$DW$T$93, DW_AT_type(*$C$DW$T$92)
    5355                      .dwattr $C$DW$T$93, DW_AT_language(DW_LANG_C)
    5356              
    5357              $C$DW$T$125     .dwtag  DW_TAG_subroutine_type
    5358                      .dwattr $C$DW$T$125, DW_AT_language(DW_LANG_C)
    5359              $C$DW$563       .dwtag  DW_TAG_formal_parameter
    5360                      .dwattr $C$DW$563, DW_AT_type(*$C$DW$T$9)
    5361                      .dwendtag $C$DW$T$125
    5362              
    5363              $C$DW$T$126     .dwtag  DW_TAG_pointer_type
    5364                      .dwattr $C$DW$T$126, DW_AT_type(*$C$DW$T$125)
    5365                      .dwattr $C$DW$T$126, DW_AT_address_class(0x20)
    5366              $C$DW$T$4       .dwtag  DW_TAG_base_type
    5367                      .dwattr $C$DW$T$4, DW_AT_encoding(DW_ATE_boolean)
    5368                      .dwattr $C$DW$T$4, DW_AT_name("bool")
    5369                      .dwattr $C$DW$T$4, DW_AT_byte_size(0x01)
    5370              $C$DW$T$5       .dwtag  DW_TAG_base_type
    5371                      .dwattr $C$DW$T$5, DW_AT_encoding(DW_ATE_signed_char)
    5372                      .dwattr $C$DW$T$5, DW_AT_name("signed char")
    5373                      .dwattr $C$DW$T$5, DW_AT_byte_size(0x01)
    5374              $C$DW$T$6       .dwtag  DW_TAG_base_type
    5375                      .dwattr $C$DW$T$6, DW_AT_encoding(DW_ATE_unsigned_char)
    5376                      .dwattr $C$DW$T$6, DW_AT_name("unsigned char")
    5377                      .dwattr $C$DW$T$6, DW_AT_byte_size(0x01)
    5378              $C$DW$T$26      .dwtag  DW_TAG_typedef, DW_AT_name("Uint8")
    5379                      .dwattr $C$DW$T$26, DW_AT_type(*$C$DW$T$6)
TMS320C55x Assembler PC v4.4.1 Fri Sep 14 23:31:58 2018

Tools Copyright (c) 1996-2012 Texas Instruments Incorporated
csl_mmcsd_ataIf.asm                                                  PAGE  112

    5380                      .dwattr $C$DW$T$26, DW_AT_language(DW_LANG_C)
    5381              
    5382              $C$DW$T$27      .dwtag  DW_TAG_array_type
    5383                      .dwattr $C$DW$T$27, DW_AT_type(*$C$DW$T$26)
    5384                      .dwattr $C$DW$T$27, DW_AT_language(DW_LANG_C)
    5385                      .dwattr $C$DW$T$27, DW_AT_byte_size(0x06)
    5386              $C$DW$564       .dwtag  DW_TAG_subrange_type
    5387                      .dwattr $C$DW$564, DW_AT_upper_bound(0x05)
    5388                      .dwendtag $C$DW$T$27
    5389              
    5390              $C$DW$T$7       .dwtag  DW_TAG_base_type
    5391                      .dwattr $C$DW$T$7, DW_AT_encoding(DW_ATE_signed_char)
    5392                      .dwattr $C$DW$T$7, DW_AT_name("wchar_t")
    5393                      .dwattr $C$DW$T$7, DW_AT_byte_size(0x01)
    5394              $C$DW$T$8       .dwtag  DW_TAG_base_type
    5395                      .dwattr $C$DW$T$8, DW_AT_encoding(DW_ATE_signed)
    5396                      .dwattr $C$DW$T$8, DW_AT_name("short")
    5397                      .dwattr $C$DW$T$8, DW_AT_byte_size(0x01)
    5398              $C$DW$T$138     .dwtag  DW_TAG_typedef, DW_AT_name("Int16")
    5399                      .dwattr $C$DW$T$138, DW_AT_type(*$C$DW$T$8)
    5400                      .dwattr $C$DW$T$138, DW_AT_language(DW_LANG_C)
    5401              $C$DW$T$139     .dwtag  DW_TAG_typedef, DW_AT_name("CSL_Status")
    5402                      .dwattr $C$DW$T$139, DW_AT_type(*$C$DW$T$138)
    5403                      .dwattr $C$DW$T$139, DW_AT_language(DW_LANG_C)
    5404              $C$DW$T$9       .dwtag  DW_TAG_base_type
    5405                      .dwattr $C$DW$T$9, DW_AT_encoding(DW_ATE_unsigned)
    5406                      .dwattr $C$DW$T$9, DW_AT_name("unsigned short")
    5407                      .dwattr $C$DW$T$9, DW_AT_byte_size(0x01)
    5408              $C$DW$T$19      .dwtag  DW_TAG_typedef, DW_AT_name("Uint16")
    5409                      .dwattr $C$DW$T$19, DW_AT_type(*$C$DW$T$9)
    5410                      .dwattr $C$DW$T$19, DW_AT_language(DW_LANG_C)
    5411              $C$DW$T$101     .dwtag  DW_TAG_typedef, DW_AT_name("AtaUint16")
    5412                      .dwattr $C$DW$T$101, DW_AT_type(*$C$DW$T$19)
    5413                      .dwattr $C$DW$T$101, DW_AT_language(DW_LANG_C)
    5414              $C$DW$T$107     .dwtag  DW_TAG_typedef, DW_AT_name("AtaError")
    5415                      .dwattr $C$DW$T$107, DW_AT_type(*$C$DW$T$101)
    5416                      .dwattr $C$DW$T$107, DW_AT_language(DW_LANG_C)
    5417              
    5418              $C$DW$T$108     .dwtag  DW_TAG_subroutine_type
    5419                      .dwattr $C$DW$T$108, DW_AT_type(*$C$DW$T$107)
    5420                      .dwattr $C$DW$T$108, DW_AT_language(DW_LANG_C)
    5421              $C$DW$565       .dwtag  DW_TAG_formal_parameter
    5422                      .dwattr $C$DW$565, DW_AT_type(*$C$DW$T$3)
    5423                      .dwendtag $C$DW$T$108
    5424              
    5425              $C$DW$T$109     .dwtag  DW_TAG_pointer_type
    5426                      .dwattr $C$DW$T$109, DW_AT_type(*$C$DW$T$108)
    5427                      .dwattr $C$DW$T$109, DW_AT_address_class(0x20)
    5428              
    5429              $C$DW$T$117     .dwtag  DW_TAG_subroutine_type
    5430                      .dwattr $C$DW$T$117, DW_AT_type(*$C$DW$T$107)
    5431                      .dwattr $C$DW$T$117, DW_AT_language(DW_LANG_C)
    5432              $C$DW$566       .dwtag  DW_TAG_formal_parameter
    5433                      .dwattr $C$DW$566, DW_AT_type(*$C$DW$T$105)
    5434              $C$DW$567       .dwtag  DW_TAG_formal_parameter
TMS320C55x Assembler PC v4.4.1 Fri Sep 14 23:31:58 2018

Tools Copyright (c) 1996-2012 Texas Instruments Incorporated
csl_mmcsd_ataIf.asm                                                  PAGE  113

    5435                      .dwattr $C$DW$567, DW_AT_type(*$C$DW$T$3)
    5436              $C$DW$568       .dwtag  DW_TAG_formal_parameter
    5437                      .dwattr $C$DW$568, DW_AT_type(*$C$DW$T$101)
    5438                      .dwendtag $C$DW$T$117
    5439              
    5440              $C$DW$T$118     .dwtag  DW_TAG_pointer_type
    5441                      .dwattr $C$DW$T$118, DW_AT_type(*$C$DW$T$117)
    5442                      .dwattr $C$DW$T$118, DW_AT_address_class(0x20)
    5443              
    5444              $C$DW$T$119     .dwtag  DW_TAG_subroutine_type
    5445                      .dwattr $C$DW$T$119, DW_AT_type(*$C$DW$T$107)
    5446                      .dwattr $C$DW$T$119, DW_AT_language(DW_LANG_C)
    5447              $C$DW$569       .dwtag  DW_TAG_formal_parameter
    5448                      .dwattr $C$DW$569, DW_AT_type(*$C$DW$T$3)
    5449              $C$DW$570       .dwtag  DW_TAG_formal_parameter
    5450                      .dwattr $C$DW$570, DW_AT_type(*$C$DW$T$102)
    5451                      .dwendtag $C$DW$T$119
    5452              
    5453              $C$DW$T$120     .dwtag  DW_TAG_pointer_type
    5454                      .dwattr $C$DW$T$120, DW_AT_type(*$C$DW$T$119)
    5455                      .dwattr $C$DW$T$120, DW_AT_address_class(0x20)
    5456              
    5457              $C$DW$T$121     .dwtag  DW_TAG_subroutine_type
    5458                      .dwattr $C$DW$T$121, DW_AT_type(*$C$DW$T$107)
    5459                      .dwattr $C$DW$T$121, DW_AT_language(DW_LANG_C)
    5460              $C$DW$571       .dwtag  DW_TAG_formal_parameter
    5461                      .dwattr $C$DW$571, DW_AT_type(*$C$DW$T$3)
    5462              $C$DW$572       .dwtag  DW_TAG_formal_parameter
    5463                      .dwattr $C$DW$572, DW_AT_type(*$C$DW$T$102)
    5464              $C$DW$573       .dwtag  DW_TAG_formal_parameter
    5465                      .dwattr $C$DW$573, DW_AT_type(*$C$DW$T$101)
    5466                      .dwendtag $C$DW$T$121
    5467              
    5468              $C$DW$T$122     .dwtag  DW_TAG_pointer_type
    5469                      .dwattr $C$DW$T$122, DW_AT_type(*$C$DW$T$121)
    5470                      .dwattr $C$DW$T$122, DW_AT_address_class(0x20)
    5471              
    5472              $C$DW$T$123     .dwtag  DW_TAG_subroutine_type
    5473                      .dwattr $C$DW$T$123, DW_AT_type(*$C$DW$T$107)
    5474                      .dwattr $C$DW$T$123, DW_AT_language(DW_LANG_C)
    5475              $C$DW$574       .dwtag  DW_TAG_formal_parameter
    5476                      .dwattr $C$DW$574, DW_AT_type(*$C$DW$T$105)
    5477              $C$DW$575       .dwtag  DW_TAG_formal_parameter
    5478                      .dwattr $C$DW$575, DW_AT_type(*$C$DW$T$3)
    5479              $C$DW$576       .dwtag  DW_TAG_formal_parameter
    5480                      .dwattr $C$DW$576, DW_AT_type(*$C$DW$T$102)
    5481              $C$DW$577       .dwtag  DW_TAG_formal_parameter
    5482                      .dwattr $C$DW$577, DW_AT_type(*$C$DW$T$10)
    5483                      .dwendtag $C$DW$T$123
    5484              
    5485              $C$DW$T$124     .dwtag  DW_TAG_pointer_type
    5486                      .dwattr $C$DW$T$124, DW_AT_type(*$C$DW$T$123)
    5487                      .dwattr $C$DW$T$124, DW_AT_address_class(0x20)
    5488              $C$DW$T$102     .dwtag  DW_TAG_pointer_type
    5489                      .dwattr $C$DW$T$102, DW_AT_type(*$C$DW$T$101)
TMS320C55x Assembler PC v4.4.1 Fri Sep 14 23:31:58 2018

Tools Copyright (c) 1996-2012 Texas Instruments Incorporated
csl_mmcsd_ataIf.asm                                                  PAGE  114

    5490                      .dwattr $C$DW$T$102, DW_AT_address_class(0x17)
    5491              
    5492              $C$DW$T$112     .dwtag  DW_TAG_array_type
    5493                      .dwattr $C$DW$T$112, DW_AT_type(*$C$DW$T$101)
    5494                      .dwattr $C$DW$T$112, DW_AT_language(DW_LANG_C)
    5495                      .dwattr $C$DW$T$112, DW_AT_byte_size(0x10)
    5496              $C$DW$578       .dwtag  DW_TAG_subrange_type
    5497                      .dwattr $C$DW$578, DW_AT_upper_bound(0x0f)
    5498                      .dwendtag $C$DW$T$112
    5499              
    5500              $C$DW$T$113     .dwtag  DW_TAG_typedef, DW_AT_name("AtaSerialID")
    5501                      .dwattr $C$DW$T$113, DW_AT_type(*$C$DW$T$112)
    5502                      .dwattr $C$DW$T$113, DW_AT_language(DW_LANG_C)
    5503              $C$DW$T$114     .dwtag  DW_TAG_pointer_type
    5504                      .dwattr $C$DW$T$114, DW_AT_type(*$C$DW$T$113)
    5505                      .dwattr $C$DW$T$114, DW_AT_address_class(0x17)
    5506              
    5507              $C$DW$T$115     .dwtag  DW_TAG_subroutine_type
    5508                      .dwattr $C$DW$T$115, DW_AT_type(*$C$DW$T$101)
    5509                      .dwattr $C$DW$T$115, DW_AT_language(DW_LANG_C)
    5510              $C$DW$579       .dwtag  DW_TAG_formal_parameter
    5511                      .dwattr $C$DW$579, DW_AT_type(*$C$DW$T$3)
    5512              $C$DW$580       .dwtag  DW_TAG_formal_parameter
    5513                      .dwattr $C$DW$580, DW_AT_type(*$C$DW$T$114)
    5514                      .dwendtag $C$DW$T$115
    5515              
    5516              $C$DW$T$116     .dwtag  DW_TAG_pointer_type
    5517                      .dwattr $C$DW$T$116, DW_AT_type(*$C$DW$T$115)
    5518                      .dwattr $C$DW$T$116, DW_AT_address_class(0x20)
    5519              
    5520              $C$DW$T$127     .dwtag  DW_TAG_subroutine_type
    5521                      .dwattr $C$DW$T$127, DW_AT_type(*$C$DW$T$101)
    5522                      .dwattr $C$DW$T$127, DW_AT_language(DW_LANG_C)
    5523              $C$DW$581       .dwtag  DW_TAG_formal_parameter
    5524                      .dwattr $C$DW$581, DW_AT_type(*$C$DW$T$3)
    5525                      .dwendtag $C$DW$T$127
    5526              
    5527              $C$DW$T$128     .dwtag  DW_TAG_pointer_type
    5528                      .dwattr $C$DW$T$128, DW_AT_type(*$C$DW$T$127)
    5529                      .dwattr $C$DW$T$128, DW_AT_address_class(0x20)
    5530              
    5531              $C$DW$T$129     .dwtag  DW_TAG_subroutine_type
    5532                      .dwattr $C$DW$T$129, DW_AT_type(*$C$DW$T$101)
    5533                      .dwattr $C$DW$T$129, DW_AT_language(DW_LANG_C)
    5534              $C$DW$T$130     .dwtag  DW_TAG_pointer_type
    5535                      .dwattr $C$DW$T$130, DW_AT_type(*$C$DW$T$129)
    5536                      .dwattr $C$DW$T$130, DW_AT_address_class(0x20)
    5537              $C$DW$582       .dwtag  DW_TAG_TI_far_type
    5538                      .dwattr $C$DW$582, DW_AT_type(*$C$DW$T$19)
    5539              $C$DW$T$20      .dwtag  DW_TAG_volatile_type
    5540                      .dwattr $C$DW$T$20, DW_AT_type(*$C$DW$582)
    5541              
    5542              $C$DW$T$21      .dwtag  DW_TAG_array_type
    5543                      .dwattr $C$DW$T$21, DW_AT_type(*$C$DW$T$20)
    5544                      .dwattr $C$DW$T$21, DW_AT_language(DW_LANG_C)
TMS320C55x Assembler PC v4.4.1 Fri Sep 14 23:31:58 2018

Tools Copyright (c) 1996-2012 Texas Instruments Incorporated
csl_mmcsd_ataIf.asm                                                  PAGE  115

    5545                      .dwattr $C$DW$T$21, DW_AT_byte_size(0x03)
    5546              $C$DW$583       .dwtag  DW_TAG_subrange_type
    5547                      .dwattr $C$DW$583, DW_AT_upper_bound(0x02)
    5548                      .dwendtag $C$DW$T$21
    5549              
    5550              
    5551              $C$DW$T$22      .dwtag  DW_TAG_array_type
    5552                      .dwattr $C$DW$T$22, DW_AT_type(*$C$DW$T$20)
    5553                      .dwattr $C$DW$T$22, DW_AT_language(DW_LANG_C)
    5554                      .dwattr $C$DW$T$22, DW_AT_byte_size(0x02)
    5555              $C$DW$584       .dwtag  DW_TAG_subrange_type
    5556                      .dwattr $C$DW$584, DW_AT_upper_bound(0x01)
    5557                      .dwendtag $C$DW$T$22
    5558              
    5559              
    5560              $C$DW$T$23      .dwtag  DW_TAG_array_type
    5561                      .dwattr $C$DW$T$23, DW_AT_type(*$C$DW$T$20)
    5562                      .dwattr $C$DW$T$23, DW_AT_language(DW_LANG_C)
    5563                      .dwattr $C$DW$T$23, DW_AT_byte_size(0x07)
    5564              $C$DW$585       .dwtag  DW_TAG_subrange_type
    5565                      .dwattr $C$DW$585, DW_AT_upper_bound(0x06)
    5566                      .dwendtag $C$DW$T$23
    5567              
    5568              
    5569              $C$DW$T$24      .dwtag  DW_TAG_array_type
    5570                      .dwattr $C$DW$T$24, DW_AT_type(*$C$DW$T$20)
    5571                      .dwattr $C$DW$T$24, DW_AT_language(DW_LANG_C)
    5572                      .dwattr $C$DW$T$24, DW_AT_byte_size(0x13)
    5573              $C$DW$586       .dwtag  DW_TAG_subrange_type
    5574                      .dwattr $C$DW$586, DW_AT_upper_bound(0x12)
    5575                      .dwendtag $C$DW$T$24
    5576              
    5577              
    5578              $C$DW$T$47      .dwtag  DW_TAG_array_type
    5579                      .dwattr $C$DW$T$47, DW_AT_type(*$C$DW$T$20)
    5580                      .dwattr $C$DW$T$47, DW_AT_language(DW_LANG_C)
    5581                      .dwattr $C$DW$T$47, DW_AT_byte_size(0x1a)
    5582              $C$DW$587       .dwtag  DW_TAG_subrange_type
    5583                      .dwattr $C$DW$587, DW_AT_upper_bound(0x19)
    5584                      .dwendtag $C$DW$T$47
    5585              
    5586              $C$DW$T$103     .dwtag  DW_TAG_pointer_type
    5587                      .dwattr $C$DW$T$103, DW_AT_type(*$C$DW$T$19)
    5588                      .dwattr $C$DW$T$103, DW_AT_address_class(0x17)
    5589              
    5590              $C$DW$T$151     .dwtag  DW_TAG_array_type
    5591                      .dwattr $C$DW$T$151, DW_AT_type(*$C$DW$T$19)
    5592                      .dwattr $C$DW$T$151, DW_AT_language(DW_LANG_C)
    5593                      .dwattr $C$DW$T$151, DW_AT_byte_size(0x100)
    5594              $C$DW$588       .dwtag  DW_TAG_subrange_type
    5595                      .dwattr $C$DW$588, DW_AT_upper_bound(0xff)
    5596                      .dwendtag $C$DW$T$151
    5597              
    5598              
    5599              $C$DW$T$152     .dwtag  DW_TAG_array_type
TMS320C55x Assembler PC v4.4.1 Fri Sep 14 23:31:58 2018

Tools Copyright (c) 1996-2012 Texas Instruments Incorporated
csl_mmcsd_ataIf.asm                                                  PAGE  116

    5600                      .dwattr $C$DW$T$152, DW_AT_type(*$C$DW$T$19)
    5601                      .dwattr $C$DW$T$152, DW_AT_language(DW_LANG_C)
    5602                      .dwattr $C$DW$T$152, DW_AT_byte_size(0x400)
    5603              $C$DW$589       .dwtag  DW_TAG_subrange_type
    5604                      .dwattr $C$DW$589, DW_AT_upper_bound(0x3ff)
    5605                      .dwendtag $C$DW$T$152
    5606              
    5607              $C$DW$T$10      .dwtag  DW_TAG_base_type
    5608                      .dwattr $C$DW$T$10, DW_AT_encoding(DW_ATE_signed)
    5609                      .dwattr $C$DW$T$10, DW_AT_name("int")
    5610                      .dwattr $C$DW$T$10, DW_AT_byte_size(0x01)
    5611              $C$DW$T$40      .dwtag  DW_TAG_typedef, DW_AT_name("Bool")
    5612                      .dwattr $C$DW$T$40, DW_AT_type(*$C$DW$T$10)
    5613                      .dwattr $C$DW$T$40, DW_AT_language(DW_LANG_C)
    5614              
    5615              $C$DW$T$110     .dwtag  DW_TAG_subroutine_type
    5616                      .dwattr $C$DW$T$110, DW_AT_type(*$C$DW$T$10)
    5617                      .dwattr $C$DW$T$110, DW_AT_language(DW_LANG_C)
    5618              $C$DW$590       .dwtag  DW_TAG_formal_parameter
    5619                      .dwattr $C$DW$590, DW_AT_type(*$C$DW$T$3)
    5620                      .dwendtag $C$DW$T$110
    5621              
    5622              $C$DW$T$111     .dwtag  DW_TAG_pointer_type
    5623                      .dwattr $C$DW$T$111, DW_AT_type(*$C$DW$T$110)
    5624                      .dwattr $C$DW$T$111, DW_AT_address_class(0x20)
    5625              $C$DW$T$11      .dwtag  DW_TAG_base_type
    5626                      .dwattr $C$DW$T$11, DW_AT_encoding(DW_ATE_unsigned)
    5627                      .dwattr $C$DW$T$11, DW_AT_name("unsigned int")
    5628                      .dwattr $C$DW$T$11, DW_AT_byte_size(0x01)
    5629              $C$DW$T$145     .dwtag  DW_TAG_pointer_type
    5630                      .dwattr $C$DW$T$145, DW_AT_type(*$C$DW$T$11)
    5631                      .dwattr $C$DW$T$145, DW_AT_address_class(0x17)
    5632              $C$DW$T$12      .dwtag  DW_TAG_base_type
    5633                      .dwattr $C$DW$T$12, DW_AT_encoding(DW_ATE_signed)
    5634                      .dwattr $C$DW$T$12, DW_AT_name("long")
    5635                      .dwattr $C$DW$T$12, DW_AT_byte_size(0x02)
    5636              $C$DW$T$13      .dwtag  DW_TAG_base_type
    5637                      .dwattr $C$DW$T$13, DW_AT_encoding(DW_ATE_unsigned)
    5638                      .dwattr $C$DW$T$13, DW_AT_name("unsigned long")
    5639                      .dwattr $C$DW$T$13, DW_AT_byte_size(0x02)
    5640              $C$DW$T$28      .dwtag  DW_TAG_typedef, DW_AT_name("Uint32")
    5641                      .dwattr $C$DW$T$28, DW_AT_type(*$C$DW$T$13)
    5642                      .dwattr $C$DW$T$28, DW_AT_language(DW_LANG_C)
    5643              $C$DW$T$105     .dwtag  DW_TAG_typedef, DW_AT_name("AtaSector")
    5644                      .dwattr $C$DW$T$105, DW_AT_type(*$C$DW$T$28)
    5645                      .dwattr $C$DW$T$105, DW_AT_language(DW_LANG_C)
    5646              $C$DW$T$106     .dwtag  DW_TAG_typedef, DW_AT_name("AtaUint32")
    5647                      .dwattr $C$DW$T$106, DW_AT_type(*$C$DW$T$28)
    5648                      .dwattr $C$DW$T$106, DW_AT_language(DW_LANG_C)
    5649              $C$DW$T$14      .dwtag  DW_TAG_base_type
    5650                      .dwattr $C$DW$T$14, DW_AT_encoding(DW_ATE_signed)
    5651                      .dwattr $C$DW$T$14, DW_AT_name("long long")
    5652                      .dwattr $C$DW$T$14, DW_AT_byte_size(0x04)
    5653                      .dwattr $C$DW$T$14, DW_AT_bit_size(0x28)
    5654                      .dwattr $C$DW$T$14, DW_AT_bit_offset(0x18)
TMS320C55x Assembler PC v4.4.1 Fri Sep 14 23:31:58 2018

Tools Copyright (c) 1996-2012 Texas Instruments Incorporated
csl_mmcsd_ataIf.asm                                                  PAGE  117

    5655              $C$DW$T$15      .dwtag  DW_TAG_base_type
    5656                      .dwattr $C$DW$T$15, DW_AT_encoding(DW_ATE_unsigned)
    5657                      .dwattr $C$DW$T$15, DW_AT_name("unsigned long long")
    5658                      .dwattr $C$DW$T$15, DW_AT_byte_size(0x04)
    5659                      .dwattr $C$DW$T$15, DW_AT_bit_size(0x28)
    5660                      .dwattr $C$DW$T$15, DW_AT_bit_offset(0x18)
    5661              $C$DW$T$16      .dwtag  DW_TAG_base_type
    5662                      .dwattr $C$DW$T$16, DW_AT_encoding(DW_ATE_float)
    5663                      .dwattr $C$DW$T$16, DW_AT_name("float")
    5664                      .dwattr $C$DW$T$16, DW_AT_byte_size(0x02)
    5665              $C$DW$T$17      .dwtag  DW_TAG_base_type
    5666                      .dwattr $C$DW$T$17, DW_AT_encoding(DW_ATE_float)
    5667                      .dwattr $C$DW$T$17, DW_AT_name("double")
    5668                      .dwattr $C$DW$T$17, DW_AT_byte_size(0x02)
    5669              $C$DW$T$18      .dwtag  DW_TAG_base_type
    5670                      .dwattr $C$DW$T$18, DW_AT_encoding(DW_ATE_float)
    5671                      .dwattr $C$DW$T$18, DW_AT_name("long double")
    5672                      .dwattr $C$DW$T$18, DW_AT_byte_size(0x02)
    5673                      .dwattr $C$DW$CU, DW_AT_language(DW_LANG_C)
    5674              
    5675              ;***************************************************************
    5676              ;* DWARF CIE ENTRIES                                           *
    5677              ;***************************************************************
    5678              
    5679              $C$DW$CIE       .dwcie 91
    5680                      .dwcfi  cfa_register, 36
    5681                      .dwcfi  cfa_offset, 0
    5682                      .dwcfi  undefined, 0
    5683                      .dwcfi  undefined, 1
    5684                      .dwcfi  undefined, 2
    5685                      .dwcfi  undefined, 3
    5686                      .dwcfi  undefined, 4
    5687                      .dwcfi  undefined, 5
    5688                      .dwcfi  undefined, 6
    5689                      .dwcfi  undefined, 7
    5690                      .dwcfi  undefined, 8
    5691                      .dwcfi  undefined, 9
    5692                      .dwcfi  undefined, 10
    5693                      .dwcfi  undefined, 11
    5694                      .dwcfi  undefined, 12
    5695                      .dwcfi  undefined, 13
    5696                      .dwcfi  same_value, 14
    5697                      .dwcfi  same_value, 15
    5698                      .dwcfi  undefined, 16
    5699                      .dwcfi  undefined, 17
    5700                      .dwcfi  undefined, 18
    5701                      .dwcfi  undefined, 19
    5702                      .dwcfi  undefined, 20
    5703                      .dwcfi  undefined, 21
    5704                      .dwcfi  undefined, 22
    5705                      .dwcfi  undefined, 23
    5706                      .dwcfi  undefined, 24
    5707                      .dwcfi  undefined, 25
    5708                      .dwcfi  same_value, 26
    5709                      .dwcfi  same_value, 27
TMS320C55x Assembler PC v4.4.1 Fri Sep 14 23:31:58 2018

Tools Copyright (c) 1996-2012 Texas Instruments Incorporated
csl_mmcsd_ataIf.asm                                                  PAGE  118

    5710                      .dwcfi  same_value, 28
    5711                      .dwcfi  same_value, 29
    5712                      .dwcfi  same_value, 30
    5713                      .dwcfi  same_value, 31
    5714                      .dwcfi  undefined, 32
    5715                      .dwcfi  undefined, 33
    5716                      .dwcfi  undefined, 34
    5717                      .dwcfi  undefined, 35
    5718                      .dwcfi  undefined, 36
    5719                      .dwcfi  undefined, 37
    5720                      .dwcfi  undefined, 38
    5721                      .dwcfi  undefined, 39
    5722                      .dwcfi  undefined, 40
    5723                      .dwcfi  undefined, 41
    5724                      .dwcfi  undefined, 42
    5725                      .dwcfi  undefined, 43
    5726                      .dwcfi  undefined, 44
    5727                      .dwcfi  undefined, 45
    5728                      .dwcfi  undefined, 46
    5729                      .dwcfi  undefined, 47
    5730                      .dwcfi  undefined, 48
    5731                      .dwcfi  undefined, 49
    5732                      .dwcfi  undefined, 50
    5733                      .dwcfi  undefined, 51
    5734                      .dwcfi  undefined, 52
    5735                      .dwcfi  undefined, 53
    5736                      .dwcfi  undefined, 54
    5737                      .dwcfi  undefined, 55
    5738                      .dwcfi  undefined, 56
    5739                      .dwcfi  undefined, 57
    5740                      .dwcfi  undefined, 58
    5741                      .dwcfi  undefined, 59
    5742                      .dwcfi  undefined, 60
    5743                      .dwcfi  undefined, 61
    5744                      .dwcfi  undefined, 62
    5745                      .dwcfi  undefined, 63
    5746                      .dwcfi  undefined, 64
    5747                      .dwcfi  undefined, 65
    5748                      .dwcfi  undefined, 66
    5749                      .dwcfi  undefined, 67
    5750                      .dwcfi  undefined, 68
    5751                      .dwcfi  undefined, 69
    5752                      .dwcfi  undefined, 70
    5753                      .dwcfi  undefined, 71
    5754                      .dwcfi  undefined, 72
    5755                      .dwcfi  undefined, 73
    5756                      .dwcfi  undefined, 74
    5757                      .dwcfi  undefined, 75
    5758                      .dwcfi  undefined, 76
    5759                      .dwcfi  undefined, 77
    5760                      .dwcfi  undefined, 78
    5761                      .dwcfi  undefined, 79
    5762                      .dwcfi  undefined, 80
    5763                      .dwcfi  undefined, 81
    5764                      .dwcfi  undefined, 82
TMS320C55x Assembler PC v4.4.1 Fri Sep 14 23:31:58 2018

Tools Copyright (c) 1996-2012 Texas Instruments Incorporated
csl_mmcsd_ataIf.asm                                                  PAGE  119

    5765                      .dwcfi  undefined, 83
    5766                      .dwcfi  undefined, 84
    5767                      .dwcfi  undefined, 85
    5768                      .dwcfi  undefined, 86
    5769                      .dwcfi  undefined, 87
    5770                      .dwcfi  undefined, 88
    5771                      .dwcfi  undefined, 89
    5772                      .dwcfi  undefined, 90
    5773                      .dwcfi  undefined, 91
    5774                      .dwendentry
    5775              
    5776              ;***************************************************************
    5777              ;* DWARF REGISTER MAP                                          *
    5778              ;***************************************************************
    5779              
    5780              $C$DW$591       .dwtag  DW_TAG_TI_assign_register, DW_AT_name("AC0")
    5781                      .dwattr $C$DW$591, DW_AT_location[DW_OP_reg0]
    5782              $C$DW$592       .dwtag  DW_TAG_TI_assign_register, DW_AT_name("AC0")
    5783                      .dwattr $C$DW$592, DW_AT_location[DW_OP_reg1]
    5784              $C$DW$593       .dwtag  DW_TAG_TI_assign_register, DW_AT_name("AC0_G")
    5785                      .dwattr $C$DW$593, DW_AT_location[DW_OP_reg2]
    5786              $C$DW$594       .dwtag  DW_TAG_TI_assign_register, DW_AT_name("AC1")
    5787                      .dwattr $C$DW$594, DW_AT_location[DW_OP_reg3]
    5788              $C$DW$595       .dwtag  DW_TAG_TI_assign_register, DW_AT_name("AC1")
    5789                      .dwattr $C$DW$595, DW_AT_location[DW_OP_reg4]
    5790              $C$DW$596       .dwtag  DW_TAG_TI_assign_register, DW_AT_name("AC1_G")
    5791                      .dwattr $C$DW$596, DW_AT_location[DW_OP_reg5]
    5792              $C$DW$597       .dwtag  DW_TAG_TI_assign_register, DW_AT_name("AC2")
    5793                      .dwattr $C$DW$597, DW_AT_location[DW_OP_reg6]
    5794              $C$DW$598       .dwtag  DW_TAG_TI_assign_register, DW_AT_name("AC2")
    5795                      .dwattr $C$DW$598, DW_AT_location[DW_OP_reg7]
    5796              $C$DW$599       .dwtag  DW_TAG_TI_assign_register, DW_AT_name("AC2_G")
    5797                      .dwattr $C$DW$599, DW_AT_location[DW_OP_reg8]
    5798              $C$DW$600       .dwtag  DW_TAG_TI_assign_register, DW_AT_name("AC3")
    5799                      .dwattr $C$DW$600, DW_AT_location[DW_OP_reg9]
    5800              $C$DW$601       .dwtag  DW_TAG_TI_assign_register, DW_AT_name("AC3")
    5801                      .dwattr $C$DW$601, DW_AT_location[DW_OP_reg10]
    5802              $C$DW$602       .dwtag  DW_TAG_TI_assign_register, DW_AT_name("AC3_G")
    5803                      .dwattr $C$DW$602, DW_AT_location[DW_OP_reg11]
    5804              $C$DW$603       .dwtag  DW_TAG_TI_assign_register, DW_AT_name("T0")
    5805                      .dwattr $C$DW$603, DW_AT_location[DW_OP_reg12]
    5806              $C$DW$604       .dwtag  DW_TAG_TI_assign_register, DW_AT_name("T1")
    5807                      .dwattr $C$DW$604, DW_AT_location[DW_OP_reg13]
    5808              $C$DW$605       .dwtag  DW_TAG_TI_assign_register, DW_AT_name("T2")
    5809                      .dwattr $C$DW$605, DW_AT_location[DW_OP_reg14]
    5810              $C$DW$606       .dwtag  DW_TAG_TI_assign_register, DW_AT_name("T3")
    5811                      .dwattr $C$DW$606, DW_AT_location[DW_OP_reg15]
    5812              $C$DW$607       .dwtag  DW_TAG_TI_assign_register, DW_AT_name("AR0")
    5813                      .dwattr $C$DW$607, DW_AT_location[DW_OP_reg16]
    5814              $C$DW$608       .dwtag  DW_TAG_TI_assign_register, DW_AT_name("XAR0")
    5815                      .dwattr $C$DW$608, DW_AT_location[DW_OP_reg17]
    5816              $C$DW$609       .dwtag  DW_TAG_TI_assign_register, DW_AT_name("AR1")
    5817                      .dwattr $C$DW$609, DW_AT_location[DW_OP_reg18]
    5818              $C$DW$610       .dwtag  DW_TAG_TI_assign_register, DW_AT_name("XAR1")
    5819                      .dwattr $C$DW$610, DW_AT_location[DW_OP_reg19]
TMS320C55x Assembler PC v4.4.1 Fri Sep 14 23:31:58 2018

Tools Copyright (c) 1996-2012 Texas Instruments Incorporated
csl_mmcsd_ataIf.asm                                                  PAGE  120

    5820              $C$DW$611       .dwtag  DW_TAG_TI_assign_register, DW_AT_name("AR2")
    5821                      .dwattr $C$DW$611, DW_AT_location[DW_OP_reg20]
    5822              $C$DW$612       .dwtag  DW_TAG_TI_assign_register, DW_AT_name("XAR2")
    5823                      .dwattr $C$DW$612, DW_AT_location[DW_OP_reg21]
    5824              $C$DW$613       .dwtag  DW_TAG_TI_assign_register, DW_AT_name("AR3")
    5825                      .dwattr $C$DW$613, DW_AT_location[DW_OP_reg22]
    5826              $C$DW$614       .dwtag  DW_TAG_TI_assign_register, DW_AT_name("XAR3")
    5827                      .dwattr $C$DW$614, DW_AT_location[DW_OP_reg23]
    5828              $C$DW$615       .dwtag  DW_TAG_TI_assign_register, DW_AT_name("AR4")
    5829                      .dwattr $C$DW$615, DW_AT_location[DW_OP_reg24]
    5830              $C$DW$616       .dwtag  DW_TAG_TI_assign_register, DW_AT_name("XAR4")
    5831                      .dwattr $C$DW$616, DW_AT_location[DW_OP_reg25]
    5832              $C$DW$617       .dwtag  DW_TAG_TI_assign_register, DW_AT_name("AR5")
    5833                      .dwattr $C$DW$617, DW_AT_location[DW_OP_reg26]
    5834              $C$DW$618       .dwtag  DW_TAG_TI_assign_register, DW_AT_name("XAR5")
    5835                      .dwattr $C$DW$618, DW_AT_location[DW_OP_reg27]
    5836              $C$DW$619       .dwtag  DW_TAG_TI_assign_register, DW_AT_name("AR6")
    5837                      .dwattr $C$DW$619, DW_AT_location[DW_OP_reg28]
    5838              $C$DW$620       .dwtag  DW_TAG_TI_assign_register, DW_AT_name("XAR6")
    5839                      .dwattr $C$DW$620, DW_AT_location[DW_OP_reg29]
    5840              $C$DW$621       .dwtag  DW_TAG_TI_assign_register, DW_AT_name("AR7")
    5841                      .dwattr $C$DW$621, DW_AT_location[DW_OP_reg30]
    5842              $C$DW$622       .dwtag  DW_TAG_TI_assign_register, DW_AT_name("XAR7")
    5843                      .dwattr $C$DW$622, DW_AT_location[DW_OP_reg31]
    5844              $C$DW$623       .dwtag  DW_TAG_TI_assign_register, DW_AT_name("FP")
    5845                      .dwattr $C$DW$623, DW_AT_location[DW_OP_regx 0x20]
    5846              $C$DW$624       .dwtag  DW_TAG_TI_assign_register, DW_AT_name("XFP")
    5847                      .dwattr $C$DW$624, DW_AT_location[DW_OP_regx 0x21]
    5848              $C$DW$625       .dwtag  DW_TAG_TI_assign_register, DW_AT_name("PC")
    5849                      .dwattr $C$DW$625, DW_AT_location[DW_OP_regx 0x22]
    5850              $C$DW$626       .dwtag  DW_TAG_TI_assign_register, DW_AT_name("SP")
    5851                      .dwattr $C$DW$626, DW_AT_location[DW_OP_regx 0x23]
    5852              $C$DW$627       .dwtag  DW_TAG_TI_assign_register, DW_AT_name("XSP")
    5853                      .dwattr $C$DW$627, DW_AT_location[DW_OP_regx 0x24]
    5854              $C$DW$628       .dwtag  DW_TAG_TI_assign_register, DW_AT_name("BKC")
    5855                      .dwattr $C$DW$628, DW_AT_location[DW_OP_regx 0x25]
    5856              $C$DW$629       .dwtag  DW_TAG_TI_assign_register, DW_AT_name("BK03")
    5857                      .dwattr $C$DW$629, DW_AT_location[DW_OP_regx 0x26]
    5858              $C$DW$630       .dwtag  DW_TAG_TI_assign_register, DW_AT_name("BK47")
    5859                      .dwattr $C$DW$630, DW_AT_location[DW_OP_regx 0x27]
    5860              $C$DW$631       .dwtag  DW_TAG_TI_assign_register, DW_AT_name("ST0")
    5861                      .dwattr $C$DW$631, DW_AT_location[DW_OP_regx 0x28]
    5862              $C$DW$632       .dwtag  DW_TAG_TI_assign_register, DW_AT_name("ST1")
    5863                      .dwattr $C$DW$632, DW_AT_location[DW_OP_regx 0x29]
    5864              $C$DW$633       .dwtag  DW_TAG_TI_assign_register, DW_AT_name("ST2")
    5865                      .dwattr $C$DW$633, DW_AT_location[DW_OP_regx 0x2a]
    5866              $C$DW$634       .dwtag  DW_TAG_TI_assign_register, DW_AT_name("ST3")
    5867                      .dwattr $C$DW$634, DW_AT_location[DW_OP_regx 0x2b]
    5868              $C$DW$635       .dwtag  DW_TAG_TI_assign_register, DW_AT_name("MDP")
    5869                      .dwattr $C$DW$635, DW_AT_location[DW_OP_regx 0x2c]
    5870              $C$DW$636       .dwtag  DW_TAG_TI_assign_register, DW_AT_name("MDP05")
    5871                      .dwattr $C$DW$636, DW_AT_location[DW_OP_regx 0x2d]
    5872              $C$DW$637       .dwtag  DW_TAG_TI_assign_register, DW_AT_name("MDP67")
    5873                      .dwattr $C$DW$637, DW_AT_location[DW_OP_regx 0x2e]
    5874              $C$DW$638       .dwtag  DW_TAG_TI_assign_register, DW_AT_name("BRC0")
TMS320C55x Assembler PC v4.4.1 Fri Sep 14 23:31:58 2018

Tools Copyright (c) 1996-2012 Texas Instruments Incorporated
csl_mmcsd_ataIf.asm                                                  PAGE  121

    5875                      .dwattr $C$DW$638, DW_AT_location[DW_OP_regx 0x2f]
    5876              $C$DW$639       .dwtag  DW_TAG_TI_assign_register, DW_AT_name("RSA0")
    5877                      .dwattr $C$DW$639, DW_AT_location[DW_OP_regx 0x30]
    5878              $C$DW$640       .dwtag  DW_TAG_TI_assign_register, DW_AT_name("RSA0_H")
    5879                      .dwattr $C$DW$640, DW_AT_location[DW_OP_regx 0x31]
    5880              $C$DW$641       .dwtag  DW_TAG_TI_assign_register, DW_AT_name("REA0")
    5881                      .dwattr $C$DW$641, DW_AT_location[DW_OP_regx 0x32]
    5882              $C$DW$642       .dwtag  DW_TAG_TI_assign_register, DW_AT_name("REA0_H")
    5883                      .dwattr $C$DW$642, DW_AT_location[DW_OP_regx 0x33]
    5884              $C$DW$643       .dwtag  DW_TAG_TI_assign_register, DW_AT_name("BRS1")
    5885                      .dwattr $C$DW$643, DW_AT_location[DW_OP_regx 0x34]
    5886              $C$DW$644       .dwtag  DW_TAG_TI_assign_register, DW_AT_name("BRC1")
    5887                      .dwattr $C$DW$644, DW_AT_location[DW_OP_regx 0x35]
    5888              $C$DW$645       .dwtag  DW_TAG_TI_assign_register, DW_AT_name("RSA1")
    5889                      .dwattr $C$DW$645, DW_AT_location[DW_OP_regx 0x36]
    5890              $C$DW$646       .dwtag  DW_TAG_TI_assign_register, DW_AT_name("RSA1_H")
    5891                      .dwattr $C$DW$646, DW_AT_location[DW_OP_regx 0x37]
    5892              $C$DW$647       .dwtag  DW_TAG_TI_assign_register, DW_AT_name("REA1")
    5893                      .dwattr $C$DW$647, DW_AT_location[DW_OP_regx 0x38]
    5894              $C$DW$648       .dwtag  DW_TAG_TI_assign_register, DW_AT_name("REA1_H")
    5895                      .dwattr $C$DW$648, DW_AT_location[DW_OP_regx 0x39]
    5896              $C$DW$649       .dwtag  DW_TAG_TI_assign_register, DW_AT_name("CSR")
    5897                      .dwattr $C$DW$649, DW_AT_location[DW_OP_regx 0x3a]
    5898              $C$DW$650       .dwtag  DW_TAG_TI_assign_register, DW_AT_name("RPTC")
    5899                      .dwattr $C$DW$650, DW_AT_location[DW_OP_regx 0x3b]
    5900              $C$DW$651       .dwtag  DW_TAG_TI_assign_register, DW_AT_name("CDP")
    5901                      .dwattr $C$DW$651, DW_AT_location[DW_OP_regx 0x3c]
    5902              $C$DW$652       .dwtag  DW_TAG_TI_assign_register, DW_AT_name("XCDP")
    5903                      .dwattr $C$DW$652, DW_AT_location[DW_OP_regx 0x3d]
    5904              $C$DW$653       .dwtag  DW_TAG_TI_assign_register, DW_AT_name("TRN0")
    5905                      .dwattr $C$DW$653, DW_AT_location[DW_OP_regx 0x3e]
    5906              $C$DW$654       .dwtag  DW_TAG_TI_assign_register, DW_AT_name("TRN1")
    5907                      .dwattr $C$DW$654, DW_AT_location[DW_OP_regx 0x3f]
    5908              $C$DW$655       .dwtag  DW_TAG_TI_assign_register, DW_AT_name("BSA01")
    5909                      .dwattr $C$DW$655, DW_AT_location[DW_OP_regx 0x40]
    5910              $C$DW$656       .dwtag  DW_TAG_TI_assign_register, DW_AT_name("BSA23")
    5911                      .dwattr $C$DW$656, DW_AT_location[DW_OP_regx 0x41]
    5912              $C$DW$657       .dwtag  DW_TAG_TI_assign_register, DW_AT_name("BSA45")
    5913                      .dwattr $C$DW$657, DW_AT_location[DW_OP_regx 0x42]
    5914              $C$DW$658       .dwtag  DW_TAG_TI_assign_register, DW_AT_name("BSA67")
    5915                      .dwattr $C$DW$658, DW_AT_location[DW_OP_regx 0x43]
    5916              $C$DW$659       .dwtag  DW_TAG_TI_assign_register, DW_AT_name("BSAC")
    5917                      .dwattr $C$DW$659, DW_AT_location[DW_OP_regx 0x44]
    5918              $C$DW$660       .dwtag  DW_TAG_TI_assign_register, DW_AT_name("CARRY")
    5919                      .dwattr $C$DW$660, DW_AT_location[DW_OP_regx 0x45]
    5920              $C$DW$661       .dwtag  DW_TAG_TI_assign_register, DW_AT_name("TC1")
    5921                      .dwattr $C$DW$661, DW_AT_location[DW_OP_regx 0x46]
    5922              $C$DW$662       .dwtag  DW_TAG_TI_assign_register, DW_AT_name("TC2")
    5923                      .dwattr $C$DW$662, DW_AT_location[DW_OP_regx 0x47]
    5924              $C$DW$663       .dwtag  DW_TAG_TI_assign_register, DW_AT_name("M40")
    5925                      .dwattr $C$DW$663, DW_AT_location[DW_OP_regx 0x48]
    5926              $C$DW$664       .dwtag  DW_TAG_TI_assign_register, DW_AT_name("SXMD")
    5927                      .dwattr $C$DW$664, DW_AT_location[DW_OP_regx 0x49]
    5928              $C$DW$665       .dwtag  DW_TAG_TI_assign_register, DW_AT_name("ARMS")
    5929                      .dwattr $C$DW$665, DW_AT_location[DW_OP_regx 0x4a]
TMS320C55x Assembler PC v4.4.1 Fri Sep 14 23:31:58 2018

Tools Copyright (c) 1996-2012 Texas Instruments Incorporated
csl_mmcsd_ataIf.asm                                                  PAGE  122

    5930              $C$DW$666       .dwtag  DW_TAG_TI_assign_register, DW_AT_name("C54CM")
    5931                      .dwattr $C$DW$666, DW_AT_location[DW_OP_regx 0x4b]
    5932              $C$DW$667       .dwtag  DW_TAG_TI_assign_register, DW_AT_name("SATA")
    5933                      .dwattr $C$DW$667, DW_AT_location[DW_OP_regx 0x4c]
    5934              $C$DW$668       .dwtag  DW_TAG_TI_assign_register, DW_AT_name("SATD")
    5935                      .dwattr $C$DW$668, DW_AT_location[DW_OP_regx 0x4d]
    5936              $C$DW$669       .dwtag  DW_TAG_TI_assign_register, DW_AT_name("RDM")
    5937                      .dwattr $C$DW$669, DW_AT_location[DW_OP_regx 0x4e]
    5938              $C$DW$670       .dwtag  DW_TAG_TI_assign_register, DW_AT_name("FRCT")
    5939                      .dwattr $C$DW$670, DW_AT_location[DW_OP_regx 0x4f]
    5940              $C$DW$671       .dwtag  DW_TAG_TI_assign_register, DW_AT_name("SMUL")
    5941                      .dwattr $C$DW$671, DW_AT_location[DW_OP_regx 0x50]
    5942              $C$DW$672       .dwtag  DW_TAG_TI_assign_register, DW_AT_name("INTM")
    5943                      .dwattr $C$DW$672, DW_AT_location[DW_OP_regx 0x51]
    5944              $C$DW$673       .dwtag  DW_TAG_TI_assign_register, DW_AT_name("AR0LC")
    5945                      .dwattr $C$DW$673, DW_AT_location[DW_OP_regx 0x52]
    5946              $C$DW$674       .dwtag  DW_TAG_TI_assign_register, DW_AT_name("AR1LC")
    5947                      .dwattr $C$DW$674, DW_AT_location[DW_OP_regx 0x53]
    5948              $C$DW$675       .dwtag  DW_TAG_TI_assign_register, DW_AT_name("AR2LC")
    5949                      .dwattr $C$DW$675, DW_AT_location[DW_OP_regx 0x54]
    5950              $C$DW$676       .dwtag  DW_TAG_TI_assign_register, DW_AT_name("AR3LC")
    5951                      .dwattr $C$DW$676, DW_AT_location[DW_OP_regx 0x55]
    5952              $C$DW$677       .dwtag  DW_TAG_TI_assign_register, DW_AT_name("AR4LC")
    5953                      .dwattr $C$DW$677, DW_AT_location[DW_OP_regx 0x56]
    5954              $C$DW$678       .dwtag  DW_TAG_TI_assign_register, DW_AT_name("AR5LC")
    5955                      .dwattr $C$DW$678, DW_AT_location[DW_OP_regx 0x57]
    5956              $C$DW$679       .dwtag  DW_TAG_TI_assign_register, DW_AT_name("AR6LC")
    5957                      .dwattr $C$DW$679, DW_AT_location[DW_OP_regx 0x58]
    5958              $C$DW$680       .dwtag  DW_TAG_TI_assign_register, DW_AT_name("AR7LC")
    5959                      .dwattr $C$DW$680, DW_AT_location[DW_OP_regx 0x59]
    5960              $C$DW$681       .dwtag  DW_TAG_TI_assign_register, DW_AT_name("CDPLC")
    5961                      .dwattr $C$DW$681, DW_AT_location[DW_OP_regx 0x5a]
    5962              $C$DW$682       .dwtag  DW_TAG_TI_assign_register, DW_AT_name("CIE_RETA")
    5963                      .dwattr $C$DW$682, DW_AT_location[DW_OP_regx 0x5b]
    5964                      .dwendtag $C$DW$CU
    5965              
    5965              
    5965              

No Assembly Errors, No Assembly Warnings
