TMS320C55x Assembler PC v4.4.1 Thu Sep 20 01:43:28 2018

Tools Copyright (c) 1996-2012 Texas Instruments Incorporated
csl_dma.asm                                                          PAGE    1

    5182              ; Temporary Registers Used: None
       1              ;*******************************************************************************
       2              ;* TMS320C55x C/C++ Codegen                                          PC v4.4.1 *
       3              ;* Date/Time created: Thu Sep 20 01:43:25 2018                                 *
       4              ;*******************************************************************************
       5                      .compiler_opts --hll_source=on --mem_model:code=flat --mem_model:data=large --object_format=coff --si
       6                      .mmregs
       7                      .cpl_on
       8                      .arms_on
       9                      .c54cm_off
      10                      .asg AR6, FP
      11                      .asg XAR6, XFP
      12                      .asg DPH, MDP
      13                      .model call=c55_std
      14                      .model mem=large
      15                      .noremark 5002  ; code respects overwrite rules
      16              ;*******************************************************************************
      17              ;* GLOBAL FILE PARAMETERS                                                      *
      18              ;*                                                                             *
      19              ;*   Architecture       : TMS320C55x                                           *
      20              ;*   Optimizing for     : Speed                                                *
      21              ;*   Memory             : Large Model (23-Bit Data Pointers)                   *
      22              ;*   Calls              : Normal Library ASM calls                             *
      23              ;*   Debug Info         : Standard TI Debug Information                        *
      24              ;*******************************************************************************
      25              
      26              $C$DW$CU        .dwtag  DW_TAG_compile_unit
      27                      .dwattr $C$DW$CU, DW_AT_name("../c5535_bsl_revc/ezdsp5535_v1/c55xx_csl/src/csl_dma.c")
      28                      .dwattr $C$DW$CU, DW_AT_producer("TMS320C55x C/C++ Codegen PC v4.4.1 Copyright (c) 1996-2012 Texas In
      29                      .dwattr $C$DW$CU, DW_AT_TI_version(0x01)
      30                      .dwattr $C$DW$CU, DW_AT_comp_dir("F:\eZdsp_DBG\eZDSP_5535_Files\ccsws2\test\Debug")
      31              ;       F:\ti\ccs8p1\ccsv8\tools\compiler\alt-install-ti-cgt-c55x_4.4.1\bin\acp55.exe -@f:\\AppData\\Local\\T
      32 000000               .sect   ".text"
      33                      .align 4
      34                      .global _DMA_init
      35              
      36              $C$DW$1 .dwtag  DW_TAG_subprogram, DW_AT_name("DMA_init")
      37                      .dwattr $C$DW$1, DW_AT_low_pc(_DMA_init)
      38                      .dwattr $C$DW$1, DW_AT_high_pc(0x00)
      39                      .dwattr $C$DW$1, DW_AT_TI_symbol_name("_DMA_init")
      40                      .dwattr $C$DW$1, DW_AT_external
      41                      .dwattr $C$DW$1, DW_AT_type(*$C$DW$T$59)
      42                      .dwattr $C$DW$1, DW_AT_TI_begin_file("../c5535_bsl_revc/ezdsp5535_v1/c55xx_csl/src/csl_dma.c")
      43                      .dwattr $C$DW$1, DW_AT_TI_begin_line(0x46)
      44                      .dwattr $C$DW$1, DW_AT_TI_begin_column(0x0c)
      45                      .dwattr $C$DW$1, DW_AT_TI_max_frame_size(0x01)
      46                      .dwpsn  file "../c5535_bsl_revc/ezdsp5535_v1/c55xx_csl/src/csl_dma.c",line 71,column 1,is_stmt,addres
      47              
      48                      .dwfde $C$DW$CIE, _DMA_init
      49              ;*******************************************************************************
      50              ;* FUNCTION NAME: DMA_init                                                     *
      51              ;*                                                                             *
      52              ;*   Function Uses Regs : AC0,AC0,T0,AR1,SP,M40,SATA,SATD,RDM,FRCT,SMUL        *
      53              ;*   Stack Frame        : Compact (No Frame Pointer, w/ debug)                 *
      54              ;*   Total Frame Size   : 1 word                                               *
TMS320C55x Assembler PC v4.4.1 Thu Sep 20 01:43:28 2018

Tools Copyright (c) 1996-2012 Texas Instruments Incorporated
csl_dma.asm                                                          PAGE    2

      55              ;*                        (1 return address/alignment)                         *
      56              ;*   Min System Stack   : 1 word                                               *
      57              ;*******************************************************************************
      58 000000       _DMA_init:
      59                      .dwcfi  cfa_offset, 1
      60                      .dwcfi  save_reg_to_mem, 91, -1
      61                      .dwpsn  file "../c5535_bsl_revc/ezdsp5535_v1/c55xx_csl/src/csl_dma.c",line 73,column 5,is_stmt
      62 000000 F451          AND #0xfff7, *port(#7170) ; |73| 
         000002 FFF7 
         000004 1C02 
      63                      .dwpsn  file "../c5535_bsl_revc/ezdsp5535_v1/c55xx_csl/src/csl_dma.c",line 74,column 5,is_stmt
      64 000006 F451          AND #0xfff7, *port(#7171) ; |74| 
         000008 FFF7 
         00000a 1C03 
      65                      .dwpsn  file "../c5535_bsl_revc/ezdsp5535_v1/c55xx_csl/src/csl_dma.c",line 75,column 5,is_stmt
      66 00000c F451          AND #0xffef, *port(#7171) ; |75| 
         00000e FFEF 
         000010 1C03 
      67                      .dwpsn  file "../c5535_bsl_revc/ezdsp5535_v1/c55xx_csl/src/csl_dma.c",line 76,column 5,is_stmt
      68 000012 F451          AND #0xffdf, *port(#7171) ; |76| 
         000014 FFDF 
         000016 1C03 
      69                      .dwpsn  file "../c5535_bsl_revc/ezdsp5535_v1/c55xx_csl/src/csl_dma.c",line 79,column 2,is_stmt
      70 000018 3C00          MOV #0, AC0 ; |79| 
      71 00001a EC0A          BSET @#5, AC0 ; |79| 
         00001c 00   
      72 00001d A951          MOV *port(#7172), AR1 ; |79| 
         00001f 1C04 
      73 000021 C051          MOV AC0, *port(#7172) ; |79| 
         000023 1C04 
      74                      .dwpsn  file "../c5535_bsl_revc/ezdsp5535_v1/c55xx_csl/src/csl_dma.c",line 81,column 5,is_stmt
      75 000025 A951          MOV *port(#7173), AR1 ; |81| 
         000027 1C05 
      76 000029 EC08          BCLR @#4, AR1 ; |81| 
         00002b 92   
      77 00002c EC08          BSET @#4, AR1 ; |81| 
         00002e 90   
      78 00002f C951          MOV AR1, *port(#7173) ; |81| 
         000031 1C05 
      79                      .dwpsn  file "../c5535_bsl_revc/ezdsp5535_v1/c55xx_csl/src/csl_dma.c",line 87,column 5,is_stmt
      80 000033 3C04          MOV #0, T0
      81                      .dwpsn  file "../c5535_bsl_revc/ezdsp5535_v1/c55xx_csl/src/csl_dma.c",line 88,column 1,is_stmt
      82              $C$DW$2 .dwtag  DW_TAG_TI_branch
      83                      .dwattr $C$DW$2, DW_AT_low_pc(0x00)
      84                      .dwattr $C$DW$2, DW_AT_TI_return
      85 000035 4804          RET
      86                                                      ; return occurs
      87                      .dwattr $C$DW$1, DW_AT_TI_end_file("../c5535_bsl_revc/ezdsp5535_v1/c55xx_csl/src/csl_dma.c")
      88                      .dwattr $C$DW$1, DW_AT_TI_end_line(0x58)
      89                      .dwattr $C$DW$1, DW_AT_TI_end_column(0x01)
      90                      .dwendentry
      91                      .dwendtag $C$DW$1
      92              
      93 000037               .sect   ".text"
      94                      .align 4
TMS320C55x Assembler PC v4.4.1 Thu Sep 20 01:43:28 2018

Tools Copyright (c) 1996-2012 Texas Instruments Incorporated
csl_dma.asm                                                          PAGE    3

      95                      .global _DMA_open
      96              
      97              $C$DW$3 .dwtag  DW_TAG_subprogram, DW_AT_name("DMA_open")
      98                      .dwattr $C$DW$3, DW_AT_low_pc(_DMA_open)
      99                      .dwattr $C$DW$3, DW_AT_high_pc(0x00)
     100                      .dwattr $C$DW$3, DW_AT_TI_symbol_name("_DMA_open")
     101                      .dwattr $C$DW$3, DW_AT_external
     102                      .dwattr $C$DW$3, DW_AT_type(*$C$DW$T$57)
     103                      .dwattr $C$DW$3, DW_AT_TI_begin_file("../c5535_bsl_revc/ezdsp5535_v1/c55xx_csl/src/csl_dma.c")
     104                      .dwattr $C$DW$3, DW_AT_TI_begin_line(0x89)
     105                      .dwattr $C$DW$3, DW_AT_TI_begin_column(0x10)
     106                      .dwattr $C$DW$3, DW_AT_TI_max_frame_size(0x0a)
     107                      .dwpsn  file "../c5535_bsl_revc/ezdsp5535_v1/c55xx_csl/src/csl_dma.c",line 142,column 1,is_stmt,addre
     108              
     109                      .dwfde $C$DW$CIE, _DMA_open
     110              $C$DW$4 .dwtag  DW_TAG_formal_parameter, DW_AT_name("chanNum")
     111                      .dwattr $C$DW$4, DW_AT_TI_symbol_name("_chanNum")
     112                      .dwattr $C$DW$4, DW_AT_type(*$C$DW$T$28)
     113                      .dwattr $C$DW$4, DW_AT_location[DW_OP_reg12]
     114              $C$DW$5 .dwtag  DW_TAG_formal_parameter, DW_AT_name("pDmaChanObj")
     115                      .dwattr $C$DW$5, DW_AT_TI_symbol_name("_pDmaChanObj")
     116                      .dwattr $C$DW$5, DW_AT_type(*$C$DW$T$56)
     117                      .dwattr $C$DW$5, DW_AT_location[DW_OP_reg17]
     118              $C$DW$6 .dwtag  DW_TAG_formal_parameter, DW_AT_name("status")
     119                      .dwattr $C$DW$6, DW_AT_TI_symbol_name("_status")
     120                      .dwattr $C$DW$6, DW_AT_type(*$C$DW$T$60)
     121                      .dwattr $C$DW$6, DW_AT_location[DW_OP_reg19]
     122              ;*******************************************************************************
     123              ;* FUNCTION NAME: DMA_open                                                     *
     124              ;*                                                                             *
     125              ;*   Function Uses Regs : AC0,AC0,T0,AR0,XAR0,AR1,XAR1,AR2,AR3,XAR3,SP,CARRY,  *
     126              ;*                        TC1,M40,SATA,SATD,RDM,FRCT,SMUL                      *
     127              ;*   Stack Frame        : Compact (No Frame Pointer, w/ debug)                 *
     128              ;*   Total Frame Size   : 10 words                                             *
     129              ;*                        (2 return address/alignment)                         *
     130              ;*                        (8 local values)                                     *
     131              ;*   Min System Stack   : 1 word                                               *
     132              ;*******************************************************************************
     133 000038       _DMA_open:
     134                      .dwcfi  cfa_offset, 1
     135                      .dwcfi  save_reg_to_mem, 91, -1
     136 000038 4EF7          AADD #-9, SP
     137                      .dwcfi  cfa_offset, 10
     138              $C$DW$7 .dwtag  DW_TAG_variable, DW_AT_name("chanNum")
     139                      .dwattr $C$DW$7, DW_AT_TI_symbol_name("_chanNum")
     140                      .dwattr $C$DW$7, DW_AT_type(*$C$DW$T$28)
     141                      .dwattr $C$DW$7, DW_AT_location[DW_OP_bregx 0x24 0]
     142              $C$DW$8 .dwtag  DW_TAG_variable, DW_AT_name("pDmaChanObj")
     143                      .dwattr $C$DW$8, DW_AT_TI_symbol_name("_pDmaChanObj")
     144                      .dwattr $C$DW$8, DW_AT_type(*$C$DW$T$56)
     145                      .dwattr $C$DW$8, DW_AT_location[DW_OP_bregx 0x24 2]
     146              $C$DW$9 .dwtag  DW_TAG_variable, DW_AT_name("status")
     147                      .dwattr $C$DW$9, DW_AT_TI_symbol_name("_status")
     148                      .dwattr $C$DW$9, DW_AT_type(*$C$DW$T$60)
     149                      .dwattr $C$DW$9, DW_AT_location[DW_OP_bregx 0x24 4]
TMS320C55x Assembler PC v4.4.1 Thu Sep 20 01:43:28 2018

Tools Copyright (c) 1996-2012 Texas Instruments Incorporated
csl_dma.asm                                                          PAGE    4

     150              $C$DW$10        .dwtag  DW_TAG_variable, DW_AT_name("hDMA")
     151                      .dwattr $C$DW$10, DW_AT_TI_symbol_name("_hDMA")
     152                      .dwattr $C$DW$10, DW_AT_type(*$C$DW$T$57)
     153                      .dwattr $C$DW$10, DW_AT_location[DW_OP_bregx 0x24 6]
     154 00003a EB08          MOV XAR1, dbl(*SP(#4))
         00003c 95   
     155 00003d EB04          MOV XAR0, dbl(*SP(#2))
         00003f 85   
     156 000040 C400          MOV T0, *SP(#0) ; |142| 
     157                      .dwpsn  file "../c5535_bsl_revc/ezdsp5535_v1/c55xx_csl/src/csl_dma.c",line 145,column 5,is_stmt
     158              
     159 000046 2349          MOV T0, AR1 ; |145| 
     160 000042 7600  ||      MOV #16, AR2 ; |145| 
         000044 10A8 
     161              
     162 000048 1298          CMP AR1 >= AR2, TC1 ; |145| 
         00004a A0   
     163 00004b 6464          BCC $C$L1,TC1 ; |145| 
     164                                                      ; branchcc occurs ; |145| 
     165 00004d ED04          MOV dbl(*SP(#2)), XAR3
         00004f BF   
     166 000050 90B0          MOV XAR3, AC0
     167 000052 0410          BCC $C$L2,AC0 != #0 ; |145| 
         000054 14   
     168                                                      ; branchcc occurs ; |145| 
     169 000055       $C$L1:    
     170                      .dwpsn  file "../c5535_bsl_revc/ezdsp5535_v1/c55xx_csl/src/csl_dma.c",line 147,column 5,is_stmt
     171 000055 3C00          MOV #0, AC0 ; |147| 
     172 000057 EB0C          MOV AC0, dbl(*SP(#6))
         000059 08   
     173                      .dwpsn  file "../c5535_bsl_revc/ezdsp5535_v1/c55xx_csl/src/csl_dma.c",line 148,column 5,is_stmt
     174 00005a ED08          MOV dbl(*SP(#4)), XAR3
         00005c BF   
     175 00005d 90B0          MOV XAR3, AC0
     176 00005f 6D00          BCC $C$L9,AC0 == #0 ; |148| 
         000061 00BA 
     177                                                      ; branchcc occurs ; |148| 
     178                      .dwpsn  file "../c5535_bsl_revc/ezdsp5535_v1/c55xx_csl/src/csl_dma.c",line 150,column 10,is_stmt
     179 000063 E661          MOV #-6, *AR3 ; |150| 
         000065 FA   
     180                      .dwpsn  file "../c5535_bsl_revc/ezdsp5535_v1/c55xx_csl/src/csl_dma.c",line 152,column 5,is_stmt
     181 000066 0600          B $C$L9   ; |152| 
         000068 B4   
     182                                                      ; branch occurs ; |152| 
     183 000069       $C$L2:    
     184                      .dwpsn  file "../c5535_bsl_revc/ezdsp5535_v1/c55xx_csl/src/csl_dma.c",line 153,column 10,is_stmt
     185 000069 ED08          MOV dbl(*SP(#4)), XAR3
         00006b BF   
     186 00006c 90B0          MOV XAR3, AC0
     187 00006e 6410          BCC $C$L3,AC0 != #0 ; |153| 
     188                                                      ; branchcc occurs ; |153| 
     189                      .dwpsn  file "../c5535_bsl_revc/ezdsp5535_v1/c55xx_csl/src/csl_dma.c",line 155,column 3,is_stmt
     190 000070 3C00          MOV #0, AC0 ; |155| 
     191 000072 EB0C          MOV AC0, dbl(*SP(#6))
         000074 08   
TMS320C55x Assembler PC v4.4.1 Thu Sep 20 01:43:28 2018

Tools Copyright (c) 1996-2012 Texas Instruments Incorporated
csl_dma.asm                                                          PAGE    5

     192                      .dwpsn  file "../c5535_bsl_revc/ezdsp5535_v1/c55xx_csl/src/csl_dma.c",line 156,column 2,is_stmt
     193 000075 0600          B $C$L9   ; |156| 
         000077 A5   
     194                                                      ; branch occurs ; |156| 
     195 000078       $C$L3:    
     196                      .dwpsn  file "../c5535_bsl_revc/ezdsp5535_v1/c55xx_csl/src/csl_dma.c",line 159,column 9,is_stmt
     197 000078 E661          MOV #0, *AR3 ; |159| 
         00007a 00   
     198                      .dwpsn  file "../c5535_bsl_revc/ezdsp5535_v1/c55xx_csl/src/csl_dma.c",line 160,column 9,is_stmt
     199 00007b ED04          MOV dbl(*SP(#2)), XAR3
         00007d BF   
     200 00007e A900          MOV *SP(#0), AR1 ; |160| 
     201 000080 C973          MOV AR1, *AR3(short(#1)) ; |160| 
     202                      .dwpsn  file "../c5535_bsl_revc/ezdsp5535_v1/c55xx_csl/src/csl_dma.c",line 161,column 9,is_stmt
     203 000082 ED04          MOV dbl(*SP(#2)), XAR3
         000084 BF   
     204 000085 E677          MOV #1, *AR3(short(#3)) ; |161| 
         000087 01   
     205                      .dwpsn  file "../c5535_bsl_revc/ezdsp5535_v1/c55xx_csl/src/csl_dma.c",line 163,column 9,is_stmt
     206 000088 ED04          MOV dbl(*SP(#2)), XAR3
         00008a BF   
     207 00008b E679          MOV #0, *AR3(short(#4)) ; |163| 
         00008d 00   
     208                      .dwpsn  file "../c5535_bsl_revc/ezdsp5535_v1/c55xx_csl/src/csl_dma.c",line 164,column 9,is_stmt
     209 00008e ED04          MOV dbl(*SP(#2)), XAR3
         000090 BF   
     210 000091 E67B          MOV #0, *AR3(short(#5)) ; |164| 
         000093 00   
     211                      .dwpsn  file "../c5535_bsl_revc/ezdsp5535_v1/c55xx_csl/src/csl_dma.c",line 165,column 9,is_stmt
     212 000094 ED04          MOV dbl(*SP(#2)), XAR3
         000096 BF   
     213 000097 E67D          MOV #1, *AR3(short(#6)) ; |165| 
         000099 01   
     214                      .dwpsn  file "../c5535_bsl_revc/ezdsp5535_v1/c55xx_csl/src/csl_dma.c",line 167,column 9,is_stmt
     215 00009a 0600          B $C$L8   ; |167| 
         00009c 56   
     216                                                      ; branch occurs ; |167| 
     217 00009d       $C$L4:    
     218                      .dwpsn  file "../c5535_bsl_revc/ezdsp5535_v1/c55xx_csl/src/csl_dma.c",line 173,column 13,is_stmt
     219 00009d ED04          MOV dbl(*SP(#2)), XAR3
         00009f BF   
     220 0000a0 FB61          MOV #3072, *AR3 ; |173| 
         0000a2 0C00 
     221                      .dwpsn  file "../c5535_bsl_revc/ezdsp5535_v1/c55xx_csl/src/csl_dma.c",line 174,column 13,is_stmt
     222 0000a4 ED04          MOV dbl(*SP(#2)), XAR3
         0000a6 BF   
     223 0000a7 E675          MOV #0, *AR3(short(#2)) ; |174| 
         0000a9 00   
     224                      .dwpsn  file "../c5535_bsl_revc/ezdsp5535_v1/c55xx_csl/src/csl_dma.c",line 175,column 13,is_stmt
     225 0000aa ED04          MOV dbl(*SP(#2)), XAR3
         0000ac BF   
     226 0000ad EB0C          MOV XAR3, dbl(*SP(#6))
         0000af B5   
     227                      .dwpsn  file "../c5535_bsl_revc/ezdsp5535_v1/c55xx_csl/src/csl_dma.c",line 176,column 18,is_stmt
     228 0000b0 0600          B $C$L9   ; |176| 
TMS320C55x Assembler PC v4.4.1 Thu Sep 20 01:43:28 2018

Tools Copyright (c) 1996-2012 Texas Instruments Incorporated
csl_dma.asm                                                          PAGE    6

         0000b2 6A   
     229                                                      ; branch occurs ; |176| 
     230 0000b3       $C$L5:    
     231                      .dwpsn  file "../c5535_bsl_revc/ezdsp5535_v1/c55xx_csl/src/csl_dma.c",line 182,column 13,is_stmt
     232 0000b3 ED04          MOV dbl(*SP(#2)), XAR3
         0000b5 BF   
     233 0000b6 FB61          MOV #3328, *AR3 ; |182| 
         0000b8 0D00 
     234                      .dwpsn  file "../c5535_bsl_revc/ezdsp5535_v1/c55xx_csl/src/csl_dma.c",line 183,column 13,is_stmt
     235 0000ba ED04          MOV dbl(*SP(#2)), XAR3
         0000bc BF   
     236 0000bd E675          MOV #1, *AR3(short(#2)) ; |183| 
         0000bf 01   
     237                      .dwpsn  file "../c5535_bsl_revc/ezdsp5535_v1/c55xx_csl/src/csl_dma.c",line 184,column 13,is_stmt
     238 0000c0 ED04          MOV dbl(*SP(#2)), XAR3
         0000c2 BF   
     239 0000c3 EB0C          MOV XAR3, dbl(*SP(#6))
         0000c5 B5   
     240                      .dwpsn  file "../c5535_bsl_revc/ezdsp5535_v1/c55xx_csl/src/csl_dma.c",line 185,column 18,is_stmt
     241 0000c6 0600          B $C$L9   ; |185| 
         0000c8 54   
     242                                                      ; branch occurs ; |185| 
     243 0000c9       $C$L6:    
     244                      .dwpsn  file "../c5535_bsl_revc/ezdsp5535_v1/c55xx_csl/src/csl_dma.c",line 191,column 13,is_stmt
     245 0000c9 ED04          MOV dbl(*SP(#2)), XAR3
         0000cb BF   
     246 0000cc FB61          MOV #3584, *AR3 ; |191| 
         0000ce 0E00 
     247                      .dwpsn  file "../c5535_bsl_revc/ezdsp5535_v1/c55xx_csl/src/csl_dma.c",line 192,column 13,is_stmt
     248 0000d0 ED04          MOV dbl(*SP(#2)), XAR3
         0000d2 BF   
     249 0000d3 E675          MOV #2, *AR3(short(#2)) ; |192| 
         0000d5 02   
     250                      .dwpsn  file "../c5535_bsl_revc/ezdsp5535_v1/c55xx_csl/src/csl_dma.c",line 193,column 13,is_stmt
     251 0000d6 ED04          MOV dbl(*SP(#2)), XAR3
         0000d8 BF   
     252 0000d9 EB0C          MOV XAR3, dbl(*SP(#6))
         0000db B5   
     253                      .dwpsn  file "../c5535_bsl_revc/ezdsp5535_v1/c55xx_csl/src/csl_dma.c",line 194,column 18,is_stmt
     254 0000dc 4A3F          B $C$L9   ; |194| 
     255                                                      ; branch occurs ; |194| 
     256 0000de       $C$L7:    
     257                      .dwpsn  file "../c5535_bsl_revc/ezdsp5535_v1/c55xx_csl/src/csl_dma.c",line 200,column 13,is_stmt
     258 0000de ED04          MOV dbl(*SP(#2)), XAR3
         0000e0 BF   
     259 0000e1 FB61          MOV #3840, *AR3 ; |200| 
         0000e3 0F00 
     260                      .dwpsn  file "../c5535_bsl_revc/ezdsp5535_v1/c55xx_csl/src/csl_dma.c",line 201,column 13,is_stmt
     261 0000e5 ED04          MOV dbl(*SP(#2)), XAR3
         0000e7 BF   
     262 0000e8 E675          MOV #3, *AR3(short(#2)) ; |201| 
         0000ea 03   
     263                      .dwpsn  file "../c5535_bsl_revc/ezdsp5535_v1/c55xx_csl/src/csl_dma.c",line 202,column 13,is_stmt
     264 0000eb ED04          MOV dbl(*SP(#2)), XAR3
         0000ed BF   
TMS320C55x Assembler PC v4.4.1 Thu Sep 20 01:43:28 2018

Tools Copyright (c) 1996-2012 Texas Instruments Incorporated
csl_dma.asm                                                          PAGE    7

     265 0000ee EB0C          MOV XAR3, dbl(*SP(#6))
         0000f0 B5   
     266                      .dwpsn  file "../c5535_bsl_revc/ezdsp5535_v1/c55xx_csl/src/csl_dma.c",line 203,column 18,is_stmt
     267 0000f1 4A2A          B $C$L9   ; |203| 
     268                                                      ; branch occurs ; |203| 
     269 0000f3       $C$L8:    
     270                      .dwpsn  file "../c5535_bsl_revc/ezdsp5535_v1/c55xx_csl/src/csl_dma.c",line 167,column 9,is_stmt
     271              
     272 0000f3 A900          MOV *SP(#0), AR1 ; |167| 
     273 0000f5 3D3A  ||      MOV #3, AR2
     274              
     275 0000f7 12A8          CMPU AR1 <= AR2, TC1 ; |167| 
         0000f9 94   
     276 0000fa 0464          BCC $C$L4,TC1 ; |167| 
         0000fc A0   
     277                                                      ; branchcc occurs ; |167| 
     278              
     279 0000fd 7C00          SUB #4, AR1, AR2 ; |167| 
         0000ff 04A9 
     280 000101 3D3B  ||      MOV #3, AR3
     281              
     282 000103 12B8          CMPU AR2 <= AR3, TC1 ; |167| 
         000105 A4   
     283 000106 0464          BCC $C$L5,TC1 ; |167| 
         000108 AA   
     284                                                      ; branchcc occurs ; |167| 
     285 000109 7C00          SUB #8, AR1, AR2 ; |167| 
         00010b 08A9 
     286 00010d 12B8          CMPU AR2 <= AR3, TC1 ; |167| 
         00010f A4   
     287 000110 0464          BCC $C$L6,TC1 ; |167| 
         000112 B6   
     288                                                      ; branchcc occurs ; |167| 
     289              
     290 000113 42C9          SUB #12, AR1, AR1 ; |167| 
     291 000115 3D3A  ||      MOV #3, AR2
     292              
     293 000117 12A8          CMPU AR1 <= AR2, TC1 ; |167| 
         000119 94   
     294 00011a 0464          BCC $C$L7,TC1 ; |167| 
         00011c C1   
     295                                                      ; branchcc occurs ; |167| 
     296 00011d       $C$L9:    
     297                      .dwpsn  file "../c5535_bsl_revc/ezdsp5535_v1/c55xx_csl/src/csl_dma.c",line 207,column 5,is_stmt
     298 00011d ED0C          MOV dbl(*SP(#6)), XAR0
         00011f 8F   
     299                      .dwpsn  file "../c5535_bsl_revc/ezdsp5535_v1/c55xx_csl/src/csl_dma.c",line 208,column 1,is_stmt
     300 000120 4E09          AADD #9, SP
     301                      .dwcfi  cfa_offset, 1
     302              $C$DW$11        .dwtag  DW_TAG_TI_branch
     303                      .dwattr $C$DW$11, DW_AT_low_pc(0x00)
     304                      .dwattr $C$DW$11, DW_AT_TI_return
     305 000122 4804          RET
     306                                                      ; return occurs
     307                      .dwattr $C$DW$3, DW_AT_TI_end_file("../c5535_bsl_revc/ezdsp5535_v1/c55xx_csl/src/csl_dma.c")
TMS320C55x Assembler PC v4.4.1 Thu Sep 20 01:43:28 2018

Tools Copyright (c) 1996-2012 Texas Instruments Incorporated
csl_dma.asm                                                          PAGE    8

     308                      .dwattr $C$DW$3, DW_AT_TI_end_line(0xd0)
     309                      .dwattr $C$DW$3, DW_AT_TI_end_column(0x01)
     310                      .dwendentry
     311                      .dwendtag $C$DW$3
     312              
     313 000124               .sect   ".text"
     314                      .align 4
     315                      .global _DMA_close
     316              
     317              $C$DW$12        .dwtag  DW_TAG_subprogram, DW_AT_name("DMA_close")
     318                      .dwattr $C$DW$12, DW_AT_low_pc(_DMA_close)
     319                      .dwattr $C$DW$12, DW_AT_high_pc(0x00)
     320                      .dwattr $C$DW$12, DW_AT_TI_symbol_name("_DMA_close")
     321                      .dwattr $C$DW$12, DW_AT_external
     322                      .dwattr $C$DW$12, DW_AT_type(*$C$DW$T$59)
     323                      .dwattr $C$DW$12, DW_AT_TI_begin_file("../c5535_bsl_revc/ezdsp5535_v1/c55xx_csl/src/csl_dma.c")
     324                      .dwattr $C$DW$12, DW_AT_TI_begin_line(0xfb)
     325                      .dwattr $C$DW$12, DW_AT_TI_begin_column(0x0c)
     326                      .dwattr $C$DW$12, DW_AT_TI_max_frame_size(0x04)
     327                      .dwpsn  file "../c5535_bsl_revc/ezdsp5535_v1/c55xx_csl/src/csl_dma.c",line 254,column 1,is_stmt,addre
     328              
     329                      .dwfde $C$DW$CIE, _DMA_close
     330              $C$DW$13        .dwtag  DW_TAG_formal_parameter, DW_AT_name("hDMA")
     331                      .dwattr $C$DW$13, DW_AT_TI_symbol_name("_hDMA")
     332                      .dwattr $C$DW$13, DW_AT_type(*$C$DW$T$57)
     333                      .dwattr $C$DW$13, DW_AT_location[DW_OP_reg17]
     334              ;*******************************************************************************
     335              ;* FUNCTION NAME: DMA_close                                                    *
     336              ;*                                                                             *
     337              ;*   Function Uses Regs : AC0,AC0,T0,AR0,XAR0,AR3,XAR3,SP,M40,SATA,SATD,RDM,   *
     338              ;*                        FRCT,SMUL                                            *
     339              ;*   Stack Frame        : Compact (No Frame Pointer, w/ debug)                 *
     340              ;*   Total Frame Size   : 4 words                                              *
     341              ;*                        (2 return address/alignment)                         *
     342              ;*                        (2 local values)                                     *
     343              ;*   Min System Stack   : 1 word                                               *
     344              ;*******************************************************************************
     345 000124       _DMA_close:
     346                      .dwcfi  cfa_offset, 1
     347                      .dwcfi  save_reg_to_mem, 91, -1
     348 000124 4EFD          AADD #-3, SP
     349                      .dwcfi  cfa_offset, 4
     350              $C$DW$14        .dwtag  DW_TAG_variable, DW_AT_name("hDMA")
     351                      .dwattr $C$DW$14, DW_AT_TI_symbol_name("_hDMA")
     352                      .dwattr $C$DW$14, DW_AT_type(*$C$DW$T$57)
     353                      .dwattr $C$DW$14, DW_AT_location[DW_OP_bregx 0x24 0]
     354 000126 EB00          MOV XAR0, dbl(*SP(#0))
         000128 85   
     355                      .dwpsn  file "../c5535_bsl_revc/ezdsp5535_v1/c55xx_csl/src/csl_dma.c",line 255,column 5,is_stmt
     356 000129 ED00          MOV dbl(*SP(#0)), XAR3
         00012b BF   
     357 00012c 90B0          MOV XAR3, AC0
     358 00012e 6210          BCC $C$L10,AC0 != #0 ; |255| 
     359                                                      ; branchcc occurs ; |255| 
     360                      .dwpsn  file "../c5535_bsl_revc/ezdsp5535_v1/c55xx_csl/src/csl_dma.c",line 257,column 3,is_stmt
TMS320C55x Assembler PC v4.4.1 Thu Sep 20 01:43:28 2018

Tools Copyright (c) 1996-2012 Texas Instruments Incorporated
csl_dma.asm                                                          PAGE    9

     361 000130 3E54          MOV #-5, T0
     362 000132 4A0B          B $C$L11  ; |257| 
     363                                                      ; branch occurs ; |257| 
     364 000134       $C$L10:    
     365                      .dwpsn  file "../c5535_bsl_revc/ezdsp5535_v1/c55xx_csl/src/csl_dma.c",line 261,column 9,is_stmt
     366 000134 E677          MOV #0, *AR3(short(#3)) ; |261| 
         000136 00   
     367                      .dwpsn  file "../c5535_bsl_revc/ezdsp5535_v1/c55xx_csl/src/csl_dma.c",line 262,column 9,is_stmt
     368 000137 ED00          MOV dbl(*SP(#0)), XAR3
         000139 BF   
     369 00013a E661          MOV #0, *AR3 ; |262| 
         00013c 00   
     370                      .dwpsn  file "../c5535_bsl_revc/ezdsp5535_v1/c55xx_csl/src/csl_dma.c",line 263,column 9,is_stmt
     371 00013d 3C04          MOV #0, T0
     372 00013f       $C$L11:    
     373                      .dwpsn  file "../c5535_bsl_revc/ezdsp5535_v1/c55xx_csl/src/csl_dma.c",line 265,column 1,is_stmt
     374 00013f 4E03          AADD #3, SP
     375                      .dwcfi  cfa_offset, 1
     376              $C$DW$15        .dwtag  DW_TAG_TI_branch
     377                      .dwattr $C$DW$15, DW_AT_low_pc(0x00)
     378                      .dwattr $C$DW$15, DW_AT_TI_return
     379 000141 4804          RET
     380                                                      ; return occurs
     381                      .dwattr $C$DW$12, DW_AT_TI_end_file("../c5535_bsl_revc/ezdsp5535_v1/c55xx_csl/src/csl_dma.c")
     382                      .dwattr $C$DW$12, DW_AT_TI_end_line(0x109)
     383                      .dwattr $C$DW$12, DW_AT_TI_end_column(0x01)
     384                      .dwendentry
     385                      .dwendtag $C$DW$12
     386              
     387 000143               .sect   ".text"
     388                      .align 4
     389                      .global _DMA_config
     390              
     391              $C$DW$16        .dwtag  DW_TAG_subprogram, DW_AT_name("DMA_config")
     392                      .dwattr $C$DW$16, DW_AT_low_pc(_DMA_config)
     393                      .dwattr $C$DW$16, DW_AT_high_pc(0x00)
     394                      .dwattr $C$DW$16, DW_AT_TI_symbol_name("_DMA_config")
     395                      .dwattr $C$DW$16, DW_AT_external
     396                      .dwattr $C$DW$16, DW_AT_type(*$C$DW$T$59)
     397                      .dwattr $C$DW$16, DW_AT_TI_begin_file("../c5535_bsl_revc/ezdsp5535_v1/c55xx_csl/src/csl_dma.c")
     398                      .dwattr $C$DW$16, DW_AT_TI_begin_line(0x150)
     399                      .dwattr $C$DW$16, DW_AT_TI_begin_column(0x0c)
     400                      .dwattr $C$DW$16, DW_AT_TI_max_frame_size(0x12)
     401                      .dwpsn  file "../c5535_bsl_revc/ezdsp5535_v1/c55xx_csl/src/csl_dma.c",line 340,column 1,is_stmt,addre
     402              
     403                      .dwfde $C$DW$CIE, _DMA_config
     404              $C$DW$17        .dwtag  DW_TAG_formal_parameter, DW_AT_name("hDMA")
     405                      .dwattr $C$DW$17, DW_AT_TI_symbol_name("_hDMA")
     406                      .dwattr $C$DW$17, DW_AT_type(*$C$DW$T$57)
     407                      .dwattr $C$DW$17, DW_AT_location[DW_OP_reg17]
     408              $C$DW$18        .dwtag  DW_TAG_formal_parameter, DW_AT_name("pConfig")
     409                      .dwattr $C$DW$18, DW_AT_TI_symbol_name("_pConfig")
     410                      .dwattr $C$DW$18, DW_AT_type(*$C$DW$T$63)
     411                      .dwattr $C$DW$18, DW_AT_location[DW_OP_reg19]
     412              ;*******************************************************************************
TMS320C55x Assembler PC v4.4.1 Thu Sep 20 01:43:28 2018

Tools Copyright (c) 1996-2012 Texas Instruments Incorporated
csl_dma.asm                                                          PAGE   10

     413              ;* FUNCTION NAME: DMA_config                                                   *
     414              ;*                                                                             *
     415              ;*   Function Uses Regs : AC0,AC0,AC1,AC1,T0,AR0,XAR0,AR1,XAR1,AR2,AR3,XAR3,SP,*
     416              ;*                        CARRY,TC1,M40,SATA,SATD,RDM,FRCT,SMUL                *
     417              ;*   Stack Frame        : Compact (No Frame Pointer, w/ debug)                 *
     418              ;*   Total Frame Size   : 18 words                                             *
     419              ;*                        (2 return address/alignment)                         *
     420              ;*                        (16 local values)                                    *
     421              ;*   Min System Stack   : 1 word                                               *
     422              ;*******************************************************************************
     423 000144       _DMA_config:
     424                      .dwcfi  cfa_offset, 1
     425                      .dwcfi  save_reg_to_mem, 91, -1
     426 000144 4EEF          AADD #-17, SP
     427                      .dwcfi  cfa_offset, 18
     428              $C$DW$19        .dwtag  DW_TAG_variable, DW_AT_name("hDMA")
     429                      .dwattr $C$DW$19, DW_AT_TI_symbol_name("_hDMA")
     430                      .dwattr $C$DW$19, DW_AT_type(*$C$DW$T$57)
     431                      .dwattr $C$DW$19, DW_AT_location[DW_OP_bregx 0x24 0]
     432              $C$DW$20        .dwtag  DW_TAG_variable, DW_AT_name("pConfig")
     433                      .dwattr $C$DW$20, DW_AT_TI_symbol_name("_pConfig")
     434                      .dwattr $C$DW$20, DW_AT_type(*$C$DW$T$63)
     435                      .dwattr $C$DW$20, DW_AT_location[DW_OP_bregx 0x24 2]
     436              $C$DW$21        .dwtag  DW_TAG_variable, DW_AT_name("chanNum")
     437                      .dwattr $C$DW$21, DW_AT_TI_symbol_name("_chanNum")
     438                      .dwattr $C$DW$21, DW_AT_type(*$C$DW$T$19)
     439                      .dwattr $C$DW$21, DW_AT_location[DW_OP_bregx 0x24 4]
     440              $C$DW$22        .dwtag  DW_TAG_variable, DW_AT_name("srcAddrLSB")
     441                      .dwattr $C$DW$22, DW_AT_TI_symbol_name("_srcAddrLSB")
     442                      .dwattr $C$DW$22, DW_AT_type(*$C$DW$T$19)
     443                      .dwattr $C$DW$22, DW_AT_location[DW_OP_bregx 0x24 5]
     444              $C$DW$23        .dwtag  DW_TAG_variable, DW_AT_name("srcAddrMSB")
     445                      .dwattr $C$DW$23, DW_AT_TI_symbol_name("_srcAddrMSB")
     446                      .dwattr $C$DW$23, DW_AT_type(*$C$DW$T$19)
     447                      .dwattr $C$DW$23, DW_AT_location[DW_OP_bregx 0x24 6]
     448              $C$DW$24        .dwtag  DW_TAG_variable, DW_AT_name("destAddrLSB")
     449                      .dwattr $C$DW$24, DW_AT_TI_symbol_name("_destAddrLSB")
     450                      .dwattr $C$DW$24, DW_AT_type(*$C$DW$T$19)
     451                      .dwattr $C$DW$24, DW_AT_location[DW_OP_bregx 0x24 7]
     452              $C$DW$25        .dwtag  DW_TAG_variable, DW_AT_name("destAddrMSB")
     453                      .dwattr $C$DW$25, DW_AT_TI_symbol_name("_destAddrMSB")
     454                      .dwattr $C$DW$25, DW_AT_type(*$C$DW$T$19)
     455                      .dwattr $C$DW$25, DW_AT_location[DW_OP_bregx 0x24 8]
     456              $C$DW$26        .dwtag  DW_TAG_variable, DW_AT_name("src_addrMode")
     457                      .dwattr $C$DW$26, DW_AT_TI_symbol_name("_src_addrMode")
     458                      .dwattr $C$DW$26, DW_AT_type(*$C$DW$T$19)
     459                      .dwattr $C$DW$26, DW_AT_location[DW_OP_bregx 0x24 9]
     460              $C$DW$27        .dwtag  DW_TAG_variable, DW_AT_name("dest_addrMode")
     461                      .dwattr $C$DW$27, DW_AT_TI_symbol_name("_dest_addrMode")
     462                      .dwattr $C$DW$27, DW_AT_type(*$C$DW$T$19)
     463                      .dwattr $C$DW$27, DW_AT_location[DW_OP_bregx 0x24 10]
     464              $C$DW$28        .dwtag  DW_TAG_variable, DW_AT_name("src_address")
     465                      .dwattr $C$DW$28, DW_AT_TI_symbol_name("_src_address")
     466                      .dwattr $C$DW$28, DW_AT_type(*$C$DW$T$49)
     467                      .dwattr $C$DW$28, DW_AT_location[DW_OP_bregx 0x24 12]
TMS320C55x Assembler PC v4.4.1 Thu Sep 20 01:43:28 2018

Tools Copyright (c) 1996-2012 Texas Instruments Incorporated
csl_dma.asm                                                          PAGE   11

     468              $C$DW$29        .dwtag  DW_TAG_variable, DW_AT_name("dest_address")
     469                      .dwattr $C$DW$29, DW_AT_TI_symbol_name("_dest_address")
     470                      .dwattr $C$DW$29, DW_AT_type(*$C$DW$T$49)
     471                      .dwattr $C$DW$29, DW_AT_location[DW_OP_bregx 0x24 14]
     472 000146 EB04          MOV XAR1, dbl(*SP(#2))
         000148 95   
     473 000149 EB00          MOV XAR0, dbl(*SP(#0))
         00014b 85   
     474                      .dwpsn  file "../c5535_bsl_revc/ezdsp5535_v1/c55xx_csl/src/csl_dma.c",line 351,column 5,is_stmt
     475 00014c ED00          MOV dbl(*SP(#0)), XAR3
         00014e BF   
     476 00014f 90B0          MOV XAR3, AC0
     477 000151 0400          BCC $C$L13,AC0 == #0 ; |351| 
         000153 25   
     478                                                      ; branchcc occurs ; |351| 
     479 000154 ED04          MOV dbl(*SP(#2)), XAR3
         000156 BF   
     480 000157 90B0          MOV XAR3, AC0
     481 000159 0400          BCC $C$L13,AC0 == #0 ; |351| 
         00015b 1D   
     482                                                      ; branchcc occurs ; |351| 
     483                      .dwpsn  file "../c5535_bsl_revc/ezdsp5535_v1/c55xx_csl/src/csl_dma.c",line 353,column 9,is_stmt
     484 00015c ED00          MOV dbl(*SP(#0)), XAR3
         00015e BF   
     485 00015f A973          MOV *AR3(short(#1)), AR1 ; |353| 
     486 000161 C908          MOV AR1, *SP(#4) ; |353| 
     487                      .dwpsn  file "../c5535_bsl_revc/ezdsp5535_v1/c55xx_csl/src/csl_dma.c",line 354,column 15,is_stmt
     488 000163 3C4A          MOV #4, AR2
     489 000165 1294          CMPU AR1 < AR2, TC1 ; |354| 
         000167 A4   
     490 000168 0464          BCC $C$L15,TC1 ; |354| 
         00016a 1F   
     491                                                      ; branchcc occurs ; |354| 
     492 00016b       $C$L12:    
     493 00016b       $C$DW$L$_DMA_config$4$B:
     494                      .dwpsn  file "../c5535_bsl_revc/ezdsp5535_v1/c55xx_csl/src/csl_dma.c",line 356,column 13,is_stmt
     495 00016b F708          SUB #4, *SP(#4) ; |356| 
         00016d FFFC 
     496                      .dwpsn  file "../c5535_bsl_revc/ezdsp5535_v1/c55xx_csl/src/csl_dma.c",line 354,column 15,is_stmt
     497 00016f A908          MOV *SP(#4), AR1 ; |354| 
     498 000171 1298          CMPU AR1 >= AR2, TC1 ; |354| 
         000173 A4   
     499 000174 0464          BCC $C$L12,TC1 ; |354| 
         000176 F4   
     500                                                      ; branchcc occurs ; |354| 
     501 000177       $C$DW$L$_DMA_config$4$E:
     502                      .dwpsn  file "../c5535_bsl_revc/ezdsp5535_v1/c55xx_csl/src/csl_dma.c",line 359,column 5,is_stmt
     503 000177 4A11          B $C$L15  ; |359| 
     504                                                      ; branch occurs ; |359| 
     505 000179       $C$L13:    
     506                      .dwpsn  file "../c5535_bsl_revc/ezdsp5535_v1/c55xx_csl/src/csl_dma.c",line 362,column 9,is_stmt
     507 000179 ED00          MOV dbl(*SP(#0)), XAR3
         00017b BF   
     508 00017c 90B0          MOV XAR3, AC0
     509 00017e 6290          BCC $C$L14,AC0 != #0 ; |362| 
TMS320C55x Assembler PC v4.4.1 Thu Sep 20 01:43:28 2018

Tools Copyright (c) 1996-2012 Texas Instruments Incorporated
csl_dma.asm                                                          PAGE   12

     510                                                      ; branchcc occurs ; |362| 
     511                      .dwpsn  file "../c5535_bsl_revc/ezdsp5535_v1/c55xx_csl/src/csl_dma.c",line 364,column 13,is_stmt
     512 000180 3E54          MOV #-5, T0
     513 000182 060B          B $C$L60  ; |364| 
         000184 8F   
     514                                                      ; branch occurs ; |364| 
     515 000185       $C$L14:    
     516                      .dwpsn  file "../c5535_bsl_revc/ezdsp5535_v1/c55xx_csl/src/csl_dma.c",line 368,column 13,is_stmt
     517 000185 3E64          MOV #-6, T0
     518 000187 060B          B $C$L60  ; |368| 
         000189 8A   
     519                                                      ; branch occurs ; |368| 
     520 00018a       $C$L15:    
     521                      .dwpsn  file "../c5535_bsl_revc/ezdsp5535_v1/c55xx_csl/src/csl_dma.c",line 372,column 5,is_stmt
     522 00018a ED04          MOV dbl(*SP(#2)), XAR3
         00018c BF   
     523 00018d A977          MOV *AR3(short(#3)), AR1 ; |372| 
     524 00018f ED00          MOV dbl(*SP(#0)), XAR3
         000191 BF   
     525 000192 C97B          MOV AR1, *AR3(short(#5)) ; |372| 
     526                      .dwpsn  file "../c5535_bsl_revc/ezdsp5535_v1/c55xx_csl/src/csl_dma.c",line 373,column 5,is_stmt
     527 000194 ED04          MOV dbl(*SP(#2)), XAR3
         000196 BF   
     528 000197 A97D          MOV *AR3(short(#6)), AR1 ; |373| 
     529 000199 ED00          MOV dbl(*SP(#0)), XAR3
         00019b BF   
     530 00019c C979          MOV AR1, *AR3(short(#4)) ; |373| 
     531                      .dwpsn  file "../c5535_bsl_revc/ezdsp5535_v1/c55xx_csl/src/csl_dma.c",line 374,column 5,is_stmt
     532 00019e ED04          MOV dbl(*SP(#2)), XAR3
         0001a0 BF   
     533 0001a1 A97F          MOV *AR3(short(#7)), AR1 ; |374| 
     534 0001a3 ED00          MOV dbl(*SP(#0)), XAR3
         0001a5 BF   
     535 0001a6 C97D          MOV AR1, *AR3(short(#6)) ; |374| 
     536                      .dwpsn  file "../c5535_bsl_revc/ezdsp5535_v1/c55xx_csl/src/csl_dma.c",line 375,column 2,is_stmt
     537 0001a8 ED04          MOV dbl(*SP(#2)), XAR3
         0001aa BF   
     538 0001ab A97B          MOV *AR3(short(#5)), AR1 ; |375| 
     539 0001ad ED00          MOV dbl(*SP(#0)), XAR3
         0001af BF   
     540 0001b0 C97F          MOV AR1, *AR3(short(#7)) ; |375| 
     541                      .dwpsn  file "../c5535_bsl_revc/ezdsp5535_v1/c55xx_csl/src/csl_dma.c",line 379,column 2,is_stmt
     542 0001b2 ED04          MOV dbl(*SP(#2)), XAR3
         0001b4 BF   
     543 0001b5 F061          CMP *AR3 == #1, TC1 ; |379| 
         0001b7 0001 
     544 0001b9 6574          BCC $C$L16,!TC1 ; |379| 
     545                                                      ; branchcc occurs ; |379| 
     546                      .dwpsn  file "../c5535_bsl_revc/ezdsp5535_v1/c55xx_csl/src/csl_dma.c",line 381,column 3,is_stmt
     547 0001bb ED00          MOV dbl(*SP(#0)), XAR3
         0001bd BF   
     548 0001be E66D          MOV #1, *AR3(#8) ; |381| 
         0001c0 0100 
         0001c2 08   
     549                      .dwpsn  file "../c5535_bsl_revc/ezdsp5535_v1/c55xx_csl/src/csl_dma.c",line 382,column 2,is_stmt
TMS320C55x Assembler PC v4.4.1 Thu Sep 20 01:43:28 2018

Tools Copyright (c) 1996-2012 Texas Instruments Incorporated
csl_dma.asm                                                          PAGE   13

     550 0001c3 4A08          B $C$L17  ; |382| 
     551                                                      ; branch occurs ; |382| 
     552 0001c5       $C$L16:    
     553                      .dwpsn  file "../c5535_bsl_revc/ezdsp5535_v1/c55xx_csl/src/csl_dma.c",line 385,column 3,is_stmt
     554 0001c5 ED00          MOV dbl(*SP(#0)), XAR3
         0001c7 BF   
     555 0001c8 E66D          MOV #0, *AR3(#8) ; |385| 
         0001ca 0000 
         0001cc 08   
     556 0001cd       $C$L17:    
     557                      .dwpsn  file "../c5535_bsl_revc/ezdsp5535_v1/c55xx_csl/src/csl_dma.c",line 391,column 5,is_stmt
     558 0001cd ED04          MOV dbl(*SP(#2)), XAR3
         0001cf BF   
     559 0001d0 ED6D          MOV dbl(*AR3(#10)), AC0 ; |391| 
         0001d2 0800 
         0001d4 0A   
     560 0001d5 EB18          MOV AC0, dbl(*SP(#12)) ; |391| 
         0001d7 08   
     561                      .dwpsn  file "../c5535_bsl_revc/ezdsp5535_v1/c55xx_csl/src/csl_dma.c",line 392,column 5,is_stmt
     562 0001d8 ED04          MOV dbl(*SP(#2)), XAR3
         0001da BF   
     563 0001db ED6D          MOV dbl(*AR3(#12)), AC0 ; |392| 
         0001dd 0800 
         0001df 0C   
     564 0001e0 EB1C          MOV AC0, dbl(*SP(#14)) ; |392| 
         0001e2 08   
     565                      .dwpsn  file "../c5535_bsl_revc/ezdsp5535_v1/c55xx_csl/src/csl_dma.c",line 395,column 5,is_stmt
     566 0001e3 ED04          MOV dbl(*SP(#2)), XAR3
         0001e5 BF   
     567              
     568 0001e6 A97F          MOV *AR3(short(#7)), AR1 ; |395| 
     569 0001e8 3D1A  ||      MOV #1, AR2
     570              
     571 0001ea 12AC          CMP AR2 != AR1, TC1 ; |395| 
         0001ec 90   
     572 0001ed 6D64          BCC $C$L24,TC1 ; |395| 
         0001ef 00FF 
     573                                                      ; branchcc occurs ; |395| 
     574                      .dwpsn  file "../c5535_bsl_revc/ezdsp5535_v1/c55xx_csl/src/csl_dma.c",line 397,column 9,is_stmt
     575 0001f1 7600          MOV #96, AC0 ; |397| 
         0001f3 6008 
     576 0001f5 ED18          MOV dbl(*SP(#12)), AC1 ; |397| 
         0001f7 18   
     577 0001f8 1214          CMPU AC1 < AC0, TC1 ; |397| 
         0001fa 04   
     578 0001fb 0464          BCC $C$L18,TC1 ; |397| 
         0001fd 21   
     579                                                      ; branchcc occurs ; |397| 
     580 0001fe 767F          MOV #32767, AC0 ; |397| 
         000200 FF08 
     581 000202 ED18          MOV dbl(*SP(#12)), AC1 ; |397| 
         000204 18   
     582 000205 1204          CMPU AC1 > AC0, TC1 ; |397| 
         000207 14   
     583 000208 0464          BCC $C$L18,TC1 ; |397| 
TMS320C55x Assembler PC v4.4.1 Thu Sep 20 01:43:28 2018

Tools Copyright (c) 1996-2012 Texas Instruments Incorporated
csl_dma.asm                                                          PAGE   14

         00020a 14   
     584                                                      ; branchcc occurs ; |397| 
     585                      .dwpsn  file "../c5535_bsl_revc/ezdsp5535_v1/c55xx_csl/src/csl_dma.c",line 400,column 13,is_stmt
     586 00020b EC31          AMOV #65536, XAR3 ; |400| 
         00020d BE01 
         00020f 0000 
     587 000211 ED18          MOV dbl(*SP(#12)), AC1 ; |400| 
         000213 18   
     588              
     589 000216 5110          SFTL AC1, #1 ; |400| 
     590 000214 90B0  ||      MOV XAR3, AC0
     591              
     592 000218 2410          ADD AC1, AC0 ; |400| 
     593 00021a EB18          MOV AC0, dbl(*SP(#12)) ; |400| 
         00021c 08   
     594                      .dwpsn  file "../c5535_bsl_revc/ezdsp5535_v1/c55xx_csl/src/csl_dma.c",line 402,column 9,is_stmt
     595 00021d 4A3F          B $C$L20  ; |402| 
     596                                                      ; branch occurs ; |402| 
     597 00021f       $C$L18:    
     598                      .dwpsn  file "../c5535_bsl_revc/ezdsp5535_v1/c55xx_csl/src/csl_dma.c",line 403,column 14,is_stmt
     599              
     600 00021f ED18          MOV dbl(*SP(#12)), AC1 ; |403| 
         000221 18   
     601 000222 3D00  ||      MOV #0, AC0 ; |403| 
     602              
     603 000224 7E80          OR #0x8000, AC0, AC0 ; |403| 
         000226 0000 
     604 000228 1214          CMPU AC1 < AC0, TC1 ; |403| 
         00022a 04   
     605 00022b 0464          BCC $C$L19,TC1 ; |403| 
         00022d 25   
     606                                                      ; branchcc occurs ; |403| 
     607 00022e EC31          AMOV #163839, XAR3 ; |403| 
         000230 BE02 
         000232 7FFF 
     608 000234 ED18          MOV dbl(*SP(#12)), AC1 ; |403| 
         000236 18   
     609 000237 90B0          MOV XAR3, AC0
     610 000239 1204          CMPU AC1 > AC0, TC1 ; |403| 
         00023b 14   
     611 00023c 0464          BCC $C$L19,TC1 ; |403| 
         00023e 14   
     612                                                      ; branchcc occurs ; |403| 
     613                      .dwpsn  file "../c5535_bsl_revc/ezdsp5535_v1/c55xx_csl/src/csl_dma.c",line 406,column 13,is_stmt
     614 00023f EC31          AMOV #524288, XAR3 ; |406| 
         000241 BE08 
         000243 0000 
     615 000245 ED18          MOV dbl(*SP(#12)), AC1 ; |406| 
         000247 18   
     616              
     617 00024a 5110          SFTL AC1, #1 ; |406| 
     618 000248 90B0  ||      MOV XAR3, AC0
     619              
     620 00024c 2410          ADD AC1, AC0 ; |406| 
     621 00024e EB18          MOV AC0, dbl(*SP(#12)) ; |406| 
TMS320C55x Assembler PC v4.4.1 Thu Sep 20 01:43:28 2018

Tools Copyright (c) 1996-2012 Texas Instruments Incorporated
csl_dma.asm                                                          PAGE   15

         000250 08   
     622                      .dwpsn  file "../c5535_bsl_revc/ezdsp5535_v1/c55xx_csl/src/csl_dma.c",line 408,column 9,is_stmt
     623 000251 4A0B          B $C$L20  ; |408| 
     624                                                      ; branch occurs ; |408| 
     625 000253       $C$L19:    
     626                      .dwpsn  file "../c5535_bsl_revc/ezdsp5535_v1/c55xx_csl/src/csl_dma.c",line 411,column 13,is_stmt
     627 000253 ED04          MOV dbl(*SP(#2)), XAR3
         000255 BF   
     628 000256 ED6D          MOV dbl(*AR3(#10)), AC0 ; |411| 
         000258 0800 
         00025a 0A   
     629 00025b EB18          MOV AC0, dbl(*SP(#12)) ; |411| 
         00025d 08   
     630 00025e       $C$L20:    
     631                      .dwpsn  file "../c5535_bsl_revc/ezdsp5535_v1/c55xx_csl/src/csl_dma.c",line 414,column 9,is_stmt
     632 00025e 7600          MOV #96, AC0 ; |414| 
         000260 6008 
     633 000262 ED1C          MOV dbl(*SP(#14)), AC1 ; |414| 
         000264 18   
     634 000265 1214          CMPU AC1 < AC0, TC1 ; |414| 
         000267 04   
     635 000268 0464          BCC $C$L21,TC1 ; |414| 
         00026a 21   
     636                                                      ; branchcc occurs ; |414| 
     637 00026b 767F          MOV #32767, AC0 ; |414| 
         00026d FF08 
     638 00026f ED1C          MOV dbl(*SP(#14)), AC1 ; |414| 
         000271 18   
     639 000272 1204          CMPU AC1 > AC0, TC1 ; |414| 
         000274 14   
     640 000275 0464          BCC $C$L21,TC1 ; |414| 
         000277 14   
     641                                                      ; branchcc occurs ; |414| 
     642                      .dwpsn  file "../c5535_bsl_revc/ezdsp5535_v1/c55xx_csl/src/csl_dma.c",line 417,column 13,is_stmt
     643 000278 EC31          AMOV #65536, XAR3 ; |417| 
         00027a BE01 
         00027c 0000 
     644 00027e ED1C          MOV dbl(*SP(#14)), AC1 ; |417| 
         000280 18   
     645              
     646 000283 5110          SFTL AC1, #1 ; |417| 
     647 000281 90B0  ||      MOV XAR3, AC0
     648              
     649 000285 2410          ADD AC1, AC0 ; |417| 
     650 000287 EB1C          MOV AC0, dbl(*SP(#14)) ; |417| 
         000289 08   
     651                      .dwpsn  file "../c5535_bsl_revc/ezdsp5535_v1/c55xx_csl/src/csl_dma.c",line 419,column 9,is_stmt
     652 00028a 4A3F          B $C$L23  ; |419| 
     653                                                      ; branch occurs ; |419| 
     654 00028c       $C$L21:    
     655                      .dwpsn  file "../c5535_bsl_revc/ezdsp5535_v1/c55xx_csl/src/csl_dma.c",line 420,column 14,is_stmt
     656              
     657 00028c ED1C          MOV dbl(*SP(#14)), AC1 ; |420| 
         00028e 18   
     658 00028f 3D00  ||      MOV #0, AC0 ; |420| 
TMS320C55x Assembler PC v4.4.1 Thu Sep 20 01:43:28 2018

Tools Copyright (c) 1996-2012 Texas Instruments Incorporated
csl_dma.asm                                                          PAGE   16

     659              
     660 000291 7E80          OR #0x8000, AC0, AC0 ; |420| 
         000293 0000 
     661 000295 1214          CMPU AC1 < AC0, TC1 ; |420| 
         000297 04   
     662 000298 0464          BCC $C$L22,TC1 ; |420| 
         00029a 25   
     663                                                      ; branchcc occurs ; |420| 
     664 00029b EC31          AMOV #163839, XAR3 ; |420| 
         00029d BE02 
         00029f 7FFF 
     665 0002a1 ED1C          MOV dbl(*SP(#14)), AC1 ; |420| 
         0002a3 18   
     666 0002a4 90B0          MOV XAR3, AC0
     667 0002a6 1204          CMPU AC1 > AC0, TC1 ; |420| 
         0002a8 14   
     668 0002a9 0464          BCC $C$L22,TC1 ; |420| 
         0002ab 14   
     669                                                      ; branchcc occurs ; |420| 
     670                      .dwpsn  file "../c5535_bsl_revc/ezdsp5535_v1/c55xx_csl/src/csl_dma.c",line 423,column 13,is_stmt
     671 0002ac EC31          AMOV #524288, XAR3 ; |423| 
         0002ae BE08 
         0002b0 0000 
     672 0002b2 ED1C          MOV dbl(*SP(#14)), AC1 ; |423| 
         0002b4 18   
     673              
     674 0002b7 5110          SFTL AC1, #1 ; |423| 
     675 0002b5 90B0  ||      MOV XAR3, AC0
     676              
     677 0002b9 2410          ADD AC1, AC0 ; |423| 
     678 0002bb EB1C          MOV AC0, dbl(*SP(#14)) ; |423| 
         0002bd 08   
     679                      .dwpsn  file "../c5535_bsl_revc/ezdsp5535_v1/c55xx_csl/src/csl_dma.c",line 425,column 9,is_stmt
     680 0002be 4A0B          B $C$L23  ; |425| 
     681                                                      ; branch occurs ; |425| 
     682 0002c0       $C$L22:    
     683                      .dwpsn  file "../c5535_bsl_revc/ezdsp5535_v1/c55xx_csl/src/csl_dma.c",line 428,column 13,is_stmt
     684 0002c0 ED04          MOV dbl(*SP(#2)), XAR3
         0002c2 BF   
     685 0002c3 ED6D          MOV dbl(*AR3(#12)), AC0 ; |428| 
         0002c5 0800 
         0002c7 0C   
     686 0002c8 EB1C          MOV AC0, dbl(*SP(#14)) ; |428| 
         0002ca 08   
     687 0002cb       $C$L23:    
     688                      .dwpsn  file "../c5535_bsl_revc/ezdsp5535_v1/c55xx_csl/src/csl_dma.c",line 431,column 9,is_stmt
     689 0002cb ED18          MOV dbl(*SP(#12)), AC0 ; |431| 
         0002cd 08   
     690 0002ce 7DFF          AND #0xffff, AC0, AC0 ; |431| 
         0002d0 FF00 
     691 0002d2 C00A          MOV AC0, *SP(#5) ; |431| 
     692                      .dwpsn  file "../c5535_bsl_revc/ezdsp5535_v1/c55xx_csl/src/csl_dma.c",line 432,column 9,is_stmt
     693 0002d4 ED18          MOV dbl(*SP(#12)), AC0 ; |432| 
         0002d6 08   
     694 0002d7 BC0C          MOV HI(AC0), *SP(#6) ; |432| 
TMS320C55x Assembler PC v4.4.1 Thu Sep 20 01:43:28 2018

Tools Copyright (c) 1996-2012 Texas Instruments Incorporated
csl_dma.asm                                                          PAGE   17

     695                      .dwpsn  file "../c5535_bsl_revc/ezdsp5535_v1/c55xx_csl/src/csl_dma.c",line 433,column 9,is_stmt
     696 0002d9 ED1C          MOV dbl(*SP(#14)), AC0 ; |433| 
         0002db 08   
     697 0002dc 7DFF          AND #0xffff, AC0, AC0 ; |433| 
         0002de FF00 
     698 0002e0 C00E          MOV AC0, *SP(#7) ; |433| 
     699                      .dwpsn  file "../c5535_bsl_revc/ezdsp5535_v1/c55xx_csl/src/csl_dma.c",line 434,column 9,is_stmt
     700 0002e2 ED1C          MOV dbl(*SP(#14)), AC0 ; |434| 
         0002e4 08   
     701 0002e5 BC10          MOV HI(AC0), *SP(#8) ; |434| 
     702                      .dwpsn  file "../c5535_bsl_revc/ezdsp5535_v1/c55xx_csl/src/csl_dma.c",line 435,column 9,is_stmt
     703 0002e7 E612          MOV #0, *SP(#9) ; |435| 
         0002e9 00   
     704                      .dwpsn  file "../c5535_bsl_revc/ezdsp5535_v1/c55xx_csl/src/csl_dma.c",line 436,column 3,is_stmt
     705 0002ea E614          MOV #0, *SP(#10) ; |436| 
         0002ec 00   
     706                      .dwpsn  file "../c5535_bsl_revc/ezdsp5535_v1/c55xx_csl/src/csl_dma.c",line 437,column 5,is_stmt
     707 0002ed 0605          B $C$L36  ; |437| 
         0002ef DD   
     708                                                      ; branch occurs ; |437| 
     709 0002f0       $C$L24:    
     710                      .dwpsn  file "../c5535_bsl_revc/ezdsp5535_v1/c55xx_csl/src/csl_dma.c",line 441,column 9,is_stmt
     711 0002f0 ED00          MOV dbl(*SP(#0)), XAR3
         0002f2 BF   
     712 0002f3 A979          MOV *AR3(short(#4)), AR1 ; |441| 
     713 0002f5 6D19          BCC $C$L28,AR1 != #0 ; |441| 
         0002f7 008F 
     714                                                      ; branchcc occurs ; |441| 
     715                      .dwpsn  file "../c5535_bsl_revc/ezdsp5535_v1/c55xx_csl/src/csl_dma.c",line 443,column 13,is_stmt
     716 0002f9 7600          MOV #96, AC0 ; |443| 
         0002fb 6008 
     717 0002fd ED1C          MOV dbl(*SP(#14)), AC1 ; |443| 
         0002ff 18   
     718 000300 1214          CMPU AC1 < AC0, TC1 ; |443| 
         000302 04   
     719 000303 0464          BCC $C$L25,TC1 ; |443| 
         000305 21   
     720                                                      ; branchcc occurs ; |443| 
     721 000306 767F          MOV #32767, AC0 ; |443| 
         000308 FF08 
     722 00030a ED1C          MOV dbl(*SP(#14)), AC1 ; |443| 
         00030c 18   
     723 00030d 1204          CMPU AC1 > AC0, TC1 ; |443| 
         00030f 14   
     724 000310 0464          BCC $C$L25,TC1 ; |443| 
         000312 14   
     725                                                      ; branchcc occurs ; |443| 
     726                      .dwpsn  file "../c5535_bsl_revc/ezdsp5535_v1/c55xx_csl/src/csl_dma.c",line 446,column 17,is_stmt
     727 000313 EC31          AMOV #65536, XAR3 ; |446| 
         000315 BE01 
         000317 0000 
     728 000319 ED1C          MOV dbl(*SP(#14)), AC1 ; |446| 
         00031b 18   
     729              
     730 00031e 5110          SFTL AC1, #1 ; |446| 
TMS320C55x Assembler PC v4.4.1 Thu Sep 20 01:43:28 2018

Tools Copyright (c) 1996-2012 Texas Instruments Incorporated
csl_dma.asm                                                          PAGE   18

     731 00031c 90B0  ||      MOV XAR3, AC0
     732              
     733 000320 2410          ADD AC1, AC0 ; |446| 
     734 000322 EB1C          MOV AC0, dbl(*SP(#14)) ; |446| 
         000324 08   
     735                      .dwpsn  file "../c5535_bsl_revc/ezdsp5535_v1/c55xx_csl/src/csl_dma.c",line 448,column 13,is_stmt
     736 000325 4A3F          B $C$L27  ; |448| 
     737                                                      ; branch occurs ; |448| 
     738 000327       $C$L25:    
     739                      .dwpsn  file "../c5535_bsl_revc/ezdsp5535_v1/c55xx_csl/src/csl_dma.c",line 449,column 18,is_stmt
     740              
     741 000327 ED1C          MOV dbl(*SP(#14)), AC1 ; |449| 
         000329 18   
     742 00032a 3D00  ||      MOV #0, AC0 ; |449| 
     743              
     744 00032c 7E80          OR #0x8000, AC0, AC0 ; |449| 
         00032e 0000 
     745 000330 1214          CMPU AC1 < AC0, TC1 ; |449| 
         000332 04   
     746 000333 0464          BCC $C$L26,TC1 ; |449| 
         000335 25   
     747                                                      ; branchcc occurs ; |449| 
     748 000336 EC31          AMOV #163839, XAR3 ; |449| 
         000338 BE02 
         00033a 7FFF 
     749 00033c ED1C          MOV dbl(*SP(#14)), AC1 ; |449| 
         00033e 18   
     750 00033f 90B0          MOV XAR3, AC0
     751 000341 1204          CMPU AC1 > AC0, TC1 ; |449| 
         000343 14   
     752 000344 0464          BCC $C$L26,TC1 ; |449| 
         000346 14   
     753                                                      ; branchcc occurs ; |449| 
     754                      .dwpsn  file "../c5535_bsl_revc/ezdsp5535_v1/c55xx_csl/src/csl_dma.c",line 452,column 17,is_stmt
     755 000347 EC31          AMOV #524288, XAR3 ; |452| 
         000349 BE08 
         00034b 0000 
     756 00034d ED1C          MOV dbl(*SP(#14)), AC1 ; |452| 
         00034f 18   
     757              
     758 000352 5110          SFTL AC1, #1 ; |452| 
     759 000350 90B0  ||      MOV XAR3, AC0
     760              
     761 000354 2410          ADD AC1, AC0 ; |452| 
     762 000356 EB1C          MOV AC0, dbl(*SP(#14)) ; |452| 
         000358 08   
     763                      .dwpsn  file "../c5535_bsl_revc/ezdsp5535_v1/c55xx_csl/src/csl_dma.c",line 454,column 13,is_stmt
     764 000359 4A0B          B $C$L27  ; |454| 
     765                                                      ; branch occurs ; |454| 
     766 00035b       $C$L26:    
     767                      .dwpsn  file "../c5535_bsl_revc/ezdsp5535_v1/c55xx_csl/src/csl_dma.c",line 457,column 17,is_stmt
     768 00035b ED04          MOV dbl(*SP(#2)), XAR3
         00035d BF   
     769 00035e ED6D          MOV dbl(*AR3(#12)), AC0 ; |457| 
         000360 0800 
TMS320C55x Assembler PC v4.4.1 Thu Sep 20 01:43:28 2018

Tools Copyright (c) 1996-2012 Texas Instruments Incorporated
csl_dma.asm                                                          PAGE   19

         000362 0C   
     770 000363 EB1C          MOV AC0, dbl(*SP(#14)) ; |457| 
         000365 08   
     771 000366       $C$L27:    
     772                      .dwpsn  file "../c5535_bsl_revc/ezdsp5535_v1/c55xx_csl/src/csl_dma.c",line 459,column 13,is_stmt
     773 000366 ED18          MOV dbl(*SP(#12)), AC0 ; |459| 
         000368 08   
     774 000369 7DFF          AND #0xffff, AC0, AC0 ; |459| 
         00036b FF00 
     775 00036d C00A          MOV AC0, *SP(#5) ; |459| 
     776                      .dwpsn  file "../c5535_bsl_revc/ezdsp5535_v1/c55xx_csl/src/csl_dma.c",line 460,column 13,is_stmt
     777 00036f ED18          MOV dbl(*SP(#12)), AC0 ; |460| 
         000371 08   
     778 000372 BC0C          MOV HI(AC0), *SP(#6) ; |460| 
     779                      .dwpsn  file "../c5535_bsl_revc/ezdsp5535_v1/c55xx_csl/src/csl_dma.c",line 461,column 13,is_stmt
     780 000374 ED1C          MOV dbl(*SP(#14)), AC0 ; |461| 
         000376 08   
     781 000377 7DFF          AND #0xffff, AC0, AC0 ; |461| 
         000379 FF00 
     782 00037b C00E          MOV AC0, *SP(#7) ; |461| 
     783                      .dwpsn  file "../c5535_bsl_revc/ezdsp5535_v1/c55xx_csl/src/csl_dma.c",line 462,column 13,is_stmt
     784 00037d ED1C          MOV dbl(*SP(#14)), AC0 ; |462| 
         00037f 08   
     785 000380 BC10          MOV HI(AC0), *SP(#8) ; |462| 
     786                      .dwpsn  file "../c5535_bsl_revc/ezdsp5535_v1/c55xx_csl/src/csl_dma.c",line 466,column 13,is_stmt
     787 000382 E612          MOV #2, *SP(#9) ; |466| 
         000384 02   
     788                      .dwpsn  file "../c5535_bsl_revc/ezdsp5535_v1/c55xx_csl/src/csl_dma.c",line 467,column 13,is_stmt
     789 000385 E614          MOV #0, *SP(#10) ; |467| 
         000387 00   
     790 000388       $C$L28:    
     791                      .dwpsn  file "../c5535_bsl_revc/ezdsp5535_v1/c55xx_csl/src/csl_dma.c",line 470,column 9,is_stmt
     792 000388 ED00          MOV dbl(*SP(#0)), XAR3
         00038a BF   
     793 00038b F079          CMP *AR3(short(#4)) == #1, TC1 ; |470| 
         00038d 0001 
     794 00038f 6D74          BCC $C$L36,!TC1 ; |470| 
         000391 053A 
     795                                                      ; branchcc occurs ; |470| 
     796                      .dwpsn  file "../c5535_bsl_revc/ezdsp5535_v1/c55xx_csl/src/csl_dma.c",line 472,column 13,is_stmt
     797 000393 7600          MOV #96, AC0 ; |472| 
         000395 6008 
     798 000397 ED18          MOV dbl(*SP(#12)), AC1 ; |472| 
         000399 18   
     799 00039a 1214          CMPU AC1 < AC0, TC1 ; |472| 
         00039c 04   
     800 00039d 0464          BCC $C$L29,TC1 ; |472| 
         00039f 21   
     801                                                      ; branchcc occurs ; |472| 
     802 0003a0 767F          MOV #32767, AC0 ; |472| 
         0003a2 FF08 
     803 0003a4 ED18          MOV dbl(*SP(#12)), AC1 ; |472| 
         0003a6 18   
     804 0003a7 1204          CMPU AC1 > AC0, TC1 ; |472| 
         0003a9 14   
TMS320C55x Assembler PC v4.4.1 Thu Sep 20 01:43:28 2018

Tools Copyright (c) 1996-2012 Texas Instruments Incorporated
csl_dma.asm                                                          PAGE   20

     805 0003aa 0464          BCC $C$L29,TC1 ; |472| 
         0003ac 14   
     806                                                      ; branchcc occurs ; |472| 
     807                      .dwpsn  file "../c5535_bsl_revc/ezdsp5535_v1/c55xx_csl/src/csl_dma.c",line 475,column 17,is_stmt
     808 0003ad EC31          AMOV #65536, XAR3 ; |475| 
         0003af BE01 
         0003b1 0000 
     809 0003b3 ED18          MOV dbl(*SP(#12)), AC1 ; |475| 
         0003b5 18   
     810              
     811 0003b8 5110          SFTL AC1, #1 ; |475| 
     812 0003b6 90B0  ||      MOV XAR3, AC0
     813              
     814 0003ba 2410          ADD AC1, AC0 ; |475| 
     815 0003bc EB18          MOV AC0, dbl(*SP(#12)) ; |475| 
         0003be 08   
     816                      .dwpsn  file "../c5535_bsl_revc/ezdsp5535_v1/c55xx_csl/src/csl_dma.c",line 477,column 13,is_stmt
     817 0003bf 4A3F          B $C$L31  ; |477| 
     818                                                      ; branch occurs ; |477| 
     819 0003c1       $C$L29:    
     820                      .dwpsn  file "../c5535_bsl_revc/ezdsp5535_v1/c55xx_csl/src/csl_dma.c",line 478,column 18,is_stmt
     821              
     822 0003c1 ED18          MOV dbl(*SP(#12)), AC1 ; |478| 
         0003c3 18   
     823 0003c4 3D00  ||      MOV #0, AC0 ; |478| 
     824              
     825 0003c6 7E80          OR #0x8000, AC0, AC0 ; |478| 
         0003c8 0000 
     826 0003ca 1214          CMPU AC1 < AC0, TC1 ; |478| 
         0003cc 04   
     827 0003cd 0464          BCC $C$L30,TC1 ; |478| 
         0003cf 25   
     828                                                      ; branchcc occurs ; |478| 
     829 0003d0 EC31          AMOV #163839, XAR3 ; |478| 
         0003d2 BE02 
         0003d4 7FFF 
     830 0003d6 ED18          MOV dbl(*SP(#12)), AC1 ; |478| 
         0003d8 18   
     831 0003d9 90B0          MOV XAR3, AC0
     832 0003db 1204          CMPU AC1 > AC0, TC1 ; |478| 
         0003dd 14   
     833 0003de 0464          BCC $C$L30,TC1 ; |478| 
         0003e0 14   
     834                                                      ; branchcc occurs ; |478| 
     835                      .dwpsn  file "../c5535_bsl_revc/ezdsp5535_v1/c55xx_csl/src/csl_dma.c",line 481,column 17,is_stmt
     836 0003e1 EC31          AMOV #524288, XAR3 ; |481| 
         0003e3 BE08 
         0003e5 0000 
     837 0003e7 ED18          MOV dbl(*SP(#12)), AC1 ; |481| 
         0003e9 18   
     838              
     839 0003ec 5110          SFTL AC1, #1 ; |481| 
     840 0003ea 90B0  ||      MOV XAR3, AC0
     841              
     842 0003ee 2410          ADD AC1, AC0 ; |481| 
TMS320C55x Assembler PC v4.4.1 Thu Sep 20 01:43:28 2018

Tools Copyright (c) 1996-2012 Texas Instruments Incorporated
csl_dma.asm                                                          PAGE   21

     843 0003f0 EB18          MOV AC0, dbl(*SP(#12)) ; |481| 
         0003f2 08   
     844                      .dwpsn  file "../c5535_bsl_revc/ezdsp5535_v1/c55xx_csl/src/csl_dma.c",line 483,column 13,is_stmt
     845 0003f3 4A0B          B $C$L31  ; |483| 
     846                                                      ; branch occurs ; |483| 
     847 0003f5       $C$L30:    
     848                      .dwpsn  file "../c5535_bsl_revc/ezdsp5535_v1/c55xx_csl/src/csl_dma.c",line 486,column 17,is_stmt
     849 0003f5 ED04          MOV dbl(*SP(#2)), XAR3
         0003f7 BF   
     850 0003f8 ED6D          MOV dbl(*AR3(#10)), AC0 ; |486| 
         0003fa 0800 
         0003fc 0A   
     851 0003fd EB18          MOV AC0, dbl(*SP(#12)) ; |486| 
         0003ff 08   
     852 000400       $C$L31:    
     853                      .dwpsn  file "../c5535_bsl_revc/ezdsp5535_v1/c55xx_csl/src/csl_dma.c",line 488,column 13,is_stmt
     854 000400 ED18          MOV dbl(*SP(#12)), AC0 ; |488| 
         000402 08   
     855 000403 7DFF          AND #0xffff, AC0, AC0 ; |488| 
         000405 FF00 
     856 000407 C00A          MOV AC0, *SP(#5) ; |488| 
     857                      .dwpsn  file "../c5535_bsl_revc/ezdsp5535_v1/c55xx_csl/src/csl_dma.c",line 489,column 13,is_stmt
     858 000409 ED18          MOV dbl(*SP(#12)), AC0 ; |489| 
         00040b 08   
     859 00040c BC0C          MOV HI(AC0), *SP(#6) ; |489| 
     860                      .dwpsn  file "../c5535_bsl_revc/ezdsp5535_v1/c55xx_csl/src/csl_dma.c",line 490,column 13,is_stmt
     861 00040e ED1C          MOV dbl(*SP(#14)), AC0 ; |490| 
         000410 08   
     862 000411 7DFF          AND #0xffff, AC0, AC0 ; |490| 
         000413 FF00 
     863 000415 C00E          MOV AC0, *SP(#7) ; |490| 
     864                      .dwpsn  file "../c5535_bsl_revc/ezdsp5535_v1/c55xx_csl/src/csl_dma.c",line 491,column 13,is_stmt
     865 000417 ED1C          MOV dbl(*SP(#14)), AC0 ; |491| 
         000419 08   
     866 00041a BC10          MOV HI(AC0), *SP(#8) ; |491| 
     867                      .dwpsn  file "../c5535_bsl_revc/ezdsp5535_v1/c55xx_csl/src/csl_dma.c",line 495,column 13,is_stmt
     868 00041c E612          MOV #0, *SP(#9) ; |495| 
         00041e 00   
     869                      .dwpsn  file "../c5535_bsl_revc/ezdsp5535_v1/c55xx_csl/src/csl_dma.c",line 496,column 13,is_stmt
     870 00041f E614          MOV #2, *SP(#10) ; |496| 
         000421 02   
     871                      .dwpsn  file "../c5535_bsl_revc/ezdsp5535_v1/c55xx_csl/src/csl_dma.c",line 500,column 5,is_stmt
     872 000422 0604          B $C$L36  ; |500| 
         000424 A8   
     873                                                      ; branch occurs ; |500| 
     874 000425       $C$L32:    
     875                      .dwpsn  file "../c5535_bsl_revc/ezdsp5535_v1/c55xx_csl/src/csl_dma.c",line 504,column 3,is_stmt
     876 000425 ED00          MOV dbl(*SP(#0)), XAR3
         000427 BF   
     877 000428 AB61          MOV *AR3, AR3 ; |504| 
     878 00042a F47B          AND #0x7ffb, port(*AR3(short(#5))) ; |504| 
         00042c 7FFB 
         00042e 9A   
     879                      .dwpsn  file "../c5535_bsl_revc/ezdsp5535_v1/c55xx_csl/src/csl_dma.c",line 507,column 3,is_stmt
     880 00042f ED00          MOV dbl(*SP(#0)), XAR3
TMS320C55x Assembler PC v4.4.1 Thu Sep 20 01:43:28 2018

Tools Copyright (c) 1996-2012 Texas Instruments Incorporated
csl_dma.asm                                                          PAGE   22

         000431 BF   
     881 000432 AB61          MOV *AR3, AR3 ; |507| 
     882 000434 A961          MOV port(*AR3), AR1 ; |507| 
         000436 99   
     883 000437 ED00          MOV dbl(*SP(#0)), XAR3
         000439 BF   
     884 00043a AB61          MOV *AR3, AR3 ; |507| 
     885 00043c A90A          MOV *SP(#5), AR1 ; |507| 
     886 00043e 1A00          OR #0x0000, AR1, AR1 ; |507| 
         000440 99   
     887 000441 C961          MOV AR1, port(*AR3) ; |507| 
         000443 9A   
     888                      .dwpsn  file "../c5535_bsl_revc/ezdsp5535_v1/c55xx_csl/src/csl_dma.c",line 509,column 3,is_stmt
     889 000444 ED00          MOV dbl(*SP(#0)), XAR3
         000446 BF   
     890 000447 AB61          MOV *AR3, AR3 ; |509| 
     891 000449 A973          MOV port(*AR3(short(#1))), AR1 ; |509| 
         00044b 99   
     892 00044c ED00          MOV dbl(*SP(#0)), XAR3
         00044e BF   
     893 00044f AB61          MOV *AR3, AR3 ; |509| 
     894 000451 A90C          MOV *SP(#6), AR1 ; |509| 
     895 000453 1A00          OR #0x0000, AR1, AR1 ; |509| 
         000455 99   
     896 000456 C973          MOV AR1, port(*AR3(short(#1))) ; |509| 
         000458 9A   
     897                      .dwpsn  file "../c5535_bsl_revc/ezdsp5535_v1/c55xx_csl/src/csl_dma.c",line 511,column 3,is_stmt
     898 000459 ED00          MOV dbl(*SP(#0)), XAR3
         00045b BF   
     899 00045c AB61          MOV *AR3, AR3 ; |511| 
     900 00045e A975          MOV port(*AR3(short(#2))), AR1 ; |511| 
         000460 99   
     901 000461 ED00          MOV dbl(*SP(#0)), XAR3
         000463 BF   
     902 000464 AB61          MOV *AR3, AR3 ; |511| 
     903 000466 A90E          MOV *SP(#7), AR1 ; |511| 
     904 000468 1A00          OR #0x0000, AR1, AR1 ; |511| 
         00046a 99   
     905 00046b C975          MOV AR1, port(*AR3(short(#2))) ; |511| 
         00046d 9A   
     906                      .dwpsn  file "../c5535_bsl_revc/ezdsp5535_v1/c55xx_csl/src/csl_dma.c",line 513,column 3,is_stmt
     907 00046e ED00          MOV dbl(*SP(#0)), XAR3
         000470 BF   
     908 000471 AB61          MOV *AR3, AR3 ; |513| 
     909 000473 A977          MOV port(*AR3(short(#3))), AR1 ; |513| 
         000475 99   
     910 000476 ED00          MOV dbl(*SP(#0)), XAR3
         000478 BF   
     911 000479 AB61          MOV *AR3, AR3 ; |513| 
     912 00047b A910          MOV *SP(#8), AR1 ; |513| 
     913 00047d 1A00          OR #0x0000, AR1, AR1 ; |513| 
         00047f 99   
     914 000480 C977          MOV AR1, port(*AR3(short(#3))) ; |513| 
         000482 9A   
     915                      .dwpsn  file "../c5535_bsl_revc/ezdsp5535_v1/c55xx_csl/src/csl_dma.c",line 515,column 3,is_stmt
TMS320C55x Assembler PC v4.4.1 Thu Sep 20 01:43:28 2018

Tools Copyright (c) 1996-2012 Texas Instruments Incorporated
csl_dma.asm                                                          PAGE   23

     916 000483 ED00          MOV dbl(*SP(#0)), XAR3
         000485 BF   
     917 000486 AB61          MOV *AR3, AR3 ; |515| 
     918 000488 A97B          MOV port(*AR3(short(#5))), AR1 ; |515| 
         00048a 99   
     919 00048b ED04          MOV dbl(*SP(#2)), XAR3
         00048d BF   
     920 00048e F973          MOV *AR3(short(#1)) << #12, AC0 ; |515| 
         000490 0C08 
     921 000492 ED00          MOV dbl(*SP(#0)), XAR3
         000494 BF   
     922 000495 AB61          MOV *AR3, AR3 ; |515| 
     923 000497 EC18          BCLR @#12, AR1 ; |515| 
         000499 92   
     924 00049a 7D10          AND #0x1000, AC0, AR2 ; |515| 
         00049c 00A0 
     925 00049e 2A9A          OR AR1, AR2 ; |515| 
     926 0004a0 CA7B          MOV AR2, port(*AR3(short(#5))) ; |515| 
         0004a2 9A   
     927                      .dwpsn  file "../c5535_bsl_revc/ezdsp5535_v1/c55xx_csl/src/csl_dma.c",line 517,column 3,is_stmt
     928 0004a3 ED00          MOV dbl(*SP(#0)), XAR3
         0004a5 BF   
     929 0004a6 AB61          MOV *AR3, AR3 ; |517| 
     930 0004a8 A97B          MOV port(*AR3(short(#5))), AR1 ; |517| 
         0004aa 99   
     931 0004ab ED04          MOV dbl(*SP(#2)), XAR3
         0004ad BF   
     932 0004ae F975          MOV *AR3(short(#2)) << #3, AC0 ; |517| 
         0004b0 0308 
     933 0004b2 ED00          MOV dbl(*SP(#0)), XAR3
         0004b4 BF   
     934 0004b5 AB61          MOV *AR3, AR3 ; |517| 
     935 0004b7 7DFF          AND #0xffc7, AR1, AR1 ; |517| 
         0004b9 C799 
     936 0004bb 1838          AND #0x0038, AC0, AR2 ; |517| 
         0004bd A0   
     937 0004be 2A9A          OR AR1, AR2 ; |517| 
     938 0004c0 CA7B          MOV AR2, port(*AR3(short(#5))) ; |517| 
         0004c2 9A   
     939                      .dwpsn  file "../c5535_bsl_revc/ezdsp5535_v1/c55xx_csl/src/csl_dma.c",line 521,column 3,is_stmt
     940 0004c3 ED00          MOV dbl(*SP(#0)), XAR3
         0004c5 BF   
     941 0004c6 AB61          MOV *AR3, AR3 ; |521| 
     942 0004c8 A97B          MOV port(*AR3(short(#5))), AR1 ; |521| 
         0004ca 99   
     943 0004cb ED04          MOV dbl(*SP(#2)), XAR3
         0004cd BF   
     944 0004ce AA61          MOV *AR3, AR2 ; |521| 
     945 0004d0 ED00          MOV dbl(*SP(#0)), XAR3
         0004d2 BF   
     946 0004d3 AB61          MOV *AR3, AR3 ; |521| 
     947 0004d5 EC00          BCLR @#0, AR1 ; |521| 
         0004d7 92   
     948 0004d8 1801          AND #0x0001, AR2, AR2 ; |521| 
         0004da AA   
TMS320C55x Assembler PC v4.4.1 Thu Sep 20 01:43:28 2018

Tools Copyright (c) 1996-2012 Texas Instruments Incorporated
csl_dma.asm                                                          PAGE   24

     949 0004db 2A9A          OR AR1, AR2 ; |521| 
     950 0004dd CA7B          MOV AR2, port(*AR3(short(#5))) ; |521| 
         0004df 9A   
     951                      .dwpsn  file "../c5535_bsl_revc/ezdsp5535_v1/c55xx_csl/src/csl_dma.c",line 525,column 3,is_stmt
     952 0004e0 ED00          MOV dbl(*SP(#0)), XAR3
         0004e2 BF   
     953 0004e3 AB61          MOV *AR3, AR3 ; |525| 
     954 0004e5 A97B          MOV port(*AR3(short(#5))), AR1 ; |525| 
         0004e7 99   
     955 0004e8 ED00          MOV dbl(*SP(#0)), XAR3
         0004ea BF   
     956 0004eb AB61          MOV *AR3, AR3 ; |525| 
     957 0004ed A012          MOV *SP(#9), AC0 ; |525| 
     958              
     959 0004ef 7DFF          AND #0xff3f, AR1, AR2 ; |525| 
         0004f1 3FA9 
     960 0004f3 1107  ||      SFTL AC0, #6, AC0 ; |525| 
         0004f5 06   
     961              
     962 0004f6 18C0          AND #0x00c0, AC0, AR1 ; |525| 
         0004f8 90   
     963 0004f9 2AA9          OR AR2, AR1 ; |525| 
     964 0004fb C97B          MOV AR1, port(*AR3(short(#5))) ; |525| 
         0004fd 9A   
     965                      .dwpsn  file "../c5535_bsl_revc/ezdsp5535_v1/c55xx_csl/src/csl_dma.c",line 527,column 3,is_stmt
     966 0004fe ED00          MOV dbl(*SP(#0)), XAR3
         000500 BF   
     967 000501 AB61          MOV *AR3, AR3 ; |527| 
     968 000503 A97B          MOV port(*AR3(short(#5))), AR1 ; |527| 
         000505 99   
     969 000506 ED00          MOV dbl(*SP(#0)), XAR3
         000508 BF   
     970 000509 AB61          MOV *AR3, AR3 ; |527| 
     971 00050b A014          MOV *SP(#10), AC0 ; |527| 
     972              
     973 00050d 7DFC          AND #0xfcff, AR1, AR2 ; |527| 
         00050f FFA9 
     974 000511 1107  ||      SFTL AC0, #8, AC0 ; |527| 
         000513 08   
     975              
     976 000514 7D03          AND #0x0300, AC0, AR1 ; |527| 
         000516 0090 
     977 000518 2AA9          OR AR2, AR1 ; |527| 
     978 00051a C97B          MOV AR1, port(*AR3(short(#5))) ; |527| 
         00051c 9A   
     979                      .dwpsn  file "../c5535_bsl_revc/ezdsp5535_v1/c55xx_csl/src/csl_dma.c",line 529,column 3,is_stmt
     980 00051d ED00          MOV dbl(*SP(#0)), XAR3
         00051f BF   
     981 000520 AB61          MOV *AR3, AR3 ; |529| 
     982 000522 A979          MOV port(*AR3(short(#4))), AR1 ; |529| 
         000524 99   
     983 000525 ED04          MOV dbl(*SP(#2)), XAR3
         000527 BF   
     984 000528 A96D          MOV *AR3(#8), AR1 ; |529| 
         00052a 0008 
TMS320C55x Assembler PC v4.4.1 Thu Sep 20 01:43:28 2018

Tools Copyright (c) 1996-2012 Texas Instruments Incorporated
csl_dma.asm                                                          PAGE   25

     985 00052c ED00          MOV dbl(*SP(#0)), XAR3
         00052e BF   
     986 00052f AB61          MOV *AR3, AR3 ; |529| 
     987 000531 1A00          OR #0x0000, AR1, AR1 ; |529| 
         000533 99   
     988 000534 C979          MOV AR1, port(*AR3(short(#4))) ; |529| 
         000536 9A   
     989                      .dwpsn  file "../c5535_bsl_revc/ezdsp5535_v1/c55xx_csl/src/csl_dma.c",line 531,column 14,is_stmt
     990 000537 0606          B $C$L53  ; |531| 
         000539 FC   
     991                                                      ; branch occurs ; |531| 
     992 00053a       $C$L33:    
     993                      .dwpsn  file "../c5535_bsl_revc/ezdsp5535_v1/c55xx_csl/src/csl_dma.c",line 535,column 3,is_stmt
     994 00053a ED00          MOV dbl(*SP(#0)), XAR3
         00053c BF   
     995 00053d 7600          MOV #37, T0 ; |535| 
         00053f 2548 
     996 000541 AB61          MOV *AR3, AR3 ; |535| 
     997 000543 F46B          AND #0x7ffb, port(*AR3(T0)) ; |535| 
         000545 7FFB 
         000547 9A   
     998                      .dwpsn  file "../c5535_bsl_revc/ezdsp5535_v1/c55xx_csl/src/csl_dma.c",line 538,column 3,is_stmt
     999 000548 ED00          MOV dbl(*SP(#0)), XAR3
         00054a BF   
    1000 00054b 7600          MOV #32, T0 ; |538| 
         00054d 2048 
    1001 00054f AB61          MOV *AR3, AR3 ; |538| 
    1002 000551 A96B          MOV port(*AR3(T0)), AR1 ; |538| 
         000553 99   
    1003 000554 ED00          MOV dbl(*SP(#0)), XAR3
         000556 BF   
    1004 000557 AB61          MOV *AR3, AR3 ; |538| 
    1005 000559 A90A          MOV *SP(#5), AR1 ; |538| 
    1006 00055b 1A00          OR #0x0000, AR1, AR1 ; |538| 
         00055d 99   
    1007 00055e C96B          MOV AR1, port(*AR3(T0)) ; |538| 
         000560 9A   
    1008                      .dwpsn  file "../c5535_bsl_revc/ezdsp5535_v1/c55xx_csl/src/csl_dma.c",line 540,column 3,is_stmt
    1009 000561 ED00          MOV dbl(*SP(#0)), XAR3
         000563 BF   
    1010 000564 7600          MOV #33, T0 ; |540| 
         000566 2148 
    1011 000568 AB61          MOV *AR3, AR3 ; |540| 
    1012 00056a A96B          MOV port(*AR3(T0)), AR1 ; |540| 
         00056c 99   
    1013 00056d ED00          MOV dbl(*SP(#0)), XAR3
         00056f BF   
    1014 000570 AB61          MOV *AR3, AR3 ; |540| 
    1015 000572 A90C          MOV *SP(#6), AR1 ; |540| 
    1016 000574 1A00          OR #0x0000, AR1, AR1 ; |540| 
         000576 99   
    1017 000577 C96B          MOV AR1, port(*AR3(T0)) ; |540| 
         000579 9A   
    1018                      .dwpsn  file "../c5535_bsl_revc/ezdsp5535_v1/c55xx_csl/src/csl_dma.c",line 542,column 3,is_stmt
    1019 00057a ED00          MOV dbl(*SP(#0)), XAR3
TMS320C55x Assembler PC v4.4.1 Thu Sep 20 01:43:28 2018

Tools Copyright (c) 1996-2012 Texas Instruments Incorporated
csl_dma.asm                                                          PAGE   26

         00057c BF   
    1020 00057d 7600          MOV #34, T0 ; |542| 
         00057f 2248 
    1021 000581 AB61          MOV *AR3, AR3 ; |542| 
    1022 000583 A96B          MOV port(*AR3(T0)), AR1 ; |542| 
         000585 99   
    1023 000586 ED00          MOV dbl(*SP(#0)), XAR3
         000588 BF   
    1024 000589 AB61          MOV *AR3, AR3 ; |542| 
    1025 00058b A90E          MOV *SP(#7), AR1 ; |542| 
    1026 00058d 1A00          OR #0x0000, AR1, AR1 ; |542| 
         00058f 99   
    1027 000590 C96B          MOV AR1, port(*AR3(T0)) ; |542| 
         000592 9A   
    1028                      .dwpsn  file "../c5535_bsl_revc/ezdsp5535_v1/c55xx_csl/src/csl_dma.c",line 544,column 3,is_stmt
    1029 000593 ED00          MOV dbl(*SP(#0)), XAR3
         000595 BF   
    1030 000596 7600          MOV #35, T0 ; |544| 
         000598 2348 
    1031 00059a AB61          MOV *AR3, AR3 ; |544| 
    1032 00059c A96B          MOV port(*AR3(T0)), AR1 ; |544| 
         00059e 99   
    1033 00059f ED00          MOV dbl(*SP(#0)), XAR3
         0005a1 BF   
    1034 0005a2 AB61          MOV *AR3, AR3 ; |544| 
    1035 0005a4 A910          MOV *SP(#8), AR1 ; |544| 
    1036 0005a6 1A00          OR #0x0000, AR1, AR1 ; |544| 
         0005a8 99   
    1037 0005a9 C96B          MOV AR1, port(*AR3(T0)) ; |544| 
         0005ab 9A   
    1038                      .dwpsn  file "../c5535_bsl_revc/ezdsp5535_v1/c55xx_csl/src/csl_dma.c",line 546,column 3,is_stmt
    1039 0005ac ED00          MOV dbl(*SP(#0)), XAR3
         0005ae BF   
    1040 0005af 7600          MOV #37, T0 ; |546| 
         0005b1 2548 
    1041 0005b3 AB61          MOV *AR3, AR3 ; |546| 
    1042 0005b5 A96B          MOV port(*AR3(T0)), AR1 ; |546| 
         0005b7 99   
    1043 0005b8 ED04          MOV dbl(*SP(#2)), XAR3
         0005ba BF   
    1044 0005bb F973          MOV *AR3(short(#1)) << #12, AC0 ; |546| 
         0005bd 0C08 
    1045 0005bf ED00          MOV dbl(*SP(#0)), XAR3
         0005c1 BF   
    1046 0005c2 AB61          MOV *AR3, AR3 ; |546| 
    1047 0005c4 EC18          BCLR @#12, AR1 ; |546| 
         0005c6 92   
    1048 0005c7 7D10          AND #0x1000, AC0, AR2 ; |546| 
         0005c9 00A0 
    1049 0005cb 2A9A          OR AR1, AR2 ; |546| 
    1050 0005cd CA6B          MOV AR2, port(*AR3(T0)) ; |546| 
         0005cf 9A   
    1051                      .dwpsn  file "../c5535_bsl_revc/ezdsp5535_v1/c55xx_csl/src/csl_dma.c",line 548,column 3,is_stmt
    1052 0005d0 ED00          MOV dbl(*SP(#0)), XAR3
         0005d2 BF   
TMS320C55x Assembler PC v4.4.1 Thu Sep 20 01:43:28 2018

Tools Copyright (c) 1996-2012 Texas Instruments Incorporated
csl_dma.asm                                                          PAGE   27

    1053 0005d3 AB61          MOV *AR3, AR3 ; |548| 
    1054 0005d5 A96B          MOV port(*AR3(T0)), AR1 ; |548| 
         0005d7 99   
    1055 0005d8 ED04          MOV dbl(*SP(#2)), XAR3
         0005da BF   
    1056 0005db F975          MOV *AR3(short(#2)) << #3, AC0 ; |548| 
         0005dd 0308 
    1057 0005df ED00          MOV dbl(*SP(#0)), XAR3
         0005e1 BF   
    1058 0005e2 AB61          MOV *AR3, AR3 ; |548| 
    1059 0005e4 7DFF          AND #0xffc7, AR1, AR2 ; |548| 
         0005e6 C7A9 
    1060 0005e8 1838          AND #0x0038, AC0, AR1 ; |548| 
         0005ea 90   
    1061 0005eb 2AA9          OR AR2, AR1 ; |548| 
    1062 0005ed C96B          MOV AR1, port(*AR3(T0)) ; |548| 
         0005ef 9A   
    1063                      .dwpsn  file "../c5535_bsl_revc/ezdsp5535_v1/c55xx_csl/src/csl_dma.c",line 552,column 3,is_stmt
    1064 0005f0 ED00          MOV dbl(*SP(#0)), XAR3
         0005f2 BF   
    1065 0005f3 AB61          MOV *AR3, AR3 ; |552| 
    1066 0005f5 AA6B          MOV port(*AR3(T0)), AR2 ; |552| 
         0005f7 99   
    1067 0005f8 ED04          MOV dbl(*SP(#2)), XAR3
         0005fa BF   
    1068 0005fb A961          MOV *AR3, AR1 ; |552| 
    1069 0005fd ED00          MOV dbl(*SP(#0)), XAR3
         0005ff BF   
    1070 000600 AB61          MOV *AR3, AR3 ; |552| 
    1071 000602 EC00          BCLR @#0, AR2 ; |552| 
         000604 A2   
    1072 000605 1801          AND #0x0001, AR1, AR1 ; |552| 
         000607 99   
    1073 000608 2AA9          OR AR2, AR1 ; |552| 
    1074 00060a C96B          MOV AR1, port(*AR3(T0)) ; |552| 
         00060c 9A   
    1075                      .dwpsn  file "../c5535_bsl_revc/ezdsp5535_v1/c55xx_csl/src/csl_dma.c",line 556,column 3,is_stmt
    1076 00060d ED00          MOV dbl(*SP(#0)), XAR3
         00060f BF   
    1077 000610 AB61          MOV *AR3, AR3 ; |556| 
    1078 000612 A96B          MOV port(*AR3(T0)), AR1 ; |556| 
         000614 99   
    1079 000615 ED00          MOV dbl(*SP(#0)), XAR3
         000617 BF   
    1080 000618 AB61          MOV *AR3, AR3 ; |556| 
    1081 00061a A012          MOV *SP(#9), AC0 ; |556| 
    1082              
    1083 00061c 7DFF          AND #0xff3f, AR1, AR2 ; |556| 
         00061e 3FA9 
    1084 000620 1107  ||      SFTL AC0, #6, AC0 ; |556| 
         000622 06   
    1085              
    1086 000623 18C0          AND #0x00c0, AC0, AR1 ; |556| 
         000625 90   
    1087 000626 2AA9          OR AR2, AR1 ; |556| 
TMS320C55x Assembler PC v4.4.1 Thu Sep 20 01:43:28 2018

Tools Copyright (c) 1996-2012 Texas Instruments Incorporated
csl_dma.asm                                                          PAGE   28

    1088 000628 C96B          MOV AR1, port(*AR3(T0)) ; |556| 
         00062a 9A   
    1089                      .dwpsn  file "../c5535_bsl_revc/ezdsp5535_v1/c55xx_csl/src/csl_dma.c",line 558,column 3,is_stmt
    1090 00062b ED00          MOV dbl(*SP(#0)), XAR3
         00062d BF   
    1091 00062e AB61          MOV *AR3, AR3 ; |558| 
    1092 000630 A96B          MOV port(*AR3(T0)), AR1 ; |558| 
         000632 99   
    1093 000633 ED00          MOV dbl(*SP(#0)), XAR3
         000635 BF   
    1094 000636 AB61          MOV *AR3, AR3 ; |558| 
    1095 000638 A014          MOV *SP(#10), AC0 ; |558| 
    1096              
    1097 00063a 7DFC          AND #0xfcff, AR1, AR2 ; |558| 
         00063c FFA9 
    1098 00063e 1107  ||      SFTL AC0, #8, AC0 ; |558| 
         000640 08   
    1099              
    1100 000641 7D03          AND #0x0300, AC0, AR1 ; |558| 
         000643 0090 
    1101 000645 2AA9          OR AR2, AR1 ; |558| 
    1102 000647 C96B          MOV AR1, port(*AR3(T0)) ; |558| 
         000649 9A   
    1103                      .dwpsn  file "../c5535_bsl_revc/ezdsp5535_v1/c55xx_csl/src/csl_dma.c",line 560,column 3,is_stmt
    1104 00064a ED00          MOV dbl(*SP(#0)), XAR3
         00064c BF   
    1105 00064d 7600          MOV #36, T0 ; |560| 
         00064f 2448 
    1106 000651 AB61          MOV *AR3, AR3 ; |560| 
    1107 000653 A96B          MOV port(*AR3(T0)), AR1 ; |560| 
         000655 99   
    1108 000656 ED04          MOV dbl(*SP(#2)), XAR3
         000658 BF   
    1109 000659 A96D          MOV *AR3(#8), AR1 ; |560| 
         00065b 0008 
    1110 00065d ED00          MOV dbl(*SP(#0)), XAR3
         00065f BF   
    1111 000660 AB61          MOV *AR3, AR3 ; |560| 
    1112 000662 1A00          OR #0x0000, AR1, AR1 ; |560| 
         000664 99   
    1113 000665 C96B          MOV AR1, port(*AR3(T0)) ; |560| 
         000667 9A   
    1114                      .dwpsn  file "../c5535_bsl_revc/ezdsp5535_v1/c55xx_csl/src/csl_dma.c",line 562,column 14,is_stmt
    1115 000668 0605          B $C$L53  ; |562| 
         00066a CB   
    1116                                                      ; branch occurs ; |562| 
    1117 00066b       $C$L34:    
    1118                      .dwpsn  file "../c5535_bsl_revc/ezdsp5535_v1/c55xx_csl/src/csl_dma.c",line 566,column 3,is_stmt
    1119 00066b ED00          MOV dbl(*SP(#0)), XAR3
         00066d BF   
    1120 00066e 7600          MOV #69, T0 ; |566| 
         000670 4548 
    1121 000672 AB61          MOV *AR3, AR3 ; |566| 
    1122 000674 F46B          AND #0x7ffb, port(*AR3(T0)) ; |566| 
         000676 7FFB 
TMS320C55x Assembler PC v4.4.1 Thu Sep 20 01:43:28 2018

Tools Copyright (c) 1996-2012 Texas Instruments Incorporated
csl_dma.asm                                                          PAGE   29

         000678 9A   
    1123                      .dwpsn  file "../c5535_bsl_revc/ezdsp5535_v1/c55xx_csl/src/csl_dma.c",line 569,column 3,is_stmt
    1124 000679 ED00          MOV dbl(*SP(#0)), XAR3
         00067b BF   
    1125 00067c 7600          MOV #64, T0 ; |569| 
         00067e 4048 
    1126 000680 AB61          MOV *AR3, AR3 ; |569| 
    1127 000682 A96B          MOV port(*AR3(T0)), AR1 ; |569| 
         000684 99   
    1128 000685 ED00          MOV dbl(*SP(#0)), XAR3
         000687 BF   
    1129 000688 AB61          MOV *AR3, AR3 ; |569| 
    1130 00068a A90A          MOV *SP(#5), AR1 ; |569| 
    1131 00068c 1A00          OR #0x0000, AR1, AR1 ; |569| 
         00068e 99   
    1132 00068f C96B          MOV AR1, port(*AR3(T0)) ; |569| 
         000691 9A   
    1133                      .dwpsn  file "../c5535_bsl_revc/ezdsp5535_v1/c55xx_csl/src/csl_dma.c",line 571,column 3,is_stmt
    1134 000692 ED00          MOV dbl(*SP(#0)), XAR3
         000694 BF   
    1135 000695 7600          MOV #65, T0 ; |571| 
         000697 4148 
    1136 000699 AB61          MOV *AR3, AR3 ; |571| 
    1137 00069b A96B          MOV port(*AR3(T0)), AR1 ; |571| 
         00069d 99   
    1138 00069e ED00          MOV dbl(*SP(#0)), XAR3
         0006a0 BF   
    1139 0006a1 AB61          MOV *AR3, AR3 ; |571| 
    1140 0006a3 A90C          MOV *SP(#6), AR1 ; |571| 
    1141 0006a5 1A00          OR #0x0000, AR1, AR1 ; |571| 
         0006a7 99   
    1142 0006a8 C96B          MOV AR1, port(*AR3(T0)) ; |571| 
         0006aa 9A   
    1143                      .dwpsn  file "../c5535_bsl_revc/ezdsp5535_v1/c55xx_csl/src/csl_dma.c",line 573,column 3,is_stmt
    1144 0006ab ED00          MOV dbl(*SP(#0)), XAR3
         0006ad BF   
    1145 0006ae 7600          MOV #66, T0 ; |573| 
         0006b0 4248 
    1146 0006b2 AB61          MOV *AR3, AR3 ; |573| 
    1147 0006b4 A96B          MOV port(*AR3(T0)), AR1 ; |573| 
         0006b6 99   
    1148 0006b7 ED00          MOV dbl(*SP(#0)), XAR3
         0006b9 BF   
    1149 0006ba AB61          MOV *AR3, AR3 ; |573| 
    1150 0006bc A90E          MOV *SP(#7), AR1 ; |573| 
    1151 0006be 1A00          OR #0x0000, AR1, AR1 ; |573| 
         0006c0 99   
    1152 0006c1 C96B          MOV AR1, port(*AR3(T0)) ; |573| 
         0006c3 9A   
    1153                      .dwpsn  file "../c5535_bsl_revc/ezdsp5535_v1/c55xx_csl/src/csl_dma.c",line 575,column 3,is_stmt
    1154 0006c4 ED00          MOV dbl(*SP(#0)), XAR3
         0006c6 BF   
    1155 0006c7 7600          MOV #67, T0 ; |575| 
         0006c9 4348 
    1156 0006cb AB61          MOV *AR3, AR3 ; |575| 
TMS320C55x Assembler PC v4.4.1 Thu Sep 20 01:43:28 2018

Tools Copyright (c) 1996-2012 Texas Instruments Incorporated
csl_dma.asm                                                          PAGE   30

    1157 0006cd A96B          MOV port(*AR3(T0)), AR1 ; |575| 
         0006cf 99   
    1158 0006d0 ED00          MOV dbl(*SP(#0)), XAR3
         0006d2 BF   
    1159 0006d3 AB61          MOV *AR3, AR3 ; |575| 
    1160 0006d5 A910          MOV *SP(#8), AR1 ; |575| 
    1161 0006d7 1A00          OR #0x0000, AR1, AR1 ; |575| 
         0006d9 99   
    1162 0006da C96B          MOV AR1, port(*AR3(T0)) ; |575| 
         0006dc 9A   
    1163                      .dwpsn  file "../c5535_bsl_revc/ezdsp5535_v1/c55xx_csl/src/csl_dma.c",line 577,column 3,is_stmt
    1164 0006dd ED00          MOV dbl(*SP(#0)), XAR3
         0006df BF   
    1165 0006e0 7600          MOV #69, T0 ; |577| 
         0006e2 4548 
    1166 0006e4 AB61          MOV *AR3, AR3 ; |577| 
    1167 0006e6 A96B          MOV port(*AR3(T0)), AR1 ; |577| 
         0006e8 99   
    1168 0006e9 ED04          MOV dbl(*SP(#2)), XAR3
         0006eb BF   
    1169 0006ec F973          MOV *AR3(short(#1)) << #12, AC0 ; |577| 
         0006ee 0C08 
    1170 0006f0 ED00          MOV dbl(*SP(#0)), XAR3
         0006f2 BF   
    1171 0006f3 AB61          MOV *AR3, AR3 ; |577| 
    1172 0006f5 EC18          BCLR @#12, AR1 ; |577| 
         0006f7 92   
    1173 0006f8 7D10          AND #0x1000, AC0, AR2 ; |577| 
         0006fa 00A0 
    1174 0006fc 2A9A          OR AR1, AR2 ; |577| 
    1175 0006fe CA6B          MOV AR2, port(*AR3(T0)) ; |577| 
         000700 9A   
    1176                      .dwpsn  file "../c5535_bsl_revc/ezdsp5535_v1/c55xx_csl/src/csl_dma.c",line 579,column 3,is_stmt
    1177 000701 ED00          MOV dbl(*SP(#0)), XAR3
         000703 BF   
    1178 000704 AB61          MOV *AR3, AR3 ; |579| 
    1179 000706 A96B          MOV port(*AR3(T0)), AR1 ; |579| 
         000708 99   
    1180 000709 ED04          MOV dbl(*SP(#2)), XAR3
         00070b BF   
    1181 00070c F975          MOV *AR3(short(#2)) << #3, AC0 ; |579| 
         00070e 0308 
    1182 000710 ED00          MOV dbl(*SP(#0)), XAR3
         000712 BF   
    1183 000713 AB61          MOV *AR3, AR3 ; |579| 
    1184 000715 7DFF          AND #0xffc7, AR1, AR2 ; |579| 
         000717 C7A9 
    1185 000719 1838          AND #0x0038, AC0, AR1 ; |579| 
         00071b 90   
    1186 00071c 2AA9          OR AR2, AR1 ; |579| 
    1187 00071e C96B          MOV AR1, port(*AR3(T0)) ; |579| 
         000720 9A   
    1188                      .dwpsn  file "../c5535_bsl_revc/ezdsp5535_v1/c55xx_csl/src/csl_dma.c",line 583,column 3,is_stmt
    1189 000721 ED00          MOV dbl(*SP(#0)), XAR3
         000723 BF   
TMS320C55x Assembler PC v4.4.1 Thu Sep 20 01:43:28 2018

Tools Copyright (c) 1996-2012 Texas Instruments Incorporated
csl_dma.asm                                                          PAGE   31

    1190 000724 AB61          MOV *AR3, AR3 ; |583| 
    1191 000726 AA6B          MOV port(*AR3(T0)), AR2 ; |583| 
         000728 99   
    1192 000729 ED04          MOV dbl(*SP(#2)), XAR3
         00072b BF   
    1193 00072c A961          MOV *AR3, AR1 ; |583| 
    1194 00072e ED00          MOV dbl(*SP(#0)), XAR3
         000730 BF   
    1195 000731 AB61          MOV *AR3, AR3 ; |583| 
    1196 000733 EC00          BCLR @#0, AR2 ; |583| 
         000735 A2   
    1197 000736 1801          AND #0x0001, AR1, AR1 ; |583| 
         000738 99   
    1198 000739 2AA9          OR AR2, AR1 ; |583| 
    1199 00073b C96B          MOV AR1, port(*AR3(T0)) ; |583| 
         00073d 9A   
    1200                      .dwpsn  file "../c5535_bsl_revc/ezdsp5535_v1/c55xx_csl/src/csl_dma.c",line 587,column 3,is_stmt
    1201 00073e ED00          MOV dbl(*SP(#0)), XAR3
         000740 BF   
    1202 000741 AB61          MOV *AR3, AR3 ; |587| 
    1203 000743 A96B          MOV port(*AR3(T0)), AR1 ; |587| 
         000745 99   
    1204 000746 ED00          MOV dbl(*SP(#0)), XAR3
         000748 BF   
    1205 000749 AB61          MOV *AR3, AR3 ; |587| 
    1206 00074b A012          MOV *SP(#9), AC0 ; |587| 
    1207              
    1208 00074d 7DFF          AND #0xff3f, AR1, AR2 ; |587| 
         00074f 3FA9 
    1209 000751 1107  ||      SFTL AC0, #6, AC0 ; |587| 
         000753 06   
    1210              
    1211 000754 18C0          AND #0x00c0, AC0, AR1 ; |587| 
         000756 90   
    1212 000757 2AA9          OR AR2, AR1 ; |587| 
    1213 000759 C96B          MOV AR1, port(*AR3(T0)) ; |587| 
         00075b 9A   
    1214                      .dwpsn  file "../c5535_bsl_revc/ezdsp5535_v1/c55xx_csl/src/csl_dma.c",line 589,column 3,is_stmt
    1215 00075c ED00          MOV dbl(*SP(#0)), XAR3
         00075e BF   
    1216 00075f AB61          MOV *AR3, AR3 ; |589| 
    1217 000761 A96B          MOV port(*AR3(T0)), AR1 ; |589| 
         000763 99   
    1218 000764 ED00          MOV dbl(*SP(#0)), XAR3
         000766 BF   
    1219 000767 AB61          MOV *AR3, AR3 ; |589| 
    1220 000769 A014          MOV *SP(#10), AC0 ; |589| 
    1221              
    1222 00076b 7DFC          AND #0xfcff, AR1, AR2 ; |589| 
         00076d FFA9 
    1223 00076f 1107  ||      SFTL AC0, #8, AC0 ; |589| 
         000771 08   
    1224              
    1225 000772 7D03          AND #0x0300, AC0, AR1 ; |589| 
         000774 0090 
TMS320C55x Assembler PC v4.4.1 Thu Sep 20 01:43:28 2018

Tools Copyright (c) 1996-2012 Texas Instruments Incorporated
csl_dma.asm                                                          PAGE   32

    1226 000776 2AA9          OR AR2, AR1 ; |589| 
    1227 000778 C96B          MOV AR1, port(*AR3(T0)) ; |589| 
         00077a 9A   
    1228                      .dwpsn  file "../c5535_bsl_revc/ezdsp5535_v1/c55xx_csl/src/csl_dma.c",line 591,column 3,is_stmt
    1229 00077b ED00          MOV dbl(*SP(#0)), XAR3
         00077d BF   
    1230 00077e 7600          MOV #68, T0 ; |591| 
         000780 4448 
    1231 000782 AB61          MOV *AR3, AR3 ; |591| 
    1232 000784 A96B          MOV port(*AR3(T0)), AR1 ; |591| 
         000786 99   
    1233 000787 ED04          MOV dbl(*SP(#2)), XAR3
         000789 BF   
    1234 00078a A96D          MOV *AR3(#8), AR1 ; |591| 
         00078c 0008 
    1235 00078e ED00          MOV dbl(*SP(#0)), XAR3
         000790 BF   
    1236 000791 AB61          MOV *AR3, AR3 ; |591| 
    1237 000793 1A00          OR #0x0000, AR1, AR1 ; |591| 
         000795 99   
    1238 000796 C96B          MOV AR1, port(*AR3(T0)) ; |591| 
         000798 9A   
    1239                      .dwpsn  file "../c5535_bsl_revc/ezdsp5535_v1/c55xx_csl/src/csl_dma.c",line 593,column 14,is_stmt
    1240 000799 0604          B $C$L53  ; |593| 
         00079b 9A   
    1241                                                      ; branch occurs ; |593| 
    1242 00079c       $C$L35:    
    1243                      .dwpsn  file "../c5535_bsl_revc/ezdsp5535_v1/c55xx_csl/src/csl_dma.c",line 597,column 3,is_stmt
    1244 00079c ED00          MOV dbl(*SP(#0)), XAR3
         00079e BF   
    1245 00079f 7600          MOV #101, T0 ; |597| 
         0007a1 6548 
    1246 0007a3 AB61          MOV *AR3, AR3 ; |597| 
    1247 0007a5 F46B          AND #0x7ffb, port(*AR3(T0)) ; |597| 
         0007a7 7FFB 
         0007a9 9A   
    1248                      .dwpsn  file "../c5535_bsl_revc/ezdsp5535_v1/c55xx_csl/src/csl_dma.c",line 600,column 3,is_stmt
    1249 0007aa ED00          MOV dbl(*SP(#0)), XAR3
         0007ac BF   
    1250 0007ad 7600          MOV #96, T0 ; |600| 
         0007af 6048 
    1251 0007b1 AB61          MOV *AR3, AR3 ; |600| 
    1252 0007b3 A96B          MOV port(*AR3(T0)), AR1 ; |600| 
         0007b5 99   
    1253 0007b6 ED00          MOV dbl(*SP(#0)), XAR3
         0007b8 BF   
    1254 0007b9 AB61          MOV *AR3, AR3 ; |600| 
    1255 0007bb A90A          MOV *SP(#5), AR1 ; |600| 
    1256 0007bd 1A00          OR #0x0000, AR1, AR1 ; |600| 
         0007bf 99   
    1257 0007c0 C96B          MOV AR1, port(*AR3(T0)) ; |600| 
         0007c2 9A   
    1258                      .dwpsn  file "../c5535_bsl_revc/ezdsp5535_v1/c55xx_csl/src/csl_dma.c",line 602,column 3,is_stmt
    1259 0007c3 ED00          MOV dbl(*SP(#0)), XAR3
         0007c5 BF   
TMS320C55x Assembler PC v4.4.1 Thu Sep 20 01:43:28 2018

Tools Copyright (c) 1996-2012 Texas Instruments Incorporated
csl_dma.asm                                                          PAGE   33

    1260 0007c6 7600          MOV #97, T0 ; |602| 
         0007c8 6148 
    1261 0007ca AB61          MOV *AR3, AR3 ; |602| 
    1262 0007cc A96B          MOV port(*AR3(T0)), AR1 ; |602| 
         0007ce 99   
    1263 0007cf ED00          MOV dbl(*SP(#0)), XAR3
         0007d1 BF   
    1264 0007d2 AB61          MOV *AR3, AR3 ; |602| 
    1265 0007d4 A90C          MOV *SP(#6), AR1 ; |602| 
    1266 0007d6 1A00          OR #0x0000, AR1, AR1 ; |602| 
         0007d8 99   
    1267 0007d9 C96B          MOV AR1, port(*AR3(T0)) ; |602| 
         0007db 9A   
    1268                      .dwpsn  file "../c5535_bsl_revc/ezdsp5535_v1/c55xx_csl/src/csl_dma.c",line 604,column 3,is_stmt
    1269 0007dc ED00          MOV dbl(*SP(#0)), XAR3
         0007de BF   
    1270 0007df 7600          MOV #98, T0 ; |604| 
         0007e1 6248 
    1271 0007e3 AB61          MOV *AR3, AR3 ; |604| 
    1272 0007e5 A96B          MOV port(*AR3(T0)), AR1 ; |604| 
         0007e7 99   
    1273 0007e8 ED00          MOV dbl(*SP(#0)), XAR3
         0007ea BF   
    1274 0007eb AB61          MOV *AR3, AR3 ; |604| 
    1275 0007ed A90E          MOV *SP(#7), AR1 ; |604| 
    1276 0007ef 1A00          OR #0x0000, AR1, AR1 ; |604| 
         0007f1 99   
    1277 0007f2 C96B          MOV AR1, port(*AR3(T0)) ; |604| 
         0007f4 9A   
    1278                      .dwpsn  file "../c5535_bsl_revc/ezdsp5535_v1/c55xx_csl/src/csl_dma.c",line 606,column 3,is_stmt
    1279 0007f5 ED00          MOV dbl(*SP(#0)), XAR3
         0007f7 BF   
    1280 0007f8 7600          MOV #99, T0 ; |606| 
         0007fa 6348 
    1281 0007fc AB61          MOV *AR3, AR3 ; |606| 
    1282 0007fe A96B          MOV port(*AR3(T0)), AR1 ; |606| 
         000800 99   
    1283 000801 ED00          MOV dbl(*SP(#0)), XAR3
         000803 BF   
    1284 000804 AB61          MOV *AR3, AR3 ; |606| 
    1285 000806 A910          MOV *SP(#8), AR1 ; |606| 
    1286 000808 1A00          OR #0x0000, AR1, AR1 ; |606| 
         00080a 99   
    1287 00080b C96B          MOV AR1, port(*AR3(T0)) ; |606| 
         00080d 9A   
    1288                      .dwpsn  file "../c5535_bsl_revc/ezdsp5535_v1/c55xx_csl/src/csl_dma.c",line 608,column 3,is_stmt
    1289 00080e ED00          MOV dbl(*SP(#0)), XAR3
         000810 BF   
    1290 000811 7600          MOV #101, T0 ; |608| 
         000813 6548 
    1291 000815 AB61          MOV *AR3, AR3 ; |608| 
    1292 000817 A96B          MOV port(*AR3(T0)), AR1 ; |608| 
         000819 99   
    1293 00081a ED04          MOV dbl(*SP(#2)), XAR3
         00081c BF   
TMS320C55x Assembler PC v4.4.1 Thu Sep 20 01:43:28 2018

Tools Copyright (c) 1996-2012 Texas Instruments Incorporated
csl_dma.asm                                                          PAGE   34

    1294 00081d F973          MOV *AR3(short(#1)) << #12, AC0 ; |608| 
         00081f 0C08 
    1295 000821 ED00          MOV dbl(*SP(#0)), XAR3
         000823 BF   
    1296 000824 AB61          MOV *AR3, AR3 ; |608| 
    1297 000826 EC18          BCLR @#12, AR1 ; |608| 
         000828 92   
    1298 000829 7D10          AND #0x1000, AC0, AR2 ; |608| 
         00082b 00A0 
    1299 00082d 2A9A          OR AR1, AR2 ; |608| 
    1300 00082f CA6B          MOV AR2, port(*AR3(T0)) ; |608| 
         000831 9A   
    1301                      .dwpsn  file "../c5535_bsl_revc/ezdsp5535_v1/c55xx_csl/src/csl_dma.c",line 610,column 3,is_stmt
    1302 000832 ED00          MOV dbl(*SP(#0)), XAR3
         000834 BF   
    1303 000835 AB61          MOV *AR3, AR3 ; |610| 
    1304 000837 A96B          MOV port(*AR3(T0)), AR1 ; |610| 
         000839 99   
    1305 00083a ED04          MOV dbl(*SP(#2)), XAR3
         00083c BF   
    1306 00083d F975          MOV *AR3(short(#2)) << #3, AC0 ; |610| 
         00083f 0308 
    1307 000841 ED00          MOV dbl(*SP(#0)), XAR3
         000843 BF   
    1308 000844 AB61          MOV *AR3, AR3 ; |610| 
    1309 000846 7DFF          AND #0xffc7, AR1, AR2 ; |610| 
         000848 C7A9 
    1310 00084a 1838          AND #0x0038, AC0, AR1 ; |610| 
         00084c 90   
    1311 00084d 2AA9          OR AR2, AR1 ; |610| 
    1312 00084f C96B          MOV AR1, port(*AR3(T0)) ; |610| 
         000851 9A   
    1313                      .dwpsn  file "../c5535_bsl_revc/ezdsp5535_v1/c55xx_csl/src/csl_dma.c",line 614,column 3,is_stmt
    1314 000852 ED00          MOV dbl(*SP(#0)), XAR3
         000854 BF   
    1315 000855 AB61          MOV *AR3, AR3 ; |614| 
    1316 000857 AA6B          MOV port(*AR3(T0)), AR2 ; |614| 
         000859 99   
    1317 00085a ED04          MOV dbl(*SP(#2)), XAR3
         00085c BF   
    1318 00085d A961          MOV *AR3, AR1 ; |614| 
    1319 00085f ED00          MOV dbl(*SP(#0)), XAR3
         000861 BF   
    1320 000862 AB61          MOV *AR3, AR3 ; |614| 
    1321 000864 EC00          BCLR @#0, AR2 ; |614| 
         000866 A2   
    1322 000867 1801          AND #0x0001, AR1, AR1 ; |614| 
         000869 99   
    1323 00086a 2AA9          OR AR2, AR1 ; |614| 
    1324 00086c C96B          MOV AR1, port(*AR3(T0)) ; |614| 
         00086e 9A   
    1325                      .dwpsn  file "../c5535_bsl_revc/ezdsp5535_v1/c55xx_csl/src/csl_dma.c",line 618,column 3,is_stmt
    1326 00086f ED00          MOV dbl(*SP(#0)), XAR3
         000871 BF   
    1327 000872 AB61          MOV *AR3, AR3 ; |618| 
TMS320C55x Assembler PC v4.4.1 Thu Sep 20 01:43:28 2018

Tools Copyright (c) 1996-2012 Texas Instruments Incorporated
csl_dma.asm                                                          PAGE   35

    1328 000874 A96B          MOV port(*AR3(T0)), AR1 ; |618| 
         000876 99   
    1329 000877 ED00          MOV dbl(*SP(#0)), XAR3
         000879 BF   
    1330 00087a AB61          MOV *AR3, AR3 ; |618| 
    1331 00087c A012          MOV *SP(#9), AC0 ; |618| 
    1332              
    1333 00087e 7DFF          AND #0xff3f, AR1, AR2 ; |618| 
         000880 3FA9 
    1334 000882 1107  ||      SFTL AC0, #6, AC0 ; |618| 
         000884 06   
    1335              
    1336 000885 18C0          AND #0x00c0, AC0, AR1 ; |618| 
         000887 90   
    1337 000888 2AA9          OR AR2, AR1 ; |618| 
    1338 00088a C96B          MOV AR1, port(*AR3(T0)) ; |618| 
         00088c 9A   
    1339                      .dwpsn  file "../c5535_bsl_revc/ezdsp5535_v1/c55xx_csl/src/csl_dma.c",line 620,column 3,is_stmt
    1340 00088d ED00          MOV dbl(*SP(#0)), XAR3
         00088f BF   
    1341 000890 AB61          MOV *AR3, AR3 ; |620| 
    1342 000892 A96B          MOV port(*AR3(T0)), AR1 ; |620| 
         000894 99   
    1343 000895 ED00          MOV dbl(*SP(#0)), XAR3
         000897 BF   
    1344 000898 AB61          MOV *AR3, AR3 ; |620| 
    1345 00089a A014          MOV *SP(#10), AC0 ; |620| 
    1346              
    1347 00089c 7DFC          AND #0xfcff, AR1, AR2 ; |620| 
         00089e FFA9 
    1348 0008a0 1107  ||      SFTL AC0, #8, AC0 ; |620| 
         0008a2 08   
    1349              
    1350 0008a3 7D03          AND #0x0300, AC0, AR1 ; |620| 
         0008a5 0090 
    1351 0008a7 2AA9          OR AR2, AR1 ; |620| 
    1352 0008a9 C96B          MOV AR1, port(*AR3(T0)) ; |620| 
         0008ab 9A   
    1353                      .dwpsn  file "../c5535_bsl_revc/ezdsp5535_v1/c55xx_csl/src/csl_dma.c",line 622,column 3,is_stmt
    1354 0008ac ED00          MOV dbl(*SP(#0)), XAR3
         0008ae BF   
    1355 0008af 7600          MOV #100, T0 ; |622| 
         0008b1 6448 
    1356 0008b3 AB61          MOV *AR3, AR3 ; |622| 
    1357 0008b5 A96B          MOV port(*AR3(T0)), AR1 ; |622| 
         0008b7 99   
    1358 0008b8 ED04          MOV dbl(*SP(#2)), XAR3
         0008ba BF   
    1359 0008bb A96D          MOV *AR3(#8), AR1 ; |622| 
         0008bd 0008 
    1360 0008bf ED00          MOV dbl(*SP(#0)), XAR3
         0008c1 BF   
    1361 0008c2 AB61          MOV *AR3, AR3 ; |622| 
    1362 0008c4 1A00          OR #0x0000, AR1, AR1 ; |622| 
         0008c6 99   
TMS320C55x Assembler PC v4.4.1 Thu Sep 20 01:43:28 2018

Tools Copyright (c) 1996-2012 Texas Instruments Incorporated
csl_dma.asm                                                          PAGE   36

    1363 0008c7 C96B          MOV AR1, port(*AR3(T0)) ; |622| 
         0008c9 9A   
    1364                      .dwpsn  file "../c5535_bsl_revc/ezdsp5535_v1/c55xx_csl/src/csl_dma.c",line 624,column 14,is_stmt
    1365 0008ca 0603          B $C$L53  ; |624| 
         0008cc 69   
    1366                                                      ; branch occurs ; |624| 
    1367 0008cd       $C$L36:    
    1368                      .dwpsn  file "../c5535_bsl_revc/ezdsp5535_v1/c55xx_csl/src/csl_dma.c",line 500,column 5,is_stmt
    1369 0008cd A908          MOV *SP(#4), AR1 ; |500| 
    1370 0008cf 6D09          BCC $C$L32,AR1 == #0 ; |500| 
         0008d1 FB52 
    1371                                                      ; branchcc occurs ; |500| 
    1372 0008d3 1290          CMPU AR1 == AR2, TC1 ; |500| 
         0008d5 A4   
    1373 0008d6 6D64          BCC $C$L33,TC1 ; |500| 
         0008d8 FC60 
    1374                                                      ; branchcc occurs ; |500| 
    1375 0008da 3C2A          MOV #2, AR2
    1376 0008dc 1290          CMPU AR1 == AR2, TC1 ; |500| 
         0008de A4   
    1377 0008df 6D64          BCC $C$L34,TC1 ; |500| 
         0008e1 FD88 
    1378                                                      ; branchcc occurs ; |500| 
    1379 0008e3 3C3A          MOV #3, AR2
    1380 0008e5 1290          CMPU AR1 == AR2, TC1 ; |500| 
         0008e7 A4   
    1381 0008e8 6D64          BCC $C$L35,TC1 ; |500| 
         0008ea FEB0 
    1382                                                      ; branchcc occurs ; |500| 
    1383 0008ec 0603          B $C$L53  ; |500| 
         0008ee 47   
    1384                                                      ; branch occurs ; |500| 
    1385 0008ef       $C$L37:    
    1386                      .dwpsn  file "../c5535_bsl_revc/ezdsp5535_v1/c55xx_csl/src/csl_dma.c",line 631,column 9,is_stmt
    1387 0008ef ED04          MOV dbl(*SP(#2)), XAR3
         0008f1 BF   
    1388 0008f2 AA51          MOV *port(#7194), AR2 ; |631| 
         0008f4 1C1A 
    1389 0008f6 7DFF          AND #0xfff0, AR2, AR2 ; |631| 
         0008f8 F0AA 
    1390 0008fa A979          MOV *AR3(short(#4)), AR1 ; |631| 
    1391 0008fc 180F          AND #0x000f, AR1, AR1 ; |631| 
         0008fe 99   
    1392 0008ff 2AA9          OR AR2, AR1 ; |631| 
    1393 000901 C951          MOV AR1, *port(#7194) ; |631| 
         000903 1C1A 
    1394                      .dwpsn  file "../c5535_bsl_revc/ezdsp5535_v1/c55xx_csl/src/csl_dma.c",line 635,column 3,is_stmt
    1395 000905 E651          MOV #1, *port(#7216) ; |635| 
         000907 011C 
         000909 30   
    1396                      .dwpsn  file "../c5535_bsl_revc/ezdsp5535_v1/c55xx_csl/src/csl_dma.c",line 637,column 8,is_stmt
    1397 00090a A97B          MOV *AR3(short(#5)), AR1 ; |637| 
    1398 00090c 1801          AND #0x0001, AR1, AR2 ; |637| 
         00090e A9   
    1399 00090f A951          MOV *port(#7217), AR1 ; |637| 
TMS320C55x Assembler PC v4.4.1 Thu Sep 20 01:43:28 2018

Tools Copyright (c) 1996-2012 Texas Instruments Incorporated
csl_dma.asm                                                          PAGE   37

         000911 1C31 
    1400 000913 EC00          BCLR @#0, AR1 ; |637| 
         000915 92   
    1401 000916 2A9A          OR AR1, AR2 ; |637| 
    1402 000918 CA51          MOV AR2, *port(#7217) ; |637| 
         00091a 1C31 
    1403                      .dwpsn  file "../c5535_bsl_revc/ezdsp5535_v1/c55xx_csl/src/csl_dma.c",line 640,column 13,is_stmt
    1404 00091c 0603          B $C$L58  ; |640| 
         00091e D4   
    1405                                                      ; branch occurs ; |640| 
    1406 00091f       $C$L38:    
    1407                      .dwpsn  file "../c5535_bsl_revc/ezdsp5535_v1/c55xx_csl/src/csl_dma.c",line 643,column 9,is_stmt
    1408 00091f ED04          MOV dbl(*SP(#2)), XAR3
         000921 BF   
    1409 000922 AA51          MOV *port(#7194), AR2 ; |643| 
         000924 1C1A 
    1410 000926 7DF0          AND #0xf0ff, AR2, AR2 ; |643| 
         000928 FFAA 
    1411 00092a F979          MOV *AR3(short(#4)) << #8, AC0 ; |643| 
         00092c 0808 
    1412 00092e 7D0F          AND #0x0f00, AC0, AR1 ; |643| 
         000930 0090 
    1413 000932 2AA9          OR AR2, AR1 ; |643| 
    1414 000934 C951          MOV AR1, *port(#7194) ; |643| 
         000936 1C1A 
    1415                      .dwpsn  file "../c5535_bsl_revc/ezdsp5535_v1/c55xx_csl/src/csl_dma.c",line 647,column 3,is_stmt
    1416 000938 E651          MOV #2, *port(#7216) ; |647| 
         00093a 021C 
         00093c 30   
    1417                      .dwpsn  file "../c5535_bsl_revc/ezdsp5535_v1/c55xx_csl/src/csl_dma.c",line 649,column 9,is_stmt
    1418 00093d A97B          MOV *AR3(short(#5)), AR1 ; |649| 
    1419 00093f 5090          SFTL AR1, #1 ; |649| 
    1420 000941 1802          AND #0x0002, AR1, AR2 ; |649| 
         000943 A9   
    1421 000944 A951          MOV *port(#7217), AR1 ; |649| 
         000946 1C31 
    1422 000948 EC02          BCLR @#1, AR1 ; |649| 
         00094a 92   
    1423 00094b 2A9A          OR AR1, AR2 ; |649| 
    1424 00094d CA51          MOV AR2, *port(#7217) ; |649| 
         00094f 1C31 
    1425                      .dwpsn  file "../c5535_bsl_revc/ezdsp5535_v1/c55xx_csl/src/csl_dma.c",line 652,column 14,is_stmt
    1426 000951 0603          B $C$L58  ; |652| 
         000953 9F   
    1427                                                      ; branch occurs ; |652| 
    1428 000954       $C$L39:    
    1429                      .dwpsn  file "../c5535_bsl_revc/ezdsp5535_v1/c55xx_csl/src/csl_dma.c",line 654,column 9,is_stmt
    1430 000954 ED04          MOV dbl(*SP(#2)), XAR3
         000956 BF   
    1431 000957 AA51          MOV *port(#7195), AR2 ; |654| 
         000959 1C1B 
    1432 00095b 7DFF          AND #0xfff0, AR2, AR2 ; |654| 
         00095d F0AA 
    1433 00095f A979          MOV *AR3(short(#4)), AR1 ; |654| 
    1434 000961 180F          AND #0x000f, AR1, AR1 ; |654| 
TMS320C55x Assembler PC v4.4.1 Thu Sep 20 01:43:28 2018

Tools Copyright (c) 1996-2012 Texas Instruments Incorporated
csl_dma.asm                                                          PAGE   38

         000963 99   
    1435 000964 2AA9          OR AR2, AR1 ; |654| 
    1436 000966 C951          MOV AR1, *port(#7195) ; |654| 
         000968 1C1B 
    1437                      .dwpsn  file "../c5535_bsl_revc/ezdsp5535_v1/c55xx_csl/src/csl_dma.c",line 658,column 3,is_stmt
    1438 00096a E651          MOV #4, *port(#7216) ; |658| 
         00096c 041C 
         00096e 30   
    1439                      .dwpsn  file "../c5535_bsl_revc/ezdsp5535_v1/c55xx_csl/src/csl_dma.c",line 660,column 9,is_stmt
    1440 00096f A951          MOV *port(#7217), AR1 ; |660| 
         000971 1C31 
    1441 000973 EC04          BCLR @#2, AR1 ; |660| 
         000975 92   
    1442 000976 F97B          MOV *AR3(short(#5)) << #2, AC0 ; |660| 
         000978 0208 
    1443 00097a 1804          AND #0x0004, AC0, AR2 ; |660| 
         00097c A0   
    1444 00097d 2A9A          OR AR1, AR2 ; |660| 
    1445 00097f CA51          MOV AR2, *port(#7217) ; |660| 
         000981 1C31 
    1446                      .dwpsn  file "../c5535_bsl_revc/ezdsp5535_v1/c55xx_csl/src/csl_dma.c",line 663,column 14,is_stmt
    1447 000983 0603          B $C$L58  ; |663| 
         000985 6D   
    1448                                                      ; branch occurs ; |663| 
    1449 000986       $C$L40:    
    1450                      .dwpsn  file "../c5535_bsl_revc/ezdsp5535_v1/c55xx_csl/src/csl_dma.c",line 666,column 9,is_stmt
    1451 000986 ED04          MOV dbl(*SP(#2)), XAR3
         000988 BF   
    1452 000989 AA51          MOV *port(#7195), AR2 ; |666| 
         00098b 1C1B 
    1453 00098d 7DF0          AND #0xf0ff, AR2, AR2 ; |666| 
         00098f FFAA 
    1454 000991 F979          MOV *AR3(short(#4)) << #8, AC0 ; |666| 
         000993 0808 
    1455 000995 7D0F          AND #0x0f00, AC0, AR1 ; |666| 
         000997 0090 
    1456 000999 2AA9          OR AR2, AR1 ; |666| 
    1457 00099b C951          MOV AR1, *port(#7195) ; |666| 
         00099d 1C1B 
    1458                      .dwpsn  file "../c5535_bsl_revc/ezdsp5535_v1/c55xx_csl/src/csl_dma.c",line 670,column 3,is_stmt
    1459 00099f E651          MOV #8, *port(#7216) ; |670| 
         0009a1 081C 
         0009a3 30   
    1460                      .dwpsn  file "../c5535_bsl_revc/ezdsp5535_v1/c55xx_csl/src/csl_dma.c",line 672,column 9,is_stmt
    1461 0009a4 A951          MOV *port(#7217), AR1 ; |672| 
         0009a6 1C31 
    1462 0009a8 EC06          BCLR @#3, AR1 ; |672| 
         0009aa 92   
    1463 0009ab F97B          MOV *AR3(short(#5)) << #3, AC0 ; |672| 
         0009ad 0308 
    1464 0009af 1808          AND #0x0008, AC0, AR2 ; |672| 
         0009b1 A0   
    1465 0009b2 2A9A          OR AR1, AR2 ; |672| 
    1466 0009b4 CA51          MOV AR2, *port(#7217) ; |672| 
         0009b6 1C31 
TMS320C55x Assembler PC v4.4.1 Thu Sep 20 01:43:28 2018

Tools Copyright (c) 1996-2012 Texas Instruments Incorporated
csl_dma.asm                                                          PAGE   39

    1467                      .dwpsn  file "../c5535_bsl_revc/ezdsp5535_v1/c55xx_csl/src/csl_dma.c",line 675,column 14,is_stmt
    1468 0009b8 0603          B $C$L58  ; |675| 
         0009ba 38   
    1469                                                      ; branch occurs ; |675| 
    1470 0009bb       $C$L41:    
    1471                      .dwpsn  file "../c5535_bsl_revc/ezdsp5535_v1/c55xx_csl/src/csl_dma.c",line 678,column 9,is_stmt
    1472 0009bb ED04          MOV dbl(*SP(#2)), XAR3
         0009bd BF   
    1473 0009be AA51          MOV *port(#7196), AR2 ; |678| 
         0009c0 1C1C 
    1474 0009c2 7DFF          AND #0xfff0, AR2, AR2 ; |678| 
         0009c4 F0AA 
    1475 0009c6 A979          MOV *AR3(short(#4)), AR1 ; |678| 
    1476 0009c8 180F          AND #0x000f, AR1, AR1 ; |678| 
         0009ca 99   
    1477 0009cb 2AA9          OR AR2, AR1 ; |678| 
    1478 0009cd C951          MOV AR1, *port(#7196) ; |678| 
         0009cf 1C1C 
    1479                      .dwpsn  file "../c5535_bsl_revc/ezdsp5535_v1/c55xx_csl/src/csl_dma.c",line 682,column 3,is_stmt
    1480 0009d1 E651          MOV #16, *port(#7216) ; |682| 
         0009d3 101C 
         0009d5 30   
    1481                      .dwpsn  file "../c5535_bsl_revc/ezdsp5535_v1/c55xx_csl/src/csl_dma.c",line 684,column 9,is_stmt
    1482 0009d6 A951          MOV *port(#7217), AR1 ; |684| 
         0009d8 1C31 
    1483 0009da EC08          BCLR @#4, AR1 ; |684| 
         0009dc 92   
    1484 0009dd F97B          MOV *AR3(short(#5)) << #4, AC0 ; |684| 
         0009df 0408 
    1485 0009e1 1810          AND #0x0010, AC0, AR2 ; |684| 
         0009e3 A0   
    1486 0009e4 2A9A          OR AR1, AR2 ; |684| 
    1487 0009e6 CA51          MOV AR2, *port(#7217) ; |684| 
         0009e8 1C31 
    1488                      .dwpsn  file "../c5535_bsl_revc/ezdsp5535_v1/c55xx_csl/src/csl_dma.c",line 687,column 14,is_stmt
    1489 0009ea 0603          B $C$L58  ; |687| 
         0009ec 06   
    1490                                                      ; branch occurs ; |687| 
    1491 0009ed       $C$L42:    
    1492                      .dwpsn  file "../c5535_bsl_revc/ezdsp5535_v1/c55xx_csl/src/csl_dma.c",line 690,column 9,is_stmt
    1493 0009ed ED04          MOV dbl(*SP(#2)), XAR3
         0009ef BF   
    1494 0009f0 AA51          MOV *port(#7196), AR2 ; |690| 
         0009f2 1C1C 
    1495 0009f4 7DF0          AND #0xf0ff, AR2, AR2 ; |690| 
         0009f6 FFAA 
    1496 0009f8 F979          MOV *AR3(short(#4)) << #8, AC0 ; |690| 
         0009fa 0808 
    1497 0009fc 7D0F          AND #0x0f00, AC0, AR1 ; |690| 
         0009fe 0090 
    1498 000a00 2AA9          OR AR2, AR1 ; |690| 
    1499 000a02 C951          MOV AR1, *port(#7196) ; |690| 
         000a04 1C1C 
    1500                      .dwpsn  file "../c5535_bsl_revc/ezdsp5535_v1/c55xx_csl/src/csl_dma.c",line 694,column 3,is_stmt
    1501 000a06 E651          MOV #32, *port(#7216) ; |694| 
TMS320C55x Assembler PC v4.4.1 Thu Sep 20 01:43:28 2018

Tools Copyright (c) 1996-2012 Texas Instruments Incorporated
csl_dma.asm                                                          PAGE   40

         000a08 201C 
         000a0a 30   
    1502                      .dwpsn  file "../c5535_bsl_revc/ezdsp5535_v1/c55xx_csl/src/csl_dma.c",line 696,column 9,is_stmt
    1503 000a0b A951          MOV *port(#7217), AR1 ; |696| 
         000a0d 1C31 
    1504 000a0f EC0A          BCLR @#5, AR1 ; |696| 
         000a11 92   
    1505 000a12 F97B          MOV *AR3(short(#5)) << #5, AC0 ; |696| 
         000a14 0508 
    1506 000a16 1820          AND #0x0020, AC0, AR2 ; |696| 
         000a18 A0   
    1507 000a19 2A9A          OR AR1, AR2 ; |696| 
    1508 000a1b CA51          MOV AR2, *port(#7217) ; |696| 
         000a1d 1C31 
    1509                      .dwpsn  file "../c5535_bsl_revc/ezdsp5535_v1/c55xx_csl/src/csl_dma.c",line 699,column 14,is_stmt
    1510 000a1f 0602          B $C$L58  ; |699| 
         000a21 D1   
    1511                                                      ; branch occurs ; |699| 
    1512 000a22       $C$L43:    
    1513                      .dwpsn  file "../c5535_bsl_revc/ezdsp5535_v1/c55xx_csl/src/csl_dma.c",line 702,column 9,is_stmt
    1514 000a22 ED04          MOV dbl(*SP(#2)), XAR3
         000a24 BF   
    1515 000a25 AA51          MOV *port(#7197), AR2 ; |702| 
         000a27 1C1D 
    1516 000a29 7DFF          AND #0xfff0, AR2, AR2 ; |702| 
         000a2b F0AA 
    1517 000a2d A979          MOV *AR3(short(#4)), AR1 ; |702| 
    1518 000a2f 180F          AND #0x000f, AR1, AR1 ; |702| 
         000a31 99   
    1519 000a32 2AA9          OR AR2, AR1 ; |702| 
    1520 000a34 C951          MOV AR1, *port(#7197) ; |702| 
         000a36 1C1D 
    1521                      .dwpsn  file "../c5535_bsl_revc/ezdsp5535_v1/c55xx_csl/src/csl_dma.c",line 706,column 3,is_stmt
    1522 000a38 E651          MOV #64, *port(#7216) ; |706| 
         000a3a 401C 
         000a3c 30   
    1523                      .dwpsn  file "../c5535_bsl_revc/ezdsp5535_v1/c55xx_csl/src/csl_dma.c",line 708,column 9,is_stmt
    1524 000a3d A951          MOV *port(#7217), AR1 ; |708| 
         000a3f 1C31 
    1525 000a41 EC0C          BCLR @#6, AR1 ; |708| 
         000a43 92   
    1526 000a44 F97B          MOV *AR3(short(#5)) << #6, AC0 ; |708| 
         000a46 0608 
    1527 000a48 1840          AND #0x0040, AC0, AR2 ; |708| 
         000a4a A0   
    1528 000a4b 2A9A          OR AR1, AR2 ; |708| 
    1529 000a4d CA51          MOV AR2, *port(#7217) ; |708| 
         000a4f 1C31 
    1530                      .dwpsn  file "../c5535_bsl_revc/ezdsp5535_v1/c55xx_csl/src/csl_dma.c",line 711,column 14,is_stmt
    1531 000a51 0602          B $C$L58  ; |711| 
         000a53 9F   
    1532                                                      ; branch occurs ; |711| 
    1533 000a54       $C$L44:    
    1534                      .dwpsn  file "../c5535_bsl_revc/ezdsp5535_v1/c55xx_csl/src/csl_dma.c",line 714,column 9,is_stmt
    1535 000a54 ED04          MOV dbl(*SP(#2)), XAR3
TMS320C55x Assembler PC v4.4.1 Thu Sep 20 01:43:28 2018

Tools Copyright (c) 1996-2012 Texas Instruments Incorporated
csl_dma.asm                                                          PAGE   41

         000a56 BF   
    1536 000a57 AA51          MOV *port(#7197), AR2 ; |714| 
         000a59 1C1D 
    1537 000a5b 7DF0          AND #0xf0ff, AR2, AR2 ; |714| 
         000a5d FFAA 
    1538 000a5f F979          MOV *AR3(short(#4)) << #8, AC0 ; |714| 
         000a61 0808 
    1539 000a63 7D0F          AND #0x0f00, AC0, AR1 ; |714| 
         000a65 0090 
    1540 000a67 2AA9          OR AR2, AR1 ; |714| 
    1541 000a69 C951          MOV AR1, *port(#7197) ; |714| 
         000a6b 1C1D 
    1542                      .dwpsn  file "../c5535_bsl_revc/ezdsp5535_v1/c55xx_csl/src/csl_dma.c",line 718,column 3,is_stmt
    1543 000a6d FB51          MOV #128, *port(#7216) ; |718| 
         000a6f 0080 
         000a71 1C30 
    1544                      .dwpsn  file "../c5535_bsl_revc/ezdsp5535_v1/c55xx_csl/src/csl_dma.c",line 720,column 9,is_stmt
    1545 000a73 A951          MOV *port(#7217), AR1 ; |720| 
         000a75 1C31 
    1546 000a77 EC0E          BCLR @#7, AR1 ; |720| 
         000a79 92   
    1547 000a7a F97B          MOV *AR3(short(#5)) << #7, AC0 ; |720| 
         000a7c 0708 
    1548 000a7e 1880          AND #0x0080, AC0, AR2 ; |720| 
         000a80 A0   
    1549 000a81 2A9A          OR AR1, AR2 ; |720| 
    1550 000a83 CA51          MOV AR2, *port(#7217) ; |720| 
         000a85 1C31 
    1551                      .dwpsn  file "../c5535_bsl_revc/ezdsp5535_v1/c55xx_csl/src/csl_dma.c",line 723,column 14,is_stmt
    1552 000a87 0602          B $C$L58  ; |723| 
         000a89 69   
    1553                                                      ; branch occurs ; |723| 
    1554 000a8a       $C$L45:    
    1555                      .dwpsn  file "../c5535_bsl_revc/ezdsp5535_v1/c55xx_csl/src/csl_dma.c",line 726,column 9,is_stmt
    1556 000a8a ED04          MOV dbl(*SP(#2)), XAR3
         000a8c BF   
    1557 000a8d AA51          MOV *port(#7222), AR2 ; |726| 
         000a8f 1C36 
    1558 000a91 7DFF          AND #0xfff0, AR2, AR2 ; |726| 
         000a93 F0AA 
    1559 000a95 A979          MOV *AR3(short(#4)), AR1 ; |726| 
    1560 000a97 180F          AND #0x000f, AR1, AR1 ; |726| 
         000a99 99   
    1561 000a9a 2AA9          OR AR2, AR1 ; |726| 
    1562 000a9c C951          MOV AR1, *port(#7222) ; |726| 
         000a9e 1C36 
    1563                      .dwpsn  file "../c5535_bsl_revc/ezdsp5535_v1/c55xx_csl/src/csl_dma.c",line 730,column 3,is_stmt
    1564 000aa0 FB51          MOV #256, *port(#7216) ; |730| 
         000aa2 0100 
         000aa4 1C30 
    1565                      .dwpsn  file "../c5535_bsl_revc/ezdsp5535_v1/c55xx_csl/src/csl_dma.c",line 732,column 9,is_stmt
    1566 000aa6 A951          MOV *port(#7217), AR1 ; |732| 
         000aa8 1C31 
    1567 000aaa EC10          BCLR @#8, AR1 ; |732| 
         000aac 92   
TMS320C55x Assembler PC v4.4.1 Thu Sep 20 01:43:28 2018

Tools Copyright (c) 1996-2012 Texas Instruments Incorporated
csl_dma.asm                                                          PAGE   42

    1568 000aad F97B          MOV *AR3(short(#5)) << #8, AC0 ; |732| 
         000aaf 0808 
    1569 000ab1 7D01          AND #0x0100, AC0, AR2 ; |732| 
         000ab3 00A0 
    1570 000ab5 2A9A          OR AR1, AR2 ; |732| 
    1571 000ab7 CA51          MOV AR2, *port(#7217) ; |732| 
         000ab9 1C31 
    1572                      .dwpsn  file "../c5535_bsl_revc/ezdsp5535_v1/c55xx_csl/src/csl_dma.c",line 735,column 14,is_stmt
    1573 000abb 0602          B $C$L58  ; |735| 
         000abd 35   
    1574                                                      ; branch occurs ; |735| 
    1575 000abe       $C$L46:    
    1576                      .dwpsn  file "../c5535_bsl_revc/ezdsp5535_v1/c55xx_csl/src/csl_dma.c",line 738,column 9,is_stmt
    1577 000abe ED04          MOV dbl(*SP(#2)), XAR3
         000ac0 BF   
    1578 000ac1 AA51          MOV *port(#7222), AR2 ; |738| 
         000ac3 1C36 
    1579 000ac5 7DF0          AND #0xf0ff, AR2, AR2 ; |738| 
         000ac7 FFAA 
    1580 000ac9 F979          MOV *AR3(short(#4)) << #8, AC0 ; |738| 
         000acb 0808 
    1581 000acd 7D0F          AND #0x0f00, AC0, AR1 ; |738| 
         000acf 0090 
    1582 000ad1 2AA9          OR AR2, AR1 ; |738| 
    1583 000ad3 C951          MOV AR1, *port(#7222) ; |738| 
         000ad5 1C36 
    1584                      .dwpsn  file "../c5535_bsl_revc/ezdsp5535_v1/c55xx_csl/src/csl_dma.c",line 742,column 3,is_stmt
    1585 000ad7 FB51          MOV #512, *port(#7216) ; |742| 
         000ad9 0200 
         000adb 1C30 
    1586                      .dwpsn  file "../c5535_bsl_revc/ezdsp5535_v1/c55xx_csl/src/csl_dma.c",line 744,column 9,is_stmt
    1587 000add A951          MOV *port(#7217), AR1 ; |744| 
         000adf 1C31 
    1588 000ae1 EC12          BCLR @#9, AR1 ; |744| 
         000ae3 92   
    1589 000ae4 F97B          MOV *AR3(short(#5)) << #9, AC0 ; |744| 
         000ae6 0908 
    1590 000ae8 7D02          AND #0x0200, AC0, AR2 ; |744| 
         000aea 00A0 
    1591 000aec 2A9A          OR AR1, AR2 ; |744| 
    1592 000aee CA51          MOV AR2, *port(#7217) ; |744| 
         000af0 1C31 
    1593                      .dwpsn  file "../c5535_bsl_revc/ezdsp5535_v1/c55xx_csl/src/csl_dma.c",line 747,column 14,is_stmt
    1594 000af2 0601          B $C$L58  ; |747| 
         000af4 FE   
    1595                                                      ; branch occurs ; |747| 
    1596 000af5       $C$L47:    
    1597                      .dwpsn  file "../c5535_bsl_revc/ezdsp5535_v1/c55xx_csl/src/csl_dma.c",line 750,column 9,is_stmt
    1598 000af5 ED04          MOV dbl(*SP(#2)), XAR3
         000af7 BF   
    1599 000af8 AA51          MOV *port(#7223), AR2 ; |750| 
         000afa 1C37 
    1600 000afc 7DFF          AND #0xfff0, AR2, AR2 ; |750| 
         000afe F0AA 
    1601 000b00 A979          MOV *AR3(short(#4)), AR1 ; |750| 
TMS320C55x Assembler PC v4.4.1 Thu Sep 20 01:43:28 2018

Tools Copyright (c) 1996-2012 Texas Instruments Incorporated
csl_dma.asm                                                          PAGE   43

    1602 000b02 180F          AND #0x000f, AR1, AR1 ; |750| 
         000b04 99   
    1603 000b05 2AA9          OR AR2, AR1 ; |750| 
    1604 000b07 C951          MOV AR1, *port(#7223) ; |750| 
         000b09 1C37 
    1605                      .dwpsn  file "../c5535_bsl_revc/ezdsp5535_v1/c55xx_csl/src/csl_dma.c",line 754,column 3,is_stmt
    1606 000b0b FB51          MOV #1024, *port(#7216) ; |754| 
         000b0d 0400 
         000b0f 1C30 
    1607                      .dwpsn  file "../c5535_bsl_revc/ezdsp5535_v1/c55xx_csl/src/csl_dma.c",line 756,column 9,is_stmt
    1608 000b11 A951          MOV *port(#7217), AR1 ; |756| 
         000b13 1C31 
    1609 000b15 EC14          BCLR @#10, AR1 ; |756| 
         000b17 92   
    1610 000b18 F97B          MOV *AR3(short(#5)) << #10, AC0 ; |756| 
         000b1a 0A08 
    1611 000b1c 7D04          AND #0x0400, AC0, AR2 ; |756| 
         000b1e 00A0 
    1612 000b20 2A9A          OR AR1, AR2 ; |756| 
    1613 000b22 CA51          MOV AR2, *port(#7217) ; |756| 
         000b24 1C31 
    1614                      .dwpsn  file "../c5535_bsl_revc/ezdsp5535_v1/c55xx_csl/src/csl_dma.c",line 759,column 14,is_stmt
    1615 000b26 0601          B $C$L58  ; |759| 
         000b28 CA   
    1616                                                      ; branch occurs ; |759| 
    1617 000b29       $C$L48:    
    1618                      .dwpsn  file "../c5535_bsl_revc/ezdsp5535_v1/c55xx_csl/src/csl_dma.c",line 762,column 9,is_stmt
    1619 000b29 ED04          MOV dbl(*SP(#2)), XAR3
         000b2b BF   
    1620 000b2c AA51          MOV *port(#7223), AR2 ; |762| 
         000b2e 1C37 
    1621 000b30 7DF0          AND #0xf0ff, AR2, AR2 ; |762| 
         000b32 FFAA 
    1622 000b34 F979          MOV *AR3(short(#4)) << #8, AC0 ; |762| 
         000b36 0808 
    1623 000b38 7D0F          AND #0x0f00, AC0, AR1 ; |762| 
         000b3a 0090 
    1624 000b3c 2AA9          OR AR2, AR1 ; |762| 
    1625 000b3e C951          MOV AR1, *port(#7223) ; |762| 
         000b40 1C37 
    1626                      .dwpsn  file "../c5535_bsl_revc/ezdsp5535_v1/c55xx_csl/src/csl_dma.c",line 766,column 3,is_stmt
    1627 000b42 FB51          MOV #2048, *port(#7216) ; |766| 
         000b44 0800 
         000b46 1C30 
    1628                      .dwpsn  file "../c5535_bsl_revc/ezdsp5535_v1/c55xx_csl/src/csl_dma.c",line 768,column 9,is_stmt
    1629 000b48 A951          MOV *port(#7217), AR1 ; |768| 
         000b4a 1C31 
    1630 000b4c EC16          BCLR @#11, AR1 ; |768| 
         000b4e 92   
    1631 000b4f F97B          MOV *AR3(short(#5)) << #11, AC0 ; |768| 
         000b51 0B08 
    1632 000b53 7D08          AND #0x0800, AC0, AR2 ; |768| 
         000b55 00A0 
    1633 000b57 2A9A          OR AR1, AR2 ; |768| 
    1634 000b59 CA51          MOV AR2, *port(#7217) ; |768| 
TMS320C55x Assembler PC v4.4.1 Thu Sep 20 01:43:28 2018

Tools Copyright (c) 1996-2012 Texas Instruments Incorporated
csl_dma.asm                                                          PAGE   44

         000b5b 1C31 
    1635                      .dwpsn  file "../c5535_bsl_revc/ezdsp5535_v1/c55xx_csl/src/csl_dma.c",line 771,column 14,is_stmt
    1636 000b5d 0601          B $C$L58  ; |771| 
         000b5f 93   
    1637                                                      ; branch occurs ; |771| 
    1638 000b60       $C$L49:    
    1639                      .dwpsn  file "../c5535_bsl_revc/ezdsp5535_v1/c55xx_csl/src/csl_dma.c",line 774,column 9,is_stmt
    1640 000b60 ED04          MOV dbl(*SP(#2)), XAR3
         000b62 BF   
    1641 000b63 AA51          MOV *port(#7224), AR2 ; |774| 
         000b65 1C38 
    1642 000b67 7DFF          AND #0xfff0, AR2, AR2 ; |774| 
         000b69 F0AA 
    1643 000b6b A979          MOV *AR3(short(#4)), AR1 ; |774| 
    1644 000b6d 180F          AND #0x000f, AR1, AR1 ; |774| 
         000b6f 99   
    1645 000b70 2AA9          OR AR2, AR1 ; |774| 
    1646 000b72 C951          MOV AR1, *port(#7224) ; |774| 
         000b74 1C38 
    1647                      .dwpsn  file "../c5535_bsl_revc/ezdsp5535_v1/c55xx_csl/src/csl_dma.c",line 778,column 3,is_stmt
    1648 000b76 FB51          MOV #4096, *port(#7216) ; |778| 
         000b78 1000 
         000b7a 1C30 
    1649                      .dwpsn  file "../c5535_bsl_revc/ezdsp5535_v1/c55xx_csl/src/csl_dma.c",line 780,column 9,is_stmt
    1650 000b7c A951          MOV *port(#7217), AR1 ; |780| 
         000b7e 1C31 
    1651 000b80 EC18          BCLR @#12, AR1 ; |780| 
         000b82 92   
    1652 000b83 F97B          MOV *AR3(short(#5)) << #12, AC0 ; |780| 
         000b85 0C08 
    1653 000b87 7D10          AND #0x1000, AC0, AR2 ; |780| 
         000b89 00A0 
    1654 000b8b 2A9A          OR AR1, AR2 ; |780| 
    1655 000b8d CA51          MOV AR2, *port(#7217) ; |780| 
         000b8f 1C31 
    1656                      .dwpsn  file "../c5535_bsl_revc/ezdsp5535_v1/c55xx_csl/src/csl_dma.c",line 783,column 14,is_stmt
    1657 000b91 0601          B $C$L58  ; |783| 
         000b93 5F   
    1658                                                      ; branch occurs ; |783| 
    1659 000b94       $C$L50:    
    1660                      .dwpsn  file "../c5535_bsl_revc/ezdsp5535_v1/c55xx_csl/src/csl_dma.c",line 786,column 9,is_stmt
    1661 000b94 ED04          MOV dbl(*SP(#2)), XAR3
         000b96 BF   
    1662 000b97 AA51          MOV *port(#7224), AR2 ; |786| 
         000b99 1C38 
    1663 000b9b 7DF0          AND #0xf0ff, AR2, AR2 ; |786| 
         000b9d FFAA 
    1664 000b9f F979          MOV *AR3(short(#4)) << #8, AC0 ; |786| 
         000ba1 0808 
    1665 000ba3 7D0F          AND #0x0f00, AC0, AR1 ; |786| 
         000ba5 0090 
    1666 000ba7 2AA9          OR AR2, AR1 ; |786| 
    1667 000ba9 C951          MOV AR1, *port(#7224) ; |786| 
         000bab 1C38 
    1668                      .dwpsn  file "../c5535_bsl_revc/ezdsp5535_v1/c55xx_csl/src/csl_dma.c",line 790,column 3,is_stmt
TMS320C55x Assembler PC v4.4.1 Thu Sep 20 01:43:28 2018

Tools Copyright (c) 1996-2012 Texas Instruments Incorporated
csl_dma.asm                                                          PAGE   45

    1669 000bad FB51          MOV #8192, *port(#7216) ; |790| 
         000baf 2000 
         000bb1 1C30 
    1670                      .dwpsn  file "../c5535_bsl_revc/ezdsp5535_v1/c55xx_csl/src/csl_dma.c",line 792,column 9,is_stmt
    1671 000bb3 A951          MOV *port(#7217), AR1 ; |792| 
         000bb5 1C31 
    1672 000bb7 EC1A          BCLR @#13, AR1 ; |792| 
         000bb9 92   
    1673 000bba F97B          MOV *AR3(short(#5)) << #13, AC0 ; |792| 
         000bbc 0D08 
    1674 000bbe 7D20          AND #0x2000, AC0, AR2 ; |792| 
         000bc0 00A0 
    1675 000bc2 2A9A          OR AR1, AR2 ; |792| 
    1676 000bc4 CA51          MOV AR2, *port(#7217) ; |792| 
         000bc6 1C31 
    1677                      .dwpsn  file "../c5535_bsl_revc/ezdsp5535_v1/c55xx_csl/src/csl_dma.c",line 795,column 14,is_stmt
    1678 000bc8 0601          B $C$L58  ; |795| 
         000bca 28   
    1679                                                      ; branch occurs ; |795| 
    1680 000bcb       $C$L51:    
    1681                      .dwpsn  file "../c5535_bsl_revc/ezdsp5535_v1/c55xx_csl/src/csl_dma.c",line 798,column 9,is_stmt
    1682 000bcb ED04          MOV dbl(*SP(#2)), XAR3
         000bcd BF   
    1683 000bce AA51          MOV *port(#7225), AR2 ; |798| 
         000bd0 1C39 
    1684 000bd2 7DFF          AND #0xfff0, AR2, AR2 ; |798| 
         000bd4 F0AA 
    1685 000bd6 A979          MOV *AR3(short(#4)), AR1 ; |798| 
    1686 000bd8 180F          AND #0x000f, AR1, AR1 ; |798| 
         000bda 99   
    1687 000bdb 2AA9          OR AR2, AR1 ; |798| 
    1688 000bdd C951          MOV AR1, *port(#7225) ; |798| 
         000bdf 1C39 
    1689                      .dwpsn  file "../c5535_bsl_revc/ezdsp5535_v1/c55xx_csl/src/csl_dma.c",line 802,column 3,is_stmt
    1690 000be1 FB51          MOV #16384, *port(#7216) ; |802| 
         000be3 4000 
         000be5 1C30 
    1691                      .dwpsn  file "../c5535_bsl_revc/ezdsp5535_v1/c55xx_csl/src/csl_dma.c",line 804,column 9,is_stmt
    1692 000be7 A951          MOV *port(#7217), AR1 ; |804| 
         000be9 1C31 
    1693 000beb EC1C          BCLR @#14, AR1 ; |804| 
         000bed 92   
    1694 000bee F97B          MOV *AR3(short(#5)) << #14, AC0 ; |804| 
         000bf0 0E08 
    1695 000bf2 7D40          AND #0x4000, AC0, AR2 ; |804| 
         000bf4 00A0 
    1696 000bf6 2A9A          OR AR1, AR2 ; |804| 
    1697 000bf8 CA51          MOV AR2, *port(#7217) ; |804| 
         000bfa 1C31 
    1698                      .dwpsn  file "../c5535_bsl_revc/ezdsp5535_v1/c55xx_csl/src/csl_dma.c",line 807,column 14,is_stmt
    1699 000bfc 0600          B $C$L58  ; |807| 
         000bfe F4   
    1700                                                      ; branch occurs ; |807| 
    1701 000bff       $C$L52:    
    1702                      .dwpsn  file "../c5535_bsl_revc/ezdsp5535_v1/c55xx_csl/src/csl_dma.c",line 810,column 9,is_stmt
TMS320C55x Assembler PC v4.4.1 Thu Sep 20 01:43:28 2018

Tools Copyright (c) 1996-2012 Texas Instruments Incorporated
csl_dma.asm                                                          PAGE   46

    1703 000bff ED04          MOV dbl(*SP(#2)), XAR3
         000c01 BF   
    1704 000c02 AA51          MOV *port(#7225), AR2 ; |810| 
         000c04 1C39 
    1705 000c06 7DF0          AND #0xf0ff, AR2, AR2 ; |810| 
         000c08 FFAA 
    1706 000c0a F979          MOV *AR3(short(#4)) << #8, AC0 ; |810| 
         000c0c 0808 
    1707 000c0e 7D0F          AND #0x0f00, AC0, AR1 ; |810| 
         000c10 0090 
    1708 000c12 2AA9          OR AR2, AR1 ; |810| 
    1709 000c14 C951          MOV AR1, *port(#7225) ; |810| 
         000c16 1C39 
    1710                      .dwpsn  file "../c5535_bsl_revc/ezdsp5535_v1/c55xx_csl/src/csl_dma.c",line 814,column 3,is_stmt
    1711 000c18 FB51          MOV #32768, *port(#7216) ; |814| 
         000c1a 8000 
         000c1c 1C30 
    1712                      .dwpsn  file "../c5535_bsl_revc/ezdsp5535_v1/c55xx_csl/src/csl_dma.c",line 816,column 9,is_stmt
    1713 000c1e A951          MOV *port(#7217), AR1 ; |816| 
         000c20 1C31 
    1714 000c22 EC1E          BCLR @#15, AR1 ; |816| 
         000c24 92   
    1715 000c25 F97B          MOV *AR3(short(#5)) << #15, AC0 ; |816| 
         000c27 0F08 
    1716 000c29 7D80          AND #0x8000, AC0, AR2 ; |816| 
         000c2b 00A0 
    1717 000c2d 2A9A          OR AR1, AR2 ; |816| 
    1718 000c2f CA51          MOV AR2, *port(#7217) ; |816| 
         000c31 1C31 
    1719                      .dwpsn  file "../c5535_bsl_revc/ezdsp5535_v1/c55xx_csl/src/csl_dma.c",line 819,column 14,is_stmt
    1720 000c33 0600          B $C$L58  ; |819| 
         000c35 BD   
    1721                                                      ; branch occurs ; |819| 
    1722 000c36       $C$L53:    
    1723                      .dwpsn  file "../c5535_bsl_revc/ezdsp5535_v1/c55xx_csl/src/csl_dma.c",line 628,column 5,is_stmt
    1724 000c36 ED00          MOV dbl(*SP(#0)), XAR3
         000c38 BF   
    1725 000c39 A073          MOV *AR3(short(#1)), AC0 ; |628| 
    1726              
    1727 000c3b 2209          MOV AC0, AR1 ; |628| 
    1728 000c3d 3DFA  ||      MOV #15, AR2
    1729              
    1730 000c3f 12A8          CMPU AR1 <= AR2, TC1 ; |628| 
         000c41 94   
    1731 000c42 6D74          BCC $C$L58,!TC1 ; |628| 
         000c44 00AD 
    1732                                                      ; branchcc occurs ; |628| 
    1733 000c46 4450          SFTS AC0, #1, AC0 ; |628| 
    1734 000c48 A110          MOV mmap(AC0L), AC1 ; |628| 
         000c4a 98   
    1735 000c4b 7A00          MOV #($C$SW1 >> 16) << #16, AC0 ; |628| 
         000c4d 000A%
    1736 000c4f 7E00          OR #($C$SW1 & 0xffff), AC0, AC0 ; |628| 
         000c51 0000%
    1737 000c53 2410          ADD AC1, AC0 ; |628| 
TMS320C55x Assembler PC v4.4.1 Thu Sep 20 01:43:28 2018

Tools Copyright (c) 1996-2012 Texas Instruments Incorporated
csl_dma.asm                                                          PAGE   47

    1738 000c55 900B          MOV AC0, XAR3
    1739 000c57 ED61          MOV dbl(*AR3), AC0 ; |628| 
         000c59 08   
    1740 000c5a 9100          B AC0     ; |628| 
    1741                                                      ; branch occurs ; |628| 
    1742 000000               .sect   ".switch:_DMA_config"
    1743                      .clink
    1744 000000 0000' $C$SW1: .long   $C$L37  ; 0
         000001 08EF 
    1745 000002 0000'         .long   $C$L38  ; 1
         000003 091F 
    1746 000004 0000'         .long   $C$L39  ; 2
         000005 0954 
    1747 000006 0000'         .long   $C$L40  ; 3
         000007 0986 
    1748 000008 0000'         .long   $C$L41  ; 4
         000009 09BB 
    1749 00000a 0000'         .long   $C$L42  ; 5
         00000b 09ED 
    1750 00000c 0000'         .long   $C$L43  ; 6
         00000d 0A22 
    1751 00000e 0000'         .long   $C$L44  ; 7
         00000f 0A54 
    1752 000010 0000'         .long   $C$L45  ; 8
         000011 0A8A 
    1753 000012 0000'         .long   $C$L46  ; 9
         000013 0ABE 
    1754 000014 0000'         .long   $C$L47  ; 10
         000015 0AF5 
    1755 000016 0000'         .long   $C$L48  ; 11
         000017 0B29 
    1756 000018 0000'         .long   $C$L49  ; 12
         000019 0B60 
    1757 00001a 0000'         .long   $C$L50  ; 13
         00001b 0B94 
    1758 00001c 0000'         .long   $C$L51  ; 14
         00001d 0BCB 
    1759 00001e 0000'         .long   $C$L52  ; 15
         00001f 0BFF 
    1760 000c5c               .sect   ".text"
    1761 000c5c       $C$L54:    
    1762                      .dwpsn  file "../c5535_bsl_revc/ezdsp5535_v1/c55xx_csl/src/csl_dma.c",line 826,column 6,is_stmt
    1763 000c5c ED00          MOV dbl(*SP(#0)), XAR3
         000c5e BF   
    1764 000c5f AB61          MOV *AR3, AR3 ; |826| 
    1765 000c61 A97B          MOV port(*AR3(short(#5))), AR1 ; |826| 
         000c63 99   
    1766 000c64 ED04          MOV dbl(*SP(#2)), XAR3
         000c66 BF   
    1767 000c67 F97B          MOV *AR3(short(#5)) << #13, AC0 ; |826| 
         000c69 0D08 
    1768 000c6b ED00          MOV dbl(*SP(#0)), XAR3
         000c6d BF   
    1769 000c6e AB61          MOV *AR3, AR3 ; |826| 
    1770 000c70 EC1A          BCLR @#13, AR1 ; |826| 
TMS320C55x Assembler PC v4.4.1 Thu Sep 20 01:43:28 2018

Tools Copyright (c) 1996-2012 Texas Instruments Incorporated
csl_dma.asm                                                          PAGE   48

         000c72 92   
    1771 000c73 7D20          AND #0x2000, AC0, AR2 ; |826| 
         000c75 00A0 
    1772 000c77 2A9A          OR AR1, AR2 ; |826| 
    1773 000c79 CA7B          MOV AR2, port(*AR3(short(#5))) ; |826| 
         000c7b 9A   
    1774                      .dwpsn  file "../c5535_bsl_revc/ezdsp5535_v1/c55xx_csl/src/csl_dma.c",line 828,column 14,is_stmt
    1775 000c7c 0600          B $C$L59  ; |828| 
         000c7e 93   
    1776                                                      ; branch occurs ; |828| 
    1777 000c7f       $C$L55:    
    1778                      .dwpsn  file "../c5535_bsl_revc/ezdsp5535_v1/c55xx_csl/src/csl_dma.c",line 831,column 7,is_stmt
    1779 000c7f ED00          MOV dbl(*SP(#0)), XAR3
         000c81 BF   
    1780 000c82 7600          MOV #37, T0 ; |831| 
         000c84 2548 
    1781 000c86 AB61          MOV *AR3, AR3 ; |831| 
    1782 000c88 A96B          MOV port(*AR3(T0)), AR1 ; |831| 
         000c8a 99   
    1783 000c8b ED04          MOV dbl(*SP(#2)), XAR3
         000c8d BF   
    1784 000c8e F97B          MOV *AR3(short(#5)) << #13, AC0 ; |831| 
         000c90 0D08 
    1785 000c92 ED00          MOV dbl(*SP(#0)), XAR3
         000c94 BF   
    1786 000c95 AB61          MOV *AR3, AR3 ; |831| 
    1787 000c97 EC1A          BCLR @#13, AR1 ; |831| 
         000c99 92   
    1788 000c9a 7D20          AND #0x2000, AC0, AR2 ; |831| 
         000c9c 00A0 
    1789 000c9e 2A9A          OR AR1, AR2 ; |831| 
    1790 000ca0 CA6B          MOV AR2, port(*AR3(T0)) ; |831| 
         000ca2 9A   
    1791                      .dwpsn  file "../c5535_bsl_revc/ezdsp5535_v1/c55xx_csl/src/csl_dma.c",line 833,column 14,is_stmt
    1792 000ca3 0600          B $C$L59  ; |833| 
         000ca5 6C   
    1793                                                      ; branch occurs ; |833| 
    1794 000ca6       $C$L56:    
    1795                      .dwpsn  file "../c5535_bsl_revc/ezdsp5535_v1/c55xx_csl/src/csl_dma.c",line 836,column 6,is_stmt
    1796 000ca6 ED00          MOV dbl(*SP(#0)), XAR3
         000ca8 BF   
    1797 000ca9 7600          MOV #69, T0 ; |836| 
         000cab 4548 
    1798 000cad AB61          MOV *AR3, AR3 ; |836| 
    1799 000caf A96B          MOV port(*AR3(T0)), AR1 ; |836| 
         000cb1 99   
    1800 000cb2 ED04          MOV dbl(*SP(#2)), XAR3
         000cb4 BF   
    1801 000cb5 F97B          MOV *AR3(short(#5)) << #13, AC0 ; |836| 
         000cb7 0D08 
    1802 000cb9 ED00          MOV dbl(*SP(#0)), XAR3
         000cbb BF   
    1803 000cbc AB61          MOV *AR3, AR3 ; |836| 
    1804 000cbe EC1A          BCLR @#13, AR1 ; |836| 
         000cc0 92   
TMS320C55x Assembler PC v4.4.1 Thu Sep 20 01:43:28 2018

Tools Copyright (c) 1996-2012 Texas Instruments Incorporated
csl_dma.asm                                                          PAGE   49

    1805 000cc1 7D20          AND #0x2000, AC0, AR2 ; |836| 
         000cc3 00A0 
    1806 000cc5 2A9A          OR AR1, AR2 ; |836| 
    1807 000cc7 CA6B          MOV AR2, port(*AR3(T0)) ; |836| 
         000cc9 9A   
    1808                      .dwpsn  file "../c5535_bsl_revc/ezdsp5535_v1/c55xx_csl/src/csl_dma.c",line 838,column 14,is_stmt
    1809 000cca 0600          B $C$L59  ; |838| 
         000ccc 45   
    1810                                                      ; branch occurs ; |838| 
    1811 000ccd       $C$L57:    
    1812                      .dwpsn  file "../c5535_bsl_revc/ezdsp5535_v1/c55xx_csl/src/csl_dma.c",line 841,column 6,is_stmt
    1813 000ccd ED00          MOV dbl(*SP(#0)), XAR3
         000ccf BF   
    1814 000cd0 7600          MOV #101, T0 ; |841| 
         000cd2 6548 
    1815 000cd4 AB61          MOV *AR3, AR3 ; |841| 
    1816 000cd6 A96B          MOV port(*AR3(T0)), AR1 ; |841| 
         000cd8 99   
    1817 000cd9 ED04          MOV dbl(*SP(#2)), XAR3
         000cdb BF   
    1818 000cdc F97B          MOV *AR3(short(#5)) << #13, AC0 ; |841| 
         000cde 0D08 
    1819 000ce0 ED00          MOV dbl(*SP(#0)), XAR3
         000ce2 BF   
    1820 000ce3 AB61          MOV *AR3, AR3 ; |841| 
    1821 000ce5 EC1A          BCLR @#13, AR1 ; |841| 
         000ce7 92   
    1822 000ce8 7D20          AND #0x2000, AC0, AR2 ; |841| 
         000cea 00A0 
    1823 000cec 2A9A          OR AR1, AR2 ; |841| 
    1824 000cee CA6B          MOV AR2, port(*AR3(T0)) ; |841| 
         000cf0 9A   
    1825                      .dwpsn  file "../c5535_bsl_revc/ezdsp5535_v1/c55xx_csl/src/csl_dma.c",line 843,column 14,is_stmt
    1826 000cf1 4A1F          B $C$L59  ; |843| 
    1827                                                      ; branch occurs ; |843| 
    1828 000cf3       $C$L58:    
    1829                      .dwpsn  file "../c5535_bsl_revc/ezdsp5535_v1/c55xx_csl/src/csl_dma.c",line 823,column 5,is_stmt
    1830 000cf3 A908          MOV *SP(#4), AR1 ; |823| 
    1831 000cf5 6D09          BCC $C$L54,AR1 == #0 ; |823| 
         000cf7 FF63 
    1832                                                      ; branchcc occurs ; |823| 
    1833 000cf9 3C1A          MOV #1, AR2
    1834 000cfb 1290          CMPU AR1 == AR2, TC1 ; |823| 
         000cfd A4   
    1835 000cfe 6D64          BCC $C$L55,TC1 ; |823| 
         000d00 FF7D 
    1836                                                      ; branchcc occurs ; |823| 
    1837 000d02 3C2A          MOV #2, AR2
    1838 000d04 1290          CMPU AR1 == AR2, TC1 ; |823| 
         000d06 A4   
    1839 000d07 0464          BCC $C$L56,TC1 ; |823| 
         000d09 9C   
    1840                                                      ; branchcc occurs ; |823| 
    1841 000d0a 3C3A          MOV #3, AR2
    1842 000d0c 1290          CMPU AR1 == AR2, TC1 ; |823| 
TMS320C55x Assembler PC v4.4.1 Thu Sep 20 01:43:28 2018

Tools Copyright (c) 1996-2012 Texas Instruments Incorporated
csl_dma.asm                                                          PAGE   50

         000d0e A4   
    1843 000d0f 0464          BCC $C$L57,TC1 ; |823| 
         000d11 BB   
    1844                                                      ; branchcc occurs ; |823| 
    1845 000d12       $C$L59:    
    1846                      .dwpsn  file "../c5535_bsl_revc/ezdsp5535_v1/c55xx_csl/src/csl_dma.c",line 846,column 5,is_stmt
    1847 000d12 3C04          MOV #0, T0
    1848 000d14       $C$L60:    
    1849                      .dwpsn  file "../c5535_bsl_revc/ezdsp5535_v1/c55xx_csl/src/csl_dma.c",line 847,column 1,is_stmt
    1850 000d14 4E11          AADD #17, SP
    1851                      .dwcfi  cfa_offset, 1
    1852              $C$DW$30        .dwtag  DW_TAG_TI_branch
    1853                      .dwattr $C$DW$30, DW_AT_low_pc(0x00)
    1854                      .dwattr $C$DW$30, DW_AT_TI_return
    1855 000d16 4804          RET
    1856                                                      ; return occurs
    1857              
    1858              $C$DW$31        .dwtag  DW_TAG_TI_loop
    1859                      .dwattr $C$DW$31, DW_AT_name("F:\eZdsp_DBG\eZDSP_5535_Files\ccsws2\test\Debug\csl_dma.asm:$C$L12:1:15
    1860                      .dwattr $C$DW$31, DW_AT_TI_begin_file("../c5535_bsl_revc/ezdsp5535_v1/c55xx_csl/src/csl_dma.c")
    1861                      .dwattr $C$DW$31, DW_AT_TI_begin_line(0x162)
    1862                      .dwattr $C$DW$31, DW_AT_TI_end_line(0x165)
    1863              $C$DW$32        .dwtag  DW_TAG_TI_loop_range
    1864                      .dwattr $C$DW$32, DW_AT_low_pc($C$DW$L$_DMA_config$4$B)
    1865                      .dwattr $C$DW$32, DW_AT_high_pc($C$DW$L$_DMA_config$4$E)
    1866                      .dwendtag $C$DW$31
    1867              
    1868                      .dwattr $C$DW$16, DW_AT_TI_end_file("../c5535_bsl_revc/ezdsp5535_v1/c55xx_csl/src/csl_dma.c")
    1869                      .dwattr $C$DW$16, DW_AT_TI_end_line(0x34f)
    1870                      .dwattr $C$DW$16, DW_AT_TI_end_column(0x01)
    1871                      .dwendentry
    1872                      .dwendtag $C$DW$16
    1873              
    1874 000d18               .sect   ".text"
    1875                      .align 4
    1876                      .global _DMA_getConfig
    1877              
    1878              $C$DW$33        .dwtag  DW_TAG_subprogram, DW_AT_name("DMA_getConfig")
    1879                      .dwattr $C$DW$33, DW_AT_low_pc(_DMA_getConfig)
    1880                      .dwattr $C$DW$33, DW_AT_high_pc(0x00)
    1881                      .dwattr $C$DW$33, DW_AT_TI_symbol_name("_DMA_getConfig")
    1882                      .dwattr $C$DW$33, DW_AT_external
    1883                      .dwattr $C$DW$33, DW_AT_type(*$C$DW$T$59)
    1884                      .dwattr $C$DW$33, DW_AT_TI_begin_file("../c5535_bsl_revc/ezdsp5535_v1/c55xx_csl/src/csl_dma.c")
    1885                      .dwattr $C$DW$33, DW_AT_TI_begin_line(0x37b)
    1886                      .dwattr $C$DW$33, DW_AT_TI_begin_column(0x0c)
    1887                      .dwattr $C$DW$33, DW_AT_TI_max_frame_size(0x10)
    1888                      .dwpsn  file "../c5535_bsl_revc/ezdsp5535_v1/c55xx_csl/src/csl_dma.c",line 895,column 1,is_stmt,addre
    1889              
    1890                      .dwfde $C$DW$CIE, _DMA_getConfig
    1891              $C$DW$34        .dwtag  DW_TAG_formal_parameter, DW_AT_name("hDMA")
    1892                      .dwattr $C$DW$34, DW_AT_TI_symbol_name("_hDMA")
    1893                      .dwattr $C$DW$34, DW_AT_type(*$C$DW$T$57)
    1894                      .dwattr $C$DW$34, DW_AT_location[DW_OP_reg17]
    1895              $C$DW$35        .dwtag  DW_TAG_formal_parameter, DW_AT_name("pConfig")
TMS320C55x Assembler PC v4.4.1 Thu Sep 20 01:43:28 2018

Tools Copyright (c) 1996-2012 Texas Instruments Incorporated
csl_dma.asm                                                          PAGE   51

    1896                      .dwattr $C$DW$35, DW_AT_TI_symbol_name("_pConfig")
    1897                      .dwattr $C$DW$35, DW_AT_type(*$C$DW$T$63)
    1898                      .dwattr $C$DW$35, DW_AT_location[DW_OP_reg19]
    1899              ;*******************************************************************************
    1900              ;* FUNCTION NAME: DMA_getConfig                                                *
    1901              ;*                                                                             *
    1902              ;*   Function Uses Regs : AC0,AC0,AC1,AC1,T0,AR0,XAR0,AR1,XAR1,AR2,AR3,XAR3,SP,*
    1903              ;*                        CARRY,TC1,M40,SATA,SATD,RDM,FRCT,SMUL                *
    1904              ;*   Stack Frame        : Compact (No Frame Pointer, w/ debug)                 *
    1905              ;*   Total Frame Size   : 16 words                                             *
    1906              ;*                        (2 return address/alignment)                         *
    1907              ;*                        (14 local values)                                    *
    1908              ;*   Min System Stack   : 1 word                                               *
    1909              ;*******************************************************************************
    1910 000d18       _DMA_getConfig:
    1911                      .dwcfi  cfa_offset, 1
    1912                      .dwcfi  save_reg_to_mem, 91, -1
    1913 000d18 4EF1          AADD #-15, SP
    1914                      .dwcfi  cfa_offset, 16
    1915              $C$DW$36        .dwtag  DW_TAG_variable, DW_AT_name("hDMA")
    1916                      .dwattr $C$DW$36, DW_AT_TI_symbol_name("_hDMA")
    1917                      .dwattr $C$DW$36, DW_AT_type(*$C$DW$T$57)
    1918                      .dwattr $C$DW$36, DW_AT_location[DW_OP_bregx 0x24 0]
    1919              $C$DW$37        .dwtag  DW_TAG_variable, DW_AT_name("pConfig")
    1920                      .dwattr $C$DW$37, DW_AT_TI_symbol_name("_pConfig")
    1921                      .dwattr $C$DW$37, DW_AT_type(*$C$DW$T$63)
    1922                      .dwattr $C$DW$37, DW_AT_location[DW_OP_bregx 0x24 2]
    1923              $C$DW$38        .dwtag  DW_TAG_variable, DW_AT_name("chanNum")
    1924                      .dwattr $C$DW$38, DW_AT_TI_symbol_name("_chanNum")
    1925                      .dwattr $C$DW$38, DW_AT_type(*$C$DW$T$19)
    1926                      .dwattr $C$DW$38, DW_AT_location[DW_OP_bregx 0x24 4]
    1927              $C$DW$39        .dwtag  DW_TAG_variable, DW_AT_name("srcAddrLSB")
    1928                      .dwattr $C$DW$39, DW_AT_TI_symbol_name("_srcAddrLSB")
    1929                      .dwattr $C$DW$39, DW_AT_type(*$C$DW$T$19)
    1930                      .dwattr $C$DW$39, DW_AT_location[DW_OP_bregx 0x24 5]
    1931              $C$DW$40        .dwtag  DW_TAG_variable, DW_AT_name("srcAddrMSB")
    1932                      .dwattr $C$DW$40, DW_AT_TI_symbol_name("_srcAddrMSB")
    1933                      .dwattr $C$DW$40, DW_AT_type(*$C$DW$T$19)
    1934                      .dwattr $C$DW$40, DW_AT_location[DW_OP_bregx 0x24 6]
    1935              $C$DW$41        .dwtag  DW_TAG_variable, DW_AT_name("destAddrLSB")
    1936                      .dwattr $C$DW$41, DW_AT_TI_symbol_name("_destAddrLSB")
    1937                      .dwattr $C$DW$41, DW_AT_type(*$C$DW$T$19)
    1938                      .dwattr $C$DW$41, DW_AT_location[DW_OP_bregx 0x24 7]
    1939              $C$DW$42        .dwtag  DW_TAG_variable, DW_AT_name("destAddrMSB")
    1940                      .dwattr $C$DW$42, DW_AT_TI_symbol_name("_destAddrMSB")
    1941                      .dwattr $C$DW$42, DW_AT_type(*$C$DW$T$19)
    1942                      .dwattr $C$DW$42, DW_AT_location[DW_OP_bregx 0x24 8]
    1943              $C$DW$43        .dwtag  DW_TAG_variable, DW_AT_name("srcAddr")
    1944                      .dwattr $C$DW$43, DW_AT_TI_symbol_name("_srcAddr")
    1945                      .dwattr $C$DW$43, DW_AT_type(*$C$DW$T$49)
    1946                      .dwattr $C$DW$43, DW_AT_location[DW_OP_bregx 0x24 10]
    1947              $C$DW$44        .dwtag  DW_TAG_variable, DW_AT_name("destAddr")
    1948                      .dwattr $C$DW$44, DW_AT_TI_symbol_name("_destAddr")
    1949                      .dwattr $C$DW$44, DW_AT_type(*$C$DW$T$49)
    1950                      .dwattr $C$DW$44, DW_AT_location[DW_OP_bregx 0x24 12]
TMS320C55x Assembler PC v4.4.1 Thu Sep 20 01:43:28 2018

Tools Copyright (c) 1996-2012 Texas Instruments Incorporated
csl_dma.asm                                                          PAGE   52

    1951 000d1a EB04          MOV XAR1, dbl(*SP(#2))
         000d1c 95   
    1952 000d1d EB00          MOV XAR0, dbl(*SP(#0))
         000d1f 85   
    1953                      .dwpsn  file "../c5535_bsl_revc/ezdsp5535_v1/c55xx_csl/src/csl_dma.c",line 904,column 5,is_stmt
    1954 000d20 ED00          MOV dbl(*SP(#0)), XAR3
         000d22 BF   
    1955 000d23 90B0          MOV XAR3, AC0
    1956 000d25 0400          BCC $C$L62,AC0 == #0 ; |904| 
         000d27 25   
    1957                                                      ; branchcc occurs ; |904| 
    1958 000d28 ED04          MOV dbl(*SP(#2)), XAR3
         000d2a BF   
    1959 000d2b 90B0          MOV XAR3, AC0
    1960 000d2d 0400          BCC $C$L62,AC0 == #0 ; |904| 
         000d2f 1D   
    1961                                                      ; branchcc occurs ; |904| 
    1962                      .dwpsn  file "../c5535_bsl_revc/ezdsp5535_v1/c55xx_csl/src/csl_dma.c",line 906,column 9,is_stmt
    1963 000d30 ED00          MOV dbl(*SP(#0)), XAR3
         000d32 BF   
    1964 000d33 A973          MOV *AR3(short(#1)), AR1 ; |906| 
    1965 000d35 C908          MOV AR1, *SP(#4) ; |906| 
    1966                      .dwpsn  file "../c5535_bsl_revc/ezdsp5535_v1/c55xx_csl/src/csl_dma.c",line 907,column 15,is_stmt
    1967 000d37 3C4A          MOV #4, AR2
    1968 000d39 1294          CMPU AR1 < AR2, TC1 ; |907| 
         000d3b A4   
    1969 000d3c 0464          BCC $C$L64,TC1 ; |907| 
         000d3e 1F   
    1970                                                      ; branchcc occurs ; |907| 
    1971 000d3f       $C$L61:    
    1972 000d3f       $C$DW$L$_DMA_getConfig$4$B:
    1973                      .dwpsn  file "../c5535_bsl_revc/ezdsp5535_v1/c55xx_csl/src/csl_dma.c",line 909,column 13,is_stmt
    1974 000d3f F708          SUB #4, *SP(#4) ; |909| 
         000d41 FFFC 
    1975                      .dwpsn  file "../c5535_bsl_revc/ezdsp5535_v1/c55xx_csl/src/csl_dma.c",line 907,column 15,is_stmt
    1976 000d43 A908          MOV *SP(#4), AR1 ; |907| 
    1977 000d45 1298          CMPU AR1 >= AR2, TC1 ; |907| 
         000d47 A4   
    1978 000d48 0464          BCC $C$L61,TC1 ; |907| 
         000d4a F4   
    1979                                                      ; branchcc occurs ; |907| 
    1980 000d4b       $C$DW$L$_DMA_getConfig$4$E:
    1981                      .dwpsn  file "../c5535_bsl_revc/ezdsp5535_v1/c55xx_csl/src/csl_dma.c",line 912,column 5,is_stmt
    1982 000d4b 4A11          B $C$L64  ; |912| 
    1983                                                      ; branch occurs ; |912| 
    1984 000d4d       $C$L62:    
    1985                      .dwpsn  file "../c5535_bsl_revc/ezdsp5535_v1/c55xx_csl/src/csl_dma.c",line 915,column 9,is_stmt
    1986 000d4d ED00          MOV dbl(*SP(#0)), XAR3
         000d4f BF   
    1987 000d50 90B0          MOV XAR3, AC0
    1988 000d52 6290          BCC $C$L63,AC0 != #0 ; |915| 
    1989                                                      ; branchcc occurs ; |915| 
    1990                      .dwpsn  file "../c5535_bsl_revc/ezdsp5535_v1/c55xx_csl/src/csl_dma.c",line 917,column 13,is_stmt
    1991 000d54 3E54          MOV #-5, T0
    1992 000d56 0605          B $C$L100 ; |917| 
TMS320C55x Assembler PC v4.4.1 Thu Sep 20 01:43:28 2018

Tools Copyright (c) 1996-2012 Texas Instruments Incorporated
csl_dma.asm                                                          PAGE   53

         000d58 2A   
    1993                                                      ; branch occurs ; |917| 
    1994 000d59       $C$L63:    
    1995                      .dwpsn  file "../c5535_bsl_revc/ezdsp5535_v1/c55xx_csl/src/csl_dma.c",line 921,column 13,is_stmt
    1996 000d59 3E64          MOV #-6, T0
    1997 000d5b 0605          B $C$L100 ; |921| 
         000d5d 25   
    1998                                                      ; branch occurs ; |921| 
    1999 000d5e       $C$L64:    
    2000                      .dwpsn  file "../c5535_bsl_revc/ezdsp5535_v1/c55xx_csl/src/csl_dma.c",line 925,column 5,is_stmt
    2001 000d5e ED00          MOV dbl(*SP(#0)), XAR3
         000d60 BF   
    2002 000d61 A97B          MOV *AR3(short(#5)), AR1 ; |925| 
    2003 000d63 ED04          MOV dbl(*SP(#2)), XAR3
         000d65 BF   
    2004 000d66 C977          MOV AR1, *AR3(short(#3)) ; |925| 
    2005                      .dwpsn  file "../c5535_bsl_revc/ezdsp5535_v1/c55xx_csl/src/csl_dma.c",line 926,column 5,is_stmt
    2006 000d68 ED00          MOV dbl(*SP(#0)), XAR3
         000d6a BF   
    2007 000d6b A979          MOV *AR3(short(#4)), AR1 ; |926| 
    2008 000d6d ED04          MOV dbl(*SP(#2)), XAR3
         000d6f BF   
    2009 000d70 C97D          MOV AR1, *AR3(short(#6)) ; |926| 
    2010                      .dwpsn  file "../c5535_bsl_revc/ezdsp5535_v1/c55xx_csl/src/csl_dma.c",line 927,column 5,is_stmt
    2011 000d72 ED00          MOV dbl(*SP(#0)), XAR3
         000d74 BF   
    2012 000d75 A97D          MOV *AR3(short(#6)), AR1 ; |927| 
    2013 000d77 ED04          MOV dbl(*SP(#2)), XAR3
         000d79 BF   
    2014 000d7a C97F          MOV AR1, *AR3(short(#7)) ; |927| 
    2015                      .dwpsn  file "../c5535_bsl_revc/ezdsp5535_v1/c55xx_csl/src/csl_dma.c",line 928,column 5,is_stmt
    2016 000d7c 0602          B $C$L69  ; |928| 
         000d7e 5C   
    2017                                                      ; branch occurs ; |928| 
    2018 000d7f       $C$L65:    
    2019                      .dwpsn  file "../c5535_bsl_revc/ezdsp5535_v1/c55xx_csl/src/csl_dma.c",line 932,column 3,is_stmt
    2020 000d7f ED00          MOV dbl(*SP(#0)), XAR3
         000d81 BF   
    2021 000d82 AB61          MOV *AR3, AR3 ; |932| 
    2022 000d84 A961          MOV port(*AR3), AR1 ; |932| 
         000d86 99   
    2023 000d87 C90A          MOV AR1, *SP(#5) ; |932| 
    2024                      .dwpsn  file "../c5535_bsl_revc/ezdsp5535_v1/c55xx_csl/src/csl_dma.c",line 933,column 3,is_stmt
    2025 000d89 ED00          MOV dbl(*SP(#0)), XAR3
         000d8b BF   
    2026 000d8c AB61          MOV *AR3, AR3 ; |933| 
    2027 000d8e A973          MOV port(*AR3(short(#1))), AR1 ; |933| 
         000d90 99   
    2028 000d91 C90C          MOV AR1, *SP(#6) ; |933| 
    2029                      .dwpsn  file "../c5535_bsl_revc/ezdsp5535_v1/c55xx_csl/src/csl_dma.c",line 934,column 3,is_stmt
    2030 000d93 ED00          MOV dbl(*SP(#0)), XAR3
         000d95 BF   
    2031 000d96 AB61          MOV *AR3, AR3 ; |934| 
    2032 000d98 A975          MOV port(*AR3(short(#2))), AR1 ; |934| 
         000d9a 99   
TMS320C55x Assembler PC v4.4.1 Thu Sep 20 01:43:28 2018

Tools Copyright (c) 1996-2012 Texas Instruments Incorporated
csl_dma.asm                                                          PAGE   54

    2033 000d9b C90E          MOV AR1, *SP(#7) ; |934| 
    2034                      .dwpsn  file "../c5535_bsl_revc/ezdsp5535_v1/c55xx_csl/src/csl_dma.c",line 935,column 3,is_stmt
    2035 000d9d ED00          MOV dbl(*SP(#0)), XAR3
         000d9f BF   
    2036 000da0 AB61          MOV *AR3, AR3 ; |935| 
    2037 000da2 A977          MOV port(*AR3(short(#3))), AR1 ; |935| 
         000da4 99   
    2038 000da5 C910          MOV AR1, *SP(#8) ; |935| 
    2039                      .dwpsn  file "../c5535_bsl_revc/ezdsp5535_v1/c55xx_csl/src/csl_dma.c",line 937,column 6,is_stmt
    2040 000da7 ED00          MOV dbl(*SP(#0)), XAR3
         000da9 BF   
    2041 000daa AB61          MOV *AR3, AR3 ; |937| 
    2042 000dac A979          MOV port(*AR3(short(#4))), AR1 ; |937| 
         000dae 99   
    2043 000daf ED04          MOV dbl(*SP(#2)), XAR3
         000db1 BF   
    2044 000db2 C96D          MOV AR1, *AR3(#8) ; |937| 
         000db4 0008 
    2045                      .dwpsn  file "../c5535_bsl_revc/ezdsp5535_v1/c55xx_csl/src/csl_dma.c",line 939,column 6,is_stmt
    2046 000db6 ED00          MOV dbl(*SP(#0)), XAR3
         000db8 BF   
    2047 000db9 AB61          MOV *AR3, AR3 ; |939| 
    2048 000dbb A97B          MOV port(*AR3(short(#5))), AR1 ; |939| 
         000dbd 99   
    2049 000dbe ED04          MOV dbl(*SP(#2)), XAR3
         000dc0 BF   
    2050 000dc1 7D10          AND #0x1000, AR1, AC0 ; |939| 
         000dc3 0009 
    2051 000dc5 1005          SFTS AC0, #-12, AC0 ; |939| 
         000dc7 34   
    2052 000dc8 C073          MOV AC0, *AR3(short(#1)) ; |939| 
    2053                      .dwpsn  file "../c5535_bsl_revc/ezdsp5535_v1/c55xx_csl/src/csl_dma.c",line 941,column 6,is_stmt
    2054 000dca ED00          MOV dbl(*SP(#0)), XAR3
         000dcc BF   
    2055 000dcd AB61          MOV *AR3, AR3 ; |941| 
    2056 000dcf A97B          MOV port(*AR3(short(#5))), AR1 ; |941| 
         000dd1 99   
    2057 000dd2 ED04          MOV dbl(*SP(#2)), XAR3
         000dd4 BF   
    2058 000dd5 1838          AND #0x0038, AR1, AC0 ; |941| 
         000dd7 09   
    2059 000dd8 1005          SFTS AC0, #-3, AC0 ; |941| 
         000dda 3D   
    2060 000ddb C075          MOV AC0, *AR3(short(#2)) ; |941| 
    2061                      .dwpsn  file "../c5535_bsl_revc/ezdsp5535_v1/c55xx_csl/src/csl_dma.c",line 943,column 6,is_stmt
    2062 000ddd ED00          MOV dbl(*SP(#0)), XAR3
         000ddf BF   
    2063 000de0 AB61          MOV *AR3, AR3 ; |943| 
    2064 000de2 A97B          MOV port(*AR3(short(#5))), AR1 ; |943| 
         000de4 99   
    2065 000de5 ED04          MOV dbl(*SP(#2)), XAR3
         000de7 BF   
    2066 000de8 7D20          AND #0x2000, AR1, AC0 ; |943| 
         000dea 0009 
    2067 000dec 1005          SFTS AC0, #-13, AC0 ; |943| 
TMS320C55x Assembler PC v4.4.1 Thu Sep 20 01:43:28 2018

Tools Copyright (c) 1996-2012 Texas Instruments Incorporated
csl_dma.asm                                                          PAGE   55

         000dee 33   
    2068 000def C07B          MOV AC0, *AR3(short(#5)) ; |943| 
    2069                      .dwpsn  file "../c5535_bsl_revc/ezdsp5535_v1/c55xx_csl/src/csl_dma.c",line 947,column 3,is_stmt
    2070 000df1 ED00          MOV dbl(*SP(#0)), XAR3
         000df3 BF   
    2071 000df4 AB61          MOV *AR3, AR3 ; |947| 
    2072 000df6 A97B          MOV port(*AR3(short(#5))), AR1 ; |947| 
         000df8 99   
    2073 000df9 ED04          MOV dbl(*SP(#2)), XAR3
         000dfb BF   
    2074 000dfc 1801          AND #0x0001, AR1, AC0 ; |947| 
         000dfe 09   
    2075 000dff C061          MOV AC0, *AR3 ; |947| 
    2076                      .dwpsn  file "../c5535_bsl_revc/ezdsp5535_v1/c55xx_csl/src/csl_dma.c",line 950,column 14,is_stmt
    2077 000e01 0603          B $C$L86  ; |950| 
         000e03 09   
    2078                                                      ; branch occurs ; |950| 
    2079 000e04       $C$L66:    
    2080                      .dwpsn  file "../c5535_bsl_revc/ezdsp5535_v1/c55xx_csl/src/csl_dma.c",line 954,column 3,is_stmt
    2081 000e04 ED00          MOV dbl(*SP(#0)), XAR3
         000e06 BF   
    2082 000e07 7600          MOV #32, T0 ; |954| 
         000e09 2048 
    2083 000e0b AB61          MOV *AR3, AR3 ; |954| 
    2084 000e0d A96B          MOV port(*AR3(T0)), AR1 ; |954| 
         000e0f 99   
    2085 000e10 C90A          MOV AR1, *SP(#5) ; |954| 
    2086                      .dwpsn  file "../c5535_bsl_revc/ezdsp5535_v1/c55xx_csl/src/csl_dma.c",line 955,column 3,is_stmt
    2087 000e12 ED00          MOV dbl(*SP(#0)), XAR3
         000e14 BF   
    2088 000e15 7600          MOV #33, T0 ; |955| 
         000e17 2148 
    2089 000e19 AB61          MOV *AR3, AR3 ; |955| 
    2090 000e1b A96B          MOV port(*AR3(T0)), AR1 ; |955| 
         000e1d 99   
    2091 000e1e C90C          MOV AR1, *SP(#6) ; |955| 
    2092                      .dwpsn  file "../c5535_bsl_revc/ezdsp5535_v1/c55xx_csl/src/csl_dma.c",line 956,column 3,is_stmt
    2093 000e20 ED00          MOV dbl(*SP(#0)), XAR3
         000e22 BF   
    2094 000e23 7600          MOV #34, T0 ; |956| 
         000e25 2248 
    2095 000e27 AB61          MOV *AR3, AR3 ; |956| 
    2096 000e29 A96B          MOV port(*AR3(T0)), AR1 ; |956| 
         000e2b 99   
    2097 000e2c C90E          MOV AR1, *SP(#7) ; |956| 
    2098                      .dwpsn  file "../c5535_bsl_revc/ezdsp5535_v1/c55xx_csl/src/csl_dma.c",line 957,column 3,is_stmt
    2099 000e2e ED00          MOV dbl(*SP(#0)), XAR3
         000e30 BF   
    2100 000e31 7600          MOV #35, T0 ; |957| 
         000e33 2348 
    2101 000e35 AB61          MOV *AR3, AR3 ; |957| 
    2102 000e37 A96B          MOV port(*AR3(T0)), AR1 ; |957| 
         000e39 99   
    2103 000e3a C910          MOV AR1, *SP(#8) ; |957| 
    2104                      .dwpsn  file "../c5535_bsl_revc/ezdsp5535_v1/c55xx_csl/src/csl_dma.c",line 959,column 6,is_stmt
TMS320C55x Assembler PC v4.4.1 Thu Sep 20 01:43:28 2018

Tools Copyright (c) 1996-2012 Texas Instruments Incorporated
csl_dma.asm                                                          PAGE   56

    2105 000e3c ED00          MOV dbl(*SP(#0)), XAR3
         000e3e BF   
    2106 000e3f 7600          MOV #36, T0 ; |959| 
         000e41 2448 
    2107 000e43 AB61          MOV *AR3, AR3 ; |959| 
    2108 000e45 A96B          MOV port(*AR3(T0)), AR1 ; |959| 
         000e47 99   
    2109 000e48 ED04          MOV dbl(*SP(#2)), XAR3
         000e4a BF   
    2110 000e4b C96D          MOV AR1, *AR3(#8) ; |959| 
         000e4d 0008 
    2111                      .dwpsn  file "../c5535_bsl_revc/ezdsp5535_v1/c55xx_csl/src/csl_dma.c",line 961,column 6,is_stmt
    2112 000e4f ED00          MOV dbl(*SP(#0)), XAR3
         000e51 BF   
    2113 000e52 7600          MOV #37, T0 ; |961| 
         000e54 2548 
    2114 000e56 AB61          MOV *AR3, AR3 ; |961| 
    2115 000e58 A96B          MOV port(*AR3(T0)), AR1 ; |961| 
         000e5a 99   
    2116 000e5b ED04          MOV dbl(*SP(#2)), XAR3
         000e5d BF   
    2117 000e5e 7D10          AND #0x1000, AR1, AC0 ; |961| 
         000e60 0009 
    2118 000e62 1005          SFTS AC0, #-12, AC0 ; |961| 
         000e64 34   
    2119 000e65 C073          MOV AC0, *AR3(short(#1)) ; |961| 
    2120                      .dwpsn  file "../c5535_bsl_revc/ezdsp5535_v1/c55xx_csl/src/csl_dma.c",line 963,column 6,is_stmt
    2121 000e67 ED00          MOV dbl(*SP(#0)), XAR3
         000e69 BF   
    2122 000e6a AB61          MOV *AR3, AR3 ; |963| 
    2123 000e6c A96B          MOV port(*AR3(T0)), AR1 ; |963| 
         000e6e 99   
    2124 000e6f ED04          MOV dbl(*SP(#2)), XAR3
         000e71 BF   
    2125 000e72 1838          AND #0x0038, AR1, AC0 ; |963| 
         000e74 09   
    2126 000e75 1005          SFTS AC0, #-3, AC0 ; |963| 
         000e77 3D   
    2127 000e78 C075          MOV AC0, *AR3(short(#2)) ; |963| 
    2128                      .dwpsn  file "../c5535_bsl_revc/ezdsp5535_v1/c55xx_csl/src/csl_dma.c",line 965,column 6,is_stmt
    2129 000e7a ED00          MOV dbl(*SP(#0)), XAR3
         000e7c BF   
    2130 000e7d AB61          MOV *AR3, AR3 ; |965| 
    2131 000e7f A96B          MOV port(*AR3(T0)), AR1 ; |965| 
         000e81 99   
    2132 000e82 ED04          MOV dbl(*SP(#2)), XAR3
         000e84 BF   
    2133 000e85 7D20          AND #0x2000, AR1, AC0 ; |965| 
         000e87 0009 
    2134 000e89 1005          SFTS AC0, #-13, AC0 ; |965| 
         000e8b 33   
    2135 000e8c C07B          MOV AC0, *AR3(short(#5)) ; |965| 
    2136                      .dwpsn  file "../c5535_bsl_revc/ezdsp5535_v1/c55xx_csl/src/csl_dma.c",line 969,column 3,is_stmt
    2137 000e8e ED00          MOV dbl(*SP(#0)), XAR3
         000e90 BF   
TMS320C55x Assembler PC v4.4.1 Thu Sep 20 01:43:28 2018

Tools Copyright (c) 1996-2012 Texas Instruments Incorporated
csl_dma.asm                                                          PAGE   57

    2138 000e91 AB61          MOV *AR3, AR3 ; |969| 
    2139 000e93 A96B          MOV port(*AR3(T0)), AR1 ; |969| 
         000e95 99   
    2140 000e96 ED04          MOV dbl(*SP(#2)), XAR3
         000e98 BF   
    2141 000e99 1801          AND #0x0001, AR1, AC0 ; |969| 
         000e9b 09   
    2142 000e9c C061          MOV AC0, *AR3 ; |969| 
    2143                      .dwpsn  file "../c5535_bsl_revc/ezdsp5535_v1/c55xx_csl/src/csl_dma.c",line 972,column 14,is_stmt
    2144 000e9e 0602          B $C$L86  ; |972| 
         000ea0 6C   
    2145                                                      ; branch occurs ; |972| 
    2146 000ea1       $C$L67:    
    2147                      .dwpsn  file "../c5535_bsl_revc/ezdsp5535_v1/c55xx_csl/src/csl_dma.c",line 976,column 3,is_stmt
    2148 000ea1 ED00          MOV dbl(*SP(#0)), XAR3
         000ea3 BF   
    2149 000ea4 7600          MOV #64, T0 ; |976| 
         000ea6 4048 
    2150 000ea8 AB61          MOV *AR3, AR3 ; |976| 
    2151 000eaa A96B          MOV port(*AR3(T0)), AR1 ; |976| 
         000eac 99   
    2152 000ead C90A          MOV AR1, *SP(#5) ; |976| 
    2153                      .dwpsn  file "../c5535_bsl_revc/ezdsp5535_v1/c55xx_csl/src/csl_dma.c",line 977,column 3,is_stmt
    2154 000eaf ED00          MOV dbl(*SP(#0)), XAR3
         000eb1 BF   
    2155 000eb2 7600          MOV #65, T0 ; |977| 
         000eb4 4148 
    2156 000eb6 AB61          MOV *AR3, AR3 ; |977| 
    2157 000eb8 A96B          MOV port(*AR3(T0)), AR1 ; |977| 
         000eba 99   
    2158 000ebb C90C          MOV AR1, *SP(#6) ; |977| 
    2159                      .dwpsn  file "../c5535_bsl_revc/ezdsp5535_v1/c55xx_csl/src/csl_dma.c",line 978,column 3,is_stmt
    2160 000ebd ED00          MOV dbl(*SP(#0)), XAR3
         000ebf BF   
    2161 000ec0 7600          MOV #66, T0 ; |978| 
         000ec2 4248 
    2162 000ec4 AB61          MOV *AR3, AR3 ; |978| 
    2163 000ec6 A96B          MOV port(*AR3(T0)), AR1 ; |978| 
         000ec8 99   
    2164 000ec9 C90E          MOV AR1, *SP(#7) ; |978| 
    2165                      .dwpsn  file "../c5535_bsl_revc/ezdsp5535_v1/c55xx_csl/src/csl_dma.c",line 979,column 3,is_stmt
    2166 000ecb ED00          MOV dbl(*SP(#0)), XAR3
         000ecd BF   
    2167 000ece 7600          MOV #67, T0 ; |979| 
         000ed0 4348 
    2168 000ed2 AB61          MOV *AR3, AR3 ; |979| 
    2169 000ed4 A96B          MOV port(*AR3(T0)), AR1 ; |979| 
         000ed6 99   
    2170 000ed7 C910          MOV AR1, *SP(#8) ; |979| 
    2171                      .dwpsn  file "../c5535_bsl_revc/ezdsp5535_v1/c55xx_csl/src/csl_dma.c",line 981,column 6,is_stmt
    2172 000ed9 ED00          MOV dbl(*SP(#0)), XAR3
         000edb BF   
    2173 000edc 7600          MOV #68, T0 ; |981| 
         000ede 4448 
    2174 000ee0 AB61          MOV *AR3, AR3 ; |981| 
TMS320C55x Assembler PC v4.4.1 Thu Sep 20 01:43:28 2018

Tools Copyright (c) 1996-2012 Texas Instruments Incorporated
csl_dma.asm                                                          PAGE   58

    2175 000ee2 A96B          MOV port(*AR3(T0)), AR1 ; |981| 
         000ee4 99   
    2176 000ee5 ED04          MOV dbl(*SP(#2)), XAR3
         000ee7 BF   
    2177 000ee8 C96D          MOV AR1, *AR3(#8) ; |981| 
         000eea 0008 
    2178                      .dwpsn  file "../c5535_bsl_revc/ezdsp5535_v1/c55xx_csl/src/csl_dma.c",line 983,column 6,is_stmt
    2179 000eec ED00          MOV dbl(*SP(#0)), XAR3
         000eee BF   
    2180 000eef 7600          MOV #69, T0 ; |983| 
         000ef1 4548 
    2181 000ef3 AB61          MOV *AR3, AR3 ; |983| 
    2182 000ef5 A96B          MOV port(*AR3(T0)), AR1 ; |983| 
         000ef7 99   
    2183 000ef8 ED04          MOV dbl(*SP(#2)), XAR3
         000efa BF   
    2184 000efb 7D10          AND #0x1000, AR1, AC0 ; |983| 
         000efd 0009 
    2185 000eff 1005          SFTS AC0, #-12, AC0 ; |983| 
         000f01 34   
    2186 000f02 C073          MOV AC0, *AR3(short(#1)) ; |983| 
    2187                      .dwpsn  file "../c5535_bsl_revc/ezdsp5535_v1/c55xx_csl/src/csl_dma.c",line 985,column 6,is_stmt
    2188 000f04 ED00          MOV dbl(*SP(#0)), XAR3
         000f06 BF   
    2189 000f07 AB61          MOV *AR3, AR3 ; |985| 
    2190 000f09 A96B          MOV port(*AR3(T0)), AR1 ; |985| 
         000f0b 99   
    2191 000f0c ED04          MOV dbl(*SP(#2)), XAR3
         000f0e BF   
    2192 000f0f 1838          AND #0x0038, AR1, AC0 ; |985| 
         000f11 09   
    2193 000f12 1005          SFTS AC0, #-3, AC0 ; |985| 
         000f14 3D   
    2194 000f15 C075          MOV AC0, *AR3(short(#2)) ; |985| 
    2195                      .dwpsn  file "../c5535_bsl_revc/ezdsp5535_v1/c55xx_csl/src/csl_dma.c",line 987,column 6,is_stmt
    2196 000f17 ED00          MOV dbl(*SP(#0)), XAR3
         000f19 BF   
    2197 000f1a AB61          MOV *AR3, AR3 ; |987| 
    2198 000f1c A96B          MOV port(*AR3(T0)), AR1 ; |987| 
         000f1e 99   
    2199 000f1f ED04          MOV dbl(*SP(#2)), XAR3
         000f21 BF   
    2200 000f22 7D20          AND #0x2000, AR1, AC0 ; |987| 
         000f24 0009 
    2201 000f26 1005          SFTS AC0, #-13, AC0 ; |987| 
         000f28 33   
    2202 000f29 C07B          MOV AC0, *AR3(short(#5)) ; |987| 
    2203                      .dwpsn  file "../c5535_bsl_revc/ezdsp5535_v1/c55xx_csl/src/csl_dma.c",line 991,column 3,is_stmt
    2204 000f2b ED00          MOV dbl(*SP(#0)), XAR3
         000f2d BF   
    2205 000f2e AB61          MOV *AR3, AR3 ; |991| 
    2206 000f30 A96B          MOV port(*AR3(T0)), AR1 ; |991| 
         000f32 99   
    2207 000f33 ED04          MOV dbl(*SP(#2)), XAR3
         000f35 BF   
TMS320C55x Assembler PC v4.4.1 Thu Sep 20 01:43:28 2018

Tools Copyright (c) 1996-2012 Texas Instruments Incorporated
csl_dma.asm                                                          PAGE   59

    2208 000f36 1801          AND #0x0001, AR1, AC0 ; |991| 
         000f38 09   
    2209 000f39 C061          MOV AC0, *AR3 ; |991| 
    2210                      .dwpsn  file "../c5535_bsl_revc/ezdsp5535_v1/c55xx_csl/src/csl_dma.c",line 995,column 14,is_stmt
    2211 000f3b 0601          B $C$L86  ; |995| 
         000f3d CF   
    2212                                                      ; branch occurs ; |995| 
    2213 000f3e       $C$L68:    
    2214                      .dwpsn  file "../c5535_bsl_revc/ezdsp5535_v1/c55xx_csl/src/csl_dma.c",line 999,column 3,is_stmt
    2215 000f3e ED00          MOV dbl(*SP(#0)), XAR3
         000f40 BF   
    2216 000f41 7600          MOV #96, T0 ; |999| 
         000f43 6048 
    2217 000f45 AB61          MOV *AR3, AR3 ; |999| 
    2218 000f47 A96B          MOV port(*AR3(T0)), AR1 ; |999| 
         000f49 99   
    2219 000f4a C90A          MOV AR1, *SP(#5) ; |999| 
    2220                      .dwpsn  file "../c5535_bsl_revc/ezdsp5535_v1/c55xx_csl/src/csl_dma.c",line 1000,column 3,is_stmt
    2221 000f4c ED00          MOV dbl(*SP(#0)), XAR3
         000f4e BF   
    2222 000f4f 7600          MOV #97, T0 ; |1000| 
         000f51 6148 
    2223 000f53 AB61          MOV *AR3, AR3 ; |1000| 
    2224 000f55 A96B          MOV port(*AR3(T0)), AR1 ; |1000| 
         000f57 99   
    2225 000f58 C90C          MOV AR1, *SP(#6) ; |1000| 
    2226                      .dwpsn  file "../c5535_bsl_revc/ezdsp5535_v1/c55xx_csl/src/csl_dma.c",line 1001,column 3,is_stmt
    2227 000f5a ED00          MOV dbl(*SP(#0)), XAR3
         000f5c BF   
    2228 000f5d 7600          MOV #98, T0 ; |1001| 
         000f5f 6248 
    2229 000f61 AB61          MOV *AR3, AR3 ; |1001| 
    2230 000f63 A96B          MOV port(*AR3(T0)), AR1 ; |1001| 
         000f65 99   
    2231 000f66 C90E          MOV AR1, *SP(#7) ; |1001| 
    2232                      .dwpsn  file "../c5535_bsl_revc/ezdsp5535_v1/c55xx_csl/src/csl_dma.c",line 1002,column 3,is_stmt
    2233 000f68 ED00          MOV dbl(*SP(#0)), XAR3
         000f6a BF   
    2234 000f6b 7600          MOV #99, T0 ; |1002| 
         000f6d 6348 
    2235 000f6f AB61          MOV *AR3, AR3 ; |1002| 
    2236 000f71 A96B          MOV port(*AR3(T0)), AR1 ; |1002| 
         000f73 99   
    2237 000f74 C910          MOV AR1, *SP(#8) ; |1002| 
    2238                      .dwpsn  file "../c5535_bsl_revc/ezdsp5535_v1/c55xx_csl/src/csl_dma.c",line 1004,column 6,is_stmt
    2239 000f76 ED00          MOV dbl(*SP(#0)), XAR3
         000f78 BF   
    2240 000f79 7600          MOV #100, T0 ; |1004| 
         000f7b 6448 
    2241 000f7d AB61          MOV *AR3, AR3 ; |1004| 
    2242 000f7f A96B          MOV port(*AR3(T0)), AR1 ; |1004| 
         000f81 99   
    2243 000f82 ED04          MOV dbl(*SP(#2)), XAR3
         000f84 BF   
    2244 000f85 C96D          MOV AR1, *AR3(#8) ; |1004| 
TMS320C55x Assembler PC v4.4.1 Thu Sep 20 01:43:28 2018

Tools Copyright (c) 1996-2012 Texas Instruments Incorporated
csl_dma.asm                                                          PAGE   60

         000f87 0008 
    2245                      .dwpsn  file "../c5535_bsl_revc/ezdsp5535_v1/c55xx_csl/src/csl_dma.c",line 1006,column 6,is_stmt
    2246 000f89 ED00          MOV dbl(*SP(#0)), XAR3
         000f8b BF   
    2247 000f8c 7600          MOV #101, T0 ; |1006| 
         000f8e 6548 
    2248 000f90 AB61          MOV *AR3, AR3 ; |1006| 
    2249 000f92 A96B          MOV port(*AR3(T0)), AR1 ; |1006| 
         000f94 99   
    2250 000f95 ED04          MOV dbl(*SP(#2)), XAR3
         000f97 BF   
    2251 000f98 7D10          AND #0x1000, AR1, AC0 ; |1006| 
         000f9a 0009 
    2252 000f9c 1005          SFTS AC0, #-12, AC0 ; |1006| 
         000f9e 34   
    2253 000f9f C073          MOV AC0, *AR3(short(#1)) ; |1006| 
    2254                      .dwpsn  file "../c5535_bsl_revc/ezdsp5535_v1/c55xx_csl/src/csl_dma.c",line 1008,column 6,is_stmt
    2255 000fa1 ED00          MOV dbl(*SP(#0)), XAR3
         000fa3 BF   
    2256 000fa4 AB61          MOV *AR3, AR3 ; |1008| 
    2257 000fa6 A96B          MOV port(*AR3(T0)), AR1 ; |1008| 
         000fa8 99   
    2258 000fa9 ED04          MOV dbl(*SP(#2)), XAR3
         000fab BF   
    2259 000fac 1838          AND #0x0038, AR1, AC0 ; |1008| 
         000fae 09   
    2260 000faf 1005          SFTS AC0, #-3, AC0 ; |1008| 
         000fb1 3D   
    2261 000fb2 C075          MOV AC0, *AR3(short(#2)) ; |1008| 
    2262                      .dwpsn  file "../c5535_bsl_revc/ezdsp5535_v1/c55xx_csl/src/csl_dma.c",line 1010,column 6,is_stmt
    2263 000fb4 ED00          MOV dbl(*SP(#0)), XAR3
         000fb6 BF   
    2264 000fb7 AB61          MOV *AR3, AR3 ; |1010| 
    2265 000fb9 A96B          MOV port(*AR3(T0)), AR1 ; |1010| 
         000fbb 99   
    2266 000fbc ED04          MOV dbl(*SP(#2)), XAR3
         000fbe BF   
    2267 000fbf 7D20          AND #0x2000, AR1, AC0 ; |1010| 
         000fc1 0009 
    2268 000fc3 1005          SFTS AC0, #-13, AC0 ; |1010| 
         000fc5 33   
    2269 000fc6 C07B          MOV AC0, *AR3(short(#5)) ; |1010| 
    2270                      .dwpsn  file "../c5535_bsl_revc/ezdsp5535_v1/c55xx_csl/src/csl_dma.c",line 1014,column 3,is_stmt
    2271 000fc8 ED00          MOV dbl(*SP(#0)), XAR3
         000fca BF   
    2272 000fcb AB61          MOV *AR3, AR3 ; |1014| 
    2273 000fcd A96B          MOV port(*AR3(T0)), AR1 ; |1014| 
         000fcf 99   
    2274 000fd0 ED04          MOV dbl(*SP(#2)), XAR3
         000fd2 BF   
    2275 000fd3 1801          AND #0x0001, AR1, AC0 ; |1014| 
         000fd5 09   
    2276 000fd6 C061          MOV AC0, *AR3 ; |1014| 
    2277                      .dwpsn  file "../c5535_bsl_revc/ezdsp5535_v1/c55xx_csl/src/csl_dma.c",line 1018,column 14,is_stmt
    2278 000fd8 0601          B $C$L86  ; |1018| 
TMS320C55x Assembler PC v4.4.1 Thu Sep 20 01:43:28 2018

Tools Copyright (c) 1996-2012 Texas Instruments Incorporated
csl_dma.asm                                                          PAGE   61

         000fda 32   
    2279                                                      ; branch occurs ; |1018| 
    2280 000fdb       $C$L69:    
    2281                      .dwpsn  file "../c5535_bsl_revc/ezdsp5535_v1/c55xx_csl/src/csl_dma.c",line 928,column 5,is_stmt
    2282 000fdb A908          MOV *SP(#4), AR1 ; |928| 
    2283 000fdd 6D09          BCC $C$L65,AR1 == #0 ; |928| 
         000fdf FD9E 
    2284                                                      ; branchcc occurs ; |928| 
    2285 000fe1 3C1A          MOV #1, AR2
    2286 000fe3 1290          CMPU AR1 == AR2, TC1 ; |928| 
         000fe5 A4   
    2287 000fe6 6D64          BCC $C$L66,TC1 ; |928| 
         000fe8 FE1A 
    2288                                                      ; branchcc occurs ; |928| 
    2289 000fea 3C2A          MOV #2, AR2
    2290 000fec 1290          CMPU AR1 == AR2, TC1 ; |928| 
         000fee A4   
    2291 000fef 6D64          BCC $C$L67,TC1 ; |928| 
         000ff1 FEAE 
    2292                                                      ; branchcc occurs ; |928| 
    2293 000ff3 3C3A          MOV #3, AR2
    2294 000ff5 1290          CMPU AR1 == AR2, TC1 ; |928| 
         000ff7 A4   
    2295 000ff8 6D64          BCC $C$L68,TC1 ; |928| 
         000ffa FF42 
    2296                                                      ; branchcc occurs ; |928| 
    2297 000ffc 0601          B $C$L86  ; |928| 
         000ffe 0E   
    2298                                                      ; branch occurs ; |928| 
    2299 000fff       $C$L70:    
    2300                      .dwpsn  file "../c5535_bsl_revc/ezdsp5535_v1/c55xx_csl/src/csl_dma.c",line 1025,column 9,is_stmt
    2301 000fff ED04          MOV dbl(*SP(#2)), XAR3
         001001 BF   
    2302 001002 A951          MOV *port(#7194), AR1 ; |1025| 
         001004 1C1A 
    2303 001006 180F          AND #0x000f, AR1, AC0 ; |1025| 
         001008 09   
    2304 001009 C079          MOV AC0, *AR3(short(#4)) ; |1025| 
    2305                      .dwpsn  file "../c5535_bsl_revc/ezdsp5535_v1/c55xx_csl/src/csl_dma.c",line 1027,column 14,is_stmt
    2306 00100b 0601          B $C$L87  ; |1027| 
         00100d 24   
    2307                                                      ; branch occurs ; |1027| 
    2308 00100e       $C$L71:    
    2309                      .dwpsn  file "../c5535_bsl_revc/ezdsp5535_v1/c55xx_csl/src/csl_dma.c",line 1030,column 9,is_stmt
    2310 00100e ED04          MOV dbl(*SP(#2)), XAR3
         001010 BF   
    2311 001011 A951          MOV *port(#7194), AR1 ; |1030| 
         001013 1C1A 
    2312 001015 7D0F          AND #0x0f00, AR1, AC0 ; |1030| 
         001017 0009 
    2313 001019 1005          SFTS AC0, #-8, AC0 ; |1030| 
         00101b 38   
    2314 00101c C079          MOV AC0, *AR3(short(#4)) ; |1030| 
    2315                      .dwpsn  file "../c5535_bsl_revc/ezdsp5535_v1/c55xx_csl/src/csl_dma.c",line 1032,column 14,is_stmt
    2316 00101e 0601          B $C$L87  ; |1032| 
TMS320C55x Assembler PC v4.4.1 Thu Sep 20 01:43:28 2018

Tools Copyright (c) 1996-2012 Texas Instruments Incorporated
csl_dma.asm                                                          PAGE   62

         001020 11   
    2317                                                      ; branch occurs ; |1032| 
    2318 001021       $C$L72:    
    2319                      .dwpsn  file "../c5535_bsl_revc/ezdsp5535_v1/c55xx_csl/src/csl_dma.c",line 1034,column 9,is_stmt
    2320 001021 ED04          MOV dbl(*SP(#2)), XAR3
         001023 BF   
    2321 001024 A951          MOV *port(#7195), AR1 ; |1034| 
         001026 1C1B 
    2322 001028 180F          AND #0x000f, AR1, AC0 ; |1034| 
         00102a 09   
    2323 00102b C079          MOV AC0, *AR3(short(#4)) ; |1034| 
    2324                      .dwpsn  file "../c5535_bsl_revc/ezdsp5535_v1/c55xx_csl/src/csl_dma.c",line 1036,column 14,is_stmt
    2325 00102d 0601          B $C$L87  ; |1036| 
         00102f 02   
    2326                                                      ; branch occurs ; |1036| 
    2327 001030       $C$L73:    
    2328                      .dwpsn  file "../c5535_bsl_revc/ezdsp5535_v1/c55xx_csl/src/csl_dma.c",line 1039,column 9,is_stmt
    2329 001030 ED04          MOV dbl(*SP(#2)), XAR3
         001032 BF   
    2330 001033 A951          MOV *port(#7195), AR1 ; |1039| 
         001035 1C1B 
    2331 001037 7D0F          AND #0x0f00, AR1, AC0 ; |1039| 
         001039 0009 
    2332 00103b 1005          SFTS AC0, #-8, AC0 ; |1039| 
         00103d 38   
    2333 00103e C079          MOV AC0, *AR3(short(#4)) ; |1039| 
    2334                      .dwpsn  file "../c5535_bsl_revc/ezdsp5535_v1/c55xx_csl/src/csl_dma.c",line 1041,column 14,is_stmt
    2335 001040 0600          B $C$L87  ; |1041| 
         001042 EF   
    2336                                                      ; branch occurs ; |1041| 
    2337 001043       $C$L74:    
    2338                      .dwpsn  file "../c5535_bsl_revc/ezdsp5535_v1/c55xx_csl/src/csl_dma.c",line 1044,column 9,is_stmt
    2339 001043 ED04          MOV dbl(*SP(#2)), XAR3
         001045 BF   
    2340 001046 A951          MOV *port(#7196), AR1 ; |1044| 
         001048 1C1C 
    2341 00104a 180F          AND #0x000f, AR1, AC0 ; |1044| 
         00104c 09   
    2342 00104d C079          MOV AC0, *AR3(short(#4)) ; |1044| 
    2343                      .dwpsn  file "../c5535_bsl_revc/ezdsp5535_v1/c55xx_csl/src/csl_dma.c",line 1046,column 14,is_stmt
    2344 00104f 0600          B $C$L87  ; |1046| 
         001051 E0   
    2345                                                      ; branch occurs ; |1046| 
    2346 001052       $C$L75:    
    2347                      .dwpsn  file "../c5535_bsl_revc/ezdsp5535_v1/c55xx_csl/src/csl_dma.c",line 1049,column 9,is_stmt
    2348 001052 ED04          MOV dbl(*SP(#2)), XAR3
         001054 BF   
    2349 001055 A951          MOV *port(#7196), AR1 ; |1049| 
         001057 1C1C 
    2350 001059 7D0F          AND #0x0f00, AR1, AC0 ; |1049| 
         00105b 0009 
    2351 00105d 1005          SFTS AC0, #-8, AC0 ; |1049| 
         00105f 38   
    2352 001060 C079          MOV AC0, *AR3(short(#4)) ; |1049| 
    2353                      .dwpsn  file "../c5535_bsl_revc/ezdsp5535_v1/c55xx_csl/src/csl_dma.c",line 1051,column 14,is_stmt
TMS320C55x Assembler PC v4.4.1 Thu Sep 20 01:43:28 2018

Tools Copyright (c) 1996-2012 Texas Instruments Incorporated
csl_dma.asm                                                          PAGE   63

    2354 001062 0600          B $C$L87  ; |1051| 
         001064 CD   
    2355                                                      ; branch occurs ; |1051| 
    2356 001065       $C$L76:    
    2357                      .dwpsn  file "../c5535_bsl_revc/ezdsp5535_v1/c55xx_csl/src/csl_dma.c",line 1054,column 9,is_stmt
    2358 001065 ED04          MOV dbl(*SP(#2)), XAR3
         001067 BF   
    2359 001068 A951          MOV *port(#7197), AR1 ; |1054| 
         00106a 1C1D 
    2360 00106c 180F          AND #0x000f, AR1, AC0 ; |1054| 
         00106e 09   
    2361 00106f C079          MOV AC0, *AR3(short(#4)) ; |1054| 
    2362                      .dwpsn  file "../c5535_bsl_revc/ezdsp5535_v1/c55xx_csl/src/csl_dma.c",line 1056,column 14,is_stmt
    2363 001071 0600          B $C$L87  ; |1056| 
         001073 BE   
    2364                                                      ; branch occurs ; |1056| 
    2365 001074       $C$L77:    
    2366                      .dwpsn  file "../c5535_bsl_revc/ezdsp5535_v1/c55xx_csl/src/csl_dma.c",line 1059,column 9,is_stmt
    2367 001074 ED04          MOV dbl(*SP(#2)), XAR3
         001076 BF   
    2368 001077 A951          MOV *port(#7197), AR1 ; |1059| 
         001079 1C1D 
    2369 00107b 7D0F          AND #0x0f00, AR1, AC0 ; |1059| 
         00107d 0009 
    2370 00107f 1005          SFTS AC0, #-8, AC0 ; |1059| 
         001081 38   
    2371 001082 C079          MOV AC0, *AR3(short(#4)) ; |1059| 
    2372                      .dwpsn  file "../c5535_bsl_revc/ezdsp5535_v1/c55xx_csl/src/csl_dma.c",line 1061,column 14,is_stmt
    2373 001084 0600          B $C$L87  ; |1061| 
         001086 AB   
    2374                                                      ; branch occurs ; |1061| 
    2375 001087       $C$L78:    
    2376                      .dwpsn  file "../c5535_bsl_revc/ezdsp5535_v1/c55xx_csl/src/csl_dma.c",line 1064,column 9,is_stmt
    2377 001087 ED04          MOV dbl(*SP(#2)), XAR3
         001089 BF   
    2378 00108a A951          MOV *port(#7222), AR1 ; |1064| 
         00108c 1C36 
    2379 00108e 180F          AND #0x000f, AR1, AC0 ; |1064| 
         001090 09   
    2380 001091 C079          MOV AC0, *AR3(short(#4)) ; |1064| 
    2381                      .dwpsn  file "../c5535_bsl_revc/ezdsp5535_v1/c55xx_csl/src/csl_dma.c",line 1066,column 14,is_stmt
    2382 001093 0600          B $C$L87  ; |1066| 
         001095 9C   
    2383                                                      ; branch occurs ; |1066| 
    2384 001096       $C$L79:    
    2385                      .dwpsn  file "../c5535_bsl_revc/ezdsp5535_v1/c55xx_csl/src/csl_dma.c",line 1069,column 9,is_stmt
    2386 001096 ED04          MOV dbl(*SP(#2)), XAR3
         001098 BF   
    2387 001099 A951          MOV *port(#7222), AR1 ; |1069| 
         00109b 1C36 
    2388 00109d 7D0F          AND #0x0f00, AR1, AC0 ; |1069| 
         00109f 0009 
    2389 0010a1 1005          SFTS AC0, #-8, AC0 ; |1069| 
         0010a3 38   
    2390 0010a4 C079          MOV AC0, *AR3(short(#4)) ; |1069| 
TMS320C55x Assembler PC v4.4.1 Thu Sep 20 01:43:28 2018

Tools Copyright (c) 1996-2012 Texas Instruments Incorporated
csl_dma.asm                                                          PAGE   64

    2391                      .dwpsn  file "../c5535_bsl_revc/ezdsp5535_v1/c55xx_csl/src/csl_dma.c",line 1071,column 14,is_stmt
    2392 0010a6 0600          B $C$L87  ; |1071| 
         0010a8 89   
    2393                                                      ; branch occurs ; |1071| 
    2394 0010a9       $C$L80:    
    2395                      .dwpsn  file "../c5535_bsl_revc/ezdsp5535_v1/c55xx_csl/src/csl_dma.c",line 1074,column 9,is_stmt
    2396 0010a9 ED04          MOV dbl(*SP(#2)), XAR3
         0010ab BF   
    2397 0010ac A951          MOV *port(#7223), AR1 ; |1074| 
         0010ae 1C37 
    2398 0010b0 180F          AND #0x000f, AR1, AC0 ; |1074| 
         0010b2 09   
    2399 0010b3 C079          MOV AC0, *AR3(short(#4)) ; |1074| 
    2400                      .dwpsn  file "../c5535_bsl_revc/ezdsp5535_v1/c55xx_csl/src/csl_dma.c",line 1076,column 14,is_stmt
    2401 0010b5 0600          B $C$L87  ; |1076| 
         0010b7 7A   
    2402                                                      ; branch occurs ; |1076| 
    2403 0010b8       $C$L81:    
    2404                      .dwpsn  file "../c5535_bsl_revc/ezdsp5535_v1/c55xx_csl/src/csl_dma.c",line 1079,column 9,is_stmt
    2405 0010b8 ED04          MOV dbl(*SP(#2)), XAR3
         0010ba BF   
    2406 0010bb A951          MOV *port(#7223), AR1 ; |1079| 
         0010bd 1C37 
    2407 0010bf 7D0F          AND #0x0f00, AR1, AC0 ; |1079| 
         0010c1 0009 
    2408 0010c3 1005          SFTS AC0, #-8, AC0 ; |1079| 
         0010c5 38   
    2409 0010c6 C079          MOV AC0, *AR3(short(#4)) ; |1079| 
    2410                      .dwpsn  file "../c5535_bsl_revc/ezdsp5535_v1/c55xx_csl/src/csl_dma.c",line 1081,column 14,is_stmt
    2411 0010c8 0600          B $C$L87  ; |1081| 
         0010ca 67   
    2412                                                      ; branch occurs ; |1081| 
    2413 0010cb       $C$L82:    
    2414                      .dwpsn  file "../c5535_bsl_revc/ezdsp5535_v1/c55xx_csl/src/csl_dma.c",line 1084,column 9,is_stmt
    2415 0010cb ED04          MOV dbl(*SP(#2)), XAR3
         0010cd BF   
    2416 0010ce A951          MOV *port(#7224), AR1 ; |1084| 
         0010d0 1C38 
    2417 0010d2 180F          AND #0x000f, AR1, AC0 ; |1084| 
         0010d4 09   
    2418 0010d5 C079          MOV AC0, *AR3(short(#4)) ; |1084| 
    2419                      .dwpsn  file "../c5535_bsl_revc/ezdsp5535_v1/c55xx_csl/src/csl_dma.c",line 1086,column 14,is_stmt
    2420 0010d7 0600          B $C$L87  ; |1086| 
         0010d9 58   
    2421                                                      ; branch occurs ; |1086| 
    2422 0010da       $C$L83:    
    2423                      .dwpsn  file "../c5535_bsl_revc/ezdsp5535_v1/c55xx_csl/src/csl_dma.c",line 1089,column 9,is_stmt
    2424 0010da ED04          MOV dbl(*SP(#2)), XAR3
         0010dc BF   
    2425 0010dd A951          MOV *port(#7224), AR1 ; |1089| 
         0010df 1C38 
    2426 0010e1 7D0F          AND #0x0f00, AR1, AC0 ; |1089| 
         0010e3 0009 
    2427 0010e5 1005          SFTS AC0, #-8, AC0 ; |1089| 
         0010e7 38   
TMS320C55x Assembler PC v4.4.1 Thu Sep 20 01:43:28 2018

Tools Copyright (c) 1996-2012 Texas Instruments Incorporated
csl_dma.asm                                                          PAGE   65

    2428 0010e8 C079          MOV AC0, *AR3(short(#4)) ; |1089| 
    2429                      .dwpsn  file "../c5535_bsl_revc/ezdsp5535_v1/c55xx_csl/src/csl_dma.c",line 1091,column 14,is_stmt
    2430 0010ea 0600          B $C$L87  ; |1091| 
         0010ec 45   
    2431                                                      ; branch occurs ; |1091| 
    2432 0010ed       $C$L84:    
    2433                      .dwpsn  file "../c5535_bsl_revc/ezdsp5535_v1/c55xx_csl/src/csl_dma.c",line 1094,column 9,is_stmt
    2434 0010ed ED04          MOV dbl(*SP(#2)), XAR3
         0010ef BF   
    2435 0010f0 A951          MOV *port(#7225), AR1 ; |1094| 
         0010f2 1C39 
    2436 0010f4 180F          AND #0x000f, AR1, AC0 ; |1094| 
         0010f6 09   
    2437 0010f7 C079          MOV AC0, *AR3(short(#4)) ; |1094| 
    2438                      .dwpsn  file "../c5535_bsl_revc/ezdsp5535_v1/c55xx_csl/src/csl_dma.c",line 1096,column 14,is_stmt
    2439 0010f9 4A37          B $C$L87  ; |1096| 
    2440                                                      ; branch occurs ; |1096| 
    2441 0010fb       $C$L85:    
    2442                      .dwpsn  file "../c5535_bsl_revc/ezdsp5535_v1/c55xx_csl/src/csl_dma.c",line 1099,column 9,is_stmt
    2443 0010fb ED04          MOV dbl(*SP(#2)), XAR3
         0010fd BF   
    2444 0010fe A951          MOV *port(#7225), AR1 ; |1099| 
         001100 1C39 
    2445 001102 7D0F          AND #0x0f00, AR1, AC0 ; |1099| 
         001104 0009 
    2446 001106 1005          SFTS AC0, #-8, AC0 ; |1099| 
         001108 38   
    2447 001109 C079          MOV AC0, *AR3(short(#4)) ; |1099| 
    2448                      .dwpsn  file "../c5535_bsl_revc/ezdsp5535_v1/c55xx_csl/src/csl_dma.c",line 1101,column 14,is_stmt
    2449 00110b 4A25          B $C$L87  ; |1101| 
    2450                                                      ; branch occurs ; |1101| 
    2451 00110d       $C$L86:    
    2452                      .dwpsn  file "../c5535_bsl_revc/ezdsp5535_v1/c55xx_csl/src/csl_dma.c",line 1022,column 5,is_stmt
    2453 00110d ED00          MOV dbl(*SP(#0)), XAR3
         00110f BF   
    2454 001110 A073          MOV *AR3(short(#1)), AC0 ; |1022| 
    2455              
    2456 001112 2209          MOV AC0, AR1 ; |1022| 
    2457 001114 3DFA  ||      MOV #15, AR2
    2458              
    2459 001116 12A8          CMPU AR1 <= AR2, TC1 ; |1022| 
         001118 94   
    2460 001119 0474          BCC $C$L87,!TC1 ; |1022| 
         00111b 16   
    2461                                                      ; branchcc occurs ; |1022| 
    2462 00111c 4450          SFTS AC0, #1, AC0 ; |1022| 
    2463 00111e A110          MOV mmap(AC0L), AC1 ; |1022| 
         001120 98   
    2464 001121 7A00          MOV #($C$SW3 >> 16) << #16, AC0 ; |1022| 
         001123 000A%
    2465 001125 7E00          OR #($C$SW3 & 0xffff), AC0, AC0 ; |1022| 
         001127 0000%
    2466 001129 2410          ADD AC1, AC0 ; |1022| 
    2467 00112b 900B          MOV AC0, XAR3
    2468 00112d ED61          MOV dbl(*AR3), AC0 ; |1022| 
TMS320C55x Assembler PC v4.4.1 Thu Sep 20 01:43:28 2018

Tools Copyright (c) 1996-2012 Texas Instruments Incorporated
csl_dma.asm                                                          PAGE   66

         00112f 08   
    2469 001130 9100          B AC0     ; |1022| 
    2470                                                      ; branch occurs ; |1022| 
    2471 000000               .sect   ".switch:_DMA_getConfig"
    2472                      .clink
    2473 000000 0000' $C$SW3: .long   $C$L70  ; 0
         000001 0FFF 
    2474 000002 0000'         .long   $C$L71  ; 1
         000003 100E 
    2475 000004 0000'         .long   $C$L72  ; 2
         000005 1021 
    2476 000006 0000'         .long   $C$L73  ; 3
         000007 1030 
    2477 000008 0000'         .long   $C$L74  ; 4
         000009 1043 
    2478 00000a 0000'         .long   $C$L75  ; 5
         00000b 1052 
    2479 00000c 0000'         .long   $C$L76  ; 6
         00000d 1065 
    2480 00000e 0000'         .long   $C$L77  ; 7
         00000f 1074 
    2481 000010 0000'         .long   $C$L78  ; 8
         000011 1087 
    2482 000012 0000'         .long   $C$L79  ; 9
         000013 1096 
    2483 000014 0000'         .long   $C$L80  ; 10
         000015 10A9 
    2484 000016 0000'         .long   $C$L81  ; 11
         000017 10B8 
    2485 000018 0000'         .long   $C$L82  ; 12
         000019 10CB 
    2486 00001a 0000'         .long   $C$L83  ; 13
         00001b 10DA 
    2487 00001c 0000'         .long   $C$L84  ; 14
         00001d 10ED 
    2488 00001e 0000'         .long   $C$L85  ; 15
         00001f 10FB 
    2489 001132               .sect   ".text"
    2490 001132       $C$L87:    
    2491                      .dwpsn  file "../c5535_bsl_revc/ezdsp5535_v1/c55xx_csl/src/csl_dma.c",line 1105,column 5,is_stmt
    2492 001132 DF0C          MOV uns(*SP(#6)), AC0 ; |1105| 
         001134 05   
    2493 001135 EB14          MOV AC0, dbl(*SP(#10)) ; |1105| 
         001137 08   
    2494                      .dwpsn  file "../c5535_bsl_revc/ezdsp5535_v1/c55xx_csl/src/csl_dma.c",line 1106,column 5,is_stmt
    2495 001138 ED14          MOV dbl(*SP(#10)), AC0 ; |1106| 
         00113a 08   
    2496 00113b 1007          SFTL AC0, #16, AC0 ; |1106| 
         00113d 10   
    2497 00113e EB14          MOV AC0, dbl(*SP(#10)) ; |1106| 
         001140 08   
    2498                      .dwpsn  file "../c5535_bsl_revc/ezdsp5535_v1/c55xx_csl/src/csl_dma.c",line 1107,column 5,is_stmt
    2499 001141 ED14          MOV dbl(*SP(#10)), AC0 ; |1107| 
         001143 08   
    2500 001144 DA0A          OR *SP(#5), AC0, AC0 ; |1107| 
TMS320C55x Assembler PC v4.4.1 Thu Sep 20 01:43:28 2018

Tools Copyright (c) 1996-2012 Texas Instruments Incorporated
csl_dma.asm                                                          PAGE   67

         001146 00   
    2501 001147 EB14          MOV AC0, dbl(*SP(#10)) ; |1107| 
         001149 08   
    2502                      .dwpsn  file "../c5535_bsl_revc/ezdsp5535_v1/c55xx_csl/src/csl_dma.c",line 1109,column 5,is_stmt
    2503 00114a DF10          MOV uns(*SP(#8)), AC0 ; |1109| 
         00114c 05   
    2504 00114d EB18          MOV AC0, dbl(*SP(#12)) ; |1109| 
         00114f 08   
    2505                      .dwpsn  file "../c5535_bsl_revc/ezdsp5535_v1/c55xx_csl/src/csl_dma.c",line 1110,column 5,is_stmt
    2506 001150 ED18          MOV dbl(*SP(#12)), AC0 ; |1110| 
         001152 08   
    2507 001153 1007          SFTL AC0, #16, AC0 ; |1110| 
         001155 10   
    2508 001156 EB18          MOV AC0, dbl(*SP(#12)) ; |1110| 
         001158 08   
    2509                      .dwpsn  file "../c5535_bsl_revc/ezdsp5535_v1/c55xx_csl/src/csl_dma.c",line 1111,column 5,is_stmt
    2510 001159 ED18          MOV dbl(*SP(#12)), AC0 ; |1111| 
         00115b 08   
    2511 00115c DA0E          OR *SP(#7), AC0, AC0 ; |1111| 
         00115e 00   
    2512 00115f EB18          MOV AC0, dbl(*SP(#12)) ; |1111| 
         001161 08   
    2513                      .dwpsn  file "../c5535_bsl_revc/ezdsp5535_v1/c55xx_csl/src/csl_dma.c",line 1113,column 5,is_stmt
    2514 001162 ED00          MOV dbl(*SP(#0)), XAR3
         001164 BF   
    2515              
    2516 001165 A97D          MOV *AR3(short(#6)), AR1 ; |1113| 
    2517 001167 3D1A  ||      MOV #1, AR2
    2518              
    2519 001169 12AC          CMP AR2 != AR1, TC1 ; |1113| 
         00116b 90   
    2520 00116c 0464          BCC $C$L93,TC1 ; |1113| 
         00116e 79   
    2521                                                      ; branchcc occurs ; |1113| 
    2522                      .dwpsn  file "../c5535_bsl_revc/ezdsp5535_v1/c55xx_csl/src/csl_dma.c",line 1115,column 9,is_stmt
    2523 00116f EC31          AMOV #524288, XAR3 ; |1115| 
         001171 BE08 
         001173 0000 
    2524 001175 ED14          MOV dbl(*SP(#10)), AC1 ; |1115| 
         001177 18   
    2525 001178 90B0          MOV XAR3, AC0
    2526 00117a 1214          CMPU AC1 < AC0, TC1 ; |1115| 
         00117c 04   
    2527 00117d 6564          BCC $C$L88,TC1 ; |1115| 
    2528                                                      ; branchcc occurs ; |1115| 
    2529                      .dwpsn  file "../c5535_bsl_revc/ezdsp5535_v1/c55xx_csl/src/csl_dma.c",line 1117,column 13,is_stmt
    2530 00117f ED14          SUB AC0, dbl(*SP(#10)), AC0 ; |1117| 
         001181 04   
    2531 001182 5001          SFTL AC0, #-1 ; |1117| 
    2532 001184 EB14          MOV AC0, dbl(*SP(#10)) ; |1117| 
         001186 08   
    2533                      .dwpsn  file "../c5535_bsl_revc/ezdsp5535_v1/c55xx_csl/src/csl_dma.c",line 1119,column 9,is_stmt
    2534 001187 4A20          B $C$L90  ; |1119| 
    2535                                                      ; branch occurs ; |1119| 
    2536 001189       $C$L88:    
TMS320C55x Assembler PC v4.4.1 Thu Sep 20 01:43:28 2018

Tools Copyright (c) 1996-2012 Texas Instruments Incorporated
csl_dma.asm                                                          PAGE   68

    2537                      .dwpsn  file "../c5535_bsl_revc/ezdsp5535_v1/c55xx_csl/src/csl_dma.c",line 1120,column 14,is_stmt
    2538 001189 EC31          AMOV #65536, XAR3 ; |1120| 
         00118b BE01 
         00118d 0000 
    2539 00118f ED14          MOV dbl(*SP(#10)), AC1 ; |1120| 
         001191 18   
    2540 001192 90B0          MOV XAR3, AC0
    2541 001194 1214          CMPU AC1 < AC0, TC1 ; |1120| 
         001196 04   
    2542 001197 6564          BCC $C$L89,TC1 ; |1120| 
    2543                                                      ; branchcc occurs ; |1120| 
    2544                      .dwpsn  file "../c5535_bsl_revc/ezdsp5535_v1/c55xx_csl/src/csl_dma.c",line 1122,column 13,is_stmt
    2545 001199 ED14          SUB AC0, dbl(*SP(#10)), AC0 ; |1122| 
         00119b 04   
    2546 00119c 5001          SFTL AC0, #-1 ; |1122| 
    2547 00119e EB14          MOV AC0, dbl(*SP(#10)) ; |1122| 
         0011a0 08   
    2548                      .dwpsn  file "../c5535_bsl_revc/ezdsp5535_v1/c55xx_csl/src/csl_dma.c",line 1124,column 9,is_stmt
    2549 0011a1 4A06          B $C$L90  ; |1124| 
    2550                                                      ; branch occurs ; |1124| 
    2551 0011a3       $C$L89:    
    2552                      .dwpsn  file "../c5535_bsl_revc/ezdsp5535_v1/c55xx_csl/src/csl_dma.c",line 1127,column 13,is_stmt
    2553 0011a3 ED14          MOV dbl(*SP(#10)), AC0 ; |1127| 
         0011a5 08   
    2554 0011a6 EB14          MOV AC0, dbl(*SP(#10)) ; |1127| 
         0011a8 08   
    2555 0011a9       $C$L90:    
    2556                      .dwpsn  file "../c5535_bsl_revc/ezdsp5535_v1/c55xx_csl/src/csl_dma.c",line 1130,column 9,is_stmt
    2557 0011a9 EC31          AMOV #524288, XAR3 ; |1130| 
         0011ab BE08 
         0011ad 0000 
    2558 0011af ED18          MOV dbl(*SP(#12)), AC1 ; |1130| 
         0011b1 18   
    2559 0011b2 90B0          MOV XAR3, AC0
    2560 0011b4 1214          CMPU AC1 < AC0, TC1 ; |1130| 
         0011b6 04   
    2561 0011b7 65E4          BCC $C$L91,TC1 ; |1130| 
    2562                                                      ; branchcc occurs ; |1130| 
    2563                      .dwpsn  file "../c5535_bsl_revc/ezdsp5535_v1/c55xx_csl/src/csl_dma.c",line 1132,column 13,is_stmt
    2564 0011b9 ED18          SUB AC0, dbl(*SP(#12)), AC0 ; |1132| 
         0011bb 04   
    2565 0011bc 5001          SFTL AC0, #-1 ; |1132| 
    2566 0011be EB18          MOV AC0, dbl(*SP(#12)) ; |1132| 
         0011c0 08   
    2567                      .dwpsn  file "../c5535_bsl_revc/ezdsp5535_v1/c55xx_csl/src/csl_dma.c",line 1134,column 9,is_stmt
    2568 0011c1 0600          B $C$L99  ; |1134| 
         0011c3 A7   
    2569                                                      ; branch occurs ; |1134| 
    2570 0011c4       $C$L91:    
    2571                      .dwpsn  file "../c5535_bsl_revc/ezdsp5535_v1/c55xx_csl/src/csl_dma.c",line 1135,column 14,is_stmt
    2572 0011c4 EC31          AMOV #65536, XAR3 ; |1135| 
         0011c6 BE01 
         0011c8 0000 
    2573 0011ca ED18          MOV dbl(*SP(#12)), AC1 ; |1135| 
         0011cc 18   
TMS320C55x Assembler PC v4.4.1 Thu Sep 20 01:43:28 2018

Tools Copyright (c) 1996-2012 Texas Instruments Incorporated
csl_dma.asm                                                          PAGE   69

    2574 0011cd 90B0          MOV XAR3, AC0
    2575 0011cf 1214          CMPU AC1 < AC0, TC1 ; |1135| 
         0011d1 04   
    2576 0011d2 65E4          BCC $C$L92,TC1 ; |1135| 
    2577                                                      ; branchcc occurs ; |1135| 
    2578                      .dwpsn  file "../c5535_bsl_revc/ezdsp5535_v1/c55xx_csl/src/csl_dma.c",line 1137,column 13,is_stmt
    2579 0011d4 ED18          SUB AC0, dbl(*SP(#12)), AC0 ; |1137| 
         0011d6 04   
    2580 0011d7 5001          SFTL AC0, #-1 ; |1137| 
    2581 0011d9 EB18          MOV AC0, dbl(*SP(#12)) ; |1137| 
         0011db 08   
    2582                      .dwpsn  file "../c5535_bsl_revc/ezdsp5535_v1/c55xx_csl/src/csl_dma.c",line 1139,column 9,is_stmt
    2583 0011dc 0600          B $C$L99  ; |1139| 
         0011de 8C   
    2584                                                      ; branch occurs ; |1139| 
    2585 0011df       $C$L92:    
    2586                      .dwpsn  file "../c5535_bsl_revc/ezdsp5535_v1/c55xx_csl/src/csl_dma.c",line 1142,column 13,is_stmt
    2587 0011df ED18          MOV dbl(*SP(#12)), AC0 ; |1142| 
         0011e1 08   
    2588 0011e2 EB18          MOV AC0, dbl(*SP(#12)) ; |1142| 
         0011e4 08   
    2589                      .dwpsn  file "../c5535_bsl_revc/ezdsp5535_v1/c55xx_csl/src/csl_dma.c",line 1144,column 5,is_stmt
    2590 0011e5 0600          B $C$L99  ; |1144| 
         0011e7 83   
    2591                                                      ; branch occurs ; |1144| 
    2592 0011e8       $C$L93:    
    2593                      .dwpsn  file "../c5535_bsl_revc/ezdsp5535_v1/c55xx_csl/src/csl_dma.c",line 1149,column 9,is_stmt
    2594 0011e8 A979          MOV *AR3(short(#4)), AR1 ; |1149| 
    2595 0011ea 0419          BCC $C$L96,AR1 != #0 ; |1149| 
         0011ec 3A   
    2596                                                      ; branchcc occurs ; |1149| 
    2597                      .dwpsn  file "../c5535_bsl_revc/ezdsp5535_v1/c55xx_csl/src/csl_dma.c",line 1151,column 13,is_stmt
    2598 0011ed EC31          AMOV #524288, XAR3 ; |1151| 
         0011ef BE08 
         0011f1 0000 
    2599 0011f3 ED18          MOV dbl(*SP(#12)), AC1 ; |1151| 
         0011f5 18   
    2600 0011f6 90B0          MOV XAR3, AC0
    2601 0011f8 1214          CMPU AC1 < AC0, TC1 ; |1151| 
         0011fa 04   
    2602 0011fb 6564          BCC $C$L94,TC1 ; |1151| 
    2603                                                      ; branchcc occurs ; |1151| 
    2604                      .dwpsn  file "../c5535_bsl_revc/ezdsp5535_v1/c55xx_csl/src/csl_dma.c",line 1153,column 17,is_stmt
    2605 0011fd ED18          SUB AC0, dbl(*SP(#12)), AC0 ; |1153| 
         0011ff 04   
    2606 001200 5001          SFTL AC0, #-1 ; |1153| 
    2607 001202 EB18          MOV AC0, dbl(*SP(#12)) ; |1153| 
         001204 08   
    2608                      .dwpsn  file "../c5535_bsl_revc/ezdsp5535_v1/c55xx_csl/src/csl_dma.c",line 1155,column 13,is_stmt
    2609 001205 4A20          B $C$L96  ; |1155| 
    2610                                                      ; branch occurs ; |1155| 
    2611 001207       $C$L94:    
    2612                      .dwpsn  file "../c5535_bsl_revc/ezdsp5535_v1/c55xx_csl/src/csl_dma.c",line 1156,column 18,is_stmt
    2613 001207 EC31          AMOV #65536, XAR3 ; |1156| 
         001209 BE01 
TMS320C55x Assembler PC v4.4.1 Thu Sep 20 01:43:28 2018

Tools Copyright (c) 1996-2012 Texas Instruments Incorporated
csl_dma.asm                                                          PAGE   70

         00120b 0000 
    2614 00120d ED18          MOV dbl(*SP(#12)), AC1 ; |1156| 
         00120f 18   
    2615 001210 90B0          MOV XAR3, AC0
    2616 001212 1214          CMPU AC1 < AC0, TC1 ; |1156| 
         001214 04   
    2617 001215 6564          BCC $C$L95,TC1 ; |1156| 
    2618                                                      ; branchcc occurs ; |1156| 
    2619                      .dwpsn  file "../c5535_bsl_revc/ezdsp5535_v1/c55xx_csl/src/csl_dma.c",line 1158,column 17,is_stmt
    2620 001217 ED18          SUB AC0, dbl(*SP(#12)), AC0 ; |1158| 
         001219 04   
    2621 00121a 5001          SFTL AC0, #-1 ; |1158| 
    2622 00121c EB18          MOV AC0, dbl(*SP(#12)) ; |1158| 
         00121e 08   
    2623                      .dwpsn  file "../c5535_bsl_revc/ezdsp5535_v1/c55xx_csl/src/csl_dma.c",line 1160,column 13,is_stmt
    2624 00121f 4A06          B $C$L96  ; |1160| 
    2625                                                      ; branch occurs ; |1160| 
    2626 001221       $C$L95:    
    2627                      .dwpsn  file "../c5535_bsl_revc/ezdsp5535_v1/c55xx_csl/src/csl_dma.c",line 1163,column 17,is_stmt
    2628 001221 ED18          MOV dbl(*SP(#12)), AC0 ; |1163| 
         001223 08   
    2629 001224 EB18          MOV AC0, dbl(*SP(#12)) ; |1163| 
         001226 08   
    2630 001227       $C$L96:    
    2631                      .dwpsn  file "../c5535_bsl_revc/ezdsp5535_v1/c55xx_csl/src/csl_dma.c",line 1167,column 9,is_stmt
    2632 001227 ED00          MOV dbl(*SP(#0)), XAR3
         001229 BF   
    2633 00122a F079          CMP *AR3(short(#4)) == #1, TC1 ; |1167| 
         00122c 0001 
    2634 00122e 0474          BCC $C$L99,!TC1 ; |1167| 
         001230 3A   
    2635                                                      ; branchcc occurs ; |1167| 
    2636                      .dwpsn  file "../c5535_bsl_revc/ezdsp5535_v1/c55xx_csl/src/csl_dma.c",line 1169,column 13,is_stmt
    2637 001231 EC31          AMOV #524288, XAR3 ; |1169| 
         001233 BE08 
         001235 0000 
    2638 001237 ED14          MOV dbl(*SP(#10)), AC1 ; |1169| 
         001239 18   
    2639 00123a 90B0          MOV XAR3, AC0
    2640 00123c 1214          CMPU AC1 < AC0, TC1 ; |1169| 
         00123e 04   
    2641 00123f 6564          BCC $C$L97,TC1 ; |1169| 
    2642                                                      ; branchcc occurs ; |1169| 
    2643                      .dwpsn  file "../c5535_bsl_revc/ezdsp5535_v1/c55xx_csl/src/csl_dma.c",line 1171,column 17,is_stmt
    2644 001241 ED14          SUB AC0, dbl(*SP(#10)), AC0 ; |1171| 
         001243 04   
    2645 001244 5001          SFTL AC0, #-1 ; |1171| 
    2646 001246 EB14          MOV AC0, dbl(*SP(#10)) ; |1171| 
         001248 08   
    2647                      .dwpsn  file "../c5535_bsl_revc/ezdsp5535_v1/c55xx_csl/src/csl_dma.c",line 1173,column 13,is_stmt
    2648 001249 4A20          B $C$L99  ; |1173| 
    2649                                                      ; branch occurs ; |1173| 
    2650 00124b       $C$L97:    
    2651                      .dwpsn  file "../c5535_bsl_revc/ezdsp5535_v1/c55xx_csl/src/csl_dma.c",line 1174,column 18,is_stmt
    2652 00124b EC31          AMOV #65536, XAR3 ; |1174| 
TMS320C55x Assembler PC v4.4.1 Thu Sep 20 01:43:28 2018

Tools Copyright (c) 1996-2012 Texas Instruments Incorporated
csl_dma.asm                                                          PAGE   71

         00124d BE01 
         00124f 0000 
    2653 001251 ED14          MOV dbl(*SP(#10)), AC1 ; |1174| 
         001253 18   
    2654 001254 90B0          MOV XAR3, AC0
    2655 001256 1214          CMPU AC1 < AC0, TC1 ; |1174| 
         001258 04   
    2656 001259 6564          BCC $C$L98,TC1 ; |1174| 
    2657                                                      ; branchcc occurs ; |1174| 
    2658                      .dwpsn  file "../c5535_bsl_revc/ezdsp5535_v1/c55xx_csl/src/csl_dma.c",line 1176,column 17,is_stmt
    2659 00125b ED14          SUB AC0, dbl(*SP(#10)), AC0 ; |1176| 
         00125d 04   
    2660 00125e 5001          SFTL AC0, #-1 ; |1176| 
    2661 001260 EB14          MOV AC0, dbl(*SP(#10)) ; |1176| 
         001262 08   
    2662                      .dwpsn  file "../c5535_bsl_revc/ezdsp5535_v1/c55xx_csl/src/csl_dma.c",line 1178,column 13,is_stmt
    2663 001263 4A06          B $C$L99  ; |1178| 
    2664                                                      ; branch occurs ; |1178| 
    2665 001265       $C$L98:    
    2666                      .dwpsn  file "../c5535_bsl_revc/ezdsp5535_v1/c55xx_csl/src/csl_dma.c",line 1181,column 17,is_stmt
    2667 001265 ED14          MOV dbl(*SP(#10)), AC0 ; |1181| 
         001267 08   
    2668 001268 EB14          MOV AC0, dbl(*SP(#10)) ; |1181| 
         00126a 08   
    2669 00126b       $C$L99:    
    2670                      .dwpsn  file "../c5535_bsl_revc/ezdsp5535_v1/c55xx_csl/src/csl_dma.c",line 1185,column 5,is_stmt
    2671 00126b ED04          MOV dbl(*SP(#2)), XAR3
         00126d BF   
    2672 00126e ED14          MOV dbl(*SP(#10)), AC0 ; |1185| 
         001270 08   
    2673 001271 EB6D          MOV AC0, dbl(*AR3(#10)) ; |1185| 
         001273 0800 
         001275 0A   
    2674                      .dwpsn  file "../c5535_bsl_revc/ezdsp5535_v1/c55xx_csl/src/csl_dma.c",line 1186,column 5,is_stmt
    2675 001276 ED04          MOV dbl(*SP(#2)), XAR3
         001278 BF   
    2676 001279 ED18          MOV dbl(*SP(#12)), AC0 ; |1186| 
         00127b 08   
    2677 00127c EB6D          MOV AC0, dbl(*AR3(#12)) ; |1186| 
         00127e 0800 
         001280 0C   
    2678                      .dwpsn  file "../c5535_bsl_revc/ezdsp5535_v1/c55xx_csl/src/csl_dma.c",line 1188,column 5,is_stmt
    2679 001281 3C04          MOV #0, T0
    2680 001283       $C$L100:    
    2681                      .dwpsn  file "../c5535_bsl_revc/ezdsp5535_v1/c55xx_csl/src/csl_dma.c",line 1189,column 1,is_stmt
    2682 001283 4E0F          AADD #15, SP
    2683                      .dwcfi  cfa_offset, 1
    2684              $C$DW$45        .dwtag  DW_TAG_TI_branch
    2685                      .dwattr $C$DW$45, DW_AT_low_pc(0x00)
    2686                      .dwattr $C$DW$45, DW_AT_TI_return
    2687 001285 4804          RET
    2688                                                      ; return occurs
    2689              
    2690              $C$DW$46        .dwtag  DW_TAG_TI_loop
    2691                      .dwattr $C$DW$46, DW_AT_name("F:\eZdsp_DBG\eZDSP_5535_Files\ccsws2\test\Debug\csl_dma.asm:$C$L61:1:15
TMS320C55x Assembler PC v4.4.1 Thu Sep 20 01:43:28 2018

Tools Copyright (c) 1996-2012 Texas Instruments Incorporated
csl_dma.asm                                                          PAGE   72

    2692                      .dwattr $C$DW$46, DW_AT_TI_begin_file("../c5535_bsl_revc/ezdsp5535_v1/c55xx_csl/src/csl_dma.c")
    2693                      .dwattr $C$DW$46, DW_AT_TI_begin_line(0x38b)
    2694                      .dwattr $C$DW$46, DW_AT_TI_end_line(0x38e)
    2695              $C$DW$47        .dwtag  DW_TAG_TI_loop_range
    2696                      .dwattr $C$DW$47, DW_AT_low_pc($C$DW$L$_DMA_getConfig$4$B)
    2697                      .dwattr $C$DW$47, DW_AT_high_pc($C$DW$L$_DMA_getConfig$4$E)
    2698                      .dwendtag $C$DW$46
    2699              
    2700                      .dwattr $C$DW$33, DW_AT_TI_end_file("../c5535_bsl_revc/ezdsp5535_v1/c55xx_csl/src/csl_dma.c")
    2701                      .dwattr $C$DW$33, DW_AT_TI_end_line(0x4a5)
    2702                      .dwattr $C$DW$33, DW_AT_TI_end_column(0x01)
    2703                      .dwendentry
    2704                      .dwendtag $C$DW$33
    2705              
    2706 001287               .sect   ".text"
    2707                      .align 4
    2708                      .global _DMA_start
    2709              
    2710              $C$DW$48        .dwtag  DW_TAG_subprogram, DW_AT_name("DMA_start")
    2711                      .dwattr $C$DW$48, DW_AT_low_pc(_DMA_start)
    2712                      .dwattr $C$DW$48, DW_AT_high_pc(0x00)
    2713                      .dwattr $C$DW$48, DW_AT_TI_symbol_name("_DMA_start")
    2714                      .dwattr $C$DW$48, DW_AT_external
    2715                      .dwattr $C$DW$48, DW_AT_type(*$C$DW$T$59)
    2716                      .dwattr $C$DW$48, DW_AT_TI_begin_file("../c5535_bsl_revc/ezdsp5535_v1/c55xx_csl/src/csl_dma.c")
    2717                      .dwattr $C$DW$48, DW_AT_TI_begin_line(0x4e8)
    2718                      .dwattr $C$DW$48, DW_AT_TI_begin_column(0x0c)
    2719                      .dwattr $C$DW$48, DW_AT_TI_max_frame_size(0x04)
    2720                      .dwpsn  file "../c5535_bsl_revc/ezdsp5535_v1/c55xx_csl/src/csl_dma.c",line 1262,column 1,is_stmt,addr
    2721              
    2722                      .dwfde $C$DW$CIE, _DMA_start
    2723              $C$DW$49        .dwtag  DW_TAG_formal_parameter, DW_AT_name("hDMA")
    2724                      .dwattr $C$DW$49, DW_AT_TI_symbol_name("_hDMA")
    2725                      .dwattr $C$DW$49, DW_AT_type(*$C$DW$T$57)
    2726                      .dwattr $C$DW$49, DW_AT_location[DW_OP_reg17]
    2727              ;*******************************************************************************
    2728              ;* FUNCTION NAME: DMA_start                                                    *
    2729              ;*                                                                             *
    2730              ;*   Function Uses Regs : AC0,AC0,T0,AR0,XAR0,AR1,AR2,AR3,XAR3,SP,CARRY,TC1,   *
    2731              ;*                        M40,SATA,SATD,RDM,FRCT,SMUL                          *
    2732              ;*   Stack Frame        : Compact (No Frame Pointer, w/ debug)                 *
    2733              ;*   Total Frame Size   : 4 words                                              *
    2734              ;*                        (1 return address/alignment)                         *
    2735              ;*                        (3 local values)                                     *
    2736              ;*   Min System Stack   : 1 word                                               *
    2737              ;*******************************************************************************
    2738 001288       _DMA_start:
    2739                      .dwcfi  cfa_offset, 1
    2740                      .dwcfi  save_reg_to_mem, 91, -1
    2741 001288 4EFD          AADD #-3, SP
    2742                      .dwcfi  cfa_offset, 4
    2743              $C$DW$50        .dwtag  DW_TAG_variable, DW_AT_name("hDMA")
    2744                      .dwattr $C$DW$50, DW_AT_TI_symbol_name("_hDMA")
    2745                      .dwattr $C$DW$50, DW_AT_type(*$C$DW$T$57)
    2746                      .dwattr $C$DW$50, DW_AT_location[DW_OP_bregx 0x24 0]
TMS320C55x Assembler PC v4.4.1 Thu Sep 20 01:43:28 2018

Tools Copyright (c) 1996-2012 Texas Instruments Incorporated
csl_dma.asm                                                          PAGE   73

    2747              $C$DW$51        .dwtag  DW_TAG_variable, DW_AT_name("chanNum")
    2748                      .dwattr $C$DW$51, DW_AT_TI_symbol_name("_chanNum")
    2749                      .dwattr $C$DW$51, DW_AT_type(*$C$DW$T$19)
    2750                      .dwattr $C$DW$51, DW_AT_location[DW_OP_bregx 0x24 2]
    2751 00128a EB00          MOV XAR0, dbl(*SP(#0))
         00128c 85   
    2752                      .dwpsn  file "../c5535_bsl_revc/ezdsp5535_v1/c55xx_csl/src/csl_dma.c",line 1265,column 5,is_stmt
    2753 00128d ED00          MOV dbl(*SP(#0)), XAR3
         00128f BF   
    2754 001290 90B0          MOV XAR3, AC0
    2755 001292 6290          BCC $C$L101,AC0 != #0 ; |1265| 
    2756                                                      ; branchcc occurs ; |1265| 
    2757                      .dwpsn  file "../c5535_bsl_revc/ezdsp5535_v1/c55xx_csl/src/csl_dma.c",line 1267,column 3,is_stmt
    2758 001294 3E54          MOV #-5, T0
    2759 001296 0600          B $C$L115 ; |1267| 
         001298 F8   
    2760                                                      ; branch occurs ; |1267| 
    2761 001299       $C$L101:    
    2762                      .dwpsn  file "../c5535_bsl_revc/ezdsp5535_v1/c55xx_csl/src/csl_dma.c",line 1271,column 9,is_stmt
    2763 001299 A973          MOV *AR3(short(#1)), AR1 ; |1271| 
    2764 00129b C904          MOV AR1, *SP(#2) ; |1271| 
    2765                      .dwpsn  file "../c5535_bsl_revc/ezdsp5535_v1/c55xx_csl/src/csl_dma.c",line 1273,column 15,is_stmt
    2766 00129d 3C4A          MOV #4, AR2
    2767 00129f 1294          CMPU AR1 < AR2, TC1 ; |1273| 
         0012a1 A4   
    2768 0012a2 6664          BCC $C$L103,TC1 ; |1273| 
    2769                                                      ; branchcc occurs ; |1273| 
    2770 0012a4       $C$L102:    
    2771 0012a4       $C$DW$L$_DMA_start$5$B:
    2772                      .dwpsn  file "../c5535_bsl_revc/ezdsp5535_v1/c55xx_csl/src/csl_dma.c",line 1275,column 13,is_stmt
    2773 0012a4 F704          SUB #4, *SP(#2) ; |1275| 
         0012a6 FFFC 
    2774                      .dwpsn  file "../c5535_bsl_revc/ezdsp5535_v1/c55xx_csl/src/csl_dma.c",line 1273,column 15,is_stmt
    2775 0012a8 A904          MOV *SP(#2), AR1 ; |1273| 
    2776 0012aa 1298          CMPU AR1 >= AR2, TC1 ; |1273| 
         0012ac A4   
    2777 0012ad 0464          BCC $C$L102,TC1 ; |1273| 
         0012af F4   
    2778                                                      ; branchcc occurs ; |1273| 
    2779 0012b0       $C$DW$L$_DMA_start$5$E:
    2780 0012b0       $C$L103:    
    2781                      .dwpsn  file "../c5535_bsl_revc/ezdsp5535_v1/c55xx_csl/src/csl_dma.c",line 1278,column 9,is_stmt
    2782 0012b0 ED00          MOV dbl(*SP(#0)), XAR3
         0012b2 BF   
    2783              
    2784 0012b3 A97B          MOV *AR3(short(#5)), AR1 ; |1278| 
    2785 0012b5 3D1A  ||      MOV #1, AR2
    2786              
    2787 0012b7 12AC          CMP AR2 != AR1, TC1 ; |1278| 
         0012b9 90   
    2788 0012ba 6D64          BCC $C$L113,TC1 ; |1278| 
         0012bc 00B6 
    2789                                                      ; branchcc occurs ; |1278| 
    2790                      .dwpsn  file "../c5535_bsl_revc/ezdsp5535_v1/c55xx_csl/src/csl_dma.c",line 1280,column 13,is_stmt
    2791 0012be 4A34          B $C$L108 ; |1280| 
TMS320C55x Assembler PC v4.4.1 Thu Sep 20 01:43:28 2018

Tools Copyright (c) 1996-2012 Texas Instruments Incorporated
csl_dma.asm                                                          PAGE   74

    2792                                                      ; branch occurs ; |1280| 
    2793 0012c0       $C$L104:    
    2794                      .dwpsn  file "../c5535_bsl_revc/ezdsp5535_v1/c55xx_csl/src/csl_dma.c",line 1283,column 15,is_stmt
    2795 0012c0 AB61          MOV *AR3, AR3 ; |1283| 
    2796 0012c2 F57B          OR #0x8004, port(*AR3(short(#5))) ; |1283| 
         0012c4 8004 
         0012c6 9A   
    2797                      .dwpsn  file "../c5535_bsl_revc/ezdsp5535_v1/c55xx_csl/src/csl_dma.c",line 1284,column 20,is_stmt
    2798 0012c7 0600          B $C$L114 ; |1284| 
         0012c9 C5   
    2799                                                      ; branch occurs ; |1284| 
    2800 0012ca       $C$L105:    
    2801                      .dwpsn  file "../c5535_bsl_revc/ezdsp5535_v1/c55xx_csl/src/csl_dma.c",line 1286,column 15,is_stmt
    2802 0012ca 7600          MOV #37, T0 ; |1286| 
         0012cc 2548 
    2803 0012ce AB61          MOV *AR3, AR3 ; |1286| 
    2804 0012d0 F56B          OR #0x8004, port(*AR3(T0)) ; |1286| 
         0012d2 8004 
         0012d4 9A   
    2805                      .dwpsn  file "../c5535_bsl_revc/ezdsp5535_v1/c55xx_csl/src/csl_dma.c",line 1287,column 20,is_stmt
    2806 0012d5 0600          B $C$L114 ; |1287| 
         0012d7 B7   
    2807                                                      ; branch occurs ; |1287| 
    2808 0012d8       $C$L106:    
    2809                      .dwpsn  file "../c5535_bsl_revc/ezdsp5535_v1/c55xx_csl/src/csl_dma.c",line 1289,column 15,is_stmt
    2810 0012d8 7600          MOV #69, T0 ; |1289| 
         0012da 4548 
    2811 0012dc AB61          MOV *AR3, AR3 ; |1289| 
    2812 0012de F56B          OR #0x8004, port(*AR3(T0)) ; |1289| 
         0012e0 8004 
         0012e2 9A   
    2813                      .dwpsn  file "../c5535_bsl_revc/ezdsp5535_v1/c55xx_csl/src/csl_dma.c",line 1290,column 20,is_stmt
    2814 0012e3 0600          B $C$L114 ; |1290| 
         0012e5 A9   
    2815                                                      ; branch occurs ; |1290| 
    2816 0012e6       $C$L107:    
    2817                      .dwpsn  file "../c5535_bsl_revc/ezdsp5535_v1/c55xx_csl/src/csl_dma.c",line 1292,column 15,is_stmt
    2818 0012e6 7600          MOV #101, T0 ; |1292| 
         0012e8 6548 
    2819 0012ea AB61          MOV *AR3, AR3 ; |1292| 
    2820 0012ec F56B          OR #0x8004, port(*AR3(T0)) ; |1292| 
         0012ee 8004 
         0012f0 9A   
    2821                      .dwpsn  file "../c5535_bsl_revc/ezdsp5535_v1/c55xx_csl/src/csl_dma.c",line 1293,column 20,is_stmt
    2822 0012f1 0600          B $C$L114 ; |1293| 
         0012f3 9B   
    2823                                                      ; branch occurs ; |1293| 
    2824 0012f4       $C$L108:    
    2825                      .dwpsn  file "../c5535_bsl_revc/ezdsp5535_v1/c55xx_csl/src/csl_dma.c",line 1280,column 13,is_stmt
    2826 0012f4 A904          MOV *SP(#2), AR1 ; |1280| 
    2827 0012f6 0409          BCC $C$L104,AR1 == #0 ; |1280| 
         0012f8 C7   
    2828                                                      ; branchcc occurs ; |1280| 
    2829 0012f9 1290          CMPU AR1 == AR2, TC1 ; |1280| 
         0012fb A4   
TMS320C55x Assembler PC v4.4.1 Thu Sep 20 01:43:28 2018

Tools Copyright (c) 1996-2012 Texas Instruments Incorporated
csl_dma.asm                                                          PAGE   75

    2830 0012fc 0464          BCC $C$L105,TC1 ; |1280| 
         0012fe CB   
    2831                                                      ; branchcc occurs ; |1280| 
    2832 0012ff 3C2A          MOV #2, AR2
    2833 001301 1290          CMPU AR1 == AR2, TC1 ; |1280| 
         001303 A4   
    2834 001304 0464          BCC $C$L106,TC1 ; |1280| 
         001306 D1   
    2835                                                      ; branchcc occurs ; |1280| 
    2836 001307 3C3A          MOV #3, AR2
    2837 001309 1290          CMPU AR1 == AR2, TC1 ; |1280| 
         00130b A4   
    2838 00130c 0464          BCC $C$L107,TC1 ; |1280| 
         00130e D7   
    2839                                                      ; branchcc occurs ; |1280| 
    2840 00130f 0600          B $C$L114 ; |1280| 
         001311 7D   
    2841                                                      ; branch occurs ; |1280| 
    2842 001312       $C$L109:    
    2843                      .dwpsn  file "../c5535_bsl_revc/ezdsp5535_v1/c55xx_csl/src/csl_dma.c",line 1301,column 17,is_stmt
    2844 001312 AB61          MOV *AR3, AR3 ; |1301| 
    2845 001314 A97B          MOV port(*AR3(short(#5))), AR1 ; |1301| 
         001316 99   
    2846 001317 ED00          MOV dbl(*SP(#0)), XAR3
         001319 BF   
    2847 00131a AB61          MOV *AR3, AR3 ; |1301| 
    2848 00131c EC1E          BCLR @#15, AR1 ; |1301| 
         00131e 92   
    2849 00131f EC1E          BSET @#15, AR1 ; |1301| 
         001321 90   
    2850 001322 C97B          MOV AR1, port(*AR3(short(#5))) ; |1301| 
         001324 9A   
    2851                      .dwpsn  file "../c5535_bsl_revc/ezdsp5535_v1/c55xx_csl/src/csl_dma.c",line 1303,column 22,is_stmt
    2852 001325 0600          B $C$L114 ; |1303| 
         001327 67   
    2853                                                      ; branch occurs ; |1303| 
    2854 001328       $C$L110:    
    2855                      .dwpsn  file "../c5535_bsl_revc/ezdsp5535_v1/c55xx_csl/src/csl_dma.c",line 1305,column 17,is_stmt
    2856 001328 7600          MOV #37, T0 ; |1305| 
         00132a 2548 
    2857 00132c AB61          MOV *AR3, AR3 ; |1305| 
    2858 00132e A96B          MOV port(*AR3(T0)), AR1 ; |1305| 
         001330 99   
    2859 001331 ED00          MOV dbl(*SP(#0)), XAR3
         001333 BF   
    2860 001334 AB61          MOV *AR3, AR3 ; |1305| 
    2861 001336 EC1E          BCLR @#15, AR1 ; |1305| 
         001338 92   
    2862 001339 EC1E          BSET @#15, AR1 ; |1305| 
         00133b 90   
    2863 00133c C96B          MOV AR1, port(*AR3(T0)) ; |1305| 
         00133e 9A   
    2864                      .dwpsn  file "../c5535_bsl_revc/ezdsp5535_v1/c55xx_csl/src/csl_dma.c",line 1307,column 22,is_stmt
    2865 00133f 0600          B $C$L114 ; |1307| 
         001341 4D   
TMS320C55x Assembler PC v4.4.1 Thu Sep 20 01:43:28 2018

Tools Copyright (c) 1996-2012 Texas Instruments Incorporated
csl_dma.asm                                                          PAGE   76

    2866                                                      ; branch occurs ; |1307| 
    2867 001342       $C$L111:    
    2868                      .dwpsn  file "../c5535_bsl_revc/ezdsp5535_v1/c55xx_csl/src/csl_dma.c",line 1309,column 17,is_stmt
    2869 001342 7600          MOV #69, T0 ; |1309| 
         001344 4548 
    2870 001346 AB61          MOV *AR3, AR3 ; |1309| 
    2871 001348 A96B          MOV port(*AR3(T0)), AR1 ; |1309| 
         00134a 99   
    2872 00134b ED00          MOV dbl(*SP(#0)), XAR3
         00134d BF   
    2873 00134e AB61          MOV *AR3, AR3 ; |1309| 
    2874 001350 EC1E          BCLR @#15, AR1 ; |1309| 
         001352 92   
    2875 001353 EC1E          BSET @#15, AR1 ; |1309| 
         001355 90   
    2876 001356 C96B          MOV AR1, port(*AR3(T0)) ; |1309| 
         001358 9A   
    2877                      .dwpsn  file "../c5535_bsl_revc/ezdsp5535_v1/c55xx_csl/src/csl_dma.c",line 1311,column 22,is_stmt
    2878 001359 4A34          B $C$L114 ; |1311| 
    2879                                                      ; branch occurs ; |1311| 
    2880 00135b       $C$L112:    
    2881                      .dwpsn  file "../c5535_bsl_revc/ezdsp5535_v1/c55xx_csl/src/csl_dma.c",line 1313,column 17,is_stmt
    2882 00135b 7600          MOV #101, T0 ; |1313| 
         00135d 6548 
    2883 00135f AB61          MOV *AR3, AR3 ; |1313| 
    2884 001361 A96B          MOV port(*AR3(T0)), AR1 ; |1313| 
         001363 99   
    2885 001364 ED00          MOV dbl(*SP(#0)), XAR3
         001366 BF   
    2886 001367 AB61          MOV *AR3, AR3 ; |1313| 
    2887 001369 EC1E          BCLR @#15, AR1 ; |1313| 
         00136b 92   
    2888 00136c EC1E          BSET @#15, AR1 ; |1313| 
         00136e 90   
    2889 00136f C96B          MOV AR1, port(*AR3(T0)) ; |1313| 
         001371 9A   
    2890                      .dwpsn  file "../c5535_bsl_revc/ezdsp5535_v1/c55xx_csl/src/csl_dma.c",line 1315,column 22,is_stmt
    2891 001372 4A1B          B $C$L114 ; |1315| 
    2892                                                      ; branch occurs ; |1315| 
    2893 001374       $C$L113:    
    2894                      .dwpsn  file "../c5535_bsl_revc/ezdsp5535_v1/c55xx_csl/src/csl_dma.c",line 1298,column 13,is_stmt
    2895 001374 A904          MOV *SP(#2), AR1 ; |1298| 
    2896 001376 0409          BCC $C$L109,AR1 == #0 ; |1298| 
         001378 99   
    2897                                                      ; branchcc occurs ; |1298| 
    2898 001379 1290          CMPU AR1 == AR2, TC1 ; |1298| 
         00137b A4   
    2899 00137c 0464          BCC $C$L110,TC1 ; |1298| 
         00137e A9   
    2900                                                      ; branchcc occurs ; |1298| 
    2901 00137f 3C2A          MOV #2, AR2
    2902 001381 1290          CMPU AR1 == AR2, TC1 ; |1298| 
         001383 A4   
    2903 001384 0464          BCC $C$L111,TC1 ; |1298| 
         001386 BB   
TMS320C55x Assembler PC v4.4.1 Thu Sep 20 01:43:28 2018

Tools Copyright (c) 1996-2012 Texas Instruments Incorporated
csl_dma.asm                                                          PAGE   77

    2904                                                      ; branchcc occurs ; |1298| 
    2905 001387 3C3A          MOV #3, AR2
    2906 001389 1290          CMPU AR1 == AR2, TC1 ; |1298| 
         00138b A4   
    2907 00138c 0464          BCC $C$L112,TC1 ; |1298| 
         00138e CC   
    2908                                                      ; branchcc occurs ; |1298| 
    2909 00138f       $C$L114:    
    2910                      .dwpsn  file "../c5535_bsl_revc/ezdsp5535_v1/c55xx_csl/src/csl_dma.c",line 1318,column 9,is_stmt
    2911 00138f 3C04          MOV #0, T0
    2912 001391       $C$L115:    
    2913                      .dwpsn  file "../c5535_bsl_revc/ezdsp5535_v1/c55xx_csl/src/csl_dma.c",line 1320,column 1,is_stmt
    2914 001391 4E03          AADD #3, SP
    2915                      .dwcfi  cfa_offset, 1
    2916              $C$DW$52        .dwtag  DW_TAG_TI_branch
    2917                      .dwattr $C$DW$52, DW_AT_low_pc(0x00)
    2918                      .dwattr $C$DW$52, DW_AT_TI_return
    2919 001393 4804          RET
    2920                                                      ; return occurs
    2921              
    2922              $C$DW$53        .dwtag  DW_TAG_TI_loop
    2923                      .dwattr $C$DW$53, DW_AT_name("F:\eZdsp_DBG\eZDSP_5535_Files\ccsws2\test\Debug\csl_dma.asm:$C$L102:1:1
    2924                      .dwattr $C$DW$53, DW_AT_TI_begin_file("../c5535_bsl_revc/ezdsp5535_v1/c55xx_csl/src/csl_dma.c")
    2925                      .dwattr $C$DW$53, DW_AT_TI_begin_line(0x4f9)
    2926                      .dwattr $C$DW$53, DW_AT_TI_end_line(0x4fc)
    2927              $C$DW$54        .dwtag  DW_TAG_TI_loop_range
    2928                      .dwattr $C$DW$54, DW_AT_low_pc($C$DW$L$_DMA_start$5$B)
    2929                      .dwattr $C$DW$54, DW_AT_high_pc($C$DW$L$_DMA_start$5$E)
    2930                      .dwendtag $C$DW$53
    2931              
    2932                      .dwattr $C$DW$48, DW_AT_TI_end_file("../c5535_bsl_revc/ezdsp5535_v1/c55xx_csl/src/csl_dma.c")
    2933                      .dwattr $C$DW$48, DW_AT_TI_end_line(0x528)
    2934                      .dwattr $C$DW$48, DW_AT_TI_end_column(0x01)
    2935                      .dwendentry
    2936                      .dwendtag $C$DW$48
    2937              
    2938 001395               .sect   ".text"
    2939                      .align 4
    2940                      .global _DMA_stop
    2941              
    2942              $C$DW$55        .dwtag  DW_TAG_subprogram, DW_AT_name("DMA_stop")
    2943                      .dwattr $C$DW$55, DW_AT_low_pc(_DMA_stop)
    2944                      .dwattr $C$DW$55, DW_AT_high_pc(0x00)
    2945                      .dwattr $C$DW$55, DW_AT_TI_symbol_name("_DMA_stop")
    2946                      .dwattr $C$DW$55, DW_AT_external
    2947                      .dwattr $C$DW$55, DW_AT_type(*$C$DW$T$59)
    2948                      .dwattr $C$DW$55, DW_AT_TI_begin_file("../c5535_bsl_revc/ezdsp5535_v1/c55xx_csl/src/csl_dma.c")
    2949                      .dwattr $C$DW$55, DW_AT_TI_begin_line(0x570)
    2950                      .dwattr $C$DW$55, DW_AT_TI_begin_column(0x0c)
    2951                      .dwattr $C$DW$55, DW_AT_TI_max_frame_size(0x04)
    2952                      .dwpsn  file "../c5535_bsl_revc/ezdsp5535_v1/c55xx_csl/src/csl_dma.c",line 1398,column 1,is_stmt,addr
    2953              
    2954                      .dwfde $C$DW$CIE, _DMA_stop
    2955              $C$DW$56        .dwtag  DW_TAG_formal_parameter, DW_AT_name("hDMA")
    2956                      .dwattr $C$DW$56, DW_AT_TI_symbol_name("_hDMA")
TMS320C55x Assembler PC v4.4.1 Thu Sep 20 01:43:28 2018

Tools Copyright (c) 1996-2012 Texas Instruments Incorporated
csl_dma.asm                                                          PAGE   78

    2957                      .dwattr $C$DW$56, DW_AT_type(*$C$DW$T$57)
    2958                      .dwattr $C$DW$56, DW_AT_location[DW_OP_reg17]
    2959              ;*******************************************************************************
    2960              ;* FUNCTION NAME: DMA_stop                                                     *
    2961              ;*                                                                             *
    2962              ;*   Function Uses Regs : AC0,AC0,T0,AR0,XAR0,AR1,AR2,AR3,XAR3,SP,CARRY,TC1,   *
    2963              ;*                        M40,SATA,SATD,RDM,FRCT,SMUL                          *
    2964              ;*   Stack Frame        : Compact (No Frame Pointer, w/ debug)                 *
