TMS320C55x Assembler PC v4.4.1 Fri Sep 14 03:54:53 2018

Tools Copyright (c) 1996-2012 Texas Instruments Incorporated
csl_sar.asm                                                          PAGE    1

    3406              ; Temporary Registers Used: None
       1              ;*******************************************************************************
       2              ;* TMS320C55x C/C++ Codegen                                          PC v4.4.1 *
       3              ;* Date/Time created: Fri Sep 14 03:54:52 2018                                 *
       4              ;*******************************************************************************
       5                      .compiler_opts --hll_source=on --mem_model:code=flat --mem_model:data=large --object_format=coff --si
       6                      .mmregs
       7                      .cpl_on
       8                      .arms_on
       9                      .c54cm_off
      10                      .asg AR6, FP
      11                      .asg XAR6, XFP
      12                      .asg DPH, MDP
      13                      .model call=c55_std
      14                      .model mem=large
      15                      .noremark 5002  ; code respects overwrite rules
      16              ;*******************************************************************************
      17              ;* GLOBAL FILE PARAMETERS                                                      *
      18              ;*                                                                             *
      19              ;*   Architecture       : TMS320C55x                                           *
      20              ;*   Optimizing for     : Speed                                                *
      21              ;*   Memory             : Large Model (23-Bit Data Pointers)                   *
      22              ;*   Calls              : Normal Library ASM calls                             *
      23              ;*   Debug Info         : Standard TI Debug Information                        *
      24              ;*******************************************************************************
      25              
      26              $C$DW$CU        .dwtag  DW_TAG_compile_unit
      27                      .dwattr $C$DW$CU, DW_AT_name("../c5535_bsl_revc/ezdsp5535_v1/c55xx_csl/src/csl_sar.c")
      28                      .dwattr $C$DW$CU, DW_AT_producer("TMS320C55x C/C++ Codegen PC v4.4.1 Copyright (c) 1996-2012 Texas In
      29                      .dwattr $C$DW$CU, DW_AT_TI_version(0x01)
      30                      .dwattr $C$DW$CU, DW_AT_comp_dir("F:\eZdsp_DBG\eZDSP_5535_Files\ccsws2\test\Debug")
      31              ;       F:\ti\ccs8p1\ccsv8\tools\compiler\alt-install-ti-cgt-c55x_4.4.1\bin\acp55.exe -@f:\\AppData\\Local\\T
      32 000000               .sect   ".text"
      33                      .align 4
      34                      .global _SAR_init
      35              
      36              $C$DW$1 .dwtag  DW_TAG_subprogram, DW_AT_name("SAR_init")
      37                      .dwattr $C$DW$1, DW_AT_low_pc(_SAR_init)
      38                      .dwattr $C$DW$1, DW_AT_high_pc(0x00)
      39                      .dwattr $C$DW$1, DW_AT_TI_symbol_name("_SAR_init")
      40                      .dwattr $C$DW$1, DW_AT_external
      41                      .dwattr $C$DW$1, DW_AT_type(*$C$DW$T$64)
      42                      .dwattr $C$DW$1, DW_AT_TI_begin_file("../c5535_bsl_revc/ezdsp5535_v1/c55xx_csl/src/csl_sar.c")
      43                      .dwattr $C$DW$1, DW_AT_TI_begin_line(0x37)
      44                      .dwattr $C$DW$1, DW_AT_TI_begin_column(0x0c)
      45                      .dwattr $C$DW$1, DW_AT_TI_max_frame_size(0x02)
      46                      .dwpsn  file "../c5535_bsl_revc/ezdsp5535_v1/c55xx_csl/src/csl_sar.c",line 58,column 1,is_stmt,addres
      47              
      48                      .dwfde $C$DW$CIE, _SAR_init
      49              ;*******************************************************************************
      50              ;* FUNCTION NAME: SAR_init                                                     *
      51              ;*                                                                             *
      52              ;*   Function Uses Regs : T0,AR1,AR2,SP,CARRY,TC1,M40,SATA,SATD,RDM,FRCT,SMUL  *
      53              ;*   Stack Frame        : Compact (No Frame Pointer, w/ debug)                 *
      54              ;*   Total Frame Size   : 2 words                                              *
TMS320C55x Assembler PC v4.4.1 Fri Sep 14 03:54:53 2018

Tools Copyright (c) 1996-2012 Texas Instruments Incorporated
csl_sar.asm                                                          PAGE    2

      55              ;*                        (1 return address/alignment)                         *
      56              ;*                        (1 local values)                                     *
      57              ;*   Min System Stack   : 1 word                                               *
      58              ;*******************************************************************************
      59 000000       _SAR_init:
      60                      .dwcfi  cfa_offset, 1
      61                      .dwcfi  save_reg_to_mem, 91, -1
      62 000000 4EFF          AADD #-1, SP
      63                      .dwcfi  cfa_offset, 2
      64              $C$DW$2 .dwtag  DW_TAG_variable, DW_AT_name("i")
      65                      .dwattr $C$DW$2, DW_AT_TI_symbol_name("_i")
      66                      .dwattr $C$DW$2, DW_AT_type(*$C$DW$T$20)
      67                      .dwattr $C$DW$2, DW_AT_location[DW_OP_bregx 0x24 0]
      68                      .dwpsn  file "../c5535_bsl_revc/ezdsp5535_v1/c55xx_csl/src/csl_sar.c",line 61,column 5,is_stmt
      69 000002 F451          AND #0x7fff, *port(#7170) ; |61| 
         000004 7FFF 
         000006 1C02 
      70                      .dwpsn  file "../c5535_bsl_revc/ezdsp5535_v1/c55xx_csl/src/csl_sar.c",line 64,column 5,is_stmt
      71 000008 F451          AND #0xffbf, *port(#7171) ; |64| 
         00000a FFBF 
         00000c 1C03 
      72                      .dwpsn  file "../c5535_bsl_revc/ezdsp5535_v1/c55xx_csl/src/csl_sar.c",line 67,column 5,is_stmt
      73 00000e F451          AND #0xfffd, *port(#7171) ; |67| 
         000010 FFFD 
         000012 1C03 
      74                      .dwpsn  file "../c5535_bsl_revc/ezdsp5535_v1/c55xx_csl/src/csl_sar.c",line 71,column 5,is_stmt
      75 000014 FB51          MOV #28672, *port(#28690) ; |71| 
         000016 7000 
         000018 7012 
      76                      .dwpsn  file "../c5535_bsl_revc/ezdsp5535_v1/c55xx_csl/src/csl_sar.c",line 74,column 5,is_stmt
      77 00001a E651          MOV #0, *port(#28694) ; |74| 
         00001c 0070 
         00001e 16   
      78                      .dwpsn  file "../c5535_bsl_revc/ezdsp5535_v1/c55xx_csl/src/csl_sar.c",line 77,column 5,is_stmt
      79 00001f E651          MOV #0, *port(#28696) ; |77| 
         000021 0070 
         000023 18   
      80                      .dwpsn  file "../c5535_bsl_revc/ezdsp5535_v1/c55xx_csl/src/csl_sar.c",line 78,column 5,is_stmt
      81 000024 E651          MOV #0, *port(#28698) ; |78| 
         000026 0070 
         000028 1A   
      82                      .dwpsn  file "../c5535_bsl_revc/ezdsp5535_v1/c55xx_csl/src/csl_sar.c",line 81,column 9,is_stmt
      83 000029 E600          MOV #0, *SP(#0) ; |81| 
         00002b 00   
      84 00002c 20            NOP
      85 00002d 20            NOP
      86                      .dwpsn  file "../c5535_bsl_revc/ezdsp5535_v1/c55xx_csl/src/csl_sar.c",line 81,column 13,is_stmt
      87 00002e 7600          MOV #100, AR2 ; |81| 
         000030 64A8 
      88 000032 A900          MOV *SP(#0), AR1 ; |81| 
      89 000034 1298          CMPU AR1 >= AR2, TC1 ; |81| 
         000036 A4   
      90 000037 67E4          BCC $C$L2,TC1 ; |81| 
      91                                                      ; branchcc occurs ; |81| 
      92 000039       $C$L1:    
TMS320C55x Assembler PC v4.4.1 Fri Sep 14 03:54:53 2018

Tools Copyright (c) 1996-2012 Texas Instruments Incorporated
csl_sar.asm                                                          PAGE    3

      93 000039       $C$DW$L$_SAR_init$2$B:
      94                      .dwpsn  file "../c5535_bsl_revc/ezdsp5535_v1/c55xx_csl/src/csl_sar.c",line 81,column 19,is_stmt
      95 000039 F700          ADD #1, *SP(#0) ; |81| 
         00003b 0001 
      96 00003d 20            NOP
      97 00003e 20            NOP
      98 00003f 20            NOP
      99                      .dwpsn  file "../c5535_bsl_revc/ezdsp5535_v1/c55xx_csl/src/csl_sar.c",line 81,column 13,is_stmt
     100 000040 A900          MOV *SP(#0), AR1 ; |81| 
     101 000042 1294          CMPU AR1 < AR2, TC1 ; |81| 
         000044 A4   
     102 000045 0464          BCC $C$L1,TC1 ; |81| 
         000047 F1   
     103                                                      ; branchcc occurs ; |81| 
     104 000048       $C$DW$L$_SAR_init$2$E:
     105 000048       $C$L2:    
     106                      .dwpsn  file "../c5535_bsl_revc/ezdsp5535_v1/c55xx_csl/src/csl_sar.c",line 84,column 5,is_stmt
     107 000048 A951          MOV *port(#7204), AR1 ; |84| 
         00004a 1C24 
     108 00004c 7DFF          AND #0xfff0, AR1, AR1 ; |84| 
         00004e F099 
     109 000050 1A09          OR #0x0009, AR1, AR1 ; |84| 
         000052 99   
     110 000053 C951          MOV AR1, *port(#7204) ; |84| 
         000055 1C24 
     111                      .dwpsn  file "../c5535_bsl_revc/ezdsp5535_v1/c55xx_csl/src/csl_sar.c",line 86,column 5,is_stmt
     112 000057 3C04          MOV #0, T0
     113                      .dwpsn  file "../c5535_bsl_revc/ezdsp5535_v1/c55xx_csl/src/csl_sar.c",line 87,column 1,is_stmt
     114 000059 4E01          AADD #1, SP
     115                      .dwcfi  cfa_offset, 1
     116              $C$DW$3 .dwtag  DW_TAG_TI_branch
     117                      .dwattr $C$DW$3, DW_AT_low_pc(0x00)
     118                      .dwattr $C$DW$3, DW_AT_TI_return
     119 00005b 4804          RET
     120                                                      ; return occurs
     121              
     122              $C$DW$4 .dwtag  DW_TAG_TI_loop
     123                      .dwattr $C$DW$4, DW_AT_name("F:\eZdsp_DBG\eZDSP_5535_Files\ccsws2\test\Debug\csl_sar.asm:$C$L1:1:1536
     124                      .dwattr $C$DW$4, DW_AT_TI_begin_file("../c5535_bsl_revc/ezdsp5535_v1/c55xx_csl/src/csl_sar.c")
     125                      .dwattr $C$DW$4, DW_AT_TI_begin_line(0x51)
     126                      .dwattr $C$DW$4, DW_AT_TI_end_line(0x51)
     127              $C$DW$5 .dwtag  DW_TAG_TI_loop_range
     128                      .dwattr $C$DW$5, DW_AT_low_pc($C$DW$L$_SAR_init$2$B)
     129                      .dwattr $C$DW$5, DW_AT_high_pc($C$DW$L$_SAR_init$2$E)
     130                      .dwendtag $C$DW$4
     131              
     132                      .dwattr $C$DW$1, DW_AT_TI_end_file("../c5535_bsl_revc/ezdsp5535_v1/c55xx_csl/src/csl_sar.c")
     133                      .dwattr $C$DW$1, DW_AT_TI_end_line(0x57)
     134                      .dwattr $C$DW$1, DW_AT_TI_end_column(0x01)
     135                      .dwendentry
     136                      .dwendtag $C$DW$1
     137              
     138 00005d               .sect   ".text"
     139                      .align 4
     140                      .global _SAR_deInit
TMS320C55x Assembler PC v4.4.1 Fri Sep 14 03:54:53 2018

Tools Copyright (c) 1996-2012 Texas Instruments Incorporated
csl_sar.asm                                                          PAGE    4

     141              
     142              $C$DW$6 .dwtag  DW_TAG_subprogram, DW_AT_name("SAR_deInit")
     143                      .dwattr $C$DW$6, DW_AT_low_pc(_SAR_deInit)
     144                      .dwattr $C$DW$6, DW_AT_high_pc(0x00)
     145                      .dwattr $C$DW$6, DW_AT_TI_symbol_name("_SAR_deInit")
     146                      .dwattr $C$DW$6, DW_AT_external
     147                      .dwattr $C$DW$6, DW_AT_type(*$C$DW$T$64)
     148                      .dwattr $C$DW$6, DW_AT_TI_begin_file("../c5535_bsl_revc/ezdsp5535_v1/c55xx_csl/src/csl_sar.c")
     149                      .dwattr $C$DW$6, DW_AT_TI_begin_line(0x73)
     150                      .dwattr $C$DW$6, DW_AT_TI_begin_column(0x0c)
     151                      .dwattr $C$DW$6, DW_AT_TI_max_frame_size(0x01)
     152                      .dwpsn  file "../c5535_bsl_revc/ezdsp5535_v1/c55xx_csl/src/csl_sar.c",line 116,column 1,is_stmt,addre
     153              
     154                      .dwfde $C$DW$CIE, _SAR_deInit
     155              ;*******************************************************************************
     156              ;* FUNCTION NAME: SAR_deInit                                                   *
     157              ;*                                                                             *
     158              ;*   Function Uses Regs : T0,AR1,SP,M40,SATA,SATD,RDM,FRCT,SMUL                *
     159              ;*   Stack Frame        : Compact (No Frame Pointer, w/ debug)                 *
     160              ;*   Total Frame Size   : 1 word                                               *
     161              ;*                        (1 return address/alignment)                         *
     162              ;*   Min System Stack   : 1 word                                               *
     163              ;*******************************************************************************
     164 000060       _SAR_deInit:
     165                      .dwcfi  cfa_offset, 1
     166                      .dwcfi  save_reg_to_mem, 91, -1
     167                      .dwpsn  file "../c5535_bsl_revc/ezdsp5535_v1/c55xx_csl/src/csl_sar.c",line 118,column 5,is_stmt
     168 000060 A951          MOV *port(#7171), AR1 ; |118| 
         000062 1C03 
     169 000064 EC0C          BCLR @#6, AR1 ; |118| 
         000066 92   
     170 000067 EC0C          BSET @#6, AR1 ; |118| 
         000069 90   
     171 00006a C951          MOV AR1, *port(#7171) ; |118| 
         00006c 1C03 
     172                      .dwpsn  file "../c5535_bsl_revc/ezdsp5535_v1/c55xx_csl/src/csl_sar.c",line 121,column 5,is_stmt
     173 00006e A951          MOV *port(#7171), AR1 ; |121| 
         000070 1C03 
     174 000072 EC02          BCLR @#1, AR1 ; |121| 
         000074 92   
     175 000075 EC02          BSET @#1, AR1 ; |121| 
         000077 90   
     176 000078 C951          MOV AR1, *port(#7171) ; |121| 
         00007a 1C03 
     177                      .dwpsn  file "../c5535_bsl_revc/ezdsp5535_v1/c55xx_csl/src/csl_sar.c",line 123,column 4,is_stmt
     178 00007c 3C04          MOV #0, T0
     179                      .dwpsn  file "../c5535_bsl_revc/ezdsp5535_v1/c55xx_csl/src/csl_sar.c",line 124,column 1,is_stmt
     180              $C$DW$7 .dwtag  DW_TAG_TI_branch
     181                      .dwattr $C$DW$7, DW_AT_low_pc(0x00)
     182                      .dwattr $C$DW$7, DW_AT_TI_return
     183 00007e 4804          RET
     184                                                      ; return occurs
     185                      .dwattr $C$DW$6, DW_AT_TI_end_file("../c5535_bsl_revc/ezdsp5535_v1/c55xx_csl/src/csl_sar.c")
     186                      .dwattr $C$DW$6, DW_AT_TI_end_line(0x7c)
     187                      .dwattr $C$DW$6, DW_AT_TI_end_column(0x01)
TMS320C55x Assembler PC v4.4.1 Fri Sep 14 03:54:53 2018

Tools Copyright (c) 1996-2012 Texas Instruments Incorporated
csl_sar.asm                                                          PAGE    5

     188                      .dwendentry
     189                      .dwendtag $C$DW$6
     190              
     191 000080               .sect   ".text"
     192                      .align 4
     193                      .global _SAR_chanInit
     194              
     195              $C$DW$8 .dwtag  DW_TAG_subprogram, DW_AT_name("SAR_chanInit")
     196                      .dwattr $C$DW$8, DW_AT_low_pc(_SAR_chanInit)
     197                      .dwattr $C$DW$8, DW_AT_high_pc(0x00)
     198                      .dwattr $C$DW$8, DW_AT_TI_symbol_name("_SAR_chanInit")
     199                      .dwattr $C$DW$8, DW_AT_external
     200                      .dwattr $C$DW$8, DW_AT_type(*$C$DW$T$64)
     201                      .dwattr $C$DW$8, DW_AT_TI_begin_file("../c5535_bsl_revc/ezdsp5535_v1/c55xx_csl/src/csl_sar.c")
     202                      .dwattr $C$DW$8, DW_AT_TI_begin_line(0xa8)
     203                      .dwattr $C$DW$8, DW_AT_TI_begin_column(0x0d)
     204                      .dwattr $C$DW$8, DW_AT_TI_max_frame_size(0x04)
     205                      .dwpsn  file "../c5535_bsl_revc/ezdsp5535_v1/c55xx_csl/src/csl_sar.c",line 171,column 1,is_stmt,addre
     206              
     207                      .dwfde $C$DW$CIE, _SAR_chanInit
     208              $C$DW$9 .dwtag  DW_TAG_formal_parameter, DW_AT_name("hSar")
     209                      .dwattr $C$DW$9, DW_AT_TI_symbol_name("_hSar")
     210                      .dwattr $C$DW$9, DW_AT_type(*$C$DW$T$54)
     211                      .dwattr $C$DW$9, DW_AT_location[DW_OP_reg17]
     212              ;*******************************************************************************
     213              ;* FUNCTION NAME: SAR_chanInit                                                 *
     214              ;*                                                                             *
     215              ;*   Function Uses Regs : AC0,AC0,AC1,AC1,T0,AR0,XAR0,AR3,XAR3,SP,TC1,M40,SATA,*
     216              ;*                        SATD,RDM,FRCT,SMUL                                   *
     217              ;*   Stack Frame        : Compact (No Frame Pointer, w/ debug)                 *
     218              ;*   Total Frame Size   : 4 words                                              *
     219              ;*                        (2 return address/alignment)                         *
     220              ;*                        (2 local values)                                     *
     221              ;*   Min System Stack   : 1 word                                               *
     222              ;*******************************************************************************
     223 000080       _SAR_chanInit:
     224                      .dwcfi  cfa_offset, 1
     225                      .dwcfi  save_reg_to_mem, 91, -1
     226 000080 4EFD          AADD #-3, SP
     227                      .dwcfi  cfa_offset, 4
     228              $C$DW$10        .dwtag  DW_TAG_variable, DW_AT_name("hSar")
     229                      .dwattr $C$DW$10, DW_AT_TI_symbol_name("_hSar")
     230                      .dwattr $C$DW$10, DW_AT_type(*$C$DW$T$54)
     231                      .dwattr $C$DW$10, DW_AT_location[DW_OP_bregx 0x24 0]
     232 000082 EB00          MOV XAR0, dbl(*SP(#0))
         000084 85   
     233                      .dwpsn  file "../c5535_bsl_revc/ezdsp5535_v1/c55xx_csl/src/csl_sar.c",line 172,column 5,is_stmt
     234 000085 ED00          MOV dbl(*SP(#0)), XAR3
         000087 BF   
     235              
     236 000088 90B0          MOV XAR3, AC0
     237 00008a 3D01  ||      MOV #0, AC1 ; |172| 
     238              
     239 00008c 121C          CMPU AC1 != AC0, TC1 ; |172| 
         00008e 04   
TMS320C55x Assembler PC v4.4.1 Fri Sep 14 03:54:53 2018

Tools Copyright (c) 1996-2012 Texas Instruments Incorporated
csl_sar.asm                                                          PAGE    6

     240 00008f 6264          BCC $C$L3,TC1 ; |172| 
     241                                                      ; branchcc occurs ; |172| 
     242                      .dwpsn  file "../c5535_bsl_revc/ezdsp5535_v1/c55xx_csl/src/csl_sar.c",line 174,column 9,is_stmt
     243 000091 3E54          MOV #-5, T0
     244 000093 4A02          B $C$L4   ; |174| 
     245                                                      ; branch occurs ; |174| 
     246 000095       $C$L3:    
     247                      .dwpsn  file "../c5535_bsl_revc/ezdsp5535_v1/c55xx_csl/src/csl_sar.c",line 177,column 5,is_stmt
     248 000095 3C04          MOV #0, T0
     249 000097       $C$L4:    
     250                      .dwpsn  file "../c5535_bsl_revc/ezdsp5535_v1/c55xx_csl/src/csl_sar.c",line 178,column 1,is_stmt
     251 000097 4E03          AADD #3, SP
     252                      .dwcfi  cfa_offset, 1
     253              $C$DW$11        .dwtag  DW_TAG_TI_branch
     254                      .dwattr $C$DW$11, DW_AT_low_pc(0x00)
     255                      .dwattr $C$DW$11, DW_AT_TI_return
     256 000099 4804          RET
     257                                                      ; return occurs
     258                      .dwattr $C$DW$8, DW_AT_TI_end_file("../c5535_bsl_revc/ezdsp5535_v1/c55xx_csl/src/csl_sar.c")
     259                      .dwattr $C$DW$8, DW_AT_TI_end_line(0xb2)
     260                      .dwattr $C$DW$8, DW_AT_TI_end_column(0x01)
     261                      .dwendentry
     262                      .dwendtag $C$DW$8
     263              
     264 00009b               .sect   ".text"
     265                      .align 4
     266                      .global _SAR_chanOpen
     267              
     268              $C$DW$12        .dwtag  DW_TAG_subprogram, DW_AT_name("SAR_chanOpen")
     269                      .dwattr $C$DW$12, DW_AT_low_pc(_SAR_chanOpen)
     270                      .dwattr $C$DW$12, DW_AT_high_pc(0x00)
     271                      .dwattr $C$DW$12, DW_AT_TI_symbol_name("_SAR_chanOpen")
     272                      .dwattr $C$DW$12, DW_AT_external
     273                      .dwattr $C$DW$12, DW_AT_type(*$C$DW$T$64)
     274                      .dwattr $C$DW$12, DW_AT_TI_begin_file("../c5535_bsl_revc/ezdsp5535_v1/c55xx_csl/src/csl_sar.c")
     275                      .dwattr $C$DW$12, DW_AT_TI_begin_line(0xe1)
     276                      .dwattr $C$DW$12, DW_AT_TI_begin_column(0x0c)
     277                      .dwattr $C$DW$12, DW_AT_TI_max_frame_size(0x04)
     278                      .dwpsn  file "../c5535_bsl_revc/ezdsp5535_v1/c55xx_csl/src/csl_sar.c",line 229,column 1,is_stmt,addre
     279              
     280                      .dwfde $C$DW$CIE, _SAR_chanOpen
     281              $C$DW$13        .dwtag  DW_TAG_formal_parameter, DW_AT_name("SarObj")
     282                      .dwattr $C$DW$13, DW_AT_TI_symbol_name("_SarObj")
     283                      .dwattr $C$DW$13, DW_AT_type(*$C$DW$T$53)
     284                      .dwattr $C$DW$13, DW_AT_location[DW_OP_reg17]
     285              $C$DW$14        .dwtag  DW_TAG_formal_parameter, DW_AT_name("chanSel")
     286                      .dwattr $C$DW$14, DW_AT_TI_symbol_name("_chanSel")
     287                      .dwattr $C$DW$14, DW_AT_type(*$C$DW$T$42)
     288                      .dwattr $C$DW$14, DW_AT_location[DW_OP_reg12]
     289              ;*******************************************************************************
     290              ;* FUNCTION NAME: SAR_chanOpen                                                 *
     291              ;*                                                                             *
     292              ;*   Function Uses Regs : AC0,AC0,AC1,AC1,T0,AR0,XAR0,AR1,AR2,AR3,XAR3,SP,TC1, *
     293              ;*                        M40,SATA,SATD,RDM,FRCT,SMUL                          *
     294              ;*   Stack Frame        : Compact (No Frame Pointer, w/ debug)                 *
TMS320C55x Assembler PC v4.4.1 Fri Sep 14 03:54:53 2018

Tools Copyright (c) 1996-2012 Texas Instruments Incorporated
csl_sar.asm                                                          PAGE    7

     295              ;*   Total Frame Size   : 4 words                                              *
     296              ;*                        (1 return address/alignment)                         *
     297              ;*                        (3 local values)                                     *
     298              ;*   Min System Stack   : 1 word                                               *
     299              ;*******************************************************************************
     300 00009c       _SAR_chanOpen:
     301                      .dwcfi  cfa_offset, 1
     302                      .dwcfi  save_reg_to_mem, 91, -1
     303 00009c 4EFD          AADD #-3, SP
     304                      .dwcfi  cfa_offset, 4
     305              $C$DW$15        .dwtag  DW_TAG_variable, DW_AT_name("SarObj")
     306                      .dwattr $C$DW$15, DW_AT_TI_symbol_name("_SarObj")
     307                      .dwattr $C$DW$15, DW_AT_type(*$C$DW$T$53)
     308                      .dwattr $C$DW$15, DW_AT_location[DW_OP_bregx 0x24 0]
     309              $C$DW$16        .dwtag  DW_TAG_variable, DW_AT_name("chanSel")
     310                      .dwattr $C$DW$16, DW_AT_TI_symbol_name("_chanSel")
     311                      .dwattr $C$DW$16, DW_AT_type(*$C$DW$T$42)
     312                      .dwattr $C$DW$16, DW_AT_location[DW_OP_bregx 0x24 2]
     313 00009e C404          MOV T0, *SP(#2) ; |229| 
     314 0000a0 EB00          MOV XAR0, dbl(*SP(#0))
         0000a2 85   
     315                      .dwpsn  file "../c5535_bsl_revc/ezdsp5535_v1/c55xx_csl/src/csl_sar.c",line 230,column 5,is_stmt
     316 0000a3 ED00          MOV dbl(*SP(#0)), XAR3
         0000a5 BF   
     317              
     318 0000a6 90B0          MOV XAR3, AC0
     319 0000a8 3D01  ||      MOV #0, AC1 ; |230| 
     320              
     321 0000aa 121C          CMPU AC1 != AC0, TC1 ; |230| 
         0000ac 04   
     322 0000ad 62E4          BCC $C$L5,TC1 ; |230| 
     323                                                      ; branchcc occurs ; |230| 
     324                      .dwpsn  file "../c5535_bsl_revc/ezdsp5535_v1/c55xx_csl/src/csl_sar.c",line 232,column 9,is_stmt
     325 0000af 3E54          MOV #-5, T0
     326 0000b1 0600          B $C$L8   ; |232| 
         0000b3 46   
     327                                                      ; branch occurs ; |232| 
     328 0000b4       $C$L5:    
     329                      .dwpsn  file "../c5535_bsl_revc/ezdsp5535_v1/c55xx_csl/src/csl_sar.c",line 235,column 5,is_stmt
     330 0000b4 A904          MOV *SP(#2), AR1 ; |235| 
     331 0000b6 63A9          BCC $C$L6,AR1 < #0 ; |235| 
     332                                                      ; branchcc occurs ; |235| 
     333 0000b8 3C5A          MOV #5, AR2
     334 0000ba 12A8          CMP AR1 <= AR2, TC1 ; |235| 
         0000bc 90   
     335 0000bd 6264          BCC $C$L7,TC1 ; |235| 
     336                                                      ; branchcc occurs ; |235| 
     337 0000bf       $C$L6:    
     338                      .dwpsn  file "../c5535_bsl_revc/ezdsp5535_v1/c55xx_csl/src/csl_sar.c",line 237,column 9,is_stmt
     339 0000bf 3E64          MOV #-6, T0
     340 0000c1 4A37          B $C$L8   ; |237| 
     341                                                      ; branch occurs ; |237| 
     342 0000c3       $C$L7:    
     343                      .dwpsn  file "../c5535_bsl_revc/ezdsp5535_v1/c55xx_csl/src/csl_sar.c",line 241,column 5,is_stmt
     344 0000c3 A951          MOV *port(#28690), AR1 ; |241| 
TMS320C55x Assembler PC v4.4.1 Fri Sep 14 03:54:53 2018

Tools Copyright (c) 1996-2012 Texas Instruments Incorporated
csl_sar.asm                                                          PAGE    8

         0000c5 7012 
     345 0000c7 F904          MOV *SP(#2) << #12, AC0 ; |241| 
         0000c9 0C08 
     346 0000cb 7D8F          AND #0x8fff, AR1, AR1 ; |241| 
         0000cd FF99 
     347 0000cf 7D70          AND #0x7000, AC0, AR2 ; |241| 
         0000d1 00A0 
     348 0000d3 2A9A          OR AR1, AR2 ; |241| 
     349 0000d5 CA51          MOV AR2, *port(#28690) ; |241| 
         0000d7 7012 
     350                      .dwpsn  file "../c5535_bsl_revc/ezdsp5535_v1/c55xx_csl/src/csl_sar.c",line 243,column 5,is_stmt
     351 0000d9 A951          MOV *port(#28690), AR1 ; |243| 
         0000db 7012 
     352 0000dd EC16          BCLR @#11, AR1 ; |243| 
         0000df 92   
     353 0000e0 EC16          BSET @#11, AR1 ; |243| 
         0000e2 90   
     354 0000e3 C951          MOV AR1, *port(#28690) ; |243| 
         0000e5 7012 
     355                      .dwpsn  file "../c5535_bsl_revc/ezdsp5535_v1/c55xx_csl/src/csl_sar.c",line 245,column 5,is_stmt
     356 0000e7 A904          MOV *SP(#2), AR1 ; |245| 
     357 0000e9 C973          MOV AR1, *AR3(short(#1)) ; |245| 
     358                      .dwpsn  file "../c5535_bsl_revc/ezdsp5535_v1/c55xx_csl/src/csl_sar.c",line 246,column 5,is_stmt
     359 0000eb ED00          MOV dbl(*SP(#0)), XAR3
         0000ed BF   
     360 0000ee FB61          MOV #28672, *AR3 ; |246| 
         0000f0 7000 
     361                      .dwpsn  file "../c5535_bsl_revc/ezdsp5535_v1/c55xx_csl/src/csl_sar.c",line 247,column 5,is_stmt
     362 0000f2 ED00          MOV dbl(*SP(#0)), XAR3
         0000f4 BF   
     363 0000f5 E675          MOV #1, *AR3(short(#2)) ; |247| 
         0000f7 01   
     364                      .dwpsn  file "../c5535_bsl_revc/ezdsp5535_v1/c55xx_csl/src/csl_sar.c",line 249,column 5,is_stmt
     365 0000f8 3C04          MOV #0, T0
     366 0000fa       $C$L8:    
     367                      .dwpsn  file "../c5535_bsl_revc/ezdsp5535_v1/c55xx_csl/src/csl_sar.c",line 251,column 1,is_stmt
     368 0000fa 4E03          AADD #3, SP
     369                      .dwcfi  cfa_offset, 1
     370              $C$DW$17        .dwtag  DW_TAG_TI_branch
     371                      .dwattr $C$DW$17, DW_AT_low_pc(0x00)
     372                      .dwattr $C$DW$17, DW_AT_TI_return
     373 0000fc 4804          RET
     374                                                      ; return occurs
     375                      .dwattr $C$DW$12, DW_AT_TI_end_file("../c5535_bsl_revc/ezdsp5535_v1/c55xx_csl/src/csl_sar.c")
     376                      .dwattr $C$DW$12, DW_AT_TI_end_line(0xfb)
     377                      .dwattr $C$DW$12, DW_AT_TI_end_column(0x01)
     378                      .dwendentry
     379                      .dwendtag $C$DW$12
     380              
     381 0000fe               .sect   ".text"
     382                      .align 4
     383                      .global _SAR_chanClose
     384              
     385              $C$DW$18        .dwtag  DW_TAG_subprogram, DW_AT_name("SAR_chanClose")
     386                      .dwattr $C$DW$18, DW_AT_low_pc(_SAR_chanClose)
TMS320C55x Assembler PC v4.4.1 Fri Sep 14 03:54:53 2018

Tools Copyright (c) 1996-2012 Texas Instruments Incorporated
csl_sar.asm                                                          PAGE    9

     387                      .dwattr $C$DW$18, DW_AT_high_pc(0x00)
     388                      .dwattr $C$DW$18, DW_AT_TI_symbol_name("_SAR_chanClose")
     389                      .dwattr $C$DW$18, DW_AT_external
     390                      .dwattr $C$DW$18, DW_AT_type(*$C$DW$T$64)
     391                      .dwattr $C$DW$18, DW_AT_TI_begin_file("../c5535_bsl_revc/ezdsp5535_v1/c55xx_csl/src/csl_sar.c")
     392                      .dwattr $C$DW$18, DW_AT_TI_begin_line(0x126)
     393                      .dwattr $C$DW$18, DW_AT_TI_begin_column(0x0d)
     394                      .dwattr $C$DW$18, DW_AT_TI_max_frame_size(0x04)
     395                      .dwpsn  file "../c5535_bsl_revc/ezdsp5535_v1/c55xx_csl/src/csl_sar.c",line 297,column 1,is_stmt,addre
     396              
     397                      .dwfde $C$DW$CIE, _SAR_chanClose
     398              $C$DW$19        .dwtag  DW_TAG_formal_parameter, DW_AT_name("hSar")
     399                      .dwattr $C$DW$19, DW_AT_TI_symbol_name("_hSar")
     400                      .dwattr $C$DW$19, DW_AT_type(*$C$DW$T$54)
     401                      .dwattr $C$DW$19, DW_AT_location[DW_OP_reg17]
     402              ;*******************************************************************************
     403              ;* FUNCTION NAME: SAR_chanClose                                                *
     404              ;*                                                                             *
     405              ;*   Function Uses Regs : AC0,AC0,AC1,AC1,T0,AR0,XAR0,AR1,AR2,AR3,XAR3,SP,TC1, *
     406              ;*                        M40,SATA,SATD,RDM,FRCT,SMUL                          *
     407              ;*   Stack Frame        : Compact (No Frame Pointer, w/ debug)                 *
     408              ;*   Total Frame Size   : 4 words                                              *
     409              ;*                        (2 return address/alignment)                         *
     410              ;*                        (2 local values)                                     *
     411              ;*   Min System Stack   : 1 word                                               *
     412              ;*******************************************************************************
     413 000100       _SAR_chanClose:
     414                      .dwcfi  cfa_offset, 1
     415                      .dwcfi  save_reg_to_mem, 91, -1
     416 000100 4EFD          AADD #-3, SP
     417                      .dwcfi  cfa_offset, 4
     418              $C$DW$20        .dwtag  DW_TAG_variable, DW_AT_name("hSar")
     419                      .dwattr $C$DW$20, DW_AT_TI_symbol_name("_hSar")
     420                      .dwattr $C$DW$20, DW_AT_type(*$C$DW$T$54)
     421                      .dwattr $C$DW$20, DW_AT_location[DW_OP_bregx 0x24 0]
     422 000102 EB00          MOV XAR0, dbl(*SP(#0))
         000104 85   
     423                      .dwpsn  file "../c5535_bsl_revc/ezdsp5535_v1/c55xx_csl/src/csl_sar.c",line 299,column 5,is_stmt
     424 000105 ED00          MOV dbl(*SP(#0)), XAR3
         000107 BF   
     425 000108 E673          MOV #6, *AR3(short(#1)) ; |299| 
         00010a 06   
     426                      .dwpsn  file "../c5535_bsl_revc/ezdsp5535_v1/c55xx_csl/src/csl_sar.c",line 300,column 5,is_stmt
     427 00010b ED00          MOV dbl(*SP(#0)), XAR3
         00010d BF   
     428              
     429 00010e 90B0          MOV XAR3, AC0
     430 000110 3D01  ||      MOV #0, AC1 ; |300| 
     431              
     432 000112 121C          CMPU AC1 != AC0, TC1 ; |300| 
         000114 04   
     433 000115 62E4          BCC $C$L9,TC1 ; |300| 
     434                                                      ; branchcc occurs ; |300| 
     435                      .dwpsn  file "../c5535_bsl_revc/ezdsp5535_v1/c55xx_csl/src/csl_sar.c",line 302,column 9,is_stmt
     436 000117 3E54          MOV #-5, T0
TMS320C55x Assembler PC v4.4.1 Fri Sep 14 03:54:53 2018

Tools Copyright (c) 1996-2012 Texas Instruments Incorporated
csl_sar.asm                                                          PAGE   10

     437 000119 0600          B $C$L11  ; |302| 
         00011b 64   
     438                                                      ; branch occurs ; |302| 
     439 00011c       $C$L9:    
     440                      .dwpsn  file "../c5535_bsl_revc/ezdsp5535_v1/c55xx_csl/src/csl_sar.c",line 306,column 5,is_stmt
     441 00011c 7600          MOV #18, T0 ; |306| 
         00011e 1248 
     442 000120 AB61          MOV *AR3, AR3 ; |306| 
     443 000122 A96B          MOV port(*AR3(T0)), AR1 ; |306| 
         000124 99   
     444 000125 7D80          AND #0x8000, AR1, AC0 ; |306| 
         000127 0009 
     445              
     446 000129 7680          BFXTR #0x8000, AC0, AR1 ; |306| 
         00012b 0090 
     447 00012d 3D1A  ||      MOV #1, AR2
     448              
     449 00012f 12AC          CMPU AR2 != AR1, TC1 ; |306| 
         000131 94   
     450 000132 0464          BCC $C$L10,TC1 ; |306| 
         000134 13   
     451                                                      ; branchcc occurs ; |306| 
     452                      .dwpsn  file "../c5535_bsl_revc/ezdsp5535_v1/c55xx_csl/src/csl_sar.c",line 311,column 9,is_stmt
     453 000135 ED00          MOV dbl(*SP(#0)), XAR3
         000137 BF   
     454 000138 AB61          MOV *AR3, AR3 ; |311| 
     455 00013a A96B          MOV port(*AR3(T0)), AR1 ; |311| 
         00013c 99   
     456 00013d ED00          MOV dbl(*SP(#0)), XAR3
         00013f BF   
     457 000140 AB61          MOV *AR3, AR3 ; |311| 
     458 000142 EC1E          BCLR @#15, AR1 ; |311| 
         000144 92   
     459 000145 C96B          MOV AR1, port(*AR3(T0)) ; |311| 
         000147 9A   
     460 000148       $C$L10:    
     461                      .dwpsn  file "../c5535_bsl_revc/ezdsp5535_v1/c55xx_csl/src/csl_sar.c",line 316,column 5,is_stmt
     462 000148 ED00          MOV dbl(*SP(#0)), XAR3
         00014a BF   
     463 00014b 7600          MOV #24, T0 ; |316| 
         00014d 1848 
     464 00014f AB61          MOV *AR3, AR3 ; |316| 
     465 000151 A96B          MOV port(*AR3(T0)), AR1 ; |316| 
         000153 99   
     466 000154 ED00          MOV dbl(*SP(#0)), XAR3
         000156 BF   
     467 000157 AB61          MOV *AR3, AR3 ; |316| 
     468 000159 EC18          BCLR @#12, AR1 ; |316| 
         00015b 92   
     469 00015c C96B          MOV AR1, port(*AR3(T0)) ; |316| 
         00015e 9A   
     470                      .dwpsn  file "../c5535_bsl_revc/ezdsp5535_v1/c55xx_csl/src/csl_sar.c",line 319,column 5,is_stmt
     471 00015f ED00          MOV dbl(*SP(#0)), XAR3
         000161 BF   
     472 000162 AB61          MOV *AR3, AR3 ; |319| 
TMS320C55x Assembler PC v4.4.1 Fri Sep 14 03:54:53 2018

Tools Copyright (c) 1996-2012 Texas Instruments Incorporated
csl_sar.asm                                                          PAGE   11

     473 000164 A96B          MOV port(*AR3(T0)), AR1 ; |319| 
         000166 99   
     474 000167 ED00          MOV dbl(*SP(#0)), XAR3
         000169 BF   
     475 00016a AB61          MOV *AR3, AR3 ; |319| 
     476 00016c EC1A          BCLR @#13, AR1 ; |319| 
         00016e 92   
     477 00016f C96B          MOV AR1, port(*AR3(T0)) ; |319| 
         000171 9A   
     478                      .dwpsn  file "../c5535_bsl_revc/ezdsp5535_v1/c55xx_csl/src/csl_sar.c",line 322,column 5,is_stmt
     479 000172 ED00          MOV dbl(*SP(#0)), XAR3
         000174 BF   
     480 000175 E661          MOV #0, *AR3 ; |322| 
         000177 00   
     481                      .dwpsn  file "../c5535_bsl_revc/ezdsp5535_v1/c55xx_csl/src/csl_sar.c",line 323,column 5,is_stmt
     482 000178 ED00          MOV dbl(*SP(#0)), XAR3
         00017a BF   
     483 00017b E675          MOV #0, *AR3(short(#2)) ; |323| 
         00017d 00   
     484                      .dwpsn  file "../c5535_bsl_revc/ezdsp5535_v1/c55xx_csl/src/csl_sar.c",line 324,column 5,is_stmt
     485 00017e 3C04          MOV #0, T0
     486 000180       $C$L11:    
     487                      .dwpsn  file "../c5535_bsl_revc/ezdsp5535_v1/c55xx_csl/src/csl_sar.c",line 326,column 1,is_stmt
     488 000180 4E03          AADD #3, SP
     489                      .dwcfi  cfa_offset, 1
     490              $C$DW$21        .dwtag  DW_TAG_TI_branch
     491                      .dwattr $C$DW$21, DW_AT_low_pc(0x00)
     492                      .dwattr $C$DW$21, DW_AT_TI_return
     493 000182 4804          RET
     494                                                      ; return occurs
     495                      .dwattr $C$DW$18, DW_AT_TI_end_file("../c5535_bsl_revc/ezdsp5535_v1/c55xx_csl/src/csl_sar.c")
     496                      .dwattr $C$DW$18, DW_AT_TI_end_line(0x146)
     497                      .dwattr $C$DW$18, DW_AT_TI_end_column(0x01)
     498                      .dwendentry
     499                      .dwendtag $C$DW$18
     500              
     501 000184               .sect   ".text"
     502                      .align 4
     503                      .global _SAR_chanConfig
     504              
     505              $C$DW$22        .dwtag  DW_TAG_subprogram, DW_AT_name("SAR_chanConfig")
     506                      .dwattr $C$DW$22, DW_AT_low_pc(_SAR_chanConfig)
     507                      .dwattr $C$DW$22, DW_AT_high_pc(0x00)
     508                      .dwattr $C$DW$22, DW_AT_TI_symbol_name("_SAR_chanConfig")
     509                      .dwattr $C$DW$22, DW_AT_external
     510                      .dwattr $C$DW$22, DW_AT_type(*$C$DW$T$64)
     511                      .dwattr $C$DW$22, DW_AT_TI_begin_file("../c5535_bsl_revc/ezdsp5535_v1/c55xx_csl/src/csl_sar.c")
     512                      .dwattr $C$DW$22, DW_AT_TI_begin_line(0x175)
     513                      .dwattr $C$DW$22, DW_AT_TI_begin_column(0x0c)
     514                      .dwattr $C$DW$22, DW_AT_TI_max_frame_size(0x06)
     515                      .dwpsn  file "../c5535_bsl_revc/ezdsp5535_v1/c55xx_csl/src/csl_sar.c",line 377,column 1,is_stmt,addre
     516              
     517                      .dwfde $C$DW$CIE, _SAR_chanConfig
     518              $C$DW$23        .dwtag  DW_TAG_formal_parameter, DW_AT_name("hSar")
     519                      .dwattr $C$DW$23, DW_AT_TI_symbol_name("_hSar")
TMS320C55x Assembler PC v4.4.1 Fri Sep 14 03:54:53 2018

Tools Copyright (c) 1996-2012 Texas Instruments Incorporated
csl_sar.asm                                                          PAGE   12

     520                      .dwattr $C$DW$23, DW_AT_type(*$C$DW$T$54)
     521                      .dwattr $C$DW$23, DW_AT_location[DW_OP_reg17]
     522              $C$DW$24        .dwtag  DW_TAG_formal_parameter, DW_AT_name("pConfigParam")
     523                      .dwattr $C$DW$24, DW_AT_TI_symbol_name("_pConfigParam")
     524                      .dwattr $C$DW$24, DW_AT_type(*$C$DW$T$56)
     525                      .dwattr $C$DW$24, DW_AT_location[DW_OP_reg19]
     526              ;*******************************************************************************
     527              ;* FUNCTION NAME: SAR_chanConfig                                               *
     528              ;*                                                                             *
     529              ;*   Function Uses Regs : AC0,AC0,AC1,AC1,T0,AR0,XAR0,AR1,XAR1,AR3,XAR3,SP,TC1,*
     530              ;*                        M40,SATA,SATD,RDM,FRCT,SMUL                          *
     531              ;*   Stack Frame        : Compact (No Frame Pointer, w/ debug)                 *
     532              ;*   Total Frame Size   : 6 words                                              *
     533              ;*                        (2 return address/alignment)                         *
     534              ;*                        (4 local values)                                     *
     535              ;*   Min System Stack   : 1 word                                               *
     536              ;*******************************************************************************
     537 000184       _SAR_chanConfig:
     538                      .dwcfi  cfa_offset, 1
     539                      .dwcfi  save_reg_to_mem, 91, -1
     540 000184 4EFB          AADD #-5, SP
     541                      .dwcfi  cfa_offset, 6
     542              $C$DW$25        .dwtag  DW_TAG_variable, DW_AT_name("hSar")
     543                      .dwattr $C$DW$25, DW_AT_TI_symbol_name("_hSar")
     544                      .dwattr $C$DW$25, DW_AT_type(*$C$DW$T$54)
     545                      .dwattr $C$DW$25, DW_AT_location[DW_OP_bregx 0x24 0]
     546              $C$DW$26        .dwtag  DW_TAG_variable, DW_AT_name("pConfigParam")
     547                      .dwattr $C$DW$26, DW_AT_TI_symbol_name("_pConfigParam")
     548                      .dwattr $C$DW$26, DW_AT_type(*$C$DW$T$56)
     549                      .dwattr $C$DW$26, DW_AT_location[DW_OP_bregx 0x24 2]
     550 000186 EB04          MOV XAR1, dbl(*SP(#2))
         000188 95   
     551 000189 EB00          MOV XAR0, dbl(*SP(#0))
         00018b 85   
     552                      .dwpsn  file "../c5535_bsl_revc/ezdsp5535_v1/c55xx_csl/src/csl_sar.c",line 378,column 2,is_stmt
     553 00018c ED00          MOV dbl(*SP(#0)), XAR3
         00018e BF   
     554              
     555 00018f 90B0          MOV XAR3, AC0
     556 000191 3D01  ||      MOV #0, AC1 ; |378| 
     557              
     558 000193 121C          CMPU AC1 != AC0, TC1 ; |378| 
         000195 04   
     559 000196 62E4          BCC $C$L12,TC1 ; |378| 
     560                                                      ; branchcc occurs ; |378| 
     561                      .dwpsn  file "../c5535_bsl_revc/ezdsp5535_v1/c55xx_csl/src/csl_sar.c",line 380,column 3,is_stmt
     562 000198 3E54          MOV #-5, T0
     563 00019a 0600          B $C$L14  ; |380| 
         00019c 59   
     564                                                      ; branch occurs ; |380| 
     565 00019d       $C$L12:    
     566                      .dwpsn  file "../c5535_bsl_revc/ezdsp5535_v1/c55xx_csl/src/csl_sar.c",line 383,column 5,is_stmt
     567 00019d ED04          MOV dbl(*SP(#2)), XAR3
         00019f BF   
     568 0001a0 90B0          MOV XAR3, AC0
TMS320C55x Assembler PC v4.4.1 Fri Sep 14 03:54:53 2018

Tools Copyright (c) 1996-2012 Texas Instruments Incorporated
csl_sar.asm                                                          PAGE   13

     569 0001a2 121C          CMPU AC1 != AC0, TC1 ; |383| 
         0001a4 04   
     570 0001a5 62E4          BCC $C$L13,TC1 ; |383| 
     571                                                      ; branchcc occurs ; |383| 
     572                      .dwpsn  file "../c5535_bsl_revc/ezdsp5535_v1/c55xx_csl/src/csl_sar.c",line 385,column 9,is_stmt
     573 0001a7 3E64          MOV #-6, T0
     574 0001a9 0600          B $C$L14  ; |385| 
         0001ab 4A   
     575                                                      ; branch occurs ; |385| 
     576 0001ac       $C$L13:    
     577                      .dwpsn  file "../c5535_bsl_revc/ezdsp5535_v1/c55xx_csl/src/csl_sar.c",line 389,column 5,is_stmt
     578 0001ac A961          MOV *AR3, AR1 ; |389| 
     579 0001ae ED00          MOV dbl(*SP(#0)), XAR3
         0001b0 BF   
     580 0001b1 7600          MOV #18, T0 ; |389| 
         0001b3 1248 
     581 0001b5 AB61          MOV *AR3, AR3 ; |389| 
     582 0001b7 EC1E          BCLR @#15, AR1 ; |389| 
         0001b9 92   
     583 0001ba C96B          MOV AR1, port(*AR3(T0)) ; |389| 
         0001bc 9A   
     584                      .dwpsn  file "../c5535_bsl_revc/ezdsp5535_v1/c55xx_csl/src/csl_sar.c",line 393,column 5,is_stmt
     585 0001bd ED04          MOV dbl(*SP(#2)), XAR3
         0001bf BF   
     586 0001c0 A973          MOV *AR3(short(#1)), AR1 ; |393| 
     587 0001c2 ED00          MOV dbl(*SP(#0)), XAR3
         0001c4 BF   
     588 0001c5 7600          MOV #22, T0 ; |393| 
         0001c7 1648 
     589 0001c9 AB61          MOV *AR3, AR3 ; |393| 
     590 0001cb C96B          MOV AR1, port(*AR3(T0)) ; |393| 
         0001cd 9A   
     591                      .dwpsn  file "../c5535_bsl_revc/ezdsp5535_v1/c55xx_csl/src/csl_sar.c",line 396,column 5,is_stmt
     592 0001ce ED04          MOV dbl(*SP(#2)), XAR3
         0001d0 BF   
     593 0001d1 A975          MOV *AR3(short(#2)), AR1 ; |396| 
     594 0001d3 ED00          MOV dbl(*SP(#0)), XAR3
         0001d5 BF   
     595 0001d6 7600          MOV #24, T0 ; |396| 
         0001d8 1848 
     596 0001da AB61          MOV *AR3, AR3 ; |396| 
     597 0001dc 7E30          OR #0x3000, AR1, AR1 ; |396| 
         0001de 0099 
     598 0001e0 C96B          MOV AR1, port(*AR3(T0)) ; |396| 
         0001e2 9A   
     599                      .dwpsn  file "../c5535_bsl_revc/ezdsp5535_v1/c55xx_csl/src/csl_sar.c",line 401,column 5,is_stmt
     600 0001e3 ED04          MOV dbl(*SP(#2)), XAR3
         0001e5 BF   
     601 0001e6 A977          MOV *AR3(short(#3)), AR1 ; |401| 
     602 0001e8 ED00          MOV dbl(*SP(#0)), XAR3
         0001ea BF   
     603 0001eb 7600          MOV #26, T0 ; |401| 
         0001ed 1A48 
     604 0001ef AB61          MOV *AR3, AR3 ; |401| 
     605 0001f1 C96B          MOV AR1, port(*AR3(T0)) ; |401| 
TMS320C55x Assembler PC v4.4.1 Fri Sep 14 03:54:53 2018

Tools Copyright (c) 1996-2012 Texas Instruments Incorporated
csl_sar.asm                                                          PAGE   14

         0001f3 9A   
     606                      .dwpsn  file "../c5535_bsl_revc/ezdsp5535_v1/c55xx_csl/src/csl_sar.c",line 403,column 5,is_stmt
     607 0001f4 3C04          MOV #0, T0
     608 0001f6       $C$L14:    
     609                      .dwpsn  file "../c5535_bsl_revc/ezdsp5535_v1/c55xx_csl/src/csl_sar.c",line 404,column 1,is_stmt
     610 0001f6 4E05          AADD #5, SP
     611                      .dwcfi  cfa_offset, 1
     612              $C$DW$27        .dwtag  DW_TAG_TI_branch
     613                      .dwattr $C$DW$27, DW_AT_low_pc(0x00)
     614                      .dwattr $C$DW$27, DW_AT_TI_return
     615 0001f8 4804          RET
     616                                                      ; return occurs
     617                      .dwattr $C$DW$22, DW_AT_TI_end_file("../c5535_bsl_revc/ezdsp5535_v1/c55xx_csl/src/csl_sar.c")
     618                      .dwattr $C$DW$22, DW_AT_TI_end_line(0x194)
     619                      .dwattr $C$DW$22, DW_AT_TI_end_column(0x01)
     620                      .dwendentry
     621                      .dwendtag $C$DW$22
     622              
     623 0001fa               .sect   ".text"
     624                      .align 4
     625                      .global _SAR_getConfig
     626              
     627              $C$DW$28        .dwtag  DW_TAG_subprogram, DW_AT_name("SAR_getConfig")
     628                      .dwattr $C$DW$28, DW_AT_low_pc(_SAR_getConfig)
     629                      .dwattr $C$DW$28, DW_AT_high_pc(0x00)
     630                      .dwattr $C$DW$28, DW_AT_TI_symbol_name("_SAR_getConfig")
     631                      .dwattr $C$DW$28, DW_AT_external
     632                      .dwattr $C$DW$28, DW_AT_type(*$C$DW$T$64)
     633                      .dwattr $C$DW$28, DW_AT_TI_begin_file("../c5535_bsl_revc/ezdsp5535_v1/c55xx_csl/src/csl_sar.c")
     634                      .dwattr $C$DW$28, DW_AT_TI_begin_line(0x1bf)
     635                      .dwattr $C$DW$28, DW_AT_TI_begin_column(0x0c)
     636                      .dwattr $C$DW$28, DW_AT_TI_max_frame_size(0x06)
     637                      .dwpsn  file "../c5535_bsl_revc/ezdsp5535_v1/c55xx_csl/src/csl_sar.c",line 451,column 1,is_stmt,addre
     638              
     639                      .dwfde $C$DW$CIE, _SAR_getConfig
     640              $C$DW$29        .dwtag  DW_TAG_formal_parameter, DW_AT_name("hSar")
     641                      .dwattr $C$DW$29, DW_AT_TI_symbol_name("_hSar")
     642                      .dwattr $C$DW$29, DW_AT_type(*$C$DW$T$54)
     643                      .dwattr $C$DW$29, DW_AT_location[DW_OP_reg17]
     644              $C$DW$30        .dwtag  DW_TAG_formal_parameter, DW_AT_name("pConfigParam")
     645                      .dwattr $C$DW$30, DW_AT_TI_symbol_name("_pConfigParam")
     646                      .dwattr $C$DW$30, DW_AT_type(*$C$DW$T$56)
     647                      .dwattr $C$DW$30, DW_AT_location[DW_OP_reg19]
     648              ;*******************************************************************************
     649              ;* FUNCTION NAME: SAR_getConfig                                                *
     650              ;*                                                                             *
     651              ;*   Function Uses Regs : AC0,AC0,AC1,AC1,T0,AR0,XAR0,AR1,XAR1,AR3,XAR3,SP,TC1,*
     652              ;*                        M40,SATA,SATD,RDM,FRCT,SMUL                          *
     653              ;*   Stack Frame        : Compact (No Frame Pointer, w/ debug)                 *
     654              ;*   Total Frame Size   : 6 words                                              *
     655              ;*                        (2 return address/alignment)                         *
     656              ;*                        (4 local values)                                     *
     657              ;*   Min System Stack   : 1 word                                               *
     658              ;*******************************************************************************
     659 0001fc       _SAR_getConfig:
TMS320C55x Assembler PC v4.4.1 Fri Sep 14 03:54:53 2018

Tools Copyright (c) 1996-2012 Texas Instruments Incorporated
csl_sar.asm                                                          PAGE   15

     660                      .dwcfi  cfa_offset, 1
     661                      .dwcfi  save_reg_to_mem, 91, -1
     662 0001fc 4EFB          AADD #-5, SP
     663                      .dwcfi  cfa_offset, 6
     664              $C$DW$31        .dwtag  DW_TAG_variable, DW_AT_name("hSar")
     665                      .dwattr $C$DW$31, DW_AT_TI_symbol_name("_hSar")
     666                      .dwattr $C$DW$31, DW_AT_type(*$C$DW$T$54)
     667                      .dwattr $C$DW$31, DW_AT_location[DW_OP_bregx 0x24 0]
     668              $C$DW$32        .dwtag  DW_TAG_variable, DW_AT_name("pConfigParam")
     669                      .dwattr $C$DW$32, DW_AT_TI_symbol_name("_pConfigParam")
     670                      .dwattr $C$DW$32, DW_AT_type(*$C$DW$T$56)
     671                      .dwattr $C$DW$32, DW_AT_location[DW_OP_bregx 0x24 2]
     672 0001fe EB04          MOV XAR1, dbl(*SP(#2))
         000200 95   
     673 000201 EB00          MOV XAR0, dbl(*SP(#0))
         000203 85   
     674                      .dwpsn  file "../c5535_bsl_revc/ezdsp5535_v1/c55xx_csl/src/csl_sar.c",line 452,column 5,is_stmt
     675 000204 ED00          MOV dbl(*SP(#0)), XAR3
         000206 BF   
     676              
     677 000207 90B0          MOV XAR3, AC0
     678 000209 3D01  ||      MOV #0, AC1 ; |452| 
     679              
     680 00020b 121C          CMPU AC1 != AC0, TC1 ; |452| 
         00020d 04   
     681 00020e 62E4          BCC $C$L15,TC1 ; |452| 
     682                                                      ; branchcc occurs ; |452| 
     683                      .dwpsn  file "../c5535_bsl_revc/ezdsp5535_v1/c55xx_csl/src/csl_sar.c",line 454,column 9,is_stmt
     684 000210 3E54          MOV #-5, T0
     685 000212 0600          B $C$L17  ; |454| 
         000214 55   
     686                                                      ; branch occurs ; |454| 
     687 000215       $C$L15:    
     688                      .dwpsn  file "../c5535_bsl_revc/ezdsp5535_v1/c55xx_csl/src/csl_sar.c",line 457,column 5,is_stmt
     689 000215 ED04          MOV dbl(*SP(#2)), XAR3
         000217 BF   
     690 000218 90B0          MOV XAR3, AC0
     691 00021a 121C          CMPU AC1 != AC0, TC1 ; |457| 
         00021c 04   
     692 00021d 62E4          BCC $C$L16,TC1 ; |457| 
     693                                                      ; branchcc occurs ; |457| 
     694                      .dwpsn  file "../c5535_bsl_revc/ezdsp5535_v1/c55xx_csl/src/csl_sar.c",line 459,column 9,is_stmt
     695 00021f 3E64          MOV #-6, T0
     696 000221 0600          B $C$L17  ; |459| 
         000223 46   
     697                                                      ; branch occurs ; |459| 
     698 000224       $C$L16:    
     699                      .dwpsn  file "../c5535_bsl_revc/ezdsp5535_v1/c55xx_csl/src/csl_sar.c",line 462,column 5,is_stmt
     700 000224 ED00          MOV dbl(*SP(#0)), XAR3
         000226 BF   
     701 000227 7600          MOV #18, T0 ; |462| 
         000229 1248 
     702 00022b AB61          MOV *AR3, AR3 ; |462| 
     703 00022d A96B          MOV port(*AR3(T0)), AR1 ; |462| 
         00022f 99   
TMS320C55x Assembler PC v4.4.1 Fri Sep 14 03:54:53 2018

Tools Copyright (c) 1996-2012 Texas Instruments Incorporated
csl_sar.asm                                                          PAGE   16

     704 000230 ED04          MOV dbl(*SP(#2)), XAR3
         000232 BF   
     705 000233 C961          MOV AR1, *AR3 ; |462| 
     706                      .dwpsn  file "../c5535_bsl_revc/ezdsp5535_v1/c55xx_csl/src/csl_sar.c",line 465,column 5,is_stmt
     707 000235 ED00          MOV dbl(*SP(#0)), XAR3
         000237 BF   
     708 000238 7600          MOV #22, T0 ; |465| 
         00023a 1648 
     709 00023c AB61          MOV *AR3, AR3 ; |465| 
     710 00023e A96B          MOV port(*AR3(T0)), AR1 ; |465| 
         000240 99   
     711 000241 ED04          MOV dbl(*SP(#2)), XAR3
         000243 BF   
     712 000244 C973          MOV AR1, *AR3(short(#1)) ; |465| 
     713                      .dwpsn  file "../c5535_bsl_revc/ezdsp5535_v1/c55xx_csl/src/csl_sar.c",line 468,column 5,is_stmt
     714 000246 ED00          MOV dbl(*SP(#0)), XAR3
         000248 BF   
     715 000249 7600          MOV #24, T0 ; |468| 
         00024b 1848 
     716 00024d AB61          MOV *AR3, AR3 ; |468| 
     717 00024f A96B          MOV port(*AR3(T0)), AR1 ; |468| 
         000251 99   
     718 000252 ED04          MOV dbl(*SP(#2)), XAR3
         000254 BF   
     719 000255 C975          MOV AR1, *AR3(short(#2)) ; |468| 
     720                      .dwpsn  file "../c5535_bsl_revc/ezdsp5535_v1/c55xx_csl/src/csl_sar.c",line 471,column 5,is_stmt
     721 000257 ED00          MOV dbl(*SP(#0)), XAR3
         000259 BF   
     722 00025a 7600          MOV #26, T0 ; |471| 
         00025c 1A48 
     723 00025e AB61          MOV *AR3, AR3 ; |471| 
     724 000260 A96B          MOV port(*AR3(T0)), AR1 ; |471| 
         000262 99   
     725 000263 ED04          MOV dbl(*SP(#2)), XAR3
         000265 BF   
     726 000266 C977          MOV AR1, *AR3(short(#3)) ; |471| 
     727                      .dwpsn  file "../c5535_bsl_revc/ezdsp5535_v1/c55xx_csl/src/csl_sar.c",line 473,column 5,is_stmt
     728 000268 3C04          MOV #0, T0
     729 00026a       $C$L17:    
     730                      .dwpsn  file "../c5535_bsl_revc/ezdsp5535_v1/c55xx_csl/src/csl_sar.c",line 474,column 1,is_stmt
     731 00026a 4E05          AADD #5, SP
     732                      .dwcfi  cfa_offset, 1
     733              $C$DW$33        .dwtag  DW_TAG_TI_branch
     734                      .dwattr $C$DW$33, DW_AT_low_pc(0x00)
     735                      .dwattr $C$DW$33, DW_AT_TI_return
     736 00026c 4804          RET
     737                                                      ; return occurs
     738                      .dwattr $C$DW$28, DW_AT_TI_end_file("../c5535_bsl_revc/ezdsp5535_v1/c55xx_csl/src/csl_sar.c")
     739                      .dwattr $C$DW$28, DW_AT_TI_end_line(0x1da)
     740                      .dwattr $C$DW$28, DW_AT_TI_end_column(0x01)
     741                      .dwendentry
     742                      .dwendtag $C$DW$28
     743              
     744 00026e               .sect   ".text"
     745                      .align 4
TMS320C55x Assembler PC v4.4.1 Fri Sep 14 03:54:53 2018

Tools Copyright (c) 1996-2012 Texas Instruments Incorporated
csl_sar.asm                                                          PAGE   17

     746                      .global _SAR_chanSetup
     747              
     748              $C$DW$34        .dwtag  DW_TAG_subprogram, DW_AT_name("SAR_chanSetup")
     749                      .dwattr $C$DW$34, DW_AT_low_pc(_SAR_chanSetup)
     750                      .dwattr $C$DW$34, DW_AT_high_pc(0x00)
     751                      .dwattr $C$DW$34, DW_AT_TI_symbol_name("_SAR_chanSetup")
     752                      .dwattr $C$DW$34, DW_AT_external
     753                      .dwattr $C$DW$34, DW_AT_type(*$C$DW$T$64)
     754                      .dwattr $C$DW$34, DW_AT_TI_begin_file("../c5535_bsl_revc/ezdsp5535_v1/c55xx_csl/src/csl_sar.c")
     755                      .dwattr $C$DW$34, DW_AT_TI_begin_line(0x205)
     756                      .dwattr $C$DW$34, DW_AT_TI_begin_column(0x0d)
     757                      .dwattr $C$DW$34, DW_AT_TI_max_frame_size(0x06)
     758                      .dwpsn  file "../c5535_bsl_revc/ezdsp5535_v1/c55xx_csl/src/csl_sar.c",line 521,column 1,is_stmt,addre
     759              
     760                      .dwfde $C$DW$CIE, _SAR_chanSetup
     761              $C$DW$35        .dwtag  DW_TAG_formal_parameter, DW_AT_name("hSar")
     762                      .dwattr $C$DW$35, DW_AT_TI_symbol_name("_hSar")
     763                      .dwattr $C$DW$35, DW_AT_type(*$C$DW$T$54)
     764                      .dwattr $C$DW$35, DW_AT_location[DW_OP_reg17]
     765              $C$DW$36        .dwtag  DW_TAG_formal_parameter, DW_AT_name("pSarParam")
     766                      .dwattr $C$DW$36, DW_AT_TI_symbol_name("_pSarParam")
     767                      .dwattr $C$DW$36, DW_AT_type(*$C$DW$T$58)
     768                      .dwattr $C$DW$36, DW_AT_location[DW_OP_reg19]
     769              ;*******************************************************************************
     770              ;* FUNCTION NAME: SAR_chanSetup                                                *
     771              ;*                                                                             *
     772              ;*   Function Uses Regs : AC0,AC0,AC1,AC1,T0,AR0,XAR0,AR1,XAR1,AR2,AR3,XAR3,SP,*
     773              ;*                        TC1,M40,SATA,SATD,RDM,FRCT,SMUL                      *
     774              ;*   Stack Frame        : Compact (No Frame Pointer, w/ debug)                 *
     775              ;*   Total Frame Size   : 6 words                                              *
     776              ;*                        (1 return address/alignment)                         *
     777              ;*                        (5 local values)                                     *
     778              ;*   Min System Stack   : 1 word                                               *
     779              ;*******************************************************************************
     780 000270       _SAR_chanSetup:
     781                      .dwcfi  cfa_offset, 1
     782                      .dwcfi  save_reg_to_mem, 91, -1
     783 000270 4EFB          AADD #-5, SP
     784                      .dwcfi  cfa_offset, 6
     785              $C$DW$37        .dwtag  DW_TAG_variable, DW_AT_name("hSar")
     786                      .dwattr $C$DW$37, DW_AT_TI_symbol_name("_hSar")
     787                      .dwattr $C$DW$37, DW_AT_type(*$C$DW$T$54)
     788                      .dwattr $C$DW$37, DW_AT_location[DW_OP_bregx 0x24 0]
     789              $C$DW$38        .dwtag  DW_TAG_variable, DW_AT_name("pSarParam")
     790                      .dwattr $C$DW$38, DW_AT_TI_symbol_name("_pSarParam")
     791                      .dwattr $C$DW$38, DW_AT_type(*$C$DW$T$58)
     792                      .dwattr $C$DW$38, DW_AT_location[DW_OP_bregx 0x24 2]
     793              $C$DW$39        .dwtag  DW_TAG_variable, DW_AT_name("clkDivider")
     794                      .dwattr $C$DW$39, DW_AT_TI_symbol_name("_clkDivider")
     795                      .dwattr $C$DW$39, DW_AT_type(*$C$DW$T$19)
     796                      .dwattr $C$DW$39, DW_AT_location[DW_OP_bregx 0x24 4]
     797 000272 EB04          MOV XAR1, dbl(*SP(#2))
         000274 95   
     798 000275 EB00          MOV XAR0, dbl(*SP(#0))
         000277 85   
TMS320C55x Assembler PC v4.4.1 Fri Sep 14 03:54:53 2018

Tools Copyright (c) 1996-2012 Texas Instruments Incorporated
csl_sar.asm                                                          PAGE   18

     799                      .dwpsn  file "../c5535_bsl_revc/ezdsp5535_v1/c55xx_csl/src/csl_sar.c",line 522,column 12,is_stmt
     800 000278 E608          MOV #0, *SP(#4) ; |522| 
         00027a 00   
     801                      .dwpsn  file "../c5535_bsl_revc/ezdsp5535_v1/c55xx_csl/src/csl_sar.c",line 523,column 5,is_stmt
     802 00027b ED00          MOV dbl(*SP(#0)), XAR3
         00027d BF   
     803              
     804 00027e 90B0          MOV XAR3, AC0
     805 000280 3D01  ||      MOV #0, AC1 ; |523| 
     806              
     807 000282 121C          CMPU AC1 != AC0, TC1 ; |523| 
         000284 04   
     808 000285 62E4          BCC $C$L18,TC1 ; |523| 
     809                                                      ; branchcc occurs ; |523| 
     810                      .dwpsn  file "../c5535_bsl_revc/ezdsp5535_v1/c55xx_csl/src/csl_sar.c",line 525,column 9,is_stmt
     811 000287 3E54          MOV #-5, T0
     812 000289 0601          B $C$L31  ; |525| 
         00028b F4   
     813                                                      ; branch occurs ; |525| 
     814 00028c       $C$L18:    
     815                      .dwpsn  file "../c5535_bsl_revc/ezdsp5535_v1/c55xx_csl/src/csl_sar.c",line 528,column 5,is_stmt
     816 00028c ED04          MOV dbl(*SP(#2)), XAR3
         00028e BF   
     817 00028f 90B0          MOV XAR3, AC0
     818 000291 121C          CMPU AC1 != AC0, TC1 ; |528| 
         000293 04   
     819 000294 62E4          BCC $C$L19,TC1 ; |528| 
     820                                                      ; branchcc occurs ; |528| 
     821                      .dwpsn  file "../c5535_bsl_revc/ezdsp5535_v1/c55xx_csl/src/csl_sar.c",line 530,column 9,is_stmt
     822 000296 3E64          MOV #-6, T0
     823 000298 0601          B $C$L31  ; |530| 
         00029a E5   
     824                                                      ; branch occurs ; |530| 
     825 00029b       $C$L19:    
     826                      .dwpsn  file "../c5535_bsl_revc/ezdsp5535_v1/c55xx_csl/src/csl_sar.c",line 533,column 5,is_stmt
     827 00029b A961          MOV *AR3, AR1 ; |533| 
     828 00029d C908          MOV AR1, *SP(#4) ; |533| 
     829                      .dwpsn  file "../c5535_bsl_revc/ezdsp5535_v1/c55xx_csl/src/csl_sar.c",line 534,column 5,is_stmt
     830 00029f 7600          MOV #127, AR2 ; |534| 
         0002a1 7FA8 
     831 0002a3 12A8          CMPU AR1 <= AR2, TC1 ; |534| 
         0002a5 94   
     832 0002a6 62E4          BCC $C$L20,TC1 ; |534| 
     833                                                      ; branchcc occurs ; |534| 
     834                      .dwpsn  file "../c5535_bsl_revc/ezdsp5535_v1/c55xx_csl/src/csl_sar.c",line 536,column 10,is_stmt
     835 0002a8 3E64          MOV #-6, T0
     836 0002aa 0601          B $C$L31  ; |536| 
         0002ac D3   
     837                                                      ; branch occurs ; |536| 
     838 0002ad       $C$L20:    
     839                      .dwpsn  file "../c5535_bsl_revc/ezdsp5535_v1/c55xx_csl/src/csl_sar.c",line 540,column 5,is_stmt
     840 0002ad ED00          MOV dbl(*SP(#0)), XAR3
         0002af BF   
     841 0002b0 7600          MOV #22, T0 ; |540| 
         0002b2 1648 
TMS320C55x Assembler PC v4.4.1 Fri Sep 14 03:54:53 2018

Tools Copyright (c) 1996-2012 Texas Instruments Incorporated
csl_sar.asm                                                          PAGE   19

     842 0002b4 AB61          MOV *AR3, AR3 ; |540| 
     843 0002b6 E66B          MOV #0, port(*AR3(T0)) ; |540| 
         0002b8 00   
         0002b9 9A   
     844                      .dwpsn  file "../c5535_bsl_revc/ezdsp5535_v1/c55xx_csl/src/csl_sar.c",line 542,column 5,is_stmt
     845 0002ba ED00          MOV dbl(*SP(#0)), XAR3
         0002bc BF   
     846 0002bd AB61          MOV *AR3, AR3 ; |542| 
     847 0002bf A96B          MOV port(*AR3(T0)), AR1 ; |542| 
         0002c1 99   
     848 0002c2 ED00          MOV dbl(*SP(#0)), XAR3
         0002c4 BF   
     849 0002c5 AB61          MOV *AR3, AR3 ; |542| 
     850 0002c7 7D80          AND #0x8000, AR1, AR2 ; |542| 
         0002c9 00A9 
     851 0002cb A908          MOV *SP(#4), AR1 ; |542| 
     852 0002cd EC1E          BCLR @#15, AR1 ; |542| 
         0002cf 92   
     853 0002d0 2AA9          OR AR2, AR1 ; |542| 
     854 0002d2 C96B          MOV AR1, port(*AR3(T0)) ; |542| 
         0002d4 9A   
     855                      .dwpsn  file "../c5535_bsl_revc/ezdsp5535_v1/c55xx_csl/src/csl_sar.c",line 545,column 5,is_stmt
     856 0002d5 ED00          MOV dbl(*SP(#0)), XAR3
         0002d7 BF   
     857 0002d8 7600          MOV #24, T0 ; |545| 
         0002da 1848 
     858 0002dc AB61          MOV *AR3, AR3 ; |545| 
     859 0002de A96B          MOV port(*AR3(T0)), AR1 ; |545| 
         0002e0 99   
     860 0002e1 ED00          MOV dbl(*SP(#0)), XAR3
         0002e3 BF   
     861 0002e4 AB61          MOV *AR3, AR3 ; |545| 
     862 0002e6 EC18          BCLR @#12, AR1 ; |545| 
         0002e8 92   
     863 0002e9 EC18          BSET @#12, AR1 ; |545| 
         0002eb 90   
     864 0002ec C96B          MOV AR1, port(*AR3(T0)) ; |545| 
         0002ee 9A   
     865                      .dwpsn  file "../c5535_bsl_revc/ezdsp5535_v1/c55xx_csl/src/csl_sar.c",line 547,column 5,is_stmt
     866 0002ef ED00          MOV dbl(*SP(#0)), XAR3
         0002f1 BF   
     867 0002f2 AB61          MOV *AR3, AR3 ; |547| 
     868 0002f4 A96B          MOV port(*AR3(T0)), AR1 ; |547| 
         0002f6 99   
     869 0002f7 ED00          MOV dbl(*SP(#0)), XAR3
         0002f9 BF   
     870 0002fa AB61          MOV *AR3, AR3 ; |547| 
     871 0002fc EC1A          BCLR @#13, AR1 ; |547| 
         0002fe 92   
     872 0002ff EC1A          BSET @#13, AR1 ; |547| 
         000301 90   
     873 000302 C96B          MOV AR1, port(*AR3(T0)) ; |547| 
         000304 9A   
     874                      .dwpsn  file "../c5535_bsl_revc/ezdsp5535_v1/c55xx_csl/src/csl_sar.c",line 549,column 5,is_stmt
     875 000305 ED00          MOV dbl(*SP(#0)), XAR3
TMS320C55x Assembler PC v4.4.1 Fri Sep 14 03:54:53 2018

Tools Copyright (c) 1996-2012 Texas Instruments Incorporated
csl_sar.asm                                                          PAGE   20

         000307 BF   
     876 000308 AB61          MOV *AR3, AR3 ; |549| 
     877 00030a A96B          MOV port(*AR3(T0)), AR1 ; |549| 
         00030c 99   
     878 00030d ED00          MOV dbl(*SP(#0)), XAR3
         00030f BF   
     879 000310 AB61          MOV *AR3, AR3 ; |549| 
     880 000312 EC06          BCLR @#3, AR1 ; |549| 
         000314 92   
     881 000315 C96B          MOV AR1, port(*AR3(T0)) ; |549| 
         000317 9A   
     882                      .dwpsn  file "../c5535_bsl_revc/ezdsp5535_v1/c55xx_csl/src/csl_sar.c",line 552,column 5,is_stmt
     883 000318 0600          B $C$L25  ; |552| 
         00031a 4B   
     884                                                      ; branch occurs ; |552| 
     885 00031b       $C$L21:    
     886                      .dwpsn  file "../c5535_bsl_revc/ezdsp5535_v1/c55xx_csl/src/csl_sar.c",line 557,column 9,is_stmt
     887 00031b ED00          MOV dbl(*SP(#0)), XAR3
         00031d BF   
     888 00031e AB61          MOV *AR3, AR3 ; |557| 
     889 000320 A96B          MOV port(*AR3(T0)), AR1 ; |557| 
         000322 99   
     890 000323 ED00          MOV dbl(*SP(#0)), XAR3
         000325 BF   
     891 000326 AB61          MOV *AR3, AR3 ; |557| 
     892 000328 EC1C          BCLR @#14, AR1 ; |557| 
         00032a 92   
     893 00032b C96B          MOV AR1, port(*AR3(T0)) ; |557| 
         00032d 9A   
     894                      .dwpsn  file "../c5535_bsl_revc/ezdsp5535_v1/c55xx_csl/src/csl_sar.c",line 559,column 14,is_stmt
     895 00032e 0600          B $C$L26  ; |559| 
         000330 4F   
     896                                                      ; branch occurs ; |559| 
     897 000331       $C$L22:    
     898                      .dwpsn  file "../c5535_bsl_revc/ezdsp5535_v1/c55xx_csl/src/csl_sar.c",line 564,column 9,is_stmt
     899 000331 ED00          MOV dbl(*SP(#0)), XAR3
         000333 BF   
     900 000334 AB61          MOV *AR3, AR3 ; |564| 
     901 000336 A96B          MOV port(*AR3(T0)), AR1 ; |564| 
         000338 99   
     902 000339 ED00          MOV dbl(*SP(#0)), XAR3
         00033b BF   
     903 00033c AB61          MOV *AR3, AR3 ; |564| 
     904 00033e EC1C          BCLR @#14, AR1 ; |564| 
         000340 92   
     905 000341 EC1C          BSET @#14, AR1 ; |564| 
         000343 90   
     906 000344 C96B          MOV AR1, port(*AR3(T0)) ; |564| 
         000346 9A   
     907                      .dwpsn  file "../c5535_bsl_revc/ezdsp5535_v1/c55xx_csl/src/csl_sar.c",line 566,column 14,is_stmt
     908 000347 4A37          B $C$L26  ; |566| 
     909                                                      ; branch occurs ; |566| 
     910 000349       $C$L23:    
     911                      .dwpsn  file "../c5535_bsl_revc/ezdsp5535_v1/c55xx_csl/src/csl_sar.c",line 571,column 9,is_stmt
     912 000349 ED00          MOV dbl(*SP(#0)), XAR3
TMS320C55x Assembler PC v4.4.1 Fri Sep 14 03:54:53 2018

Tools Copyright (c) 1996-2012 Texas Instruments Incorporated
csl_sar.asm                                                          PAGE   21

         00034b BF   
     913 00034c AB61          MOV *AR3, AR3 ; |571| 
     914 00034e A96B          MOV port(*AR3(T0)), AR1 ; |571| 
         000350 99   
     915 000351 ED00          MOV dbl(*SP(#0)), XAR3
         000353 BF   
     916 000354 AB61          MOV *AR3, AR3 ; |571| 
     917 000356 EC1C          BCLR @#14, AR1 ; |571| 
         000358 92   
     918 000359 EC1C          BSET @#14, AR1 ; |571| 
         00035b 90   
     919 00035c C96B          MOV AR1, port(*AR3(T0)) ; |571| 
         00035e 9A   
     920                      .dwpsn  file "../c5535_bsl_revc/ezdsp5535_v1/c55xx_csl/src/csl_sar.c",line 574,column 14,is_stmt
     921 00035f 4A1F          B $C$L26  ; |574| 
     922                                                      ; branch occurs ; |574| 
     923 000361       $C$L24:    
     924                      .dwpsn  file "../c5535_bsl_revc/ezdsp5535_v1/c55xx_csl/src/csl_sar.c",line 577,column 5,is_stmt
     925 000361 3E64          MOV #-6, T0
     926 000363 0601          B $C$L31  ; |577| 
         000365 1A   
     927                                                      ; branch occurs ; |577| 
     928 000366       $C$L25:    
     929                      .dwpsn  file "../c5535_bsl_revc/ezdsp5535_v1/c55xx_csl/src/csl_sar.c",line 552,column 5,is_stmt
     930 000366 ED04          MOV dbl(*SP(#2)), XAR3
         000368 BF   
     931 000369 A973          MOV *AR3(short(#1)), AR1 ; |552| 
     932 00036b 0409          BCC $C$L21,AR1 == #0 ; |552| 
         00036d AD   
     933                                                      ; branchcc occurs ; |552| 
     934 00036e 3C1A          MOV #1, AR2
     935 000370 1290          CMP AR1 == AR2, TC1 ; |552| 
         000372 A0   
     936 000373 0464          BCC $C$L22,TC1 ; |552| 
         000375 BB   
     937                                                      ; branchcc occurs ; |552| 
     938 000376 3C2A          MOV #2, AR2
     939 000378 1290          CMP AR1 == AR2, TC1 ; |552| 
         00037a A0   
     940 00037b 0464          BCC $C$L23,TC1 ; |552| 
         00037d CB   
     941                                                      ; branchcc occurs ; |552| 
     942 00037e 4A61          B $C$L24  ; |552| 
     943                                                      ; branch occurs ; |552| 
     944 000380       $C$L26:    
     945                      .dwpsn  file "../c5535_bsl_revc/ezdsp5535_v1/c55xx_csl/src/csl_sar.c",line 581,column 5,is_stmt
     946 000380 ED04          MOV dbl(*SP(#2)), XAR3
         000382 BF   
     947              
     948 000383 A977          MOV *AR3(short(#3)), AR1 ; |581| 
     949 000385 3D2A  ||      MOV #2, AR2
     950              
     951 000387 12A0          CMP AR2 == AR1, TC1 ; |581| 
         000389 90   
     952 00038a 0464          BCC $C$L27,TC1 ; |581| 
TMS320C55x Assembler PC v4.4.1 Fri Sep 14 03:54:53 2018

Tools Copyright (c) 1996-2012 Texas Instruments Incorporated
csl_sar.asm                                                          PAGE   22

         00038c 17   
     953                                                      ; branchcc occurs ; |581| 
     954              
     955 00038f 3D0A          MOV #0, AR2
     956 00038d A977  ||      MOV *AR3(short(#3)), AR1 ; |581| 
     957              
     958 000391 12A0          CMP AR2 == AR1, TC1 ; |581| 
         000393 90   
     959 000394 6764          BCC $C$L27,TC1 ; |581| 
     960                                                      ; branchcc occurs ; |581| 
     961              
     962 000398 3D1A          MOV #1, AR2
     963 000396 A977  ||      MOV *AR3(short(#3)), AR1 ; |581| 
     964              
     965 00039a 12A0          CMP AR2 == AR1, TC1 ; |581| 
         00039c 90   
     966 00039d 62E4          BCC $C$L27,TC1 ; |581| 
     967                                                      ; branchcc occurs ; |581| 
     968                      .dwpsn  file "../c5535_bsl_revc/ezdsp5535_v1/c55xx_csl/src/csl_sar.c",line 585,column 9,is_stmt
     969 00039f 3E64          MOV #-6, T0
     970 0003a1 0600          B $C$L31  ; |585| 
         0003a3 DC   
     971                                                      ; branch occurs ; |585| 
     972 0003a4       $C$L27:    
     973                      .dwpsn  file "../c5535_bsl_revc/ezdsp5535_v1/c55xx_csl/src/csl_sar.c",line 588,column 5,is_stmt
     974              
     975 0003a6 3D2A          MOV #2, AR2
     976 0003a4 A977  ||      MOV *AR3(short(#3)), AR1 ; |588| 
     977              
     978 0003a8 12AC          CMP AR2 != AR1, TC1 ; |588| 
         0003aa 90   
     979 0003ab 0464          BCC $C$L28,TC1 ; |588| 
         0003ad 2C   
     980                                                      ; branchcc occurs ; |588| 
     981                      .dwpsn  file "../c5535_bsl_revc/ezdsp5535_v1/c55xx_csl/src/csl_sar.c",line 591,column 9,is_stmt
     982 0003ae ED00          MOV dbl(*SP(#0)), XAR3
         0003b0 BF   
     983 0003b1 AB61          MOV *AR3, AR3 ; |591| 
     984 0003b3 A96B          MOV port(*AR3(T0)), AR1 ; |591| 
         0003b5 99   
     985 0003b6 ED00          MOV dbl(*SP(#0)), XAR3
         0003b8 BF   
     986 0003b9 AB61          MOV *AR3, AR3 ; |591| 
     987 0003bb EC10          BCLR @#8, AR1 ; |591| 
         0003bd 92   
     988 0003be EC10          BSET @#8, AR1 ; |591| 
         0003c0 90   
     989 0003c1 C96B          MOV AR1, port(*AR3(T0)) ; |591| 
         0003c3 9A   
     990                      .dwpsn  file "../c5535_bsl_revc/ezdsp5535_v1/c55xx_csl/src/csl_sar.c",line 595,column 9,is_stmt
     991 0003c4 ED00          MOV dbl(*SP(#0)), XAR3
         0003c6 BF   
     992 0003c7 AB61          MOV *AR3, AR3 ; |595| 
     993 0003c9 A96B          MOV port(*AR3(T0)), AR1 ; |595| 
         0003cb 99   
TMS320C55x Assembler PC v4.4.1 Fri Sep 14 03:54:53 2018

Tools Copyright (c) 1996-2012 Texas Instruments Incorporated
csl_sar.asm                                                          PAGE   23

     994 0003cc ED00          MOV dbl(*SP(#0)), XAR3
         0003ce BF   
     995 0003cf AB61          MOV *AR3, AR3 ; |595| 
     996 0003d1 EC14          BCLR @#10, AR1 ; |595| 
         0003d3 92   
     997 0003d4 C96B          MOV AR1, port(*AR3(T0)) ; |595| 
         0003d6 9A   
     998                      .dwpsn  file "../c5535_bsl_revc/ezdsp5535_v1/c55xx_csl/src/csl_sar.c",line 598,column 5,is_stmt
     999 0003d7 0600          B $C$L29  ; |598| 
         0003d9 49   
    1000                                                      ; branch occurs ; |598| 
    1001 0003da       $C$L28:    
    1002                      .dwpsn  file "../c5535_bsl_revc/ezdsp5535_v1/c55xx_csl/src/csl_sar.c",line 602,column 9,is_stmt
    1003 0003da ED00          MOV dbl(*SP(#0)), XAR3
         0003dc BF   
    1004 0003dd AB61          MOV *AR3, AR3 ; |602| 
    1005 0003df A96B          MOV port(*AR3(T0)), AR1 ; |602| 
         0003e1 99   
    1006 0003e2 ED00          MOV dbl(*SP(#0)), XAR3
         0003e4 BF   
    1007 0003e5 AB61          MOV *AR3, AR3 ; |602| 
    1008 0003e7 EC10          BCLR @#8, AR1 ; |602| 
         0003e9 92   
    1009 0003ea C96B          MOV AR1, port(*AR3(T0)) ; |602| 
         0003ec 9A   
    1010                      .dwpsn  file "../c5535_bsl_revc/ezdsp5535_v1/c55xx_csl/src/csl_sar.c",line 605,column 9,is_stmt
    1011 0003ed ED00          MOV dbl(*SP(#0)), XAR3
         0003ef BF   
    1012 0003f0 AB61          MOV *AR3, AR3 ; |605| 
    1013 0003f2 A96B          MOV port(*AR3(T0)), AR1 ; |605| 
         0003f4 99   
    1014 0003f5 ED00          MOV dbl(*SP(#0)), XAR3
         0003f7 BF   
    1015 0003f8 AB61          MOV *AR3, AR3 ; |605| 
    1016 0003fa EC14          BCLR @#10, AR1 ; |605| 
         0003fc 92   
    1017 0003fd EC14          BSET @#10, AR1 ; |605| 
         0003ff 90   
    1018 000400 C96B          MOV AR1, port(*AR3(T0)) ; |605| 
         000402 9A   
    1019                      .dwpsn  file "../c5535_bsl_revc/ezdsp5535_v1/c55xx_csl/src/csl_sar.c",line 608,column 9,is_stmt
    1020 000403 ED00          MOV dbl(*SP(#0)), XAR3
         000405 BF   
    1021 000406 AB61          MOV *AR3, AR3 ; |608| 
    1022 000408 A96B          MOV port(*AR3(T0)), AR1 ; |608| 
         00040a 99   
    1023 00040b ED04          MOV dbl(*SP(#2)), XAR3
         00040d BF   
    1024 00040e F977          MOV *AR3(short(#3)) << #9, AC0 ; |608| 
         000410 0908 
    1025 000412 ED00          MOV dbl(*SP(#0)), XAR3
         000414 BF   
    1026 000415 AB61          MOV *AR3, AR3 ; |608| 
    1027 000417 EC12          BCLR @#9, AR1 ; |608| 
         000419 92   
TMS320C55x Assembler PC v4.4.1 Fri Sep 14 03:54:53 2018

Tools Copyright (c) 1996-2012 Texas Instruments Incorporated
csl_sar.asm                                                          PAGE   24

    1028 00041a 7D02          AND #0x0200, AC0, AR2 ; |608| 
         00041c 00A0 
    1029 00041e 2A9A          OR AR1, AR2 ; |608| 
    1030 000420 CA6B          MOV AR2, port(*AR3(T0)) ; |608| 
         000422 9A   
    1031 000423       $C$L29:    
    1032                      .dwpsn  file "../c5535_bsl_revc/ezdsp5535_v1/c55xx_csl/src/csl_sar.c",line 614,column 5,is_stmt
    1033 000423 ED00          MOV dbl(*SP(#0)), XAR3
         000425 BF   
    1034 000426 AB61          MOV *AR3, AR3 ; |614| 
    1035 000428 A96B          MOV port(*AR3(T0)), AR1 ; |614| 
         00042a 99   
    1036 00042b ED00          MOV dbl(*SP(#0)), XAR3
         00042d BF   
    1037 00042e AB61          MOV *AR3, AR3 ; |614| 
    1038 000430 EC02          BCLR @#1, AR1 ; |614| 
         000432 92   
    1039 000433 C96B          MOV AR1, port(*AR3(T0)) ; |614| 
         000435 9A   
    1040                      .dwpsn  file "../c5535_bsl_revc/ezdsp5535_v1/c55xx_csl/src/csl_sar.c",line 616,column 5,is_stmt
    1041 000436 ED00          MOV dbl(*SP(#0)), XAR3
         000438 BF   
    1042 000439 AB61          MOV *AR3, AR3 ; |616| 
    1043 00043b A96B          MOV port(*AR3(T0)), AR1 ; |616| 
         00043d 99   
    1044 00043e ED00          MOV dbl(*SP(#0)), XAR3
         000440 BF   
    1045 000441 AB61          MOV *AR3, AR3 ; |616| 
    1046 000443 EC00          BCLR @#0, AR1 ; |616| 
         000445 92   
    1047 000446 C96B          MOV AR1, port(*AR3(T0)) ; |616| 
         000448 9A   
    1048                      .dwpsn  file "../c5535_bsl_revc/ezdsp5535_v1/c55xx_csl/src/csl_sar.c",line 619,column 5,is_stmt
    1049 000449 ED04          MOV dbl(*SP(#2)), XAR3
         00044b BF   
    1050 00044c A975          MOV *AR3(short(#2)), AR1 ; |619| 
    1051 00044e 6509          BCC $C$L30,AR1 == #0 ; |619| 
    1052                                                      ; branchcc occurs ; |619| 
    1053 000450 F075          CMP *AR3(short(#2)) == #1, TC1 ; |619| 
         000452 0001 
    1054 000454 6264          BCC $C$L30,TC1 ; |619| 
    1055                                                      ; branchcc occurs ; |619| 
    1056                      .dwpsn  file "../c5535_bsl_revc/ezdsp5535_v1/c55xx_csl/src/csl_sar.c",line 622,column 9,is_stmt
    1057 000456 3E64          MOV #-6, T0
    1058 000458 4A26          B $C$L31  ; |622| 
    1059                                                      ; branch occurs ; |622| 
    1060 00045a       $C$L30:    
    1061                      .dwpsn  file "../c5535_bsl_revc/ezdsp5535_v1/c55xx_csl/src/csl_sar.c",line 625,column 5,is_stmt
    1062 00045a ED00          MOV dbl(*SP(#0)), XAR3
         00045c BF   
    1063 00045d 7600          MOV #18, T0 ; |625| 
         00045f 1248 
    1064 000461 AB61          MOV *AR3, AR3 ; |625| 
    1065 000463 A96B          MOV port(*AR3(T0)), AR1 ; |625| 
         000465 99   
TMS320C55x Assembler PC v4.4.1 Fri Sep 14 03:54:53 2018

Tools Copyright (c) 1996-2012 Texas Instruments Incorporated
csl_sar.asm                                                          PAGE   25

    1066 000466 ED04          MOV dbl(*SP(#2)), XAR3
         000468 BF   
    1067 000469 F975          MOV *AR3(short(#2)) << #11, AC0 ; |625| 
         00046b 0B08 
    1068 00046d ED00          MOV dbl(*SP(#0)), XAR3
         00046f BF   
    1069 000470 AB61          MOV *AR3, AR3 ; |625| 
    1070 000472 EC16          BCLR @#11, AR1 ; |625| 
         000474 92   
    1071 000475 7D08          AND #0x0800, AC0, AR2 ; |625| 
         000477 00A0 
    1072 000479 2A9A          OR AR1, AR2 ; |625| 
    1073 00047b CA6B          MOV AR2, port(*AR3(T0)) ; |625| 
         00047d 9A   
    1074                      .dwpsn  file "../c5535_bsl_revc/ezdsp5535_v1/c55xx_csl/src/csl_sar.c",line 628,column 5,is_stmt
    1075 00047e 3C04          MOV #0, T0
    1076 000480       $C$L31:    
    1077                      .dwpsn  file "../c5535_bsl_revc/ezdsp5535_v1/c55xx_csl/src/csl_sar.c",line 629,column 1,is_stmt
    1078 000480 4E05          AADD #5, SP
    1079                      .dwcfi  cfa_offset, 1
    1080              $C$DW$40        .dwtag  DW_TAG_TI_branch
    1081                      .dwattr $C$DW$40, DW_AT_low_pc(0x00)
    1082                      .dwattr $C$DW$40, DW_AT_TI_return
    1083 000482 4804          RET
    1084                                                      ; return occurs
    1085                      .dwattr $C$DW$34, DW_AT_TI_end_file("../c5535_bsl_revc/ezdsp5535_v1/c55xx_csl/src/csl_sar.c")
    1086                      .dwattr $C$DW$34, DW_AT_TI_end_line(0x275)
    1087                      .dwattr $C$DW$34, DW_AT_TI_end_column(0x01)
    1088                      .dwendentry
    1089                      .dwendtag $C$DW$34
    1090              
    1091 000484               .sect   ".text"
    1092                      .align 4
    1093                      .global _SAR_chanCycSet
    1094              
    1095              $C$DW$41        .dwtag  DW_TAG_subprogram, DW_AT_name("SAR_chanCycSet")
    1096                      .dwattr $C$DW$41, DW_AT_low_pc(_SAR_chanCycSet)
    1097                      .dwattr $C$DW$41, DW_AT_high_pc(0x00)
    1098                      .dwattr $C$DW$41, DW_AT_TI_symbol_name("_SAR_chanCycSet")
    1099                      .dwattr $C$DW$41, DW_AT_external
    1100                      .dwattr $C$DW$41, DW_AT_type(*$C$DW$T$64)
    1101                      .dwattr $C$DW$41, DW_AT_TI_begin_file("../c5535_bsl_revc/ezdsp5535_v1/c55xx_csl/src/csl_sar.c")
    1102                      .dwattr $C$DW$41, DW_AT_TI_begin_line(0x2a4)
    1103                      .dwattr $C$DW$41, DW_AT_TI_begin_column(0x0c)
    1104                      .dwattr $C$DW$41, DW_AT_TI_max_frame_size(0x04)
    1105                      .dwpsn  file "../c5535_bsl_revc/ezdsp5535_v1/c55xx_csl/src/csl_sar.c",line 681,column 1,is_stmt,addre
    1106              
    1107                      .dwfde $C$DW$CIE, _SAR_chanCycSet
    1108              $C$DW$42        .dwtag  DW_TAG_formal_parameter, DW_AT_name("hSar")
    1109                      .dwattr $C$DW$42, DW_AT_TI_symbol_name("_hSar")
    1110                      .dwattr $C$DW$42, DW_AT_type(*$C$DW$T$54)
    1111                      .dwattr $C$DW$42, DW_AT_location[DW_OP_reg17]
    1112              $C$DW$43        .dwtag  DW_TAG_formal_parameter, DW_AT_name("cycSelect")
    1113                      .dwattr $C$DW$43, DW_AT_TI_symbol_name("_cycSelect")
    1114                      .dwattr $C$DW$43, DW_AT_type(*$C$DW$T$45)
TMS320C55x Assembler PC v4.4.1 Fri Sep 14 03:54:53 2018

Tools Copyright (c) 1996-2012 Texas Instruments Incorporated
csl_sar.asm                                                          PAGE   26

    1115                      .dwattr $C$DW$43, DW_AT_location[DW_OP_reg12]
    1116              ;*******************************************************************************
    1117              ;* FUNCTION NAME: SAR_chanCycSet                                               *
    1118              ;*                                                                             *
    1119              ;*   Function Uses Regs : AC0,AC0,AC1,AC1,T0,AR0,XAR0,AR1,AR2,AR3,XAR3,SP,TC1, *
    1120              ;*                        M40,SATA,SATD,RDM,FRCT,SMUL                          *
    1121              ;*   Stack Frame        : Compact (No Frame Pointer, w/ debug)                 *
    1122              ;*   Total Frame Size   : 4 words                                              *
    1123              ;*                        (1 return address/alignment)                         *
    1124              ;*                        (3 local values)                                     *
    1125              ;*   Min System Stack   : 1 word                                               *
    1126              ;*******************************************************************************
    1127 000484       _SAR_chanCycSet:
    1128                      .dwcfi  cfa_offset, 1
    1129                      .dwcfi  save_reg_to_mem, 91, -1
    1130 000484 4EFD          AADD #-3, SP
    1131                      .dwcfi  cfa_offset, 4
    1132              $C$DW$44        .dwtag  DW_TAG_variable, DW_AT_name("hSar")
    1133                      .dwattr $C$DW$44, DW_AT_TI_symbol_name("_hSar")
    1134                      .dwattr $C$DW$44, DW_AT_type(*$C$DW$T$54)
    1135                      .dwattr $C$DW$44, DW_AT_location[DW_OP_bregx 0x24 0]
    1136              $C$DW$45        .dwtag  DW_TAG_variable, DW_AT_name("cycSelect")
    1137                      .dwattr $C$DW$45, DW_AT_TI_symbol_name("_cycSelect")
    1138                      .dwattr $C$DW$45, DW_AT_type(*$C$DW$T$45)
    1139                      .dwattr $C$DW$45, DW_AT_location[DW_OP_bregx 0x24 2]
    1140 000486 C404          MOV T0, *SP(#2) ; |681| 
    1141 000488 EB00          MOV XAR0, dbl(*SP(#0))
         00048a 85   
    1142                      .dwpsn  file "../c5535_bsl_revc/ezdsp5535_v1/c55xx_csl/src/csl_sar.c",line 682,column 5,is_stmt
    1143 00048b ED00          MOV dbl(*SP(#0)), XAR3
         00048d BF   
    1144              
    1145 00048e 90B0          MOV XAR3, AC0
    1146 000490 3D01  ||      MOV #0, AC1 ; |682| 
    1147              
    1148 000492 121C          CMPU AC1 != AC0, TC1 ; |682| 
         000494 04   
    1149 000495 6264          BCC $C$L32,TC1 ; |682| 
    1150                                                      ; branchcc occurs ; |682| 
    1151                      .dwpsn  file "../c5535_bsl_revc/ezdsp5535_v1/c55xx_csl/src/csl_sar.c",line 684,column 9,is_stmt
    1152 000497 3E54          MOV #-5, T0
    1153 000499 4A34          B $C$L34  ; |684| 
    1154                                                      ; branch occurs ; |684| 
    1155 00049b       $C$L32:    
    1156                      .dwpsn  file "../c5535_bsl_revc/ezdsp5535_v1/c55xx_csl/src/csl_sar.c",line 687,column 5,is_stmt
    1157              
    1158 00049d 3D0A          MOV #0, AR2
    1159 00049b A904  ||      MOV *SP(#2), AR1 ; |687| 
    1160              
    1161 00049f 12A0          CMP AR2 == AR1, TC1 ; |687| 
         0004a1 90   
    1162 0004a2 65E4          BCC $C$L33,TC1 ; |687| 
    1163                                                      ; branchcc occurs ; |687| 
    1164 0004a4 3C1A          MOV #1, AR2
    1165 0004a6 12A0          CMP AR2 == AR1, TC1 ; |687| 
TMS320C55x Assembler PC v4.4.1 Fri Sep 14 03:54:53 2018

Tools Copyright (c) 1996-2012 Texas Instruments Incorporated
csl_sar.asm                                                          PAGE   27

         0004a8 90   
    1166 0004a9 6264          BCC $C$L33,TC1 ; |687| 
    1167                                                      ; branchcc occurs ; |687| 
    1168                      .dwpsn  file "../c5535_bsl_revc/ezdsp5535_v1/c55xx_csl/src/csl_sar.c",line 690,column 9,is_stmt
    1169 0004ab 3E64          MOV #-6, T0
    1170 0004ad 4A20          B $C$L34  ; |690| 
    1171                                                      ; branch occurs ; |690| 
    1172 0004af       $C$L33:    
    1173                      .dwpsn  file "../c5535_bsl_revc/ezdsp5535_v1/c55xx_csl/src/csl_sar.c",line 693,column 5,is_stmt
    1174 0004af 7600          MOV #18, T0 ; |693| 
         0004b1 1248 
    1175 0004b3 AB61          MOV *AR3, AR3 ; |693| 
    1176 0004b5 AA6B          MOV port(*AR3(T0)), AR2 ; |693| 
         0004b7 99   
    1177 0004b8 ED00          MOV dbl(*SP(#0)), XAR3
         0004ba BF   
    1178 0004bb AB61          MOV *AR3, AR3 ; |693| 
    1179 0004bd F904          MOV *SP(#2) << #10, AC0 ; |693| 
         0004bf 0A08 
    1180 0004c1 7D04          AND #0x0400, AC0, AR1 ; |693| 
         0004c3 0090 
    1181 0004c5 EC14          BCLR @#10, AR2 ; |693| 
         0004c7 A2   
    1182 0004c8 2AA9          OR AR2, AR1 ; |693| 
    1183 0004ca C96B          MOV AR1, port(*AR3(T0)) ; |693| 
         0004cc 9A   
    1184                      .dwpsn  file "../c5535_bsl_revc/ezdsp5535_v1/c55xx_csl/src/csl_sar.c",line 695,column 5,is_stmt
    1185 0004cd 3C04          MOV #0, T0
    1186 0004cf       $C$L34:    
    1187                      .dwpsn  file "../c5535_bsl_revc/ezdsp5535_v1/c55xx_csl/src/csl_sar.c",line 696,column 1,is_stmt
    1188 0004cf 4E03          AADD #3, SP
    1189                      .dwcfi  cfa_offset, 1
    1190              $C$DW$46        .dwtag  DW_TAG_TI_branch
    1191                      .dwattr $C$DW$46, DW_AT_low_pc(0x00)
    1192                      .dwattr $C$DW$46, DW_AT_TI_return
    1193 0004d1 4804          RET
    1194                                                      ; return occurs
    1195                      .dwattr $C$DW$41, DW_AT_TI_end_file("../c5535_bsl_revc/ezdsp5535_v1/c55xx_csl/src/csl_sar.c")
    1196                      .dwattr $C$DW$41, DW_AT_TI_end_line(0x2b8)
    1197                      .dwattr $C$DW$41, DW_AT_TI_end_column(0x01)
    1198                      .dwendentry
    1199                      .dwendtag $C$DW$41
    1200              
    1201 0004d3               .sect   ".text"
    1202                      .align 4
    1203                      .global _SAR_startConversion
    1204              
    1205              $C$DW$47        .dwtag  DW_TAG_subprogram, DW_AT_name("SAR_startConversion")
    1206                      .dwattr $C$DW$47, DW_AT_low_pc(_SAR_startConversion)
    1207                      .dwattr $C$DW$47, DW_AT_high_pc(0x00)
    1208                      .dwattr $C$DW$47, DW_AT_TI_symbol_name("_SAR_startConversion")
    1209                      .dwattr $C$DW$47, DW_AT_external
    1210                      .dwattr $C$DW$47, DW_AT_type(*$C$DW$T$64)
    1211                      .dwattr $C$DW$47, DW_AT_TI_begin_file("../c5535_bsl_revc/ezdsp5535_v1/c55xx_csl/src/csl_sar.c")
    1212                      .dwattr $C$DW$47, DW_AT_TI_begin_line(0x2df)
TMS320C55x Assembler PC v4.4.1 Fri Sep 14 03:54:53 2018

Tools Copyright (c) 1996-2012 Texas Instruments Incorporated
csl_sar.asm                                                          PAGE   28

    1213                      .dwattr $C$DW$47, DW_AT_TI_begin_column(0x0c)
    1214                      .dwattr $C$DW$47, DW_AT_TI_max_frame_size(0x04)
    1215                      .dwpsn  file "../c5535_bsl_revc/ezdsp5535_v1/c55xx_csl/src/csl_sar.c",line 738,column 1,is_stmt,addre
    1216              
    1217                      .dwfde $C$DW$CIE, _SAR_startConversion
    1218              $C$DW$48        .dwtag  DW_TAG_formal_parameter, DW_AT_name("hSar")
    1219                      .dwattr $C$DW$48, DW_AT_TI_symbol_name("_hSar")
    1220                      .dwattr $C$DW$48, DW_AT_type(*$C$DW$T$54)
    1221                      .dwattr $C$DW$48, DW_AT_location[DW_OP_reg17]
    1222              ;*******************************************************************************
    1223              ;* FUNCTION NAME: SAR_startConversion                                          *
    1224              ;*                                                                             *
    1225              ;*   Function Uses Regs : AC0,AC0,AC1,AC1,T0,AR0,XAR0,AR1,AR3,XAR3,SP,TC1,M40, *
    1226              ;*                        SATA,SATD,RDM,FRCT,SMUL                              *
    1227              ;*   Stack Frame        : Compact (No Frame Pointer, w/ debug)                 *
    1228              ;*   Total Frame Size   : 4 words                                              *
    1229              ;*                        (2 return address/alignment)                         *
    1230              ;*                        (2 local values)                                     *
    1231              ;*   Min System Stack   : 1 word                                               *
    1232              ;*******************************************************************************
    1233 0004d4       _SAR_startConversion:
    1234                      .dwcfi  cfa_offset, 1
    1235                      .dwcfi  save_reg_to_mem, 91, -1
    1236 0004d4 4EFD          AADD #-3, SP
    1237                      .dwcfi  cfa_offset, 4
    1238              $C$DW$49        .dwtag  DW_TAG_variable, DW_AT_name("hSar")
    1239                      .dwattr $C$DW$49, DW_AT_TI_symbol_name("_hSar")
    1240                      .dwattr $C$DW$49, DW_AT_type(*$C$DW$T$54)
    1241                      .dwattr $C$DW$49, DW_AT_location[DW_OP_bregx 0x24 0]
    1242 0004d6 EB00          MOV XAR0, dbl(*SP(#0))
         0004d8 85   
    1243                      .dwpsn  file "../c5535_bsl_revc/ezdsp5535_v1/c55xx_csl/src/csl_sar.c",line 739,column 5,is_stmt
    1244 0004d9 ED00          MOV dbl(*SP(#0)), XAR3
         0004db BF   
    1245              
    1246 0004dc 90B0          MOV XAR3, AC0
    1247 0004de 3D01  ||      MOV #0, AC1 ; |739| 
    1248              
    1249 0004e0 121C          CMPU AC1 != AC0, TC1 ; |739| 
         0004e2 04   
    1250 0004e3 6264          BCC $C$L35,TC1 ; |739| 
    1251                                                      ; branchcc occurs ; |739| 
    1252                      .dwpsn  file "../c5535_bsl_revc/ezdsp5535_v1/c55xx_csl/src/csl_sar.c",line 741,column 9,is_stmt
    1253 0004e5 3E54          MOV #-5, T0
    1254 0004e7 4A19          B $C$L36  ; |741| 
    1255                                                      ; branch occurs ; |741| 
    1256 0004e9       $C$L35:    
    1257                      .dwpsn  file "../c5535_bsl_revc/ezdsp5535_v1/c55xx_csl/src/csl_sar.c",line 744,column 5,is_stmt
    1258 0004e9 7600          MOV #18, T0 ; |744| 
         0004eb 1248 
    1259 0004ed AB61          MOV *AR3, AR3 ; |744| 
    1260 0004ef A96B          MOV port(*AR3(T0)), AR1 ; |744| 
         0004f1 99   
    1261 0004f2 ED00          MOV dbl(*SP(#0)), XAR3
         0004f4 BF   
TMS320C55x Assembler PC v4.4.1 Fri Sep 14 03:54:53 2018

Tools Copyright (c) 1996-2012 Texas Instruments Incorporated
csl_sar.asm                                                          PAGE   29

    1262 0004f5 AB61          MOV *AR3, AR3 ; |744| 
    1263 0004f7 EC1E          BCLR @#15, AR1 ; |744| 
         0004f9 92   
    1264 0004fa EC1E          BSET @#15, AR1 ; |744| 
         0004fc 90   
    1265 0004fd C96B          MOV AR1, port(*AR3(T0)) ; |744| 
         0004ff 9A   
    1266                      .dwpsn  file "../c5535_bsl_revc/ezdsp5535_v1/c55xx_csl/src/csl_sar.c",line 745,column 5,is_stmt
    1267 000500 3C04          MOV #0, T0
    1268 000502       $C$L36:    
    1269                      .dwpsn  file "../c5535_bsl_revc/ezdsp5535_v1/c55xx_csl/src/csl_sar.c",line 746,column 1,is_stmt
    1270 000502 4E03          AADD #3, SP
    1271                      .dwcfi  cfa_offset, 1
    1272              $C$DW$50        .dwtag  DW_TAG_TI_branch
    1273                      .dwattr $C$DW$50, DW_AT_low_pc(0x00)
    1274                      .dwattr $C$DW$50, DW_AT_TI_return
    1275 000504 4804          RET
    1276                                                      ; return occurs
    1277                      .dwattr $C$DW$47, DW_AT_TI_end_file("../c5535_bsl_revc/ezdsp5535_v1/c55xx_csl/src/csl_sar.c")
    1278                      .dwattr $C$DW$47, DW_AT_TI_end_line(0x2ea)
    1279                      .dwattr $C$DW$47, DW_AT_TI_end_column(0x01)
    1280                      .dwendentry
    1281                      .dwendtag $C$DW$47
    1282              
    1283 000506               .sect   ".text"
    1284                      .align 4
    1285                      .global _SAR_stopConversion
    1286              
    1287              $C$DW$51        .dwtag  DW_TAG_subprogram, DW_AT_name("SAR_stopConversion")
    1288                      .dwattr $C$DW$51, DW_AT_low_pc(_SAR_stopConversion)
    1289                      .dwattr $C$DW$51, DW_AT_high_pc(0x00)
    1290                      .dwattr $C$DW$51, DW_AT_TI_symbol_name("_SAR_stopConversion")
    1291                      .dwattr $C$DW$51, DW_AT_external
    1292                      .dwattr $C$DW$51, DW_AT_type(*$C$DW$T$64)
    1293                      .dwattr $C$DW$51, DW_AT_TI_begin_file("../c5535_bsl_revc/ezdsp5535_v1/c55xx_csl/src/csl_sar.c")
    1294                      .dwattr $C$DW$51, DW_AT_TI_begin_line(0x30f)
    1295                      .dwattr $C$DW$51, DW_AT_TI_begin_column(0x0c)
    1296                      .dwattr $C$DW$51, DW_AT_TI_max_frame_size(0x04)
    1297                      .dwpsn  file "../c5535_bsl_revc/ezdsp5535_v1/c55xx_csl/src/csl_sar.c",line 787,column 1,is_stmt,addre
    1298              
    1299                      .dwfde $C$DW$CIE, _SAR_stopConversion
    1300              $C$DW$52        .dwtag  DW_TAG_formal_parameter, DW_AT_name("hSar")
    1301                      .dwattr $C$DW$52, DW_AT_TI_symbol_name("_hSar")
    1302                      .dwattr $C$DW$52, DW_AT_type(*$C$DW$T$54)
    1303                      .dwattr $C$DW$52, DW_AT_location[DW_OP_reg17]
    1304              ;*******************************************************************************
    1305              ;* FUNCTION NAME: SAR_stopConversion                                           *
    1306              ;*                                                                             *
    1307              ;*   Function Uses Regs : AC0,AC0,AC1,AC1,T0,AR0,XAR0,AR1,AR2,AR3,XAR3,SP,TC1, *
    1308              ;*                        M40,SATA,SATD,RDM,FRCT,SMUL                          *
    1309              ;*   Stack Frame        : Compact (No Frame Pointer, w/ debug)                 *
    1310              ;*   Total Frame Size   : 4 words                                              *
    1311              ;*                        (2 return address/alignment)                         *
    1312              ;*                        (2 local values)                                     *
    1313              ;*   Min System Stack   : 1 word                                               *
TMS320C55x Assembler PC v4.4.1 Fri Sep 14 03:54:53 2018

Tools Copyright (c) 1996-2012 Texas Instruments Incorporated
csl_sar.asm                                                          PAGE   30

    1314              ;*******************************************************************************
    1315 000508       _SAR_stopConversion:
    1316                      .dwcfi  cfa_offset, 1
    1317                      .dwcfi  save_reg_to_mem, 91, -1
    1318 000508 4EFD          AADD #-3, SP
    1319                      .dwcfi  cfa_offset, 4
    1320              $C$DW$53        .dwtag  DW_TAG_variable, DW_AT_name("hSar")
    1321                      .dwattr $C$DW$53, DW_AT_TI_symbol_name("_hSar")
    1322                      .dwattr $C$DW$53, DW_AT_type(*$C$DW$T$54)
    1323                      .dwattr $C$DW$53, DW_AT_location[DW_OP_bregx 0x24 0]
    1324 00050a EB00          MOV XAR0, dbl(*SP(#0))
         00050c 85   
    1325                      .dwpsn  file "../c5535_bsl_revc/ezdsp5535_v1/c55xx_csl/src/csl_sar.c",line 788,column 5,is_stmt
    1326 00050d ED00          MOV dbl(*SP(#0)), XAR3
         00050f BF   
    1327              
    1328 000510 90B0          MOV XAR3, AC0
    1329 000512 3D01  ||      MOV #0, AC1 ; |788| 
    1330              
    1331 000514 121C          CMPU AC1 != AC0, TC1 ; |788| 
         000516 04   
    1332 000517 6264          BCC $C$L37,TC1 ; |788| 
    1333                                                      ; branchcc occurs ; |788| 
    1334                      .dwpsn  file "../c5535_bsl_revc/ezdsp5535_v1/c55xx_csl/src/csl_sar.c",line 790,column 9,is_stmt
    1335 000519 3E54          MOV #-5, T0
    1336 00051b 4A2E          B $C$L39  ; |790| 
    1337                                                      ; branch occurs ; |790| 
    1338 00051d       $C$L37:    
    1339                      .dwpsn  file "../c5535_bsl_revc/ezdsp5535_v1/c55xx_csl/src/csl_sar.c",line 793,column 5,is_stmt
    1340 00051d 7600          MOV #18, T0 ; |793| 
         00051f 1248 
    1341 000521 AB61          MOV *AR3, AR3 ; |793| 
    1342 000523 A96B          MOV port(*AR3(T0)), AR1 ; |793| 
         000525 99   
    1343 000526 7D80          AND #0x8000, AR1, AC0 ; |793| 
         000528 0009 
    1344              
    1345 00052a 7680          BFXTR #0x8000, AC0, AR1 ; |793| 
         00052c 0090 
    1346 00052e 3D1A  ||      MOV #1, AR2
    1347              
    1348 000530 12AC          CMPU AR2 != AR1, TC1 ; |793| 
         000532 94   
    1349 000533 0464          BCC $C$L38,TC1 ; |793| 
         000535 13   
    1350                                                      ; branchcc occurs ; |793| 
    1351                      .dwpsn  file "../c5535_bsl_revc/ezdsp5535_v1/c55xx_csl/src/csl_sar.c",line 797,column 9,is_stmt
    1352 000536 ED00          MOV dbl(*SP(#0)), XAR3
         000538 BF   
    1353 000539 AB61          MOV *AR3, AR3 ; |797| 
    1354 00053b A96B          MOV port(*AR3(T0)), AR1 ; |797| 
         00053d 99   
    1355 00053e ED00          MOV dbl(*SP(#0)), XAR3
         000540 BF   
    1356 000541 AB61          MOV *AR3, AR3 ; |797| 
TMS320C55x Assembler PC v4.4.1 Fri Sep 14 03:54:53 2018

Tools Copyright (c) 1996-2012 Texas Instruments Incorporated
csl_sar.asm                                                          PAGE   31

    1357 000543 EC1E          BCLR @#15, AR1 ; |797| 
         000545 92   
    1358 000546 C96B          MOV AR1, port(*AR3(T0)) ; |797| 
         000548 9A   
    1359 000549       $C$L38:    
    1360                      .dwpsn  file "../c5535_bsl_revc/ezdsp5535_v1/c55xx_csl/src/csl_sar.c",line 800,column 5,is_stmt
    1361 000549 3C04          MOV #0, T0
    1362 00054b       $C$L39:    
    1363                      .dwpsn  file "../c5535_bsl_revc/ezdsp5535_v1/c55xx_csl/src/csl_sar.c",line 801,column 5,is_stmt
    1364 00054b 4E03          AADD #3, SP
    1365                      .dwcfi  cfa_offset, 1
    1366              $C$DW$54        .dwtag  DW_TAG_TI_branch
    1367                      .dwattr $C$DW$54, DW_AT_low_pc(0x00)
    1368                      .dwattr $C$DW$54, DW_AT_TI_return
    1369 00054d 4804          RET
    1370                                                      ; return occurs
    1371                      .dwattr $C$DW$51, DW_AT_TI_end_file("../c5535_bsl_revc/ezdsp5535_v1/c55xx_csl/src/csl_sar.c")
    1372                      .dwattr $C$DW$51, DW_AT_TI_end_line(0x321)
    1373                      .dwattr $C$DW$51, DW_AT_TI_end_column(0x05)
    1374                      .dwendentry
    1375                      .dwendtag $C$DW$51
    1376              
    1377 00054f               .sect   ".text"
    1378                      .align 4
    1379                      .global _SAR_readData
    1380              
    1381              $C$DW$55        .dwtag  DW_TAG_subprogram, DW_AT_name("SAR_readData")
    1382                      .dwattr $C$DW$55, DW_AT_low_pc(_SAR_readData)
    1383                      .dwattr $C$DW$55, DW_AT_high_pc(0x00)
    1384                      .dwattr $C$DW$55, DW_AT_TI_symbol_name("_SAR_readData")
    1385                      .dwattr $C$DW$55, DW_AT_external
    1386                      .dwattr $C$DW$55, DW_AT_type(*$C$DW$T$64)
    1387                      .dwattr $C$DW$55, DW_AT_TI_begin_file("../c5535_bsl_revc/ezdsp5535_v1/c55xx_csl/src/csl_sar.c")
    1388                      .dwattr $C$DW$55, DW_AT_TI_begin_line(0x350)
    1389                      .dwattr $C$DW$55, DW_AT_TI_begin_column(0x0c)
    1390                      .dwattr $C$DW$55, DW_AT_TI_max_frame_size(0x06)
    1391                      .dwpsn  file "../c5535_bsl_revc/ezdsp5535_v1/c55xx_csl/src/csl_sar.c",line 853,column 1,is_stmt,addre
    1392              
    1393                      .dwfde $C$DW$CIE, _SAR_readData
    1394              $C$DW$56        .dwtag  DW_TAG_formal_parameter, DW_AT_name("hSar")
    1395                      .dwattr $C$DW$56, DW_AT_TI_symbol_name("_hSar")
    1396                      .dwattr $C$DW$56, DW_AT_type(*$C$DW$T$54)
    1397                      .dwattr $C$DW$56, DW_AT_location[DW_OP_reg17]
    1398              $C$DW$57        .dwtag  DW_TAG_formal_parameter, DW_AT_name("readData")
    1399                      .dwattr $C$DW$57, DW_AT_TI_symbol_name("_readData")
    1400                      .dwattr $C$DW$57, DW_AT_type(*$C$DW$T$71)
    1401                      .dwattr $C$DW$57, DW_AT_location[DW_OP_reg19]
    1402              ;*******************************************************************************
    1403              ;* FUNCTION NAME: SAR_readData                                                 *
    1404              ;*                                                                             *
    1405              ;*   Function Uses Regs : AC0,AC0,AC1,AC1,T0,AR0,XAR0,AR1,XAR1,AR3,XAR3,SP,TC1,*
    1406              ;*                        M40,SATA,SATD,RDM,FRCT,SMUL                          *
    1407              ;*   Stack Frame        : Compact (No Frame Pointer, w/ debug)                 *
    1408              ;*   Total Frame Size   : 6 words                                              *
    1409              ;*                        (2 return address/alignment)                         *
TMS320C55x Assembler PC v4.4.1 Fri Sep 14 03:54:53 2018

Tools Copyright (c) 1996-2012 Texas Instruments Incorporated
csl_sar.asm                                                          PAGE   32

    1410              ;*                        (4 local values)                                     *
    1411              ;*   Min System Stack   : 1 word                                               *
    1412              ;*******************************************************************************
    1413 000550       _SAR_readData:
    1414                      .dwcfi  cfa_offset, 1
    1415                      .dwcfi  save_reg_to_mem, 91, -1
    1416 000550 4EFB          AADD #-5, SP
    1417                      .dwcfi  cfa_offset, 6
    1418              $C$DW$58        .dwtag  DW_TAG_variable, DW_AT_name("hSar")
    1419                      .dwattr $C$DW$58, DW_AT_TI_symbol_name("_hSar")
    1420                      .dwattr $C$DW$58, DW_AT_type(*$C$DW$T$54)
    1421                      .dwattr $C$DW$58, DW_AT_location[DW_OP_bregx 0x24 0]
    1422              $C$DW$59        .dwtag  DW_TAG_variable, DW_AT_name("readData")
    1423                      .dwattr $C$DW$59, DW_AT_TI_symbol_name("_readData")
    1424                      .dwattr $C$DW$59, DW_AT_type(*$C$DW$T$71)
    1425                      .dwattr $C$DW$59, DW_AT_location[DW_OP_bregx 0x24 2]
    1426 000552 EB04          MOV XAR1, dbl(*SP(#2))
         000554 95   
    1427 000555 EB00          MOV XAR0, dbl(*SP(#0))
         000557 85   
    1428                      .dwpsn  file "../c5535_bsl_revc/ezdsp5535_v1/c55xx_csl/src/csl_sar.c",line 854,column 5,is_stmt
    1429 000558 ED00          MOV dbl(*SP(#0)), XAR3
         00055a BF   
    1430              
    1431 00055b 90B0          MOV XAR3, AC0
    1432 00055d 3D01  ||      MOV #0, AC1 ; |854| 
    1433              
    1434 00055f 121C          CMPU AC1 != AC0, TC1 ; |854| 
         000561 04   
    1435 000562 6264          BCC $C$L40,TC1 ; |854| 
    1436                                                      ; branchcc occurs ; |854| 
    1437                      .dwpsn  file "../c5535_bsl_revc/ezdsp5535_v1/c55xx_csl/src/csl_sar.c",line 856,column 9,is_stmt
    1438 000564 3E54          MOV #-5, T0
    1439 000566 4A25          B $C$L42  ; |856| 
    1440                                                      ; branch occurs ; |856| 
    1441 000568       $C$L40:    
    1442                      .dwpsn  file "../c5535_bsl_revc/ezdsp5535_v1/c55xx_csl/src/csl_sar.c",line 858,column 5,is_stmt
    1443 000568 ED04          MOV dbl(*SP(#2)), XAR3
         00056a BF   
    1444 00056b 90B0          MOV XAR3, AC0
    1445 00056d 121C          CMPU AC1 != AC0, TC1 ; |858| 
         00056f 04   
    1446 000570 6264          BCC $C$L41,TC1 ; |858| 
    1447                                                      ; branchcc occurs ; |858| 
    1448                      .dwpsn  file "../c5535_bsl_revc/ezdsp5535_v1/c55xx_csl/src/csl_sar.c",line 860,column 9,is_stmt
    1449 000572 3E64          MOV #-6, T0
    1450 000574 4A17          B $C$L42  ; |860| 
    1451                                                      ; branch occurs ; |860| 
    1452 000576       $C$L41:    
    1453                      .dwpsn  file "../c5535_bsl_revc/ezdsp5535_v1/c55xx_csl/src/csl_sar.c",line 862,column 5,is_stmt
    1454 000576 ED00          MOV dbl(*SP(#0)), XAR3
         000578 BF   
    1455 000579 7600          MOV #20, T0 ; |862| 
         00057b 1448 
    1456 00057d AB61          MOV *AR3, AR3 ; |862| 
TMS320C55x Assembler PC v4.4.1 Fri Sep 14 03:54:53 2018

Tools Copyright (c) 1996-2012 Texas Instruments Incorporated
csl_sar.asm                                                          PAGE   33

    1457 00057f A96B          MOV port(*AR3(T0)), AR1 ; |862| 
         000581 99   
    1458 000582 ED04          MOV dbl(*SP(#2)), XAR3
         000584 BF   
    1459 000585 7D03          AND #0x03ff, AR1, AC0 ; |862| 
         000587 FF09 
    1460 000589 C061          MOV AC0, *AR3 ; |862| 
    1461                      .dwpsn  file "../c5535_bsl_revc/ezdsp5535_v1/c55xx_csl/src/csl_sar.c",line 863,column 5,is_stmt
    1462 00058b 3C04          MOV #0, T0
    1463 00058d       $C$L42:    
    1464                      .dwpsn  file "../c5535_bsl_revc/ezdsp5535_v1/c55xx_csl/src/csl_sar.c",line 864,column 1,is_stmt
    1465 00058d 4E05          AADD #5, SP
    1466                      .dwcfi  cfa_offset, 1
    1467              $C$DW$60        .dwtag  DW_TAG_TI_branch
    1468                      .dwattr $C$DW$60, DW_AT_low_pc(0x00)
    1469                      .dwattr $C$DW$60, DW_AT_TI_return
    1470 00058f 4804          RET
    1471                                                      ; return occurs
    1472                      .dwattr $C$DW$55, DW_AT_TI_end_file("../c5535_bsl_revc/ezdsp5535_v1/c55xx_csl/src/csl_sar.c")
    1473                      .dwattr $C$DW$55, DW_AT_TI_end_line(0x360)
    1474                      .dwattr $C$DW$55, DW_AT_TI_end_column(0x01)
    1475                      .dwendentry
    1476                      .dwendtag $C$DW$55
    1477              
    1478 000591               .sect   ".text"
    1479                      .align 4
    1480                      .global _SAR_A2DMeasParamSet
    1481              
    1482              $C$DW$61        .dwtag  DW_TAG_subprogram, DW_AT_name("SAR_A2DMeasParamSet")
    1483                      .dwattr $C$DW$61, DW_AT_low_pc(_SAR_A2DMeasParamSet)
    1484                      .dwattr $C$DW$61, DW_AT_high_pc(0x00)
    1485                      .dwattr $C$DW$61, DW_AT_TI_symbol_name("_SAR_A2DMeasParamSet")
    1486                      .dwattr $C$DW$61, DW_AT_external
    1487                      .dwattr $C$DW$61, DW_AT_type(*$C$DW$T$64)
    1488                      .dwattr $C$DW$61, DW_AT_TI_begin_file("../c5535_bsl_revc/ezdsp5535_v1/c55xx_csl/src/csl_sar.c")
    1489                      .dwattr $C$DW$61, DW_AT_TI_begin_line(0x38e)
    1490                      .dwattr $C$DW$61, DW_AT_TI_begin_column(0x0c)
    1491                      .dwattr $C$DW$61, DW_AT_TI_max_frame_size(0x08)
    1492                      .dwpsn  file "../c5535_bsl_revc/ezdsp5535_v1/c55xx_csl/src/csl_sar.c",line 915,column 1,is_stmt,addre
    1493              
    1494                      .dwfde $C$DW$CIE, _SAR_A2DMeasParamSet
    1495              $C$DW$62        .dwtag  DW_TAG_formal_parameter, DW_AT_name("hSar")
    1496                      .dwattr $C$DW$62, DW_AT_TI_symbol_name("_hSar")
    1497                      .dwattr $C$DW$62, DW_AT_type(*$C$DW$T$54)
    1498                      .dwattr $C$DW$62, DW_AT_location[DW_OP_reg17]
    1499              $C$DW$63        .dwtag  DW_TAG_formal_parameter, DW_AT_name("param")
    1500                      .dwattr $C$DW$63, DW_AT_TI_symbol_name("_param")
    1501                      .dwattr $C$DW$63, DW_AT_type(*$C$DW$T$47)
    1502                      .dwattr $C$DW$63, DW_AT_location[DW_OP_reg12]
    1503              $C$DW$64        .dwtag  DW_TAG_formal_parameter, DW_AT_name("chanNo")
    1504                      .dwattr $C$DW$64, DW_AT_TI_symbol_name("_chanNo")
    1505                      .dwattr $C$DW$64, DW_AT_type(*$C$DW$T$43)
    1506                      .dwattr $C$DW$64, DW_AT_location[DW_OP_reg19]
    1507              ;*******************************************************************************
    1508              ;* FUNCTION NAME: SAR_A2DMeasParamSet                                          *
TMS320C55x Assembler PC v4.4.1 Fri Sep 14 03:54:53 2018

Tools Copyright (c) 1996-2012 Texas Instruments Incorporated
csl_sar.asm                                                          PAGE   34

    1509              ;*                                                                             *
    1510              ;*   Function Uses Regs : AC0,AC0,AC1,AC1,T0,AR0,XAR0,AR1,XAR1,AR2,AR3,XAR3,SP,*
    1511              ;*                        TC1,M40,SATA,SATD,RDM,FRCT,SMUL                      *
    1512              ;*   Stack Frame        : Compact (No Frame Pointer, w/ debug)                 *
    1513              ;*   Total Frame Size   : 8 words                                              *
    1514              ;*                        (1 return address/alignment)                         *
    1515              ;*                        (7 local values)                                     *
    1516              ;*   Min System Stack   : 1 word                                               *
    1517              ;*******************************************************************************
    1518 000594       _SAR_A2DMeasParamSet:
    1519                      .dwcfi  cfa_offset, 1
    1520                      .dwcfi  save_reg_to_mem, 91, -1
    1521 000594 4EF9          AADD #-7, SP
    1522                      .dwcfi  cfa_offset, 8
    1523              $C$DW$65        .dwtag  DW_TAG_variable, DW_AT_name("hSar")
    1524                      .dwattr $C$DW$65, DW_AT_TI_symbol_name("_hSar")
    1525                      .dwattr $C$DW$65, DW_AT_type(*$C$DW$T$54)
    1526                      .dwattr $C$DW$65, DW_AT_location[DW_OP_bregx 0x24 0]
    1527              $C$DW$66        .dwtag  DW_TAG_variable, DW_AT_name("param")
    1528                      .dwattr $C$DW$66, DW_AT_TI_symbol_name("_param")
    1529                      .dwattr $C$DW$66, DW_AT_type(*$C$DW$T$47)
    1530                      .dwattr $C$DW$66, DW_AT_location[DW_OP_bregx 0x24 2]
    1531              $C$DW$67        .dwtag  DW_TAG_variable, DW_AT_name("chanNo")
    1532                      .dwattr $C$DW$67, DW_AT_TI_symbol_name("_chanNo")
    1533                      .dwattr $C$DW$67, DW_AT_type(*$C$DW$T$43)
    1534                      .dwattr $C$DW$67, DW_AT_location[DW_OP_bregx 0x24 4]
    1535              $C$DW$68        .dwtag  DW_TAG_variable, DW_AT_name("status")
    1536                      .dwattr $C$DW$68, DW_AT_TI_symbol_name("_status")
    1537                      .dwattr $C$DW$68, DW_AT_type(*$C$DW$T$64)
    1538                      .dwattr $C$DW$68, DW_AT_location[DW_OP_bregx 0x24 6]
    1539 000596 EB08          MOV XAR1, dbl(*SP(#4))
         000598 95   
    1540 000599 C404          MOV T0, *SP(#2) ; |915| 
    1541 00059b EB00          MOV XAR0, dbl(*SP(#0))
         00059d 85   
    1542                      .dwpsn  file "../c5535_bsl_revc/ezdsp5535_v1/c55xx_csl/src/csl_sar.c",line 918,column 5,is_stmt
    1543 00059e ED00          MOV dbl(*SP(#0)), XAR3
         0005a0 BF   
    1544              
    1545 0005a1 90B0          MOV XAR3, AC0
    1546 0005a3 3D01  ||      MOV #0, AC1 ; |918| 
    1547              
    1548 0005a5 121C          CMPU AC1 != AC0, TC1 ; |918| 
         0005a7 04   
    1549 0005a8 6D64          BCC $C$L51,TC1 ; |918| 
         0005aa 0415 
    1550                                                      ; branchcc occurs ; |918| 
    1551                      .dwpsn  file "../c5535_bsl_revc/ezdsp5535_v1/c55xx_csl/src/csl_sar.c",line 920,column 9,is_stmt
    1552 0005ac 3E54          MOV #-5, T0
    1553 0005ae 0604          B $C$L54  ; |920| 
         0005b0 59   
    1554                                                      ; branch occurs ; |920| 
    1555 0005b1       $C$L43:    
    1556                      .dwpsn  file "../c5535_bsl_revc/ezdsp5535_v1/c55xx_csl/src/csl_sar.c",line 927,column 13,is_stmt
    1557 0005b1 ED08          MOV dbl(*SP(#4)), XAR3
TMS320C55x Assembler PC v4.4.1 Fri Sep 14 03:54:53 2018

Tools Copyright (c) 1996-2012 Texas Instruments Incorporated
csl_sar.asm                                                          PAGE   35

         0005b3 BF   
    1558 0005b4 E661          MOV #3, *AR3 ; |927| 
         0005b6 03   
    1559                      .dwpsn  file "../c5535_bsl_revc/ezdsp5535_v1/c55xx_csl/src/csl_sar.c",line 928,column 13,is_stmt
    1560 0005b7 A951          MOV *port(#28690), AR1 ; |928| 
         0005b9 7012 
    1561 0005bb 7D8F          AND #0x8fff, AR1, AR1 ; |928| 
         0005bd FF99 
    1562 0005bf 7E30          OR #0x3000, AR1, AR1 ; |928| 
         0005c1 0099 
    1563 0005c3 C951          MOV AR1, *port(#28690) ; |928| 
         0005c5 7012 
    1564                      .dwpsn  file "../c5535_bsl_revc/ezdsp5535_v1/c55xx_csl/src/csl_sar.c",line 930,column 13,is_stmt
    1565 0005c7 ED00          MOV dbl(*SP(#0)), XAR3
         0005c9 BF   
    1566 0005ca 7600          MOV #24, T0 ; |930| 
         0005cc 1848 
    1567 0005ce AB61          MOV *AR3, AR3 ; |930| 
    1568 0005d0 A96B          MOV port(*AR3(T0)), AR1 ; |930| 
         0005d2 99   
    1569 0005d3 ED00          MOV dbl(*SP(#0)), XAR3
         0005d5 BF   
    1570 0005d6 AB61          MOV *AR3, AR3 ; |930| 
    1571 0005d8 EC06          BCLR @#3, AR1 ; |930| 
         0005da 92   
    1572 0005db C96B          MOV AR1, port(*AR3(T0)) ; |930| 
         0005dd 9A   
    1573                      .dwpsn  file "../c5535_bsl_revc/ezdsp5535_v1/c55xx_csl/src/csl_sar.c",line 934,column 13,is_stmt
    1574 0005de ED00          MOV dbl(*SP(#0)), XAR3
         0005e0 BF   
    1575 0005e1 AB61          MOV *AR3, AR3 ; |934| 
    1576 0005e3 A96B          MOV port(*AR3(T0)), AR1 ; |934| 
         0005e5 99   
    1577 0005e6 ED00          MOV dbl(*SP(#0)), XAR3
         0005e8 BF   
    1578 0005e9 AB61          MOV *AR3, AR3 ; |934| 
    1579 0005eb EC02          BCLR @#1, AR1 ; |934| 
         0005ed 92   
    1580 0005ee C96B          MOV AR1, port(*AR3(T0)) ; |934| 
         0005f0 9A   
    1581                      .dwpsn  file "../c5535_bsl_revc/ezdsp5535_v1/c55xx_csl/src/csl_sar.c",line 937,column 13,is_stmt
    1582 0005f1 ED00          MOV dbl(*SP(#0)), XAR3
         0005f3 BF   
    1583 0005f4 AB61          MOV *AR3, AR3 ; |937| 
    1584 0005f6 A96B          MOV port(*AR3(T0)), AR1 ; |937| 
         0005f8 99   
    1585 0005f9 ED00          MOV dbl(*SP(#0)), XAR3
         0005fb BF   
    1586 0005fc AB61          MOV *AR3, AR3 ; |937| 
    1587 0005fe EC00          BCLR @#0, AR1 ; |937| 
         000600 92   
    1588 000601 C96B          MOV AR1, port(*AR3(T0)) ; |937| 
         000603 9A   
    1589                      .dwpsn  file "../c5535_bsl_revc/ezdsp5535_v1/c55xx_csl/src/csl_sar.c",line 940,column 13,is_stmt
    1590 000604 E60C          MOV #0, *SP(#6) ; |940| 
TMS320C55x Assembler PC v4.4.1 Fri Sep 14 03:54:53 2018

Tools Copyright (c) 1996-2012 Texas Instruments Incorporated
csl_sar.asm                                                          PAGE   36

         000606 00   
    1591                      .dwpsn  file "../c5535_bsl_revc/ezdsp5535_v1/c55xx_csl/src/csl_sar.c",line 941,column 13,is_stmt
    1592 000607 0603          B $C$L53  ; |941| 
         000609 FE   
    1593                                                      ; branch occurs ; |941| 
    1594 00060a       $C$L44:    
    1595                      .dwpsn  file "../c5535_bsl_revc/ezdsp5535_v1/c55xx_csl/src/csl_sar.c",line 946,column 13,is_stmt
    1596 00060a ED08          MOV dbl(*SP(#4)), XAR3
         00060c BF   
    1597 00060d E661          MOV #1, *AR3 ; |946| 
         00060f 01   
    1598                      .dwpsn  file "../c5535_bsl_revc/ezdsp5535_v1/c55xx_csl/src/csl_sar.c",line 947,column 13,is_stmt
    1599 000610 A951          MOV *port(#28690), AR1 ; |947| 
         000612 7012 
    1600 000614 7D8F          AND #0x8fff, AR1, AC0 ; |947| 
         000616 FF09 
    1601 000618 EC18          BSET @#12, AC0 ; |947| 
         00061a 00   
    1602 00061b C051          MOV AC0, *port(#28690) ; |947| 
         00061d 7012 
    1603                      .dwpsn  file "../c5535_bsl_revc/ezdsp5535_v1/c55xx_csl/src/csl_sar.c",line 949,column 13,is_stmt
    1604 00061f ED00          MOV dbl(*SP(#0)), XAR3
         000621 BF   
    1605 000622 7600          MOV #26, T0 ; |949| 
         000624 1A48 
    1606 000626 AB61          MOV *AR3, AR3 ; |949| 
    1607 000628 A96B          MOV port(*AR3(T0)), AR1 ; |949| 
         00062a 99   
    1608 00062b ED00          MOV dbl(*SP(#0)), XAR3
         00062d BF   
    1609 00062e AB61          MOV *AR3, AR3 ; |949| 
    1610 000630 EC08          BCLR @#4, AR1 ; |949| 
         000632 92   
    1611 000633 C96B          MOV AR1, port(*AR3(T0)) ; |949| 
         000635 9A   
    1612                      .dwpsn  file "../c5535_bsl_revc/ezdsp5535_v1/c55xx_csl/src/csl_sar.c",line 953,column 13,is_stmt
    1613 000636 ED00          MOV dbl(*SP(#0)), XAR3
         000638 BF   
    1614 000639 7600          MOV #24, T0 ; |953| 
         00063b 1848 
    1615 00063d AB61          MOV *AR3, AR3 ; |953| 
    1616 00063f A96B          MOV port(*AR3(T0)), AR1 ; |953| 
         000641 99   
    1617 000642 ED00          MOV dbl(*SP(#0)), XAR3
         000644 BF   
    1618 000645 AB61          MOV *AR3, AR3 ; |953| 
    1619 000647 EC02          BCLR @#1, AR1 ; |953| 
         000649 92   
    1620 00064a EC02          BSET @#1, AR1 ; |953| 
         00064c 90   
    1621 00064d C96B          MOV AR1, port(*AR3(T0)) ; |953| 
         00064f 9A   
    1622                      .dwpsn  file "../c5535_bsl_revc/ezdsp5535_v1/c55xx_csl/src/csl_sar.c",line 956,column 3,is_stmt
    1623 000650 ED00          MOV dbl(*SP(#0)), XAR3
         000652 BF   
TMS320C55x Assembler PC v4.4.1 Fri Sep 14 03:54:53 2018

Tools Copyright (c) 1996-2012 Texas Instruments Incorporated
csl_sar.asm                                                          PAGE   37

    1624 000653 AB61          MOV *AR3, AR3 ; |956| 
    1625 000655 A96B          MOV port(*AR3(T0)), AR1 ; |956| 
         000657 99   
    1626 000658 ED00          MOV dbl(*SP(#0)), XAR3
         00065a BF   
    1627 00065b AB61          MOV *AR3, AR3 ; |956| 
    1628 00065d EC00          BCLR @#0, AR1 ; |956| 
         00065f 92   
    1629 000660 C96B          MOV AR1, port(*AR3(T0)) ; |956| 
         000662 9A   
    1630                      .dwpsn  file "../c5535_bsl_revc/ezdsp5535_v1/c55xx_csl/src/csl_sar.c",line 959,column 13,is_stmt
    1631 000663 ED00          MOV dbl(*SP(#0)), XAR3
         000665 BF   
    1632 000666 AB61          MOV *AR3, AR3 ; |959| 
    1633 000668 A96B          MOV port(*AR3(T0)), AR1 ; |959| 
         00066a 99   
    1634 00066b ED00          MOV dbl(*SP(#0)), XAR3
         00066d BF   
    1635 00066e AB61          MOV *AR3, AR3 ; |959| 
    1636 000670 EC10          BCLR @#8, AR1 ; |959| 
         000672 92   
    1637 000673 C96B          MOV AR1, port(*AR3(T0)) ; |959| 
         000675 9A   
    1638                      .dwpsn  file "../c5535_bsl_revc/ezdsp5535_v1/c55xx_csl/src/csl_sar.c",line 961,column 13,is_stmt
    1639 000676 E60C          MOV #0, *SP(#6) ; |961| 
         000678 00   
    1640                      .dwpsn  file "../c5535_bsl_revc/ezdsp5535_v1/c55xx_csl/src/csl_sar.c",line 962,column 13,is_stmt
    1641 000679 0603          B $C$L53  ; |962| 
         00067b 8C   
    1642                                                      ; branch occurs ; |962| 
    1643 00067c       $C$L45:    
    1644                      .dwpsn  file "../c5535_bsl_revc/ezdsp5535_v1/c55xx_csl/src/csl_sar.c",line 966,column 13,is_stmt
    1645 00067c ED08          MOV dbl(*SP(#4)), XAR3
         00067e BF   
    1646 00067f E661          MOV #3, *AR3 ; |966| 
         000681 03   
    1647                      .dwpsn  file "../c5535_bsl_revc/ezdsp5535_v1/c55xx_csl/src/csl_sar.c",line 967,column 13,is_stmt
    1648 000682 A951          MOV *port(#28690), AR1 ; |967| 
         000684 7012 
    1649 000686 7D8F          AND #0x8fff, AR1, AR1 ; |967| 
         000688 FF99 
    1650 00068a 7E30          OR #0x3000, AR1, AR1 ; |967| 
         00068c 0099 
    1651 00068e C951          MOV AR1, *port(#28690) ; |967| 
         000690 7012 
    1652                      .dwpsn  file "../c5535_bsl_revc/ezdsp5535_v1/c55xx_csl/src/csl_sar.c",line 970,column 13,is_stmt
    1653 000692 ED00          MOV dbl(*SP(#0)), XAR3
         000694 BF   
    1654 000695 7600          MOV #26, T0 ; |970| 
         000697 1A48 
    1655 000699 AB61          MOV *AR3, AR3 ; |970| 
    1656 00069b A96B          MOV port(*AR3(T0)), AR1 ; |970| 
         00069d 99   
    1657 00069e ED00          MOV dbl(*SP(#0)), XAR3
         0006a0 BF   
TMS320C55x Assembler PC v4.4.1 Fri Sep 14 03:54:53 2018

Tools Copyright (c) 1996-2012 Texas Instruments Incorporated
csl_sar.asm                                                          PAGE   38

    1658 0006a1 AB61          MOV *AR3, AR3 ; |970| 
    1659 0006a3 EC0A          BCLR @#5, AR1 ; |970| 
         0006a5 92   
    1660 0006a6 C96B          MOV AR1, port(*AR3(T0)) ; |970| 
         0006a8 9A   
    1661                      .dwpsn  file "../c5535_bsl_revc/ezdsp5535_v1/c55xx_csl/src/csl_sar.c",line 973,column 13,is_stmt
    1662 0006a9 ED00          MOV dbl(*SP(#0)), XAR3
         0006ab BF   
    1663 0006ac 7600          MOV #24, T0 ; |973| 
         0006ae 1848 
    1664 0006b0 AB61          MOV *AR3, AR3 ; |973| 
    1665 0006b2 A96B          MOV port(*AR3(T0)), AR1 ; |973| 
         0006b4 99   
    1666 0006b5 ED00          MOV dbl(*SP(#0)), XAR3
         0006b7 BF   
    1667 0006b8 AB61          MOV *AR3, AR3 ; |973| 
    1668 0006ba EC06          BCLR @#3, AR1 ; |973| 
         0006bc 92   
    1669 0006bd EC06          BSET @#3, AR1 ; |973| 
         0006bf 90   
    1670 0006c0 C96B          MOV AR1, port(*AR3(T0)) ; |973| 
         0006c2 9A   
    1671                      .dwpsn  file "../c5535_bsl_revc/ezdsp5535_v1/c55xx_csl/src/csl_sar.c",line 976,column 13,is_stmt
    1672 0006c3 ED00          MOV dbl(*SP(#0)), XAR3
         0006c5 BF   
    1673 0006c6 7600          MOV #26, T0 ; |976| 
         0006c8 1A48 
    1674 0006ca AB61          MOV *AR3, AR3 ; |976| 
    1675 0006cc A96B          MOV port(*AR3(T0)), AR1 ; |976| 
         0006ce 99   
    1676 0006cf ED00          MOV dbl(*SP(#0)), XAR3
         0006d1 BF   
    1677 0006d2 AB61          MOV *AR3, AR3 ; |976| 
    1678 0006d4 EC10          BCLR @#8, AR1 ; |976| 
         0006d6 92   
    1679 0006d7 C96B          MOV AR1, port(*AR3(T0)) ; |976| 
         0006d9 9A   
    1680                      .dwpsn  file "../c5535_bsl_revc/ezdsp5535_v1/c55xx_csl/src/csl_sar.c",line 979,column 13,is_stmt
    1681 0006da ED00          MOV dbl(*SP(#0)), XAR3
         0006dc BF   
    1682 0006dd 7600          MOV #24, T0 ; |979| 
         0006df 1848 
    1683 0006e1 AB61          MOV *AR3, AR3 ; |979| 
    1684 0006e3 A96B          MOV port(*AR3(T0)), AR1 ; |979| 
         0006e5 99   
    1685 0006e6 ED00          MOV dbl(*SP(#0)), XAR3
         0006e8 BF   
    1686 0006e9 AB61          MOV *AR3, AR3 ; |979| 
    1687 0006eb EC00          BCLR @#0, AR1 ; |979| 
         0006ed 92   
    1688 0006ee EC00          BSET @#0, AR1 ; |979| 
         0006f0 90   
    1689 0006f1 C96B          MOV AR1, port(*AR3(T0)) ; |979| 
         0006f3 9A   
    1690                      .dwpsn  file "../c5535_bsl_revc/ezdsp5535_v1/c55xx_csl/src/csl_sar.c",line 982,column 13,is_stmt
TMS320C55x Assembler PC v4.4.1 Fri Sep 14 03:54:53 2018

Tools Copyright (c) 1996-2012 Texas Instruments Incorporated
csl_sar.asm                                                          PAGE   39

    1691 0006f4 ED00          MOV dbl(*SP(#0)), XAR3
         0006f6 BF   
    1692 0006f7 AB61          MOV *AR3, AR3 ; |982| 
    1693 0006f9 A96B          MOV port(*AR3(T0)), AR1 ; |982| 
         0006fb 99   
    1694 0006fc ED00          MOV dbl(*SP(#0)), XAR3
         0006fe BF   
    1695 0006ff AB61          MOV *AR3, AR3 ; |982| 
    1696 000701 EC10          BCLR @#8, AR1 ; |982| 
         000703 92   
    1697 000704 C96B          MOV AR1, port(*AR3(T0)) ; |982| 
         000706 9A   
    1698                      .dwpsn  file "../c5535_bsl_revc/ezdsp5535_v1/c55xx_csl/src/csl_sar.c",line 985,column 13,is_stmt
    1699 000707 E60C          MOV #0, *SP(#6) ; |985| 
         000709 00   
    1700                      .dwpsn  file "../c5535_bsl_revc/ezdsp5535_v1/c55xx_csl/src/csl_sar.c",line 986,column 13,is_stmt
    1701 00070a 0602          B $C$L53  ; |986| 
         00070c FB   
    1702                                                      ; branch occurs ; |986| 
    1703 00070d       $C$L46:    
    1704                      .dwpsn  file "../c5535_bsl_revc/ezdsp5535_v1/c55xx_csl/src/csl_sar.c",line 991,column 13,is_stmt
    1705 00070d ED08          MOV dbl(*SP(#4)), XAR3
         00070f BF   
    1706 000710 E661          MOV #5, *AR3 ; |991| 
         000712 05   
    1707                      .dwpsn  file "../c5535_bsl_revc/ezdsp5535_v1/c55xx_csl/src/csl_sar.c",line 992,column 13,is_stmt
    1708 000713 A951          MOV *port(#28690), AR1 ; |992| 
         000715 7012 
    1709 000717 7D8F          AND #0x8fff, AR1, AR1 ; |992| 
         000719 FF99 
    1710 00071b 7E50          OR #0x5000, AR1, AR1 ; |992| 
         00071d 0099 
    1711 00071f C951          MOV AR1, *port(#28690) ; |992| 
         000721 7012 
    1712                      .dwpsn  file "../c5535_bsl_revc/ezdsp5535_v1/c55xx_csl/src/csl_sar.c",line 995,column 13,is_stmt
    1713 000723 ED00          MOV dbl(*SP(#0)), XAR3
         000725 BF   
    1714 000726 7600          MOV #26, T0 ; |995| 
         000728 1A48 
    1715 00072a AB61          MOV *AR3, AR3 ; |995| 
    1716 00072c A96B          MOV port(*AR3(T0)), AR1 ; |995| 
         00072e 99   
    1717 00072f ED00          MOV dbl(*SP(#0)), XAR3
         000731 BF   
    1718 000732 AB61          MOV *AR3, AR3 ; |995| 
    1719 000734 EC0E          BCLR @#7, AR1 ; |995| 
         000736 92   
    1720 000737 C96B          MOV AR1, port(*AR3(T0)) ; |995| 
         000739 9A   
    1721                      .dwpsn  file "../c5535_bsl_revc/ezdsp5535_v1/c55xx_csl/src/csl_sar.c",line 999,column 13,is_stmt
    1722 00073a ED00          MOV dbl(*SP(#0)), XAR3
         00073c BF   
    1723 00073d AB61          MOV *AR3, AR3 ; |999| 
    1724 00073f A96B          MOV port(*AR3(T0)), AR1 ; |999| 
         000741 99   
TMS320C55x Assembler PC v4.4.1 Fri Sep 14 03:54:53 2018

Tools Copyright (c) 1996-2012 Texas Instruments Incorporated
csl_sar.asm                                                          PAGE   40

    1725 000742 ED00          MOV dbl(*SP(#0)), XAR3
         000744 BF   
    1726 000745 AB61          MOV *AR3, AR3 ; |999| 
    1727 000747 EC0C          BCLR @#6, AR1 ; |999| 
         000749 92   
    1728 00074a EC0C          BSET @#6, AR1 ; |999| 
         00074c 90   
    1729 00074d C96B          MOV AR1, port(*AR3(T0)) ; |999| 
         00074f 9A   
    1730                      .dwpsn  file "../c5535_bsl_revc/ezdsp5535_v1/c55xx_csl/src/csl_sar.c",line 1003,column 13,is_stmt
    1731 000750 ED00          MOV dbl(*SP(#0)), XAR3
         000752 BF   
    1732 000753 AB61          MOV *AR3, AR3 ; |1003| 
    1733 000755 A96B          MOV port(*AR3(T0)), AR1 ; |1003| 
         000757 99   
    1734 000758 ED00          MOV dbl(*SP(#0)), XAR3
         00075a BF   
    1735 00075b AB61          MOV *AR3, AR3 ; |1003| 
    1736 00075d EC04          BCLR @#2, AR1 ; |1003| 
         00075f 92   
    1737 000760 C96B          MOV AR1, port(*AR3(T0)) ; |1003| 
         000762 9A   
    1738                      .dwpsn  file "../c5535_bsl_revc/ezdsp5535_v1/c55xx_csl/src/csl_sar.c",line 1007,column 13,is_stmt
    1739 000763 ED00          MOV dbl(*SP(#0)), XAR3
         000765 BF   
    1740 000766 7600          MOV #24, T0 ; |1007| 
         000768 1848 
    1741 00076a AB61          MOV *AR3, AR3 ; |1007| 
    1742 00076c A96B          MOV port(*AR3(T0)), AR1 ; |1007| 
         00076e 99   
    1743 00076f ED00          MOV dbl(*SP(#0)), XAR3
         000771 BF   
    1744 000772 AB61          MOV *AR3, AR3 ; |1007| 
    1745 000774 EC00          BCLR @#0, AR1 ; |1007| 
         000776 92   
    1746 000777 C96B          MOV AR1, port(*AR3(T0)) ; |1007| 
         000779 9A   
    1747                      .dwpsn  file "../c5535_bsl_revc/ezdsp5535_v1/c55xx_csl/src/csl_sar.c",line 1011,column 13,is_stmt
    1748 00077a ED00          MOV dbl(*SP(#0)), XAR3
         00077c BF   
    1749 00077d AB61          MOV *AR3, AR3 ; |1011| 
    1750 00077f A96B          MOV port(*AR3(T0)), AR1 ; |1011| 
         000781 99   
    1751 000782 ED00          MOV dbl(*SP(#0)), XAR3
         000784 BF   
    1752 000785 AB61          MOV *AR3, AR3 ; |1011| 
    1753 000787 EC10          BCLR @#8, AR1 ; |1011| 
         000789 92   
    1754 00078a C96B          MOV AR1, port(*AR3(T0)) ; |1011| 
         00078c 9A   
    1755                      .dwpsn  file "../c5535_bsl_revc/ezdsp5535_v1/c55xx_csl/src/csl_sar.c",line 1014,column 13,is_stmt
    1756 00078d E60C          MOV #0, *SP(#6) ; |1014| 
         00078f 00   
    1757                      .dwpsn  file "../c5535_bsl_revc/ezdsp5535_v1/c55xx_csl/src/csl_sar.c",line 1015,column 13,is_stmt
    1758 000790 0602          B $C$L53  ; |1015| 
TMS320C55x Assembler PC v4.4.1 Fri Sep 14 03:54:53 2018

Tools Copyright (c) 1996-2012 Texas Instruments Incorporated
csl_sar.asm                                                          PAGE   41

         000792 75   
    1759                                                      ; branch occurs ; |1015| 
    1760 000793       $C$L47:    
    1761                      .dwpsn  file "../c5535_bsl_revc/ezdsp5535_v1/c55xx_csl/src/csl_sar.c",line 1020,column 13,is_stmt
    1762 000793 ED08          MOV dbl(*SP(#4)), XAR3
         000795 BF   
    1763 000796 E661          MOV #5, *AR3 ; |1020| 
         000798 05   
    1764                      .dwpsn  file "../c5535_bsl_revc/ezdsp5535_v1/c55xx_csl/src/csl_sar.c",line 1021,column 13,is_stmt
    1765 000799 A951          MOV *port(#28690), AR1 ; |1021| 
         00079b 7012 
    1766 00079d 7D8F          AND #0x8fff, AR1, AR1 ; |1021| 
         00079f FF99 
    1767 0007a1 7E50          OR #0x5000, AR1, AR1 ; |1021| 
         0007a3 0099 
    1768 0007a5 C951          MOV AR1, *port(#28690) ; |1021| 
         0007a7 7012 
    1769                      .dwpsn  file "../c5535_bsl_revc/ezdsp5535_v1/c55xx_csl/src/csl_sar.c",line 1024,column 13,is_stmt
    1770 0007a9 ED00          MOV dbl(*SP(#0)), XAR3
         0007ab BF   
    1771 0007ac 7600          MOV #24, T0 ; |1024| 
         0007ae 1848 
    1772 0007b0 AB61          MOV *AR3, AR3 ; |1024| 
    1773 0007b2 A96B          MOV port(*AR3(T0)), AR1 ; |1024| 
         0007b4 99   
    1774 0007b5 ED00          MOV dbl(*SP(#0)), XAR3
         0007b7 BF   
    1775 0007b8 AB61          MOV *AR3, AR3 ; |1024| 
    1776 0007ba EC08          BCLR @#4, AR1 ; |1024| 
         0007bc 92   
    1777 0007bd EC08          BSET @#4, AR1 ; |1024| 
         0007bf 90   
    1778 0007c0 C96B          MOV AR1, port(*AR3(T0)) ; |1024| 
         0007c2 9A   
    1779                      .dwpsn  file "../c5535_bsl_revc/ezdsp5535_v1/c55xx_csl/src/csl_sar.c",line 1028,column 13,is_stmt
    1780 0007c3 ED00          MOV dbl(*SP(#0)), XAR3
         0007c5 BF   
    1781 0007c6 7600          MOV #26, T0 ; |1028| 
         0007c8 1A48 
    1782 0007ca AB61          MOV *AR3, AR3 ; |1028| 
    1783 0007cc A96B          MOV port(*AR3(T0)), AR1 ; |1028| 
         0007ce 99   
    1784 0007cf ED00          MOV dbl(*SP(#0)), XAR3
         0007d1 BF   
    1785 0007d2 AB61          MOV *AR3, AR3 ; |1028| 
    1786 0007d4 EC0E          BCLR @#7, AR1 ; |1028| 
         0007d6 92   
    1787 0007d7 C96B          MOV AR1, port(*AR3(T0)) ; |1028| 
         0007d9 9A   
    1788                      .dwpsn  file "../c5535_bsl_revc/ezdsp5535_v1/c55xx_csl/src/csl_sar.c",line 1032,column 13,is_stmt
    1789 0007da ED00          MOV dbl(*SP(#0)), XAR3
         0007dc BF   
    1790 0007dd AB61          MOV *AR3, AR3 ; |1032| 
    1791 0007df A96B          MOV port(*AR3(T0)), AR1 ; |1032| 
         0007e1 99   
TMS320C55x Assembler PC v4.4.1 Fri Sep 14 03:54:53 2018

Tools Copyright (c) 1996-2012 Texas Instruments Incorporated
csl_sar.asm                                                          PAGE   42

    1792 0007e2 ED00          MOV dbl(*SP(#0)), XAR3
         0007e4 BF   
    1793 0007e5 AB61          MOV *AR3, AR3 ; |1032| 
    1794 0007e7 EC0C          BCLR @#6, AR1 ; |1032| 
         0007e9 92   
    1795 0007ea C96B          MOV AR1, port(*AR3(T0)) ; |1032| 
         0007ec 9A   
    1796                      .dwpsn  file "../c5535_bsl_revc/ezdsp5535_v1/c55xx_csl/src/csl_sar.c",line 1037,column 13,is_stmt
    1797 0007ed ED00          MOV dbl(*SP(#0)), XAR3
         0007ef BF   
    1798 0007f0 AB61          MOV *AR3, AR3 ; |1037| 
    1799 0007f2 A96B          MOV port(*AR3(T0)), AR1 ; |1037| 
         0007f4 99   
    1800 0007f5 ED00          MOV dbl(*SP(#0)), XAR3
         0007f7 BF   
    1801 0007f8 AB61          MOV *AR3, AR3 ; |1037| 
    1802 0007fa EC0A          BCLR @#5, AR1 ; |1037| 
         0007fc 92   
    1803 0007fd EC0A          BSET @#5, AR1 ; |1037| 
         0007ff 90   
    1804 000800 C96B          MOV AR1, port(*AR3(T0)) ; |1037| 
         000802 9A   
    1805                      .dwpsn  file "../c5535_bsl_revc/ezdsp5535_v1/c55xx_csl/src/csl_sar.c",line 1040,column 13,is_stmt
    1806 000803 ED00          MOV dbl(*SP(#0)), XAR3
         000805 BF   
    1807 000806 AB61          MOV *AR3, AR3 ; |1040| 
    1808 000808 A96B          MOV port(*AR3(T0)), AR1 ; |1040| 
         00080a 99   
    1809 00080b ED00          MOV dbl(*SP(#0)), XAR3
         00080d BF   
    1810 00080e AB61          MOV *AR3, AR3 ; |1040| 
    1811 000810 EC02          BCLR @#1, AR1 ; |1040| 
         000812 92   
    1812 000813 EC02          BSET @#1, AR1 ; |1040| 
         000815 90   
    1813 000816 C96B          MOV AR1, port(*AR3(T0)) ; |1040| 
         000818 9A   
    1814                      .dwpsn  file "../c5535_bsl_revc/ezdsp5535_v1/c55xx_csl/src/csl_sar.c",line 1044,column 13,is_stmt
    1815 000819 ED00          MOV dbl(*SP(#0)), XAR3
         00081b BF   
    1816 00081c AB61          MOV *AR3, AR3 ; |1044| 
    1817 00081e A96B          MOV port(*AR3(T0)), AR1 ; |1044| 
         000820 99   
    1818 000821 ED00          MOV dbl(*SP(#0)), XAR3
         000823 BF   
    1819 000824 AB61          MOV *AR3, AR3 ; |1044| 
    1820 000826 EC08          BCLR @#4, AR1 ; |1044| 
         000828 92   
    1821 000829 EC08          BSET @#4, AR1 ; |1044| 
         00082b 90   
    1822 00082c C96B          MOV AR1, port(*AR3(T0)) ; |1044| 
         00082e 9A   
    1823                      .dwpsn  file "../c5535_bsl_revc/ezdsp5535_v1/c55xx_csl/src/csl_sar.c",line 1047,column 13,is_stmt
    1824 00082f ED00          MOV dbl(*SP(#0)), XAR3
         000831 BF   
TMS320C55x Assembler PC v4.4.1 Fri Sep 14 03:54:53 2018

Tools Copyright (c) 1996-2012 Texas Instruments Incorporated
csl_sar.asm                                                          PAGE   43

    1825 000832 AB61          MOV *AR3, AR3 ; |1047| 
    1826 000834 A96B          MOV port(*AR3(T0)), AR1 ; |1047| 
         000836 99   
    1827 000837 ED00          MOV dbl(*SP(#0)), XAR3
         000839 BF   
    1828 00083a AB61          MOV *AR3, AR3 ; |1047| 
    1829 00083c EC00          BCLR @#0, AR1 ; |1047| 
         00083e 92   
    1830 00083f C96B          MOV AR1, port(*AR3(T0)) ; |1047| 
         000841 9A   
    1831                      .dwpsn  file "../c5535_bsl_revc/ezdsp5535_v1/c55xx_csl/src/csl_sar.c",line 1051,column 13,is_stmt
    1832 000842 ED00          MOV dbl(*SP(#0)), XAR3
         000844 BF   
    1833 000845 AB61          MOV *AR3, AR3 ; |1051| 
    1834 000847 A96B          MOV port(*AR3(T0)), AR1 ; |1051| 
         000849 99   
    1835 00084a ED00          MOV dbl(*SP(#0)), XAR3
         00084c BF   
    1836 00084d AB61          MOV *AR3, AR3 ; |1051| 
    1837 00084f EC10          BCLR @#8, AR1 ; |1051| 
         000851 92   
    1838 000852 C96B          MOV AR1, port(*AR3(T0)) ; |1051| 
         000854 9A   
    1839                      .dwpsn  file "../c5535_bsl_revc/ezdsp5535_v1/c55xx_csl/src/csl_sar.c",line 1055,column 13,is_stmt
    1840 000855 E60C          MOV #0, *SP(#6) ; |1055| 
         000857 00   
    1841                      .dwpsn  file "../c5535_bsl_revc/ezdsp5535_v1/c55xx_csl/src/csl_sar.c",line 1056,column 13,is_stmt
    1842 000858 0601          B $C$L53  ; |1056| 
         00085a AD   
    1843                                                      ; branch occurs ; |1056| 
    1844 00085b       $C$L48:    
    1845                      .dwpsn  file "../c5535_bsl_revc/ezdsp5535_v1/c55xx_csl/src/csl_sar.c",line 1061,column 13,is_stmt
    1846 00085b ED08          MOV dbl(*SP(#4)), XAR3
         00085d BF   
    1847 00085e E661          MOV #3, *AR3 ; |1061| 
         000860 03   
    1848                      .dwpsn  file "../c5535_bsl_revc/ezdsp5535_v1/c55xx_csl/src/csl_sar.c",line 1062,column 13,is_stmt
    1849 000861 A951          MOV *port(#28690), AR1 ; |1062| 
         000863 7012 
    1850 000865 7D8F          AND #0x8fff, AR1, AR1 ; |1062| 
         000867 FF99 
    1851 000869 7E30          OR #0x3000, AR1, AR1 ; |1062| 
         00086b 0099 
    1852 00086d C951          MOV AR1, *port(#28690) ; |1062| 
         00086f 7012 
    1853                      .dwpsn  file "../c5535_bsl_revc/ezdsp5535_v1/c55xx_csl/src/csl_sar.c",line 1065,column 13,is_stmt
    1854 000871 ED00          MOV dbl(*SP(#0)), XAR3
         000873 BF   
    1855 000874 7600          MOV #24, T0 ; |1065| 
         000876 1848 
    1856 000878 AB61          MOV *AR3, AR3 ; |1065| 
    1857 00087a A96B          MOV port(*AR3(T0)), AR1 ; |1065| 
         00087c 99   
    1858 00087d ED00          MOV dbl(*SP(#0)), XAR3
         00087f BF   
TMS320C55x Assembler PC v4.4.1 Fri Sep 14 03:54:53 2018

Tools Copyright (c) 1996-2012 Texas Instruments Incorporated
csl_sar.asm                                                          PAGE   44

    1859 000880 AB61          MOV *AR3, AR3 ; |1065| 
    1860 000882 EC08          BCLR @#4, AR1 ; |1065| 
         000884 92   
    1861 000885 EC08          BSET @#4, AR1 ; |1065| 
         000887 90   
    1862 000888 C96B          MOV AR1, port(*AR3(T0)) ; |1065| 
         00088a 9A   
    1863                      .dwpsn  file "../c5535_bsl_revc/ezdsp5535_v1/c55xx_csl/src/csl_sar.c",line 1069,column 13,is_stmt
    1864 00088b ED00          MOV dbl(*SP(#0)), XAR3
         00088d BF   
    1865 00088e 7600          MOV #26, T0 ; |1069| 
         000890 1A48 
    1866 000892 AB61          MOV *AR3, AR3 ; |1069| 
    1867 000894 A96B          MOV port(*AR3(T0)), AR1 ; |1069| 
         000896 99   
    1868 000897 ED00          MOV dbl(*SP(#0)), XAR3
         000899 BF   
    1869 00089a AB61          MOV *AR3, AR3 ; |1069| 
    1870 00089c EC0E          BCLR @#7, AR1 ; |1069| 
         00089e 92   
    1871 00089f EC0E          BSET @#7, AR1 ; |1069| 
         0008a1 90   
    1872 0008a2 C96B          MOV AR1, port(*AR3(T0)) ; |1069| 
         0008a4 9A   
    1873                      .dwpsn  file "../c5535_bsl_revc/ezdsp5535_v1/c55xx_csl/src/csl_sar.c",line 1072,column 13,is_stmt
    1874 0008a5 ED00          MOV dbl(*SP(#0)), XAR3
         0008a7 BF   
    1875 0008a8 AB61          MOV *AR3, AR3 ; |1072| 
    1876 0008aa A96B          MOV port(*AR3(T0)), AR1 ; |1072| 
         0008ac 99   
    1877 0008ad ED00          MOV dbl(*SP(#0)), XAR3
         0008af BF   
    1878 0008b0 AB61          MOV *AR3, AR3 ; |1072| 
    1879 0008b2 EC06          BCLR @#3, AR1 ; |1072| 
         0008b4 92   
    1880 0008b5 EC06          BSET @#3, AR1 ; |1072| 
         0008b7 90   
    1881 0008b8 C96B          MOV AR1, port(*AR3(T0)) ; |1072| 
         0008ba 9A   
    1882                      .dwpsn  file "../c5535_bsl_revc/ezdsp5535_v1/c55xx_csl/src/csl_sar.c",line 1075,column 13,is_stmt
    1883 0008bb ED00          MOV dbl(*SP(#0)), XAR3
         0008bd BF   
    1884 0008be AB61          MOV *AR3, AR3 ; |1075| 
    1885 0008c0 A96B          MOV port(*AR3(T0)), AR1 ; |1075| 
         0008c2 99   
    1886 0008c3 ED00          MOV dbl(*SP(#0)), XAR3
         0008c5 BF   
    1887 0008c6 AB61          MOV *AR3, AR3 ; |1075| 
    1888 0008c8 EC0C          BCLR @#6, AR1 ; |1075| 
         0008ca 92   
    1889 0008cb EC0C          BSET @#6, AR1 ; |1075| 
         0008cd 90   
    1890 0008ce C96B          MOV AR1, port(*AR3(T0)) ; |1075| 
         0008d0 9A   
    1891                      .dwpsn  file "../c5535_bsl_revc/ezdsp5535_v1/c55xx_csl/src/csl_sar.c",line 1078,column 13,is_stmt
TMS320C55x Assembler PC v4.4.1 Fri Sep 14 03:54:53 2018

Tools Copyright (c) 1996-2012 Texas Instruments Incorporated
csl_sar.asm                                                          PAGE   45

    1892 0008d1 ED00          MOV dbl(*SP(#0)), XAR3
         0008d3 BF   
    1893 0008d4 AB61          MOV *AR3, AR3 ; |1078| 
    1894 0008d6 A96B          MOV port(*AR3(T0)), AR1 ; |1078| 
         0008d8 99   
    1895 0008d9 ED00          MOV dbl(*SP(#0)), XAR3
         0008db BF   
    1896 0008dc AB61          MOV *AR3, AR3 ; |1078| 
    1897 0008de EC04          BCLR @#2, AR1 ; |1078| 
         0008e0 92   
    1898 0008e1 C96B          MOV AR1, port(*AR3(T0)) ; |1078| 
         0008e3 9A   
    1899                      .dwpsn  file "../c5535_bsl_revc/ezdsp5535_v1/c55xx_csl/src/csl_sar.c",line 1082,column 13,is_stmt
    1900 0008e4 ED00          MOV dbl(*SP(#0)), XAR3
         0008e6 BF   
    1901 0008e7 AB61          MOV *AR3, AR3 ; |1082| 
    1902 0008e9 A96B          MOV port(*AR3(T0)), AR1 ; |1082| 
         0008eb 99   
    1903 0008ec ED00          MOV dbl(*SP(#0)), XAR3
         0008ee BF   
    1904 0008ef AB61          MOV *AR3, AR3 ; |1082| 
    1905 0008f1 EC0A          BCLR @#5, AR1 ; |1082| 
         0008f3 92   
    1906 0008f4 C96B          MOV AR1, port(*AR3(T0)) ; |1082| 
         0008f6 9A   
    1907                      .dwpsn  file "../c5535_bsl_revc/ezdsp5535_v1/c55xx_csl/src/csl_sar.c",line 1085,column 13,is_stmt
    1908 0008f7 ED00          MOV dbl(*SP(#0)), XAR3
         0008f9 BF   
    1909 0008fa AB61          MOV *AR3, AR3 ; |1085| 
    1910 0008fc A96B          MOV port(*AR3(T0)), AR1 ; |1085| 
         0008fe 99   
    1911 0008ff ED00          MOV dbl(*SP(#0)), XAR3
         000901 BF   
    1912 000902 AB61          MOV *AR3, AR3 ; |1085| 
    1913 000904 EC08          BCLR @#4, AR1 ; |1085| 
         000906 92   
    1914 000907 C96B          MOV AR1, port(*AR3(T0)) ; |1085| 
         000909 9A   
    1915                      .dwpsn  file "../c5535_bsl_revc/ezdsp5535_v1/c55xx_csl/src/csl_sar.c",line 1089,column 13,is_stmt
    1916 00090a ED00          MOV dbl(*SP(#0)), XAR3
         00090c BF   
    1917 00090d AB61          MOV *AR3, AR3 ; |1089| 
    1918 00090f A96B          MOV port(*AR3(T0)), AR1 ; |1089| 
         000911 99   
    1919 000912 ED00          MOV dbl(*SP(#0)), XAR3
         000914 BF   
    1920 000915 AB61          MOV *AR3, AR3 ; |1089| 
    1921 000917 EC10          BCLR @#8, AR1 ; |1089| 
         000919 92   
    1922 00091a C96B          MOV AR1, port(*AR3(T0)) ; |1089| 
         00091c 9A   
    1923                      .dwpsn  file "../c5535_bsl_revc/ezdsp5535_v1/c55xx_csl/src/csl_sar.c",line 1092,column 13,is_stmt
    1924 00091d E60C          MOV #0, *SP(#6) ; |1092| 
         00091f 00   
    1925                      .dwpsn  file "../c5535_bsl_revc/ezdsp5535_v1/c55xx_csl/src/csl_sar.c",line 1093,column 13,is_stmt
TMS320C55x Assembler PC v4.4.1 Fri Sep 14 03:54:53 2018

Tools Copyright (c) 1996-2012 Texas Instruments Incorporated
csl_sar.asm                                                          PAGE   46

    1926 000920 0600          B $C$L53  ; |1093| 
         000922 E5   
    1927                                                      ; branch occurs ; |1093| 
    1928 000923       $C$L49:    
    1929                      .dwpsn  file "../c5535_bsl_revc/ezdsp5535_v1/c55xx_csl/src/csl_sar.c",line 1100,column 13,is_stmt
    1930 000923 ED08          MOV dbl(*SP(#4)), XAR3
         000925 BF   
    1931 000926 E661          MOV #5, *AR3 ; |1100| 
         000928 05   
    1932                      .dwpsn  file "../c5535_bsl_revc/ezdsp5535_v1/c55xx_csl/src/csl_sar.c",line 1101,column 13,is_stmt
    1933 000929 A951          MOV *port(#28690), AR1 ; |1101| 
         00092b 7012 
    1934 00092d 7D8F          AND #0x8fff, AR1, AR1 ; |1101| 
         00092f FF99 
    1935 000931 7E50          OR #0x5000, AR1, AR1 ; |1101| 
         000933 0099 
    1936 000935 C951          MOV AR1, *port(#28690) ; |1101| 
         000937 7012 
    1937                      .dwpsn  file "../c5535_bsl_revc/ezdsp5535_v1/c55xx_csl/src/csl_sar.c",line 1104,column 13,is_stmt
    1938 000939 ED00          MOV dbl(*SP(#0)), XAR3
         00093b BF   
    1939 00093c 7600          MOV #26, T0 ; |1104| 
         00093e 1A48 
    1940 000940 AB61          MOV *AR3, AR3 ; |1104| 
    1941 000942 A96B          MOV port(*AR3(T0)), AR1 ; |1104| 
         000944 99   
    1942 000945 ED00          MOV dbl(*SP(#0)), XAR3
         000947 BF   
    1943 000948 AB61          MOV *AR3, AR3 ; |1104| 
    1944 00094a EC0E          BCLR @#7, AR1 ; |1104| 
         00094c 92   
    1945 00094d C96B          MOV AR1, port(*AR3(T0)) ; |1104| 
         00094f 9A   
    1946                      .dwpsn  file "../c5535_bsl_revc/ezdsp5535_v1/c55xx_csl/src/csl_sar.c",line 1108,column 13,is_stmt
    1947 000950 ED00          MOV dbl(*SP(#0)), XAR3
         000952 BF   
    1948 000953 AB61          MOV *AR3, AR3 ; |1108| 
    1949 000955 A96B          MOV port(*AR3(T0)), AR1 ; |1108| 
         000957 99   
    1950 000958 ED00          MOV dbl(*SP(#0)), XAR3
         00095a BF   
    1951 00095b AB61          MOV *AR3, AR3 ; |1108| 
    1952 00095d EC0C          BCLR @#6, AR1 ; |1108| 
         00095f 92   
    1953 000960 EC0C          BSET @#6, AR1 ; |1108| 
         000962 90   
    1954 000963 C96B          MOV AR1, port(*AR3(T0)) ; |1108| 
         000965 9A   
    1955                      .dwpsn  file "../c5535_bsl_revc/ezdsp5535_v1/c55xx_csl/src/csl_sar.c",line 1111,column 13,is_stmt
    1956 000966 ED00          MOV dbl(*SP(#0)), XAR3
         000968 BF   
    1957 000969 AB61          MOV *AR3, AR3 ; |1111| 
    1958 00096b A96B          MOV port(*AR3(T0)), AR1 ; |1111| 
         00096d 99   
    1959 00096e ED00          MOV dbl(*SP(#0)), XAR3
TMS320C55x Assembler PC v4.4.1 Fri Sep 14 03:54:53 2018

Tools Copyright (c) 1996-2012 Texas Instruments Incorporated
csl_sar.asm                                                          PAGE   47

         000970 BF   
    1960 000971 AB61          MOV *AR3, AR3 ; |1111| 
    1961 000973 EC04          BCLR @#2, AR1 ; |1111| 
         000975 92   
    1962 000976 C96B          MOV AR1, port(*AR3(T0)) ; |1111| 
         000978 9A   
    1963                      .dwpsn  file "../c5535_bsl_revc/ezdsp5535_v1/c55xx_csl/src/csl_sar.c",line 1115,column 13,is_stmt
    1964 000979 ED00          MOV dbl(*SP(#0)), XAR3
         00097b BF   
    1965 00097c AB61          MOV *AR3, AR3 ; |1115| 
    1966 00097e A96B          MOV port(*AR3(T0)), AR1 ; |1115| 
         000980 99   
    1967 000981 ED00          MOV dbl(*SP(#0)), XAR3
         000983 BF   
    1968 000984 AB61          MOV *AR3, AR3 ; |1115| 
    1969 000986 EC0A          BCLR @#5, AR1 ; |1115| 
         000988 92   
    1970 000989 C96B          MOV AR1, port(*AR3(T0)) ; |1115| 
         00098b 9A   
    1971                      .dwpsn  file "../c5535_bsl_revc/ezdsp5535_v1/c55xx_csl/src/csl_sar.c",line 1118,column 13,is_stmt
    1972 00098c ED00          MOV dbl(*SP(#0)), XAR3
         00098e BF   
    1973 00098f AB61          MOV *AR3, AR3 ; |1118| 
    1974 000991 A96B          MOV port(*AR3(T0)), AR1 ; |1118| 
         000993 99   
    1975 000994 ED00          MOV dbl(*SP(#0)), XAR3
         000996 BF   
    1976 000997 AB61          MOV *AR3, AR3 ; |1118| 
    1977 000999 EC08          BCLR @#4, AR1 ; |1118| 
         00099b 92   
    1978 00099c C96B          MOV AR1, port(*AR3(T0)) ; |1118| 
         00099e 9A   
    1979                      .dwpsn  file "../c5535_bsl_revc/ezdsp5535_v1/c55xx_csl/src/csl_sar.c",line 1122,column 13,is_stmt
    1980 00099f ED00          MOV dbl(*SP(#0)), XAR3
         0009a1 BF   
    1981 0009a2 AB61          MOV *AR3, AR3 ; |1122| 
    1982 0009a4 A96B          MOV port(*AR3(T0)), AR1 ; |1122| 
         0009a6 99   
    1983 0009a7 ED00          MOV dbl(*SP(#0)), XAR3
         0009a9 BF   
    1984 0009aa AB61          MOV *AR3, AR3 ; |1122| 
    1985 0009ac EC10          BCLR @#8, AR1 ; |1122| 
         0009ae 92   
    1986 0009af EC10          BSET @#8, AR1 ; |1122| 
         0009b1 90   
    1987 0009b2 C96B          MOV AR1, port(*AR3(T0)) ; |1122| 
         0009b4 9A   
    1988                      .dwpsn  file "../c5535_bsl_revc/ezdsp5535_v1/c55xx_csl/src/csl_sar.c",line 1124,column 13,is_stmt
    1989 0009b5 E60C          MOV #0, *SP(#6) ; |1124| 
         0009b7 00   
    1990                      .dwpsn  file "../c5535_bsl_revc/ezdsp5535_v1/c55xx_csl/src/csl_sar.c",line 1125,column 13,is_stmt
    1991 0009b8 0600          B $C$L53  ; |1125| 
         0009ba 4D   
    1992                                                      ; branch occurs ; |1125| 
    1993 0009bb       $C$L50:    
TMS320C55x Assembler PC v4.4.1 Fri Sep 14 03:54:53 2018

Tools Copyright (c) 1996-2012 Texas Instruments Incorporated
csl_sar.asm                                                          PAGE   48

    1994                      .dwpsn  file "../c5535_bsl_revc/ezdsp5535_v1/c55xx_csl/src/csl_sar.c",line 1129,column 9,is_stmt
    1995 0009bb E60C          MOV #-6, *SP(#6) ; |1129| 
         0009bd FA   
    1996                      .dwpsn  file "../c5535_bsl_revc/ezdsp5535_v1/c55xx_csl/src/csl_sar.c",line 1130,column 14,is_stmt
    1997 0009be 0600          B $C$L53  ; |1130| 
         0009c0 47   
    1998                                                      ; branch occurs ; |1130| 
    1999 0009c1       $C$L51:    
    2000                      .dwpsn  file "../c5535_bsl_revc/ezdsp5535_v1/c55xx_csl/src/csl_sar.c",line 923,column 5,is_stmt
    2001              
    2002 0009c1 A904          MOV *SP(#2), AR1 ; |923| 
    2003 0009c3 3D3A  ||      MOV #3, AR2
    2004              
    2005 0009c5 12A4          CMP AR1 > AR2, TC1 ; |923| 
         0009c7 90   
    2006 0009c8 0464          BCC $C$L52,TC1 ; |923| 
         0009ca 1F   
    2007                                                      ; branchcc occurs ; |923| 
    2008 0009cb 1290          CMP AR1 == AR2, TC1 ; |923| 
         0009cd A0   
    2009 0009ce 6D64          BCC $C$L46,TC1 ; |923| 
         0009d0 FD3B 
    2010                                                      ; branchcc occurs ; |923| 
    2011 0009d2 6D09          BCC $C$L43,AR1 == #0 ; |923| 
         0009d4 FBDB 
    2012                                                      ; branchcc occurs ; |923| 
    2013 0009d6 3C1A          MOV #1, AR2
    2014 0009d8 1290          CMP AR1 == AR2, TC1 ; |923| 
         0009da A0   
    2015 0009db 6D64          BCC $C$L44,TC1 ; |923| 
         0009dd FC2B 
    2016                                                      ; branchcc occurs ; |923| 
    2017 0009df 3C2A          MOV #2, AR2
    2018 0009e1 1290          CMP AR1 == AR2, TC1 ; |923| 
         0009e3 A0   
    2019 0009e4 6D64          BCC $C$L45,TC1 ; |923| 
         0009e6 FC94 
    2020                                                      ; branchcc occurs ; |923| 
    2021 0009e8 4A51          B $C$L50  ; |923| 
    2022                                                      ; branch occurs ; |923| 
    2023 0009ea       $C$L52:    
    2024 0009ea 3C4A          MOV #4, AR2
    2025 0009ec 1290          CMP AR1 == AR2, TC1 ; |923| 
         0009ee A0   
    2026 0009ef 6D64          BCC $C$L47,TC1 ; |923| 
         0009f1 FDA0 
    2027                                                      ; branchcc occurs ; |923| 
    2028 0009f3 3C5A          MOV #5, AR2
    2029 0009f5 1290          CMP AR1 == AR2, TC1 ; |923| 
         0009f7 A0   
    2030 0009f8 6D64          BCC $C$L48,TC1 ; |923| 
         0009fa FE5F 
    2031                                                      ; branchcc occurs ; |923| 
    2032 0009fc 3C6A          MOV #6, AR2
    2033 0009fe 1290          CMP AR1 == AR2, TC1 ; |923| 
TMS320C55x Assembler PC v4.4.1 Fri Sep 14 03:54:53 2018

Tools Copyright (c) 1996-2012 Texas Instruments Incorporated
csl_sar.asm                                                          PAGE   49

         000a00 A0   
    2034 000a01 6D64          BCC $C$L49,TC1 ; |923| 
         000a03 FF1E 
    2035                                                      ; branchcc occurs ; |923| 
    2036 000a05 06FF          B $C$L50  ; |923| 
         000a07 B3   
    2037                                                      ; branch occurs ; |923| 
    2038 000a08       $C$L53:    
    2039                      .dwpsn  file "../c5535_bsl_revc/ezdsp5535_v1/c55xx_csl/src/csl_sar.c",line 1132,column 5,is_stmt
    2040 000a08 A40C          MOV *SP(#6), T0 ; |1132| 
    2041 000a0a       $C$L54:    
    2042                      .dwpsn  file "../c5535_bsl_revc/ezdsp5535_v1/c55xx_csl/src/csl_sar.c",line 1133,column 1,is_stmt
    2043 000a0a 4E07          AADD #7, SP
    2044                      .dwcfi  cfa_offset, 1
    2045              $C$DW$69        .dwtag  DW_TAG_TI_branch
    2046                      .dwattr $C$DW$69, DW_AT_low_pc(0x00)
    2047                      .dwattr $C$DW$69, DW_AT_TI_return
    2048 000a0c 4804          RET
    2049                                                      ; return occurs
    2050                      .dwattr $C$DW$61, DW_AT_TI_end_file("../c5535_bsl_revc/ezdsp5535_v1/c55xx_csl/src/csl_sar.c")
    2051                      .dwattr $C$DW$61, DW_AT_TI_end_line(0x46d)
    2052                      .dwattr $C$DW$61, DW_AT_TI_end_column(0x01)
    2053                      .dwendentry
    2054                      .dwendtag $C$DW$61
    2055              
    2056 000a0e               .sect   ".text"
    2057                      .align 4
    2058                      .global _SAR_GPODirSet
    2059              
    2060              $C$DW$70        .dwtag  DW_TAG_subprogram, DW_AT_name("SAR_GPODirSet")
    2061                      .dwattr $C$DW$70, DW_AT_low_pc(_SAR_GPODirSet)
    2062                      .dwattr $C$DW$70, DW_AT_high_pc(0x00)
    2063                      .dwattr $C$DW$70, DW_AT_TI_symbol_name("_SAR_GPODirSet")
    2064                      .dwattr $C$DW$70, DW_AT_external
    2065                      .dwattr $C$DW$70, DW_AT_type(*$C$DW$T$64)
    2066                      .dwattr $C$DW$70, DW_AT_TI_begin_file("../c5535_bsl_revc/ezdsp5535_v1/c55xx_csl/src/csl_sar.c")
    2067                      .dwattr $C$DW$70, DW_AT_TI_begin_line(0x498)
    2068                      .dwattr $C$DW$70, DW_AT_TI_begin_column(0x0c)
    2069                      .dwattr $C$DW$70, DW_AT_TI_max_frame_size(0x06)
    2070                      .dwpsn  file "../c5535_bsl_revc/ezdsp5535_v1/c55xx_csl/src/csl_sar.c",line 1181,column 1,is_stmt,addr
    2071              
    2072                      .dwfde $C$DW$CIE, _SAR_GPODirSet
    2073              $C$DW$71        .dwtag  DW_TAG_formal_parameter, DW_AT_name("hSar")
    2074                      .dwattr $C$DW$71, DW_AT_TI_symbol_name("_hSar")
    2075                      .dwattr $C$DW$71, DW_AT_type(*$C$DW$T$53)
    2076                      .dwattr $C$DW$71, DW_AT_location[DW_OP_reg17]
    2077              $C$DW$72        .dwtag  DW_TAG_formal_parameter, DW_AT_name("Index")
    2078                      .dwattr $C$DW$72, DW_AT_TI_symbol_name("_Index")
    2079                      .dwattr $C$DW$72, DW_AT_type(*$C$DW$T$49)
    2080                      .dwattr $C$DW$72, DW_AT_location[DW_OP_reg12]
    2081              $C$DW$73        .dwtag  DW_TAG_formal_parameter, DW_AT_name("dir")
    2082                      .dwattr $C$DW$73, DW_AT_TI_symbol_name("_dir")
    2083                      .dwattr $C$DW$73, DW_AT_type(*$C$DW$T$51)
    2084                      .dwattr $C$DW$73, DW_AT_location[DW_OP_reg13]
    2085              ;*******************************************************************************
TMS320C55x Assembler PC v4.4.1 Fri Sep 14 03:54:53 2018

Tools Copyright (c) 1996-2012 Texas Instruments Incorporated
csl_sar.asm                                                          PAGE   50

    2086              ;* FUNCTION NAME: SAR_GPODirSet                                                *
    2087              ;*                                                                             *
    2088              ;*   Function Uses Regs : AC0,AC0,AC1,AC1,T0,T1,AR0,XAR0,AR1,AR2,AR3,XAR3,SP,  *
    2089              ;*                        TC1,M40,SATA,SATD,RDM,FRCT,SMUL                      *
    2090              ;*   Stack Frame        : Compact (No Frame Pointer, w/ debug)                 *
    2091              ;*   Total Frame Size   : 6 words                                              *
    2092              ;*                        (2 return address/alignment)                         *
    2093              ;*                        (4 local values)                                     *
    2094              ;*   Min System Stack   : 1 word                                               *
    2095              ;*******************************************************************************
    2096 000a10       _SAR_GPODirSet:
    2097                      .dwcfi  cfa_offset, 1
    2098                      .dwcfi  save_reg_to_mem, 91, -1
    2099 000a10 4EFB          AADD #-5, SP
    2100                      .dwcfi  cfa_offset, 6
    2101              $C$DW$74        .dwtag  DW_TAG_variable, DW_AT_name("hSar")
    2102                      .dwattr $C$DW$74, DW_AT_TI_symbol_name("_hSar")
    2103                      .dwattr $C$DW$74, DW_AT_type(*$C$DW$T$53)
    2104                      .dwattr $C$DW$74, DW_AT_location[DW_OP_bregx 0x24 0]
    2105              $C$DW$75        .dwtag  DW_TAG_variable, DW_AT_name("Index")
    2106                      .dwattr $C$DW$75, DW_AT_TI_symbol_name("_Index")
    2107                      .dwattr $C$DW$75, DW_AT_type(*$C$DW$T$49)
    2108                      .dwattr $C$DW$75, DW_AT_location[DW_OP_bregx 0x24 2]
    2109              $C$DW$76        .dwtag  DW_TAG_variable, DW_AT_name("dir")
    2110                      .dwattr $C$DW$76, DW_AT_TI_symbol_name("_dir")
    2111                      .dwattr $C$DW$76, DW_AT_type(*$C$DW$T$51)
    2112                      .dwattr $C$DW$76, DW_AT_location[DW_OP_bregx 0x24 3]
    2113 000a12 C506          MOV T1, *SP(#3) ; |1181| 
    2114 000a14 C404          MOV T0, *SP(#2) ; |1181| 
    2115 000a16 EB00          MOV XAR0, dbl(*SP(#0))
         000a18 85   
    2116                      .dwpsn  file "../c5535_bsl_revc/ezdsp5535_v1/c55xx_csl/src/csl_sar.c",line 1182,column 5,is_stmt
    2117 000a19 ED00          MOV dbl(*SP(#0)), XAR3
         000a1b BF   
    2118              
    2119 000a1c 90B0          MOV XAR3, AC0
    2120 000a1e 3D01  ||      MOV #0, AC1 ; |1182| 
    2121              
    2122 000a20 121C          CMPU AC1 != AC0, TC1 ; |1182| 
         000a22 04   
    2123 000a23 62E4          BCC $C$L55,TC1 ; |1182| 
    2124                                                      ; branchcc occurs ; |1182| 
    2125                      .dwpsn  file "../c5535_bsl_revc/ezdsp5535_v1/c55xx_csl/src/csl_sar.c",line 1184,column 9,is_stmt
    2126 000a25 3E54          MOV #-5, T0
    2127 000a27 0600          B $C$L63  ; |1184| 
         000a29 BE   
    2128                                                      ; branch occurs ; |1184| 
    2129 000a2a       $C$L55:    
    2130                      .dwpsn  file "../c5535_bsl_revc/ezdsp5535_v1/c55xx_csl/src/csl_sar.c",line 1187,column 5,is_stmt
    2131              
    2132 000a2c 3D0A          MOV #0, AR2
    2133 000a2a A906  ||      MOV *SP(#3), AR1 ; |1187| 
    2134              
    2135 000a2e 12A0          CMP AR2 == AR1, TC1 ; |1187| 
         000a30 90   
TMS320C55x Assembler PC v4.4.1 Fri Sep 14 03:54:53 2018

Tools Copyright (c) 1996-2012 Texas Instruments Incorporated
csl_sar.asm                                                          PAGE   51

    2136 000a31 6D64          BCC $C$L61,TC1 ; |1187| 
         000a33 0091 
    2137                                                      ; branchcc occurs ; |1187| 
    2138 000a35 3C1A          MOV #1, AR2
    2139 000a37 12A0          CMP AR2 == AR1, TC1 ; |1187| 
         000a39 90   
    2140 000a3a 6D64          BCC $C$L61,TC1 ; |1187| 
         000a3c 0088 
    2141                                                      ; branchcc occurs ; |1187| 
    2142                      .dwpsn  file "../c5535_bsl_revc/ezdsp5535_v1/c55xx_csl/src/csl_sar.c",line 1189,column 9,is_stmt
    2143 000a3e 3E64          MOV #-6, T0
    2144 000a40 0600          B $C$L63  ; |1189| 
         000a42 A5   
    2145                                                      ; branch occurs ; |1189| 
    2146 000a43       $C$L56:    
    2147                      .dwpsn  file "../c5535_bsl_revc/ezdsp5535_v1/c55xx_csl/src/csl_sar.c",line 1195,column 9,is_stmt
    2148 000a43 7600          MOV #26, T0 ; |1195| 
         000a45 1A48 
    2149 000a47 AB61          MOV *AR3, AR3 ; |1195| 
    2150 000a49 AA6B          MOV port(*AR3(T0)), AR2 ; |1195| 
         000a4b 99   
    2151 000a4c ED00          MOV dbl(*SP(#0)), XAR3
         000a4e BF   
    2152 000a4f AB61          MOV *AR3, AR3 ; |1195| 
    2153 000a51 F906          MOV *SP(#3) << #4, AC0 ; |1195| 
         000a53 0408 
    2154 000a55 1810          AND #0x0010, AC0, AR1 ; |1195| 
         000a57 90   
    2155 000a58 EC08          BCLR @#4, AR2 ; |1195| 
         000a5a A2   
    2156 000a5b 2AA9          OR AR2, AR1 ; |1195| 
    2157 000a5d C96B          MOV AR1, port(*AR3(T0)) ; |1195| 
         000a5f 9A   
    2158                      .dwpsn  file "../c5535_bsl_revc/ezdsp5535_v1/c55xx_csl/src/csl_sar.c",line 1196,column 14,is_stmt
    2159 000a60 0600          B $C$L62  ; |1196| 
         000a62 83   
    2160                                                      ; branch occurs ; |1196| 
    2161 000a63       $C$L57:    
    2162                      .dwpsn  file "../c5535_bsl_revc/ezdsp5535_v1/c55xx_csl/src/csl_sar.c",line 1200,column 9,is_stmt
    2163 000a63 7600          MOV #26, T0 ; |1200| 
         000a65 1A48 
    2164 000a67 AB61          MOV *AR3, AR3 ; |1200| 
    2165 000a69 AA6B          MOV port(*AR3(T0)), AR2 ; |1200| 
         000a6b 99   
    2166 000a6c ED00          MOV dbl(*SP(#0)), XAR3
         000a6e BF   
    2167 000a6f AB61          MOV *AR3, AR3 ; |1200| 
    2168 000a71 F906          MOV *SP(#3) << #5, AC0 ; |1200| 
         000a73 0508 
    2169 000a75 1820          AND #0x0020, AC0, AR1 ; |1200| 
         000a77 90   
    2170 000a78 EC0A          BCLR @#5, AR2 ; |1200| 
         000a7a A2   
    2171 000a7b 2AA9          OR AR2, AR1 ; |1200| 
    2172 000a7d C96B          MOV AR1, port(*AR3(T0)) ; |1200| 
TMS320C55x Assembler PC v4.4.1 Fri Sep 14 03:54:53 2018

Tools Copyright (c) 1996-2012 Texas Instruments Incorporated
csl_sar.asm                                                          PAGE   52

         000a7f 9A   
    2173                      .dwpsn  file "../c5535_bsl_revc/ezdsp5535_v1/c55xx_csl/src/csl_sar.c",line 1201,column 14,is_stmt
    2174 000a80 0600          B $C$L62  ; |1201| 
         000a82 63   
    2175                                                      ; branch occurs ; |1201| 
    2176 000a83       $C$L58:    
    2177                      .dwpsn  file "../c5535_bsl_revc/ezdsp5535_v1/c55xx_csl/src/csl_sar.c",line 1205,column 9,is_stmt
    2178 000a83 7600          MOV #26, T0 ; |1205| 
         000a85 1A48 
    2179 000a87 AB61          MOV *AR3, AR3 ; |1205| 
    2180 000a89 AA6B          MOV port(*AR3(T0)), AR2 ; |1205| 
         000a8b 99   
    2181 000a8c ED00          MOV dbl(*SP(#0)), XAR3
         000a8e BF   
    2182 000a8f AB61          MOV *AR3, AR3 ; |1205| 
    2183 000a91 F906          MOV *SP(#3) << #6, AC0 ; |1205| 
         000a93 0608 
    2184 000a95 1840          AND #0x0040, AC0, AR1 ; |1205| 
         000a97 90   
    2185 000a98 EC0C          BCLR @#6, AR2 ; |1205| 
         000a9a A2   
    2186 000a9b 2AA9          OR AR2, AR1 ; |1205| 
    2187 000a9d C96B          MOV AR1, port(*AR3(T0)) ; |1205| 
         000a9f 9A   
    2188                      .dwpsn  file "../c5535_bsl_revc/ezdsp5535_v1/c55xx_csl/src/csl_sar.c",line 1206,column 14,is_stmt
    2189 000aa0 0600          B $C$L62  ; |1206| 
         000aa2 43   
    2190                                                      ; branch occurs ; |1206| 
    2191 000aa3       $C$L59:    
    2192                      .dwpsn  file "../c5535_bsl_revc/ezdsp5535_v1/c55xx_csl/src/csl_sar.c",line 1210,column 9,is_stmt
    2193 000aa3 7600          MOV #26, T0 ; |1210| 
         000aa5 1A48 
    2194 000aa7 AB61          MOV *AR3, AR3 ; |1210| 
    2195 000aa9 AA6B          MOV port(*AR3(T0)), AR2 ; |1210| 
         000aab 99   
    2196 000aac ED00          MOV dbl(*SP(#0)), XAR3
         000aae BF   
    2197 000aaf AB61          MOV *AR3, AR3 ; |1210| 
    2198 000ab1 F906          MOV *SP(#3) << #7, AC0 ; |1210| 
         000ab3 0708 
    2199 000ab5 1880          AND #0x0080, AC0, AR1 ; |1210| 
         000ab7 90   
    2200 000ab8 EC0E          BCLR @#7, AR2 ; |1210| 
         000aba A2   
    2201 000abb 2AA9          OR AR2, AR1 ; |1210| 
    2202 000abd C96B          MOV AR1, port(*AR3(T0)) ; |1210| 
         000abf 9A   
    2203                      .dwpsn  file "../c5535_bsl_revc/ezdsp5535_v1/c55xx_csl/src/csl_sar.c",line 1211,column 14,is_stmt
    2204 000ac0 4A24          B $C$L62  ; |1211| 
    2205                                                      ; branch occurs ; |1211| 
    2206 000ac2       $C$L60:    
    2207                      .dwpsn  file "../c5535_bsl_revc/ezdsp5535_v1/c55xx_csl/src/csl_sar.c",line 1214,column 9,is_stmt
    2208 000ac2 3E64          MOV #-6, T0
    2209 000ac4 4A22          B $C$L63  ; |1214| 
    2210                                                      ; branch occurs ; |1214| 
TMS320C55x Assembler PC v4.4.1 Fri Sep 14 03:54:53 2018

Tools Copyright (c) 1996-2012 Texas Instruments Incorporated
csl_sar.asm                                                          PAGE   53

    2211 000ac6       $C$L61:    
    2212                      .dwpsn  file "../c5535_bsl_revc/ezdsp5535_v1/c55xx_csl/src/csl_sar.c",line 1191,column 5,is_stmt
    2213 000ac6 A904          MOV *SP(#2), AR1 ; |1191| 
    2214 000ac8 6D09          BCC $C$L56,AR1 == #0 ; |1191| 
         000aca FF77 
    2215                                                      ; branchcc occurs ; |1191| 
    2216 000acc 3C1A          MOV #1, AR2
    2217 000ace 1290          CMP AR1 == AR2, TC1 ; |1191| 
         000ad0 A0   
    2218 000ad1 0464          BCC $C$L57,TC1 ; |1191| 
         000ad3 8F   
    2219                                                      ; branchcc occurs ; |1191| 
    2220 000ad4 3C2A          MOV #2, AR2
    2221 000ad6 1290          CMP AR1 == AR2, TC1 ; |1191| 
         000ad8 A0   
    2222 000ad9 0464          BCC $C$L58,TC1 ; |1191| 
         000adb A7   
    2223                                                      ; branchcc occurs ; |1191| 
    2224 000adc 3C3A          MOV #3, AR2
    2225 000ade 1290          CMP AR1 == AR2, TC1 ; |1191| 
         000ae0 A0   
    2226 000ae1 0464          BCC $C$L59,TC1 ; |1191| 
         000ae3 BF   
    2227                                                      ; branchcc occurs ; |1191| 
    2228 000ae4 4A5C          B $C$L60  ; |1191| 
    2229                                                      ; branch occurs ; |1191| 
    2230 000ae6       $C$L62:    
    2231                      .dwpsn  file "../c5535_bsl_revc/ezdsp5535_v1/c55xx_csl/src/csl_sar.c",line 1217,column 5,is_stmt
    2232 000ae6 3C04          MOV #0, T0
    2233 000ae8       $C$L63:    
    2234                      .dwpsn  file "../c5535_bsl_revc/ezdsp5535_v1/c55xx_csl/src/csl_sar.c",line 1218,column 1,is_stmt
    2235 000ae8 4E05          AADD #5, SP
    2236                      .dwcfi  cfa_offset, 1
    2237              $C$DW$77        .dwtag  DW_TAG_TI_branch
    2238                      .dwattr $C$DW$77, DW_AT_low_pc(0x00)
    2239                      .dwattr $C$DW$77, DW_AT_TI_return
    2240 000aea 4804          RET
    2241                                                      ; return occurs
    2242                      .dwattr $C$DW$70, DW_AT_TI_end_file("../c5535_bsl_revc/ezdsp5535_v1/c55xx_csl/src/csl_sar.c")
    2243                      .dwattr $C$DW$70, DW_AT_TI_end_line(0x4c2)
    2244                      .dwattr $C$DW$70, DW_AT_TI_end_column(0x01)
    2245                      .dwendentry
    2246                      .dwendtag $C$DW$70
    2247              
    2248 000aec               .sect   ".text"
    2249                      .align 4
    2250                      .global _SAR_getStatus
    2251              
    2252              $C$DW$78        .dwtag  DW_TAG_subprogram, DW_AT_name("SAR_getStatus")
    2253                      .dwattr $C$DW$78, DW_AT_low_pc(_SAR_getStatus)
    2254                      .dwattr $C$DW$78, DW_AT_high_pc(0x00)
    2255                      .dwattr $C$DW$78, DW_AT_TI_symbol_name("_SAR_getStatus")
    2256                      .dwattr $C$DW$78, DW_AT_external
    2257                      .dwattr $C$DW$78, DW_AT_type(*$C$DW$T$77)
    2258                      .dwattr $C$DW$78, DW_AT_TI_begin_file("../c5535_bsl_revc/ezdsp5535_v1/c55xx_csl/src/csl_sar.c")
TMS320C55x Assembler PC v4.4.1 Fri Sep 14 03:54:53 2018

Tools Copyright (c) 1996-2012 Texas Instruments Incorporated
csl_sar.asm                                                          PAGE   54

    2259                      .dwattr $C$DW$78, DW_AT_TI_begin_line(0x4f4)
    2260                      .dwattr $C$DW$78, DW_AT_TI_begin_column(0x06)
    2261                      .dwattr $C$DW$78, DW_AT_TI_max_frame_size(0x06)
    2262                      .dwpsn  file "../c5535_bsl_revc/ezdsp5535_v1/c55xx_csl/src/csl_sar.c",line 1272,column 1,is_stmt,addr
    2263              
    2264                      .dwfde $C$DW$CIE, _SAR_getStatus
    2265              $C$DW$79        .dwtag  DW_TAG_formal_parameter, DW_AT_name("hSar")
    2266                      .dwattr $C$DW$79, DW_AT_TI_symbol_name("_hSar")
    2267                      .dwattr $C$DW$79, DW_AT_type(*$C$DW$T$53)
    2268                      .dwattr $C$DW$79, DW_AT_location[DW_OP_reg17]
    2269              $C$DW$80        .dwtag  DW_TAG_formal_parameter, DW_AT_name("status")
    2270                      .dwattr $C$DW$80, DW_AT_TI_symbol_name("_status")
    2271                      .dwattr $C$DW$80, DW_AT_type(*$C$DW$T$75)
    2272                      .dwattr $C$DW$80, DW_AT_location[DW_OP_reg19]
    2273              ;*******************************************************************************
    2274              ;* FUNCTION NAME: SAR_getStatus                                                *
    2275              ;*                                                                             *
    2276              ;*   Function Uses Regs : AC0,AC0,AC1,AC1,T0,AR0,XAR0,AR1,XAR1,AR3,XAR3,SP,TC1,*
    2277              ;*                        M40,SATA,SATD,RDM,FRCT,SMUL                          *
    2278              ;*   Stack Frame        : Compact (No Frame Pointer, w/ debug)                 *
    2279              ;*   Total Frame Size   : 6 words                                              *
    2280              ;*                        (1 return address/alignment)                         *
    2281              ;*                        (5 local values)                                     *
    2282              ;*   Min System Stack   : 1 word                                               *
    2283              ;*******************************************************************************
    2284 000aec       _SAR_getStatus:
    2285                      .dwcfi  cfa_offset, 1
    2286                      .dwcfi  save_reg_to_mem, 91, -1
    2287 000aec 4EFB          AADD #-5, SP
    2288                      .dwcfi  cfa_offset, 6
    2289              $C$DW$81        .dwtag  DW_TAG_variable, DW_AT_name("hSar")
    2290                      .dwattr $C$DW$81, DW_AT_TI_symbol_name("_hSar")
    2291                      .dwattr $C$DW$81, DW_AT_type(*$C$DW$T$53)
    2292                      .dwattr $C$DW$81, DW_AT_location[DW_OP_bregx 0x24 0]
    2293              $C$DW$82        .dwtag  DW_TAG_variable, DW_AT_name("status")
    2294                      .dwattr $C$DW$82, DW_AT_TI_symbol_name("_status")
    2295                      .dwattr $C$DW$82, DW_AT_type(*$C$DW$T$75)
    2296                      .dwattr $C$DW$82, DW_AT_location[DW_OP_bregx 0x24 2]
    2297              $C$DW$83        .dwtag  DW_TAG_variable, DW_AT_name("busyBit")
    2298                      .dwattr $C$DW$83, DW_AT_TI_symbol_name("_busyBit")
    2299                      .dwattr $C$DW$83, DW_AT_type(*$C$DW$T$78)
    2300                      .dwattr $C$DW$83, DW_AT_location[DW_OP_bregx 0x24 4]
    2301 000aee EB04          MOV XAR1, dbl(*SP(#2))
         000af0 95   
    2302 000af1 EB00          MOV XAR0, dbl(*SP(#0))
         000af3 85   
    2303                      .dwpsn  file "../c5535_bsl_revc/ezdsp5535_v1/c55xx_csl/src/csl_sar.c",line 1273,column 19,is_stmt
    2304 000af4 E608          MOV #1, *SP(#4) ; |1273| 
         000af6 01   
    2305                      .dwpsn  file "../c5535_bsl_revc/ezdsp5535_v1/c55xx_csl/src/csl_sar.c",line 1274,column 5,is_stmt
    2306 000af7 ED00          MOV dbl(*SP(#0)), XAR3
         000af9 BF   
    2307              
    2308 000afa 90B0          MOV XAR3, AC0
    2309 000afc 3D01  ||      MOV #0, AC1 ; |1274| 
TMS320C55x Assembler PC v4.4.1 Fri Sep 14 03:54:53 2018

Tools Copyright (c) 1996-2012 Texas Instruments Incorporated
csl_sar.asm                                                          PAGE   55

    2310              
    2311 000afe 121C          CMPU AC1 != AC0, TC1 ; |1274| 
         000b00 04   
    2312 000b01 6364          BCC $C$L64,TC1 ; |1274| 
    2313                                                      ; branchcc occurs ; |1274| 
    2314                      .dwpsn  file "../c5535_bsl_revc/ezdsp5535_v1/c55xx_csl/src/csl_sar.c",line 1276,column 9,is_stmt
    2315 000b03 ED04          MOV dbl(*SP(#2)), XAR3
         000b05 BF   
    2316 000b06 E661          MOV #-5, *AR3 ; |1276| 
         000b08 FB   
    2317 000b09       $C$L64:    
    2318                      .dwpsn  file "../c5535_bsl_revc/ezdsp5535_v1/c55xx_csl/src/csl_sar.c",line 1278,column 5,is_stmt
    2319 000b09 ED00          MOV dbl(*SP(#0)), XAR3
         000b0b BF   
    2320 000b0c 7600          MOV #20, T0 ; |1278| 
         000b0e 1448 
    2321 000b10 AB61          MOV *AR3, AR3 ; |1278| 
    2322 000b12 A96B          MOV port(*AR3(T0)), AR1 ; |1278| 
         000b14 99   
    2323 000b15 7D80          AND #0x8000, AR1, AC0 ; |1278| 
         000b17 0009 
    2324 000b19 1005          SFTS AC0, #-15, AC0 ; |1278| 
         000b1b 31   
    2325 000b1c C008          MOV AC0, *SP(#4) ; |1278| 
    2326 000b1e 20            NOP
    2327                      .dwpsn  file "../c5535_bsl_revc/ezdsp5535_v1/c55xx_csl/src/csl_sar.c",line 1279,column 5,is_stmt
    2328 000b1f ED04          MOV dbl(*SP(#2)), XAR3
         000b21 BF   
    2329 000b22 E661          MOV #0, *AR3 ; |1279| 
         000b24 00   
    2330                      .dwpsn  file "../c5535_bsl_revc/ezdsp5535_v1/c55xx_csl/src/csl_sar.c",line 1280,column 5,is_stmt
    2331 000b25 A408          MOV *SP(#4), T0 ; |1280| 
    2332                      .dwpsn  file "../c5535_bsl_revc/ezdsp5535_v1/c55xx_csl/src/csl_sar.c",line 1281,column 1,is_stmt
    2333 000b27 4E05          AADD #5, SP
    2334                      .dwcfi  cfa_offset, 1
    2335              $C$DW$84        .dwtag  DW_TAG_TI_branch
    2336                      .dwattr $C$DW$84, DW_AT_low_pc(0x00)
    2337                      .dwattr $C$DW$84, DW_AT_TI_return
    2338 000b29 4804          RET
    2339                                                      ; return occurs
    2340                      .dwattr $C$DW$78, DW_AT_TI_end_file("../c5535_bsl_revc/ezdsp5535_v1/c55xx_csl/src/csl_sar.c")
    2341                      .dwattr $C$DW$78, DW_AT_TI_end_line(0x501)
    2342                      .dwattr $C$DW$78, DW_AT_TI_end_column(0x01)
    2343                      .dwendentry
    2344                      .dwendtag $C$DW$78
    2345              
    2346              
    2347              ;*******************************************************************************
    2348              ;* TYPE INFORMATION                                                            *
    2349              ;*******************************************************************************
    2350              
    2351              $C$DW$T$30      .dwtag  DW_TAG_enumeration_type
    2352                      .dwattr $C$DW$T$30, DW_AT_byte_size(0x01)
    2353              $C$DW$85        .dwtag  DW_TAG_enumerator, DW_AT_name("CSL_SAR_POLLING"), DW_AT_const_value(0x00)
    2354              $C$DW$86        .dwtag  DW_TAG_enumerator, DW_AT_name("CSL_SAR_INTERRUPT"), DW_AT_const_value(0x01)
TMS320C55x Assembler PC v4.4.1 Fri Sep 14 03:54:53 2018

Tools Copyright (c) 1996-2012 Texas Instruments Incorporated
csl_sar.asm                                                          PAGE   56

    2355              $C$DW$87        .dwtag  DW_TAG_enumerator, DW_AT_name("CSL_SAR_DMA"), DW_AT_const_value(0x02)
    2356                      .dwendtag $C$DW$T$30
    2357              
    2358              $C$DW$T$31      .dwtag  DW_TAG_typedef, DW_AT_name("CSL_SarOpMode")
    2359                      .dwattr $C$DW$T$31, DW_AT_type(*$C$DW$T$30)
    2360                      .dwattr $C$DW$T$31, DW_AT_language(DW_LANG_C)
    2361              
    2362              $C$DW$T$32      .dwtag  DW_TAG_enumeration_type
    2363                      .dwattr $C$DW$T$32, DW_AT_byte_size(0x01)
    2364              $C$DW$88        .dwtag  DW_TAG_enumerator, DW_AT_name("CSL_SAR_NO_DISCHARGE"), DW_AT_const_value(0x00)
    2365              $C$DW$89        .dwtag  DW_TAG_enumerator, DW_AT_name("CSL_SAR_DISCHARGE_ARRAY"), DW_AT_const_value(0x01)
    2366                      .dwendtag $C$DW$T$32
    2367              
    2368              $C$DW$T$33      .dwtag  DW_TAG_typedef, DW_AT_name("CSL_SarMultiCh")
    2369                      .dwattr $C$DW$T$33, DW_AT_type(*$C$DW$T$32)
    2370                      .dwattr $C$DW$T$33, DW_AT_language(DW_LANG_C)
    2371              
    2372              $C$DW$T$34      .dwtag  DW_TAG_enumeration_type
    2373                      .dwattr $C$DW$T$34, DW_AT_byte_size(0x01)
    2374              $C$DW$90        .dwtag  DW_TAG_enumerator, DW_AT_name("CSL_SAR_REF_0_8v"), DW_AT_const_value(0x00)
    2375              $C$DW$91        .dwtag  DW_TAG_enumerator, DW_AT_name("CSL_SAR_REF_1v"), DW_AT_const_value(0x01)
    2376              $C$DW$92        .dwtag  DW_TAG_enumerator, DW_AT_name("CSL_SAR_REF_VIN"), DW_AT_const_value(0x02)
    2377                      .dwendtag $C$DW$T$34
    2378              
    2379              $C$DW$T$35      .dwtag  DW_TAG_typedef, DW_AT_name("CSL_RefVoltage")
    2380                      .dwattr $C$DW$T$35, DW_AT_type(*$C$DW$T$34)
    2381                      .dwattr $C$DW$T$35, DW_AT_language(DW_LANG_C)
    2382              
    2383              $C$DW$T$41      .dwtag  DW_TAG_enumeration_type
    2384                      .dwattr $C$DW$T$41, DW_AT_byte_size(0x01)
    2385              $C$DW$93        .dwtag  DW_TAG_enumerator, DW_AT_name("CSL_SAR_CHAN_0"), DW_AT_const_value(0x00)
    2386              $C$DW$94        .dwtag  DW_TAG_enumerator, DW_AT_name("CSL_SAR_CHAN_1"), DW_AT_const_value(0x01)
    2387              $C$DW$95        .dwtag  DW_TAG_enumerator, DW_AT_name("CSL_SAR_CHAN_2"), DW_AT_const_value(0x02)
    2388              $C$DW$96        .dwtag  DW_TAG_enumerator, DW_AT_name("CSL_SAR_CHAN_3"), DW_AT_const_value(0x03)
    2389              $C$DW$97        .dwtag  DW_TAG_enumerator, DW_AT_name("CSL_SAR_CHAN_4"), DW_AT_const_value(0x04)
    2390              $C$DW$98        .dwtag  DW_TAG_enumerator, DW_AT_name("CSL_SAR_CHAN_5"), DW_AT_const_value(0x05)
    2391              $C$DW$99        .dwtag  DW_TAG_enumerator, DW_AT_name("CSL_SAR_NO_CHAN"), DW_AT_const_value(0x06)
    2392                      .dwendtag $C$DW$T$41
    2393              
    2394              $C$DW$T$42      .dwtag  DW_TAG_typedef, DW_AT_name("CSL_SarChanSel")
    2395                      .dwattr $C$DW$T$42, DW_AT_type(*$C$DW$T$41)
    2396                      .dwattr $C$DW$T$42, DW_AT_language(DW_LANG_C)
    2397              $C$DW$T$43      .dwtag  DW_TAG_pointer_type
    2398                      .dwattr $C$DW$T$43, DW_AT_type(*$C$DW$T$42)
    2399                      .dwattr $C$DW$T$43, DW_AT_address_class(0x17)
    2400              
    2401              $C$DW$T$44      .dwtag  DW_TAG_enumeration_type
    2402                      .dwattr $C$DW$T$44, DW_AT_byte_size(0x01)
    2403              $C$DW$100       .dwtag  DW_TAG_enumerator, DW_AT_name("CSL_SAR_CONTINUOUS_CONVERSION"), DW_AT_const_value(0x0
    2404              $C$DW$101       .dwtag  DW_TAG_enumerator, DW_AT_name("CSL_SAR_SINGLE_CONVERSION"), DW_AT_const_value(0x01)
    2405                      .dwendtag $C$DW$T$44
    2406              
    2407              $C$DW$T$45      .dwtag  DW_TAG_typedef, DW_AT_name("CSL_SarChanCyc")
    2408                      .dwattr $C$DW$T$45, DW_AT_type(*$C$DW$T$44)
    2409                      .dwattr $C$DW$T$45, DW_AT_language(DW_LANG_C)
TMS320C55x Assembler PC v4.4.1 Fri Sep 14 03:54:53 2018

Tools Copyright (c) 1996-2012 Texas Instruments Incorporated
csl_sar.asm                                                          PAGE   57

    2410              
    2411              $C$DW$T$46      .dwtag  DW_TAG_enumeration_type
    2412                      .dwattr $C$DW$T$46, DW_AT_byte_size(0x01)
    2413              $C$DW$102       .dwtag  DW_TAG_enumerator, DW_AT_name("CSL_KEYPAD_MEAS"), DW_AT_const_value(0x00)
    2414              $C$DW$103       .dwtag  DW_TAG_enumerator, DW_AT_name("CSL_BATTRY_MEAS"), DW_AT_const_value(0x01)
    2415              $C$DW$104       .dwtag  DW_TAG_enumerator, DW_AT_name("CSL_INT_VOLT_MEAS"), DW_AT_const_value(0x02)
    2416              $C$DW$105       .dwtag  DW_TAG_enumerator, DW_AT_name("CSL_VOLUME_CTRL"), DW_AT_const_value(0x03)
    2417              $C$DW$106       .dwtag  DW_TAG_enumerator, DW_AT_name("CSL_TOUCH_SCREEN_XAXIS"), DW_AT_const_value(0x04)
    2418              $C$DW$107       .dwtag  DW_TAG_enumerator, DW_AT_name("CSL_TOUCH_SCREEN_YAXIS"), DW_AT_const_value(0x05)
    2419              $C$DW$108       .dwtag  DW_TAG_enumerator, DW_AT_name("CSL_PEN_PRESS_DOWN"), DW_AT_const_value(0x06)
    2420                      .dwendtag $C$DW$T$46
    2421              
    2422              $C$DW$T$47      .dwtag  DW_TAG_typedef, DW_AT_name("CSL_SARMeasParam")
    2423                      .dwattr $C$DW$T$47, DW_AT_type(*$C$DW$T$46)
    2424                      .dwattr $C$DW$T$47, DW_AT_language(DW_LANG_C)
    2425              
    2426              $C$DW$T$48      .dwtag  DW_TAG_enumeration_type
    2427                      .dwattr $C$DW$T$48, DW_AT_byte_size(0x01)
    2428              $C$DW$109       .dwtag  DW_TAG_enumerator, DW_AT_name("CSL_SAR_GPO_0"), DW_AT_const_value(0x00)
    2429              $C$DW$110       .dwtag  DW_TAG_enumerator, DW_AT_name("CSL_SAR_GPO_1"), DW_AT_const_value(0x01)
    2430              $C$DW$111       .dwtag  DW_TAG_enumerator, DW_AT_name("CSL_SAR_GPO_2"), DW_AT_const_value(0x02)
    2431              $C$DW$112       .dwtag  DW_TAG_enumerator, DW_AT_name("CSL_SAR_GPO_3"), DW_AT_const_value(0x03)
    2432                      .dwendtag $C$DW$T$48
    2433              
    2434              $C$DW$T$49      .dwtag  DW_TAG_typedef, DW_AT_name("CSL_SarGPOPinSel")
    2435                      .dwattr $C$DW$T$49, DW_AT_type(*$C$DW$T$48)
    2436                      .dwattr $C$DW$T$49, DW_AT_language(DW_LANG_C)
    2437              
    2438              $C$DW$T$50      .dwtag  DW_TAG_enumeration_type
    2439                      .dwattr $C$DW$T$50, DW_AT_byte_size(0x01)
    2440              $C$DW$113       .dwtag  DW_TAG_enumerator, DW_AT_name("CSL_SAR_GPO_IN"), DW_AT_const_value(0x00)
    2441              $C$DW$114       .dwtag  DW_TAG_enumerator, DW_AT_name("CSL_SAR_GPO_OUT"), DW_AT_const_value(0x01)
    2442                      .dwendtag $C$DW$T$50
    2443              
    2444              $C$DW$T$51      .dwtag  DW_TAG_typedef, DW_AT_name("CSL_SarGPODir")
    2445                      .dwattr $C$DW$T$51, DW_AT_type(*$C$DW$T$50)
    2446                      .dwattr $C$DW$T$51, DW_AT_language(DW_LANG_C)
    2447              
    2448              $C$DW$T$23      .dwtag  DW_TAG_structure_type
    2449                      .dwattr $C$DW$T$23, DW_AT_byte_size(0x1b)
    2450              $C$DW$115       .dwtag  DW_TAG_member
    2451                      .dwattr $C$DW$115, DW_AT_type(*$C$DW$T$21)
    2452                      .dwattr $C$DW$115, DW_AT_name("RSVD0")
    2453                      .dwattr $C$DW$115, DW_AT_TI_symbol_name("_RSVD0")
    2454                      .dwattr $C$DW$115, DW_AT_data_member_location[DW_OP_plus_uconst 0x0]
    2455                      .dwattr $C$DW$115, DW_AT_accessibility(DW_ACCESS_public)
    2456              $C$DW$116       .dwtag  DW_TAG_member
    2457                      .dwattr $C$DW$116, DW_AT_type(*$C$DW$T$20)
    2458                      .dwattr $C$DW$116, DW_AT_name("USBLDOCNTL")
    2459                      .dwattr $C$DW$116, DW_AT_TI_symbol_name("_USBLDOCNTL")
    2460                      .dwattr $C$DW$116, DW_AT_data_member_location[DW_OP_plus_uconst 0x4]
    2461                      .dwattr $C$DW$116, DW_AT_accessibility(DW_ACCESS_public)
    2462              $C$DW$117       .dwtag  DW_TAG_member
    2463                      .dwattr $C$DW$117, DW_AT_type(*$C$DW$T$22)
    2464                      .dwattr $C$DW$117, DW_AT_name("RSVD1")
TMS320C55x Assembler PC v4.4.1 Fri Sep 14 03:54:53 2018

Tools Copyright (c) 1996-2012 Texas Instruments Incorporated
csl_sar.asm                                                          PAGE   58

    2465                      .dwattr $C$DW$117, DW_AT_TI_symbol_name("_RSVD1")
    2466                      .dwattr $C$DW$117, DW_AT_data_member_location[DW_OP_plus_uconst 0x5]
    2467                      .dwattr $C$DW$117, DW_AT_accessibility(DW_ACCESS_public)
    2468              $C$DW$118       .dwtag  DW_TAG_member
    2469                      .dwattr $C$DW$118, DW_AT_type(*$C$DW$T$20)
    2470                      .dwattr $C$DW$118, DW_AT_name("SARCTRL")
    2471                      .dwattr $C$DW$118, DW_AT_TI_symbol_name("_SARCTRL")
    2472                      .dwattr $C$DW$118, DW_AT_data_member_location[DW_OP_plus_uconst 0x12]
    2473                      .dwattr $C$DW$118, DW_AT_accessibility(DW_ACCESS_public)
    2474              $C$DW$119       .dwtag  DW_TAG_member
    2475                      .dwattr $C$DW$119, DW_AT_type(*$C$DW$T$20)
    2476                      .dwattr $C$DW$119, DW_AT_name("RSVD2")
    2477                      .dwattr $C$DW$119, DW_AT_TI_symbol_name("_RSVD2")
    2478                      .dwattr $C$DW$119, DW_AT_data_member_location[DW_OP_plus_uconst 0x13]
    2479                      .dwattr $C$DW$119, DW_AT_accessibility(DW_ACCESS_public)
    2480              $C$DW$120       .dwtag  DW_TAG_member
    2481                      .dwattr $C$DW$120, DW_AT_type(*$C$DW$T$20)
    2482                      .dwattr $C$DW$120, DW_AT_name("SARDATA")
    2483                      .dwattr $C$DW$120, DW_AT_TI_symbol_name("_SARDATA")
    2484                      .dwattr $C$DW$120, DW_AT_data_member_location[DW_OP_plus_uconst 0x14]
    2485                      .dwattr $C$DW$120, DW_AT_accessibility(DW_ACCESS_public)
    2486              $C$DW$121       .dwtag  DW_TAG_member
    2487                      .dwattr $C$DW$121, DW_AT_type(*$C$DW$T$20)
    2488                      .dwattr $C$DW$121, DW_AT_name("RSVD3")
    2489                      .dwattr $C$DW$121, DW_AT_TI_symbol_name("_RSVD3")
    2490                      .dwattr $C$DW$121, DW_AT_data_member_location[DW_OP_plus_uconst 0x15]
    2491                      .dwattr $C$DW$121, DW_AT_accessibility(DW_ACCESS_public)
    2492              $C$DW$122       .dwtag  DW_TAG_member
    2493                      .dwattr $C$DW$122, DW_AT_type(*$C$DW$T$20)
    2494                      .dwattr $C$DW$122, DW_AT_name("SARCLKCTRL")
    2495                      .dwattr $C$DW$122, DW_AT_TI_symbol_name("_SARCLKCTRL")
    2496                      .dwattr $C$DW$122, DW_AT_data_member_location[DW_OP_plus_uconst 0x16]
    2497                      .dwattr $C$DW$122, DW_AT_accessibility(DW_ACCESS_public)
    2498              $C$DW$123       .dwtag  DW_TAG_member
    2499                      .dwattr $C$DW$123, DW_AT_type(*$C$DW$T$20)
    2500                      .dwattr $C$DW$123, DW_AT_name("RSVD4")
    2501                      .dwattr $C$DW$123, DW_AT_TI_symbol_name("_RSVD4")
    2502                      .dwattr $C$DW$123, DW_AT_data_member_location[DW_OP_plus_uconst 0x17]
    2503                      .dwattr $C$DW$123, DW_AT_accessibility(DW_ACCESS_public)
    2504              $C$DW$124       .dwtag  DW_TAG_member
    2505                      .dwattr $C$DW$124, DW_AT_type(*$C$DW$T$20)
    2506                      .dwattr $C$DW$124, DW_AT_name("SARPINCTRL")
    2507                      .dwattr $C$DW$124, DW_AT_TI_symbol_name("_SARPINCTRL")
    2508                      .dwattr $C$DW$124, DW_AT_data_member_location[DW_OP_plus_uconst 0x18]
    2509                      .dwattr $C$DW$124, DW_AT_accessibility(DW_ACCESS_public)
    2510              $C$DW$125       .dwtag  DW_TAG_member
    2511                      .dwattr $C$DW$125, DW_AT_type(*$C$DW$T$20)
    2512                      .dwattr $C$DW$125, DW_AT_name("RSVD5")
    2513                      .dwattr $C$DW$125, DW_AT_TI_symbol_name("_RSVD5")
    2514                      .dwattr $C$DW$125, DW_AT_data_member_location[DW_OP_plus_uconst 0x19]
    2515                      .dwattr $C$DW$125, DW_AT_accessibility(DW_ACCESS_public)
    2516              $C$DW$126       .dwtag  DW_TAG_member
    2517                      .dwattr $C$DW$126, DW_AT_type(*$C$DW$T$20)
    2518                      .dwattr $C$DW$126, DW_AT_name("SARGPOCTRL")
    2519                      .dwattr $C$DW$126, DW_AT_TI_symbol_name("_SARGPOCTRL")
TMS320C55x Assembler PC v4.4.1 Fri Sep 14 03:54:53 2018

Tools Copyright (c) 1996-2012 Texas Instruments Incorporated
csl_sar.asm                                                          PAGE   59

    2520                      .dwattr $C$DW$126, DW_AT_data_member_location[DW_OP_plus_uconst 0x1a]
    2521                      .dwattr $C$DW$126, DW_AT_accessibility(DW_ACCESS_public)
    2522                      .dwendtag $C$DW$T$23
    2523              
    2524              $C$DW$T$24      .dwtag  DW_TAG_typedef, DW_AT_name("CSL_AnactrlRegs")
    2525                      .dwattr $C$DW$T$24, DW_AT_type(*$C$DW$T$23)
    2526                      .dwattr $C$DW$T$24, DW_AT_language(DW_LANG_C)
    2527              $C$DW$127       .dwtag  DW_TAG_TI_far_type
    2528                      .dwattr $C$DW$127, DW_AT_type(*$C$DW$T$24)
    2529              $C$DW$128       .dwtag  DW_TAG_TI_ioport_type
    2530                      .dwattr $C$DW$128, DW_AT_type(*$C$DW$127)
    2531              $C$DW$T$25      .dwtag  DW_TAG_volatile_type
    2532                      .dwattr $C$DW$T$25, DW_AT_type(*$C$DW$128)
    2533              $C$DW$T$26      .dwtag  DW_TAG_pointer_type
    2534                      .dwattr $C$DW$T$26, DW_AT_type(*$C$DW$T$25)
    2535                      .dwattr $C$DW$T$26, DW_AT_address_class(0x10)
    2536              $C$DW$T$27      .dwtag  DW_TAG_typedef, DW_AT_name("CSL_SarRegsOvly")
    2537                      .dwattr $C$DW$T$27, DW_AT_type(*$C$DW$T$26)
    2538                      .dwattr $C$DW$T$27, DW_AT_language(DW_LANG_C)
    2539              
    2540              $C$DW$T$28      .dwtag  DW_TAG_structure_type
    2541                      .dwattr $C$DW$T$28, DW_AT_byte_size(0x03)
    2542              $C$DW$129       .dwtag  DW_TAG_member
    2543                      .dwattr $C$DW$129, DW_AT_type(*$C$DW$T$27)
    2544                      .dwattr $C$DW$129, DW_AT_name("baseAddr")
    2545                      .dwattr $C$DW$129, DW_AT_TI_symbol_name("_baseAddr")
    2546                      .dwattr $C$DW$129, DW_AT_data_member_location[DW_OP_plus_uconst 0x0]
    2547                      .dwattr $C$DW$129, DW_AT_accessibility(DW_ACCESS_public)
    2548              $C$DW$130       .dwtag  DW_TAG_member
    2549                      .dwattr $C$DW$130, DW_AT_type(*$C$DW$T$19)
    2550                      .dwattr $C$DW$130, DW_AT_name("chanNo")
    2551                      .dwattr $C$DW$130, DW_AT_TI_symbol_name("_chanNo")
    2552                      .dwattr $C$DW$130, DW_AT_data_member_location[DW_OP_plus_uconst 0x1]
    2553                      .dwattr $C$DW$130, DW_AT_accessibility(DW_ACCESS_public)
    2554              $C$DW$131       .dwtag  DW_TAG_member
    2555                      .dwattr $C$DW$131, DW_AT_type(*$C$DW$T$19)
    2556                      .dwattr $C$DW$131, DW_AT_name("status")
    2557                      .dwattr $C$DW$131, DW_AT_TI_symbol_name("_status")
    2558                      .dwattr $C$DW$131, DW_AT_data_member_location[DW_OP_plus_uconst 0x2]
    2559                      .dwattr $C$DW$131, DW_AT_accessibility(DW_ACCESS_public)
    2560                      .dwendtag $C$DW$T$28
    2561              
    2562              $C$DW$T$52      .dwtag  DW_TAG_typedef, DW_AT_name("CSL_SarHandleObj")
    2563                      .dwattr $C$DW$T$52, DW_AT_type(*$C$DW$T$28)
    2564                      .dwattr $C$DW$T$52, DW_AT_language(DW_LANG_C)
    2565              $C$DW$T$53      .dwtag  DW_TAG_pointer_type
    2566                      .dwattr $C$DW$T$53, DW_AT_type(*$C$DW$T$52)
    2567                      .dwattr $C$DW$T$53, DW_AT_address_class(0x17)
    2568              $C$DW$T$54      .dwtag  DW_TAG_typedef, DW_AT_name("SAR_Handle")
    2569                      .dwattr $C$DW$T$54, DW_AT_type(*$C$DW$T$53)
    2570                      .dwattr $C$DW$T$54, DW_AT_language(DW_LANG_C)
    2571              
    2572              $C$DW$T$29      .dwtag  DW_TAG_structure_type
    2573                      .dwattr $C$DW$T$29, DW_AT_byte_size(0x04)
    2574              $C$DW$132       .dwtag  DW_TAG_member
TMS320C55x Assembler PC v4.4.1 Fri Sep 14 03:54:53 2018

Tools Copyright (c) 1996-2012 Texas Instruments Incorporated
csl_sar.asm                                                          PAGE   60

    2575                      .dwattr $C$DW$132, DW_AT_type(*$C$DW$T$20)
    2576                      .dwattr $C$DW$132, DW_AT_name("SARCTRL")
    2577                      .dwattr $C$DW$132, DW_AT_TI_symbol_name("_SARCTRL")
    2578                      .dwattr $C$DW$132, DW_AT_data_member_location[DW_OP_plus_uconst 0x0]
    2579                      .dwattr $C$DW$132, DW_AT_accessibility(DW_ACCESS_public)
    2580              $C$DW$133       .dwtag  DW_TAG_member
    2581                      .dwattr $C$DW$133, DW_AT_type(*$C$DW$T$20)
    2582                      .dwattr $C$DW$133, DW_AT_name("SARCLKCTRL")
    2583                      .dwattr $C$DW$133, DW_AT_TI_symbol_name("_SARCLKCTRL")
    2584                      .dwattr $C$DW$133, DW_AT_data_member_location[DW_OP_plus_uconst 0x1]
    2585                      .dwattr $C$DW$133, DW_AT_accessibility(DW_ACCESS_public)
    2586              $C$DW$134       .dwtag  DW_TAG_member
    2587                      .dwattr $C$DW$134, DW_AT_type(*$C$DW$T$20)
    2588                      .dwattr $C$DW$134, DW_AT_name("SARPINCTRL")
    2589                      .dwattr $C$DW$134, DW_AT_TI_symbol_name("_SARPINCTRL")
    2590                      .dwattr $C$DW$134, DW_AT_data_member_location[DW_OP_plus_uconst 0x2]
    2591                      .dwattr $C$DW$134, DW_AT_accessibility(DW_ACCESS_public)
    2592              $C$DW$135       .dwtag  DW_TAG_member
    2593                      .dwattr $C$DW$135, DW_AT_type(*$C$DW$T$20)
    2594                      .dwattr $C$DW$135, DW_AT_name("SARGPOCTRL")
    2595                      .dwattr $C$DW$135, DW_AT_TI_symbol_name("_SARGPOCTRL")
    2596                      .dwattr $C$DW$135, DW_AT_data_member_location[DW_OP_plus_uconst 0x3]
    2597                      .dwattr $C$DW$135, DW_AT_accessibility(DW_ACCESS_public)
    2598                      .dwendtag $C$DW$T$29
    2599              
    2600              $C$DW$T$55      .dwtag  DW_TAG_typedef, DW_AT_name("CSL_SarChConfig")
    2601                      .dwattr $C$DW$T$55, DW_AT_type(*$C$DW$T$29)
    2602                      .dwattr $C$DW$T$55, DW_AT_language(DW_LANG_C)
    2603              $C$DW$T$56      .dwtag  DW_TAG_pointer_type
    2604                      .dwattr $C$DW$T$56, DW_AT_type(*$C$DW$T$55)
    2605                      .dwattr $C$DW$T$56, DW_AT_address_class(0x17)
    2606              
    2607              $C$DW$T$36      .dwtag  DW_TAG_structure_type
    2608                      .dwattr $C$DW$T$36, DW_AT_byte_size(0x04)
    2609              $C$DW$136       .dwtag  DW_TAG_member
    2610                      .dwattr $C$DW$136, DW_AT_type(*$C$DW$T$19)
    2611                      .dwattr $C$DW$136, DW_AT_name("SysClkDiv")
    2612                      .dwattr $C$DW$136, DW_AT_TI_symbol_name("_SysClkDiv")
    2613                      .dwattr $C$DW$136, DW_AT_data_member_location[DW_OP_plus_uconst 0x0]
    2614                      .dwattr $C$DW$136, DW_AT_accessibility(DW_ACCESS_public)
    2615              $C$DW$137       .dwtag  DW_TAG_member
    2616                      .dwattr $C$DW$137, DW_AT_type(*$C$DW$T$31)
    2617                      .dwattr $C$DW$137, DW_AT_name("OpMode")
    2618                      .dwattr $C$DW$137, DW_AT_TI_symbol_name("_OpMode")
    2619                      .dwattr $C$DW$137, DW_AT_data_member_location[DW_OP_plus_uconst 0x1]
    2620                      .dwattr $C$DW$137, DW_AT_accessibility(DW_ACCESS_public)
    2621              $C$DW$138       .dwtag  DW_TAG_member
    2622                      .dwattr $C$DW$138, DW_AT_type(*$C$DW$T$33)
    2623                      .dwattr $C$DW$138, DW_AT_name("MultiCh")
    2624                      .dwattr $C$DW$138, DW_AT_TI_symbol_name("_MultiCh")
    2625                      .dwattr $C$DW$138, DW_AT_data_member_location[DW_OP_plus_uconst 0x2]
    2626                      .dwattr $C$DW$138, DW_AT_accessibility(DW_ACCESS_public)
    2627              $C$DW$139       .dwtag  DW_TAG_member
    2628                      .dwattr $C$DW$139, DW_AT_type(*$C$DW$T$35)
    2629                      .dwattr $C$DW$139, DW_AT_name("RefVoltage")
TMS320C55x Assembler PC v4.4.1 Fri Sep 14 03:54:53 2018

Tools Copyright (c) 1996-2012 Texas Instruments Incorporated
csl_sar.asm                                                          PAGE   61

    2630                      .dwattr $C$DW$139, DW_AT_TI_symbol_name("_RefVoltage")
    2631                      .dwattr $C$DW$139, DW_AT_data_member_location[DW_OP_plus_uconst 0x3]
    2632                      .dwattr $C$DW$139, DW_AT_accessibility(DW_ACCESS_public)
    2633                      .dwendtag $C$DW$T$36
    2634              
    2635              $C$DW$T$57      .dwtag  DW_TAG_typedef, DW_AT_name("CSL_SarChSetup")
    2636                      .dwattr $C$DW$T$57, DW_AT_type(*$C$DW$T$36)
    2637                      .dwattr $C$DW$T$57, DW_AT_language(DW_LANG_C)
    2638              $C$DW$T$58      .dwtag  DW_TAG_pointer_type
    2639                      .dwattr $C$DW$T$58, DW_AT_type(*$C$DW$T$57)
    2640                      .dwattr $C$DW$T$58, DW_AT_address_class(0x17)
    2641              
    2642              $C$DW$T$40      .dwtag  DW_TAG_structure_type
    2643                      .dwattr $C$DW$T$40, DW_AT_byte_size(0x48)
    2644              $C$DW$140       .dwtag  DW_TAG_member
    2645                      .dwattr $C$DW$140, DW_AT_type(*$C$DW$T$20)
    2646                      .dwattr $C$DW$140, DW_AT_name("EBSR")
    2647                      .dwattr $C$DW$140, DW_AT_TI_symbol_name("_EBSR")
    2648                      .dwattr $C$DW$140, DW_AT_data_member_location[DW_OP_plus_uconst 0x0]
    2649                      .dwattr $C$DW$140, DW_AT_accessibility(DW_ACCESS_public)
    2650              $C$DW$141       .dwtag  DW_TAG_member
    2651                      .dwattr $C$DW$141, DW_AT_type(*$C$DW$T$20)
    2652                      .dwattr $C$DW$141, DW_AT_name("RSVD0")
    2653                      .dwattr $C$DW$141, DW_AT_TI_symbol_name("_RSVD0")
    2654                      .dwattr $C$DW$141, DW_AT_data_member_location[DW_OP_plus_uconst 0x1]
    2655                      .dwattr $C$DW$141, DW_AT_accessibility(DW_ACCESS_public)
    2656              $C$DW$142       .dwtag  DW_TAG_member
    2657                      .dwattr $C$DW$142, DW_AT_type(*$C$DW$T$20)
    2658                      .dwattr $C$DW$142, DW_AT_name("PCGCR1")
    2659                      .dwattr $C$DW$142, DW_AT_TI_symbol_name("_PCGCR1")
    2660                      .dwattr $C$DW$142, DW_AT_data_member_location[DW_OP_plus_uconst 0x2]
    2661                      .dwattr $C$DW$142, DW_AT_accessibility(DW_ACCESS_public)
    2662              $C$DW$143       .dwtag  DW_TAG_member
    2663                      .dwattr $C$DW$143, DW_AT_type(*$C$DW$T$20)
    2664                      .dwattr $C$DW$143, DW_AT_name("PCGCR2")
    2665                      .dwattr $C$DW$143, DW_AT_TI_symbol_name("_PCGCR2")
    2666                      .dwattr $C$DW$143, DW_AT_data_member_location[DW_OP_plus_uconst 0x3]
    2667                      .dwattr $C$DW$143, DW_AT_accessibility(DW_ACCESS_public)
    2668              $C$DW$144       .dwtag  DW_TAG_member
    2669                      .dwattr $C$DW$144, DW_AT_type(*$C$DW$T$20)
    2670                      .dwattr $C$DW$144, DW_AT_name("PSRCR")
    2671                      .dwattr $C$DW$144, DW_AT_TI_symbol_name("_PSRCR")
    2672                      .dwattr $C$DW$144, DW_AT_data_member_location[DW_OP_plus_uconst 0x4]
    2673                      .dwattr $C$DW$144, DW_AT_accessibility(DW_ACCESS_public)
    2674              $C$DW$145       .dwtag  DW_TAG_member
    2675                      .dwattr $C$DW$145, DW_AT_type(*$C$DW$T$20)
    2676                      .dwattr $C$DW$145, DW_AT_name("PRCR")
    2677                      .dwattr $C$DW$145, DW_AT_TI_symbol_name("_PRCR")
    2678                      .dwattr $C$DW$145, DW_AT_data_member_location[DW_OP_plus_uconst 0x5]
    2679                      .dwattr $C$DW$145, DW_AT_accessibility(DW_ACCESS_public)
    2680              $C$DW$146       .dwtag  DW_TAG_member
    2681                      .dwattr $C$DW$146, DW_AT_type(*$C$DW$T$37)
    2682                      .dwattr $C$DW$146, DW_AT_name("RSVD1")
    2683                      .dwattr $C$DW$146, DW_AT_TI_symbol_name("_RSVD1")
    2684                      .dwattr $C$DW$146, DW_AT_data_member_location[DW_OP_plus_uconst 0x6]
TMS320C55x Assembler PC v4.4.1 Fri Sep 14 03:54:53 2018

Tools Copyright (c) 1996-2012 Texas Instruments Incorporated
csl_sar.asm                                                          PAGE   62

    2685                      .dwattr $C$DW$146, DW_AT_accessibility(DW_ACCESS_public)
    2686              $C$DW$147       .dwtag  DW_TAG_member
    2687                      .dwattr $C$DW$147, DW_AT_type(*$C$DW$T$20)
    2688                      .dwattr $C$DW$147, DW_AT_name("TIAFR")
    2689                      .dwattr $C$DW$147, DW_AT_TI_symbol_name("_TIAFR")
    2690                      .dwattr $C$DW$147, DW_AT_data_member_location[DW_OP_plus_uconst 0x14]
    2691                      .dwattr $C$DW$147, DW_AT_accessibility(DW_ACCESS_public)
    2692              $C$DW$148       .dwtag  DW_TAG_member
    2693                      .dwattr $C$DW$148, DW_AT_type(*$C$DW$T$20)
    2694                      .dwattr $C$DW$148, DW_AT_name("RSVD2")
    2695                      .dwattr $C$DW$148, DW_AT_TI_symbol_name("_RSVD2")
    2696                      .dwattr $C$DW$148, DW_AT_data_member_location[DW_OP_plus_uconst 0x15]
    2697                      .dwattr $C$DW$148, DW_AT_accessibility(DW_ACCESS_public)
    2698              $C$DW$149       .dwtag  DW_TAG_member
    2699                      .dwattr $C$DW$149, DW_AT_type(*$C$DW$T$20)
    2700                      .dwattr $C$DW$149, DW_AT_name("ODSCR")
    2701                      .dwattr $C$DW$149, DW_AT_TI_symbol_name("_ODSCR")
    2702                      .dwattr $C$DW$149, DW_AT_data_member_location[DW_OP_plus_uconst 0x16]
    2703                      .dwattr $C$DW$149, DW_AT_accessibility(DW_ACCESS_public)
    2704              $C$DW$150       .dwtag  DW_TAG_member
    2705                      .dwattr $C$DW$150, DW_AT_type(*$C$DW$T$20)
    2706                      .dwattr $C$DW$150, DW_AT_name("PDINHIBR1")
    2707                      .dwattr $C$DW$150, DW_AT_TI_symbol_name("_PDINHIBR1")
    2708                      .dwattr $C$DW$150, DW_AT_data_member_location[DW_OP_plus_uconst 0x17]
    2709                      .dwattr $C$DW$150, DW_AT_accessibility(DW_ACCESS_public)
    2710              $C$DW$151       .dwtag  DW_TAG_member
    2711                      .dwattr $C$DW$151, DW_AT_type(*$C$DW$T$20)
    2712                      .dwattr $C$DW$151, DW_AT_name("PDINHIBR2")
    2713                      .dwattr $C$DW$151, DW_AT_TI_symbol_name("_PDINHIBR2")
    2714                      .dwattr $C$DW$151, DW_AT_data_member_location[DW_OP_plus_uconst 0x18]
    2715                      .dwattr $C$DW$151, DW_AT_accessibility(DW_ACCESS_public)
    2716              $C$DW$152       .dwtag  DW_TAG_member
    2717                      .dwattr $C$DW$152, DW_AT_type(*$C$DW$T$20)
    2718                      .dwattr $C$DW$152, DW_AT_name("PDINHIBR3")
    2719                      .dwattr $C$DW$152, DW_AT_TI_symbol_name("_PDINHIBR3")
    2720                      .dwattr $C$DW$152, DW_AT_data_member_location[DW_OP_plus_uconst 0x19]
    2721                      .dwattr $C$DW$152, DW_AT_accessibility(DW_ACCESS_public)
    2722              $C$DW$153       .dwtag  DW_TAG_member
    2723                      .dwattr $C$DW$153, DW_AT_type(*$C$DW$T$20)
    2724                      .dwattr $C$DW$153, DW_AT_name("DMA0CESR1")
    2725                      .dwattr $C$DW$153, DW_AT_TI_symbol_name("_DMA0CESR1")
    2726                      .dwattr $C$DW$153, DW_AT_data_member_location[DW_OP_plus_uconst 0x1a]
    2727                      .dwattr $C$DW$153, DW_AT_accessibility(DW_ACCESS_public)
    2728              $C$DW$154       .dwtag  DW_TAG_member
    2729                      .dwattr $C$DW$154, DW_AT_type(*$C$DW$T$20)
    2730                      .dwattr $C$DW$154, DW_AT_name("DMA0CESR2")
    2731                      .dwattr $C$DW$154, DW_AT_TI_symbol_name("_DMA0CESR2")
    2732                      .dwattr $C$DW$154, DW_AT_data_member_location[DW_OP_plus_uconst 0x1b]
    2733                      .dwattr $C$DW$154, DW_AT_accessibility(DW_ACCESS_public)
    2734              $C$DW$155       .dwtag  DW_TAG_member
    2735                      .dwattr $C$DW$155, DW_AT_type(*$C$DW$T$20)
    2736                      .dwattr $C$DW$155, DW_AT_name("DMA1CESR1")
    2737                      .dwattr $C$DW$155, DW_AT_TI_symbol_name("_DMA1CESR1")
    2738                      .dwattr $C$DW$155, DW_AT_data_member_location[DW_OP_plus_uconst 0x1c]
    2739                      .dwattr $C$DW$155, DW_AT_accessibility(DW_ACCESS_public)
TMS320C55x Assembler PC v4.4.1 Fri Sep 14 03:54:53 2018

Tools Copyright (c) 1996-2012 Texas Instruments Incorporated
csl_sar.asm                                                          PAGE   63

    2740              $C$DW$156       .dwtag  DW_TAG_member
    2741                      .dwattr $C$DW$156, DW_AT_type(*$C$DW$T$20)
    2742                      .dwattr $C$DW$156, DW_AT_name("DMA1CESR2")
    2743                      .dwattr $C$DW$156, DW_AT_TI_symbol_name("_DMA1CESR2")
    2744                      .dwattr $C$DW$156, DW_AT_data_member_location[DW_OP_plus_uconst 0x1d]
    2745                      .dwattr $C$DW$156, DW_AT_accessibility(DW_ACCESS_public)
    2746              $C$DW$157       .dwtag  DW_TAG_member
    2747                      .dwattr $C$DW$157, DW_AT_type(*$C$DW$T$20)
    2748                      .dwattr $C$DW$157, DW_AT_name("SDRAMCCR")
    2749                      .dwattr $C$DW$157, DW_AT_TI_symbol_name("_SDRAMCCR")
    2750                      .dwattr $C$DW$157, DW_AT_data_member_location[DW_OP_plus_uconst 0x1e]
    2751                      .dwattr $C$DW$157, DW_AT_accessibility(DW_ACCESS_public)
    2752              $C$DW$158       .dwtag  DW_TAG_member
    2753                      .dwattr $C$DW$158, DW_AT_type(*$C$DW$T$20)
    2754                      .dwattr $C$DW$158, DW_AT_name("CCR2")
    2755                      .dwattr $C$DW$158, DW_AT_TI_symbol_name("_CCR2")
    2756                      .dwattr $C$DW$158, DW_AT_data_member_location[DW_OP_plus_uconst 0x1f]
    2757                      .dwattr $C$DW$158, DW_AT_accessibility(DW_ACCESS_public)
    2758              $C$DW$159       .dwtag  DW_TAG_member
    2759                      .dwattr $C$DW$159, DW_AT_type(*$C$DW$T$20)
    2760                      .dwattr $C$DW$159, DW_AT_name("CGCR1")
    2761                      .dwattr $C$DW$159, DW_AT_TI_symbol_name("_CGCR1")
    2762                      .dwattr $C$DW$159, DW_AT_data_member_location[DW_OP_plus_uconst 0x20]
    2763                      .dwattr $C$DW$159, DW_AT_accessibility(DW_ACCESS_public)
    2764              $C$DW$160       .dwtag  DW_TAG_member
    2765                      .dwattr $C$DW$160, DW_AT_type(*$C$DW$T$20)
    2766                      .dwattr $C$DW$160, DW_AT_name("CGICR")
    2767                      .dwattr $C$DW$160, DW_AT_TI_symbol_name("_CGICR")
    2768                      .dwattr $C$DW$160, DW_AT_data_member_location[DW_OP_plus_uconst 0x21]
    2769                      .dwattr $C$DW$160, DW_AT_accessibility(DW_ACCESS_public)
    2770              $C$DW$161       .dwtag  DW_TAG_member
    2771                      .dwattr $C$DW$161, DW_AT_type(*$C$DW$T$20)
    2772                      .dwattr $C$DW$161, DW_AT_name("CGCR2")
    2773                      .dwattr $C$DW$161, DW_AT_TI_symbol_name("_CGCR2")
    2774                      .dwattr $C$DW$161, DW_AT_data_member_location[DW_OP_plus_uconst 0x22]
    2775                      .dwattr $C$DW$161, DW_AT_accessibility(DW_ACCESS_public)
    2776              $C$DW$162       .dwtag  DW_TAG_member
    2777                      .dwattr $C$DW$162, DW_AT_type(*$C$DW$T$20)
    2778                      .dwattr $C$DW$162, DW_AT_name("CGOCR")
    2779                      .dwattr $C$DW$162, DW_AT_TI_symbol_name("_CGOCR")
    2780                      .dwattr $C$DW$162, DW_AT_data_member_location[DW_OP_plus_uconst 0x23]
    2781                      .dwattr $C$DW$162, DW_AT_accessibility(DW_ACCESS_public)
    2782              $C$DW$163       .dwtag  DW_TAG_member
    2783                      .dwattr $C$DW$163, DW_AT_type(*$C$DW$T$20)
    2784                      .dwattr $C$DW$163, DW_AT_name("CCSSR")
    2785                      .dwattr $C$DW$163, DW_AT_TI_symbol_name("_CCSSR")
    2786                      .dwattr $C$DW$163, DW_AT_data_member_location[DW_OP_plus_uconst 0x24]
    2787                      .dwattr $C$DW$163, DW_AT_accessibility(DW_ACCESS_public)
    2788              $C$DW$164       .dwtag  DW_TAG_member
    2789                      .dwattr $C$DW$164, DW_AT_type(*$C$DW$T$20)
    2790                      .dwattr $C$DW$164, DW_AT_name("RSVD3")
    2791                      .dwattr $C$DW$164, DW_AT_TI_symbol_name("_RSVD3")
    2792                      .dwattr $C$DW$164, DW_AT_data_member_location[DW_OP_plus_uconst 0x25]
    2793                      .dwattr $C$DW$164, DW_AT_accessibility(DW_ACCESS_public)
    2794              $C$DW$165       .dwtag  DW_TAG_member
TMS320C55x Assembler PC v4.4.1 Fri Sep 14 03:54:53 2018

Tools Copyright (c) 1996-2012 Texas Instruments Incorporated
csl_sar.asm                                                          PAGE   64

    2795                      .dwattr $C$DW$165, DW_AT_type(*$C$DW$T$20)
    2796                      .dwattr $C$DW$165, DW_AT_name("ECDR")
    2797                      .dwattr $C$DW$165, DW_AT_TI_symbol_name("_ECDR")
    2798                      .dwattr $C$DW$165, DW_AT_data_member_location[DW_OP_plus_uconst 0x26]
    2799                      .dwattr $C$DW$165, DW_AT_accessibility(DW_ACCESS_public)
    2800              $C$DW$166       .dwtag  DW_TAG_member
    2801                      .dwattr $C$DW$166, DW_AT_type(*$C$DW$T$20)
    2802                      .dwattr $C$DW$166, DW_AT_name("RSVD4")
    2803                      .dwattr $C$DW$166, DW_AT_TI_symbol_name("_RSVD4")
    2804                      .dwattr $C$DW$166, DW_AT_data_member_location[DW_OP_plus_uconst 0x27]
    2805                      .dwattr $C$DW$166, DW_AT_accessibility(DW_ACCESS_public)
    2806              $C$DW$167       .dwtag  DW_TAG_member
    2807                      .dwattr $C$DW$167, DW_AT_type(*$C$DW$T$20)
    2808                      .dwattr $C$DW$167, DW_AT_name("RAMSLPMDCNTLR1")
    2809                      .dwattr $C$DW$167, DW_AT_TI_symbol_name("_RAMSLPMDCNTLR1")
    2810                      .dwattr $C$DW$167, DW_AT_data_member_location[DW_OP_plus_uconst 0x28]
    2811                      .dwattr $C$DW$167, DW_AT_accessibility(DW_ACCESS_public)
    2812              $C$DW$168       .dwtag  DW_TAG_member
    2813                      .dwattr $C$DW$168, DW_AT_type(*$C$DW$T$20)
    2814                      .dwattr $C$DW$168, DW_AT_name("RSVD5")
    2815                      .dwattr $C$DW$168, DW_AT_TI_symbol_name("_RSVD5")
    2816                      .dwattr $C$DW$168, DW_AT_data_member_location[DW_OP_plus_uconst 0x29]
    2817                      .dwattr $C$DW$168, DW_AT_accessibility(DW_ACCESS_public)
    2818              $C$DW$169       .dwtag  DW_TAG_member
    2819                      .dwattr $C$DW$169, DW_AT_type(*$C$DW$T$20)
    2820                      .dwattr $C$DW$169, DW_AT_name("RAMSLPMDCNTLR2")
    2821                      .dwattr $C$DW$169, DW_AT_TI_symbol_name("_RAMSLPMDCNTLR2")
    2822                      .dwattr $C$DW$169, DW_AT_data_member_location[DW_OP_plus_uconst 0x2a]
    2823                      .dwattr $C$DW$169, DW_AT_accessibility(DW_ACCESS_public)
    2824              $C$DW$170       .dwtag  DW_TAG_member
    2825                      .dwattr $C$DW$170, DW_AT_type(*$C$DW$T$20)
    2826                      .dwattr $C$DW$170, DW_AT_name("RAMSLPMDCNTLR3")
    2827                      .dwattr $C$DW$170, DW_AT_TI_symbol_name("_RAMSLPMDCNTLR3")
    2828                      .dwattr $C$DW$170, DW_AT_data_member_location[DW_OP_plus_uconst 0x2b]
    2829                      .dwattr $C$DW$170, DW_AT_accessibility(DW_ACCESS_public)
    2830              $C$DW$171       .dwtag  DW_TAG_member
    2831                      .dwattr $C$DW$171, DW_AT_type(*$C$DW$T$20)
    2832                      .dwattr $C$DW$171, DW_AT_name("RAMSLPMDCNTLR4")
    2833                      .dwattr $C$DW$171, DW_AT_TI_symbol_name("_RAMSLPMDCNTLR4")
    2834                      .dwattr $C$DW$171, DW_AT_data_member_location[DW_OP_plus_uconst 0x2c]
    2835                      .dwattr $C$DW$171, DW_AT_accessibility(DW_ACCESS_public)
    2836              $C$DW$172       .dwtag  DW_TAG_member
    2837                      .dwattr $C$DW$172, DW_AT_type(*$C$DW$T$20)
    2838                      .dwattr $C$DW$172, DW_AT_name("RAMSLPMDCNTLR5")
    2839                      .dwattr $C$DW$172, DW_AT_TI_symbol_name("_RAMSLPMDCNTLR5")
    2840                      .dwattr $C$DW$172, DW_AT_data_member_location[DW_OP_plus_uconst 0x2d]
    2841                      .dwattr $C$DW$172, DW_AT_accessibility(DW_ACCESS_public)
    2842              $C$DW$173       .dwtag  DW_TAG_member
    2843                      .dwattr $C$DW$173, DW_AT_type(*$C$DW$T$38)
    2844                      .dwattr $C$DW$173, DW_AT_name("RSVD6")
    2845                      .dwattr $C$DW$173, DW_AT_TI_symbol_name("_RSVD6")
    2846                      .dwattr $C$DW$173, DW_AT_data_member_location[DW_OP_plus_uconst 0x2e]
    2847                      .dwattr $C$DW$173, DW_AT_accessibility(DW_ACCESS_public)
    2848              $C$DW$174       .dwtag  DW_TAG_member
    2849                      .dwattr $C$DW$174, DW_AT_type(*$C$DW$T$20)
TMS320C55x Assembler PC v4.4.1 Fri Sep 14 03:54:53 2018

Tools Copyright (c) 1996-2012 Texas Instruments Incorporated
csl_sar.asm                                                          PAGE   65

    2850                      .dwattr $C$DW$174, DW_AT_name("DMAIFR")
    2851                      .dwattr $C$DW$174, DW_AT_TI_symbol_name("_DMAIFR")
    2852                      .dwattr $C$DW$174, DW_AT_data_member_location[DW_OP_plus_uconst 0x30]
    2853                      .dwattr $C$DW$174, DW_AT_accessibility(DW_ACCESS_public)
    2854              $C$DW$175       .dwtag  DW_TAG_member
    2855                      .dwattr $C$DW$175, DW_AT_type(*$C$DW$T$20)
    2856                      .dwattr $C$DW$175, DW_AT_name("DMAIER")
    2857                      .dwattr $C$DW$175, DW_AT_TI_symbol_name("_DMAIER")
    2858                      .dwattr $C$DW$175, DW_AT_data_member_location[DW_OP_plus_uconst 0x31]
    2859                      .dwattr $C$DW$175, DW_AT_accessibility(DW_ACCESS_public)
    2860              $C$DW$176       .dwtag  DW_TAG_member
    2861                      .dwattr $C$DW$176, DW_AT_type(*$C$DW$T$20)
    2862                      .dwattr $C$DW$176, DW_AT_name("USBSCR")
    2863                      .dwattr $C$DW$176, DW_AT_TI_symbol_name("_USBSCR")
    2864                      .dwattr $C$DW$176, DW_AT_data_member_location[DW_OP_plus_uconst 0x32]
    2865                      .dwattr $C$DW$176, DW_AT_accessibility(DW_ACCESS_public)
    2866              $C$DW$177       .dwtag  DW_TAG_member
    2867                      .dwattr $C$DW$177, DW_AT_type(*$C$DW$T$20)
    2868                      .dwattr $C$DW$177, DW_AT_name("ESCR")
    2869                      .dwattr $C$DW$177, DW_AT_TI_symbol_name("_ESCR")
    2870                      .dwattr $C$DW$177, DW_AT_data_member_location[DW_OP_plus_uconst 0x33]
    2871                      .dwattr $C$DW$177, DW_AT_accessibility(DW_ACCESS_public)
    2872              $C$DW$178       .dwtag  DW_TAG_member
    2873                      .dwattr $C$DW$178, DW_AT_type(*$C$DW$T$38)
    2874                      .dwattr $C$DW$178, DW_AT_name("RSVD7")
    2875                      .dwattr $C$DW$178, DW_AT_TI_symbol_name("_RSVD7")
    2876                      .dwattr $C$DW$178, DW_AT_data_member_location[DW_OP_plus_uconst 0x34]
    2877                      .dwattr $C$DW$178, DW_AT_accessibility(DW_ACCESS_public)
    2878              $C$DW$179       .dwtag  DW_TAG_member
    2879                      .dwattr $C$DW$179, DW_AT_type(*$C$DW$T$20)
    2880                      .dwattr $C$DW$179, DW_AT_name("DMA2CESR1")
    2881                      .dwattr $C$DW$179, DW_AT_TI_symbol_name("_DMA2CESR1")
    2882                      .dwattr $C$DW$179, DW_AT_data_member_location[DW_OP_plus_uconst 0x36]
    2883                      .dwattr $C$DW$179, DW_AT_accessibility(DW_ACCESS_public)
    2884              $C$DW$180       .dwtag  DW_TAG_member
    2885                      .dwattr $C$DW$180, DW_AT_type(*$C$DW$T$20)
    2886                      .dwattr $C$DW$180, DW_AT_name("DMA2CESR2")
    2887                      .dwattr $C$DW$180, DW_AT_TI_symbol_name("_DMA2CESR2")
    2888                      .dwattr $C$DW$180, DW_AT_data_member_location[DW_OP_plus_uconst 0x37]
    2889                      .dwattr $C$DW$180, DW_AT_accessibility(DW_ACCESS_public)
    2890              $C$DW$181       .dwtag  DW_TAG_member
    2891                      .dwattr $C$DW$181, DW_AT_type(*$C$DW$T$20)
    2892                      .dwattr $C$DW$181, DW_AT_name("DMA3CESR1")
    2893                      .dwattr $C$DW$181, DW_AT_TI_symbol_name("_DMA3CESR1")
    2894                      .dwattr $C$DW$181, DW_AT_data_member_location[DW_OP_plus_uconst 0x38]
    2895                      .dwattr $C$DW$181, DW_AT_accessibility(DW_ACCESS_public)
    2896              $C$DW$182       .dwtag  DW_TAG_member
    2897                      .dwattr $C$DW$182, DW_AT_type(*$C$DW$T$20)
    2898                      .dwattr $C$DW$182, DW_AT_name("DMA3CESR2")
    2899                      .dwattr $C$DW$182, DW_AT_TI_symbol_name("_DMA3CESR2")
    2900                      .dwattr $C$DW$182, DW_AT_data_member_location[DW_OP_plus_uconst 0x39]
    2901                      .dwattr $C$DW$182, DW_AT_accessibility(DW_ACCESS_public)
    2902              $C$DW$183       .dwtag  DW_TAG_member
    2903                      .dwattr $C$DW$183, DW_AT_type(*$C$DW$T$20)
    2904                      .dwattr $C$DW$183, DW_AT_name("CLKSTOP")
TMS320C55x Assembler PC v4.4.1 Fri Sep 14 03:54:53 2018

Tools Copyright (c) 1996-2012 Texas Instruments Incorporated
csl_sar.asm                                                          PAGE   66

    2905                      .dwattr $C$DW$183, DW_AT_TI_symbol_name("_CLKSTOP")
    2906                      .dwattr $C$DW$183, DW_AT_data_member_location[DW_OP_plus_uconst 0x3a]
    2907                      .dwattr $C$DW$183, DW_AT_accessibility(DW_ACCESS_public)
    2908              $C$DW$184       .dwtag  DW_TAG_member
    2909                      .dwattr $C$DW$184, DW_AT_type(*$C$DW$T$39)
    2910                      .dwattr $C$DW$184, DW_AT_name("RSVD8")
    2911                      .dwattr $C$DW$184, DW_AT_TI_symbol_name("_RSVD8")
    2912                      .dwattr $C$DW$184, DW_AT_data_member_location[DW_OP_plus_uconst 0x3b]
    2913                      .dwattr $C$DW$184, DW_AT_accessibility(DW_ACCESS_public)
    2914              $C$DW$185       .dwtag  DW_TAG_member
    2915                      .dwattr $C$DW$185, DW_AT_type(*$C$DW$T$20)
    2916                      .dwattr $C$DW$185, DW_AT_name("DIEIDR0")
    2917                      .dwattr $C$DW$185, DW_AT_TI_symbol_name("_DIEIDR0")
    2918                      .dwattr $C$DW$185, DW_AT_data_member_location[DW_OP_plus_uconst 0x40]
    2919                      .dwattr $C$DW$185, DW_AT_accessibility(DW_ACCESS_public)
    2920              $C$DW$186       .dwtag  DW_TAG_member
    2921                      .dwattr $C$DW$186, DW_AT_type(*$C$DW$T$20)
    2922                      .dwattr $C$DW$186, DW_AT_name("DIEIDR1")
    2923                      .dwattr $C$DW$186, DW_AT_TI_symbol_name("_DIEIDR1")
    2924                      .dwattr $C$DW$186, DW_AT_data_member_location[DW_OP_plus_uconst 0x41]
    2925                      .dwattr $C$DW$186, DW_AT_accessibility(DW_ACCESS_public)
    2926              $C$DW$187       .dwtag  DW_TAG_member
    2927                      .dwattr $C$DW$187, DW_AT_type(*$C$DW$T$20)
    2928                      .dwattr $C$DW$187, DW_AT_name("DIEIDR2")
    2929                      .dwattr $C$DW$187, DW_AT_TI_symbol_name("_DIEIDR2")
    2930                      .dwattr $C$DW$187, DW_AT_data_member_location[DW_OP_plus_uconst 0x42]
    2931                      .dwattr $C$DW$187, DW_AT_accessibility(DW_ACCESS_public)
    2932              $C$DW$188       .dwtag  DW_TAG_member
    2933                      .dwattr $C$DW$188, DW_AT_type(*$C$DW$T$20)
    2934                      .dwattr $C$DW$188, DW_AT_name("DIEIDR3")
    2935                      .dwattr $C$DW$188, DW_AT_TI_symbol_name("_DIEIDR3")
    2936                      .dwattr $C$DW$188, DW_AT_data_member_location[DW_OP_plus_uconst 0x43]
    2937                      .dwattr $C$DW$188, DW_AT_accessibility(DW_ACCESS_public)
    2938              $C$DW$189       .dwtag  DW_TAG_member
    2939                      .dwattr $C$DW$189, DW_AT_type(*$C$DW$T$20)
    2940                      .dwattr $C$DW$189, DW_AT_name("DIEIDR4")
    2941                      .dwattr $C$DW$189, DW_AT_TI_symbol_name("_DIEIDR4")
    2942                      .dwattr $C$DW$189, DW_AT_data_member_location[DW_OP_plus_uconst 0x44]
    2943                      .dwattr $C$DW$189, DW_AT_accessibility(DW_ACCESS_public)
    2944              $C$DW$190       .dwtag  DW_TAG_member
    2945                      .dwattr $C$DW$190, DW_AT_type(*$C$DW$T$20)
    2946                      .dwattr $C$DW$190, DW_AT_name("DIEIDR5")
    2947                      .dwattr $C$DW$190, DW_AT_TI_symbol_name("_DIEIDR5")
    2948                      .dwattr $C$DW$190, DW_AT_data_member_location[DW_OP_plus_uconst 0x45]
    2949                      .dwattr $C$DW$190, DW_AT_accessibility(DW_ACCESS_public)
    2950              $C$DW$191       .dwtag  DW_TAG_member
    2951                      .dwattr $C$DW$191, DW_AT_type(*$C$DW$T$20)
    2952                      .dwattr $C$DW$191, DW_AT_name("DIEIDR6")
    2953                      .dwattr $C$DW$191, DW_AT_TI_symbol_name("_DIEIDR6")
    2954                      .dwattr $C$DW$191, DW_AT_data_member_location[DW_OP_plus_uconst 0x46]
    2955                      .dwattr $C$DW$191, DW_AT_accessibility(DW_ACCESS_public)
    2956              $C$DW$192       .dwtag  DW_TAG_member
    2957                      .dwattr $C$DW$192, DW_AT_type(*$C$DW$T$20)
    2958                      .dwattr $C$DW$192, DW_AT_name("DIEIDR7")
    2959                      .dwattr $C$DW$192, DW_AT_TI_symbol_name("_DIEIDR7")
TMS320C55x Assembler PC v4.4.1 Fri Sep 14 03:54:53 2018

Tools Copyright (c) 1996-2012 Texas Instruments Incorporated
csl_sar.asm                                                          PAGE   67

    2960                      .dwattr $C$DW$192, DW_AT_data_member_location[DW_OP_plus_uconst 0x47]
    2961                      .dwattr $C$DW$192, DW_AT_accessibility(DW_ACCESS_public)
    2962                      .dwendtag $C$DW$T$40
    2963              
    2964              $C$DW$T$59      .dwtag  DW_TAG_typedef, DW_AT_name("CSL_SysRegs")
    2965                      .dwattr $C$DW$T$59, DW_AT_type(*$C$DW$T$40)
    2966                      .dwattr $C$DW$T$59, DW_AT_language(DW_LANG_C)
    2967              $C$DW$193       .dwtag  DW_TAG_TI_far_type
    2968                      .dwattr $C$DW$193, DW_AT_type(*$C$DW$T$59)
    2969              $C$DW$194       .dwtag  DW_TAG_TI_ioport_type
    2970                      .dwattr $C$DW$194, DW_AT_type(*$C$DW$193)
    2971              $C$DW$T$60      .dwtag  DW_TAG_volatile_type
    2972                      .dwattr $C$DW$T$60, DW_AT_type(*$C$DW$194)
    2973              $C$DW$T$61      .dwtag  DW_TAG_pointer_type
    2974                      .dwattr $C$DW$T$61, DW_AT_type(*$C$DW$T$60)
    2975                      .dwattr $C$DW$T$61, DW_AT_address_class(0x10)
    2976              $C$DW$T$62      .dwtag  DW_TAG_typedef, DW_AT_name("CSL_SysRegsOvly")
    2977                      .dwattr $C$DW$T$62, DW_AT_type(*$C$DW$T$61)
    2978                      .dwattr $C$DW$T$62, DW_AT_language(DW_LANG_C)
    2979              $C$DW$T$4       .dwtag  DW_TAG_base_type
    2980                      .dwattr $C$DW$T$4, DW_AT_encoding(DW_ATE_boolean)
    2981                      .dwattr $C$DW$T$4, DW_AT_name("bool")
    2982                      .dwattr $C$DW$T$4, DW_AT_byte_size(0x01)
    2983              $C$DW$T$5       .dwtag  DW_TAG_base_type
    2984                      .dwattr $C$DW$T$5, DW_AT_encoding(DW_ATE_signed_char)
    2985                      .dwattr $C$DW$T$5, DW_AT_name("signed char")
    2986                      .dwattr $C$DW$T$5, DW_AT_byte_size(0x01)
    2987              $C$DW$T$6       .dwtag  DW_TAG_base_type
    2988                      .dwattr $C$DW$T$6, DW_AT_encoding(DW_ATE_unsigned_char)
    2989                      .dwattr $C$DW$T$6, DW_AT_name("unsigned char")
    2990                      .dwattr $C$DW$T$6, DW_AT_byte_size(0x01)
    2991              $C$DW$T$7       .dwtag  DW_TAG_base_type
    2992                      .dwattr $C$DW$T$7, DW_AT_encoding(DW_ATE_signed_char)
    2993                      .dwattr $C$DW$T$7, DW_AT_name("wchar_t")
    2994                      .dwattr $C$DW$T$7, DW_AT_byte_size(0x01)
    2995              $C$DW$T$8       .dwtag  DW_TAG_base_type
    2996                      .dwattr $C$DW$T$8, DW_AT_encoding(DW_ATE_signed)
    2997                      .dwattr $C$DW$T$8, DW_AT_name("short")
    2998                      .dwattr $C$DW$T$8, DW_AT_byte_size(0x01)
    2999              $C$DW$T$63      .dwtag  DW_TAG_typedef, DW_AT_name("Int16")
    3000                      .dwattr $C$DW$T$63, DW_AT_type(*$C$DW$T$8)
    3001                      .dwattr $C$DW$T$63, DW_AT_language(DW_LANG_C)
    3002              $C$DW$T$64      .dwtag  DW_TAG_typedef, DW_AT_name("CSL_Status")
    3003                      .dwattr $C$DW$T$64, DW_AT_type(*$C$DW$T$63)
    3004                      .dwattr $C$DW$T$64, DW_AT_language(DW_LANG_C)
    3005              $C$DW$T$75      .dwtag  DW_TAG_pointer_type
    3006                      .dwattr $C$DW$T$75, DW_AT_type(*$C$DW$T$64)
    3007                      .dwattr $C$DW$T$75, DW_AT_address_class(0x17)
    3008              $C$DW$T$9       .dwtag  DW_TAG_base_type
    3009                      .dwattr $C$DW$T$9, DW_AT_encoding(DW_ATE_unsigned)
    3010                      .dwattr $C$DW$T$9, DW_AT_name("unsigned short")
    3011                      .dwattr $C$DW$T$9, DW_AT_byte_size(0x01)
    3012              $C$DW$T$19      .dwtag  DW_TAG_typedef, DW_AT_name("Uint16")
    3013                      .dwattr $C$DW$T$19, DW_AT_type(*$C$DW$T$9)
    3014                      .dwattr $C$DW$T$19, DW_AT_language(DW_LANG_C)
TMS320C55x Assembler PC v4.4.1 Fri Sep 14 03:54:53 2018

Tools Copyright (c) 1996-2012 Texas Instruments Incorporated
csl_sar.asm                                                          PAGE   68

    3015              $C$DW$195       .dwtag  DW_TAG_TI_far_type
    3016                      .dwattr $C$DW$195, DW_AT_type(*$C$DW$T$19)
    3017              $C$DW$T$20      .dwtag  DW_TAG_volatile_type
    3018                      .dwattr $C$DW$T$20, DW_AT_type(*$C$DW$195)
    3019              
    3020              $C$DW$T$21      .dwtag  DW_TAG_array_type
    3021                      .dwattr $C$DW$T$21, DW_AT_type(*$C$DW$T$20)
    3022                      .dwattr $C$DW$T$21, DW_AT_language(DW_LANG_C)
    3023                      .dwattr $C$DW$T$21, DW_AT_byte_size(0x04)
    3024              $C$DW$196       .dwtag  DW_TAG_subrange_type
    3025                      .dwattr $C$DW$196, DW_AT_upper_bound(0x03)
    3026                      .dwendtag $C$DW$T$21
    3027              
    3028              
    3029              $C$DW$T$22      .dwtag  DW_TAG_array_type
    3030                      .dwattr $C$DW$T$22, DW_AT_type(*$C$DW$T$20)
    3031                      .dwattr $C$DW$T$22, DW_AT_language(DW_LANG_C)
    3032                      .dwattr $C$DW$T$22, DW_AT_byte_size(0x0d)
    3033              $C$DW$197       .dwtag  DW_TAG_subrange_type
    3034                      .dwattr $C$DW$197, DW_AT_upper_bound(0x0c)
    3035                      .dwendtag $C$DW$T$22
    3036              
    3037              
    3038              $C$DW$T$37      .dwtag  DW_TAG_array_type
    3039                      .dwattr $C$DW$T$37, DW_AT_type(*$C$DW$T$20)
    3040                      .dwattr $C$DW$T$37, DW_AT_language(DW_LANG_C)
    3041                      .dwattr $C$DW$T$37, DW_AT_byte_size(0x0e)
    3042              $C$DW$198       .dwtag  DW_TAG_subrange_type
    3043                      .dwattr $C$DW$198, DW_AT_upper_bound(0x0d)
    3044                      .dwendtag $C$DW$T$37
    3045              
    3046              
    3047              $C$DW$T$38      .dwtag  DW_TAG_array_type
    3048                      .dwattr $C$DW$T$38, DW_AT_type(*$C$DW$T$20)
    3049                      .dwattr $C$DW$T$38, DW_AT_language(DW_LANG_C)
    3050                      .dwattr $C$DW$T$38, DW_AT_byte_size(0x02)
    3051              $C$DW$199       .dwtag  DW_TAG_subrange_type
    3052                      .dwattr $C$DW$199, DW_AT_upper_bound(0x01)
    3053                      .dwendtag $C$DW$T$38
    3054              
    3055              
    3056              $C$DW$T$39      .dwtag  DW_TAG_array_type
    3057                      .dwattr $C$DW$T$39, DW_AT_type(*$C$DW$T$20)
    3058                      .dwattr $C$DW$T$39, DW_AT_language(DW_LANG_C)
    3059                      .dwattr $C$DW$T$39, DW_AT_byte_size(0x05)
    3060              $C$DW$200       .dwtag  DW_TAG_subrange_type
    3061                      .dwattr $C$DW$200, DW_AT_upper_bound(0x04)
    3062                      .dwendtag $C$DW$T$39
    3063              
    3064              $C$DW$T$71      .dwtag  DW_TAG_pointer_type
    3065                      .dwattr $C$DW$T$71, DW_AT_type(*$C$DW$T$19)
    3066                      .dwattr $C$DW$T$71, DW_AT_address_class(0x17)
    3067              $C$DW$T$10      .dwtag  DW_TAG_base_type
    3068                      .dwattr $C$DW$T$10, DW_AT_encoding(DW_ATE_signed)
    3069                      .dwattr $C$DW$T$10, DW_AT_name("int")
TMS320C55x Assembler PC v4.4.1 Fri Sep 14 03:54:53 2018

Tools Copyright (c) 1996-2012 Texas Instruments Incorporated
csl_sar.asm                                                          PAGE   69

    3070                      .dwattr $C$DW$T$10, DW_AT_byte_size(0x01)
    3071              $C$DW$T$77      .dwtag  DW_TAG_typedef, DW_AT_name("Bool")
    3072                      .dwattr $C$DW$T$77, DW_AT_type(*$C$DW$T$10)
    3073                      .dwattr $C$DW$T$77, DW_AT_language(DW_LANG_C)
    3074              $C$DW$201       .dwtag  DW_TAG_TI_far_type
    3075                      .dwattr $C$DW$201, DW_AT_type(*$C$DW$T$77)
    3076              $C$DW$T$78      .dwtag  DW_TAG_volatile_type
    3077                      .dwattr $C$DW$T$78, DW_AT_type(*$C$DW$201)
    3078              $C$DW$T$11      .dwtag  DW_TAG_base_type
    3079                      .dwattr $C$DW$T$11, DW_AT_encoding(DW_ATE_unsigned)
    3080                      .dwattr $C$DW$T$11, DW_AT_name("unsigned int")
    3081                      .dwattr $C$DW$T$11, DW_AT_byte_size(0x01)
    3082              $C$DW$T$12      .dwtag  DW_TAG_base_type
    3083                      .dwattr $C$DW$T$12, DW_AT_encoding(DW_ATE_signed)
    3084                      .dwattr $C$DW$T$12, DW_AT_name("long")
    3085                      .dwattr $C$DW$T$12, DW_AT_byte_size(0x02)
    3086              $C$DW$T$13      .dwtag  DW_TAG_base_type
    3087                      .dwattr $C$DW$T$13, DW_AT_encoding(DW_ATE_unsigned)
    3088                      .dwattr $C$DW$T$13, DW_AT_name("unsigned long")
    3089                      .dwattr $C$DW$T$13, DW_AT_byte_size(0x02)
    3090              $C$DW$T$14      .dwtag  DW_TAG_base_type
    3091                      .dwattr $C$DW$T$14, DW_AT_encoding(DW_ATE_signed)
    3092                      .dwattr $C$DW$T$14, DW_AT_name("long long")
    3093                      .dwattr $C$DW$T$14, DW_AT_byte_size(0x04)
    3094                      .dwattr $C$DW$T$14, DW_AT_bit_size(0x28)
    3095                      .dwattr $C$DW$T$14, DW_AT_bit_offset(0x18)
    3096              $C$DW$T$15      .dwtag  DW_TAG_base_type
    3097                      .dwattr $C$DW$T$15, DW_AT_encoding(DW_ATE_unsigned)
    3098                      .dwattr $C$DW$T$15, DW_AT_name("unsigned long long")
    3099                      .dwattr $C$DW$T$15, DW_AT_byte_size(0x04)
    3100                      .dwattr $C$DW$T$15, DW_AT_bit_size(0x28)
    3101                      .dwattr $C$DW$T$15, DW_AT_bit_offset(0x18)
    3102              $C$DW$T$16      .dwtag  DW_TAG_base_type
    3103                      .dwattr $C$DW$T$16, DW_AT_encoding(DW_ATE_float)
    3104                      .dwattr $C$DW$T$16, DW_AT_name("float")
    3105                      .dwattr $C$DW$T$16, DW_AT_byte_size(0x02)
    3106              $C$DW$T$17      .dwtag  DW_TAG_base_type
    3107                      .dwattr $C$DW$T$17, DW_AT_encoding(DW_ATE_float)
    3108                      .dwattr $C$DW$T$17, DW_AT_name("double")
    3109                      .dwattr $C$DW$T$17, DW_AT_byte_size(0x02)
    3110              $C$DW$T$18      .dwtag  DW_TAG_base_type
    3111                      .dwattr $C$DW$T$18, DW_AT_encoding(DW_ATE_float)
    3112                      .dwattr $C$DW$T$18, DW_AT_name("long double")
    3113                      .dwattr $C$DW$T$18, DW_AT_byte_size(0x02)
    3114                      .dwattr $C$DW$CU, DW_AT_language(DW_LANG_C)
    3115              
    3116              ;***************************************************************
    3117              ;* DWARF CIE ENTRIES                                           *
    3118              ;***************************************************************
    3119              
    3120              $C$DW$CIE       .dwcie 91
    3121                      .dwcfi  cfa_register, 36
    3122                      .dwcfi  cfa_offset, 0
    3123                      .dwcfi  undefined, 0
    3124                      .dwcfi  undefined, 1
TMS320C55x Assembler PC v4.4.1 Fri Sep 14 03:54:53 2018

Tools Copyright (c) 1996-2012 Texas Instruments Incorporated
csl_sar.asm                                                          PAGE   70

    3125                      .dwcfi  undefined, 2
    3126                      .dwcfi  undefined, 3
    3127                      .dwcfi  undefined, 4
    3128                      .dwcfi  undefined, 5
    3129                      .dwcfi  undefined, 6
    3130                      .dwcfi  undefined, 7
    3131                      .dwcfi  undefined, 8
    3132                      .dwcfi  undefined, 9
    3133                      .dwcfi  undefined, 10
    3134                      .dwcfi  undefined, 11
    3135                      .dwcfi  undefined, 12
    3136                      .dwcfi  undefined, 13
    3137                      .dwcfi  same_value, 14
    3138                      .dwcfi  same_value, 15
    3139                      .dwcfi  undefined, 16
    3140                      .dwcfi  undefined, 17
    3141                      .dwcfi  undefined, 18
    3142                      .dwcfi  undefined, 19
    3143                      .dwcfi  undefined, 20
    3144                      .dwcfi  undefined, 21
    3145                      .dwcfi  undefined, 22
    3146                      .dwcfi  undefined, 23
    3147                      .dwcfi  undefined, 24
    3148                      .dwcfi  undefined, 25
    3149                      .dwcfi  same_value, 26
    3150                      .dwcfi  same_value, 27
    3151                      .dwcfi  same_value, 28
    3152                      .dwcfi  same_value, 29
    3153                      .dwcfi  same_value, 30
    3154                      .dwcfi  same_value, 31
    3155                      .dwcfi  undefined, 32
    3156                      .dwcfi  undefined, 33
    3157                      .dwcfi  undefined, 34
    3158                      .dwcfi  undefined, 35
    3159                      .dwcfi  undefined, 36
    3160                      .dwcfi  undefined, 37
    3161                      .dwcfi  undefined, 38
    3162                      .dwcfi  undefined, 39
    3163                      .dwcfi  undefined, 40
    3164                      .dwcfi  undefined, 41
    3165                      .dwcfi  undefined, 42
    3166                      .dwcfi  undefined, 43
    3167                      .dwcfi  undefined, 44
    3168                      .dwcfi  undefined, 45
    3169                      .dwcfi  undefined, 46
    3170                      .dwcfi  undefined, 47
    3171                      .dwcfi  undefined, 48
    3172                      .dwcfi  undefined, 49
    3173                      .dwcfi  undefined, 50
    3174                      .dwcfi  undefined, 51
    3175                      .dwcfi  undefined, 52
    3176                      .dwcfi  undefined, 53
    3177                      .dwcfi  undefined, 54
    3178                      .dwcfi  undefined, 55
    3179                      .dwcfi  undefined, 56
TMS320C55x Assembler PC v4.4.1 Fri Sep 14 03:54:53 2018

Tools Copyright (c) 1996-2012 Texas Instruments Incorporated
csl_sar.asm                                                          PAGE   71

    3180                      .dwcfi  undefined, 57
    3181                      .dwcfi  undefined, 58
    3182                      .dwcfi  undefined, 59
    3183                      .dwcfi  undefined, 60
    3184                      .dwcfi  undefined, 61
    3185                      .dwcfi  undefined, 62
    3186                      .dwcfi  undefined, 63
    3187                      .dwcfi  undefined, 64
    3188                      .dwcfi  undefined, 65
    3189                      .dwcfi  undefined, 66
    3190                      .dwcfi  undefined, 67
    3191                      .dwcfi  undefined, 68
    3192                      .dwcfi  undefined, 69
    3193                      .dwcfi  undefined, 70
    3194                      .dwcfi  undefined, 71
    3195                      .dwcfi  undefined, 72
    3196                      .dwcfi  undefined, 73
    3197                      .dwcfi  undefined, 74
    3198                      .dwcfi  undefined, 75
    3199                      .dwcfi  undefined, 76
    3200                      .dwcfi  undefined, 77
    3201                      .dwcfi  undefined, 78
    3202                      .dwcfi  undefined, 79
    3203                      .dwcfi  undefined, 80
    3204                      .dwcfi  undefined, 81
    3205                      .dwcfi  undefined, 82
    3206                      .dwcfi  undefined, 83
    3207                      .dwcfi  undefined, 84
    3208                      .dwcfi  undefined, 85
    3209                      .dwcfi  undefined, 86
    3210                      .dwcfi  undefined, 87
    3211                      .dwcfi  undefined, 88
    3212                      .dwcfi  undefined, 89
    3213                      .dwcfi  undefined, 90
    3214                      .dwcfi  undefined, 91
    3215                      .dwendentry
    3216              
    3217              ;***************************************************************
    3218              ;* DWARF REGISTER MAP                                          *
    3219              ;***************************************************************
    3220              
    3221              $C$DW$202       .dwtag  DW_TAG_TI_assign_register, DW_AT_name("AC0")
    3222                      .dwattr $C$DW$202, DW_AT_location[DW_OP_reg0]
    3223              $C$DW$203       .dwtag  DW_TAG_TI_assign_register, DW_AT_name("AC0")
    3224                      .dwattr $C$DW$203, DW_AT_location[DW_OP_reg1]
    3225              $C$DW$204       .dwtag  DW_TAG_TI_assign_register, DW_AT_name("AC0_G")
    3226                      .dwattr $C$DW$204, DW_AT_location[DW_OP_reg2]
    3227              $C$DW$205       .dwtag  DW_TAG_TI_assign_register, DW_AT_name("AC1")
    3228                      .dwattr $C$DW$205, DW_AT_location[DW_OP_reg3]
    3229              $C$DW$206       .dwtag  DW_TAG_TI_assign_register, DW_AT_name("AC1")
    3230                      .dwattr $C$DW$206, DW_AT_location[DW_OP_reg4]
    3231              $C$DW$207       .dwtag  DW_TAG_TI_assign_register, DW_AT_name("AC1_G")
    3232                      .dwattr $C$DW$207, DW_AT_location[DW_OP_reg5]
    3233              $C$DW$208       .dwtag  DW_TAG_TI_assign_register, DW_AT_name("AC2")
    3234                      .dwattr $C$DW$208, DW_AT_location[DW_OP_reg6]
TMS320C55x Assembler PC v4.4.1 Fri Sep 14 03:54:53 2018

Tools Copyright (c) 1996-2012 Texas Instruments Incorporated
csl_sar.asm                                                          PAGE   72

    3235              $C$DW$209       .dwtag  DW_TAG_TI_assign_register, DW_AT_name("AC2")
    3236                      .dwattr $C$DW$209, DW_AT_location[DW_OP_reg7]
    3237              $C$DW$210       .dwtag  DW_TAG_TI_assign_register, DW_AT_name("AC2_G")
    3238                      .dwattr $C$DW$210, DW_AT_location[DW_OP_reg8]
    3239              $C$DW$211       .dwtag  DW_TAG_TI_assign_register, DW_AT_name("AC3")
    3240                      .dwattr $C$DW$211, DW_AT_location[DW_OP_reg9]
    3241              $C$DW$212       .dwtag  DW_TAG_TI_assign_register, DW_AT_name("AC3")
    3242                      .dwattr $C$DW$212, DW_AT_location[DW_OP_reg10]
    3243              $C$DW$213       .dwtag  DW_TAG_TI_assign_register, DW_AT_name("AC3_G")
    3244                      .dwattr $C$DW$213, DW_AT_location[DW_OP_reg11]
    3245              $C$DW$214       .dwtag  DW_TAG_TI_assign_register, DW_AT_name("T0")
    3246                      .dwattr $C$DW$214, DW_AT_location[DW_OP_reg12]
    3247              $C$DW$215       .dwtag  DW_TAG_TI_assign_register, DW_AT_name("T1")
    3248                      .dwattr $C$DW$215, DW_AT_location[DW_OP_reg13]
    3249              $C$DW$216       .dwtag  DW_TAG_TI_assign_register, DW_AT_name("T2")
    3250                      .dwattr $C$DW$216, DW_AT_location[DW_OP_reg14]
    3251              $C$DW$217       .dwtag  DW_TAG_TI_assign_register, DW_AT_name("T3")
    3252                      .dwattr $C$DW$217, DW_AT_location[DW_OP_reg15]
    3253              $C$DW$218       .dwtag  DW_TAG_TI_assign_register, DW_AT_name("AR0")
    3254                      .dwattr $C$DW$218, DW_AT_location[DW_OP_reg16]
    3255              $C$DW$219       .dwtag  DW_TAG_TI_assign_register, DW_AT_name("XAR0")
    3256                      .dwattr $C$DW$219, DW_AT_location[DW_OP_reg17]
    3257              $C$DW$220       .dwtag  DW_TAG_TI_assign_register, DW_AT_name("AR1")
    3258                      .dwattr $C$DW$220, DW_AT_location[DW_OP_reg18]
    3259              $C$DW$221       .dwtag  DW_TAG_TI_assign_register, DW_AT_name("XAR1")
    3260                      .dwattr $C$DW$221, DW_AT_location[DW_OP_reg19]
    3261              $C$DW$222       .dwtag  DW_TAG_TI_assign_register, DW_AT_name("AR2")
    3262                      .dwattr $C$DW$222, DW_AT_location[DW_OP_reg20]
    3263              $C$DW$223       .dwtag  DW_TAG_TI_assign_register, DW_AT_name("XAR2")
    3264                      .dwattr $C$DW$223, DW_AT_location[DW_OP_reg21]
    3265              $C$DW$224       .dwtag  DW_TAG_TI_assign_register, DW_AT_name("AR3")
    3266                      .dwattr $C$DW$224, DW_AT_location[DW_OP_reg22]
    3267              $C$DW$225       .dwtag  DW_TAG_TI_assign_register, DW_AT_name("XAR3")
    3268                      .dwattr $C$DW$225, DW_AT_location[DW_OP_reg23]
    3269              $C$DW$226       .dwtag  DW_TAG_TI_assign_register, DW_AT_name("AR4")
    3270                      .dwattr $C$DW$226, DW_AT_location[DW_OP_reg24]
    3271              $C$DW$227       .dwtag  DW_TAG_TI_assign_register, DW_AT_name("XAR4")
    3272                      .dwattr $C$DW$227, DW_AT_location[DW_OP_reg25]
    3273              $C$DW$228       .dwtag  DW_TAG_TI_assign_register, DW_AT_name("AR5")
    3274                      .dwattr $C$DW$228, DW_AT_location[DW_OP_reg26]
    3275              $C$DW$229       .dwtag  DW_TAG_TI_assign_register, DW_AT_name("XAR5")
    3276                      .dwattr $C$DW$229, DW_AT_location[DW_OP_reg27]
    3277              $C$DW$230       .dwtag  DW_TAG_TI_assign_register, DW_AT_name("AR6")
    3278                      .dwattr $C$DW$230, DW_AT_location[DW_OP_reg28]
    3279              $C$DW$231       .dwtag  DW_TAG_TI_assign_register, DW_AT_name("XAR6")
    3280                      .dwattr $C$DW$231, DW_AT_location[DW_OP_reg29]
    3281              $C$DW$232       .dwtag  DW_TAG_TI_assign_register, DW_AT_name("AR7")
    3282                      .dwattr $C$DW$232, DW_AT_location[DW_OP_reg30]
    3283              $C$DW$233       .dwtag  DW_TAG_TI_assign_register, DW_AT_name("XAR7")
    3284                      .dwattr $C$DW$233, DW_AT_location[DW_OP_reg31]
    3285              $C$DW$234       .dwtag  DW_TAG_TI_assign_register, DW_AT_name("FP")
    3286                      .dwattr $C$DW$234, DW_AT_location[DW_OP_regx 0x20]
    3287              $C$DW$235       .dwtag  DW_TAG_TI_assign_register, DW_AT_name("XFP")
    3288                      .dwattr $C$DW$235, DW_AT_location[DW_OP_regx 0x21]
    3289              $C$DW$236       .dwtag  DW_TAG_TI_assign_register, DW_AT_name("PC")
TMS320C55x Assembler PC v4.4.1 Fri Sep 14 03:54:53 2018

Tools Copyright (c) 1996-2012 Texas Instruments Incorporated
csl_sar.asm                                                          PAGE   73

    3290                      .dwattr $C$DW$236, DW_AT_location[DW_OP_regx 0x22]
    3291              $C$DW$237       .dwtag  DW_TAG_TI_assign_register, DW_AT_name("SP")
    3292                      .dwattr $C$DW$237, DW_AT_location[DW_OP_regx 0x23]
    3293              $C$DW$238       .dwtag  DW_TAG_TI_assign_register, DW_AT_name("XSP")
    3294                      .dwattr $C$DW$238, DW_AT_location[DW_OP_regx 0x24]
    3295              $C$DW$239       .dwtag  DW_TAG_TI_assign_register, DW_AT_name("BKC")
    3296                      .dwattr $C$DW$239, DW_AT_location[DW_OP_regx 0x25]
    3297              $C$DW$240       .dwtag  DW_TAG_TI_assign_register, DW_AT_name("BK03")
    3298                      .dwattr $C$DW$240, DW_AT_location[DW_OP_regx 0x26]
    3299              $C$DW$241       .dwtag  DW_TAG_TI_assign_register, DW_AT_name("BK47")
    3300                      .dwattr $C$DW$241, DW_AT_location[DW_OP_regx 0x27]
    3301              $C$DW$242       .dwtag  DW_TAG_TI_assign_register, DW_AT_name("ST0")
    3302                      .dwattr $C$DW$242, DW_AT_location[DW_OP_regx 0x28]
    3303              $C$DW$243       .dwtag  DW_TAG_TI_assign_register, DW_AT_name("ST1")
    3304                      .dwattr $C$DW$243, DW_AT_location[DW_OP_regx 0x29]
    3305              $C$DW$244       .dwtag  DW_TAG_TI_assign_register, DW_AT_name("ST2")
    3306                      .dwattr $C$DW$244, DW_AT_location[DW_OP_regx 0x2a]
    3307              $C$DW$245       .dwtag  DW_TAG_TI_assign_register, DW_AT_name("ST3")
    3308                      .dwattr $C$DW$245, DW_AT_location[DW_OP_regx 0x2b]
    3309              $C$DW$246       .dwtag  DW_TAG_TI_assign_register, DW_AT_name("MDP")
    3310                      .dwattr $C$DW$246, DW_AT_location[DW_OP_regx 0x2c]
    3311              $C$DW$247       .dwtag  DW_TAG_TI_assign_register, DW_AT_name("MDP05")
    3312                      .dwattr $C$DW$247, DW_AT_location[DW_OP_regx 0x2d]
    3313              $C$DW$248       .dwtag  DW_TAG_TI_assign_register, DW_AT_name("MDP67")
    3314                      .dwattr $C$DW$248, DW_AT_location[DW_OP_regx 0x2e]
    3315              $C$DW$249       .dwtag  DW_TAG_TI_assign_register, DW_AT_name("BRC0")
    3316                      .dwattr $C$DW$249, DW_AT_location[DW_OP_regx 0x2f]
    3317              $C$DW$250       .dwtag  DW_TAG_TI_assign_register, DW_AT_name("RSA0")
    3318                      .dwattr $C$DW$250, DW_AT_location[DW_OP_regx 0x30]
    3319              $C$DW$251       .dwtag  DW_TAG_TI_assign_register, DW_AT_name("RSA0_H")
    3320                      .dwattr $C$DW$251, DW_AT_location[DW_OP_regx 0x31]
    3321              $C$DW$252       .dwtag  DW_TAG_TI_assign_register, DW_AT_name("REA0")
    3322                      .dwattr $C$DW$252, DW_AT_location[DW_OP_regx 0x32]
    3323              $C$DW$253       .dwtag  DW_TAG_TI_assign_register, DW_AT_name("REA0_H")
    3324                      .dwattr $C$DW$253, DW_AT_location[DW_OP_regx 0x33]
    3325              $C$DW$254       .dwtag  DW_TAG_TI_assign_register, DW_AT_name("BRS1")
    3326                      .dwattr $C$DW$254, DW_AT_location[DW_OP_regx 0x34]
    3327              $C$DW$255       .dwtag  DW_TAG_TI_assign_register, DW_AT_name("BRC1")
    3328                      .dwattr $C$DW$255, DW_AT_location[DW_OP_regx 0x35]
    3329              $C$DW$256       .dwtag  DW_TAG_TI_assign_register, DW_AT_name("RSA1")
    3330                      .dwattr $C$DW$256, DW_AT_location[DW_OP_regx 0x36]
    3331              $C$DW$257       .dwtag  DW_TAG_TI_assign_register, DW_AT_name("RSA1_H")
    3332                      .dwattr $C$DW$257, DW_AT_location[DW_OP_regx 0x37]
    3333              $C$DW$258       .dwtag  DW_TAG_TI_assign_register, DW_AT_name("REA1")
    3334                      .dwattr $C$DW$258, DW_AT_location[DW_OP_regx 0x38]
    3335              $C$DW$259       .dwtag  DW_TAG_TI_assign_register, DW_AT_name("REA1_H")
    3336                      .dwattr $C$DW$259, DW_AT_location[DW_OP_regx 0x39]
    3337              $C$DW$260       .dwtag  DW_TAG_TI_assign_register, DW_AT_name("CSR")
    3338                      .dwattr $C$DW$260, DW_AT_location[DW_OP_regx 0x3a]
    3339              $C$DW$261       .dwtag  DW_TAG_TI_assign_register, DW_AT_name("RPTC")
    3340                      .dwattr $C$DW$261, DW_AT_location[DW_OP_regx 0x3b]
    3341              $C$DW$262       .dwtag  DW_TAG_TI_assign_register, DW_AT_name("CDP")
    3342                      .dwattr $C$DW$262, DW_AT_location[DW_OP_regx 0x3c]
    3343              $C$DW$263       .dwtag  DW_TAG_TI_assign_register, DW_AT_name("XCDP")
    3344                      .dwattr $C$DW$263, DW_AT_location[DW_OP_regx 0x3d]
TMS320C55x Assembler PC v4.4.1 Fri Sep 14 03:54:53 2018

Tools Copyright (c) 1996-2012 Texas Instruments Incorporated
csl_sar.asm                                                          PAGE   74

    3345              $C$DW$264       .dwtag  DW_TAG_TI_assign_register, DW_AT_name("TRN0")
    3346                      .dwattr $C$DW$264, DW_AT_location[DW_OP_regx 0x3e]
    3347              $C$DW$265       .dwtag  DW_TAG_TI_assign_register, DW_AT_name("TRN1")
    3348                      .dwattr $C$DW$265, DW_AT_location[DW_OP_regx 0x3f]
    3349              $C$DW$266       .dwtag  DW_TAG_TI_assign_register, DW_AT_name("BSA01")
    3350                      .dwattr $C$DW$266, DW_AT_location[DW_OP_regx 0x40]
    3351              $C$DW$267       .dwtag  DW_TAG_TI_assign_register, DW_AT_name("BSA23")
    3352                      .dwattr $C$DW$267, DW_AT_location[DW_OP_regx 0x41]
    3353              $C$DW$268       .dwtag  DW_TAG_TI_assign_register, DW_AT_name("BSA45")
    3354                      .dwattr $C$DW$268, DW_AT_location[DW_OP_regx 0x42]
    3355              $C$DW$269       .dwtag  DW_TAG_TI_assign_register, DW_AT_name("BSA67")
    3356                      .dwattr $C$DW$269, DW_AT_location[DW_OP_regx 0x43]
    3357              $C$DW$270       .dwtag  DW_TAG_TI_assign_register, DW_AT_name("BSAC")
    3358                      .dwattr $C$DW$270, DW_AT_location[DW_OP_regx 0x44]
    3359              $C$DW$271       .dwtag  DW_TAG_TI_assign_register, DW_AT_name("CARRY")
    3360                      .dwattr $C$DW$271, DW_AT_location[DW_OP_regx 0x45]
    3361              $C$DW$272       .dwtag  DW_TAG_TI_assign_register, DW_AT_name("TC1")
    3362                      .dwattr $C$DW$272, DW_AT_location[DW_OP_regx 0x46]
    3363              $C$DW$273       .dwtag  DW_TAG_TI_assign_register, DW_AT_name("TC2")
    3364                      .dwattr $C$DW$273, DW_AT_location[DW_OP_regx 0x47]
    3365              $C$DW$274       .dwtag  DW_TAG_TI_assign_register, DW_AT_name("M40")
    3366                      .dwattr $C$DW$274, DW_AT_location[DW_OP_regx 0x48]
    3367              $C$DW$275       .dwtag  DW_TAG_TI_assign_register, DW_AT_name("SXMD")
    3368                      .dwattr $C$DW$275, DW_AT_location[DW_OP_regx 0x49]
    3369              $C$DW$276       .dwtag  DW_TAG_TI_assign_register, DW_AT_name("ARMS")
    3370                      .dwattr $C$DW$276, DW_AT_location[DW_OP_regx 0x4a]
    3371              $C$DW$277       .dwtag  DW_TAG_TI_assign_register, DW_AT_name("C54CM")
    3372                      .dwattr $C$DW$277, DW_AT_location[DW_OP_regx 0x4b]
    3373              $C$DW$278       .dwtag  DW_TAG_TI_assign_register, DW_AT_name("SATA")
    3374                      .dwattr $C$DW$278, DW_AT_location[DW_OP_regx 0x4c]
    3375              $C$DW$279       .dwtag  DW_TAG_TI_assign_register, DW_AT_name("SATD")
    3376                      .dwattr $C$DW$279, DW_AT_location[DW_OP_regx 0x4d]
    3377              $C$DW$280       .dwtag  DW_TAG_TI_assign_register, DW_AT_name("RDM")
    3378                      .dwattr $C$DW$280, DW_AT_location[DW_OP_regx 0x4e]
    3379              $C$DW$281       .dwtag  DW_TAG_TI_assign_register, DW_AT_name("FRCT")
    3380                      .dwattr $C$DW$281, DW_AT_location[DW_OP_regx 0x4f]
    3381              $C$DW$282       .dwtag  DW_TAG_TI_assign_register, DW_AT_name("SMUL")
    3382                      .dwattr $C$DW$282, DW_AT_location[DW_OP_regx 0x50]
    3383              $C$DW$283       .dwtag  DW_TAG_TI_assign_register, DW_AT_name("INTM")
    3384                      .dwattr $C$DW$283, DW_AT_location[DW_OP_regx 0x51]
    3385              $C$DW$284       .dwtag  DW_TAG_TI_assign_register, DW_AT_name("AR0LC")
    3386                      .dwattr $C$DW$284, DW_AT_location[DW_OP_regx 0x52]
    3387              $C$DW$285       .dwtag  DW_TAG_TI_assign_register, DW_AT_name("AR1LC")
    3388                      .dwattr $C$DW$285, DW_AT_location[DW_OP_regx 0x53]
    3389              $C$DW$286       .dwtag  DW_TAG_TI_assign_register, DW_AT_name("AR2LC")
    3390                      .dwattr $C$DW$286, DW_AT_location[DW_OP_regx 0x54]
    3391              $C$DW$287       .dwtag  DW_TAG_TI_assign_register, DW_AT_name("AR3LC")
    3392                      .dwattr $C$DW$287, DW_AT_location[DW_OP_regx 0x55]
    3393              $C$DW$288       .dwtag  DW_TAG_TI_assign_register, DW_AT_name("AR4LC")
    3394                      .dwattr $C$DW$288, DW_AT_location[DW_OP_regx 0x56]
    3395              $C$DW$289       .dwtag  DW_TAG_TI_assign_register, DW_AT_name("AR5LC")
    3396                      .dwattr $C$DW$289, DW_AT_location[DW_OP_regx 0x57]
    3397              $C$DW$290       .dwtag  DW_TAG_TI_assign_register, DW_AT_name("AR6LC")
    3398                      .dwattr $C$DW$290, DW_AT_location[DW_OP_regx 0x58]
    3399              $C$DW$291       .dwtag  DW_TAG_TI_assign_register, DW_AT_name("AR7LC")
TMS320C55x Assembler PC v4.4.1 Fri Sep 14 03:54:53 2018

Tools Copyright (c) 1996-2012 Texas Instruments Incorporated
csl_sar.asm                                                          PAGE   75

    3400                      .dwattr $C$DW$291, DW_AT_location[DW_OP_regx 0x59]
    3401              $C$DW$292       .dwtag  DW_TAG_TI_assign_register, DW_AT_name("CDPLC")
    3402                      .dwattr $C$DW$292, DW_AT_location[DW_OP_regx 0x5a]
    3403              $C$DW$293       .dwtag  DW_TAG_TI_assign_register, DW_AT_name("CIE_RETA")
    3404                      .dwattr $C$DW$293, DW_AT_location[DW_OP_regx 0x5b]
    3405                      .dwendtag $C$DW$CU
    3406              
    3406              
    3406              

No Assembly Errors, No Assembly Warnings
