TMS320C55x Assembler PC v4.4.1 Sun Sep 16 02:56:35 2018

Tools Copyright (c) 1996-2012 Texas Instruments Incorporated
csl_i2c.asm                                                          PAGE    1

    3569              ; Temporary Registers Used: None
       1              ;*******************************************************************************
       2              ;* TMS320C55x C/C++ Codegen                                          PC v4.4.1 *
       3              ;* Date/Time created: Sun Sep 16 02:56:33 2018                                 *
       4              ;*******************************************************************************
       5                      .compiler_opts --hll_source=on --mem_model:code=flat --mem_model:data=large --object_format=coff --si
       6                      .mmregs
       7                      .cpl_on
       8                      .arms_on
       9                      .c54cm_off
      10                      .asg AR6, FP
      11                      .asg XAR6, XFP
      12                      .asg DPH, MDP
      13                      .model call=c55_std
      14                      .model mem=large
      15                      .noremark 5002  ; code respects overwrite rules
      16              ;*******************************************************************************
      17              ;* GLOBAL FILE PARAMETERS                                                      *
      18              ;*                                                                             *
      19              ;*   Architecture       : TMS320C55x                                           *
      20              ;*   Optimizing for     : Speed                                                *
      21              ;*   Memory             : Large Model (23-Bit Data Pointers)                   *
      22              ;*   Calls              : Normal Library ASM calls                             *
      23              ;*   Debug Info         : Standard TI Debug Information                        *
      24              ;*******************************************************************************
      25              
      26              $C$DW$CU        .dwtag  DW_TAG_compile_unit
      27                      .dwattr $C$DW$CU, DW_AT_name("../c5535_bsl_revc/ezdsp5535_v1/c55xx_csl/src/csl_i2c.c")
      28                      .dwattr $C$DW$CU, DW_AT_producer("TMS320C55x C/C++ Codegen PC v4.4.1 Copyright (c) 1996-2012 Texas In
      29                      .dwattr $C$DW$CU, DW_AT_TI_version(0x01)
      30                      .dwattr $C$DW$CU, DW_AT_comp_dir("F:\eZdsp_DBG\eZDSP_5535_Files\ccsws2\test\Debug")
      31                      .global _gI2cObj
      32 000000               .bss    _gI2cObj,16,0,2
      33              $C$DW$1 .dwtag  DW_TAG_variable, DW_AT_name("gI2cObj")
      34                      .dwattr $C$DW$1, DW_AT_TI_symbol_name("_gI2cObj")
      35                      .dwattr $C$DW$1, DW_AT_location[DW_OP_addr _gI2cObj]
      36                      .dwattr $C$DW$1, DW_AT_type(*$C$DW$T$61)
      37                      .dwattr $C$DW$1, DW_AT_external
      38                      .global _i2cHandle
      39 000010               .bss    _i2cHandle,2,0,2
      40              $C$DW$2 .dwtag  DW_TAG_variable, DW_AT_name("i2cHandle")
      41                      .dwattr $C$DW$2, DW_AT_TI_symbol_name("_i2cHandle")
      42                      .dwattr $C$DW$2, DW_AT_location[DW_OP_addr _i2cHandle]
      43                      .dwattr $C$DW$2, DW_AT_type(*$C$DW$T$63)
      44                      .dwattr $C$DW$2, DW_AT_external
      45              ;       F:\ti\ccs8p1\ccsv8\tools\compiler\alt-install-ti-cgt-c55x_4.4.1\bin\acp55.exe -@f:\\AppData\\Local\\T
      46 000000               .sect   ".text"
      47                      .align 4
      48                      .global _I2C_init
      49              
      50              $C$DW$3 .dwtag  DW_TAG_subprogram, DW_AT_name("I2C_init")
      51                      .dwattr $C$DW$3, DW_AT_low_pc(_I2C_init)
      52                      .dwattr $C$DW$3, DW_AT_high_pc(0x00)
      53                      .dwattr $C$DW$3, DW_AT_TI_symbol_name("_I2C_init")
      54                      .dwattr $C$DW$3, DW_AT_external
TMS320C55x Assembler PC v4.4.1 Sun Sep 16 02:56:35 2018

Tools Copyright (c) 1996-2012 Texas Instruments Incorporated
csl_i2c.asm                                                          PAGE    2

      55                      .dwattr $C$DW$3, DW_AT_type(*$C$DW$T$69)
      56                      .dwattr $C$DW$3, DW_AT_TI_begin_file("../c5535_bsl_revc/ezdsp5535_v1/c55xx_csl/src/csl_i2c.c")
      57                      .dwattr $C$DW$3, DW_AT_TI_begin_line(0x3c)
      58                      .dwattr $C$DW$3, DW_AT_TI_begin_column(0x0c)
      59                      .dwattr $C$DW$3, DW_AT_TI_max_frame_size(0x04)
      60                      .dwpsn  file "../c5535_bsl_revc/ezdsp5535_v1/c55xx_csl/src/csl_i2c.c",line 61,column 1,is_stmt,addres
      61              
      62                      .dwfde $C$DW$CIE, _I2C_init
      63              $C$DW$4 .dwtag  DW_TAG_formal_parameter, DW_AT_name("instanceNum")
      64                      .dwattr $C$DW$4, DW_AT_TI_symbol_name("_instanceNum")
      65                      .dwattr $C$DW$4, DW_AT_type(*$C$DW$T$19)
      66                      .dwattr $C$DW$4, DW_AT_location[DW_OP_reg12]
      67              ;*******************************************************************************
      68              ;* FUNCTION NAME: I2C_init                                                     *
      69              ;*                                                                             *
      70              ;*   Function Uses Regs : AC0,AC0,T0,AR1,AR2,AR3,XAR3,SP,CARRY,TC1,M40,SATA,   *
      71              ;*                        SATD,RDM,FRCT,SMUL                                   *
      72              ;*   Stack Frame        : Compact (No Frame Pointer, w/ debug)                 *
      73              ;*   Total Frame Size   : 4 words                                              *
      74              ;*                        (1 return address/alignment)                         *
      75              ;*                        (3 local values)                                     *
      76              ;*   Min System Stack   : 1 word                                               *
      77              ;*******************************************************************************
      78 000000       _I2C_init:
      79                      .dwcfi  cfa_offset, 1
      80                      .dwcfi  save_reg_to_mem, 91, -1
      81 000000 4EFD          AADD #-3, SP
      82                      .dwcfi  cfa_offset, 4
      83              $C$DW$5 .dwtag  DW_TAG_variable, DW_AT_name("instanceNum")
      84                      .dwattr $C$DW$5, DW_AT_TI_symbol_name("_instanceNum")
      85                      .dwattr $C$DW$5, DW_AT_type(*$C$DW$T$19)
      86                      .dwattr $C$DW$5, DW_AT_location[DW_OP_bregx 0x24 0]
      87              $C$DW$6 .dwtag  DW_TAG_variable, DW_AT_name("status")
      88                      .dwattr $C$DW$6, DW_AT_TI_symbol_name("_status")
      89                      .dwattr $C$DW$6, DW_AT_type(*$C$DW$T$69)
      90                      .dwattr $C$DW$6, DW_AT_location[DW_OP_bregx 0x24 1]
      91              $C$DW$7 .dwtag  DW_TAG_variable, DW_AT_name("looper")
      92                      .dwattr $C$DW$7, DW_AT_TI_symbol_name("_looper")
      93                      .dwattr $C$DW$7, DW_AT_type(*$C$DW$T$20)
      94                      .dwattr $C$DW$7, DW_AT_location[DW_OP_bregx 0x24 2]
      95 000002 C400          MOV T0, *SP(#0) ; |61| 
      96                      .dwpsn  file "../c5535_bsl_revc/ezdsp5535_v1/c55xx_csl/src/csl_i2c.c",line 65,column 2,is_stmt
      97 000004 E602          MOV #0, *SP(#1) ; |65| 
         000006 00   
      98                      .dwpsn  file "../c5535_bsl_revc/ezdsp5535_v1/c55xx_csl/src/csl_i2c.c",line 67,column 2,is_stmt
      99 000007 0600          B $C$L4   ; |67| 
         000009 91   
     100                                                      ; branch occurs ; |67| 
     101 00000a       $C$L1:    
     102                      .dwpsn  file "../c5535_bsl_revc/ezdsp5535_v1/c55xx_csl/src/csl_i2c.c",line 70,column 7,is_stmt
     103 00000a EC31          AMOV #_gI2cObj, XAR3 ; |70| 
         00000c BE00 
         00000e 0000-
     104 000010 EB31          MOV XAR3, dbl(*(#_i2cHandle))
         000012 B500 
TMS320C55x Assembler PC v4.4.1 Sun Sep 16 02:56:35 2018

Tools Copyright (c) 1996-2012 Texas Instruments Incorporated
csl_i2c.asm                                                          PAGE    3

         000014 0010-
     105                      .dwpsn  file "../c5535_bsl_revc/ezdsp5535_v1/c55xx_csl/src/csl_i2c.c",line 71,column 7,is_stmt
     106 000016 FB61          MOV #6656, *AR3 ; |71| 
         000018 1A00 
     107                      .dwpsn  file "../c5535_bsl_revc/ezdsp5535_v1/c55xx_csl/src/csl_i2c.c",line 72,column 7,is_stmt
     108 00001a ED31          MOV dbl(*(#_i2cHandle)), XAR3
         00001c BF00 
         00001e 0010-
     109 000020 FB73          MOV #7168, *AR3(short(#1)) ; |72| 
         000022 1C00 
     110                      .dwpsn  file "../c5535_bsl_revc/ezdsp5535_v1/c55xx_csl/src/csl_i2c.c",line 75,column 4,is_stmt
     111 000024 ED31          MOV dbl(*(#_i2cHandle)), XAR3
         000026 BF00 
         000028 0010-
     112 00002a AB73          MOV *AR3(short(#1)), AR3 ; |75| 
     113 00002c A975          MOV port(*AR3(short(#2))), AR1 ; |75| 
         00002e 99   
     114 00002f ED31          MOV dbl(*(#_i2cHandle)), XAR3
         000031 BF00 
         000033 0010-
     115 000035 AB73          MOV *AR3(short(#1)), AR3 ; |75| 
     116 000037 EC0C          BCLR @#6, AR1 ; |75| 
         000039 92   
     117 00003a C975          MOV AR1, port(*AR3(short(#2))) ; |75| 
         00003c 9A   
     118                      .dwpsn  file "../c5535_bsl_revc/ezdsp5535_v1/c55xx_csl/src/csl_i2c.c",line 79,column 4,is_stmt
     119 00003d ED31          MOV dbl(*(#_i2cHandle)), XAR3
         00003f BF00 
         000041 0010-
     120 000043 AB73          MOV *AR3(short(#1)), AR3 ; |79| 
     121 000045 A979          MOV port(*AR3(short(#4))), AR1 ; |79| 
         000047 99   
     122 000048 ED31          MOV dbl(*(#_i2cHandle)), XAR3
         00004a BF00 
         00004c 0010-
     123 00004e AB73          MOV *AR3(short(#1)), AR3 ; |79| 
     124 000050 3C00          MOV #0, AC0 ; |79| 
     125 000052 EC0A          BSET @#5, AC0 ; |79| 
         000054 00   
     126 000055 C079          MOV AC0, port(*AR3(short(#4))) ; |79| 
         000057 9A   
     127                      .dwpsn  file "../c5535_bsl_revc/ezdsp5535_v1/c55xx_csl/src/csl_i2c.c",line 82,column 4,is_stmt
     128 000058 ED31          MOV dbl(*(#_i2cHandle)), XAR3
         00005a BF00 
         00005c 0010-
     129 00005e AB73          MOV *AR3(short(#1)), AR3 ; |82| 
     130 000060 A97B          MOV port(*AR3(short(#5))), AR1 ; |82| 
         000062 99   
     131 000063 ED31          MOV dbl(*(#_i2cHandle)), XAR3
         000065 BF00 
         000067 0010-
     132 000069 AB73          MOV *AR3(short(#1)), AR3 ; |82| 
     133 00006b EC00          BCLR @#0, AR1 ; |82| 
         00006d 92   
     134 00006e EC00          BSET @#0, AR1 ; |82| 
TMS320C55x Assembler PC v4.4.1 Sun Sep 16 02:56:35 2018

Tools Copyright (c) 1996-2012 Texas Instruments Incorporated
csl_i2c.asm                                                          PAGE    4

         000070 90   
     135 000071 C97B          MOV AR1, port(*AR3(short(#5))) ; |82| 
         000073 9A   
     136                      .dwpsn  file "../c5535_bsl_revc/ezdsp5535_v1/c55xx_csl/src/csl_i2c.c",line 85,column 8,is_stmt
     137 000074 E604          MOV #0, *SP(#2) ; |85| 
         000076 00   
     138 000077 20            NOP
     139 000078 20            NOP
     140                      .dwpsn  file "../c5535_bsl_revc/ezdsp5535_v1/c55xx_csl/src/csl_i2c.c",line 85,column 20,is_stmt
     141 000079 7601          MOV #500, AR2 ; |85| 
         00007b F4A8 
     142 00007d A904          MOV *SP(#2), AR1 ; |85| 
     143 00007f 1298          CMPU AR1 >= AR2, TC1 ; |85| 
         000081 A4   
     144 000082 0464          BCC $C$L5,TC1 ; |85| 
         000084 1E   
     145                                                      ; branchcc occurs ; |85| 
     146 000085       $C$L2:    
     147 000085       $C$DW$L$_I2C_init$4$B:
     148                      .dwpsn  file "../c5535_bsl_revc/ezdsp5535_v1/c55xx_csl/src/csl_i2c.c",line 85,column 50,is_stmt
     149 000085 F704          ADD #1, *SP(#2) ; |85| 
         000087 0001 
     150 000089 20            NOP
     151 00008a 20            NOP
     152 00008b 20            NOP
     153                      .dwpsn  file "../c5535_bsl_revc/ezdsp5535_v1/c55xx_csl/src/csl_i2c.c",line 85,column 20,is_stmt
     154 00008c A904          MOV *SP(#2), AR1 ; |85| 
     155 00008e 1294          CMPU AR1 < AR2, TC1 ; |85| 
         000090 A4   
     156 000091 0464          BCC $C$L2,TC1 ; |85| 
         000093 F1   
     157                                                      ; branchcc occurs ; |85| 
     158 000094       $C$DW$L$_I2C_init$4$E:
     159                      .dwpsn  file "../c5535_bsl_revc/ezdsp5535_v1/c55xx_csl/src/csl_i2c.c",line 88,column 12,is_stmt
     160 000094 4A0D          B $C$L5   ; |88| 
     161                                                      ; branch occurs ; |88| 
     162 000096       $C$L3:    
     163                      .dwpsn  file "../c5535_bsl_revc/ezdsp5535_v1/c55xx_csl/src/csl_i2c.c",line 91,column 4,is_stmt
     164 000096 E602          MOV #-6, *SP(#1) ; |91| 
         000098 FA   
     165                      .dwpsn  file "../c5535_bsl_revc/ezdsp5535_v1/c55xx_csl/src/csl_i2c.c",line 92,column 9,is_stmt
     166 000099 4A08          B $C$L5   ; |92| 
     167                                                      ; branch occurs ; |92| 
     168 00009b       $C$L4:    
     169                      .dwpsn  file "../c5535_bsl_revc/ezdsp5535_v1/c55xx_csl/src/csl_i2c.c",line 67,column 2,is_stmt
     170 00009b A900          MOV *SP(#0), AR1 ; |67| 
     171 00009d 6D09          BCC $C$L1,AR1 == #0 ; |67| 
         00009f FF69 
     172                                                      ; branchcc occurs ; |67| 
     173 0000a1 4A73          B $C$L3   ; |67| 
     174                                                      ; branch occurs ; |67| 
     175 0000a3       $C$L5:    
     176                      .dwpsn  file "../c5535_bsl_revc/ezdsp5535_v1/c55xx_csl/src/csl_i2c.c",line 95,column 2,is_stmt
     177 0000a3 A402          MOV *SP(#1), T0 ; |95| 
     178                      .dwpsn  file "../c5535_bsl_revc/ezdsp5535_v1/c55xx_csl/src/csl_i2c.c",line 96,column 1,is_stmt
TMS320C55x Assembler PC v4.4.1 Sun Sep 16 02:56:35 2018

Tools Copyright (c) 1996-2012 Texas Instruments Incorporated
csl_i2c.asm                                                          PAGE    5

     179 0000a5 4E03          AADD #3, SP
     180                      .dwcfi  cfa_offset, 1
     181              $C$DW$8 .dwtag  DW_TAG_TI_branch
     182                      .dwattr $C$DW$8, DW_AT_low_pc(0x00)
     183                      .dwattr $C$DW$8, DW_AT_TI_return
     184 0000a7 4804          RET
     185                                                      ; return occurs
     186              
     187              $C$DW$9 .dwtag  DW_TAG_TI_loop
     188                      .dwattr $C$DW$9, DW_AT_name("F:\eZdsp_DBG\eZDSP_5535_Files\ccsws2\test\Debug\csl_i2c.asm:$C$L2:1:1537
     189                      .dwattr $C$DW$9, DW_AT_TI_begin_file("../c5535_bsl_revc/ezdsp5535_v1/c55xx_csl/src/csl_i2c.c")
     190                      .dwattr $C$DW$9, DW_AT_TI_begin_line(0x55)
     191                      .dwattr $C$DW$9, DW_AT_TI_end_line(0x56)
     192              $C$DW$10        .dwtag  DW_TAG_TI_loop_range
     193                      .dwattr $C$DW$10, DW_AT_low_pc($C$DW$L$_I2C_init$4$B)
     194                      .dwattr $C$DW$10, DW_AT_high_pc($C$DW$L$_I2C_init$4$E)
     195                      .dwendtag $C$DW$9
     196              
     197                      .dwattr $C$DW$3, DW_AT_TI_end_file("../c5535_bsl_revc/ezdsp5535_v1/c55xx_csl/src/csl_i2c.c")
     198                      .dwattr $C$DW$3, DW_AT_TI_end_line(0x60)
     199                      .dwattr $C$DW$3, DW_AT_TI_end_column(0x01)
     200                      .dwendentry
     201                      .dwendtag $C$DW$3
     202              
     203 0000a9               .sect   ".text"
     204                      .align 4
     205                      .global _I2C_config
     206              
     207              $C$DW$11        .dwtag  DW_TAG_subprogram, DW_AT_name("I2C_config")
     208                      .dwattr $C$DW$11, DW_AT_low_pc(_I2C_config)
     209                      .dwattr $C$DW$11, DW_AT_high_pc(0x00)
     210                      .dwattr $C$DW$11, DW_AT_TI_symbol_name("_I2C_config")
     211                      .dwattr $C$DW$11, DW_AT_external
     212                      .dwattr $C$DW$11, DW_AT_type(*$C$DW$T$69)
     213                      .dwattr $C$DW$11, DW_AT_TI_begin_file("../c5535_bsl_revc/ezdsp5535_v1/c55xx_csl/src/csl_i2c.c")
     214                      .dwattr $C$DW$11, DW_AT_TI_begin_line(0x91)
     215                      .dwattr $C$DW$11, DW_AT_TI_begin_column(0x0c)
     216                      .dwattr $C$DW$11, DW_AT_TI_max_frame_size(0x04)
     217                      .dwpsn  file "../c5535_bsl_revc/ezdsp5535_v1/c55xx_csl/src/csl_i2c.c",line 146,column 1,is_stmt,addre
     218              
     219                      .dwfde $C$DW$CIE, _I2C_config
     220              $C$DW$12        .dwtag  DW_TAG_formal_parameter, DW_AT_name("i2cConfig")
     221                      .dwattr $C$DW$12, DW_AT_TI_symbol_name("_i2cConfig")
     222                      .dwattr $C$DW$12, DW_AT_type(*$C$DW$T$55)
     223                      .dwattr $C$DW$12, DW_AT_location[DW_OP_reg17]
     224              ;*******************************************************************************
     225              ;* FUNCTION NAME: I2C_config                                                   *
     226              ;*                                                                             *
     227              ;*   Function Uses Regs : AC0,AC0,T0,AR0,XAR0,AR1,AR2,AR3,XAR3,SP,M40,SATA,    *
     228              ;*                        SATD,RDM,FRCT,SMUL                                   *
     229              ;*   Stack Frame        : Compact (No Frame Pointer, w/ debug)                 *
     230              ;*   Total Frame Size   : 4 words                                              *
     231              ;*                        (2 return address/alignment)                         *
     232              ;*                        (2 local values)                                     *
     233              ;*   Min System Stack   : 1 word                                               *
TMS320C55x Assembler PC v4.4.1 Sun Sep 16 02:56:35 2018

Tools Copyright (c) 1996-2012 Texas Instruments Incorporated
csl_i2c.asm                                                          PAGE    6

     234              ;*******************************************************************************
     235 0000ac       _I2C_config:
     236                      .dwcfi  cfa_offset, 1
     237                      .dwcfi  save_reg_to_mem, 91, -1
     238 0000ac 4EFD          AADD #-3, SP
     239                      .dwcfi  cfa_offset, 4
     240              $C$DW$13        .dwtag  DW_TAG_variable, DW_AT_name("i2cConfig")
     241                      .dwattr $C$DW$13, DW_AT_TI_symbol_name("_i2cConfig")
     242                      .dwattr $C$DW$13, DW_AT_type(*$C$DW$T$55)
     243                      .dwattr $C$DW$13, DW_AT_location[DW_OP_bregx 0x24 0]
     244 0000ae EB00          MOV XAR0, dbl(*SP(#0))
         0000b0 85   
     245                      .dwpsn  file "../c5535_bsl_revc/ezdsp5535_v1/c55xx_csl/src/csl_i2c.c",line 148,column 2,is_stmt
     246 0000b1 ED00          MOV dbl(*SP(#0)), XAR3
         0000b3 BF   
     247 0000b4 90B0          MOV XAR3, AC0
     248 0000b6 6D00          BCC $C$L6,AC0 == #0 ; |148| 
         0000b8 014D 
     249                                                      ; branchcc occurs ; |148| 
     250                      .dwpsn  file "../c5535_bsl_revc/ezdsp5535_v1/c55xx_csl/src/csl_i2c.c",line 151,column 3,is_stmt
     251 0000ba ED31          MOV dbl(*(#_i2cHandle)), XAR3
         0000bc BF00 
         0000be 0010-
     252 0000c0 AB61          MOV *AR3, AR3 ; |151| 
     253 0000c2 A961          MOV port(*AR3), AR1 ; |151| 
         0000c4 99   
     254 0000c5 ED00          MOV dbl(*SP(#0)), XAR3
         0000c7 BF   
     255 0000c8 7DFC          AND #0xfc00, AR1, AR2 ; |151| 
         0000ca 00A9 
     256 0000cc A961          MOV *AR3, AR1 ; |151| 
     257 0000ce ED31          MOV dbl(*(#_i2cHandle)), XAR3
         0000d0 BF00 
         0000d2 0010-
     258 0000d4 AB61          MOV *AR3, AR3 ; |151| 
     259 0000d6 7D03          AND #0x03ff, AR1, AR1 ; |151| 
         0000d8 FF99 
     260 0000da 2AA9          OR AR2, AR1 ; |151| 
     261 0000dc C961          MOV AR1, port(*AR3) ; |151| 
         0000de 9A   
     262                      .dwpsn  file "../c5535_bsl_revc/ezdsp5535_v1/c55xx_csl/src/csl_i2c.c",line 155,column 3,is_stmt
     263 0000df ED31          MOV dbl(*(#_i2cHandle)), XAR3
         0000e1 BF00 
         0000e3 0010-
     264 0000e5 AB61          MOV *AR3, AR3 ; |155| 
     265 0000e7 A979          MOV port(*AR3(short(#4))), AR1 ; |155| 
         0000e9 99   
     266 0000ea ED00          MOV dbl(*SP(#0)), XAR3
         0000ec BF   
     267 0000ed 7DFF          AND #0xff80, AR1, AR2 ; |155| 
         0000ef 80A9 
     268 0000f1 A973          MOV *AR3(short(#1)), AR1 ; |155| 
     269 0000f3 ED31          MOV dbl(*(#_i2cHandle)), XAR3
         0000f5 BF00 
         0000f7 0010-
TMS320C55x Assembler PC v4.4.1 Sun Sep 16 02:56:35 2018

Tools Copyright (c) 1996-2012 Texas Instruments Incorporated
csl_i2c.asm                                                          PAGE    7

     270 0000f9 AB61          MOV *AR3, AR3 ; |155| 
     271 0000fb 187F          AND #0x007f, AR1, AR1 ; |155| 
         0000fd 99   
     272 0000fe 2AA9          OR AR2, AR1 ; |155| 
     273 000100 C979          MOV AR1, port(*AR3(short(#4))) ; |155| 
         000102 9A   
     274                      .dwpsn  file "../c5535_bsl_revc/ezdsp5535_v1/c55xx_csl/src/csl_i2c.c",line 159,column 3,is_stmt
     275 000103 ED31          MOV dbl(*(#_i2cHandle)), XAR3
         000105 BF00 
         000107 0010-
     276 000109 AB61          MOV *AR3, AR3 ; |159| 
     277 00010b 1408          AMOV #8, T0
         00010d 45   
     278 00010e FB6B          MOV #65535, port(*AR3(T0)) ; |159| 
         000110 FFFF 
         000112 9A   
     279                      .dwpsn  file "../c5535_bsl_revc/ezdsp5535_v1/c55xx_csl/src/csl_i2c.c",line 162,column 3,is_stmt
     280 000113 ED31          MOV dbl(*(#_i2cHandle)), XAR3
         000115 BF00 
         000117 0010-
     281 000119 AB61          MOV *AR3, AR3 ; |162| 
     282 00011b 140C          AMOV #12, T0
         00011d 45   
     283 00011e A96B          MOV port(*AR3(T0)), AR1 ; |162| 
         000120 99   
     284 000121 ED00          MOV dbl(*SP(#0)), XAR3
         000123 BF   
     285 000124 A975          MOV *AR3(short(#2)), AR1 ; |162| 
     286 000126 ED31          MOV dbl(*(#_i2cHandle)), XAR3
         000128 BF00 
         00012a 0010-
     287 00012c AB61          MOV *AR3, AR3 ; |162| 
     288 00012e 1A00          OR #0x0000, AR1, AR1 ; |162| 
         000130 99   
     289 000131 C96B          MOV AR1, port(*AR3(T0)) ; |162| 
         000133 9A   
     290                      .dwpsn  file "../c5535_bsl_revc/ezdsp5535_v1/c55xx_csl/src/csl_i2c.c",line 166,column 3,is_stmt
     291 000134 ED31          MOV dbl(*(#_i2cHandle)), XAR3
         000136 BF00 
         000138 0010-
     292 00013a 7600          MOV #16, T0 ; |166| 
         00013c 1048 
     293 00013e AB61          MOV *AR3, AR3 ; |166| 
     294 000140 A96B          MOV port(*AR3(T0)), AR1 ; |166| 
         000142 99   
     295 000143 ED00          MOV dbl(*SP(#0)), XAR3
         000145 BF   
     296 000146 A977          MOV *AR3(short(#3)), AR1 ; |166| 
     297 000148 ED31          MOV dbl(*(#_i2cHandle)), XAR3
         00014a BF00 
         00014c 0010-
     298 00014e AB61          MOV *AR3, AR3 ; |166| 
     299 000150 1A00          OR #0x0000, AR1, AR1 ; |166| 
         000152 99   
     300 000153 C96B          MOV AR1, port(*AR3(T0)) ; |166| 
TMS320C55x Assembler PC v4.4.1 Sun Sep 16 02:56:35 2018

Tools Copyright (c) 1996-2012 Texas Instruments Incorporated
csl_i2c.asm                                                          PAGE    8

         000155 9A   
     301                      .dwpsn  file "../c5535_bsl_revc/ezdsp5535_v1/c55xx_csl/src/csl_i2c.c",line 170,column 3,is_stmt
     302 000156 ED31          MOV dbl(*(#_i2cHandle)), XAR3
         000158 BF00 
         00015a 0010-
     303 00015c 7600          MOV #20, T0 ; |170| 
         00015e 1448 
     304 000160 AB61          MOV *AR3, AR3 ; |170| 
     305 000162 A96B          MOV port(*AR3(T0)), AR1 ; |170| 
         000164 99   
     306 000165 ED00          MOV dbl(*SP(#0)), XAR3
         000167 BF   
     307 000168 A979          MOV *AR3(short(#4)), AR1 ; |170| 
     308 00016a ED31          MOV dbl(*(#_i2cHandle)), XAR3
         00016c BF00 
         00016e 0010-
     309 000170 AB61          MOV *AR3, AR3 ; |170| 
     310 000172 1A00          OR #0x0000, AR1, AR1 ; |170| 
         000174 99   
     311 000175 C96B          MOV AR1, port(*AR3(T0)) ; |170| 
         000177 9A   
     312                      .dwpsn  file "../c5535_bsl_revc/ezdsp5535_v1/c55xx_csl/src/csl_i2c.c",line 173,column 3,is_stmt
     313 000178 ED31          MOV dbl(*(#_i2cHandle)), XAR3
         00017a BF00 
         00017c 0010-
     314 00017e 7600          MOV #28, T0 ; |173| 
         000180 1C48 
     315 000182 AB61          MOV *AR3, AR3 ; |173| 
     316 000184 A96B          MOV port(*AR3(T0)), AR1 ; |173| 
         000186 99   
     317 000187 ED00          MOV dbl(*SP(#0)), XAR3
         000189 BF   
     318 00018a 7DFC          AND #0xfc00, AR1, AR2 ; |173| 
         00018c 00A9 
     319 00018e A97B          MOV *AR3(short(#5)), AR1 ; |173| 
     320 000190 ED31          MOV dbl(*(#_i2cHandle)), XAR3
         000192 BF00 
         000194 0010-
     321 000196 AB61          MOV *AR3, AR3 ; |173| 
     322 000198 7D03          AND #0x03ff, AR1, AR1 ; |173| 
         00019a FF99 
     323 00019c 2AA9          OR AR2, AR1 ; |173| 
     324 00019e C96B          MOV AR1, port(*AR3(T0)) ; |173| 
         0001a0 9A   
     325                      .dwpsn  file "../c5535_bsl_revc/ezdsp5535_v1/c55xx_csl/src/csl_i2c.c",line 176,column 3,is_stmt
     326 0001a1 ED31          MOV dbl(*(#_i2cHandle)), XAR3
         0001a3 BF00 
         0001a5 0010-
     327 0001a7 7600          MOV #48, T0 ; |176| 
         0001a9 3048 
     328 0001ab AB61          MOV *AR3, AR3 ; |176| 
     329 0001ad A96B          MOV port(*AR3(T0)), AR1 ; |176| 
         0001af 99   
     330 0001b0 ED00          MOV dbl(*SP(#0)), XAR3
         0001b2 BF   
TMS320C55x Assembler PC v4.4.1 Sun Sep 16 02:56:35 2018

Tools Copyright (c) 1996-2012 Texas Instruments Incorporated
csl_i2c.asm                                                          PAGE    9

     331 0001b3 7DFF          AND #0xff00, AR1, AR2 ; |176| 
         0001b5 00A9 
     332 0001b7 DF6D          MOV uns(low_byte(*AR3(#8))), AR1 ; |176| 
         0001b9 9300 
         0001bb 08   
     333 0001bc ED31          MOV dbl(*(#_i2cHandle)), XAR3
         0001be BF00 
         0001c0 0010-
     334 0001c2 AB61          MOV *AR3, AR3 ; |176| 
     335 0001c4 2AA9          OR AR2, AR1 ; |176| 
     336 0001c6 C96B          MOV AR1, port(*AR3(T0)) ; |176| 
         0001c8 9A   
     337                      .dwpsn  file "../c5535_bsl_revc/ezdsp5535_v1/c55xx_csl/src/csl_i2c.c",line 179,column 3,is_stmt
     338 0001c9 ED31          MOV dbl(*(#_i2cHandle)), XAR3
         0001cb BF00 
         0001cd 0010-
     339 0001cf 7600          MOV #44, T0 ; |179| 
         0001d1 2C48 
     340 0001d3 AB61          MOV *AR3, AR3 ; |179| 
     341 0001d5 A96B          MOV port(*AR3(T0)), AR1 ; |179| 
         0001d7 99   
     342 0001d8 ED00          MOV dbl(*SP(#0)), XAR3
         0001da BF   
     343 0001db 7DFF          AND #0xfffc, AR1, AR2 ; |179| 
         0001dd FCA9 
     344 0001df A97F          MOV *AR3(short(#7)), AR1 ; |179| 
     345 0001e1 ED31          MOV dbl(*(#_i2cHandle)), XAR3
         0001e3 BF00 
         0001e5 0010-
     346 0001e7 AB61          MOV *AR3, AR3 ; |179| 
     347 0001e9 1803          AND #0x0003, AR1, AR1 ; |179| 
         0001eb 99   
     348 0001ec 2AA9          OR AR2, AR1 ; |179| 
     349 0001ee C96B          MOV AR1, port(*AR3(T0)) ; |179| 
         0001f0 9A   
     350                      .dwpsn  file "../c5535_bsl_revc/ezdsp5535_v1/c55xx_csl/src/csl_i2c.c",line 183,column 3,is_stmt
     351 0001f1 ED00          MOV dbl(*SP(#0)), XAR3
         0001f3 BF   
     352 0001f4 A97D          MOV *AR3(short(#6)), AR1 ; |183| 
     353 0001f6 ED31          MOV dbl(*(#_i2cHandle)), XAR3
         0001f8 BF00 
         0001fa 0010-
     354 0001fc 7600          MOV #36, T0 ; |183| 
         0001fe 2448 
     355 000200 AB61          MOV *AR3, AR3 ; |183| 
     356 000202 C96B          MOV AR1, port(*AR3(T0)) ; |183| 
         000204 9A   
     357                      .dwpsn  file "../c5535_bsl_revc/ezdsp5535_v1/c55xx_csl/src/csl_i2c.c",line 184,column 2,is_stmt
     358 000205 4A04          B $C$L7   ; |184| 
     359                                                      ; branch occurs ; |184| 
     360 000207       $C$L6:    
     361                      .dwpsn  file "../c5535_bsl_revc/ezdsp5535_v1/c55xx_csl/src/csl_i2c.c",line 187,column 3,is_stmt
     362 000207 3E64          MOV #-6, T0
     363 000209 4A02          B $C$L8   ; |187| 
     364                                                      ; branch occurs ; |187| 
TMS320C55x Assembler PC v4.4.1 Sun Sep 16 02:56:35 2018

Tools Copyright (c) 1996-2012 Texas Instruments Incorporated
csl_i2c.asm                                                          PAGE   10

     365 00020b       $C$L7:    
     366                      .dwpsn  file "../c5535_bsl_revc/ezdsp5535_v1/c55xx_csl/src/csl_i2c.c",line 190,column 2,is_stmt
     367 00020b 3C04          MOV #0, T0
     368 00020d       $C$L8:    
     369                      .dwpsn  file "../c5535_bsl_revc/ezdsp5535_v1/c55xx_csl/src/csl_i2c.c",line 191,column 1,is_stmt
     370 00020d 4E03          AADD #3, SP
     371                      .dwcfi  cfa_offset, 1
     372              $C$DW$14        .dwtag  DW_TAG_TI_branch
     373                      .dwattr $C$DW$14, DW_AT_low_pc(0x00)
     374                      .dwattr $C$DW$14, DW_AT_TI_return
     375 00020f 4804          RET
     376                                                      ; return occurs
     377                      .dwattr $C$DW$11, DW_AT_TI_end_file("../c5535_bsl_revc/ezdsp5535_v1/c55xx_csl/src/csl_i2c.c")
     378                      .dwattr $C$DW$11, DW_AT_TI_end_line(0xbf)
     379                      .dwattr $C$DW$11, DW_AT_TI_end_column(0x01)
     380                      .dwendentry
     381                      .dwendtag $C$DW$11
     382              
     383 000211               .sect   ".text"
     384                      .align 4
     385                      .global _I2C_getConfig
     386              
     387              $C$DW$15        .dwtag  DW_TAG_subprogram, DW_AT_name("I2C_getConfig")
     388                      .dwattr $C$DW$15, DW_AT_low_pc(_I2C_getConfig)
     389                      .dwattr $C$DW$15, DW_AT_high_pc(0x00)
     390                      .dwattr $C$DW$15, DW_AT_TI_symbol_name("_I2C_getConfig")
     391                      .dwattr $C$DW$15, DW_AT_external
     392                      .dwattr $C$DW$15, DW_AT_type(*$C$DW$T$69)
     393                      .dwattr $C$DW$15, DW_AT_TI_begin_file("../c5535_bsl_revc/ezdsp5535_v1/c55xx_csl/src/csl_i2c.c")
     394                      .dwattr $C$DW$15, DW_AT_TI_begin_line(0xf3)
     395                      .dwattr $C$DW$15, DW_AT_TI_begin_column(0x0c)
     396                      .dwattr $C$DW$15, DW_AT_TI_max_frame_size(0x04)
     397                      .dwpsn  file "../c5535_bsl_revc/ezdsp5535_v1/c55xx_csl/src/csl_i2c.c",line 244,column 1,is_stmt,addre
     398              
     399                      .dwfde $C$DW$CIE, _I2C_getConfig
     400              $C$DW$16        .dwtag  DW_TAG_formal_parameter, DW_AT_name("i2cgetConfig")
     401                      .dwattr $C$DW$16, DW_AT_TI_symbol_name("_i2cgetConfig")
     402                      .dwattr $C$DW$16, DW_AT_type(*$C$DW$T$55)
     403                      .dwattr $C$DW$16, DW_AT_location[DW_OP_reg17]
     404              ;*******************************************************************************
     405              ;* FUNCTION NAME: I2C_getConfig                                                *
     406              ;*                                                                             *
     407              ;*   Function Uses Regs : AC0,AC0,T0,AR0,XAR0,AR1,AR3,XAR3,SP,M40,SATA,SATD,   *
     408              ;*                        RDM,FRCT,SMUL                                        *
     409              ;*   Stack Frame        : Compact (No Frame Pointer, w/ debug)                 *
     410              ;*   Total Frame Size   : 4 words                                              *
     411              ;*                        (2 return address/alignment)                         *
     412              ;*                        (2 local values)                                     *
     413              ;*   Min System Stack   : 1 word                                               *
     414              ;*******************************************************************************
     415 000214       _I2C_getConfig:
     416                      .dwcfi  cfa_offset, 1
     417                      .dwcfi  save_reg_to_mem, 91, -1
     418 000214 4EFD          AADD #-3, SP
     419                      .dwcfi  cfa_offset, 4
TMS320C55x Assembler PC v4.4.1 Sun Sep 16 02:56:35 2018

Tools Copyright (c) 1996-2012 Texas Instruments Incorporated
csl_i2c.asm                                                          PAGE   11

     420              $C$DW$17        .dwtag  DW_TAG_variable, DW_AT_name("i2cgetConfig")
     421                      .dwattr $C$DW$17, DW_AT_TI_symbol_name("_i2cgetConfig")
     422                      .dwattr $C$DW$17, DW_AT_type(*$C$DW$T$55)
     423                      .dwattr $C$DW$17, DW_AT_location[DW_OP_bregx 0x24 0]
     424 000216 EB00          MOV XAR0, dbl(*SP(#0))
         000218 85   
     425                      .dwpsn  file "../c5535_bsl_revc/ezdsp5535_v1/c55xx_csl/src/csl_i2c.c",line 246,column 2,is_stmt
     426 000219 ED00          MOV dbl(*SP(#0)), XAR3
         00021b BF   
     427 00021c 90B0          MOV XAR3, AC0
     428 00021e 6D00          BCC $C$L9,AC0 == #0 ; |246| 
         000220 00BE 
     429                                                      ; branchcc occurs ; |246| 
     430                      .dwpsn  file "../c5535_bsl_revc/ezdsp5535_v1/c55xx_csl/src/csl_i2c.c",line 249,column 3,is_stmt
     431 000222 ED31          MOV dbl(*(#_i2cHandle)), XAR3
         000224 BF00 
         000226 0010-
     432 000228 AB61          MOV *AR3, AR3 ; |249| 
     433 00022a A961          MOV port(*AR3), AR1 ; |249| 
         00022c 99   
     434 00022d ED00          MOV dbl(*SP(#0)), XAR3
         00022f BF   
     435 000230 7D03          AND #0x03ff, AR1, AC0 ; |249| 
         000232 FF09 
     436 000234 C061          MOV AC0, *AR3 ; |249| 
     437                      .dwpsn  file "../c5535_bsl_revc/ezdsp5535_v1/c55xx_csl/src/csl_i2c.c",line 253,column 3,is_stmt
     438 000236 ED31          MOV dbl(*(#_i2cHandle)), XAR3
         000238 BF00 
         00023a 0010-
     439 00023c AB61          MOV *AR3, AR3 ; |253| 
     440 00023e A979          MOV port(*AR3(short(#4))), AR1 ; |253| 
         000240 99   
     441 000241 ED00          MOV dbl(*SP(#0)), XAR3
         000243 BF   
     442 000244 187F          AND #0x007f, AR1, AC0 ; |253| 
         000246 09   
     443 000247 C073          MOV AC0, *AR3(short(#1)) ; |253| 
     444                      .dwpsn  file "../c5535_bsl_revc/ezdsp5535_v1/c55xx_csl/src/csl_i2c.c",line 258,column 3,is_stmt
     445 000249 ED31          MOV dbl(*(#_i2cHandle)), XAR3
         00024b BF00 
         00024d 0010-
     446 00024f AB61          MOV *AR3, AR3 ; |258| 
     447 000251 140C          AMOV #12, T0
         000253 45   
     448 000254 A96B          MOV port(*AR3(T0)), AR1 ; |258| 
         000256 99   
     449 000257 ED00          MOV dbl(*SP(#0)), XAR3
         000259 BF   
     450 00025a C975          MOV AR1, *AR3(short(#2)) ; |258| 
     451                      .dwpsn  file "../c5535_bsl_revc/ezdsp5535_v1/c55xx_csl/src/csl_i2c.c",line 262,column 3,is_stmt
     452 00025c ED31          MOV dbl(*(#_i2cHandle)), XAR3
         00025e BF00 
         000260 0010-
     453 000262 7600          MOV #16, T0 ; |262| 
         000264 1048 
TMS320C55x Assembler PC v4.4.1 Sun Sep 16 02:56:35 2018

Tools Copyright (c) 1996-2012 Texas Instruments Incorporated
csl_i2c.asm                                                          PAGE   12

     454 000266 AB61          MOV *AR3, AR3 ; |262| 
     455 000268 A96B          MOV port(*AR3(T0)), AR1 ; |262| 
         00026a 99   
     456 00026b ED00          MOV dbl(*SP(#0)), XAR3
         00026d BF   
     457 00026e C977          MOV AR1, *AR3(short(#3)) ; |262| 
     458                      .dwpsn  file "../c5535_bsl_revc/ezdsp5535_v1/c55xx_csl/src/csl_i2c.c",line 266,column 3,is_stmt
     459 000270 ED31          MOV dbl(*(#_i2cHandle)), XAR3
         000272 BF00 
         000274 0010-
     460 000276 7600          MOV #20, T0 ; |266| 
         000278 1448 
     461 00027a AB61          MOV *AR3, AR3 ; |266| 
     462 00027c A96B          MOV port(*AR3(T0)), AR1 ; |266| 
         00027e 99   
     463 00027f ED00          MOV dbl(*SP(#0)), XAR3
         000281 BF   
     464 000282 C979          MOV AR1, *AR3(short(#4)) ; |266| 
     465                      .dwpsn  file "../c5535_bsl_revc/ezdsp5535_v1/c55xx_csl/src/csl_i2c.c",line 270,column 3,is_stmt
     466 000284 ED31          MOV dbl(*(#_i2cHandle)), XAR3
         000286 BF00 
         000288 0010-
     467 00028a 7600          MOV #28, T0 ; |270| 
         00028c 1C48 
     468 00028e AB61          MOV *AR3, AR3 ; |270| 
     469 000290 A96B          MOV port(*AR3(T0)), AR1 ; |270| 
         000292 99   
     470 000293 ED00          MOV dbl(*SP(#0)), XAR3
         000295 BF   
     471 000296 7D03          AND #0x03ff, AR1, AC0 ; |270| 
         000298 FF09 
     472 00029a C07B          MOV AC0, *AR3(short(#5)) ; |270| 
     473                      .dwpsn  file "../c5535_bsl_revc/ezdsp5535_v1/c55xx_csl/src/csl_i2c.c",line 274,column 3,is_stmt
     474 00029c ED31          MOV dbl(*(#_i2cHandle)), XAR3
         00029e BF00 
         0002a0 0010-
     475 0002a2 7600          MOV #36, T0 ; |274| 
         0002a4 2448 
     476 0002a6 AB61          MOV *AR3, AR3 ; |274| 
     477 0002a8 A96B          MOV port(*AR3(T0)), AR1 ; |274| 
         0002aa 99   
     478 0002ab ED00          MOV dbl(*SP(#0)), XAR3
         0002ad BF   
     479 0002ae C97D          MOV AR1, *AR3(short(#6)) ; |274| 
     480                      .dwpsn  file "../c5535_bsl_revc/ezdsp5535_v1/c55xx_csl/src/csl_i2c.c",line 277,column 3,is_stmt
     481 0002b0 ED31          MOV dbl(*(#_i2cHandle)), XAR3
         0002b2 BF00 
         0002b4 0010-
     482 0002b6 7600          MOV #44, T0 ; |277| 
         0002b8 2C48 
     483 0002ba AB61          MOV *AR3, AR3 ; |277| 
     484 0002bc A96B          MOV port(*AR3(T0)), AR1 ; |277| 
         0002be 99   
     485 0002bf ED00          MOV dbl(*SP(#0)), XAR3
         0002c1 BF   
TMS320C55x Assembler PC v4.4.1 Sun Sep 16 02:56:35 2018

Tools Copyright (c) 1996-2012 Texas Instruments Incorporated
csl_i2c.asm                                                          PAGE   13

     486 0002c2 1803          AND #0x0003, AR1, AC0 ; |277| 
         0002c4 09   
     487 0002c5 C07F          MOV AC0, *AR3(short(#7)) ; |277| 
     488                      .dwpsn  file "../c5535_bsl_revc/ezdsp5535_v1/c55xx_csl/src/csl_i2c.c",line 282,column 3,is_stmt
     489 0002c7 ED31          MOV dbl(*(#_i2cHandle)), XAR3
         0002c9 BF00 
         0002cb 0010-
     490 0002cd 7600          MOV #48, T0 ; |282| 
         0002cf 3048 
     491 0002d1 AB61          MOV *AR3, AR3 ; |282| 
     492 0002d3 DF6B          MOV uns(low_byte(port(*AR3(T0)))), AR1 ; |282| 
         0002d5 93   
         0002d6 99   
     493 0002d7 ED00          MOV dbl(*SP(#0)), XAR3
         0002d9 BF   
     494 0002da C96D          MOV AR1, *AR3(#8) ; |282| 
         0002dc 0008 
     495                      .dwpsn  file "../c5535_bsl_revc/ezdsp5535_v1/c55xx_csl/src/csl_i2c.c",line 284,column 2,is_stmt
     496 0002de 4A04          B $C$L10  ; |284| 
     497                                                      ; branch occurs ; |284| 
     498 0002e0       $C$L9:    
     499                      .dwpsn  file "../c5535_bsl_revc/ezdsp5535_v1/c55xx_csl/src/csl_i2c.c",line 287,column 3,is_stmt
     500 0002e0 3E64          MOV #-6, T0
     501 0002e2 4A02          B $C$L11  ; |287| 
     502                                                      ; branch occurs ; |287| 
     503 0002e4       $C$L10:    
     504                      .dwpsn  file "../c5535_bsl_revc/ezdsp5535_v1/c55xx_csl/src/csl_i2c.c",line 290,column 2,is_stmt
     505 0002e4 3C04          MOV #0, T0
     506 0002e6       $C$L11:    
     507                      .dwpsn  file "../c5535_bsl_revc/ezdsp5535_v1/c55xx_csl/src/csl_i2c.c",line 291,column 1,is_stmt
     508 0002e6 4E03          AADD #3, SP
     509                      .dwcfi  cfa_offset, 1
     510              $C$DW$18        .dwtag  DW_TAG_TI_branch
     511                      .dwattr $C$DW$18, DW_AT_low_pc(0x00)
     512                      .dwattr $C$DW$18, DW_AT_TI_return
     513 0002e8 4804          RET
     514                                                      ; return occurs
     515                      .dwattr $C$DW$15, DW_AT_TI_end_file("../c5535_bsl_revc/ezdsp5535_v1/c55xx_csl/src/csl_i2c.c")
     516                      .dwattr $C$DW$15, DW_AT_TI_end_line(0x123)
     517                      .dwattr $C$DW$15, DW_AT_TI_end_column(0x01)
     518                      .dwendentry
     519                      .dwendtag $C$DW$15
     520              
     521 0002ea               .sect   ".text"
     522                      .align 4
     523                      .global _I2C_setup
     524              
     525              $C$DW$19        .dwtag  DW_TAG_subprogram, DW_AT_name("I2C_setup")
     526                      .dwattr $C$DW$19, DW_AT_low_pc(_I2C_setup)
     527                      .dwattr $C$DW$19, DW_AT_high_pc(0x00)
     528                      .dwattr $C$DW$19, DW_AT_TI_symbol_name("_I2C_setup")
     529                      .dwattr $C$DW$19, DW_AT_external
     530                      .dwattr $C$DW$19, DW_AT_type(*$C$DW$T$69)
     531                      .dwattr $C$DW$19, DW_AT_TI_begin_file("../c5535_bsl_revc/ezdsp5535_v1/c55xx_csl/src/csl_i2c.c")
     532                      .dwattr $C$DW$19, DW_AT_TI_begin_line(0x158)
TMS320C55x Assembler PC v4.4.1 Sun Sep 16 02:56:35 2018

Tools Copyright (c) 1996-2012 Texas Instruments Incorporated
csl_i2c.asm                                                          PAGE   14

     533                      .dwattr $C$DW$19, DW_AT_TI_begin_column(0x0c)
     534                      .dwattr $C$DW$19, DW_AT_TI_max_frame_size(0x06)
     535                      .dwpsn  file "../c5535_bsl_revc/ezdsp5535_v1/c55xx_csl/src/csl_i2c.c",line 345,column 1,is_stmt,addre
     536              
     537                      .dwfde $C$DW$CIE, _I2C_setup
     538              $C$DW$20        .dwtag  DW_TAG_formal_parameter, DW_AT_name("i2cSetup")
     539                      .dwattr $C$DW$20, DW_AT_TI_symbol_name("_i2cSetup")
     540                      .dwattr $C$DW$20, DW_AT_type(*$C$DW$T$65)
     541                      .dwattr $C$DW$20, DW_AT_location[DW_OP_reg17]
     542              ;*******************************************************************************
     543              ;* FUNCTION NAME: I2C_setup                                                    *
     544              ;*                                                                             *
     545              ;*   Function Uses Regs : AC0,AC0,AC1,AC1,AC2,AC2,T0,AR0,XAR0,AR1,AR2,AR3,XAR3,*
     546              ;*                        SP,CARRY,TC1,M40,SATA,SATD,RDM,FRCT,SMUL             *
     547              ;*   Stack Frame        : Compact (No Frame Pointer, w/ debug)                 *
     548              ;*   Total Frame Size   : 6 words                                              *
     549              ;*                        (1 return address/alignment)                         *
     550              ;*                        (5 local values)                                     *
     551              ;*   Min System Stack   : 1 word                                               *
     552              ;*******************************************************************************
     553 0002ec       _I2C_setup:
     554                      .dwcfi  cfa_offset, 1
     555                      .dwcfi  save_reg_to_mem, 91, -1
     556 0002ec 4EFB          AADD #-5, SP
     557                      .dwcfi  cfa_offset, 6
     558              $C$DW$21        .dwtag  DW_TAG_variable, DW_AT_name("i2cSetup")
     559                      .dwattr $C$DW$21, DW_AT_TI_symbol_name("_i2cSetup")
     560                      .dwattr $C$DW$21, DW_AT_type(*$C$DW$T$65)
     561                      .dwattr $C$DW$21, DW_AT_location[DW_OP_bregx 0x24 0]
     562              $C$DW$22        .dwtag  DW_TAG_variable, DW_AT_name("pscValue")
     563                      .dwattr $C$DW$22, DW_AT_TI_symbol_name("_pscValue")
     564                      .dwattr $C$DW$22, DW_AT_type(*$C$DW$T$19)
     565                      .dwattr $C$DW$22, DW_AT_location[DW_OP_bregx 0x24 2]
     566              $C$DW$23        .dwtag  DW_TAG_variable, DW_AT_name("clock")
     567                      .dwattr $C$DW$23, DW_AT_TI_symbol_name("_clock")
     568                      .dwattr $C$DW$23, DW_AT_type(*$C$DW$T$19)
     569                      .dwattr $C$DW$23, DW_AT_location[DW_OP_bregx 0x24 3]
     570              $C$DW$24        .dwtag  DW_TAG_variable, DW_AT_name("d")
     571                      .dwattr $C$DW$24, DW_AT_TI_symbol_name("_d")
     572                      .dwattr $C$DW$24, DW_AT_type(*$C$DW$T$19)
     573                      .dwattr $C$DW$24, DW_AT_location[DW_OP_bregx 0x24 4]
     574 0002ee EB00          MOV XAR0, dbl(*SP(#0))
         0002f0 85   
     575                      .dwpsn  file "../c5535_bsl_revc/ezdsp5535_v1/c55xx_csl/src/csl_i2c.c",line 350,column 2,is_stmt
     576 0002f1 ED00          MOV dbl(*SP(#0)), XAR3
         0002f3 BF   
     577 0002f4 90B0          MOV XAR3, AC0
     578 0002f6 6D00          BCC $C$L16,AC0 == #0 ; |350| 
         0002f8 01E2 
     579                                                      ; branchcc occurs ; |350| 
     580                      .dwpsn  file "../c5535_bsl_revc/ezdsp5535_v1/c55xx_csl/src/csl_i2c.c",line 353,column 3,is_stmt
     581 0002fa ED31          MOV dbl(*(#_i2cHandle)), XAR3
         0002fc BF00 
         0002fe 0010-
     582 000300 7600          MOV #36, T0 ; |353| 
TMS320C55x Assembler PC v4.4.1 Sun Sep 16 02:56:35 2018

Tools Copyright (c) 1996-2012 Texas Instruments Incorporated
csl_i2c.asm                                                          PAGE   15

         000302 2448 
     583 000304 AB61          MOV *AR3, AR3 ; |353| 
     584 000306 A96B          MOV port(*AR3(T0)), AR1 ; |353| 
         000308 99   
     585 000309 ED00          MOV dbl(*SP(#0)), XAR3
         00030b BF   
     586 00030c F961          MOV *AR3 << #8, AC0 ; |353| 
         00030e 0808 
     587 000310 ED31          MOV dbl(*(#_i2cHandle)), XAR3
         000312 BF00 
         000314 0010-
     588 000316 AB61          MOV *AR3, AR3 ; |353| 
     589 000318 EC10          BCLR @#8, AR1 ; |353| 
         00031a 92   
     590 00031b 7D01          AND #0x0100, AC0, AR2 ; |353| 
         00031d 00A0 
     591 00031f 2A9A          OR AR1, AR2 ; |353| 
     592 000321 CA6B          MOV AR2, port(*AR3(T0)) ; |353| 
         000323 9A   
     593                      .dwpsn  file "../c5535_bsl_revc/ezdsp5535_v1/c55xx_csl/src/csl_i2c.c",line 356,column 3,is_stmt
     594 000324 ED31          MOV dbl(*(#_i2cHandle)), XAR3
         000326 BF00 
         000328 0010-
     595 00032a AB61          MOV *AR3, AR3 ; |356| 
     596 00032c A96B          MOV port(*AR3(T0)), AR1 ; |356| 
         00032e 99   
     597 00032f ED00          MOV dbl(*SP(#0)), XAR3
         000331 BF   
     598 000332 7DFF          AND #0xfff8, AR1, AR2 ; |356| 
         000334 F8A9 
     599 000336 A973          MOV *AR3(short(#1)), AR1 ; |356| 
     600 000338 ED31          MOV dbl(*(#_i2cHandle)), XAR3
         00033a BF00 
         00033c 0010-
     601 00033e AB61          MOV *AR3, AR3 ; |356| 
     602 000340 1807          AND #0x0007, AR1, AR1 ; |356| 
         000342 99   
     603 000343 2AA9          OR AR2, AR1 ; |356| 
     604 000345 C96B          MOV AR1, port(*AR3(T0)) ; |356| 
         000347 9A   
     605                      .dwpsn  file "../c5535_bsl_revc/ezdsp5535_v1/c55xx_csl/src/csl_i2c.c",line 359,column 3,is_stmt
     606 000348 ED31          MOV dbl(*(#_i2cHandle)), XAR3
         00034a BF00 
         00034c 0010-
     607 00034e AB61          MOV *AR3, AR3 ; |359| 
     608 000350 A96B          MOV port(*AR3(T0)), AR1 ; |359| 
         000352 99   
     609 000353 ED00          MOV dbl(*SP(#0)), XAR3
         000355 BF   
     610 000356 F975          MOV *AR3(short(#2)) << #6, AC0 ; |359| 
         000358 0608 
     611 00035a ED31          MOV dbl(*(#_i2cHandle)), XAR3
         00035c BF00 
         00035e 0010-
     612 000360 AB61          MOV *AR3, AR3 ; |359| 
TMS320C55x Assembler PC v4.4.1 Sun Sep 16 02:56:35 2018

Tools Copyright (c) 1996-2012 Texas Instruments Incorporated
csl_i2c.asm                                                          PAGE   16

     613 000362 EC0C          BCLR @#6, AR1 ; |359| 
         000364 92   
     614 000365 1840          AND #0x0040, AC0, AR2 ; |359| 
         000367 A0   
     615 000368 2A9A          OR AR1, AR2 ; |359| 
     616 00036a CA6B          MOV AR2, port(*AR3(T0)) ; |359| 
         00036c 9A   
     617                      .dwpsn  file "../c5535_bsl_revc/ezdsp5535_v1/c55xx_csl/src/csl_i2c.c",line 362,column 3,is_stmt
     618 00036d ED31          MOV dbl(*(#_i2cHandle)), XAR3
         00036f BF00 
         000371 0010-
     619 000373 AB61          MOV *AR3, AR3 ; |362| 
     620 000375 A96B          MOV port(*AR3(T0)), AR1 ; |362| 
         000377 99   
     621 000378 ED00          MOV dbl(*SP(#0)), XAR3
         00037a BF   
     622 00037b F977          MOV *AR3(short(#3)) << #14, AC0 ; |362| 
         00037d 0E08 
     623 00037f ED31          MOV dbl(*(#_i2cHandle)), XAR3
         000381 BF00 
         000383 0010-
     624 000385 AB61          MOV *AR3, AR3 ; |362| 
     625 000387 EC1C          BCLR @#14, AR1 ; |362| 
         000389 92   
     626 00038a 7D40          AND #0x4000, AC0, AR2 ; |362| 
         00038c 00A0 
     627 00038e 2A9A          OR AR1, AR2 ; |362| 
     628 000390 CA6B          MOV AR2, port(*AR3(T0)) ; |362| 
         000392 9A   
     629                      .dwpsn  file "../c5535_bsl_revc/ezdsp5535_v1/c55xx_csl/src/csl_i2c.c",line 366,column 3,is_stmt
     630 000393 ED31          MOV dbl(*(#_i2cHandle)), XAR3
         000395 BF00 
         000397 0010-
     631 000399 AB61          MOV *AR3, AR3 ; |366| 
     632 00039b A96B          MOV port(*AR3(T0)), AR1 ; |366| 
         00039d 99   
     633 00039e ED00          MOV dbl(*SP(#0)), XAR3
         0003a0 BF   
     634 0003a1 F979          MOV *AR3(short(#4)) << #7, AC0 ; |366| 
         0003a3 0708 
     635 0003a5 ED31          MOV dbl(*(#_i2cHandle)), XAR3
         0003a7 BF00 
         0003a9 0010-
     636 0003ab AB61          MOV *AR3, AR3 ; |366| 
     637 0003ad EC0E          BCLR @#7, AR1 ; |366| 
         0003af 92   
     638 0003b0 1880          AND #0x0080, AC0, AR2 ; |366| 
         0003b2 A0   
     639 0003b3 2A9A          OR AR1, AR2 ; |366| 
     640 0003b5 CA6B          MOV AR2, port(*AR3(T0)) ; |366| 
         0003b7 9A   
     641                      .dwpsn  file "../c5535_bsl_revc/ezdsp5535_v1/c55xx_csl/src/csl_i2c.c",line 370,column 3,is_stmt
     642 0003b8 ED31          MOV dbl(*(#_i2cHandle)), XAR3
         0003ba BF00 
         0003bc 0010-
TMS320C55x Assembler PC v4.4.1 Sun Sep 16 02:56:35 2018

Tools Copyright (c) 1996-2012 Texas Instruments Incorporated
csl_i2c.asm                                                          PAGE   17

     643 0003be AB61          MOV *AR3, AR3 ; |370| 
     644 0003c0 A961          MOV port(*AR3), AR1 ; |370| 
         0003c2 99   
     645 0003c3 ED00          MOV dbl(*SP(#0)), XAR3
         0003c5 BF   
     646 0003c6 7DFC          AND #0xfc00, AR1, AR2 ; |370| 
         0003c8 00A9 
     647 0003ca A97B          MOV *AR3(short(#5)), AR1 ; |370| 
     648 0003cc ED31          MOV dbl(*(#_i2cHandle)), XAR3
         0003ce BF00 
         0003d0 0010-
     649 0003d2 AB61          MOV *AR3, AR3 ; |370| 
     650 0003d4 7D03          AND #0x03ff, AR1, AR1 ; |370| 
         0003d6 FF99 
     651 0003d8 2AA9          OR AR2, AR1 ; |370| 
     652 0003da C961          MOV AR1, port(*AR3) ; |370| 
         0003dc 9A   
     653                      .dwpsn  file "../c5535_bsl_revc/ezdsp5535_v1/c55xx_csl/src/csl_i2c.c",line 374,column 3,is_stmt
     654 0003dd ED00          MOV dbl(*SP(#0)), XAR3
         0003df BF   
     655 0003e0 ED7D          MOV dbl(*AR3(short(#6))), AC0 ; |374| 
         0003e2 08   
     656              $C$DW$25        .dwtag  DW_TAG_TI_branch
     657                      .dwattr $C$DW$25, DW_AT_low_pc(0x00)
     658                      .dwattr $C$DW$25, DW_AT_name("__divul")
     659                      .dwattr $C$DW$25, DW_AT_TI_call
     660              
     661 0003e3 6C00          CALL #__divul ; |374| 
         0003e5 0000!
     662 0003e7 3DC1  ||      MOV #12, AC1 ; |374| 
     663              
     664                                                      ; call occurs [#__divul] ; |374| 
     665 0003e9 C004          MOV AC0, *SP(#2) ; |374| 
     666                      .dwpsn  file "../c5535_bsl_revc/ezdsp5535_v1/c55xx_csl/src/csl_i2c.c",line 377,column 3,is_stmt
     667 0003eb ED00          MOV dbl(*SP(#0)), XAR3
         0003ed BF   
     668 0003ee ED7D          MOV dbl(*AR3(short(#6))), AC0 ; |377| 
         0003f0 08   
     669              $C$DW$26        .dwtag  DW_TAG_TI_branch
     670                      .dwattr $C$DW$26, DW_AT_low_pc(0x00)
     671                      .dwattr $C$DW$26, DW_AT_name("__remul")
     672                      .dwattr $C$DW$26, DW_AT_TI_call
     673              
     674 0003f1 6C00          CALL #__remul ; |377| 
         0003f3 0000!
     675 0003f5 3DC1  ||      MOV #12, AC1 ; |377| 
     676              
     677                                                      ; call occurs [#__remul] ; |377| 
     678 0003f7 DF04          MOV uns(*SP(#2)), AC1 ; |377| 
         0003f9 15   
     679 0003fa 1208          CMPU AC1 <= AC0, TC1 ; |377| 
         0003fc 14   
     680 0003fd 6264          BCC $C$L12,TC1 ; |377| 
     681                                                      ; branchcc occurs ; |377| 
     682                      .dwpsn  file "../c5535_bsl_revc/ezdsp5535_v1/c55xx_csl/src/csl_i2c.c",line 379,column 4,is_stmt
TMS320C55x Assembler PC v4.4.1 Sun Sep 16 02:56:35 2018

Tools Copyright (c) 1996-2012 Texas Instruments Incorporated
csl_i2c.asm                                                          PAGE   18

     683 0003ff F704          SUB #1, *SP(#2) ; |379| 
         000401 FFFF 
     684 000403       $C$L12:    
     685                      .dwpsn  file "../c5535_bsl_revc/ezdsp5535_v1/c55xx_csl/src/csl_i2c.c",line 382,column 3,is_stmt
     686 000403 A904          MOV *SP(#2), AR1 ; |382| 
     687 000405 6299          BCC $C$L13,AR1 != #0 ; |382| 
     688                                                      ; branchcc occurs ; |382| 
     689                      .dwpsn  file "../c5535_bsl_revc/ezdsp5535_v1/c55xx_csl/src/csl_i2c.c",line 384,column 4,is_stmt
     690 000407 E608          MOV #7, *SP(#4) ; |384| 
         000409 07   
     691                      .dwpsn  file "../c5535_bsl_revc/ezdsp5535_v1/c55xx_csl/src/csl_i2c.c",line 385,column 3,is_stmt
     692 00040a 4A0E          B $C$L15  ; |385| 
     693                                                      ; branch occurs ; |385| 
     694 00040c       $C$L13:    
     695                      .dwpsn  file "../c5535_bsl_revc/ezdsp5535_v1/c55xx_csl/src/csl_i2c.c",line 386,column 8,is_stmt
     696 00040c F004          CMP *SP(#2) == #1, TC1 ; |386| 
         00040e 0001 
     697 000410 62F4          BCC $C$L14,!TC1 ; |386| 
     698                                                      ; branchcc occurs ; |386| 
     699                      .dwpsn  file "../c5535_bsl_revc/ezdsp5535_v1/c55xx_csl/src/csl_i2c.c",line 388,column 4,is_stmt
     700 000412 E608          MOV #6, *SP(#4) ; |388| 
         000414 06   
     701                      .dwpsn  file "../c5535_bsl_revc/ezdsp5535_v1/c55xx_csl/src/csl_i2c.c",line 389,column 3,is_stmt
     702 000415 4A03          B $C$L15  ; |389| 
     703                                                      ; branch occurs ; |389| 
     704 000417       $C$L14:    
     705                      .dwpsn  file "../c5535_bsl_revc/ezdsp5535_v1/c55xx_csl/src/csl_i2c.c",line 392,column 4,is_stmt
     706 000417 E608          MOV #5, *SP(#4) ; |392| 
         000419 05   
     707 00041a       $C$L15:    
     708                      .dwpsn  file "../c5535_bsl_revc/ezdsp5535_v1/c55xx_csl/src/csl_i2c.c",line 395,column 3,is_stmt
     709 00041a ED31          MOV dbl(*(#_i2cHandle)), XAR3
         00041c BF00 
         00041e 0010-
     710 000420 7600          MOV #48, T0 ; |395| 
         000422 3048 
     711 000424 AB61          MOV *AR3, AR3 ; |395| 
     712 000426 A96B          MOV port(*AR3(T0)), AR1 ; |395| 
         000428 99   
     713 000429 ED31          MOV dbl(*(#_i2cHandle)), XAR3
         00042b BF00 
         00042d 0010-
     714 00042f AB61          MOV *AR3, AR3 ; |395| 
     715 000431 7DFF          AND #0xff00, AR1, AR2 ; |395| 
         000433 00A9 
     716 000435 DF04          MOV uns(low_byte(*SP(#2))), AR1 ; |395| 
         000437 93   
     717 000438 2AA9          OR AR2, AR1 ; |395| 
     718 00043a C96B          MOV AR1, port(*AR3(T0)) ; |395| 
         00043c 9A   
     719                      .dwpsn  file "../c5535_bsl_revc/ezdsp5535_v1/c55xx_csl/src/csl_i2c.c",line 398,column 3,is_stmt
     720 00043d ED00          MOV dbl(*SP(#0)), XAR3
         00043f BF   
     721 000440 ED7D          MOV dbl(*AR3(short(#6))), AC0 ; |398| 
         000442 08   
TMS320C55x Assembler PC v4.4.1 Sun Sep 16 02:56:35 2018

Tools Copyright (c) 1996-2012 Texas Instruments Incorporated
csl_i2c.asm                                                          PAGE   19

     722 000443 EC31          AMOV #1000000, XAR3 ; |398| 
         000445 BE0F 
         000447 4240 
     723 000449 90B1          MOV XAR3, AC1
     724              $C$DW$27        .dwtag  DW_TAG_TI_branch
     725                      .dwattr $C$DW$27, DW_AT_low_pc(0x00)
     726                      .dwattr $C$DW$27, DW_AT_name("__mpyli")
     727                      .dwattr $C$DW$27, DW_AT_TI_call
     728 00044b 6C00          CALL #__mpyli ; |398| 
         00044d 0000!
     729                                                      ; call occurs [#__mpyli] ; |398| 
     730 00044f ED00          MOV dbl(*SP(#0)), XAR3
         000451 BF   
     731 000452 A904          MOV *SP(#2), AR1 ; |398| 
     732              
     733 000454 4019          ADD #1, AR1 ; |398| 
     734 000456 1B00  ||      OR #0, AC0, AC2
         000458 20   
     735              
     736 000459 7DFF          AND #0xffff, AR1, AC0 ; |398| 
         00045b FF09 
     737 00045d ED6D          MOV dbl(*AR3(#8)), AC1 ; |398| 
         00045f 1800 
         000461 08   
     738              $C$DW$28        .dwtag  DW_TAG_TI_branch
     739                      .dwattr $C$DW$28, DW_AT_low_pc(0x00)
     740                      .dwattr $C$DW$28, DW_AT_name("__mpyli")
     741                      .dwattr $C$DW$28, DW_AT_TI_call
     742 000462 6C00          CALL #__mpyli ; |398| 
         000464 0000!
     743                                                      ; call occurs [#__mpyli] ; |398| 
     744 000466 7607          MOV #2000, AC1 ; |398| 
         000468 D018 
     745              $C$DW$29        .dwtag  DW_TAG_TI_branch
     746                      .dwattr $C$DW$29, DW_AT_low_pc(0x00)
     747                      .dwattr $C$DW$29, DW_AT_name("__mpyli")
     748                      .dwattr $C$DW$29, DW_AT_TI_call
     749 00046a 6C00          CALL #__mpyli ; |398| 
         00046c 0000!
     750                                                      ; call occurs [#__mpyli] ; |398| 
     751 00046e 1A00          OR #0, AC0, AC1
         000470 10   
     752              $C$DW$30        .dwtag  DW_TAG_TI_branch
     753                      .dwattr $C$DW$30, DW_AT_low_pc(0x00)
     754                      .dwattr $C$DW$30, DW_AT_name("__divul")
     755                      .dwattr $C$DW$30, DW_AT_TI_call
     756              
     757 000471 6C00          CALL #__divul ; |398| 
         000473 0000!
     758 000475 1B00  ||      OR #0, AC2, AC0
         000477 02   
     759              
     760                                                      ; call occurs [#__divul] ; |398| 
     761 000478 DF08          SUB uns(*SP(#4)), AC0, AC0 ; |398| 
         00047a 0F   
TMS320C55x Assembler PC v4.4.1 Sun Sep 16 02:56:35 2018

Tools Copyright (c) 1996-2012 Texas Instruments Incorporated
csl_i2c.asm                                                          PAGE   20

     762 00047b C006          MOV AC0, *SP(#3) ; |398| 
     763                      .dwpsn  file "../c5535_bsl_revc/ezdsp5535_v1/c55xx_csl/src/csl_i2c.c",line 403,column 3,is_stmt
     764 00047d ED31          MOV dbl(*(#_i2cHandle)), XAR3
         00047f BF00 
         000481 0010-
     765 000483 AB61          MOV *AR3, AR3 ; |403| 
     766 000485 140C          AMOV #12, T0
         000487 45   
     767 000488 A96B          MOV port(*AR3(T0)), AR1 ; |403| 
         00048a 99   
     768 00048b ED31          MOV dbl(*(#_i2cHandle)), XAR3
         00048d BF00 
         00048f 0010-
     769 000491 AB61          MOV *AR3, AR3 ; |403| 
     770 000493 2209          MOV AC0, AR1 ; |403| 
     771 000495 1A00          OR #0x0000, AR1, AR1 ; |403| 
         000497 99   
     772 000498 C96B          MOV AR1, port(*AR3(T0)) ; |403| 
         00049a 9A   
     773                      .dwpsn  file "../c5535_bsl_revc/ezdsp5535_v1/c55xx_csl/src/csl_i2c.c",line 405,column 3,is_stmt
     774 00049b ED31          MOV dbl(*(#_i2cHandle)), XAR3
         00049d BF00 
         00049f 0010-
     775 0004a1 7600          MOV #16, T0 ; |405| 
         0004a3 1048 
     776 0004a5 AB61          MOV *AR3, AR3 ; |405| 
     777 0004a7 A96B          MOV port(*AR3(T0)), AR1 ; |405| 
         0004a9 99   
     778 0004aa ED31          MOV dbl(*(#_i2cHandle)), XAR3
         0004ac BF00 
         0004ae 0010-
     779 0004b0 AB61          MOV *AR3, AR3 ; |405| 
     780 0004b2 A906          MOV *SP(#3), AR1 ; |405| 
     781 0004b4 1A00          OR #0x0000, AR1, AR1 ; |405| 
         0004b6 99   
     782 0004b7 C96B          MOV AR1, port(*AR3(T0)) ; |405| 
         0004b9 9A   
     783                      .dwpsn  file "../c5535_bsl_revc/ezdsp5535_v1/c55xx_csl/src/csl_i2c.c",line 408,column 3,is_stmt
     784 0004ba ED31          MOV dbl(*(#_i2cHandle)), XAR3
         0004bc BF00 
         0004be 0010-
     785 0004c0 7600          MOV #36, T0 ; |408| 
         0004c2 2448 
     786 0004c4 AB61          MOV *AR3, AR3 ; |408| 
     787 0004c6 A96B          MOV port(*AR3(T0)), AR1 ; |408| 
         0004c8 99   
     788 0004c9 ED31          MOV dbl(*(#_i2cHandle)), XAR3
         0004cb BF00 
         0004cd 0010-
     789 0004cf AB61          MOV *AR3, AR3 ; |408| 
     790 0004d1 EC0A          BCLR @#5, AR1 ; |408| 
         0004d3 92   
     791 0004d4 EC0A          BSET @#5, AR1 ; |408| 
         0004d6 90   
     792 0004d7 C96B          MOV AR1, port(*AR3(T0)) ; |408| 
TMS320C55x Assembler PC v4.4.1 Sun Sep 16 02:56:35 2018

Tools Copyright (c) 1996-2012 Texas Instruments Incorporated
csl_i2c.asm                                                          PAGE   21

         0004d9 9A   
     793                      .dwpsn  file "../c5535_bsl_revc/ezdsp5535_v1/c55xx_csl/src/csl_i2c.c",line 409,column 2,is_stmt
     794 0004da 4A04          B $C$L17  ; |409| 
     795                                                      ; branch occurs ; |409| 
     796 0004dc       $C$L16:    
     797                      .dwpsn  file "../c5535_bsl_revc/ezdsp5535_v1/c55xx_csl/src/csl_i2c.c",line 412,column 3,is_stmt
     798 0004dc 3E64          MOV #-6, T0
     799 0004de 4A02          B $C$L18  ; |412| 
     800                                                      ; branch occurs ; |412| 
     801 0004e0       $C$L17:    
     802                      .dwpsn  file "../c5535_bsl_revc/ezdsp5535_v1/c55xx_csl/src/csl_i2c.c",line 415,column 2,is_stmt
     803 0004e0 3C04          MOV #0, T0
     804 0004e2       $C$L18:    
     805                      .dwpsn  file "../c5535_bsl_revc/ezdsp5535_v1/c55xx_csl/src/csl_i2c.c",line 416,column 1,is_stmt
     806 0004e2 4E05          AADD #5, SP
     807                      .dwcfi  cfa_offset, 1
     808              $C$DW$31        .dwtag  DW_TAG_TI_branch
     809                      .dwattr $C$DW$31, DW_AT_low_pc(0x00)
     810                      .dwattr $C$DW$31, DW_AT_TI_return
     811 0004e4 4804          RET
     812                                                      ; return occurs
     813                      .dwattr $C$DW$19, DW_AT_TI_end_file("../c5535_bsl_revc/ezdsp5535_v1/c55xx_csl/src/csl_i2c.c")
     814                      .dwattr $C$DW$19, DW_AT_TI_end_line(0x1a0)
     815                      .dwattr $C$DW$19, DW_AT_TI_end_column(0x01)
     816                      .dwendentry
     817                      .dwendtag $C$DW$19
     818              
     819 0004e6               .sect   ".text"
     820                      .align 4
     821                      .global _I2C_write
     822              
     823              $C$DW$32        .dwtag  DW_TAG_subprogram, DW_AT_name("I2C_write")
     824                      .dwattr $C$DW$32, DW_AT_low_pc(_I2C_write)
     825                      .dwattr $C$DW$32, DW_AT_high_pc(0x00)
     826                      .dwattr $C$DW$32, DW_AT_TI_symbol_name("_I2C_write")
     827                      .dwattr $C$DW$32, DW_AT_external
     828                      .dwattr $C$DW$32, DW_AT_type(*$C$DW$T$69)
     829                      .dwattr $C$DW$32, DW_AT_TI_begin_file("../c5535_bsl_revc/ezdsp5535_v1/c55xx_csl/src/csl_i2c.c")
     830                      .dwattr $C$DW$32, DW_AT_TI_begin_line(0x1e2)
     831                      .dwattr $C$DW$32, DW_AT_TI_begin_column(0x0c)
     832                      .dwattr $C$DW$32, DW_AT_TI_max_frame_size(0x0c)
     833                      .dwpsn  file "../c5535_bsl_revc/ezdsp5535_v1/c55xx_csl/src/csl_i2c.c",line 488,column 1,is_stmt,addre
     834              
     835                      .dwfde $C$DW$CIE, _I2C_write
     836              $C$DW$33        .dwtag  DW_TAG_formal_parameter, DW_AT_name("i2cWrBuf")
     837                      .dwattr $C$DW$33, DW_AT_TI_symbol_name("_i2cWrBuf")
     838                      .dwattr $C$DW$33, DW_AT_type(*$C$DW$T$73)
     839                      .dwattr $C$DW$33, DW_AT_location[DW_OP_reg17]
     840              $C$DW$34        .dwtag  DW_TAG_formal_parameter, DW_AT_name("dataLength")
     841                      .dwattr $C$DW$34, DW_AT_TI_symbol_name("_dataLength")
     842                      .dwattr $C$DW$34, DW_AT_type(*$C$DW$T$19)
     843                      .dwattr $C$DW$34, DW_AT_location[DW_OP_reg12]
     844              $C$DW$35        .dwtag  DW_TAG_formal_parameter, DW_AT_name("slaveAddr")
     845                      .dwattr $C$DW$35, DW_AT_TI_symbol_name("_slaveAddr")
     846                      .dwattr $C$DW$35, DW_AT_type(*$C$DW$T$19)
TMS320C55x Assembler PC v4.4.1 Sun Sep 16 02:56:35 2018

Tools Copyright (c) 1996-2012 Texas Instruments Incorporated
csl_i2c.asm                                                          PAGE   22

     847                      .dwattr $C$DW$35, DW_AT_location[DW_OP_reg13]
     848              $C$DW$36        .dwtag  DW_TAG_formal_parameter, DW_AT_name("masterMode")
     849                      .dwattr $C$DW$36, DW_AT_TI_symbol_name("_masterMode")
     850                      .dwattr $C$DW$36, DW_AT_type(*$C$DW$T$74)
     851                      .dwattr $C$DW$36, DW_AT_location[DW_OP_reg18]
     852              $C$DW$37        .dwtag  DW_TAG_formal_parameter, DW_AT_name("startStopFlag")
     853                      .dwattr $C$DW$37, DW_AT_TI_symbol_name("_startStopFlag")
     854                      .dwattr $C$DW$37, DW_AT_type(*$C$DW$T$19)
     855                      .dwattr $C$DW$37, DW_AT_location[DW_OP_reg20]
     856              $C$DW$38        .dwtag  DW_TAG_formal_parameter, DW_AT_name("timeout")
     857                      .dwattr $C$DW$38, DW_AT_TI_symbol_name("_timeout")
     858                      .dwattr $C$DW$38, DW_AT_type(*$C$DW$T$19)
     859                      .dwattr $C$DW$38, DW_AT_location[DW_OP_reg22]
     860              ;*******************************************************************************
     861              ;* FUNCTION NAME: I2C_write                                                    *
     862              ;*                                                                             *
     863              ;*   Function Uses Regs : AC0,AC0,T0,T1,AR0,XAR0,AR1,AR2,AR3,XAR3,SP,CARRY,TC1,*
     864              ;*                        M40,SATA,SATD,RDM,FRCT,SMUL                          *
     865              ;*   Stack Frame        : Compact (No Frame Pointer, w/ debug)                 *
     866              ;*   Total Frame Size   : 12 words                                             *
     867              ;*                        (2 return address/alignment)                         *
     868              ;*                        (10 local values)                                    *
     869              ;*   Min System Stack   : 1 word                                               *
     870              ;*******************************************************************************
     871 0004e8       _I2C_write:
     872                      .dwcfi  cfa_offset, 1
     873                      .dwcfi  save_reg_to_mem, 91, -1
     874 0004e8 4EF5          AADD #-11, SP
     875                      .dwcfi  cfa_offset, 12
     876              $C$DW$39        .dwtag  DW_TAG_variable, DW_AT_name("i2cWrBuf")
     877                      .dwattr $C$DW$39, DW_AT_TI_symbol_name("_i2cWrBuf")
     878                      .dwattr $C$DW$39, DW_AT_type(*$C$DW$T$73)
     879                      .dwattr $C$DW$39, DW_AT_location[DW_OP_bregx 0x24 0]
     880              $C$DW$40        .dwtag  DW_TAG_variable, DW_AT_name("dataLength")
     881                      .dwattr $C$DW$40, DW_AT_TI_symbol_name("_dataLength")
     882                      .dwattr $C$DW$40, DW_AT_type(*$C$DW$T$19)
     883                      .dwattr $C$DW$40, DW_AT_location[DW_OP_bregx 0x24 2]
     884              $C$DW$41        .dwtag  DW_TAG_variable, DW_AT_name("slaveAddr")
     885                      .dwattr $C$DW$41, DW_AT_TI_symbol_name("_slaveAddr")
     886                      .dwattr $C$DW$41, DW_AT_type(*$C$DW$T$19)
     887                      .dwattr $C$DW$41, DW_AT_location[DW_OP_bregx 0x24 3]
     888              $C$DW$42        .dwtag  DW_TAG_variable, DW_AT_name("masterMode")
     889                      .dwattr $C$DW$42, DW_AT_TI_symbol_name("_masterMode")
     890                      .dwattr $C$DW$42, DW_AT_type(*$C$DW$T$74)
     891                      .dwattr $C$DW$42, DW_AT_location[DW_OP_bregx 0x24 4]
     892              $C$DW$43        .dwtag  DW_TAG_variable, DW_AT_name("startStopFlag")
     893                      .dwattr $C$DW$43, DW_AT_TI_symbol_name("_startStopFlag")
     894                      .dwattr $C$DW$43, DW_AT_type(*$C$DW$T$19)
     895                      .dwattr $C$DW$43, DW_AT_location[DW_OP_bregx 0x24 5]
     896              $C$DW$44        .dwtag  DW_TAG_variable, DW_AT_name("timeout")
     897                      .dwattr $C$DW$44, DW_AT_TI_symbol_name("_timeout")
     898                      .dwattr $C$DW$44, DW_AT_type(*$C$DW$T$19)
     899                      .dwattr $C$DW$44, DW_AT_location[DW_OP_bregx 0x24 6]
     900              $C$DW$45        .dwtag  DW_TAG_variable, DW_AT_name("looper")
     901                      .dwattr $C$DW$45, DW_AT_TI_symbol_name("_looper")
TMS320C55x Assembler PC v4.4.1 Sun Sep 16 02:56:35 2018

Tools Copyright (c) 1996-2012 Texas Instruments Incorporated
csl_i2c.asm                                                          PAGE   23

     902                      .dwattr $C$DW$45, DW_AT_type(*$C$DW$T$19)
     903                      .dwattr $C$DW$45, DW_AT_location[DW_OP_bregx 0x24 7]
     904              $C$DW$46        .dwtag  DW_TAG_variable, DW_AT_name("dataCount")
     905                      .dwattr $C$DW$46, DW_AT_TI_symbol_name("_dataCount")
     906                      .dwattr $C$DW$46, DW_AT_type(*$C$DW$T$19)
     907                      .dwattr $C$DW$46, DW_AT_location[DW_OP_bregx 0x24 8]
     908              $C$DW$47        .dwtag  DW_TAG_variable, DW_AT_name("statusByte")
     909                      .dwattr $C$DW$47, DW_AT_TI_symbol_name("_statusByte")
     910                      .dwattr $C$DW$47, DW_AT_type(*$C$DW$T$19)
     911                      .dwattr $C$DW$47, DW_AT_location[DW_OP_bregx 0x24 9]
     912 0004ea CB0C          MOV AR3, *SP(#6) ; |488| 
     913 0004ec CA0A          MOV AR2, *SP(#5) ; |488| 
     914 0004ee C908          MOV AR1, *SP(#4) ; |488| 
     915 0004f0 C506          MOV T1, *SP(#3) ; |488| 
     916 0004f2 C404          MOV T0, *SP(#2) ; |488| 
     917 0004f4 EB00          MOV XAR0, dbl(*SP(#0))
         0004f6 85   
     918                      .dwpsn  file "../c5535_bsl_revc/ezdsp5535_v1/c55xx_csl/src/csl_i2c.c",line 493,column 2,is_stmt
     919 0004f7 ED00          MOV dbl(*SP(#0)), XAR3
         0004f9 BF   
     920 0004fa 90B0          MOV XAR3, AC0
     921 0004fc 6D00          BCC $C$L32,AC0 == #0 ; |493| 
         0004fe 0222 
     922                                                      ; branchcc occurs ; |493| 
     923 000500 A904          MOV *SP(#2), AR1 ; |493| 
     924 000502 6D09          BCC $C$L32,AR1 == #0 ; |493| 
         000504 021C 
     925                                                      ; branchcc occurs ; |493| 
     926                      .dwpsn  file "../c5535_bsl_revc/ezdsp5535_v1/c55xx_csl/src/csl_i2c.c",line 496,column 7,is_stmt
     927 000506 E60E          MOV #0, *SP(#7) ; |496| 
         000508 00   
     928                      .dwpsn  file "../c5535_bsl_revc/ezdsp5535_v1/c55xx_csl/src/csl_i2c.c",line 496,column 19,is_stmt
     929 000509 A90C          MOV *SP(#6), AR1 ; |496| 
     930 00050b AA0E          MOV *SP(#7), AR2 ; |496| 
     931 00050d 12A8          CMPU AR2 >= AR1, TC1 ; |496| 
         00050f 94   
     932 000510 0464          BCC $C$L20,TC1 ; |496| 
         000512 29   
     933                                                      ; branchcc occurs ; |496| 
     934 000513       $C$L19:    
     935 000513       $C$DW$L$_I2C_write$4$B:
     936                      .dwpsn  file "../c5535_bsl_revc/ezdsp5535_v1/c55xx_csl/src/csl_i2c.c",line 498,column 7,is_stmt
     937 000513 ED31          MOV dbl(*(#_i2cHandle)), XAR3
         000515 BF00 
         000517 0010-
     938 000519 AB61          MOV *AR3, AR3 ; |498| 
     939 00051b 1408          AMOV #8, T0
         00051d 45   
     940 00051e A96B          MOV port(*AR3(T0)), AR1 ; |498| 
         000520 99   
     941 000521 7D10          AND #0x1000, AR1, AC0 ; |498| 
         000523 0009 
     942 000525 1005          SFTS AC0, #-12, AC0 ; |498| 
         000527 34   
     943 000528 C012          MOV AC0, *SP(#9) ; |498| 
TMS320C55x Assembler PC v4.4.1 Sun Sep 16 02:56:35 2018

Tools Copyright (c) 1996-2012 Texas Instruments Incorporated
csl_i2c.asm                                                          PAGE   24

     944                      .dwpsn  file "../c5535_bsl_revc/ezdsp5535_v1/c55xx_csl/src/csl_i2c.c",line 499,column 7,is_stmt
     945 00052a 2209          MOV AC0, AR1
     946 00052c 6709          BCC $C$L20,AR1 == #0 ; |499| 
     947                                                      ; branchcc occurs ; |499| 
     948 00052e       $C$DW$L$_I2C_write$4$E:
     949 00052e       $C$DW$L$_I2C_write$5$B:
     950                      .dwpsn  file "../c5535_bsl_revc/ezdsp5535_v1/c55xx_csl/src/csl_i2c.c",line 501,column 5,is_stmt
     951                      .dwpsn  file "../c5535_bsl_revc/ezdsp5535_v1/c55xx_csl/src/csl_i2c.c",line 496,column 37,is_stmt
     952 00052e F70E          ADD #1, *SP(#7) ; |496| 
         000530 0001 
     953                      .dwpsn  file "../c5535_bsl_revc/ezdsp5535_v1/c55xx_csl/src/csl_i2c.c",line 496,column 19,is_stmt
     954 000532 A90C          MOV *SP(#6), AR1 ; |496| 
     955 000534 AA0E          MOV *SP(#7), AR2 ; |496| 
     956 000536 12A4          CMPU AR2 < AR1, TC1 ; |496| 
         000538 94   
     957 000539 0464          BCC $C$L19,TC1 ; |496| 
         00053b D7   
     958                                                      ; branchcc occurs ; |496| 
     959 00053c       $C$DW$L$_I2C_write$5$E:
     960 00053c       $C$L20:    
     961                      .dwpsn  file "../c5535_bsl_revc/ezdsp5535_v1/c55xx_csl/src/csl_i2c.c",line 505,column 6,is_stmt
     962 00053c A90C          MOV *SP(#6), AR1 ; |505| 
     963 00053e AA0E          MOV *SP(#7), AR2 ; |505| 
     964 000540 12A4          CMPU AR2 < AR1, TC1 ; |505| 
         000542 94   
     965 000543 63E4          BCC $C$L21,TC1 ; |505| 
     966                                                      ; branchcc occurs ; |505| 
     967                      .dwpsn  file "../c5535_bsl_revc/ezdsp5535_v1/c55xx_csl/src/csl_i2c.c",line 508,column 7,is_stmt
     968 000545 76FF          MOV #-194, T0 ; |508| 
         000547 3E48 
     969 000549 0601          B $C$L34  ; |508| 
         00054b DC   
     970                                                      ; branch occurs ; |508| 
     971 00054c       $C$L21:    
     972                      .dwpsn  file "../c5535_bsl_revc/ezdsp5535_v1/c55xx_csl/src/csl_i2c.c",line 512,column 3,is_stmt
     973 00054c ED31          MOV dbl(*(#_i2cHandle)), XAR3
         00054e BF00 
         000550 0010-
     974 000552 7600          MOV #36, T0 ; |512| 
         000554 2448 
     975 000556 AB61          MOV *AR3, AR3 ; |512| 
     976 000558 A96B          MOV port(*AR3(T0)), AR1 ; |512| 
         00055a 99   
     977 00055b ED31          MOV dbl(*(#_i2cHandle)), XAR3
         00055d BF00 
         00055f 0010-
     978 000561 AB61          MOV *AR3, AR3 ; |512| 
     979 000563 EC12          BCLR @#9, AR1 ; |512| 
         000565 92   
     980 000566 EC12          BSET @#9, AR1 ; |512| 
         000568 90   
     981 000569 C96B          MOV AR1, port(*AR3(T0)) ; |512| 
         00056b 9A   
     982                      .dwpsn  file "../c5535_bsl_revc/ezdsp5535_v1/c55xx_csl/src/csl_i2c.c",line 515,column 3,is_stmt
     983 00056c ED31          MOV dbl(*(#_i2cHandle)), XAR3
TMS320C55x Assembler PC v4.4.1 Sun Sep 16 02:56:35 2018

Tools Copyright (c) 1996-2012 Texas Instruments Incorporated
csl_i2c.asm                                                          PAGE   25

         00056e BF00 
         000570 0010-
     984 000572 7600          MOV #20, T0 ; |515| 
         000574 1448 
     985 000576 AB61          MOV *AR3, AR3 ; |515| 
     986 000578 A96B          MOV port(*AR3(T0)), AR1 ; |515| 
         00057a 99   
     987 00057b ED31          MOV dbl(*(#_i2cHandle)), XAR3
         00057d BF00 
         00057f 0010-
     988 000581 AB61          MOV *AR3, AR3 ; |515| 
     989 000583 A904          MOV *SP(#2), AR1 ; |515| 
     990 000585 1A00          OR #0x0000, AR1, AR1 ; |515| 
         000587 99   
     991 000588 C96B          MOV AR1, port(*AR3(T0)) ; |515| 
         00058a 9A   
     992                      .dwpsn  file "../c5535_bsl_revc/ezdsp5535_v1/c55xx_csl/src/csl_i2c.c",line 517,column 3,is_stmt
     993 00058b F008          CMP *SP(#4) == #1, TC1 ; |517| 
         00058d 0001 
     994 00058f 6D74          BCC $C$L23,!TC1 ; |517| 
         000591 00A0 
     995                                                      ; branchcc occurs ; |517| 
     996                      .dwpsn  file "../c5535_bsl_revc/ezdsp5535_v1/c55xx_csl/src/csl_i2c.c",line 520,column 4,is_stmt
     997 000593 ED31          MOV dbl(*(#_i2cHandle)), XAR3
         000595 BF00 
         000597 0010-
     998 000599 7600          MOV #28, T0 ; |520| 
         00059b 1C48 
     999 00059d AB61          MOV *AR3, AR3 ; |520| 
    1000 00059f A96B          MOV port(*AR3(T0)), AR1 ; |520| 
         0005a1 99   
    1001 0005a2 ED31          MOV dbl(*(#_i2cHandle)), XAR3
         0005a4 BF00 
         0005a6 0010-
    1002 0005a8 AB61          MOV *AR3, AR3 ; |520| 
    1003 0005aa 7DFC          AND #0xfc00, AR1, AR2 ; |520| 
         0005ac 00A9 
    1004 0005ae A906          MOV *SP(#3), AR1 ; |520| 
    1005 0005b0 7D03          AND #0x03ff, AR1, AR1 ; |520| 
         0005b2 FF99 
    1006 0005b4 2AA9          OR AR2, AR1 ; |520| 
    1007 0005b6 C96B          MOV AR1, port(*AR3(T0)) ; |520| 
         0005b8 9A   
    1008                      .dwpsn  file "../c5535_bsl_revc/ezdsp5535_v1/c55xx_csl/src/csl_i2c.c",line 523,column 4,is_stmt
    1009 0005b9 ED31          MOV dbl(*(#_i2cHandle)), XAR3
         0005bb BF00 
         0005bd 0010-
    1010 0005bf 7600          MOV #36, T0 ; |523| 
         0005c1 2448 
    1011 0005c3 AB61          MOV *AR3, AR3 ; |523| 
    1012 0005c5 A96B          MOV port(*AR3(T0)), AR1 ; |523| 
         0005c7 99   
    1013 0005c8 ED31          MOV dbl(*(#_i2cHandle)), XAR3
         0005ca BF00 
         0005cc 0010-
TMS320C55x Assembler PC v4.4.1 Sun Sep 16 02:56:35 2018

Tools Copyright (c) 1996-2012 Texas Instruments Incorporated
csl_i2c.asm                                                          PAGE   26

    1014 0005ce AB61          MOV *AR3, AR3 ; |523| 
    1015 0005d0 EC14          BCLR @#10, AR1 ; |523| 
         0005d2 92   
    1016 0005d3 EC14          BSET @#10, AR1 ; |523| 
         0005d5 90   
    1017 0005d6 C96B          MOV AR1, port(*AR3(T0)) ; |523| 
         0005d8 9A   
    1018                      .dwpsn  file "../c5535_bsl_revc/ezdsp5535_v1/c55xx_csl/src/csl_i2c.c",line 526,column 4,is_stmt
    1019 0005d9 7602          MOV #512, AR2 ; |526| 
         0005db 00A8 
    1020 0005dd A90A          MOV *SP(#5), AR1 ; |526| 
    1021 0005df 7D02          AND #0x0200, AR1, AR1 ; |526| 
         0005e1 0099 
    1022 0005e3 129C          CMPU AR1 != AR2, TC1 ; |526| 
         0005e5 A4   
    1023 0005e6 0464          BCC $C$L22,TC1 ; |526| 
         0005e8 1C   
    1024                                                      ; branchcc occurs ; |526| 
    1025                      .dwpsn  file "../c5535_bsl_revc/ezdsp5535_v1/c55xx_csl/src/csl_i2c.c",line 528,column 5,is_stmt
    1026 0005e9 ED31          MOV dbl(*(#_i2cHandle)), XAR3
         0005eb BF00 
         0005ed 0010-
    1027 0005ef AB61          MOV *AR3, AR3 ; |528| 
    1028 0005f1 A96B          MOV port(*AR3(T0)), AR1 ; |528| 
         0005f3 99   
    1029 0005f4 ED31          MOV dbl(*(#_i2cHandle)), XAR3
         0005f6 BF00 
         0005f8 0010-
    1030 0005fa AB61          MOV *AR3, AR3 ; |528| 
    1031 0005fc EC16          BCLR @#11, AR1 ; |528| 
         0005fe 92   
    1032 0005ff EC16          BSET @#11, AR1 ; |528| 
         000601 90   
    1033 000602 C96B          MOV AR1, port(*AR3(T0)) ; |528| 
         000604 9A   
    1034 000605       $C$L22:    
    1035                      .dwpsn  file "../c5535_bsl_revc/ezdsp5535_v1/c55xx_csl/src/csl_i2c.c",line 532,column 4,is_stmt
    1036 000605 A90A          MOV *SP(#5), AR1 ; |532| 
    1037 000607 7601          MOV #256, AR2 ; |532| 
         000609 00A8 
    1038 00060b 7D01          AND #0x0100, AR1, AR1 ; |532| 
         00060d 0099 
    1039 00060f 129C          CMPU AR1 != AR2, TC1 ; |532| 
         000611 A4   
    1040 000612 0464          BCC $C$L24,TC1 ; |532| 
         000614 3B   
    1041                                                      ; branchcc occurs ; |532| 
    1042                      .dwpsn  file "../c5535_bsl_revc/ezdsp5535_v1/c55xx_csl/src/csl_i2c.c",line 534,column 5,is_stmt
    1043 000615 ED31          MOV dbl(*(#_i2cHandle)), XAR3
         000617 BF00 
         000619 0010-
    1044 00061b AB61          MOV *AR3, AR3 ; |534| 
    1045 00061d A96B          MOV port(*AR3(T0)), AR1 ; |534| 
         00061f 99   
    1046 000620 ED31          MOV dbl(*(#_i2cHandle)), XAR3
TMS320C55x Assembler PC v4.4.1 Sun Sep 16 02:56:35 2018

Tools Copyright (c) 1996-2012 Texas Instruments Incorporated
csl_i2c.asm                                                          PAGE   27

         000622 BF00 
         000624 0010-
    1047 000626 AB61          MOV *AR3, AR3 ; |534| 
    1048 000628 EC1A          BCLR @#13, AR1 ; |534| 
         00062a 92   
    1049 00062b EC1A          BSET @#13, AR1 ; |534| 
         00062d 90   
    1050 00062e C96B          MOV AR1, port(*AR3(T0)) ; |534| 
         000630 9A   
    1051                      .dwpsn  file "../c5535_bsl_revc/ezdsp5535_v1/c55xx_csl/src/csl_i2c.c",line 536,column 3,is_stmt
    1052 000631 4A1D          B $C$L24  ; |536| 
    1053                                                      ; branch occurs ; |536| 
    1054 000633       $C$L23:    
    1055                      .dwpsn  file "../c5535_bsl_revc/ezdsp5535_v1/c55xx_csl/src/csl_i2c.c",line 540,column 4,is_stmt
    1056 000633 ED31          MOV dbl(*(#_i2cHandle)), XAR3
         000635 BF00 
         000637 0010-
    1057 000639 7600          MOV #36, T0 ; |540| 
         00063b 2448 
    1058 00063d AB61          MOV *AR3, AR3 ; |540| 
    1059 00063f A96B          MOV port(*AR3(T0)), AR1 ; |540| 
         000641 99   
    1060 000642 ED31          MOV dbl(*(#_i2cHandle)), XAR3
         000644 BF00 
         000646 0010-
    1061 000648 AB61          MOV *AR3, AR3 ; |540| 
    1062 00064a EC14          BCLR @#10, AR1 ; |540| 
         00064c 92   
    1063 00064d C96B          MOV AR1, port(*AR3(T0)) ; |540| 
         00064f 9A   
    1064 000650       $C$L24:    
    1065                      .dwpsn  file "../c5535_bsl_revc/ezdsp5535_v1/c55xx_csl/src/csl_i2c.c",line 543,column 7,is_stmt
    1066 000650 E610          MOV #0, *SP(#8) ; |543| 
         000652 00   
    1067                      .dwpsn  file "../c5535_bsl_revc/ezdsp5535_v1/c55xx_csl/src/csl_i2c.c",line 543,column 22,is_stmt
    1068 000653 A904          MOV *SP(#2), AR1 ; |543| 
    1069 000655 AA10          MOV *SP(#8), AR2 ; |543| 
    1070 000657 12A8          CMPU AR2 >= AR1, TC1 ; |543| 
         000659 94   
    1071 00065a 6D64          BCC $C$L33,TC1 ; |543| 
         00065c 00C8 
    1072                                                      ; branchcc occurs ; |543| 
    1073 00065e       $C$L25:    
    1074 00065e       $C$DW$L$_I2C_write$15$B:
    1075                      .dwpsn  file "../c5535_bsl_revc/ezdsp5535_v1/c55xx_csl/src/csl_i2c.c",line 546,column 8,is_stmt
    1076 00065e E60E          MOV #0, *SP(#7) ; |546| 
         000660 00   
    1077                      .dwpsn  file "../c5535_bsl_revc/ezdsp5535_v1/c55xx_csl/src/csl_i2c.c",line 546,column 20,is_stmt
    1078 000661 A90C          MOV *SP(#6), AR1 ; |546| 
    1079 000663 AA0E          MOV *SP(#7), AR2 ; |546| 
    1080 000665 12A8          CMPU AR2 >= AR1, TC1 ; |546| 
         000667 94   
    1081 000668 0464          BCC $C$L27,TC1 ; |546| 
         00066a 2A   
    1082                                                      ; branchcc occurs ; |546| 
TMS320C55x Assembler PC v4.4.1 Sun Sep 16 02:56:35 2018

Tools Copyright (c) 1996-2012 Texas Instruments Incorporated
csl_i2c.asm                                                          PAGE   28

    1083 00066b       $C$DW$L$_I2C_write$15$E:
    1084 00066b       $C$L26:    
    1085 00066b       $C$DW$L$_I2C_write$16$B:
    1086                      .dwpsn  file "../c5535_bsl_revc/ezdsp5535_v1/c55xx_csl/src/csl_i2c.c",line 548,column 5,is_stmt
    1087 00066b ED31          MOV dbl(*(#_i2cHandle)), XAR3
         00066d BF00 
         00066f 0010-
    1088 000671 AB61          MOV *AR3, AR3 ; |548| 
    1089 000673 1408          AMOV #8, T0
         000675 45   
    1090 000676 A96B          MOV port(*AR3(T0)), AR1 ; |548| 
         000678 99   
    1091 000679 1810          AND #0x0010, AR1, AC0 ; |548| 
         00067b 09   
    1092 00067c 1005          SFTS AC0, #-4, AC0 ; |548| 
         00067e 3C   
    1093 00067f C012          MOV AC0, *SP(#9) ; |548| 
    1094                      .dwpsn  file "../c5535_bsl_revc/ezdsp5535_v1/c55xx_csl/src/csl_i2c.c",line 550,column 5,is_stmt
    1095 000681 F012          CMP *SP(#9) == #1, TC1 ; |550| 
         000683 0001 
    1096 000685 6764          BCC $C$L27,TC1 ; |550| 
    1097                                                      ; branchcc occurs ; |550| 
    1098 000687       $C$DW$L$_I2C_write$16$E:
    1099 000687       $C$DW$L$_I2C_write$17$B:
    1100                      .dwpsn  file "../c5535_bsl_revc/ezdsp5535_v1/c55xx_csl/src/csl_i2c.c",line 552,column 6,is_stmt
    1101                      .dwpsn  file "../c5535_bsl_revc/ezdsp5535_v1/c55xx_csl/src/csl_i2c.c",line 546,column 38,is_stmt
    1102 000687 F70E          ADD #1, *SP(#7) ; |546| 
         000689 0001 
    1103                      .dwpsn  file "../c5535_bsl_revc/ezdsp5535_v1/c55xx_csl/src/csl_i2c.c",line 546,column 20,is_stmt
    1104 00068b A90C          MOV *SP(#6), AR1 ; |546| 
    1105 00068d AA0E          MOV *SP(#7), AR2 ; |546| 
    1106 00068f 12A4          CMPU AR2 < AR1, TC1 ; |546| 
         000691 94   
    1107 000692 0464          BCC $C$L26,TC1 ; |546| 
         000694 D6   
    1108                                                      ; branchcc occurs ; |546| 
    1109 000695       $C$DW$L$_I2C_write$17$E:
    1110 000695       $C$L27:    
    1111 000695       $C$DW$L$_I2C_write$18$B:
    1112                      .dwpsn  file "../c5535_bsl_revc/ezdsp5535_v1/c55xx_csl/src/csl_i2c.c",line 556,column 4,is_stmt
    1113 000695 A90C          MOV *SP(#6), AR1 ; |556| 
    1114 000697 AA0E          MOV *SP(#7), AR2 ; |556| 
    1115 000699 12A4          CMPU AR2 < AR1, TC1 ; |556| 
         00069b 94   
    1116 00069c 63E4          BCC $C$L28,TC1 ; |556| 
    1117                                                      ; branchcc occurs ; |556| 
    1118 00069e       $C$DW$L$_I2C_write$18$E:
    1119                      .dwpsn  file "../c5535_bsl_revc/ezdsp5535_v1/c55xx_csl/src/csl_i2c.c",line 558,column 5,is_stmt
    1120 00069e 76FF          MOV #-200, T0 ; |558| 
         0006a0 3848 
    1121 0006a2 0600          B $C$L34  ; |558| 
         0006a4 83   
    1122                                                      ; branch occurs ; |558| 
    1123 0006a5       $C$L28:    
    1124 0006a5       $C$DW$L$_I2C_write$20$B:
TMS320C55x Assembler PC v4.4.1 Sun Sep 16 02:56:35 2018

Tools Copyright (c) 1996-2012 Texas Instruments Incorporated
csl_i2c.asm                                                          PAGE   29

    1125                      .dwpsn  file "../c5535_bsl_revc/ezdsp5535_v1/c55xx_csl/src/csl_i2c.c",line 562,column 4,is_stmt
    1126 0006a5 ED00          MOV dbl(*SP(#0)), XAR3
         0006a7 BF   
    1127 0006a8 A963          MOV *AR3+, AR1 ; |562| 
    1128 0006aa EB00          MOV XAR3, dbl(*SP(#0))
         0006ac B5   
    1129 0006ad ED31          MOV dbl(*(#_i2cHandle)), XAR3
         0006af BF00 
         0006b1 0010-
    1130 0006b3 7600          MOV #32, T0 ; |562| 
         0006b5 2048 
    1131 0006b7 AB61          MOV *AR3, AR3 ; |562| 
    1132 0006b9 AA6B          MOV port(*AR3(T0)), AR2 ; |562| 
         0006bb 99   
    1133 0006bc ED31          MOV dbl(*(#_i2cHandle)), XAR3
         0006be BF00 
         0006c0 0010-
    1134 0006c2 AB61          MOV *AR3, AR3 ; |562| 
    1135 0006c4 18FF          AND #0x00ff, AR1, AR1 ; |562| 
         0006c6 99   
    1136 0006c7 7DFF          AND #0xff00, AR2, AR2 ; |562| 
         0006c9 00AA 
    1137 0006cb 2AA9          OR AR2, AR1 ; |562| 
    1138 0006cd C96B          MOV AR1, port(*AR3(T0)) ; |562| 
         0006cf 9A   
    1139                      .dwpsn  file "../c5535_bsl_revc/ezdsp5535_v1/c55xx_csl/src/csl_i2c.c",line 564,column 8,is_stmt
    1140 0006d0 E60E          MOV #0, *SP(#7) ; |564| 
         0006d2 00   
    1141                      .dwpsn  file "../c5535_bsl_revc/ezdsp5535_v1/c55xx_csl/src/csl_i2c.c",line 564,column 20,is_stmt
    1142 0006d3 A90C          MOV *SP(#6), AR1 ; |564| 
    1143 0006d5 AA0E          MOV *SP(#7), AR2 ; |564| 
    1144 0006d7 12A8          CMPU AR2 >= AR1, TC1 ; |564| 
         0006d9 94   
    1145 0006da 0464          BCC $C$L30,TC1 ; |564| 
         0006dc 25   
    1146                                                      ; branchcc occurs ; |564| 
    1147 0006dd       $C$DW$L$_I2C_write$20$E:
    1148 0006dd       $C$L29:    
    1149 0006dd       $C$DW$L$_I2C_write$21$B:
    1150                      .dwpsn  file "../c5535_bsl_revc/ezdsp5535_v1/c55xx_csl/src/csl_i2c.c",line 567,column 5,is_stmt
    1151 0006dd ED31          MOV dbl(*(#_i2cHandle)), XAR3
         0006df BF00 
         0006e1 0010-
    1152 0006e3 AB61          MOV *AR3, AR3 ; |567| 
    1153 0006e5 1408          AMOV #8, T0
         0006e7 45   
    1154 0006e8 A96B          MOV port(*AR3(T0)), AR1 ; |567| 
         0006ea 99   
    1155 0006eb 1802          AND #0x0002, AR1, AR1 ; |567| 
         0006ed 99   
    1156 0006ee 5091          SFTL AR1, #-1 ; |567| 
    1157 0006f0 C912          MOV AR1, *SP(#9) ; |567| 
    1158                      .dwpsn  file "../c5535_bsl_revc/ezdsp5535_v1/c55xx_csl/src/csl_i2c.c",line 569,column 5,is_stmt
    1159 0006f2 6709          BCC $C$L30,AR1 == #0 ; |569| 
    1160                                                      ; branchcc occurs ; |569| 
TMS320C55x Assembler PC v4.4.1 Sun Sep 16 02:56:35 2018

Tools Copyright (c) 1996-2012 Texas Instruments Incorporated
csl_i2c.asm                                                          PAGE   30

    1161 0006f4       $C$DW$L$_I2C_write$21$E:
    1162 0006f4       $C$DW$L$_I2C_write$22$B:
    1163                      .dwpsn  file "../c5535_bsl_revc/ezdsp5535_v1/c55xx_csl/src/csl_i2c.c",line 571,column 6,is_stmt
    1164                      .dwpsn  file "../c5535_bsl_revc/ezdsp5535_v1/c55xx_csl/src/csl_i2c.c",line 564,column 38,is_stmt
    1165 0006f4 F70E          ADD #1, *SP(#7) ; |564| 
         0006f6 0001 
    1166                      .dwpsn  file "../c5535_bsl_revc/ezdsp5535_v1/c55xx_csl/src/csl_i2c.c",line 564,column 20,is_stmt
    1167 0006f8 A90C          MOV *SP(#6), AR1 ; |564| 
    1168 0006fa AA0E          MOV *SP(#7), AR2 ; |564| 
    1169 0006fc 12A4          CMPU AR2 < AR1, TC1 ; |564| 
         0006fe 94   
    1170 0006ff 0464          BCC $C$L29,TC1 ; |564| 
         000701 DB   
    1171                                                      ; branchcc occurs ; |564| 
    1172 000702       $C$DW$L$_I2C_write$22$E:
    1173 000702       $C$L30:    
    1174 000702       $C$DW$L$_I2C_write$23$B:
    1175                      .dwpsn  file "../c5535_bsl_revc/ezdsp5535_v1/c55xx_csl/src/csl_i2c.c",line 575,column 4,is_stmt
    1176 000702 A90C          MOV *SP(#6), AR1 ; |575| 
    1177 000704 AA0E          MOV *SP(#7), AR2 ; |575| 
    1178 000706 12A4          CMPU AR2 < AR1, TC1 ; |575| 
         000708 94   
    1179 000709 6364          BCC $C$L31,TC1 ; |575| 
    1180                                                      ; branchcc occurs ; |575| 
    1181 00070b       $C$DW$L$_I2C_write$23$E:
    1182                      .dwpsn  file "../c5535_bsl_revc/ezdsp5535_v1/c55xx_csl/src/csl_i2c.c",line 577,column 5,is_stmt
    1183 00070b 76FF          MOV #-196, T0 ; |577| 
         00070d 3C48 
    1184 00070f 4A17          B $C$L34  ; |577| 
    1185                                                      ; branch occurs ; |577| 
    1186 000711       $C$L31:    
    1187 000711       $C$DW$L$_I2C_write$25$B:
    1188                      .dwpsn  file "../c5535_bsl_revc/ezdsp5535_v1/c55xx_csl/src/csl_i2c.c",line 543,column 46,is_stmt
    1189 000711 F710          ADD #1, *SP(#8) ; |543| 
         000713 0001 
    1190                      .dwpsn  file "../c5535_bsl_revc/ezdsp5535_v1/c55xx_csl/src/csl_i2c.c",line 543,column 22,is_stmt
    1191 000715 A904          MOV *SP(#2), AR1 ; |543| 
    1192 000717 AA10          MOV *SP(#8), AR2 ; |543| 
    1193 000719 12A4          CMPU AR2 < AR1, TC1 ; |543| 
         00071b 94   
    1194 00071c 6D64          BCC $C$L25,TC1 ; |543| 
         00071e FF3E 
    1195                                                      ; branchcc occurs ; |543| 
    1196 000720       $C$DW$L$_I2C_write$25$E:
    1197                      .dwpsn  file "../c5535_bsl_revc/ezdsp5535_v1/c55xx_csl/src/csl_i2c.c",line 580,column 2,is_stmt
    1198 000720 4A04          B $C$L33  ; |580| 
    1199                                                      ; branch occurs ; |580| 
    1200 000722       $C$L32:    
    1201                      .dwpsn  file "../c5535_bsl_revc/ezdsp5535_v1/c55xx_csl/src/csl_i2c.c",line 583,column 3,is_stmt
    1202 000722 3E64          MOV #-6, T0
    1203 000724 4A02          B $C$L34  ; |583| 
    1204                                                      ; branch occurs ; |583| 
    1205 000726       $C$L33:    
    1206                      .dwpsn  file "../c5535_bsl_revc/ezdsp5535_v1/c55xx_csl/src/csl_i2c.c",line 586,column 2,is_stmt
    1207 000726 3C04          MOV #0, T0
TMS320C55x Assembler PC v4.4.1 Sun Sep 16 02:56:35 2018

Tools Copyright (c) 1996-2012 Texas Instruments Incorporated
csl_i2c.asm                                                          PAGE   31

    1208 000728       $C$L34:    
    1209                      .dwpsn  file "../c5535_bsl_revc/ezdsp5535_v1/c55xx_csl/src/csl_i2c.c",line 587,column 1,is_stmt
    1210 000728 4E0B          AADD #11, SP
    1211                      .dwcfi  cfa_offset, 1
    1212              $C$DW$48        .dwtag  DW_TAG_TI_branch
    1213                      .dwattr $C$DW$48, DW_AT_low_pc(0x00)
    1214                      .dwattr $C$DW$48, DW_AT_TI_return
    1215 00072a 4804          RET
    1216                                                      ; return occurs
    1217              
    1218              $C$DW$49        .dwtag  DW_TAG_TI_loop
    1219                      .dwattr $C$DW$49, DW_AT_name("F:\eZdsp_DBG\eZDSP_5535_Files\ccsws2\test\Debug\csl_i2c.asm:$C$L25:1:15
    1220                      .dwattr $C$DW$49, DW_AT_TI_begin_file("../c5535_bsl_revc/ezdsp5535_v1/c55xx_csl/src/csl_i2c.c")
    1221                      .dwattr $C$DW$49, DW_AT_TI_begin_line(0x21f)
    1222                      .dwattr $C$DW$49, DW_AT_TI_end_line(0x243)
    1223              $C$DW$50        .dwtag  DW_TAG_TI_loop_range
    1224                      .dwattr $C$DW$50, DW_AT_low_pc($C$DW$L$_I2C_write$15$B)
    1225                      .dwattr $C$DW$50, DW_AT_high_pc($C$DW$L$_I2C_write$15$E)
    1226              $C$DW$51        .dwtag  DW_TAG_TI_loop_range
    1227                      .dwattr $C$DW$51, DW_AT_low_pc($C$DW$L$_I2C_write$18$B)
    1228                      .dwattr $C$DW$51, DW_AT_high_pc($C$DW$L$_I2C_write$18$E)
    1229              $C$DW$52        .dwtag  DW_TAG_TI_loop_range
    1230                      .dwattr $C$DW$52, DW_AT_low_pc($C$DW$L$_I2C_write$20$B)
    1231                      .dwattr $C$DW$52, DW_AT_high_pc($C$DW$L$_I2C_write$20$E)
    1232              $C$DW$53        .dwtag  DW_TAG_TI_loop_range
    1233                      .dwattr $C$DW$53, DW_AT_low_pc($C$DW$L$_I2C_write$23$B)
    1234                      .dwattr $C$DW$53, DW_AT_high_pc($C$DW$L$_I2C_write$23$E)
    1235              $C$DW$54        .dwtag  DW_TAG_TI_loop_range
    1236                      .dwattr $C$DW$54, DW_AT_low_pc($C$DW$L$_I2C_write$25$B)
    1237                      .dwattr $C$DW$54, DW_AT_high_pc($C$DW$L$_I2C_write$25$E)
    1238              
    1239              $C$DW$55        .dwtag  DW_TAG_TI_loop
    1240                      .dwattr $C$DW$55, DW_AT_name("F:\eZdsp_DBG\eZDSP_5535_Files\ccsws2\test\Debug\csl_i2c.asm:$C$L26:2:15
    1241                      .dwattr $C$DW$55, DW_AT_TI_begin_file("../c5535_bsl_revc/ezdsp5535_v1/c55xx_csl/src/csl_i2c.c")
    1242                      .dwattr $C$DW$55, DW_AT_TI_begin_line(0x222)
    1243                      .dwattr $C$DW$55, DW_AT_TI_end_line(0x22a)
    1244              $C$DW$56        .dwtag  DW_TAG_TI_loop_range
    1245                      .dwattr $C$DW$56, DW_AT_low_pc($C$DW$L$_I2C_write$16$B)
    1246                      .dwattr $C$DW$56, DW_AT_high_pc($C$DW$L$_I2C_write$16$E)
    1247              $C$DW$57        .dwtag  DW_TAG_TI_loop_range
    1248                      .dwattr $C$DW$57, DW_AT_low_pc($C$DW$L$_I2C_write$17$B)
    1249                      .dwattr $C$DW$57, DW_AT_high_pc($C$DW$L$_I2C_write$17$E)
    1250                      .dwendtag $C$DW$55
    1251              
    1252              
    1253              $C$DW$58        .dwtag  DW_TAG_TI_loop
    1254                      .dwattr $C$DW$58, DW_AT_name("F:\eZdsp_DBG\eZDSP_5535_Files\ccsws2\test\Debug\csl_i2c.asm:$C$L29:2:15
    1255                      .dwattr $C$DW$58, DW_AT_TI_begin_file("../c5535_bsl_revc/ezdsp5535_v1/c55xx_csl/src/csl_i2c.c")
    1256                      .dwattr $C$DW$58, DW_AT_TI_begin_line(0x234)
    1257                      .dwattr $C$DW$58, DW_AT_TI_end_line(0x23d)
    1258              $C$DW$59        .dwtag  DW_TAG_TI_loop_range
    1259                      .dwattr $C$DW$59, DW_AT_low_pc($C$DW$L$_I2C_write$21$B)
    1260                      .dwattr $C$DW$59, DW_AT_high_pc($C$DW$L$_I2C_write$21$E)
    1261              $C$DW$60        .dwtag  DW_TAG_TI_loop_range
    1262                      .dwattr $C$DW$60, DW_AT_low_pc($C$DW$L$_I2C_write$22$B)
TMS320C55x Assembler PC v4.4.1 Sun Sep 16 02:56:35 2018

Tools Copyright (c) 1996-2012 Texas Instruments Incorporated
csl_i2c.asm                                                          PAGE   32

    1263                      .dwattr $C$DW$60, DW_AT_high_pc($C$DW$L$_I2C_write$22$E)
    1264                      .dwendtag $C$DW$58
    1265              
    1266                      .dwendtag $C$DW$49
    1267              
    1268              
    1269              $C$DW$61        .dwtag  DW_TAG_TI_loop
    1270                      .dwattr $C$DW$61, DW_AT_name("F:\eZdsp_DBG\eZDSP_5535_Files\ccsws2\test\Debug\csl_i2c.asm:$C$L19:1:15
    1271                      .dwattr $C$DW$61, DW_AT_TI_begin_file("../c5535_bsl_revc/ezdsp5535_v1/c55xx_csl/src/csl_i2c.c")
    1272                      .dwattr $C$DW$61, DW_AT_TI_begin_line(0x1f0)
    1273                      .dwattr $C$DW$61, DW_AT_TI_end_line(0x1f7)
    1274              $C$DW$62        .dwtag  DW_TAG_TI_loop_range
    1275                      .dwattr $C$DW$62, DW_AT_low_pc($C$DW$L$_I2C_write$4$B)
    1276                      .dwattr $C$DW$62, DW_AT_high_pc($C$DW$L$_I2C_write$4$E)
    1277              $C$DW$63        .dwtag  DW_TAG_TI_loop_range
    1278                      .dwattr $C$DW$63, DW_AT_low_pc($C$DW$L$_I2C_write$5$B)
    1279                      .dwattr $C$DW$63, DW_AT_high_pc($C$DW$L$_I2C_write$5$E)
    1280                      .dwendtag $C$DW$61
    1281              
    1282                      .dwattr $C$DW$32, DW_AT_TI_end_file("../c5535_bsl_revc/ezdsp5535_v1/c55xx_csl/src/csl_i2c.c")
    1283                      .dwattr $C$DW$32, DW_AT_TI_end_line(0x24b)
    1284                      .dwattr $C$DW$32, DW_AT_TI_end_column(0x01)
    1285                      .dwendentry
    1286                      .dwendtag $C$DW$32
    1287              
    1288 00072c               .sect   ".text"
    1289                      .align 4
    1290                      .global _I2C_read
    1291              
    1292              $C$DW$64        .dwtag  DW_TAG_subprogram, DW_AT_name("I2C_read")
    1293                      .dwattr $C$DW$64, DW_AT_low_pc(_I2C_read)
    1294                      .dwattr $C$DW$64, DW_AT_high_pc(0x00)
    1295                      .dwattr $C$DW$64, DW_AT_TI_symbol_name("_I2C_read")
    1296                      .dwattr $C$DW$64, DW_AT_external
    1297                      .dwattr $C$DW$64, DW_AT_type(*$C$DW$T$69)
    1298                      .dwattr $C$DW$64, DW_AT_TI_begin_file("../c5535_bsl_revc/ezdsp5535_v1/c55xx_csl/src/csl_i2c.c")
    1299                      .dwattr $C$DW$64, DW_AT_TI_begin_line(0x28e)
    1300                      .dwattr $C$DW$64, DW_AT_TI_begin_column(0x0c)
    1301                      .dwattr $C$DW$64, DW_AT_TI_max_frame_size(0x0c)
    1302                      .dwpsn  file "../c5535_bsl_revc/ezdsp5535_v1/c55xx_csl/src/csl_i2c.c",line 661,column 1,is_stmt,addre
    1303              
    1304                      .dwfde $C$DW$CIE, _I2C_read
    1305              $C$DW$65        .dwtag  DW_TAG_formal_parameter, DW_AT_name("i2cRdBuf")
    1306                      .dwattr $C$DW$65, DW_AT_TI_symbol_name("_i2cRdBuf")
    1307                      .dwattr $C$DW$65, DW_AT_type(*$C$DW$T$73)
    1308                      .dwattr $C$DW$65, DW_AT_location[DW_OP_reg17]
    1309              $C$DW$66        .dwtag  DW_TAG_formal_parameter, DW_AT_name("dataLength")
    1310                      .dwattr $C$DW$66, DW_AT_TI_symbol_name("_dataLength")
    1311                      .dwattr $C$DW$66, DW_AT_type(*$C$DW$T$19)
    1312                      .dwattr $C$DW$66, DW_AT_location[DW_OP_reg12]
    1313              $C$DW$67        .dwtag  DW_TAG_formal_parameter, DW_AT_name("slaveAddr")
    1314                      .dwattr $C$DW$67, DW_AT_TI_symbol_name("_slaveAddr")
    1315                      .dwattr $C$DW$67, DW_AT_type(*$C$DW$T$19)
    1316                      .dwattr $C$DW$67, DW_AT_location[DW_OP_reg13]
    1317              $C$DW$68        .dwtag  DW_TAG_formal_parameter, DW_AT_name("masterMode")
TMS320C55x Assembler PC v4.4.1 Sun Sep 16 02:56:35 2018

Tools Copyright (c) 1996-2012 Texas Instruments Incorporated
csl_i2c.asm                                                          PAGE   33

    1318                      .dwattr $C$DW$68, DW_AT_TI_symbol_name("_masterMode")
    1319                      .dwattr $C$DW$68, DW_AT_type(*$C$DW$T$74)
    1320                      .dwattr $C$DW$68, DW_AT_location[DW_OP_reg18]
    1321              $C$DW$69        .dwtag  DW_TAG_formal_parameter, DW_AT_name("startStopFlag")
    1322                      .dwattr $C$DW$69, DW_AT_TI_symbol_name("_startStopFlag")
    1323                      .dwattr $C$DW$69, DW_AT_type(*$C$DW$T$19)
    1324                      .dwattr $C$DW$69, DW_AT_location[DW_OP_reg20]
    1325              $C$DW$70        .dwtag  DW_TAG_formal_parameter, DW_AT_name("timeout")
    1326                      .dwattr $C$DW$70, DW_AT_TI_symbol_name("_timeout")
    1327                      .dwattr $C$DW$70, DW_AT_type(*$C$DW$T$19)
    1328                      .dwattr $C$DW$70, DW_AT_location[DW_OP_reg22]
    1329              $C$DW$71        .dwtag  DW_TAG_formal_parameter, DW_AT_name("checkBus")
    1330                      .dwattr $C$DW$71, DW_AT_TI_symbol_name("_checkBus")
    1331                      .dwattr $C$DW$71, DW_AT_type(*$C$DW$T$74)
    1332                      .dwattr $C$DW$71, DW_AT_location[DW_OP_reg24]
    1333              ;*******************************************************************************
    1334              ;* FUNCTION NAME: I2C_read                                                     *
    1335              ;*                                                                             *
    1336              ;*   Function Uses Regs : AC0,AC0,T0,T1,AR0,XAR0,AR1,AR2,XAR2,AR3,XAR3,AR4,SP, *
    1337              ;*                        CARRY,TC1,M40,SATA,SATD,RDM,FRCT,SMUL                *
    1338              ;*   Stack Frame        : Compact (No Frame Pointer, w/ debug)                 *
    1339              ;*   Total Frame Size   : 12 words                                             *
    1340              ;*                        (1 return address/alignment)                         *
    1341              ;*                        (11 local values)                                    *
    1342              ;*   Min System Stack   : 1 word                                               *
    1343              ;*******************************************************************************
    1344 00072c       _I2C_read:
    1345                      .dwcfi  cfa_offset, 1
    1346                      .dwcfi  save_reg_to_mem, 91, -1
    1347 00072c 4EF5          AADD #-11, SP
    1348                      .dwcfi  cfa_offset, 12
    1349              $C$DW$72        .dwtag  DW_TAG_variable, DW_AT_name("i2cRdBuf")
    1350                      .dwattr $C$DW$72, DW_AT_TI_symbol_name("_i2cRdBuf")
    1351                      .dwattr $C$DW$72, DW_AT_type(*$C$DW$T$73)
    1352                      .dwattr $C$DW$72, DW_AT_location[DW_OP_bregx 0x24 0]
    1353              $C$DW$73        .dwtag  DW_TAG_variable, DW_AT_name("dataLength")
    1354                      .dwattr $C$DW$73, DW_AT_TI_symbol_name("_dataLength")
    1355                      .dwattr $C$DW$73, DW_AT_type(*$C$DW$T$19)
    1356                      .dwattr $C$DW$73, DW_AT_location[DW_OP_bregx 0x24 2]
    1357              $C$DW$74        .dwtag  DW_TAG_variable, DW_AT_name("slaveAddr")
    1358                      .dwattr $C$DW$74, DW_AT_TI_symbol_name("_slaveAddr")
    1359                      .dwattr $C$DW$74, DW_AT_type(*$C$DW$T$19)
    1360                      .dwattr $C$DW$74, DW_AT_location[DW_OP_bregx 0x24 3]
    1361              $C$DW$75        .dwtag  DW_TAG_variable, DW_AT_name("masterMode")
    1362                      .dwattr $C$DW$75, DW_AT_TI_symbol_name("_masterMode")
    1363                      .dwattr $C$DW$75, DW_AT_type(*$C$DW$T$74)
    1364                      .dwattr $C$DW$75, DW_AT_location[DW_OP_bregx 0x24 4]
    1365              $C$DW$76        .dwtag  DW_TAG_variable, DW_AT_name("startStopFlag")
    1366                      .dwattr $C$DW$76, DW_AT_TI_symbol_name("_startStopFlag")
    1367                      .dwattr $C$DW$76, DW_AT_type(*$C$DW$T$19)
    1368                      .dwattr $C$DW$76, DW_AT_location[DW_OP_bregx 0x24 5]
    1369              $C$DW$77        .dwtag  DW_TAG_variable, DW_AT_name("timeout")
    1370                      .dwattr $C$DW$77, DW_AT_TI_symbol_name("_timeout")
    1371                      .dwattr $C$DW$77, DW_AT_type(*$C$DW$T$19)
    1372                      .dwattr $C$DW$77, DW_AT_location[DW_OP_bregx 0x24 6]
TMS320C55x Assembler PC v4.4.1 Sun Sep 16 02:56:35 2018

Tools Copyright (c) 1996-2012 Texas Instruments Incorporated
csl_i2c.asm                                                          PAGE   34

    1373              $C$DW$78        .dwtag  DW_TAG_variable, DW_AT_name("checkBus")
    1374                      .dwattr $C$DW$78, DW_AT_TI_symbol_name("_checkBus")
    1375                      .dwattr $C$DW$78, DW_AT_type(*$C$DW$T$74)
    1376                      .dwattr $C$DW$78, DW_AT_location[DW_OP_bregx 0x24 7]
    1377              $C$DW$79        .dwtag  DW_TAG_variable, DW_AT_name("looper")
    1378                      .dwattr $C$DW$79, DW_AT_TI_symbol_name("_looper")
    1379                      .dwattr $C$DW$79, DW_AT_type(*$C$DW$T$19)
    1380                      .dwattr $C$DW$79, DW_AT_location[DW_OP_bregx 0x24 8]
    1381              $C$DW$80        .dwtag  DW_TAG_variable, DW_AT_name("dataCount")
    1382                      .dwattr $C$DW$80, DW_AT_TI_symbol_name("_dataCount")
    1383                      .dwattr $C$DW$80, DW_AT_type(*$C$DW$T$19)
    1384                      .dwattr $C$DW$80, DW_AT_location[DW_OP_bregx 0x24 9]
    1385              $C$DW$81        .dwtag  DW_TAG_variable, DW_AT_name("statusByte")
    1386                      .dwattr $C$DW$81, DW_AT_TI_symbol_name("_statusByte")
    1387                      .dwattr $C$DW$81, DW_AT_type(*$C$DW$T$19)
    1388                      .dwattr $C$DW$81, DW_AT_location[DW_OP_bregx 0x24 10]
    1389 00072e CC0E          MOV AR4, *SP(#7) ; |661| 
    1390 000730 CB0C          MOV AR3, *SP(#6) ; |661| 
    1391 000732 CA0A          MOV AR2, *SP(#5) ; |661| 
    1392 000734 C908          MOV AR1, *SP(#4) ; |661| 
    1393 000736 C506          MOV T1, *SP(#3) ; |661| 
    1394 000738 C404          MOV T0, *SP(#2) ; |661| 
    1395 00073a EB00          MOV XAR0, dbl(*SP(#0))
         00073c 85   
    1396                      .dwpsn  file "../c5535_bsl_revc/ezdsp5535_v1/c55xx_csl/src/csl_i2c.c",line 666,column 2,is_stmt
    1397 00073d ED00          MOV dbl(*SP(#0)), XAR3
         00073f BF   
    1398 000740 90B0          MOV XAR3, AC0
    1399 000742 6D00          BCC $C$L46,AC0 == #0 ; |666| 
         000744 01FA 
    1400                                                      ; branchcc occurs ; |666| 
    1401 000746 A904          MOV *SP(#2), AR1 ; |666| 
    1402 000748 6D09          BCC $C$L46,AR1 == #0 ; |666| 
         00074a 01F4 
    1403                                                      ; branchcc occurs ; |666| 
    1404                      .dwpsn  file "../c5535_bsl_revc/ezdsp5535_v1/c55xx_csl/src/csl_i2c.c",line 669,column 3,is_stmt
    1405 00074c ED31          MOV dbl(*(#_i2cHandle)), XAR3
         00074e BF00 
         000750 0010-
    1406 000752 7600          MOV #36, T0 ; |669| 
         000754 2448 
    1407 000756 AB61          MOV *AR3, AR3 ; |669| 
    1408 000758 A96B          MOV port(*AR3(T0)), AR1 ; |669| 
         00075a 99   
    1409 00075b ED31          MOV dbl(*(#_i2cHandle)), XAR3
         00075d BF00 
         00075f 0010-
    1410 000761 AB61          MOV *AR3, AR3 ; |669| 
    1411 000763 EC12          BCLR @#9, AR1 ; |669| 
         000765 92   
    1412 000766 C96B          MOV AR1, port(*AR3(T0)) ; |669| 
         000768 9A   
    1413                      .dwpsn  file "../c5535_bsl_revc/ezdsp5535_v1/c55xx_csl/src/csl_i2c.c",line 672,column 3,is_stmt
    1414 000769 ED31          MOV dbl(*(#_i2cHandle)), XAR3
         00076b BF00 
TMS320C55x Assembler PC v4.4.1 Sun Sep 16 02:56:35 2018

Tools Copyright (c) 1996-2012 Texas Instruments Incorporated
csl_i2c.asm                                                          PAGE   35

         00076d 0010-
    1415 00076f 7600          MOV #20, T0 ; |672| 
         000771 1448 
    1416 000773 AB61          MOV *AR3, AR3 ; |672| 
    1417 000775 A96B          MOV port(*AR3(T0)), AR1 ; |672| 
         000777 99   
    1418 000778 ED31          MOV dbl(*(#_i2cHandle)), XAR3
         00077a BF00 
         00077c 0010-
    1419 00077e AB61          MOV *AR3, AR3 ; |672| 
    1420 000780 A904          MOV *SP(#2), AR1 ; |672| 
    1421 000782 1A00          OR #0x0000, AR1, AR1 ; |672| 
         000784 99   
    1422 000785 C96B          MOV AR1, port(*AR3(T0)) ; |672| 
         000787 9A   
    1423                      .dwpsn  file "../c5535_bsl_revc/ezdsp5535_v1/c55xx_csl/src/csl_i2c.c",line 674,column 3,is_stmt
    1424 000788 F008          CMP *SP(#4) == #1, TC1 ; |674| 
         00078a 0001 
    1425 00078c 6D74          BCC $C$L36,!TC1 ; |674| 
         00078e 00A0 
    1426                                                      ; branchcc occurs ; |674| 
    1427                      .dwpsn  file "../c5535_bsl_revc/ezdsp5535_v1/c55xx_csl/src/csl_i2c.c",line 677,column 4,is_stmt
    1428 000790 ED31          MOV dbl(*(#_i2cHandle)), XAR3
         000792 BF00 
         000794 0010-
    1429 000796 7600          MOV #28, T0 ; |677| 
         000798 1C48 
    1430 00079a AB61          MOV *AR3, AR3 ; |677| 
    1431 00079c A96B          MOV port(*AR3(T0)), AR1 ; |677| 
         00079e 99   
    1432 00079f ED31          MOV dbl(*(#_i2cHandle)), XAR3
         0007a1 BF00 
         0007a3 0010-
    1433 0007a5 AB61          MOV *AR3, AR3 ; |677| 
    1434 0007a7 7DFC          AND #0xfc00, AR1, AR2 ; |677| 
         0007a9 00A9 
    1435 0007ab A906          MOV *SP(#3), AR1 ; |677| 
    1436 0007ad 7D03          AND #0x03ff, AR1, AR1 ; |677| 
         0007af FF99 
    1437 0007b1 2AA9          OR AR2, AR1 ; |677| 
    1438 0007b3 C96B          MOV AR1, port(*AR3(T0)) ; |677| 
         0007b5 9A   
    1439                      .dwpsn  file "../c5535_bsl_revc/ezdsp5535_v1/c55xx_csl/src/csl_i2c.c",line 680,column 4,is_stmt
    1440 0007b6 ED31          MOV dbl(*(#_i2cHandle)), XAR3
         0007b8 BF00 
         0007ba 0010-
    1441 0007bc 7600          MOV #36, T0 ; |680| 
         0007be 2448 
    1442 0007c0 AB61          MOV *AR3, AR3 ; |680| 
    1443 0007c2 A96B          MOV port(*AR3(T0)), AR1 ; |680| 
         0007c4 99   
    1444 0007c5 ED31          MOV dbl(*(#_i2cHandle)), XAR3
         0007c7 BF00 
         0007c9 0010-
    1445 0007cb AB61          MOV *AR3, AR3 ; |680| 
TMS320C55x Assembler PC v4.4.1 Sun Sep 16 02:56:35 2018

Tools Copyright (c) 1996-2012 Texas Instruments Incorporated
csl_i2c.asm                                                          PAGE   36

    1446 0007cd EC14          BCLR @#10, AR1 ; |680| 
         0007cf 92   
    1447 0007d0 EC14          BSET @#10, AR1 ; |680| 
         0007d2 90   
    1448 0007d3 C96B          MOV AR1, port(*AR3(T0)) ; |680| 
         0007d5 9A   
    1449                      .dwpsn  file "../c5535_bsl_revc/ezdsp5535_v1/c55xx_csl/src/csl_i2c.c",line 683,column 4,is_stmt
    1450 0007d6 7602          MOV #512, AR2 ; |683| 
         0007d8 00A8 
    1451 0007da A90A          MOV *SP(#5), AR1 ; |683| 
    1452 0007dc 7D02          AND #0x0200, AR1, AR1 ; |683| 
         0007de 0099 
    1453 0007e0 129C          CMPU AR1 != AR2, TC1 ; |683| 
         0007e2 A4   
    1454 0007e3 0464          BCC $C$L35,TC1 ; |683| 
         0007e5 1C   
    1455                                                      ; branchcc occurs ; |683| 
    1456                      .dwpsn  file "../c5535_bsl_revc/ezdsp5535_v1/c55xx_csl/src/csl_i2c.c",line 685,column 5,is_stmt
    1457 0007e6 ED31          MOV dbl(*(#_i2cHandle)), XAR3
         0007e8 BF00 
         0007ea 0010-
    1458 0007ec AB61          MOV *AR3, AR3 ; |685| 
    1459 0007ee A96B          MOV port(*AR3(T0)), AR1 ; |685| 
         0007f0 99   
    1460 0007f1 ED31          MOV dbl(*(#_i2cHandle)), XAR3
         0007f3 BF00 
         0007f5 0010-
    1461 0007f7 AB61          MOV *AR3, AR3 ; |685| 
    1462 0007f9 EC16          BCLR @#11, AR1 ; |685| 
         0007fb 92   
    1463 0007fc EC16          BSET @#11, AR1 ; |685| 
         0007fe 90   
    1464 0007ff C96B          MOV AR1, port(*AR3(T0)) ; |685| 
         000801 9A   
    1465 000802       $C$L35:    
    1466                      .dwpsn  file "../c5535_bsl_revc/ezdsp5535_v1/c55xx_csl/src/csl_i2c.c",line 689,column 4,is_stmt
    1467 000802 A90A          MOV *SP(#5), AR1 ; |689| 
    1468 000804 7601          MOV #256, AR2 ; |689| 
         000806 00A8 
    1469 000808 7D01          AND #0x0100, AR1, AR1 ; |689| 
         00080a 0099 
    1470 00080c 129C          CMPU AR1 != AR2, TC1 ; |689| 
         00080e A4   
    1471 00080f 0464          BCC $C$L37,TC1 ; |689| 
         000811 3B   
    1472                                                      ; branchcc occurs ; |689| 
    1473                      .dwpsn  file "../c5535_bsl_revc/ezdsp5535_v1/c55xx_csl/src/csl_i2c.c",line 691,column 5,is_stmt
    1474 000812 ED31          MOV dbl(*(#_i2cHandle)), XAR3
         000814 BF00 
         000816 0010-
    1475 000818 AB61          MOV *AR3, AR3 ; |691| 
    1476 00081a A96B          MOV port(*AR3(T0)), AR1 ; |691| 
         00081c 99   
    1477 00081d ED31          MOV dbl(*(#_i2cHandle)), XAR3
         00081f BF00 
TMS320C55x Assembler PC v4.4.1 Sun Sep 16 02:56:35 2018

Tools Copyright (c) 1996-2012 Texas Instruments Incorporated
csl_i2c.asm                                                          PAGE   37

         000821 0010-
    1478 000823 AB61          MOV *AR3, AR3 ; |691| 
    1479 000825 EC1A          BCLR @#13, AR1 ; |691| 
         000827 92   
    1480 000828 EC1A          BSET @#13, AR1 ; |691| 
         00082a 90   
    1481 00082b C96B          MOV AR1, port(*AR3(T0)) ; |691| 
         00082d 9A   
    1482                      .dwpsn  file "../c5535_bsl_revc/ezdsp5535_v1/c55xx_csl/src/csl_i2c.c",line 693,column 3,is_stmt
    1483 00082e 4A1D          B $C$L37  ; |693| 
    1484                                                      ; branch occurs ; |693| 
    1485 000830       $C$L36:    
    1486                      .dwpsn  file "../c5535_bsl_revc/ezdsp5535_v1/c55xx_csl/src/csl_i2c.c",line 697,column 4,is_stmt
    1487 000830 ED31          MOV dbl(*(#_i2cHandle)), XAR3
         000832 BF00 
         000834 0010-
    1488 000836 7600          MOV #36, T0 ; |697| 
         000838 2448 
    1489 00083a AB61          MOV *AR3, AR3 ; |697| 
    1490 00083c A96B          MOV port(*AR3(T0)), AR1 ; |697| 
         00083e 99   
    1491 00083f ED31          MOV dbl(*(#_i2cHandle)), XAR3
         000841 BF00 
         000843 0010-
    1492 000845 AB61          MOV *AR3, AR3 ; |697| 
    1493 000847 EC14          BCLR @#10, AR1 ; |697| 
         000849 92   
    1494 00084a C96B          MOV AR1, port(*AR3(T0)) ; |697| 
         00084c 9A   
    1495 00084d       $C$L37:    
    1496                      .dwpsn  file "../c5535_bsl_revc/ezdsp5535_v1/c55xx_csl/src/csl_i2c.c",line 700,column 3,is_stmt
    1497 00084d F00E          CMP *SP(#7) == #1, TC1 ; |700| 
         00084f 0001 
    1498 000851 0474          BCC $C$L40,!TC1 ; |700| 
         000853 46   
    1499                                                      ; branchcc occurs ; |700| 
    1500                      .dwpsn  file "../c5535_bsl_revc/ezdsp5535_v1/c55xx_csl/src/csl_i2c.c",line 703,column 8,is_stmt
    1501 000854 E610          MOV #0, *SP(#8) ; |703| 
         000856 00   
    1502                      .dwpsn  file "../c5535_bsl_revc/ezdsp5535_v1/c55xx_csl/src/csl_i2c.c",line 703,column 20,is_stmt
    1503 000857 A90C          MOV *SP(#6), AR1 ; |703| 
    1504 000859 AA10          MOV *SP(#8), AR2 ; |703| 
    1505 00085b 12A8          CMPU AR2 >= AR1, TC1 ; |703| 
         00085d 94   
    1506 00085e 0464          BCC $C$L39,TC1 ; |703| 
         000860 29   
    1507                                                      ; branchcc occurs ; |703| 
    1508 000861       $C$L38:    
    1509 000861       $C$DW$L$_I2C_read$11$B:
    1510                      .dwpsn  file "../c5535_bsl_revc/ezdsp5535_v1/c55xx_csl/src/csl_i2c.c",line 705,column 5,is_stmt
    1511 000861 ED31          MOV dbl(*(#_i2cHandle)), XAR3
         000863 BF00 
         000865 0010-
    1512 000867 AB61          MOV *AR3, AR3 ; |705| 
    1513 000869 1408          AMOV #8, T0
TMS320C55x Assembler PC v4.4.1 Sun Sep 16 02:56:35 2018

Tools Copyright (c) 1996-2012 Texas Instruments Incorporated
csl_i2c.asm                                                          PAGE   38

         00086b 45   
    1514 00086c A96B          MOV port(*AR3(T0)), AR1 ; |705| 
         00086e 99   
    1515 00086f 7D10          AND #0x1000, AR1, AC0 ; |705| 
         000871 0009 
    1516 000873 1005          SFTS AC0, #-12, AC0 ; |705| 
         000875 34   
    1517 000876 C014          MOV AC0, *SP(#10) ; |705| 
    1518                      .dwpsn  file "../c5535_bsl_revc/ezdsp5535_v1/c55xx_csl/src/csl_i2c.c",line 706,column 5,is_stmt
    1519 000878 2209          MOV AC0, AR1
    1520 00087a 6709          BCC $C$L39,AR1 == #0 ; |706| 
    1521                                                      ; branchcc occurs ; |706| 
    1522 00087c       $C$DW$L$_I2C_read$11$E:
    1523 00087c       $C$DW$L$_I2C_read$12$B:
    1524                      .dwpsn  file "../c5535_bsl_revc/ezdsp5535_v1/c55xx_csl/src/csl_i2c.c",line 708,column 6,is_stmt
    1525                      .dwpsn  file "../c5535_bsl_revc/ezdsp5535_v1/c55xx_csl/src/csl_i2c.c",line 703,column 38,is_stmt
    1526 00087c F710          ADD #1, *SP(#8) ; |703| 
         00087e 0001 
    1527                      .dwpsn  file "../c5535_bsl_revc/ezdsp5535_v1/c55xx_csl/src/csl_i2c.c",line 703,column 20,is_stmt
    1528 000880 A90C          MOV *SP(#6), AR1 ; |703| 
    1529 000882 AA10          MOV *SP(#8), AR2 ; |703| 
    1530 000884 12A4          CMPU AR2 < AR1, TC1 ; |703| 
         000886 94   
    1531 000887 0464          BCC $C$L38,TC1 ; |703| 
         000889 D7   
    1532                                                      ; branchcc occurs ; |703| 
    1533 00088a       $C$DW$L$_I2C_read$12$E:
    1534 00088a       $C$L39:    
    1535                      .dwpsn  file "../c5535_bsl_revc/ezdsp5535_v1/c55xx_csl/src/csl_i2c.c",line 712,column 4,is_stmt
    1536 00088a A90C          MOV *SP(#6), AR1 ; |712| 
    1537 00088c AA10          MOV *SP(#8), AR2 ; |712| 
    1538 00088e 12A4          CMPU AR2 < AR1, TC1 ; |712| 
         000890 94   
    1539 000891 63E4          BCC $C$L40,TC1 ; |712| 
    1540                                                      ; branchcc occurs ; |712| 
    1541                      .dwpsn  file "../c5535_bsl_revc/ezdsp5535_v1/c55xx_csl/src/csl_i2c.c",line 715,column 5,is_stmt
    1542 000893 76FF          MOV #-194, T0 ; |715| 
         000895 3E48 
    1543 000897 0600          B $C$L48  ; |715| 
         000899 AC   
    1544                                                      ; branch occurs ; |715| 
    1545 00089a       $C$L40:    
    1546                      .dwpsn  file "../c5535_bsl_revc/ezdsp5535_v1/c55xx_csl/src/csl_i2c.c",line 719,column 7,is_stmt
    1547 00089a E612          MOV #0, *SP(#9) ; |719| 
         00089c 00   
    1548                      .dwpsn  file "../c5535_bsl_revc/ezdsp5535_v1/c55xx_csl/src/csl_i2c.c",line 719,column 22,is_stmt
    1549 00089d A904          MOV *SP(#2), AR1 ; |719| 
    1550 00089f AA12          MOV *SP(#9), AR2 ; |719| 
    1551 0008a1 12A8          CMPU AR2 >= AR1, TC1 ; |719| 
         0008a3 94   
    1552 0008a4 6D64          BCC $C$L47,TC1 ; |719| 
         0008a6 009C 
    1553                                                      ; branchcc occurs ; |719| 
    1554 0008a8       $C$L41:    
    1555 0008a8       $C$DW$L$_I2C_read$16$B:
TMS320C55x Assembler PC v4.4.1 Sun Sep 16 02:56:35 2018

Tools Copyright (c) 1996-2012 Texas Instruments Incorporated
csl_i2c.asm                                                          PAGE   39

    1556                      .dwpsn  file "../c5535_bsl_revc/ezdsp5535_v1/c55xx_csl/src/csl_i2c.c",line 722,column 8,is_stmt
    1557 0008a8 E610          MOV #0, *SP(#8) ; |722| 
         0008aa 00   
    1558                      .dwpsn  file "../c5535_bsl_revc/ezdsp5535_v1/c55xx_csl/src/csl_i2c.c",line 722,column 20,is_stmt
    1559 0008ab A90C          MOV *SP(#6), AR1 ; |722| 
    1560 0008ad AA10          MOV *SP(#8), AR2 ; |722| 
    1561 0008af 12A8          CMPU AR2 >= AR1, TC1 ; |722| 
         0008b1 94   
    1562 0008b2 0464          BCC $C$L43,TC1 ; |722| 
         0008b4 2A   
    1563                                                      ; branchcc occurs ; |722| 
    1564 0008b5       $C$DW$L$_I2C_read$16$E:
    1565 0008b5       $C$L42:    
    1566 0008b5       $C$DW$L$_I2C_read$17$B:
    1567                      .dwpsn  file "../c5535_bsl_revc/ezdsp5535_v1/c55xx_csl/src/csl_i2c.c",line 724,column 5,is_stmt
    1568 0008b5 ED31          MOV dbl(*(#_i2cHandle)), XAR3
         0008b7 BF00 
         0008b9 0010-
    1569 0008bb AB61          MOV *AR3, AR3 ; |724| 
    1570 0008bd 1408          AMOV #8, T0
         0008bf 45   
    1571 0008c0 A96B          MOV port(*AR3(T0)), AR1 ; |724| 
         0008c2 99   
    1572 0008c3 1808          AND #0x0008, AR1, AC0 ; |724| 
         0008c5 09   
    1573 0008c6 1005          SFTS AC0, #-3, AC0 ; |724| 
         0008c8 3D   
    1574 0008c9 C014          MOV AC0, *SP(#10) ; |724| 
    1575                      .dwpsn  file "../c5535_bsl_revc/ezdsp5535_v1/c55xx_csl/src/csl_i2c.c",line 726,column 5,is_stmt
    1576 0008cb F014          CMP *SP(#10) == #1, TC1 ; |726| 
         0008cd 0001 
    1577 0008cf 6764          BCC $C$L43,TC1 ; |726| 
    1578                                                      ; branchcc occurs ; |726| 
    1579 0008d1       $C$DW$L$_I2C_read$17$E:
    1580 0008d1       $C$DW$L$_I2C_read$18$B:
    1581                      .dwpsn  file "../c5535_bsl_revc/ezdsp5535_v1/c55xx_csl/src/csl_i2c.c",line 728,column 6,is_stmt
    1582                      .dwpsn  file "../c5535_bsl_revc/ezdsp5535_v1/c55xx_csl/src/csl_i2c.c",line 722,column 38,is_stmt
    1583 0008d1 F710          ADD #1, *SP(#8) ; |722| 
         0008d3 0001 
    1584                      .dwpsn  file "../c5535_bsl_revc/ezdsp5535_v1/c55xx_csl/src/csl_i2c.c",line 722,column 20,is_stmt
    1585 0008d5 A90C          MOV *SP(#6), AR1 ; |722| 
    1586 0008d7 AA10          MOV *SP(#8), AR2 ; |722| 
    1587 0008d9 12A4          CMPU AR2 < AR1, TC1 ; |722| 
         0008db 94   
    1588 0008dc 0464          BCC $C$L42,TC1 ; |722| 
         0008de D6   
    1589                                                      ; branchcc occurs ; |722| 
    1590 0008df       $C$DW$L$_I2C_read$18$E:
    1591 0008df       $C$L43:    
    1592 0008df       $C$DW$L$_I2C_read$19$B:
    1593                      .dwpsn  file "../c5535_bsl_revc/ezdsp5535_v1/c55xx_csl/src/csl_i2c.c",line 732,column 4,is_stmt
    1594 0008df A90C          MOV *SP(#6), AR1 ; |732| 
    1595 0008e1 AA10          MOV *SP(#8), AR2 ; |732| 
    1596 0008e3 12A4          CMPU AR2 < AR1, TC1 ; |732| 
         0008e5 94   
TMS320C55x Assembler PC v4.4.1 Sun Sep 16 02:56:35 2018

Tools Copyright (c) 1996-2012 Texas Instruments Incorporated
csl_i2c.asm                                                          PAGE   40

    1597 0008e6 63E4          BCC $C$L44,TC1 ; |732| 
    1598                                                      ; branchcc occurs ; |732| 
    1599 0008e8       $C$DW$L$_I2C_read$19$E:
    1600                      .dwpsn  file "../c5535_bsl_revc/ezdsp5535_v1/c55xx_csl/src/csl_i2c.c",line 734,column 5,is_stmt
    1601 0008e8 76FF          MOV #-200, T0 ; |734| 
         0008ea 3848 
    1602 0008ec 0600          B $C$L48  ; |734| 
         0008ee 57   
    1603                                                      ; branch occurs ; |734| 
    1604 0008ef       $C$L44:    
    1605 0008ef       $C$DW$L$_I2C_read$21$B:
    1606                      .dwpsn  file "../c5535_bsl_revc/ezdsp5535_v1/c55xx_csl/src/csl_i2c.c",line 738,column 4,is_stmt
    1607 0008ef ED00          MOV dbl(*SP(#0)), XAR2
         0008f1 AF   
    1608 0008f2 EC41          AMAR *AR2, XAR3
         0008f4 BE   
    1609 0008f5 B463          AMAR *AR3+
    1610 0008f7 EB00          MOV XAR3, dbl(*SP(#0))
         0008f9 B5   
    1611 0008fa ED31          MOV dbl(*(#_i2cHandle)), XAR3
         0008fc BF00 
         0008fe 0010-
    1612 000900 7600          MOV #24, T0 ; |738| 
         000902 1848 
    1613 000904 AB61          MOV *AR3, AR3 ; |738| 
    1614 000906 DF6B          MOV uns(low_byte(port(*AR3(T0)))), AR1 ; |738| 
         000908 93   
         000909 99   
    1615 00090a C941          MOV AR1, *AR2 ; |738| 
    1616                      .dwpsn  file "../c5535_bsl_revc/ezdsp5535_v1/c55xx_csl/src/csl_i2c.c",line 741,column 4,is_stmt
    1617 00090c ED31          MOV dbl(*(#_i2cHandle)), XAR3
         00090e BF00 
         000910 0010-
    1618 000912 AB61          MOV *AR3, AR3 ; |741| 
    1619 000914 1408          AMOV #8, T0
         000916 45   
    1620 000917 A96B          MOV port(*AR3(T0)), AR1 ; |741| 
         000919 99   
    1621 00091a 7D08          AND #0x0800, AR1, AC0 ; |741| 
         00091c 0009 
    1622 00091e 1005          SFTS AC0, #-11, AC0 ; |741| 
         000920 35   
    1623 000921 C014          MOV AC0, *SP(#10) ; |741| 
    1624                      .dwpsn  file "../c5535_bsl_revc/ezdsp5535_v1/c55xx_csl/src/csl_i2c.c",line 742,column 4,is_stmt
    1625 000923 F014          CMP *SP(#10) == #1, TC1 ; |742| 
         000925 0001 
    1626 000927 6374          BCC $C$L45,!TC1 ; |742| 
    1627                                                      ; branchcc occurs ; |742| 
    1628 000929       $C$DW$L$_I2C_read$21$E:
    1629                      .dwpsn  file "../c5535_bsl_revc/ezdsp5535_v1/c55xx_csl/src/csl_i2c.c",line 744,column 5,is_stmt
    1630 000929 76FF          MOV #-198, T0 ; |744| 
         00092b 3A48 
    1631 00092d 4A17          B $C$L48  ; |744| 
    1632                                                      ; branch occurs ; |744| 
    1633 00092f       $C$L45:    
TMS320C55x Assembler PC v4.4.1 Sun Sep 16 02:56:35 2018

Tools Copyright (c) 1996-2012 Texas Instruments Incorporated
csl_i2c.asm                                                          PAGE   41

    1634 00092f       $C$DW$L$_I2C_read$23$B:
    1635                      .dwpsn  file "../c5535_bsl_revc/ezdsp5535_v1/c55xx_csl/src/csl_i2c.c",line 719,column 46,is_stmt
    1636 00092f F712          ADD #1, *SP(#9) ; |719| 
         000931 0001 
    1637                      .dwpsn  file "../c5535_bsl_revc/ezdsp5535_v1/c55xx_csl/src/csl_i2c.c",line 719,column 22,is_stmt
    1638 000933 A904          MOV *SP(#2), AR1 ; |719| 
    1639 000935 AA12          MOV *SP(#9), AR2 ; |719| 
    1640 000937 12A4          CMPU AR2 < AR1, TC1 ; |719| 
         000939 94   
    1641 00093a 6D64          BCC $C$L41,TC1 ; |719| 
         00093c FF6A 
    1642                                                      ; branchcc occurs ; |719| 
    1643 00093e       $C$DW$L$_I2C_read$23$E:
    1644                      .dwpsn  file "../c5535_bsl_revc/ezdsp5535_v1/c55xx_csl/src/csl_i2c.c",line 747,column 2,is_stmt
    1645 00093e 4A04          B $C$L47  ; |747| 
    1646                                                      ; branch occurs ; |747| 
    1647 000940       $C$L46:    
    1648                      .dwpsn  file "../c5535_bsl_revc/ezdsp5535_v1/c55xx_csl/src/csl_i2c.c",line 750,column 3,is_stmt
    1649 000940 3E64          MOV #-6, T0
    1650 000942 4A02          B $C$L48  ; |750| 
    1651                                                      ; branch occurs ; |750| 
    1652 000944       $C$L47:    
    1653                      .dwpsn  file "../c5535_bsl_revc/ezdsp5535_v1/c55xx_csl/src/csl_i2c.c",line 753,column 2,is_stmt
    1654 000944 3C04          MOV #0, T0
    1655 000946       $C$L48:    
    1656                      .dwpsn  file "../c5535_bsl_revc/ezdsp5535_v1/c55xx_csl/src/csl_i2c.c",line 754,column 1,is_stmt
    1657 000946 4E0B          AADD #11, SP
    1658                      .dwcfi  cfa_offset, 1
    1659              $C$DW$82        .dwtag  DW_TAG_TI_branch
    1660                      .dwattr $C$DW$82, DW_AT_low_pc(0x00)
    1661                      .dwattr $C$DW$82, DW_AT_TI_return
    1662 000948 4804          RET
    1663                                                      ; return occurs
    1664              
    1665              $C$DW$83        .dwtag  DW_TAG_TI_loop
    1666                      .dwattr $C$DW$83, DW_AT_name("F:\eZdsp_DBG\eZDSP_5535_Files\ccsws2\test\Debug\csl_i2c.asm:$C$L41:1:15
    1667                      .dwattr $C$DW$83, DW_AT_TI_begin_file("../c5535_bsl_revc/ezdsp5535_v1/c55xx_csl/src/csl_i2c.c")
    1668                      .dwattr $C$DW$83, DW_AT_TI_begin_line(0x2cf)
    1669                      .dwattr $C$DW$83, DW_AT_TI_end_line(0x2ea)
    1670              $C$DW$84        .dwtag  DW_TAG_TI_loop_range
    1671                      .dwattr $C$DW$84, DW_AT_low_pc($C$DW$L$_I2C_read$16$B)
    1672                      .dwattr $C$DW$84, DW_AT_high_pc($C$DW$L$_I2C_read$16$E)
    1673              $C$DW$85        .dwtag  DW_TAG_TI_loop_range
    1674                      .dwattr $C$DW$85, DW_AT_low_pc($C$DW$L$_I2C_read$19$B)
    1675                      .dwattr $C$DW$85, DW_AT_high_pc($C$DW$L$_I2C_read$19$E)
    1676              $C$DW$86        .dwtag  DW_TAG_TI_loop_range
    1677                      .dwattr $C$DW$86, DW_AT_low_pc($C$DW$L$_I2C_read$21$B)
    1678                      .dwattr $C$DW$86, DW_AT_high_pc($C$DW$L$_I2C_read$21$E)
    1679              $C$DW$87        .dwtag  DW_TAG_TI_loop_range
    1680                      .dwattr $C$DW$87, DW_AT_low_pc($C$DW$L$_I2C_read$23$B)
    1681                      .dwattr $C$DW$87, DW_AT_high_pc($C$DW$L$_I2C_read$23$E)
    1682              
    1683              $C$DW$88        .dwtag  DW_TAG_TI_loop
    1684                      .dwattr $C$DW$88, DW_AT_name("F:\eZdsp_DBG\eZDSP_5535_Files\ccsws2\test\Debug\csl_i2c.asm:$C$L42:2:15
    1685                      .dwattr $C$DW$88, DW_AT_TI_begin_file("../c5535_bsl_revc/ezdsp5535_v1/c55xx_csl/src/csl_i2c.c")
TMS320C55x Assembler PC v4.4.1 Sun Sep 16 02:56:35 2018

Tools Copyright (c) 1996-2012 Texas Instruments Incorporated
csl_i2c.asm                                                          PAGE   42

    1686                      .dwattr $C$DW$88, DW_AT_TI_begin_line(0x2d2)
    1687                      .dwattr $C$DW$88, DW_AT_TI_end_line(0x2da)
    1688              $C$DW$89        .dwtag  DW_TAG_TI_loop_range
    1689                      .dwattr $C$DW$89, DW_AT_low_pc($C$DW$L$_I2C_read$17$B)
    1690                      .dwattr $C$DW$89, DW_AT_high_pc($C$DW$L$_I2C_read$17$E)
    1691              $C$DW$90        .dwtag  DW_TAG_TI_loop_range
    1692                      .dwattr $C$DW$90, DW_AT_low_pc($C$DW$L$_I2C_read$18$B)
    1693                      .dwattr $C$DW$90, DW_AT_high_pc($C$DW$L$_I2C_read$18$E)
    1694                      .dwendtag $C$DW$88
    1695              
    1696                      .dwendtag $C$DW$83
    1697              
    1698              
    1699              $C$DW$91        .dwtag  DW_TAG_TI_loop
    1700                      .dwattr $C$DW$91, DW_AT_name("F:\eZdsp_DBG\eZDSP_5535_Files\ccsws2\test\Debug\csl_i2c.asm:$C$L38:1:15
    1701                      .dwattr $C$DW$91, DW_AT_TI_begin_file("../c5535_bsl_revc/ezdsp5535_v1/c55xx_csl/src/csl_i2c.c")
    1702                      .dwattr $C$DW$91, DW_AT_TI_begin_line(0x2bf)
    1703                      .dwattr $C$DW$91, DW_AT_TI_end_line(0x2c6)
    1704              $C$DW$92        .dwtag  DW_TAG_TI_loop_range
    1705                      .dwattr $C$DW$92, DW_AT_low_pc($C$DW$L$_I2C_read$11$B)
    1706                      .dwattr $C$DW$92, DW_AT_high_pc($C$DW$L$_I2C_read$11$E)
    1707              $C$DW$93        .dwtag  DW_TAG_TI_loop_range
    1708                      .dwattr $C$DW$93, DW_AT_low_pc($C$DW$L$_I2C_read$12$B)
    1709                      .dwattr $C$DW$93, DW_AT_high_pc($C$DW$L$_I2C_read$12$E)
    1710                      .dwendtag $C$DW$91
    1711              
    1712                      .dwattr $C$DW$64, DW_AT_TI_end_file("../c5535_bsl_revc/ezdsp5535_v1/c55xx_csl/src/csl_i2c.c")
    1713                      .dwattr $C$DW$64, DW_AT_TI_end_line(0x2f2)
    1714                      .dwattr $C$DW$64, DW_AT_TI_end_column(0x01)
    1715                      .dwendentry
    1716                      .dwendtag $C$DW$64
    1717              
    1718 00094a               .sect   ".text"
    1719                      .align 4
    1720                      .global _I2C_eventEnable
    1721              
    1722              $C$DW$94        .dwtag  DW_TAG_subprogram, DW_AT_name("I2C_eventEnable")
    1723                      .dwattr $C$DW$94, DW_AT_low_pc(_I2C_eventEnable)
    1724                      .dwattr $C$DW$94, DW_AT_high_pc(0x00)
    1725                      .dwattr $C$DW$94, DW_AT_TI_symbol_name("_I2C_eventEnable")
    1726                      .dwattr $C$DW$94, DW_AT_external
    1727                      .dwattr $C$DW$94, DW_AT_type(*$C$DW$T$69)
    1728                      .dwattr $C$DW$94, DW_AT_TI_begin_file("../c5535_bsl_revc/ezdsp5535_v1/c55xx_csl/src/csl_i2c.c")
    1729                      .dwattr $C$DW$94, DW_AT_TI_begin_line(0x31a)
    1730                      .dwattr $C$DW$94, DW_AT_TI_begin_column(0x0c)
    1731                      .dwattr $C$DW$94, DW_AT_TI_max_frame_size(0x04)
    1732                      .dwpsn  file "../c5535_bsl_revc/ezdsp5535_v1/c55xx_csl/src/csl_i2c.c",line 795,column 1,is_stmt,addre
    1733              
    1734                      .dwfde $C$DW$CIE, _I2C_eventEnable
    1735              $C$DW$95        .dwtag  DW_TAG_formal_parameter, DW_AT_name("i2cEvent")
    1736                      .dwattr $C$DW$95, DW_AT_TI_symbol_name("_i2cEvent")
    1737                      .dwattr $C$DW$95, DW_AT_type(*$C$DW$T$57)
    1738                      .dwattr $C$DW$95, DW_AT_location[DW_OP_reg12]
    1739              ;*******************************************************************************
    1740              ;* FUNCTION NAME: I2C_eventEnable                                              *
TMS320C55x Assembler PC v4.4.1 Sun Sep 16 02:56:35 2018

Tools Copyright (c) 1996-2012 Texas Instruments Incorporated
csl_i2c.asm                                                          PAGE   43

    1741              ;*                                                                             *
    1742              ;*   Function Uses Regs : T0,AR1,AR2,AR3,XAR3,SP,TC1,M40,SATA,SATD,RDM,FRCT,   *
    1743              ;*                        SMUL                                                 *
    1744              ;*   Stack Frame        : Compact (No Frame Pointer, w/ debug)                 *
    1745              ;*   Total Frame Size   : 4 words                                              *
    1746              ;*                        (2 return address/alignment)                         *
    1747              ;*                        (2 local values)                                     *
    1748              ;*   Min System Stack   : 1 word                                               *
    1749              ;*******************************************************************************
    1750 00094c       _I2C_eventEnable:
    1751                      .dwcfi  cfa_offset, 1
    1752                      .dwcfi  save_reg_to_mem, 91, -1
    1753 00094c 4EFD          AADD #-3, SP
    1754                      .dwcfi  cfa_offset, 4
    1755              $C$DW$96        .dwtag  DW_TAG_variable, DW_AT_name("i2cEvent")
    1756                      .dwattr $C$DW$96, DW_AT_TI_symbol_name("_i2cEvent")
    1757                      .dwattr $C$DW$96, DW_AT_type(*$C$DW$T$57)
    1758                      .dwattr $C$DW$96, DW_AT_location[DW_OP_bregx 0x24 0]
    1759              $C$DW$97        .dwtag  DW_TAG_variable, DW_AT_name("status")
    1760                      .dwattr $C$DW$97, DW_AT_TI_symbol_name("_status")
    1761                      .dwattr $C$DW$97, DW_AT_type(*$C$DW$T$69)
    1762                      .dwattr $C$DW$97, DW_AT_location[DW_OP_bregx 0x24 1]
    1763 00094e C400          MOV T0, *SP(#0) ; |795| 
    1764                      .dwpsn  file "../c5535_bsl_revc/ezdsp5535_v1/c55xx_csl/src/csl_i2c.c",line 798,column 2,is_stmt
    1765 000950 E602          MOV #0, *SP(#1) ; |798| 
         000952 00   
    1766                      .dwpsn  file "../c5535_bsl_revc/ezdsp5535_v1/c55xx_csl/src/csl_i2c.c",line 800,column 2,is_stmt
    1767 000953 0600          B $C$L57  ; |800| 
         000955 DF   
    1768                                                      ; branch occurs ; |800| 
    1769 000956       $C$L49:    
    1770                      .dwpsn  file "../c5535_bsl_revc/ezdsp5535_v1/c55xx_csl/src/csl_i2c.c",line 804,column 4,is_stmt
    1771 000956 ED31          MOV dbl(*(#_i2cHandle)), XAR3
         000958 BF00 
         00095a 0010-
    1772 00095c AB61          MOV *AR3, AR3 ; |804| 
    1773 00095e A979          MOV port(*AR3(short(#4))), AR1 ; |804| 
         000960 99   
    1774 000961 ED31          MOV dbl(*(#_i2cHandle)), XAR3
         000963 BF00 
         000965 0010-
    1775 000967 AB61          MOV *AR3, AR3 ; |804| 
    1776 000969 EC00          BCLR @#0, AR1 ; |804| 
         00096b 92   
    1777 00096c EC00          BSET @#0, AR1 ; |804| 
         00096e 90   
    1778 00096f C979          MOV AR1, port(*AR3(short(#4))) ; |804| 
         000971 9A   
    1779                      .dwpsn  file "../c5535_bsl_revc/ezdsp5535_v1/c55xx_csl/src/csl_i2c.c",line 805,column 9,is_stmt
    1780 000972 0601          B $C$L59  ; |805| 
         000974 05   
    1781                                                      ; branch occurs ; |805| 
    1782 000975       $C$L50:    
    1783                      .dwpsn  file "../c5535_bsl_revc/ezdsp5535_v1/c55xx_csl/src/csl_i2c.c",line 809,column 4,is_stmt
    1784 000975 ED31          MOV dbl(*(#_i2cHandle)), XAR3
TMS320C55x Assembler PC v4.4.1 Sun Sep 16 02:56:35 2018

Tools Copyright (c) 1996-2012 Texas Instruments Incorporated
csl_i2c.asm                                                          PAGE   44

         000977 BF00 
         000979 0010-
    1785 00097b AB61          MOV *AR3, AR3 ; |809| 
    1786 00097d A979          MOV port(*AR3(short(#4))), AR1 ; |809| 
         00097f 99   
    1787 000980 ED31          MOV dbl(*(#_i2cHandle)), XAR3
         000982 BF00 
         000984 0010-
    1788 000986 AB61          MOV *AR3, AR3 ; |809| 
    1789 000988 EC02          BCLR @#1, AR1 ; |809| 
         00098a 92   
    1790 00098b EC02          BSET @#1, AR1 ; |809| 
         00098d 90   
    1791 00098e C979          MOV AR1, port(*AR3(short(#4))) ; |809| 
         000990 9A   
    1792                      .dwpsn  file "../c5535_bsl_revc/ezdsp5535_v1/c55xx_csl/src/csl_i2c.c",line 810,column 9,is_stmt
    1793 000991 0600          B $C$L59  ; |810| 
         000993 E6   
    1794                                                      ; branch occurs ; |810| 
    1795 000994       $C$L51:    
    1796                      .dwpsn  file "../c5535_bsl_revc/ezdsp5535_v1/c55xx_csl/src/csl_i2c.c",line 814,column 4,is_stmt
    1797 000994 ED31          MOV dbl(*(#_i2cHandle)), XAR3
         000996 BF00 
         000998 0010-
    1798 00099a AB61          MOV *AR3, AR3 ; |814| 
    1799 00099c A979          MOV port(*AR3(short(#4))), AR1 ; |814| 
         00099e 99   
    1800 00099f ED31          MOV dbl(*(#_i2cHandle)), XAR3
         0009a1 BF00 
         0009a3 0010-
    1801 0009a5 AB61          MOV *AR3, AR3 ; |814| 
    1802 0009a7 EC04          BCLR @#2, AR1 ; |814| 
         0009a9 92   
    1803 0009aa EC04          BSET @#2, AR1 ; |814| 
         0009ac 90   
    1804 0009ad C979          MOV AR1, port(*AR3(short(#4))) ; |814| 
         0009af 9A   
    1805                      .dwpsn  file "../c5535_bsl_revc/ezdsp5535_v1/c55xx_csl/src/csl_i2c.c",line 815,column 9,is_stmt
    1806 0009b0 0600          B $C$L59  ; |815| 
         0009b2 C7   
    1807                                                      ; branch occurs ; |815| 
    1808 0009b3       $C$L52:    
    1809                      .dwpsn  file "../c5535_bsl_revc/ezdsp5535_v1/c55xx_csl/src/csl_i2c.c",line 819,column 4,is_stmt
    1810 0009b3 ED31          MOV dbl(*(#_i2cHandle)), XAR3
         0009b5 BF00 
         0009b7 0010-
    1811 0009b9 AB61          MOV *AR3, AR3 ; |819| 
    1812 0009bb A979          MOV port(*AR3(short(#4))), AR1 ; |819| 
         0009bd 99   
    1813 0009be ED31          MOV dbl(*(#_i2cHandle)), XAR3
         0009c0 BF00 
         0009c2 0010-
    1814 0009c4 AB61          MOV *AR3, AR3 ; |819| 
    1815 0009c6 EC06          BCLR @#3, AR1 ; |819| 
         0009c8 92   
TMS320C55x Assembler PC v4.4.1 Sun Sep 16 02:56:35 2018

Tools Copyright (c) 1996-2012 Texas Instruments Incorporated
csl_i2c.asm                                                          PAGE   45

    1816 0009c9 EC06          BSET @#3, AR1 ; |819| 
         0009cb 90   
    1817 0009cc C979          MOV AR1, port(*AR3(short(#4))) ; |819| 
         0009ce 9A   
    1818                      .dwpsn  file "../c5535_bsl_revc/ezdsp5535_v1/c55xx_csl/src/csl_i2c.c",line 820,column 9,is_stmt
    1819 0009cf 0600          B $C$L59  ; |820| 
         0009d1 A8   
    1820                                                      ; branch occurs ; |820| 
    1821 0009d2       $C$L53:    
    1822                      .dwpsn  file "../c5535_bsl_revc/ezdsp5535_v1/c55xx_csl/src/csl_i2c.c",line 824,column 4,is_stmt
    1823 0009d2 ED31          MOV dbl(*(#_i2cHandle)), XAR3
         0009d4 BF00 
         0009d6 0010-
    1824 0009d8 AB61          MOV *AR3, AR3 ; |824| 
    1825 0009da A979          MOV port(*AR3(short(#4))), AR1 ; |824| 
         0009dc 99   
    1826 0009dd ED31          MOV dbl(*(#_i2cHandle)), XAR3
         0009df BF00 
         0009e1 0010-
    1827 0009e3 AB61          MOV *AR3, AR3 ; |824| 
    1828 0009e5 EC08          BCLR @#4, AR1 ; |824| 
         0009e7 92   
    1829 0009e8 EC08          BSET @#4, AR1 ; |824| 
         0009ea 90   
    1830 0009eb C979          MOV AR1, port(*AR3(short(#4))) ; |824| 
         0009ed 9A   
    1831                      .dwpsn  file "../c5535_bsl_revc/ezdsp5535_v1/c55xx_csl/src/csl_i2c.c",line 825,column 9,is_stmt
    1832 0009ee 0600          B $C$L59  ; |825| 
         0009f0 89   
    1833                                                      ; branch occurs ; |825| 
    1834 0009f1       $C$L54:    
    1835                      .dwpsn  file "../c5535_bsl_revc/ezdsp5535_v1/c55xx_csl/src/csl_i2c.c",line 829,column 4,is_stmt
    1836 0009f1 ED31          MOV dbl(*(#_i2cHandle)), XAR3
         0009f3 BF00 
         0009f5 0010-
    1837 0009f7 AB61          MOV *AR3, AR3 ; |829| 
    1838 0009f9 A979          MOV port(*AR3(short(#4))), AR1 ; |829| 
         0009fb 99   
    1839 0009fc ED31          MOV dbl(*(#_i2cHandle)), XAR3
         0009fe BF00 
         000a00 0010-
    1840 000a02 AB61          MOV *AR3, AR3 ; |829| 
    1841 000a04 EC0A          BCLR @#5, AR1 ; |829| 
         000a06 92   
    1842 000a07 EC0A          BSET @#5, AR1 ; |829| 
         000a09 90   
    1843 000a0a C979          MOV AR1, port(*AR3(short(#4))) ; |829| 
         000a0c 9A   
    1844                      .dwpsn  file "../c5535_bsl_revc/ezdsp5535_v1/c55xx_csl/src/csl_i2c.c",line 830,column 9,is_stmt
    1845 000a0d 0600          B $C$L59  ; |830| 
         000a0f 6A   
    1846                                                      ; branch occurs ; |830| 
    1847 000a10       $C$L55:    
    1848                      .dwpsn  file "../c5535_bsl_revc/ezdsp5535_v1/c55xx_csl/src/csl_i2c.c",line 834,column 4,is_stmt
    1849 000a10 ED31          MOV dbl(*(#_i2cHandle)), XAR3
TMS320C55x Assembler PC v4.4.1 Sun Sep 16 02:56:35 2018

Tools Copyright (c) 1996-2012 Texas Instruments Incorporated
csl_i2c.asm                                                          PAGE   46

         000a12 BF00 
         000a14 0010-
    1850 000a16 AB61          MOV *AR3, AR3 ; |834| 
    1851 000a18 A979          MOV port(*AR3(short(#4))), AR1 ; |834| 
         000a1a 99   
    1852 000a1b ED31          MOV dbl(*(#_i2cHandle)), XAR3
         000a1d BF00 
         000a1f 0010-
    1853 000a21 AB61          MOV *AR3, AR3 ; |834| 
    1854 000a23 EC0C          BCLR @#6, AR1 ; |834| 
         000a25 92   
    1855 000a26 EC0C          BSET @#6, AR1 ; |834| 
         000a28 90   
    1856 000a29 C979          MOV AR1, port(*AR3(short(#4))) ; |834| 
         000a2b 9A   
    1857                      .dwpsn  file "../c5535_bsl_revc/ezdsp5535_v1/c55xx_csl/src/csl_i2c.c",line 835,column 9,is_stmt
    1858 000a2c 0600          B $C$L59  ; |835| 
         000a2e 4B   
    1859                                                      ; branch occurs ; |835| 
    1860 000a2f       $C$L56:    
    1861                      .dwpsn  file "../c5535_bsl_revc/ezdsp5535_v1/c55xx_csl/src/csl_i2c.c",line 838,column 4,is_stmt
    1862 000a2f E602          MOV #-6, *SP(#1) ; |838| 
         000a31 FA   
    1863                      .dwpsn  file "../c5535_bsl_revc/ezdsp5535_v1/c55xx_csl/src/csl_i2c.c",line 839,column 9,is_stmt
    1864 000a32 0600          B $C$L59  ; |839| 
         000a34 45   
    1865                                                      ; branch occurs ; |839| 
    1866 000a35       $C$L57:    
    1867                      .dwpsn  file "../c5535_bsl_revc/ezdsp5535_v1/c55xx_csl/src/csl_i2c.c",line 800,column 2,is_stmt
    1868              
    1869 000a35 A900          MOV *SP(#0), AR1 ; |800| 
    1870 000a37 3D3A  ||      MOV #3, AR2
    1871              
    1872 000a39 12A4          CMP AR1 > AR2, TC1 ; |800| 
         000a3b 90   
    1873 000a3c 0464          BCC $C$L58,TC1 ; |800| 
         000a3e 1F   
    1874                                                      ; branchcc occurs ; |800| 
    1875 000a3f 1290          CMP AR1 == AR2, TC1 ; |800| 
         000a41 A0   
    1876 000a42 6D64          BCC $C$L52,TC1 ; |800| 
         000a44 FF6D 
    1877                                                      ; branchcc occurs ; |800| 
    1878 000a46 6D09          BCC $C$L49,AR1 == #0 ; |800| 
         000a48 FF0C 
    1879                                                      ; branchcc occurs ; |800| 
    1880 000a4a 3C1A          MOV #1, AR2
    1881 000a4c 1290          CMP AR1 == AR2, TC1 ; |800| 
         000a4e A0   
    1882 000a4f 6D64          BCC $C$L50,TC1 ; |800| 
         000a51 FF22 
    1883                                                      ; branchcc occurs ; |800| 
    1884 000a53 3C2A          MOV #2, AR2
    1885 000a55 1290          CMP AR1 == AR2, TC1 ; |800| 
         000a57 A0   
TMS320C55x Assembler PC v4.4.1 Sun Sep 16 02:56:35 2018

Tools Copyright (c) 1996-2012 Texas Instruments Incorporated
csl_i2c.asm                                                          PAGE   47

    1886 000a58 6D64          BCC $C$L51,TC1 ; |800| 
         000a5a FF38 
    1887                                                      ; branchcc occurs ; |800| 
    1888 000a5c 4A51          B $C$L56  ; |800| 
    1889                                                      ; branch occurs ; |800| 
    1890 000a5e       $C$L58:    
    1891 000a5e 3C4A          MOV #4, AR2
    1892 000a60 1290          CMP AR1 == AR2, TC1 ; |800| 
         000a62 A0   
    1893 000a63 6D64          BCC $C$L53,TC1 ; |800| 
         000a65 FF6B 
    1894                                                      ; branchcc occurs ; |800| 
    1895 000a67 3C5A          MOV #5, AR2
    1896 000a69 1290          CMP AR1 == AR2, TC1 ; |800| 
         000a6b A0   
    1897 000a6c 0464          BCC $C$L54,TC1 ; |800| 
         000a6e 82   
    1898                                                      ; branchcc occurs ; |800| 
    1899 000a6f 3C6A          MOV #6, AR2
    1900 000a71 1290          CMP AR1 == AR2, TC1 ; |800| 
         000a73 A0   
    1901 000a74 0464          BCC $C$L55,TC1 ; |800| 
         000a76 99   
    1902                                                      ; branchcc occurs ; |800| 
    1903 000a77 06FF          B $C$L56  ; |800| 
         000a79 B5   
    1904                                                      ; branch occurs ; |800| 
    1905 000a7a       $C$L59:    
    1906                      .dwpsn  file "../c5535_bsl_revc/ezdsp5535_v1/c55xx_csl/src/csl_i2c.c",line 842,column 2,is_stmt
    1907 000a7a A402          MOV *SP(#1), T0 ; |842| 
    1908                      .dwpsn  file "../c5535_bsl_revc/ezdsp5535_v1/c55xx_csl/src/csl_i2c.c",line 843,column 1,is_stmt
    1909 000a7c 4E03          AADD #3, SP
    1910                      .dwcfi  cfa_offset, 1
    1911              $C$DW$98        .dwtag  DW_TAG_TI_branch
    1912                      .dwattr $C$DW$98, DW_AT_low_pc(0x00)
    1913                      .dwattr $C$DW$98, DW_AT_TI_return
    1914 000a7e 4804          RET
    1915                                                      ; return occurs
    1916                      .dwattr $C$DW$94, DW_AT_TI_end_file("../c5535_bsl_revc/ezdsp5535_v1/c55xx_csl/src/csl_i2c.c")
    1917                      .dwattr $C$DW$94, DW_AT_TI_end_line(0x34b)
    1918                      .dwattr $C$DW$94, DW_AT_TI_end_column(0x01)
    1919                      .dwendentry
    1920                      .dwendtag $C$DW$94
    1921              
    1922 000a80               .sect   ".text"
    1923                      .align 4
    1924                      .global _I2C_eventDisable
    1925              
    1926              $C$DW$99        .dwtag  DW_TAG_subprogram, DW_AT_name("I2C_eventDisable")
    1927                      .dwattr $C$DW$99, DW_AT_low_pc(_I2C_eventDisable)
    1928                      .dwattr $C$DW$99, DW_AT_high_pc(0x00)
    1929                      .dwattr $C$DW$99, DW_AT_TI_symbol_name("_I2C_eventDisable")
    1930                      .dwattr $C$DW$99, DW_AT_external
    1931                      .dwattr $C$DW$99, DW_AT_type(*$C$DW$T$69)
    1932                      .dwattr $C$DW$99, DW_AT_TI_begin_file("../c5535_bsl_revc/ezdsp5535_v1/c55xx_csl/src/csl_i2c.c")
TMS320C55x Assembler PC v4.4.1 Sun Sep 16 02:56:35 2018

Tools Copyright (c) 1996-2012 Texas Instruments Incorporated
csl_i2c.asm                                                          PAGE   48

    1933                      .dwattr $C$DW$99, DW_AT_TI_begin_line(0x376)
    1934                      .dwattr $C$DW$99, DW_AT_TI_begin_column(0x0c)
    1935                      .dwattr $C$DW$99, DW_AT_TI_max_frame_size(0x04)
    1936                      .dwpsn  file "../c5535_bsl_revc/ezdsp5535_v1/c55xx_csl/src/csl_i2c.c",line 887,column 1,is_stmt,addre
    1937              
    1938                      .dwfde $C$DW$CIE, _I2C_eventDisable
    1939              $C$DW$100       .dwtag  DW_TAG_formal_parameter, DW_AT_name("i2cEvent")
    1940                      .dwattr $C$DW$100, DW_AT_TI_symbol_name("_i2cEvent")
    1941                      .dwattr $C$DW$100, DW_AT_type(*$C$DW$T$57)
    1942                      .dwattr $C$DW$100, DW_AT_location[DW_OP_reg12]
    1943              ;*******************************************************************************
    1944              ;* FUNCTION NAME: I2C_eventDisable                                             *
    1945              ;*                                                                             *
    1946              ;*   Function Uses Regs : T0,AR1,AR2,AR3,XAR3,SP,TC1,M40,SATA,SATD,RDM,FRCT,   *
    1947              ;*                        SMUL                                                 *
    1948              ;*   Stack Frame        : Compact (No Frame Pointer, w/ debug)                 *
    1949              ;*   Total Frame Size   : 4 words                                              *
    1950              ;*                        (2 return address/alignment)                         *
    1951              ;*                        (2 local values)                                     *
    1952              ;*   Min System Stack   : 1 word                                               *
    1953              ;*******************************************************************************
    1954 000a80       _I2C_eventDisable:
    1955                      .dwcfi  cfa_offset, 1
    1956                      .dwcfi  save_reg_to_mem, 91, -1
    1957 000a80 4EFD          AADD #-3, SP
    1958                      .dwcfi  cfa_offset, 4
    1959              $C$DW$101       .dwtag  DW_TAG_variable, DW_AT_name("i2cEvent")
    1960                      .dwattr $C$DW$101, DW_AT_TI_symbol_name("_i2cEvent")
    1961                      .dwattr $C$DW$101, DW_AT_type(*$C$DW$T$57)
    1962                      .dwattr $C$DW$101, DW_AT_location[DW_OP_bregx 0x24 0]
    1963              $C$DW$102       .dwtag  DW_TAG_variable, DW_AT_name("status")
    1964                      .dwattr $C$DW$102, DW_AT_TI_symbol_name("_status")
    1965                      .dwattr $C$DW$102, DW_AT_type(*$C$DW$T$69)
    1966                      .dwattr $C$DW$102, DW_AT_location[DW_OP_bregx 0x24 1]
    1967 000a82 C400          MOV T0, *SP(#0) ; |887| 
    1968                      .dwpsn  file "../c5535_bsl_revc/ezdsp5535_v1/c55xx_csl/src/csl_i2c.c",line 890,column 2,is_stmt
    1969 000a84 E602          MOV #0, *SP(#1) ; |890| 
         000a86 00   
    1970                      .dwpsn  file "../c5535_bsl_revc/ezdsp5535_v1/c55xx_csl/src/csl_i2c.c",line 892,column 2,is_stmt
    1971 000a87 0600          B $C$L68  ; |892| 
         000a89 CA   
    1972                                                      ; branch occurs ; |892| 
    1973 000a8a       $C$L60:    
    1974                      .dwpsn  file "../c5535_bsl_revc/ezdsp5535_v1/c55xx_csl/src/csl_i2c.c",line 896,column 4,is_stmt
    1975 000a8a ED31          MOV dbl(*(#_i2cHandle)), XAR3
         000a8c BF00 
         000a8e 0010-
    1976 000a90 AB61          MOV *AR3, AR3 ; |896| 
    1977 000a92 A979          MOV port(*AR3(short(#4))), AR1 ; |896| 
         000a94 99   
    1978 000a95 ED31          MOV dbl(*(#_i2cHandle)), XAR3
         000a97 BF00 
         000a99 0010-
    1979 000a9b AB61          MOV *AR3, AR3 ; |896| 
    1980 000a9d EC00          BCLR @#0, AR1 ; |896| 
TMS320C55x Assembler PC v4.4.1 Sun Sep 16 02:56:35 2018

Tools Copyright (c) 1996-2012 Texas Instruments Incorporated
csl_i2c.asm                                                          PAGE   49

         000a9f 92   
    1981 000aa0 C979          MOV AR1, port(*AR3(short(#4))) ; |896| 
         000aa2 9A   
    1982                      .dwpsn  file "../c5535_bsl_revc/ezdsp5535_v1/c55xx_csl/src/csl_i2c.c",line 897,column 9,is_stmt
    1983 000aa3 0600          B $C$L70  ; |897| 
         000aa5 F3   
    1984                                                      ; branch occurs ; |897| 
    1985 000aa6       $C$L61:    
    1986                      .dwpsn  file "../c5535_bsl_revc/ezdsp5535_v1/c55xx_csl/src/csl_i2c.c",line 901,column 4,is_stmt
    1987 000aa6 ED31          MOV dbl(*(#_i2cHandle)), XAR3
         000aa8 BF00 
         000aaa 0010-
    1988 000aac AB61          MOV *AR3, AR3 ; |901| 
    1989 000aae A979          MOV port(*AR3(short(#4))), AR1 ; |901| 
         000ab0 99   
    1990 000ab1 ED31          MOV dbl(*(#_i2cHandle)), XAR3
         000ab3 BF00 
         000ab5 0010-
    1991 000ab7 AB61          MOV *AR3, AR3 ; |901| 
    1992 000ab9 EC02          BCLR @#1, AR1 ; |901| 
         000abb 92   
    1993 000abc C979          MOV AR1, port(*AR3(short(#4))) ; |901| 
         000abe 9A   
    1994                      .dwpsn  file "../c5535_bsl_revc/ezdsp5535_v1/c55xx_csl/src/csl_i2c.c",line 902,column 9,is_stmt
    1995 000abf 0600          B $C$L70  ; |902| 
         000ac1 D7   
    1996                                                      ; branch occurs ; |902| 
    1997 000ac2       $C$L62:    
    1998                      .dwpsn  file "../c5535_bsl_revc/ezdsp5535_v1/c55xx_csl/src/csl_i2c.c",line 906,column 4,is_stmt
    1999 000ac2 ED31          MOV dbl(*(#_i2cHandle)), XAR3
         000ac4 BF00 
         000ac6 0010-
    2000 000ac8 AB61          MOV *AR3, AR3 ; |906| 
    2001 000aca A979          MOV port(*AR3(short(#4))), AR1 ; |906| 
         000acc 99   
    2002 000acd ED31          MOV dbl(*(#_i2cHandle)), XAR3
         000acf BF00 
         000ad1 0010-
    2003 000ad3 AB61          MOV *AR3, AR3 ; |906| 
    2004 000ad5 EC04          BCLR @#2, AR1 ; |906| 
         000ad7 92   
    2005 000ad8 C979          MOV AR1, port(*AR3(short(#4))) ; |906| 
         000ada 9A   
    2006                      .dwpsn  file "../c5535_bsl_revc/ezdsp5535_v1/c55xx_csl/src/csl_i2c.c",line 907,column 9,is_stmt
    2007 000adb 0600          B $C$L70  ; |907| 
         000add BB   
    2008                                                      ; branch occurs ; |907| 
    2009 000ade       $C$L63:    
    2010                      .dwpsn  file "../c5535_bsl_revc/ezdsp5535_v1/c55xx_csl/src/csl_i2c.c",line 911,column 4,is_stmt
    2011 000ade ED31          MOV dbl(*(#_i2cHandle)), XAR3
         000ae0 BF00 
         000ae2 0010-
    2012 000ae4 AB61          MOV *AR3, AR3 ; |911| 
    2013 000ae6 A979          MOV port(*AR3(short(#4))), AR1 ; |911| 
         000ae8 99   
TMS320C55x Assembler PC v4.4.1 Sun Sep 16 02:56:35 2018

Tools Copyright (c) 1996-2012 Texas Instruments Incorporated
csl_i2c.asm                                                          PAGE   50

    2014 000ae9 ED31          MOV dbl(*(#_i2cHandle)), XAR3
         000aeb BF00 
         000aed 0010-
    2015 000aef AB61          MOV *AR3, AR3 ; |911| 
    2016 000af1 EC06          BCLR @#3, AR1 ; |911| 
         000af3 92   
    2017 000af4 C979          MOV AR1, port(*AR3(short(#4))) ; |911| 
         000af6 9A   
    2018                      .dwpsn  file "../c5535_bsl_revc/ezdsp5535_v1/c55xx_csl/src/csl_i2c.c",line 912,column 9,is_stmt
    2019 000af7 0600          B $C$L70  ; |912| 
         000af9 9F   
    2020                                                      ; branch occurs ; |912| 
    2021 000afa       $C$L64:    
    2022                      .dwpsn  file "../c5535_bsl_revc/ezdsp5535_v1/c55xx_csl/src/csl_i2c.c",line 916,column 4,is_stmt
    2023 000afa ED31          MOV dbl(*(#_i2cHandle)), XAR3
         000afc BF00 
         000afe 0010-
    2024 000b00 AB61          MOV *AR3, AR3 ; |916| 
    2025 000b02 A979          MOV port(*AR3(short(#4))), AR1 ; |916| 
         000b04 99   
    2026 000b05 ED31          MOV dbl(*(#_i2cHandle)), XAR3
         000b07 BF00 
         000b09 0010-
    2027 000b0b AB61          MOV *AR3, AR3 ; |916| 
    2028 000b0d EC08          BCLR @#4, AR1 ; |916| 
         000b0f 92   
    2029 000b10 C979          MOV AR1, port(*AR3(short(#4))) ; |916| 
         000b12 9A   
    2030                      .dwpsn  file "../c5535_bsl_revc/ezdsp5535_v1/c55xx_csl/src/csl_i2c.c",line 917,column 9,is_stmt
    2031 000b13 0600          B $C$L70  ; |917| 
         000b15 83   
    2032                                                      ; branch occurs ; |917| 
    2033 000b16       $C$L65:    
    2034                      .dwpsn  file "../c5535_bsl_revc/ezdsp5535_v1/c55xx_csl/src/csl_i2c.c",line 921,column 4,is_stmt
    2035 000b16 ED31          MOV dbl(*(#_i2cHandle)), XAR3
         000b18 BF00 
         000b1a 0010-
    2036 000b1c AB61          MOV *AR3, AR3 ; |921| 
    2037 000b1e A979          MOV port(*AR3(short(#4))), AR1 ; |921| 
         000b20 99   
    2038 000b21 ED31          MOV dbl(*(#_i2cHandle)), XAR3
         000b23 BF00 
         000b25 0010-
    2039 000b27 AB61          MOV *AR3, AR3 ; |921| 
    2040 000b29 EC0A          BCLR @#5, AR1 ; |921| 
         000b2b 92   
    2041 000b2c C979          MOV AR1, port(*AR3(short(#4))) ; |921| 
         000b2e 9A   
    2042                      .dwpsn  file "../c5535_bsl_revc/ezdsp5535_v1/c55xx_csl/src/csl_i2c.c",line 922,column 9,is_stmt
    2043 000b2f 0600          B $C$L70  ; |922| 
         000b31 67   
    2044                                                      ; branch occurs ; |922| 
    2045 000b32       $C$L66:    
    2046                      .dwpsn  file "../c5535_bsl_revc/ezdsp5535_v1/c55xx_csl/src/csl_i2c.c",line 926,column 4,is_stmt
    2047 000b32 ED31          MOV dbl(*(#_i2cHandle)), XAR3
TMS320C55x Assembler PC v4.4.1 Sun Sep 16 02:56:35 2018

Tools Copyright (c) 1996-2012 Texas Instruments Incorporated
csl_i2c.asm                                                          PAGE   51

         000b34 BF00 
         000b36 0010-
    2048 000b38 AB61          MOV *AR3, AR3 ; |926| 
    2049 000b3a A979          MOV port(*AR3(short(#4))), AR1 ; |926| 
         000b3c 99   
    2050 000b3d ED31          MOV dbl(*(#_i2cHandle)), XAR3
         000b3f BF00 
         000b41 0010-
    2051 000b43 AB61          MOV *AR3, AR3 ; |926| 
    2052 000b45 EC0C          BCLR @#6, AR1 ; |926| 
         000b47 92   
    2053 000b48 C979          MOV AR1, port(*AR3(short(#4))) ; |926| 
         000b4a 9A   
    2054                      .dwpsn  file "../c5535_bsl_revc/ezdsp5535_v1/c55xx_csl/src/csl_i2c.c",line 927,column 9,is_stmt
    2055 000b4b 0600          B $C$L70  ; |927| 
         000b4d 4B   
    2056                                                      ; branch occurs ; |927| 
    2057 000b4e       $C$L67:    
    2058                      .dwpsn  file "../c5535_bsl_revc/ezdsp5535_v1/c55xx_csl/src/csl_i2c.c",line 930,column 4,is_stmt
    2059 000b4e E602          MOV #-6, *SP(#1) ; |930| 
         000b50 FA   
    2060                      .dwpsn  file "../c5535_bsl_revc/ezdsp5535_v1/c55xx_csl/src/csl_i2c.c",line 931,column 9,is_stmt
    2061 000b51 0600          B $C$L70  ; |931| 
         000b53 45   
    2062                                                      ; branch occurs ; |931| 
    2063 000b54       $C$L68:    
    2064                      .dwpsn  file "../c5535_bsl_revc/ezdsp5535_v1/c55xx_csl/src/csl_i2c.c",line 892,column 2,is_stmt
    2065              
    2066 000b54 A900          MOV *SP(#0), AR1 ; |892| 
    2067 000b56 3D3A  ||      MOV #3, AR2
    2068              
    2069 000b58 12A4          CMP AR1 > AR2, TC1 ; |892| 
         000b5a 90   
    2070 000b5b 0464          BCC $C$L69,TC1 ; |892| 
         000b5d 1F   
    2071                                                      ; branchcc occurs ; |892| 
    2072 000b5e 1290          CMP AR1 == AR2, TC1 ; |892| 
         000b60 A0   
    2073 000b61 6D64          BCC $C$L63,TC1 ; |892| 
         000b63 FF79 
    2074                                                      ; branchcc occurs ; |892| 
    2075 000b65 6D09          BCC $C$L60,AR1 == #0 ; |892| 
         000b67 FF21 
    2076                                                      ; branchcc occurs ; |892| 
    2077 000b69 3C1A          MOV #1, AR2
    2078 000b6b 1290          CMP AR1 == AR2, TC1 ; |892| 
         000b6d A0   
    2079 000b6e 6D64          BCC $C$L61,TC1 ; |892| 
         000b70 FF34 
    2080                                                      ; branchcc occurs ; |892| 
    2081 000b72 3C2A          MOV #2, AR2
    2082 000b74 1290          CMP AR1 == AR2, TC1 ; |892| 
         000b76 A0   
    2083 000b77 6D64          BCC $C$L62,TC1 ; |892| 
         000b79 FF47 
TMS320C55x Assembler PC v4.4.1 Sun Sep 16 02:56:35 2018

Tools Copyright (c) 1996-2012 Texas Instruments Incorporated
csl_i2c.asm                                                          PAGE   52

    2084                                                      ; branchcc occurs ; |892| 
    2085 000b7b 4A51          B $C$L67  ; |892| 
    2086                                                      ; branch occurs ; |892| 
    2087 000b7d       $C$L69:    
    2088 000b7d 3C4A          MOV #4, AR2
    2089 000b7f 1290          CMP AR1 == AR2, TC1 ; |892| 
         000b81 A0   
    2090 000b82 6D64          BCC $C$L64,TC1 ; |892| 
         000b84 FF74 
    2091                                                      ; branchcc occurs ; |892| 
    2092 000b86 3C5A          MOV #5, AR2
    2093 000b88 1290          CMP AR1 == AR2, TC1 ; |892| 
         000b8a A0   
    2094 000b8b 0464          BCC $C$L65,TC1 ; |892| 
         000b8d 88   
    2095                                                      ; branchcc occurs ; |892| 
    2096 000b8e 3C6A          MOV #6, AR2
    2097 000b90 1290          CMP AR1 == AR2, TC1 ; |892| 
         000b92 A0   
    2098 000b93 0464          BCC $C$L66,TC1 ; |892| 
         000b95 9C   
    2099                                                      ; branchcc occurs ; |892| 
    2100 000b96 06FF          B $C$L67  ; |892| 
         000b98 B5   
    2101                                                      ; branch occurs ; |892| 
    2102 000b99       $C$L70:    
    2103                      .dwpsn  file "../c5535_bsl_revc/ezdsp5535_v1/c55xx_csl/src/csl_i2c.c",line 934,column 2,is_stmt
    2104 000b99 A402          MOV *SP(#1), T0 ; |934| 
    2105                      .dwpsn  file "../c5535_bsl_revc/ezdsp5535_v1/c55xx_csl/src/csl_i2c.c",line 935,column 1,is_stmt
    2106 000b9b 4E03          AADD #3, SP
    2107                      .dwcfi  cfa_offset, 1
    2108              $C$DW$103       .dwtag  DW_TAG_TI_branch
    2109                      .dwattr $C$DW$103, DW_AT_low_pc(0x00)
    2110                      .dwattr $C$DW$103, DW_AT_TI_return
    2111 000b9d 4804          RET
    2112                                                      ; return occurs
    2113                      .dwattr $C$DW$99, DW_AT_TI_end_file("../c5535_bsl_revc/ezdsp5535_v1/c55xx_csl/src/csl_i2c.c")
    2114                      .dwattr $C$DW$99, DW_AT_TI_end_line(0x3a7)
    2115                      .dwattr $C$DW$99, DW_AT_TI_end_column(0x01)
    2116                      .dwendentry
    2117                      .dwendtag $C$DW$99
    2118              
    2119 000b9f               .sect   ".text"
    2120                      .align 4
    2121                      .global _I2C_setCallback
    2122              
    2123              $C$DW$104       .dwtag  DW_TAG_subprogram, DW_AT_name("I2C_setCallback")
    2124                      .dwattr $C$DW$104, DW_AT_low_pc(_I2C_setCallback)
    2125                      .dwattr $C$DW$104, DW_AT_high_pc(0x00)
    2126                      .dwattr $C$DW$104, DW_AT_TI_symbol_name("_I2C_setCallback")
    2127                      .dwattr $C$DW$104, DW_AT_external
    2128                      .dwattr $C$DW$104, DW_AT_type(*$C$DW$T$69)
    2129                      .dwattr $C$DW$104, DW_AT_TI_begin_file("../c5535_bsl_revc/ezdsp5535_v1/c55xx_csl/src/csl_i2c.c")
    2130                      .dwattr $C$DW$104, DW_AT_TI_begin_line(0x3dd)
    2131                      .dwattr $C$DW$104, DW_AT_TI_begin_column(0x0c)
TMS320C55x Assembler PC v4.4.1 Sun Sep 16 02:56:35 2018

Tools Copyright (c) 1996-2012 Texas Instruments Incorporated
csl_i2c.asm                                                          PAGE   53

    2132                      .dwattr $C$DW$104, DW_AT_TI_max_frame_size(0x04)
    2133                      .dwpsn  file "../c5535_bsl_revc/ezdsp5535_v1/c55xx_csl/src/csl_i2c.c",line 990,column 1,is_stmt,addre
    2134              
    2135                      .dwfde $C$DW$CIE, _I2C_setCallback
    2136              $C$DW$105       .dwtag  DW_TAG_formal_parameter, DW_AT_name("i2cIsrAddr")
    2137                      .dwattr $C$DW$105, DW_AT_TI_symbol_name("_i2cIsrAddr")
    2138                      .dwattr $C$DW$105, DW_AT_type(*$C$DW$T$59)
    2139                      .dwattr $C$DW$105, DW_AT_location[DW_OP_reg17]
    2140              ;*******************************************************************************
    2141              ;* FUNCTION NAME: I2C_setCallback                                              *
    2142              ;*                                                                             *
    2143              ;*   Function Uses Regs : AC0,AC0,T0,AR0,XAR0,AR2,XAR2,AR3,XAR3,SP,M40,SATA,   *
    2144              ;*                        SATD,RDM,FRCT,SMUL                                   *
    2145              ;*   Stack Frame        : Compact (No Frame Pointer, w/ debug)                 *
    2146              ;*   Total Frame Size   : 4 words                                              *
    2147              ;*                        (2 return address/alignment)                         *
    2148              ;*                        (2 local values)                                     *
    2149              ;*   Min System Stack   : 1 word                                               *
    2150              ;*******************************************************************************
    2151 000ba0       _I2C_setCallback:
    2152                      .dwcfi  cfa_offset, 1
    2153                      .dwcfi  save_reg_to_mem, 91, -1
    2154 000ba0 4EFD          AADD #-3, SP
    2155                      .dwcfi  cfa_offset, 4
    2156              $C$DW$106       .dwtag  DW_TAG_variable, DW_AT_name("i2cIsrAddr")
    2157                      .dwattr $C$DW$106, DW_AT_TI_symbol_name("_i2cIsrAddr")
    2158                      .dwattr $C$DW$106, DW_AT_type(*$C$DW$T$59)
    2159                      .dwattr $C$DW$106, DW_AT_location[DW_OP_bregx 0x24 0]
    2160 000ba2 EB00          MOV XAR0, dbl(*SP(#0))
         000ba4 85   
    2161                      .dwpsn  file "../c5535_bsl_revc/ezdsp5535_v1/c55xx_csl/src/csl_i2c.c",line 992,column 2,is_stmt
    2162 000ba5 ED00          MOV dbl(*SP(#0)), XAR3
         000ba7 BF   
    2163 000ba8 90B0          MOV XAR3, AC0
    2164 000baa 0400          BCC $C$L71,AC0 == #0 ; |992| 
         000bac 76   
    2165                                                      ; branchcc occurs ; |992| 
    2166                      .dwpsn  file "../c5535_bsl_revc/ezdsp5535_v1/c55xx_csl/src/csl_i2c.c",line 994,column 3,is_stmt
    2167 000bad ED31          MOV dbl(*(#_i2cHandle)), XAR3
         000baf BF00 
         000bb1 0010-
    2168 000bb3 ED00          MOV dbl(*SP(#0)), XAR2
         000bb5 AF   
    2169 000bb6 1402          AADD #2, AR3 ; |994| 
         000bb8 B4   
    2170 000bb9 8041          MOV dbl(*AR2), dbl(*AR3) ; |994| 
         000bbb 80   
    2171                      .dwpsn  file "../c5535_bsl_revc/ezdsp5535_v1/c55xx_csl/src/csl_i2c.c",line 996,column 3,is_stmt
    2172 000bbc ED00          MOV dbl(*SP(#0)), XAR3
         000bbe BF   
    2173 000bbf ED75          MOV dbl(*AR3(short(#2))), AC0 ; |996| 
         000bc1 08   
    2174 000bc2 ED31          MOV dbl(*(#_i2cHandle)), XAR3
         000bc4 BF00 
         000bc6 0010-
TMS320C55x Assembler PC v4.4.1 Sun Sep 16 02:56:35 2018

Tools Copyright (c) 1996-2012 Texas Instruments Incorporated
csl_i2c.asm                                                          PAGE   54

    2175 000bc8 EB79          MOV AC0, dbl(*AR3(short(#4))) ; |996| 
         000bca 08   
    2176                      .dwpsn  file "../c5535_bsl_revc/ezdsp5535_v1/c55xx_csl/src/csl_i2c.c",line 998,column 3,is_stmt
    2177 000bcb ED00          MOV dbl(*SP(#0)), XAR3
         000bcd BF   
    2178 000bce ED79          MOV dbl(*AR3(short(#4))), AC0 ; |998| 
         000bd0 08   
    2179 000bd1 ED31          MOV dbl(*(#_i2cHandle)), XAR3
         000bd3 BF00 
         000bd5 0010-
    2180 000bd7 EB7D          MOV AC0, dbl(*AR3(short(#6))) ; |998| 
         000bd9 08   
    2181                      .dwpsn  file "../c5535_bsl_revc/ezdsp5535_v1/c55xx_csl/src/csl_i2c.c",line 1000,column 3,is_stmt
    2182 000bda ED00          MOV dbl(*SP(#0)), XAR3
         000bdc BF   
    2183 000bdd ED7D          MOV dbl(*AR3(short(#6))), AC0 ; |1000| 
         000bdf 08   
    2184 000be0 ED31          MOV dbl(*(#_i2cHandle)), XAR3
         000be2 BF00 
         000be4 0010-
    2185 000be6 EB6D          MOV AC0, dbl(*AR3(#8)) ; |1000| 
         000be8 0800 
         000bea 08   
    2186                      .dwpsn  file "../c5535_bsl_revc/ezdsp5535_v1/c55xx_csl/src/csl_i2c.c",line 1002,column 3,is_stmt
    2187 000beb ED00          MOV dbl(*SP(#0)), XAR3
         000bed BF   
    2188 000bee ED31          MOV dbl(*(#_i2cHandle)), XAR2
         000bf0 AF00 
         000bf2 0010-
    2189              
    2190 000bf4 140A          AADD #10, AR2 ; |1002| 
         000bf6 A4   
    2191 000bf7 1508  ||      AADD #8, AR3 ; |1002| 
         000bf9 BC   
    2192              
    2193 000bfa 8061          MOV dbl(*AR3), dbl(*AR2) ; |1002| 
         000bfc 00   
    2194                      .dwpsn  file "../c5535_bsl_revc/ezdsp5535_v1/c55xx_csl/src/csl_i2c.c",line 1004,column 3,is_stmt
    2195 000bfd ED00          MOV dbl(*SP(#0)), XAR3
         000bff BF   
    2196 000c00 ED31          MOV dbl(*(#_i2cHandle)), XAR2
         000c02 AF00 
         000c04 0010-
    2197              
    2198 000c06 140C          AADD #12, AR2 ; |1004| 
         000c08 A4   
    2199 000c09 150A  ||      AADD #10, AR3 ; |1004| 
         000c0b BC   
    2200              
    2201 000c0c 8061          MOV dbl(*AR3), dbl(*AR2) ; |1004| 
         000c0e 00   
    2202                      .dwpsn  file "../c5535_bsl_revc/ezdsp5535_v1/c55xx_csl/src/csl_i2c.c",line 1006,column 3,is_stmt
    2203 000c0f ED00          MOV dbl(*SP(#0)), XAR3
         000c11 BF   
    2204 000c12 ED31          MOV dbl(*(#_i2cHandle)), XAR2
TMS320C55x Assembler PC v4.4.1 Sun Sep 16 02:56:35 2018

Tools Copyright (c) 1996-2012 Texas Instruments Incorporated
csl_i2c.asm                                                          PAGE   55

         000c14 AF00 
         000c16 0010-
    2205              
    2206 000c18 140E          AADD #14, AR2 ; |1006| 
         000c1a A4   
    2207 000c1b 150C  ||      AADD #12, AR3 ; |1006| 
         000c1d BC   
    2208              
    2209 000c1e 8061          MOV dbl(*AR3), dbl(*AR2) ; |1006| 
         000c20 00   
    2210                      .dwpsn  file "../c5535_bsl_revc/ezdsp5535_v1/c55xx_csl/src/csl_i2c.c",line 1008,column 2,is_stmt
    2211 000c21 4A04          B $C$L72  ; |1008| 
    2212                                                      ; branch occurs ; |1008| 
    2213 000c23       $C$L71:    
    2214                      .dwpsn  file "../c5535_bsl_revc/ezdsp5535_v1/c55xx_csl/src/csl_i2c.c",line 1011,column 3,is_stmt
    2215 000c23 3E64          MOV #-6, T0
    2216 000c25 4A02          B $C$L73  ; |1011| 
    2217                                                      ; branch occurs ; |1011| 
    2218 000c27       $C$L72:    
    2219                      .dwpsn  file "../c5535_bsl_revc/ezdsp5535_v1/c55xx_csl/src/csl_i2c.c",line 1014,column 2,is_stmt
    2220 000c27 3C04          MOV #0, T0
    2221 000c29       $C$L73:    
    2222                      .dwpsn  file "../c5535_bsl_revc/ezdsp5535_v1/c55xx_csl/src/csl_i2c.c",line 1015,column 1,is_stmt
    2223 000c29 4E03          AADD #3, SP
    2224                      .dwcfi  cfa_offset, 1
    2225              $C$DW$107       .dwtag  DW_TAG_TI_branch
    2226                      .dwattr $C$DW$107, DW_AT_low_pc(0x00)
    2227                      .dwattr $C$DW$107, DW_AT_TI_return
    2228 000c2b 4804          RET
    2229                                                      ; return occurs
    2230                      .dwattr $C$DW$104, DW_AT_TI_end_file("../c5535_bsl_revc/ezdsp5535_v1/c55xx_csl/src/csl_i2c.c")
    2231                      .dwattr $C$DW$104, DW_AT_TI_end_line(0x3f7)
    2232                      .dwattr $C$DW$104, DW_AT_TI_end_column(0x01)
    2233                      .dwendentry
    2234                      .dwendtag $C$DW$104
    2235              
    2236 000c2d               .sect   ".text"
    2237                      .align 4
    2238                      .global _I2C_getEventId
    2239              
    2240              $C$DW$108       .dwtag  DW_TAG_subprogram, DW_AT_name("I2C_getEventId")
    2241                      .dwattr $C$DW$108, DW_AT_low_pc(_I2C_getEventId)
    2242                      .dwattr $C$DW$108, DW_AT_high_pc(0x00)
    2243                      .dwattr $C$DW$108, DW_AT_TI_symbol_name("_I2C_getEventId")
    2244                      .dwattr $C$DW$108, DW_AT_external
    2245                      .dwattr $C$DW$108, DW_AT_type(*$C$DW$T$68)
    2246                      .dwattr $C$DW$108, DW_AT_TI_begin_file("../c5535_bsl_revc/ezdsp5535_v1/c55xx_csl/src/csl_i2c.c")
    2247                      .dwattr $C$DW$108, DW_AT_TI_begin_line(0x41a)
    2248                      .dwattr $C$DW$108, DW_AT_TI_begin_column(0x07)
    2249                      .dwattr $C$DW$108, DW_AT_TI_max_frame_size(0x02)
    2250                      .dwpsn  file "../c5535_bsl_revc/ezdsp5535_v1/c55xx_csl/src/csl_i2c.c",line 1051,column 1,is_stmt,addr
    2251              
    2252                      .dwfde $C$DW$CIE, _I2C_getEventId
    2253              ;*******************************************************************************
    2254              ;* FUNCTION NAME: I2C_getEventId                                               *
TMS320C55x Assembler PC v4.4.1 Sun Sep 16 02:56:35 2018

Tools Copyright (c) 1996-2012 Texas Instruments Incorporated
csl_i2c.asm                                                          PAGE   56

    2255              ;*                                                                             *
    2256              ;*   Function Uses Regs : AC0,AC0,T0,AR1,AR3,XAR3,SP,M40,SATA,SATD,RDM,FRCT,   *
    2257              ;*                        SMUL                                                 *
    2258              ;*   Stack Frame        : Compact (No Frame Pointer, w/ debug)                 *
    2259              ;*   Total Frame Size   : 2 words                                              *
    2260              ;*                        (1 return address/alignment)                         *
    2261              ;*                        (1 local values)                                     *
    2262              ;*   Min System Stack   : 1 word                                               *
    2263              ;*******************************************************************************
    2264 000c30       _I2C_getEventId:
    2265                      .dwcfi  cfa_offset, 1
    2266                      .dwcfi  save_reg_to_mem, 91, -1
    2267 000c30 4EFF          AADD #-1, SP
    2268                      .dwcfi  cfa_offset, 2
    2269              $C$DW$109       .dwtag  DW_TAG_variable, DW_AT_name("eventId")
    2270                      .dwattr $C$DW$109, DW_AT_TI_symbol_name("_eventId")
    2271                      .dwattr $C$DW$109, DW_AT_type(*$C$DW$T$68)
    2272                      .dwattr $C$DW$109, DW_AT_location[DW_OP_bregx 0x24 0]
    2273                      .dwpsn  file "../c5535_bsl_revc/ezdsp5535_v1/c55xx_csl/src/csl_i2c.c",line 1055,column 2,is_stmt
    2274 000c32 ED31          MOV dbl(*(#_i2cHandle)), XAR3
         000c34 BF00 
         000c36 0010-
    2275 000c38 7600          MOV #40, T0 ; |1055| 
         000c3a 2848 
    2276 000c3c AB61          MOV *AR3, AR3 ; |1055| 
    2277 000c3e A96B          MOV port(*AR3(T0)), AR1 ; |1055| 
         000c40 99   
    2278 000c41 1807          AND #0x0007, AR1, AC0 ; |1055| 
         000c43 09   
    2279 000c44 C000          MOV AC0, *SP(#0) ; |1055| 
    2280                      .dwpsn  file "../c5535_bsl_revc/ezdsp5535_v1/c55xx_csl/src/csl_i2c.c",line 1057,column 2,is_stmt
    2281 000c46 2204          MOV AC0, T0
    2282                      .dwpsn  file "../c5535_bsl_revc/ezdsp5535_v1/c55xx_csl/src/csl_i2c.c",line 1058,column 1,is_stmt
    2283 000c48 4E01          AADD #1, SP
    2284                      .dwcfi  cfa_offset, 1
    2285              $C$DW$110       .dwtag  DW_TAG_TI_branch
    2286                      .dwattr $C$DW$110, DW_AT_low_pc(0x00)
    2287                      .dwattr $C$DW$110, DW_AT_TI_return
    2288 000c4a 4804          RET
    2289                                                      ; return occurs
    2290                      .dwattr $C$DW$108, DW_AT_TI_end_file("../c5535_bsl_revc/ezdsp5535_v1/c55xx_csl/src/csl_i2c.c")
    2291                      .dwattr $C$DW$108, DW_AT_TI_end_line(0x422)
    2292                      .dwattr $C$DW$108, DW_AT_TI_end_column(0x01)
    2293                      .dwendentry
    2294                      .dwendtag $C$DW$108
    2295              
    2296              ;******************************************************************************
    2297              ;* UNDEFINED EXTERNAL REFERENCES                                              *
    2298              ;******************************************************************************
    2299                      .global __divul
    2300                      .global __remul
    2301                      .global __mpyli
    2302              
    2303              ;*******************************************************************************
    2304              ;* TYPE INFORMATION                                                            *
TMS320C55x Assembler PC v4.4.1 Sun Sep 16 02:56:35 2018

Tools Copyright (c) 1996-2012 Texas Instruments Incorporated
csl_i2c.asm                                                          PAGE   57

    2305              ;*******************************************************************************
    2306              
    2307              $C$DW$T$22      .dwtag  DW_TAG_structure_type
    2308                      .dwattr $C$DW$T$22, DW_AT_byte_size(0x39)
    2309              $C$DW$111       .dwtag  DW_TAG_member
    2310                      .dwattr $C$DW$111, DW_AT_type(*$C$DW$T$20)
    2311                      .dwattr $C$DW$111, DW_AT_name("ICOAR")
    2312                      .dwattr $C$DW$111, DW_AT_TI_symbol_name("_ICOAR")
    2313                      .dwattr $C$DW$111, DW_AT_data_member_location[DW_OP_plus_uconst 0x0]
    2314                      .dwattr $C$DW$111, DW_AT_accessibility(DW_ACCESS_public)
    2315              $C$DW$112       .dwtag  DW_TAG_member
    2316                      .dwattr $C$DW$112, DW_AT_type(*$C$DW$T$21)
    2317                      .dwattr $C$DW$112, DW_AT_name("RSVD0")
    2318                      .dwattr $C$DW$112, DW_AT_TI_symbol_name("_RSVD0")
    2319                      .dwattr $C$DW$112, DW_AT_data_member_location[DW_OP_plus_uconst 0x1]
    2320                      .dwattr $C$DW$112, DW_AT_accessibility(DW_ACCESS_public)
    2321              $C$DW$113       .dwtag  DW_TAG_member
    2322                      .dwattr $C$DW$113, DW_AT_type(*$C$DW$T$20)
    2323                      .dwattr $C$DW$113, DW_AT_name("ICIMR")
    2324                      .dwattr $C$DW$113, DW_AT_TI_symbol_name("_ICIMR")
    2325                      .dwattr $C$DW$113, DW_AT_data_member_location[DW_OP_plus_uconst 0x4]
    2326                      .dwattr $C$DW$113, DW_AT_accessibility(DW_ACCESS_public)
    2327              $C$DW$114       .dwtag  DW_TAG_member
    2328                      .dwattr $C$DW$114, DW_AT_type(*$C$DW$T$21)
    2329                      .dwattr $C$DW$114, DW_AT_name("RSVD1")
    2330                      .dwattr $C$DW$114, DW_AT_TI_symbol_name("_RSVD1")
    2331                      .dwattr $C$DW$114, DW_AT_data_member_location[DW_OP_plus_uconst 0x5]
    2332                      .dwattr $C$DW$114, DW_AT_accessibility(DW_ACCESS_public)
    2333              $C$DW$115       .dwtag  DW_TAG_member
    2334                      .dwattr $C$DW$115, DW_AT_type(*$C$DW$T$20)
    2335                      .dwattr $C$DW$115, DW_AT_name("ICSTR")
    2336                      .dwattr $C$DW$115, DW_AT_TI_symbol_name("_ICSTR")
    2337                      .dwattr $C$DW$115, DW_AT_data_member_location[DW_OP_plus_uconst 0x8]
    2338                      .dwattr $C$DW$115, DW_AT_accessibility(DW_ACCESS_public)
    2339              $C$DW$116       .dwtag  DW_TAG_member
    2340                      .dwattr $C$DW$116, DW_AT_type(*$C$DW$T$21)
    2341                      .dwattr $C$DW$116, DW_AT_name("RSVD2")
    2342                      .dwattr $C$DW$116, DW_AT_TI_symbol_name("_RSVD2")
    2343                      .dwattr $C$DW$116, DW_AT_data_member_location[DW_OP_plus_uconst 0x9]
    2344                      .dwattr $C$DW$116, DW_AT_accessibility(DW_ACCESS_public)
    2345              $C$DW$117       .dwtag  DW_TAG_member
    2346                      .dwattr $C$DW$117, DW_AT_type(*$C$DW$T$20)
    2347                      .dwattr $C$DW$117, DW_AT_name("ICCLKL")
    2348                      .dwattr $C$DW$117, DW_AT_TI_symbol_name("_ICCLKL")
    2349                      .dwattr $C$DW$117, DW_AT_data_member_location[DW_OP_plus_uconst 0xc]
    2350                      .dwattr $C$DW$117, DW_AT_accessibility(DW_ACCESS_public)
    2351              $C$DW$118       .dwtag  DW_TAG_member
    2352                      .dwattr $C$DW$118, DW_AT_type(*$C$DW$T$21)
    2353                      .dwattr $C$DW$118, DW_AT_name("RSVD3")
    2354                      .dwattr $C$DW$118, DW_AT_TI_symbol_name("_RSVD3")
    2355                      .dwattr $C$DW$118, DW_AT_data_member_location[DW_OP_plus_uconst 0xd]
    2356                      .dwattr $C$DW$118, DW_AT_accessibility(DW_ACCESS_public)
    2357              $C$DW$119       .dwtag  DW_TAG_member
    2358                      .dwattr $C$DW$119, DW_AT_type(*$C$DW$T$20)
    2359                      .dwattr $C$DW$119, DW_AT_name("ICCLKH")
TMS320C55x Assembler PC v4.4.1 Sun Sep 16 02:56:35 2018

Tools Copyright (c) 1996-2012 Texas Instruments Incorporated
csl_i2c.asm                                                          PAGE   58

    2360                      .dwattr $C$DW$119, DW_AT_TI_symbol_name("_ICCLKH")
    2361                      .dwattr $C$DW$119, DW_AT_data_member_location[DW_OP_plus_uconst 0x10]
    2362                      .dwattr $C$DW$119, DW_AT_accessibility(DW_ACCESS_public)
    2363              $C$DW$120       .dwtag  DW_TAG_member
    2364                      .dwattr $C$DW$120, DW_AT_type(*$C$DW$T$21)
    2365                      .dwattr $C$DW$120, DW_AT_name("RSVD4")
    2366                      .dwattr $C$DW$120, DW_AT_TI_symbol_name("_RSVD4")
    2367                      .dwattr $C$DW$120, DW_AT_data_member_location[DW_OP_plus_uconst 0x11]
    2368                      .dwattr $C$DW$120, DW_AT_accessibility(DW_ACCESS_public)
    2369              $C$DW$121       .dwtag  DW_TAG_member
    2370                      .dwattr $C$DW$121, DW_AT_type(*$C$DW$T$20)
    2371                      .dwattr $C$DW$121, DW_AT_name("ICCNT")
    2372                      .dwattr $C$DW$121, DW_AT_TI_symbol_name("_ICCNT")
    2373                      .dwattr $C$DW$121, DW_AT_data_member_location[DW_OP_plus_uconst 0x14]
    2374                      .dwattr $C$DW$121, DW_AT_accessibility(DW_ACCESS_public)
    2375              $C$DW$122       .dwtag  DW_TAG_member
    2376                      .dwattr $C$DW$122, DW_AT_type(*$C$DW$T$21)
    2377                      .dwattr $C$DW$122, DW_AT_name("RSVD5")
    2378                      .dwattr $C$DW$122, DW_AT_TI_symbol_name("_RSVD5")
    2379                      .dwattr $C$DW$122, DW_AT_data_member_location[DW_OP_plus_uconst 0x15]
    2380                      .dwattr $C$DW$122, DW_AT_accessibility(DW_ACCESS_public)
    2381              $C$DW$123       .dwtag  DW_TAG_member
    2382                      .dwattr $C$DW$123, DW_AT_type(*$C$DW$T$20)
    2383                      .dwattr $C$DW$123, DW_AT_name("ICDRR")
    2384                      .dwattr $C$DW$123, DW_AT_TI_symbol_name("_ICDRR")
    2385                      .dwattr $C$DW$123, DW_AT_data_member_location[DW_OP_plus_uconst 0x18]
    2386                      .dwattr $C$DW$123, DW_AT_accessibility(DW_ACCESS_public)
    2387              $C$DW$124       .dwtag  DW_TAG_member
    2388                      .dwattr $C$DW$124, DW_AT_type(*$C$DW$T$21)
    2389                      .dwattr $C$DW$124, DW_AT_name("RSVD6")
    2390                      .dwattr $C$DW$124, DW_AT_TI_symbol_name("_RSVD6")
    2391                      .dwattr $C$DW$124, DW_AT_data_member_location[DW_OP_plus_uconst 0x19]
    2392                      .dwattr $C$DW$124, DW_AT_accessibility(DW_ACCESS_public)
    2393              $C$DW$125       .dwtag  DW_TAG_member
    2394                      .dwattr $C$DW$125, DW_AT_type(*$C$DW$T$20)
    2395                      .dwattr $C$DW$125, DW_AT_name("ICSAR")
    2396                      .dwattr $C$DW$125, DW_AT_TI_symbol_name("_ICSAR")
    2397                      .dwattr $C$DW$125, DW_AT_data_member_location[DW_OP_plus_uconst 0x1c]
    2398                      .dwattr $C$DW$125, DW_AT_accessibility(DW_ACCESS_public)
    2399              $C$DW$126       .dwtag  DW_TAG_member
    2400                      .dwattr $C$DW$126, DW_AT_type(*$C$DW$T$21)
    2401                      .dwattr $C$DW$126, DW_AT_name("RSVD7")
    2402                      .dwattr $C$DW$126, DW_AT_TI_symbol_name("_RSVD7")
    2403                      .dwattr $C$DW$126, DW_AT_data_member_location[DW_OP_plus_uconst 0x1d]
    2404                      .dwattr $C$DW$126, DW_AT_accessibility(DW_ACCESS_public)
    2405              $C$DW$127       .dwtag  DW_TAG_member
    2406                      .dwattr $C$DW$127, DW_AT_type(*$C$DW$T$20)
    2407                      .dwattr $C$DW$127, DW_AT_name("ICDXR")
    2408                      .dwattr $C$DW$127, DW_AT_TI_symbol_name("_ICDXR")
    2409                      .dwattr $C$DW$127, DW_AT_data_member_location[DW_OP_plus_uconst 0x20]
    2410                      .dwattr $C$DW$127, DW_AT_accessibility(DW_ACCESS_public)
    2411              $C$DW$128       .dwtag  DW_TAG_member
    2412                      .dwattr $C$DW$128, DW_AT_type(*$C$DW$T$21)
    2413                      .dwattr $C$DW$128, DW_AT_name("RSVD8")
    2414                      .dwattr $C$DW$128, DW_AT_TI_symbol_name("_RSVD8")
TMS320C55x Assembler PC v4.4.1 Sun Sep 16 02:56:35 2018

Tools Copyright (c) 1996-2012 Texas Instruments Incorporated
csl_i2c.asm                                                          PAGE   59

    2415                      .dwattr $C$DW$128, DW_AT_data_member_location[DW_OP_plus_uconst 0x21]
    2416                      .dwattr $C$DW$128, DW_AT_accessibility(DW_ACCESS_public)
    2417              $C$DW$129       .dwtag  DW_TAG_member
    2418                      .dwattr $C$DW$129, DW_AT_type(*$C$DW$T$20)
    2419                      .dwattr $C$DW$129, DW_AT_name("ICMDR")
    2420                      .dwattr $C$DW$129, DW_AT_TI_symbol_name("_ICMDR")
    2421                      .dwattr $C$DW$129, DW_AT_data_member_location[DW_OP_plus_uconst 0x24]
    2422                      .dwattr $C$DW$129, DW_AT_accessibility(DW_ACCESS_public)
    2423              $C$DW$130       .dwtag  DW_TAG_member
    2424                      .dwattr $C$DW$130, DW_AT_type(*$C$DW$T$21)
    2425                      .dwattr $C$DW$130, DW_AT_name("RSVD9")
    2426                      .dwattr $C$DW$130, DW_AT_TI_symbol_name("_RSVD9")
    2427                      .dwattr $C$DW$130, DW_AT_data_member_location[DW_OP_plus_uconst 0x25]
    2428                      .dwattr $C$DW$130, DW_AT_accessibility(DW_ACCESS_public)
    2429              $C$DW$131       .dwtag  DW_TAG_member
    2430                      .dwattr $C$DW$131, DW_AT_type(*$C$DW$T$20)
    2431                      .dwattr $C$DW$131, DW_AT_name("ICIVR")
    2432                      .dwattr $C$DW$131, DW_AT_TI_symbol_name("_ICIVR")
    2433                      .dwattr $C$DW$131, DW_AT_data_member_location[DW_OP_plus_uconst 0x28]
    2434                      .dwattr $C$DW$131, DW_AT_accessibility(DW_ACCESS_public)
    2435              $C$DW$132       .dwtag  DW_TAG_member
    2436                      .dwattr $C$DW$132, DW_AT_type(*$C$DW$T$21)
    2437                      .dwattr $C$DW$132, DW_AT_name("RSVD10")
    2438                      .dwattr $C$DW$132, DW_AT_TI_symbol_name("_RSVD10")
    2439                      .dwattr $C$DW$132, DW_AT_data_member_location[DW_OP_plus_uconst 0x29]
    2440                      .dwattr $C$DW$132, DW_AT_accessibility(DW_ACCESS_public)
    2441              $C$DW$133       .dwtag  DW_TAG_member
    2442                      .dwattr $C$DW$133, DW_AT_type(*$C$DW$T$20)
    2443                      .dwattr $C$DW$133, DW_AT_name("ICEMDR")
    2444                      .dwattr $C$DW$133, DW_AT_TI_symbol_name("_ICEMDR")
    2445                      .dwattr $C$DW$133, DW_AT_data_member_location[DW_OP_plus_uconst 0x2c]
    2446                      .dwattr $C$DW$133, DW_AT_accessibility(DW_ACCESS_public)
    2447              $C$DW$134       .dwtag  DW_TAG_member
    2448                      .dwattr $C$DW$134, DW_AT_type(*$C$DW$T$21)
    2449                      .dwattr $C$DW$134, DW_AT_name("RSVD11")
    2450                      .dwattr $C$DW$134, DW_AT_TI_symbol_name("_RSVD11")
    2451                      .dwattr $C$DW$134, DW_AT_data_member_location[DW_OP_plus_uconst 0x2d]
    2452                      .dwattr $C$DW$134, DW_AT_accessibility(DW_ACCESS_public)
    2453              $C$DW$135       .dwtag  DW_TAG_member
    2454                      .dwattr $C$DW$135, DW_AT_type(*$C$DW$T$20)
    2455                      .dwattr $C$DW$135, DW_AT_name("ICPSC")
    2456                      .dwattr $C$DW$135, DW_AT_TI_symbol_name("_ICPSC")
    2457                      .dwattr $C$DW$135, DW_AT_data_member_location[DW_OP_plus_uconst 0x30]
    2458                      .dwattr $C$DW$135, DW_AT_accessibility(DW_ACCESS_public)
    2459              $C$DW$136       .dwtag  DW_TAG_member
    2460                      .dwattr $C$DW$136, DW_AT_type(*$C$DW$T$21)
    2461                      .dwattr $C$DW$136, DW_AT_name("RSVD12")
    2462                      .dwattr $C$DW$136, DW_AT_TI_symbol_name("_RSVD12")
    2463                      .dwattr $C$DW$136, DW_AT_data_member_location[DW_OP_plus_uconst 0x31]
    2464                      .dwattr $C$DW$136, DW_AT_accessibility(DW_ACCESS_public)
    2465              $C$DW$137       .dwtag  DW_TAG_member
    2466                      .dwattr $C$DW$137, DW_AT_type(*$C$DW$T$20)
    2467                      .dwattr $C$DW$137, DW_AT_name("ICPID1")
    2468                      .dwattr $C$DW$137, DW_AT_TI_symbol_name("_ICPID1")
    2469                      .dwattr $C$DW$137, DW_AT_data_member_location[DW_OP_plus_uconst 0x34]
TMS320C55x Assembler PC v4.4.1 Sun Sep 16 02:56:35 2018

Tools Copyright (c) 1996-2012 Texas Instruments Incorporated
csl_i2c.asm                                                          PAGE   60

    2470                      .dwattr $C$DW$137, DW_AT_accessibility(DW_ACCESS_public)
    2471              $C$DW$138       .dwtag  DW_TAG_member
    2472                      .dwattr $C$DW$138, DW_AT_type(*$C$DW$T$21)
    2473                      .dwattr $C$DW$138, DW_AT_name("RSVD13")
    2474                      .dwattr $C$DW$138, DW_AT_TI_symbol_name("_RSVD13")
    2475                      .dwattr $C$DW$138, DW_AT_data_member_location[DW_OP_plus_uconst 0x35]
    2476                      .dwattr $C$DW$138, DW_AT_accessibility(DW_ACCESS_public)
    2477              $C$DW$139       .dwtag  DW_TAG_member
    2478                      .dwattr $C$DW$139, DW_AT_type(*$C$DW$T$20)
    2479                      .dwattr $C$DW$139, DW_AT_name("ICPID2")
    2480                      .dwattr $C$DW$139, DW_AT_TI_symbol_name("_ICPID2")
    2481                      .dwattr $C$DW$139, DW_AT_data_member_location[DW_OP_plus_uconst 0x38]
    2482                      .dwattr $C$DW$139, DW_AT_accessibility(DW_ACCESS_public)
    2483                      .dwendtag $C$DW$T$22
    2484              
    2485              $C$DW$T$32      .dwtag  DW_TAG_typedef, DW_AT_name("CSL_I2cRegs")
    2486                      .dwattr $C$DW$T$32, DW_AT_type(*$C$DW$T$22)
    2487                      .dwattr $C$DW$T$32, DW_AT_language(DW_LANG_C)
    2488              $C$DW$140       .dwtag  DW_TAG_TI_far_type
    2489                      .dwattr $C$DW$140, DW_AT_type(*$C$DW$T$32)
    2490              $C$DW$141       .dwtag  DW_TAG_TI_ioport_type
    2491                      .dwattr $C$DW$141, DW_AT_type(*$C$DW$140)
    2492              $C$DW$T$33      .dwtag  DW_TAG_volatile_type
    2493                      .dwattr $C$DW$T$33, DW_AT_type(*$C$DW$141)
    2494              $C$DW$T$34      .dwtag  DW_TAG_pointer_type
    2495                      .dwattr $C$DW$T$34, DW_AT_type(*$C$DW$T$33)
    2496                      .dwattr $C$DW$T$34, DW_AT_address_class(0x10)
    2497              $C$DW$T$35      .dwtag  DW_TAG_typedef, DW_AT_name("CSL_I2cRegsOvly")
    2498                      .dwattr $C$DW$T$35, DW_AT_type(*$C$DW$T$34)
    2499                      .dwattr $C$DW$T$35, DW_AT_language(DW_LANG_C)
    2500              
    2501              $C$DW$T$26      .dwtag  DW_TAG_structure_type
    2502                      .dwattr $C$DW$T$26, DW_AT_byte_size(0x48)
    2503              $C$DW$142       .dwtag  DW_TAG_member
    2504                      .dwattr $C$DW$142, DW_AT_type(*$C$DW$T$20)
    2505                      .dwattr $C$DW$142, DW_AT_name("EBSR")
    2506                      .dwattr $C$DW$142, DW_AT_TI_symbol_name("_EBSR")
    2507                      .dwattr $C$DW$142, DW_AT_data_member_location[DW_OP_plus_uconst 0x0]
    2508                      .dwattr $C$DW$142, DW_AT_accessibility(DW_ACCESS_public)
    2509              $C$DW$143       .dwtag  DW_TAG_member
    2510                      .dwattr $C$DW$143, DW_AT_type(*$C$DW$T$20)
    2511                      .dwattr $C$DW$143, DW_AT_name("RSVD0")
    2512                      .dwattr $C$DW$143, DW_AT_TI_symbol_name("_RSVD0")
    2513                      .dwattr $C$DW$143, DW_AT_data_member_location[DW_OP_plus_uconst 0x1]
    2514                      .dwattr $C$DW$143, DW_AT_accessibility(DW_ACCESS_public)
    2515              $C$DW$144       .dwtag  DW_TAG_member
    2516                      .dwattr $C$DW$144, DW_AT_type(*$C$DW$T$20)
    2517                      .dwattr $C$DW$144, DW_AT_name("PCGCR1")
    2518                      .dwattr $C$DW$144, DW_AT_TI_symbol_name("_PCGCR1")
    2519                      .dwattr $C$DW$144, DW_AT_data_member_location[DW_OP_plus_uconst 0x2]
    2520                      .dwattr $C$DW$144, DW_AT_accessibility(DW_ACCESS_public)
    2521              $C$DW$145       .dwtag  DW_TAG_member
    2522                      .dwattr $C$DW$145, DW_AT_type(*$C$DW$T$20)
    2523                      .dwattr $C$DW$145, DW_AT_name("PCGCR2")
    2524                      .dwattr $C$DW$145, DW_AT_TI_symbol_name("_PCGCR2")
TMS320C55x Assembler PC v4.4.1 Sun Sep 16 02:56:35 2018

Tools Copyright (c) 1996-2012 Texas Instruments Incorporated
csl_i2c.asm                                                          PAGE   61

    2525                      .dwattr $C$DW$145, DW_AT_data_member_location[DW_OP_plus_uconst 0x3]
    2526                      .dwattr $C$DW$145, DW_AT_accessibility(DW_ACCESS_public)
    2527              $C$DW$146       .dwtag  DW_TAG_member
    2528                      .dwattr $C$DW$146, DW_AT_type(*$C$DW$T$20)
    2529                      .dwattr $C$DW$146, DW_AT_name("PSRCR")
    2530                      .dwattr $C$DW$146, DW_AT_TI_symbol_name("_PSRCR")
    2531                      .dwattr $C$DW$146, DW_AT_data_member_location[DW_OP_plus_uconst 0x4]
    2532                      .dwattr $C$DW$146, DW_AT_accessibility(DW_ACCESS_public)
    2533              $C$DW$147       .dwtag  DW_TAG_member
    2534                      .dwattr $C$DW$147, DW_AT_type(*$C$DW$T$20)
    2535                      .dwattr $C$DW$147, DW_AT_name("PRCR")
    2536                      .dwattr $C$DW$147, DW_AT_TI_symbol_name("_PRCR")
    2537                      .dwattr $C$DW$147, DW_AT_data_member_location[DW_OP_plus_uconst 0x5]
    2538                      .dwattr $C$DW$147, DW_AT_accessibility(DW_ACCESS_public)
    2539              $C$DW$148       .dwtag  DW_TAG_member
    2540                      .dwattr $C$DW$148, DW_AT_type(*$C$DW$T$23)
    2541                      .dwattr $C$DW$148, DW_AT_name("RSVD1")
    2542                      .dwattr $C$DW$148, DW_AT_TI_symbol_name("_RSVD1")
    2543                      .dwattr $C$DW$148, DW_AT_data_member_location[DW_OP_plus_uconst 0x6]
    2544                      .dwattr $C$DW$148, DW_AT_accessibility(DW_ACCESS_public)
    2545              $C$DW$149       .dwtag  DW_TAG_member
    2546                      .dwattr $C$DW$149, DW_AT_type(*$C$DW$T$20)
    2547                      .dwattr $C$DW$149, DW_AT_name("TIAFR")
    2548                      .dwattr $C$DW$149, DW_AT_TI_symbol_name("_TIAFR")
    2549                      .dwattr $C$DW$149, DW_AT_data_member_location[DW_OP_plus_uconst 0x14]
    2550                      .dwattr $C$DW$149, DW_AT_accessibility(DW_ACCESS_public)
    2551              $C$DW$150       .dwtag  DW_TAG_member
    2552                      .dwattr $C$DW$150, DW_AT_type(*$C$DW$T$20)
    2553                      .dwattr $C$DW$150, DW_AT_name("RSVD2")
    2554                      .dwattr $C$DW$150, DW_AT_TI_symbol_name("_RSVD2")
    2555                      .dwattr $C$DW$150, DW_AT_data_member_location[DW_OP_plus_uconst 0x15]
    2556                      .dwattr $C$DW$150, DW_AT_accessibility(DW_ACCESS_public)
    2557              $C$DW$151       .dwtag  DW_TAG_member
    2558                      .dwattr $C$DW$151, DW_AT_type(*$C$DW$T$20)
    2559                      .dwattr $C$DW$151, DW_AT_name("ODSCR")
    2560                      .dwattr $C$DW$151, DW_AT_TI_symbol_name("_ODSCR")
    2561                      .dwattr $C$DW$151, DW_AT_data_member_location[DW_OP_plus_uconst 0x16]
    2562                      .dwattr $C$DW$151, DW_AT_accessibility(DW_ACCESS_public)
    2563              $C$DW$152       .dwtag  DW_TAG_member
    2564                      .dwattr $C$DW$152, DW_AT_type(*$C$DW$T$20)
    2565                      .dwattr $C$DW$152, DW_AT_name("PDINHIBR1")
    2566                      .dwattr $C$DW$152, DW_AT_TI_symbol_name("_PDINHIBR1")
    2567                      .dwattr $C$DW$152, DW_AT_data_member_location[DW_OP_plus_uconst 0x17]
    2568                      .dwattr $C$DW$152, DW_AT_accessibility(DW_ACCESS_public)
    2569              $C$DW$153       .dwtag  DW_TAG_member
    2570                      .dwattr $C$DW$153, DW_AT_type(*$C$DW$T$20)
    2571                      .dwattr $C$DW$153, DW_AT_name("PDINHIBR2")
    2572                      .dwattr $C$DW$153, DW_AT_TI_symbol_name("_PDINHIBR2")
    2573                      .dwattr $C$DW$153, DW_AT_data_member_location[DW_OP_plus_uconst 0x18]
    2574                      .dwattr $C$DW$153, DW_AT_accessibility(DW_ACCESS_public)
    2575              $C$DW$154       .dwtag  DW_TAG_member
    2576                      .dwattr $C$DW$154, DW_AT_type(*$C$DW$T$20)
    2577                      .dwattr $C$DW$154, DW_AT_name("PDINHIBR3")
    2578                      .dwattr $C$DW$154, DW_AT_TI_symbol_name("_PDINHIBR3")
    2579                      .dwattr $C$DW$154, DW_AT_data_member_location[DW_OP_plus_uconst 0x19]
TMS320C55x Assembler PC v4.4.1 Sun Sep 16 02:56:35 2018

Tools Copyright (c) 1996-2012 Texas Instruments Incorporated
csl_i2c.asm                                                          PAGE   62

    2580                      .dwattr $C$DW$154, DW_AT_accessibility(DW_ACCESS_public)
    2581              $C$DW$155       .dwtag  DW_TAG_member
    2582                      .dwattr $C$DW$155, DW_AT_type(*$C$DW$T$20)
    2583                      .dwattr $C$DW$155, DW_AT_name("DMA0CESR1")
    2584                      .dwattr $C$DW$155, DW_AT_TI_symbol_name("_DMA0CESR1")
    2585                      .dwattr $C$DW$155, DW_AT_data_member_location[DW_OP_plus_uconst 0x1a]
    2586                      .dwattr $C$DW$155, DW_AT_accessibility(DW_ACCESS_public)
    2587              $C$DW$156       .dwtag  DW_TAG_member
    2588                      .dwattr $C$DW$156, DW_AT_type(*$C$DW$T$20)
    2589                      .dwattr $C$DW$156, DW_AT_name("DMA0CESR2")
    2590                      .dwattr $C$DW$156, DW_AT_TI_symbol_name("_DMA0CESR2")
    2591                      .dwattr $C$DW$156, DW_AT_data_member_location[DW_OP_plus_uconst 0x1b]
    2592                      .dwattr $C$DW$156, DW_AT_accessibility(DW_ACCESS_public)
    2593              $C$DW$157       .dwtag  DW_TAG_member
    2594                      .dwattr $C$DW$157, DW_AT_type(*$C$DW$T$20)
    2595                      .dwattr $C$DW$157, DW_AT_name("DMA1CESR1")
    2596                      .dwattr $C$DW$157, DW_AT_TI_symbol_name("_DMA1CESR1")
    2597                      .dwattr $C$DW$157, DW_AT_data_member_location[DW_OP_plus_uconst 0x1c]
    2598                      .dwattr $C$DW$157, DW_AT_accessibility(DW_ACCESS_public)
    2599              $C$DW$158       .dwtag  DW_TAG_member
    2600                      .dwattr $C$DW$158, DW_AT_type(*$C$DW$T$20)
    2601                      .dwattr $C$DW$158, DW_AT_name("DMA1CESR2")
    2602                      .dwattr $C$DW$158, DW_AT_TI_symbol_name("_DMA1CESR2")
    2603                      .dwattr $C$DW$158, DW_AT_data_member_location[DW_OP_plus_uconst 0x1d]
    2604                      .dwattr $C$DW$158, DW_AT_accessibility(DW_ACCESS_public)
    2605              $C$DW$159       .dwtag  DW_TAG_member
    2606                      .dwattr $C$DW$159, DW_AT_type(*$C$DW$T$20)
    2607                      .dwattr $C$DW$159, DW_AT_name("SDRAMCCR")
    2608                      .dwattr $C$DW$159, DW_AT_TI_symbol_name("_SDRAMCCR")
    2609                      .dwattr $C$DW$159, DW_AT_data_member_location[DW_OP_plus_uconst 0x1e]
    2610                      .dwattr $C$DW$159, DW_AT_accessibility(DW_ACCESS_public)
    2611              $C$DW$160       .dwtag  DW_TAG_member
    2612                      .dwattr $C$DW$160, DW_AT_type(*$C$DW$T$20)
    2613                      .dwattr $C$DW$160, DW_AT_name("CCR2")
    2614                      .dwattr $C$DW$160, DW_AT_TI_symbol_name("_CCR2")
    2615                      .dwattr $C$DW$160, DW_AT_data_member_location[DW_OP_plus_uconst 0x1f]
    2616                      .dwattr $C$DW$160, DW_AT_accessibility(DW_ACCESS_public)
    2617              $C$DW$161       .dwtag  DW_TAG_member
    2618                      .dwattr $C$DW$161, DW_AT_type(*$C$DW$T$20)
    2619                      .dwattr $C$DW$161, DW_AT_name("CGCR1")
    2620                      .dwattr $C$DW$161, DW_AT_TI_symbol_name("_CGCR1")
    2621                      .dwattr $C$DW$161, DW_AT_data_member_location[DW_OP_plus_uconst 0x20]
    2622                      .dwattr $C$DW$161, DW_AT_accessibility(DW_ACCESS_public)
    2623              $C$DW$162       .dwtag  DW_TAG_member
    2624                      .dwattr $C$DW$162, DW_AT_type(*$C$DW$T$20)
    2625                      .dwattr $C$DW$162, DW_AT_name("CGICR")
    2626                      .dwattr $C$DW$162, DW_AT_TI_symbol_name("_CGICR")
    2627                      .dwattr $C$DW$162, DW_AT_data_member_location[DW_OP_plus_uconst 0x21]
    2628                      .dwattr $C$DW$162, DW_AT_accessibility(DW_ACCESS_public)
    2629              $C$DW$163       .dwtag  DW_TAG_member
    2630                      .dwattr $C$DW$163, DW_AT_type(*$C$DW$T$20)
    2631                      .dwattr $C$DW$163, DW_AT_name("CGCR2")
    2632                      .dwattr $C$DW$163, DW_AT_TI_symbol_name("_CGCR2")
    2633                      .dwattr $C$DW$163, DW_AT_data_member_location[DW_OP_plus_uconst 0x22]
    2634                      .dwattr $C$DW$163, DW_AT_accessibility(DW_ACCESS_public)
TMS320C55x Assembler PC v4.4.1 Sun Sep 16 02:56:35 2018

Tools Copyright (c) 1996-2012 Texas Instruments Incorporated
csl_i2c.asm                                                          PAGE   63

    2635              $C$DW$164       .dwtag  DW_TAG_member
    2636                      .dwattr $C$DW$164, DW_AT_type(*$C$DW$T$20)
    2637                      .dwattr $C$DW$164, DW_AT_name("CGOCR")
    2638                      .dwattr $C$DW$164, DW_AT_TI_symbol_name("_CGOCR")
    2639                      .dwattr $C$DW$164, DW_AT_data_member_location[DW_OP_plus_uconst 0x23]
    2640                      .dwattr $C$DW$164, DW_AT_accessibility(DW_ACCESS_public)
    2641              $C$DW$165       .dwtag  DW_TAG_member
    2642                      .dwattr $C$DW$165, DW_AT_type(*$C$DW$T$20)
    2643                      .dwattr $C$DW$165, DW_AT_name("CCSSR")
    2644                      .dwattr $C$DW$165, DW_AT_TI_symbol_name("_CCSSR")
    2645                      .dwattr $C$DW$165, DW_AT_data_member_location[DW_OP_plus_uconst 0x24]
    2646                      .dwattr $C$DW$165, DW_AT_accessibility(DW_ACCESS_public)
    2647              $C$DW$166       .dwtag  DW_TAG_member
    2648                      .dwattr $C$DW$166, DW_AT_type(*$C$DW$T$20)
    2649                      .dwattr $C$DW$166, DW_AT_name("RSVD3")
    2650                      .dwattr $C$DW$166, DW_AT_TI_symbol_name("_RSVD3")
    2651                      .dwattr $C$DW$166, DW_AT_data_member_location[DW_OP_plus_uconst 0x25]
    2652                      .dwattr $C$DW$166, DW_AT_accessibility(DW_ACCESS_public)
    2653              $C$DW$167       .dwtag  DW_TAG_member
    2654                      .dwattr $C$DW$167, DW_AT_type(*$C$DW$T$20)
    2655                      .dwattr $C$DW$167, DW_AT_name("ECDR")
    2656                      .dwattr $C$DW$167, DW_AT_TI_symbol_name("_ECDR")
    2657                      .dwattr $C$DW$167, DW_AT_data_member_location[DW_OP_plus_uconst 0x26]
    2658                      .dwattr $C$DW$167, DW_AT_accessibility(DW_ACCESS_public)
    2659              $C$DW$168       .dwtag  DW_TAG_member
    2660                      .dwattr $C$DW$168, DW_AT_type(*$C$DW$T$20)
    2661                      .dwattr $C$DW$168, DW_AT_name("RSVD4")
    2662                      .dwattr $C$DW$168, DW_AT_TI_symbol_name("_RSVD4")
    2663                      .dwattr $C$DW$168, DW_AT_data_member_location[DW_OP_plus_uconst 0x27]
    2664                      .dwattr $C$DW$168, DW_AT_accessibility(DW_ACCESS_public)
    2665              $C$DW$169       .dwtag  DW_TAG_member
    2666                      .dwattr $C$DW$169, DW_AT_type(*$C$DW$T$20)
    2667                      .dwattr $C$DW$169, DW_AT_name("RAMSLPMDCNTLR1")
    2668                      .dwattr $C$DW$169, DW_AT_TI_symbol_name("_RAMSLPMDCNTLR1")
    2669                      .dwattr $C$DW$169, DW_AT_data_member_location[DW_OP_plus_uconst 0x28]
    2670                      .dwattr $C$DW$169, DW_AT_accessibility(DW_ACCESS_public)
    2671              $C$DW$170       .dwtag  DW_TAG_member
    2672                      .dwattr $C$DW$170, DW_AT_type(*$C$DW$T$20)
    2673                      .dwattr $C$DW$170, DW_AT_name("RSVD5")
    2674                      .dwattr $C$DW$170, DW_AT_TI_symbol_name("_RSVD5")
    2675                      .dwattr $C$DW$170, DW_AT_data_member_location[DW_OP_plus_uconst 0x29]
    2676                      .dwattr $C$DW$170, DW_AT_accessibility(DW_ACCESS_public)
    2677              $C$DW$171       .dwtag  DW_TAG_member
    2678                      .dwattr $C$DW$171, DW_AT_type(*$C$DW$T$20)
    2679                      .dwattr $C$DW$171, DW_AT_name("RAMSLPMDCNTLR2")
    2680                      .dwattr $C$DW$171, DW_AT_TI_symbol_name("_RAMSLPMDCNTLR2")
    2681                      .dwattr $C$DW$171, DW_AT_data_member_location[DW_OP_plus_uconst 0x2a]
    2682                      .dwattr $C$DW$171, DW_AT_accessibility(DW_ACCESS_public)
    2683              $C$DW$172       .dwtag  DW_TAG_member
    2684                      .dwattr $C$DW$172, DW_AT_type(*$C$DW$T$20)
    2685                      .dwattr $C$DW$172, DW_AT_name("RAMSLPMDCNTLR3")
    2686                      .dwattr $C$DW$172, DW_AT_TI_symbol_name("_RAMSLPMDCNTLR3")
    2687                      .dwattr $C$DW$172, DW_AT_data_member_location[DW_OP_plus_uconst 0x2b]
    2688                      .dwattr $C$DW$172, DW_AT_accessibility(DW_ACCESS_public)
    2689              $C$DW$173       .dwtag  DW_TAG_member
TMS320C55x Assembler PC v4.4.1 Sun Sep 16 02:56:35 2018

Tools Copyright (c) 1996-2012 Texas Instruments Incorporated
csl_i2c.asm                                                          PAGE   64

    2690                      .dwattr $C$DW$173, DW_AT_type(*$C$DW$T$20)
    2691                      .dwattr $C$DW$173, DW_AT_name("RAMSLPMDCNTLR4")
    2692                      .dwattr $C$DW$173, DW_AT_TI_symbol_name("_RAMSLPMDCNTLR4")
    2693                      .dwattr $C$DW$173, DW_AT_data_member_location[DW_OP_plus_uconst 0x2c]
    2694                      .dwattr $C$DW$173, DW_AT_accessibility(DW_ACCESS_public)
    2695              $C$DW$174       .dwtag  DW_TAG_member
    2696                      .dwattr $C$DW$174, DW_AT_type(*$C$DW$T$20)
    2697                      .dwattr $C$DW$174, DW_AT_name("RAMSLPMDCNTLR5")
    2698                      .dwattr $C$DW$174, DW_AT_TI_symbol_name("_RAMSLPMDCNTLR5")
    2699                      .dwattr $C$DW$174, DW_AT_data_member_location[DW_OP_plus_uconst 0x2d]
    2700                      .dwattr $C$DW$174, DW_AT_accessibility(DW_ACCESS_public)
    2701              $C$DW$175       .dwtag  DW_TAG_member
    2702                      .dwattr $C$DW$175, DW_AT_type(*$C$DW$T$24)
    2703                      .dwattr $C$DW$175, DW_AT_name("RSVD6")
    2704                      .dwattr $C$DW$175, DW_AT_TI_symbol_name("_RSVD6")
    2705                      .dwattr $C$DW$175, DW_AT_data_member_location[DW_OP_plus_uconst 0x2e]
    2706                      .dwattr $C$DW$175, DW_AT_accessibility(DW_ACCESS_public)
    2707              $C$DW$176       .dwtag  DW_TAG_member
    2708                      .dwattr $C$DW$176, DW_AT_type(*$C$DW$T$20)
    2709                      .dwattr $C$DW$176, DW_AT_name("DMAIFR")
    2710                      .dwattr $C$DW$176, DW_AT_TI_symbol_name("_DMAIFR")
    2711                      .dwattr $C$DW$176, DW_AT_data_member_location[DW_OP_plus_uconst 0x30]
    2712                      .dwattr $C$DW$176, DW_AT_accessibility(DW_ACCESS_public)
    2713              $C$DW$177       .dwtag  DW_TAG_member
    2714                      .dwattr $C$DW$177, DW_AT_type(*$C$DW$T$20)
    2715                      .dwattr $C$DW$177, DW_AT_name("DMAIER")
    2716                      .dwattr $C$DW$177, DW_AT_TI_symbol_name("_DMAIER")
    2717                      .dwattr $C$DW$177, DW_AT_data_member_location[DW_OP_plus_uconst 0x31]
    2718                      .dwattr $C$DW$177, DW_AT_accessibility(DW_ACCESS_public)
    2719              $C$DW$178       .dwtag  DW_TAG_member
    2720                      .dwattr $C$DW$178, DW_AT_type(*$C$DW$T$20)
    2721                      .dwattr $C$DW$178, DW_AT_name("USBSCR")
    2722                      .dwattr $C$DW$178, DW_AT_TI_symbol_name("_USBSCR")
    2723                      .dwattr $C$DW$178, DW_AT_data_member_location[DW_OP_plus_uconst 0x32]
    2724                      .dwattr $C$DW$178, DW_AT_accessibility(DW_ACCESS_public)
    2725              $C$DW$179       .dwtag  DW_TAG_member
    2726                      .dwattr $C$DW$179, DW_AT_type(*$C$DW$T$20)
    2727                      .dwattr $C$DW$179, DW_AT_name("ESCR")
    2728                      .dwattr $C$DW$179, DW_AT_TI_symbol_name("_ESCR")
    2729                      .dwattr $C$DW$179, DW_AT_data_member_location[DW_OP_plus_uconst 0x33]
    2730                      .dwattr $C$DW$179, DW_AT_accessibility(DW_ACCESS_public)
    2731              $C$DW$180       .dwtag  DW_TAG_member
    2732                      .dwattr $C$DW$180, DW_AT_type(*$C$DW$T$24)
    2733                      .dwattr $C$DW$180, DW_AT_name("RSVD7")
    2734                      .dwattr $C$DW$180, DW_AT_TI_symbol_name("_RSVD7")
    2735                      .dwattr $C$DW$180, DW_AT_data_member_location[DW_OP_plus_uconst 0x34]
    2736                      .dwattr $C$DW$180, DW_AT_accessibility(DW_ACCESS_public)
    2737              $C$DW$181       .dwtag  DW_TAG_member
    2738                      .dwattr $C$DW$181, DW_AT_type(*$C$DW$T$20)
    2739                      .dwattr $C$DW$181, DW_AT_name("DMA2CESR1")
    2740                      .dwattr $C$DW$181, DW_AT_TI_symbol_name("_DMA2CESR1")
    2741                      .dwattr $C$DW$181, DW_AT_data_member_location[DW_OP_plus_uconst 0x36]
    2742                      .dwattr $C$DW$181, DW_AT_accessibility(DW_ACCESS_public)
    2743              $C$DW$182       .dwtag  DW_TAG_member
    2744                      .dwattr $C$DW$182, DW_AT_type(*$C$DW$T$20)
TMS320C55x Assembler PC v4.4.1 Sun Sep 16 02:56:35 2018

Tools Copyright (c) 1996-2012 Texas Instruments Incorporated
csl_i2c.asm                                                          PAGE   65

    2745                      .dwattr $C$DW$182, DW_AT_name("DMA2CESR2")
    2746                      .dwattr $C$DW$182, DW_AT_TI_symbol_name("_DMA2CESR2")
    2747                      .dwattr $C$DW$182, DW_AT_data_member_location[DW_OP_plus_uconst 0x37]
    2748                      .dwattr $C$DW$182, DW_AT_accessibility(DW_ACCESS_public)
    2749              $C$DW$183       .dwtag  DW_TAG_member
    2750                      .dwattr $C$DW$183, DW_AT_type(*$C$DW$T$20)
    2751                      .dwattr $C$DW$183, DW_AT_name("DMA3CESR1")
    2752                      .dwattr $C$DW$183, DW_AT_TI_symbol_name("_DMA3CESR1")
    2753                      .dwattr $C$DW$183, DW_AT_data_member_location[DW_OP_plus_uconst 0x38]
    2754                      .dwattr $C$DW$183, DW_AT_accessibility(DW_ACCESS_public)
    2755              $C$DW$184       .dwtag  DW_TAG_member
    2756                      .dwattr $C$DW$184, DW_AT_type(*$C$DW$T$20)
    2757                      .dwattr $C$DW$184, DW_AT_name("DMA3CESR2")
    2758                      .dwattr $C$DW$184, DW_AT_TI_symbol_name("_DMA3CESR2")
    2759                      .dwattr $C$DW$184, DW_AT_data_member_location[DW_OP_plus_uconst 0x39]
    2760                      .dwattr $C$DW$184, DW_AT_accessibility(DW_ACCESS_public)
    2761              $C$DW$185       .dwtag  DW_TAG_member
    2762                      .dwattr $C$DW$185, DW_AT_type(*$C$DW$T$20)
    2763                      .dwattr $C$DW$185, DW_AT_name("CLKSTOP")
    2764                      .dwattr $C$DW$185, DW_AT_TI_symbol_name("_CLKSTOP")
    2765                      .dwattr $C$DW$185, DW_AT_data_member_location[DW_OP_plus_uconst 0x3a]
    2766                      .dwattr $C$DW$185, DW_AT_accessibility(DW_ACCESS_public)
    2767              $C$DW$186       .dwtag  DW_TAG_member
    2768                      .dwattr $C$DW$186, DW_AT_type(*$C$DW$T$25)
    2769                      .dwattr $C$DW$186, DW_AT_name("RSVD8")
    2770                      .dwattr $C$DW$186, DW_AT_TI_symbol_name("_RSVD8")
    2771                      .dwattr $C$DW$186, DW_AT_data_member_location[DW_OP_plus_uconst 0x3b]
    2772                      .dwattr $C$DW$186, DW_AT_accessibility(DW_ACCESS_public)
    2773              $C$DW$187       .dwtag  DW_TAG_member
    2774                      .dwattr $C$DW$187, DW_AT_type(*$C$DW$T$20)
    2775                      .dwattr $C$DW$187, DW_AT_name("DIEIDR0")
    2776                      .dwattr $C$DW$187, DW_AT_TI_symbol_name("_DIEIDR0")
    2777                      .dwattr $C$DW$187, DW_AT_data_member_location[DW_OP_plus_uconst 0x40]
    2778                      .dwattr $C$DW$187, DW_AT_accessibility(DW_ACCESS_public)
    2779              $C$DW$188       .dwtag  DW_TAG_member
    2780                      .dwattr $C$DW$188, DW_AT_type(*$C$DW$T$20)
    2781                      .dwattr $C$DW$188, DW_AT_name("DIEIDR1")
    2782                      .dwattr $C$DW$188, DW_AT_TI_symbol_name("_DIEIDR1")
    2783                      .dwattr $C$DW$188, DW_AT_data_member_location[DW_OP_plus_uconst 0x41]
    2784                      .dwattr $C$DW$188, DW_AT_accessibility(DW_ACCESS_public)
    2785              $C$DW$189       .dwtag  DW_TAG_member
    2786                      .dwattr $C$DW$189, DW_AT_type(*$C$DW$T$20)
    2787                      .dwattr $C$DW$189, DW_AT_name("DIEIDR2")
    2788                      .dwattr $C$DW$189, DW_AT_TI_symbol_name("_DIEIDR2")
    2789                      .dwattr $C$DW$189, DW_AT_data_member_location[DW_OP_plus_uconst 0x42]
    2790                      .dwattr $C$DW$189, DW_AT_accessibility(DW_ACCESS_public)
    2791              $C$DW$190       .dwtag  DW_TAG_member
    2792                      .dwattr $C$DW$190, DW_AT_type(*$C$DW$T$20)
    2793                      .dwattr $C$DW$190, DW_AT_name("DIEIDR3")
    2794                      .dwattr $C$DW$190, DW_AT_TI_symbol_name("_DIEIDR3")
    2795                      .dwattr $C$DW$190, DW_AT_data_member_location[DW_OP_plus_uconst 0x43]
    2796                      .dwattr $C$DW$190, DW_AT_accessibility(DW_ACCESS_public)
    2797              $C$DW$191       .dwtag  DW_TAG_member
    2798                      .dwattr $C$DW$191, DW_AT_type(*$C$DW$T$20)
    2799                      .dwattr $C$DW$191, DW_AT_name("DIEIDR4")
TMS320C55x Assembler PC v4.4.1 Sun Sep 16 02:56:35 2018

Tools Copyright (c) 1996-2012 Texas Instruments Incorporated
csl_i2c.asm                                                          PAGE   66

    2800                      .dwattr $C$DW$191, DW_AT_TI_symbol_name("_DIEIDR4")
    2801                      .dwattr $C$DW$191, DW_AT_data_member_location[DW_OP_plus_uconst 0x44]
    2802                      .dwattr $C$DW$191, DW_AT_accessibility(DW_ACCESS_public)
    2803              $C$DW$192       .dwtag  DW_TAG_member
    2804                      .dwattr $C$DW$192, DW_AT_type(*$C$DW$T$20)
    2805                      .dwattr $C$DW$192, DW_AT_name("DIEIDR5")
    2806                      .dwattr $C$DW$192, DW_AT_TI_symbol_name("_DIEIDR5")
    2807                      .dwattr $C$DW$192, DW_AT_data_member_location[DW_OP_plus_uconst 0x45]
    2808                      .dwattr $C$DW$192, DW_AT_accessibility(DW_ACCESS_public)
    2809              $C$DW$193       .dwtag  DW_TAG_member
    2810                      .dwattr $C$DW$193, DW_AT_type(*$C$DW$T$20)
    2811                      .dwattr $C$DW$193, DW_AT_name("DIEIDR6")
    2812                      .dwattr $C$DW$193, DW_AT_TI_symbol_name("_DIEIDR6")
    2813                      .dwattr $C$DW$193, DW_AT_data_member_location[DW_OP_plus_uconst 0x46]
    2814                      .dwattr $C$DW$193, DW_AT_accessibility(DW_ACCESS_public)
    2815              $C$DW$194       .dwtag  DW_TAG_member
    2816                      .dwattr $C$DW$194, DW_AT_type(*$C$DW$T$20)
    2817                      .dwattr $C$DW$194, DW_AT_name("DIEIDR7")
    2818                      .dwattr $C$DW$194, DW_AT_TI_symbol_name("_DIEIDR7")
    2819                      .dwattr $C$DW$194, DW_AT_data_member_location[DW_OP_plus_uconst 0x47]
    2820                      .dwattr $C$DW$194, DW_AT_accessibility(DW_ACCESS_public)
    2821                      .dwendtag $C$DW$T$26
    2822              
    2823              $C$DW$T$36      .dwtag  DW_TAG_typedef, DW_AT_name("CSL_SysRegs")
    2824                      .dwattr $C$DW$T$36, DW_AT_type(*$C$DW$T$26)
    2825                      .dwattr $C$DW$T$36, DW_AT_language(DW_LANG_C)
    2826              $C$DW$195       .dwtag  DW_TAG_TI_far_type
    2827                      .dwattr $C$DW$195, DW_AT_type(*$C$DW$T$36)
    2828              $C$DW$196       .dwtag  DW_TAG_TI_ioport_type
    2829                      .dwattr $C$DW$196, DW_AT_type(*$C$DW$195)
    2830              $C$DW$T$37      .dwtag  DW_TAG_volatile_type
    2831                      .dwattr $C$DW$T$37, DW_AT_type(*$C$DW$196)
    2832              $C$DW$T$38      .dwtag  DW_TAG_pointer_type
    2833                      .dwattr $C$DW$T$38, DW_AT_type(*$C$DW$T$37)
    2834                      .dwattr $C$DW$T$38, DW_AT_address_class(0x10)
    2835              $C$DW$T$39      .dwtag  DW_TAG_typedef, DW_AT_name("CSL_SysRegsOvly")
    2836                      .dwattr $C$DW$T$39, DW_AT_type(*$C$DW$T$38)
    2837                      .dwattr $C$DW$T$39, DW_AT_language(DW_LANG_C)
    2838              
    2839              $C$DW$T$42      .dwtag  DW_TAG_enumeration_type
    2840                      .dwattr $C$DW$T$42, DW_AT_name("CSL_I2cAddrMode")
    2841                      .dwattr $C$DW$T$42, DW_AT_byte_size(0x01)
    2842              $C$DW$197       .dwtag  DW_TAG_enumerator, DW_AT_name("CSL_I2C_ADDR_7BIT"), DW_AT_const_value(0x00)
    2843              $C$DW$198       .dwtag  DW_TAG_enumerator, DW_AT_name("CSL_I2C_ADDR_10BIT"), DW_AT_const_value(0x01)
    2844                      .dwendtag $C$DW$T$42
    2845              
    2846              $C$DW$T$43      .dwtag  DW_TAG_typedef, DW_AT_name("CSL_I2cAddrMode")
    2847                      .dwattr $C$DW$T$43, DW_AT_type(*$C$DW$T$42)
    2848                      .dwattr $C$DW$T$43, DW_AT_language(DW_LANG_C)
    2849              
    2850              $C$DW$T$44      .dwtag  DW_TAG_enumeration_type
    2851                      .dwattr $C$DW$T$44, DW_AT_name("CSL_I2cBitCount")
    2852                      .dwattr $C$DW$T$44, DW_AT_byte_size(0x01)
    2853              $C$DW$199       .dwtag  DW_TAG_enumerator, DW_AT_name("CSL_I2C_BC_8BITS"), DW_AT_const_value(0x00)
    2854              $C$DW$200       .dwtag  DW_TAG_enumerator, DW_AT_name("CSL_I2C_BC_RSVD"), DW_AT_const_value(0x01)
TMS320C55x Assembler PC v4.4.1 Sun Sep 16 02:56:35 2018

Tools Copyright (c) 1996-2012 Texas Instruments Incorporated
csl_i2c.asm                                                          PAGE   67

    2855              $C$DW$201       .dwtag  DW_TAG_enumerator, DW_AT_name("CSL_I2C_BC_2BITS"), DW_AT_const_value(0x02)
    2856              $C$DW$202       .dwtag  DW_TAG_enumerator, DW_AT_name("CSL_I2C_BC_3BITS"), DW_AT_const_value(0x03)
    2857              $C$DW$203       .dwtag  DW_TAG_enumerator, DW_AT_name("CSL_I2C_BC_4BITS"), DW_AT_const_value(0x04)
    2858              $C$DW$204       .dwtag  DW_TAG_enumerator, DW_AT_name("CSL_I2C_BC_5BITS"), DW_AT_const_value(0x05)
    2859              $C$DW$205       .dwtag  DW_TAG_enumerator, DW_AT_name("CSL_I2C_BC_6BITS"), DW_AT_const_value(0x06)
    2860              $C$DW$206       .dwtag  DW_TAG_enumerator, DW_AT_name("CSL_I2C_BC_7BITS"), DW_AT_const_value(0x07)
    2861                      .dwendtag $C$DW$T$44
    2862              
    2863              $C$DW$T$45      .dwtag  DW_TAG_typedef, DW_AT_name("CSL_I2cBitCount")
    2864                      .dwattr $C$DW$T$45, DW_AT_type(*$C$DW$T$44)
    2865                      .dwattr $C$DW$T$45, DW_AT_language(DW_LANG_C)
    2866              
    2867              $C$DW$T$27      .dwtag  DW_TAG_structure_type
    2868                      .dwattr $C$DW$T$27, DW_AT_name("CSL_I2cConfig")
    2869                      .dwattr $C$DW$T$27, DW_AT_byte_size(0x09)
    2870              $C$DW$207       .dwtag  DW_TAG_member
    2871                      .dwattr $C$DW$207, DW_AT_type(*$C$DW$T$19)
    2872                      .dwattr $C$DW$207, DW_AT_name("icoar")
    2873                      .dwattr $C$DW$207, DW_AT_TI_symbol_name("_icoar")
    2874                      .dwattr $C$DW$207, DW_AT_data_member_location[DW_OP_plus_uconst 0x0]
    2875                      .dwattr $C$DW$207, DW_AT_accessibility(DW_ACCESS_public)
    2876              $C$DW$208       .dwtag  DW_TAG_member
    2877                      .dwattr $C$DW$208, DW_AT_type(*$C$DW$T$19)
    2878                      .dwattr $C$DW$208, DW_AT_name("icimr")
    2879                      .dwattr $C$DW$208, DW_AT_TI_symbol_name("_icimr")
    2880                      .dwattr $C$DW$208, DW_AT_data_member_location[DW_OP_plus_uconst 0x1]
    2881                      .dwattr $C$DW$208, DW_AT_accessibility(DW_ACCESS_public)
    2882              $C$DW$209       .dwtag  DW_TAG_member
    2883                      .dwattr $C$DW$209, DW_AT_type(*$C$DW$T$19)
    2884                      .dwattr $C$DW$209, DW_AT_name("icclkl")
    2885                      .dwattr $C$DW$209, DW_AT_TI_symbol_name("_icclkl")
    2886                      .dwattr $C$DW$209, DW_AT_data_member_location[DW_OP_plus_uconst 0x2]
    2887                      .dwattr $C$DW$209, DW_AT_accessibility(DW_ACCESS_public)
    2888              $C$DW$210       .dwtag  DW_TAG_member
    2889                      .dwattr $C$DW$210, DW_AT_type(*$C$DW$T$19)
    2890                      .dwattr $C$DW$210, DW_AT_name("icclkh")
    2891                      .dwattr $C$DW$210, DW_AT_TI_symbol_name("_icclkh")
    2892                      .dwattr $C$DW$210, DW_AT_data_member_location[DW_OP_plus_uconst 0x3]
    2893                      .dwattr $C$DW$210, DW_AT_accessibility(DW_ACCESS_public)
    2894              $C$DW$211       .dwtag  DW_TAG_member
    2895                      .dwattr $C$DW$211, DW_AT_type(*$C$DW$T$19)
    2896                      .dwattr $C$DW$211, DW_AT_name("iccnt")
    2897                      .dwattr $C$DW$211, DW_AT_TI_symbol_name("_iccnt")
    2898                      .dwattr $C$DW$211, DW_AT_data_member_location[DW_OP_plus_uconst 0x4]
    2899                      .dwattr $C$DW$211, DW_AT_accessibility(DW_ACCESS_public)
    2900              $C$DW$212       .dwtag  DW_TAG_member
    2901                      .dwattr $C$DW$212, DW_AT_type(*$C$DW$T$19)
    2902                      .dwattr $C$DW$212, DW_AT_name("icsar")
    2903                      .dwattr $C$DW$212, DW_AT_TI_symbol_name("_icsar")
    2904                      .dwattr $C$DW$212, DW_AT_data_member_location[DW_OP_plus_uconst 0x5]
    2905                      .dwattr $C$DW$212, DW_AT_accessibility(DW_ACCESS_public)
    2906              $C$DW$213       .dwtag  DW_TAG_member
    2907                      .dwattr $C$DW$213, DW_AT_type(*$C$DW$T$19)
    2908                      .dwattr $C$DW$213, DW_AT_name("icmdr")
    2909                      .dwattr $C$DW$213, DW_AT_TI_symbol_name("_icmdr")
TMS320C55x Assembler PC v4.4.1 Sun Sep 16 02:56:35 2018

Tools Copyright (c) 1996-2012 Texas Instruments Incorporated
csl_i2c.asm                                                          PAGE   68

    2910                      .dwattr $C$DW$213, DW_AT_data_member_location[DW_OP_plus_uconst 0x6]
    2911                      .dwattr $C$DW$213, DW_AT_accessibility(DW_ACCESS_public)
    2912              $C$DW$214       .dwtag  DW_TAG_member
    2913                      .dwattr $C$DW$214, DW_AT_type(*$C$DW$T$19)
    2914                      .dwattr $C$DW$214, DW_AT_name("icemdr")
    2915                      .dwattr $C$DW$214, DW_AT_TI_symbol_name("_icemdr")
    2916                      .dwattr $C$DW$214, DW_AT_data_member_location[DW_OP_plus_uconst 0x7]
    2917                      .dwattr $C$DW$214, DW_AT_accessibility(DW_ACCESS_public)
    2918              $C$DW$215       .dwtag  DW_TAG_member
    2919                      .dwattr $C$DW$215, DW_AT_type(*$C$DW$T$19)
    2920                      .dwattr $C$DW$215, DW_AT_name("icpsc")
    2921                      .dwattr $C$DW$215, DW_AT_TI_symbol_name("_icpsc")
    2922                      .dwattr $C$DW$215, DW_AT_data_member_location[DW_OP_plus_uconst 0x8]
    2923                      .dwattr $C$DW$215, DW_AT_accessibility(DW_ACCESS_public)
    2924                      .dwendtag $C$DW$T$27
    2925              
    2926              $C$DW$T$54      .dwtag  DW_TAG_typedef, DW_AT_name("CSL_I2cConfig")
    2927                      .dwattr $C$DW$T$54, DW_AT_type(*$C$DW$T$27)
    2928                      .dwattr $C$DW$T$54, DW_AT_language(DW_LANG_C)
    2929              $C$DW$T$55      .dwtag  DW_TAG_pointer_type
    2930                      .dwattr $C$DW$T$55, DW_AT_type(*$C$DW$T$54)
    2931                      .dwattr $C$DW$T$55, DW_AT_address_class(0x17)
    2932              
    2933              $C$DW$T$56      .dwtag  DW_TAG_enumeration_type
    2934                      .dwattr $C$DW$T$56, DW_AT_name("CSL_I2cEvent")
    2935                      .dwattr $C$DW$T$56, DW_AT_byte_size(0x01)
    2936              $C$DW$216       .dwtag  DW_TAG_enumerator, DW_AT_name("CSL_I2C_EVENT_AL"), DW_AT_const_value(0x00)
    2937              $C$DW$217       .dwtag  DW_TAG_enumerator, DW_AT_name("CSL_I2C_EVENT_NACK"), DW_AT_const_value(0x01)
    2938              $C$DW$218       .dwtag  DW_TAG_enumerator, DW_AT_name("CSL_I2C_EVENT_ARDY"), DW_AT_const_value(0x02)
    2939              $C$DW$219       .dwtag  DW_TAG_enumerator, DW_AT_name("CSL_I2C_EVENT_ICRRDY"), DW_AT_const_value(0x03)
    2940              $C$DW$220       .dwtag  DW_TAG_enumerator, DW_AT_name("CSL_I2C_EVENT_ICXRDY"), DW_AT_const_value(0x04)
    2941              $C$DW$221       .dwtag  DW_TAG_enumerator, DW_AT_name("CSL_I2C_EVENT_SCD"), DW_AT_const_value(0x05)
    2942              $C$DW$222       .dwtag  DW_TAG_enumerator, DW_AT_name("CSL_I2C_EVENT_AAS"), DW_AT_const_value(0x06)
    2943                      .dwendtag $C$DW$T$56
    2944              
    2945              $C$DW$T$57      .dwtag  DW_TAG_typedef, DW_AT_name("CSL_I2cEvent")
    2946                      .dwattr $C$DW$T$57, DW_AT_type(*$C$DW$T$56)
    2947                      .dwattr $C$DW$T$57, DW_AT_language(DW_LANG_C)
    2948              
    2949              $C$DW$T$48      .dwtag  DW_TAG_enumeration_type
    2950                      .dwattr $C$DW$T$48, DW_AT_name("CSL_I2cFreeMode")
    2951                      .dwattr $C$DW$T$48, DW_AT_byte_size(0x01)
    2952              $C$DW$223       .dwtag  DW_TAG_enumerator, DW_AT_name("CSL_I2C_FREEMODE_DISABLE"), DW_AT_const_value(0x00)
    2953              $C$DW$224       .dwtag  DW_TAG_enumerator, DW_AT_name("CSL_I2C_FREEMODE_ENABLE"), DW_AT_const_value(0x01)
    2954                      .dwendtag $C$DW$T$48
    2955              
    2956              $C$DW$T$49      .dwtag  DW_TAG_typedef, DW_AT_name("CSL_I2cFreeMode")
    2957                      .dwattr $C$DW$T$49, DW_AT_type(*$C$DW$T$48)
    2958                      .dwattr $C$DW$T$49, DW_AT_language(DW_LANG_C)
    2959              
    2960              $C$DW$T$31      .dwtag  DW_TAG_structure_type
    2961                      .dwattr $C$DW$T$31, DW_AT_name("CSL_I2cIsrAddr")
    2962                      .dwattr $C$DW$T$31, DW_AT_byte_size(0x0e)
    2963              $C$DW$225       .dwtag  DW_TAG_member
    2964                      .dwattr $C$DW$225, DW_AT_type(*$C$DW$T$30)
TMS320C55x Assembler PC v4.4.1 Sun Sep 16 02:56:35 2018

Tools Copyright (c) 1996-2012 Texas Instruments Incorporated
csl_i2c.asm                                                          PAGE   69

    2965                      .dwattr $C$DW$225, DW_AT_name("alAddr")
    2966                      .dwattr $C$DW$225, DW_AT_TI_symbol_name("_alAddr")
    2967                      .dwattr $C$DW$225, DW_AT_data_member_location[DW_OP_plus_uconst 0x0]
    2968                      .dwattr $C$DW$225, DW_AT_accessibility(DW_ACCESS_public)
    2969              $C$DW$226       .dwtag  DW_TAG_member
    2970                      .dwattr $C$DW$226, DW_AT_type(*$C$DW$T$30)
    2971                      .dwattr $C$DW$226, DW_AT_name("nackAddr")
    2972                      .dwattr $C$DW$226, DW_AT_TI_symbol_name("_nackAddr")
    2973                      .dwattr $C$DW$226, DW_AT_data_member_location[DW_OP_plus_uconst 0x2]
    2974                      .dwattr $C$DW$226, DW_AT_accessibility(DW_ACCESS_public)
    2975              $C$DW$227       .dwtag  DW_TAG_member
    2976                      .dwattr $C$DW$227, DW_AT_type(*$C$DW$T$30)
    2977                      .dwattr $C$DW$227, DW_AT_name("ardyAddr")
    2978                      .dwattr $C$DW$227, DW_AT_TI_symbol_name("_ardyAddr")
    2979                      .dwattr $C$DW$227, DW_AT_data_member_location[DW_OP_plus_uconst 0x4]
    2980                      .dwattr $C$DW$227, DW_AT_accessibility(DW_ACCESS_public)
    2981              $C$DW$228       .dwtag  DW_TAG_member
    2982                      .dwattr $C$DW$228, DW_AT_type(*$C$DW$T$30)
    2983                      .dwattr $C$DW$228, DW_AT_name("rrdyAddr")
    2984                      .dwattr $C$DW$228, DW_AT_TI_symbol_name("_rrdyAddr")
    2985                      .dwattr $C$DW$228, DW_AT_data_member_location[DW_OP_plus_uconst 0x6]
    2986                      .dwattr $C$DW$228, DW_AT_accessibility(DW_ACCESS_public)
    2987              $C$DW$229       .dwtag  DW_TAG_member
    2988                      .dwattr $C$DW$229, DW_AT_type(*$C$DW$T$30)
    2989                      .dwattr $C$DW$229, DW_AT_name("xrdyAddr")
    2990                      .dwattr $C$DW$229, DW_AT_TI_symbol_name("_xrdyAddr")
    2991                      .dwattr $C$DW$229, DW_AT_data_member_location[DW_OP_plus_uconst 0x8]
    2992                      .dwattr $C$DW$229, DW_AT_accessibility(DW_ACCESS_public)
    2993              $C$DW$230       .dwtag  DW_TAG_member
    2994                      .dwattr $C$DW$230, DW_AT_type(*$C$DW$T$30)
    2995                      .dwattr $C$DW$230, DW_AT_name("scdAddr")
    2996                      .dwattr $C$DW$230, DW_AT_TI_symbol_name("_scdAddr")
    2997                      .dwattr $C$DW$230, DW_AT_data_member_location[DW_OP_plus_uconst 0xa]
    2998                      .dwattr $C$DW$230, DW_AT_accessibility(DW_ACCESS_public)
    2999              $C$DW$231       .dwtag  DW_TAG_member
    3000                      .dwattr $C$DW$231, DW_AT_type(*$C$DW$T$30)
    3001                      .dwattr $C$DW$231, DW_AT_name("aasAddr")
    3002                      .dwattr $C$DW$231, DW_AT_TI_symbol_name("_aasAddr")
    3003                      .dwattr $C$DW$231, DW_AT_data_member_location[DW_OP_plus_uconst 0xc]
    3004                      .dwattr $C$DW$231, DW_AT_accessibility(DW_ACCESS_public)
    3005                      .dwendtag $C$DW$T$31
    3006              
    3007              $C$DW$T$58      .dwtag  DW_TAG_typedef, DW_AT_name("CSL_I2cIsrAddr")
    3008                      .dwattr $C$DW$T$58, DW_AT_type(*$C$DW$T$31)
    3009                      .dwattr $C$DW$T$58, DW_AT_language(DW_LANG_C)
    3010              $C$DW$T$59      .dwtag  DW_TAG_pointer_type
    3011                      .dwattr $C$DW$T$59, DW_AT_type(*$C$DW$T$58)
    3012                      .dwattr $C$DW$T$59, DW_AT_address_class(0x17)
    3013              
    3014              $C$DW$T$46      .dwtag  DW_TAG_enumeration_type
    3015                      .dwattr $C$DW$T$46, DW_AT_name("CSL_I2cLoopback")
    3016                      .dwattr $C$DW$T$46, DW_AT_byte_size(0x01)
    3017              $C$DW$232       .dwtag  DW_TAG_enumerator, DW_AT_name("CSL_I2C_LOOPBACK_DISABLE"), DW_AT_const_value(0x00)
    3018              $C$DW$233       .dwtag  DW_TAG_enumerator, DW_AT_name("CSL_I2C_LOOPBACK_ENABLE"), DW_AT_const_value(0x01)
    3019                      .dwendtag $C$DW$T$46
TMS320C55x Assembler PC v4.4.1 Sun Sep 16 02:56:35 2018

Tools Copyright (c) 1996-2012 Texas Instruments Incorporated
csl_i2c.asm                                                          PAGE   70

    3020              
    3021              $C$DW$T$47      .dwtag  DW_TAG_typedef, DW_AT_name("CSL_I2cLoopback")
    3022                      .dwattr $C$DW$T$47, DW_AT_type(*$C$DW$T$46)
    3023                      .dwattr $C$DW$T$47, DW_AT_language(DW_LANG_C)
    3024              
    3025              $C$DW$T$41      .dwtag  DW_TAG_structure_type
    3026                      .dwattr $C$DW$T$41, DW_AT_name("CSL_I2cObj")
    3027                      .dwattr $C$DW$T$41, DW_AT_byte_size(0x10)
    3028              $C$DW$234       .dwtag  DW_TAG_member
    3029                      .dwattr $C$DW$234, DW_AT_type(*$C$DW$T$35)
    3030                      .dwattr $C$DW$234, DW_AT_name("i2cRegs")
    3031                      .dwattr $C$DW$234, DW_AT_TI_symbol_name("_i2cRegs")
    3032                      .dwattr $C$DW$234, DW_AT_data_member_location[DW_OP_plus_uconst 0x0]
    3033                      .dwattr $C$DW$234, DW_AT_accessibility(DW_ACCESS_public)
    3034              $C$DW$235       .dwtag  DW_TAG_member
    3035                      .dwattr $C$DW$235, DW_AT_type(*$C$DW$T$39)
    3036                      .dwattr $C$DW$235, DW_AT_name("sysCtrlRegs")
    3037                      .dwattr $C$DW$235, DW_AT_TI_symbol_name("_sysCtrlRegs")
    3038                      .dwattr $C$DW$235, DW_AT_data_member_location[DW_OP_plus_uconst 0x1]
    3039                      .dwattr $C$DW$235, DW_AT_accessibility(DW_ACCESS_public)
    3040              $C$DW$236       .dwtag  DW_TAG_member
    3041                      .dwattr $C$DW$236, DW_AT_type(*$C$DW$T$40)
    3042                      .dwattr $C$DW$236, DW_AT_name("I2C_isrDispatchTable")
    3043                      .dwattr $C$DW$236, DW_AT_TI_symbol_name("_I2C_isrDispatchTable")
    3044                      .dwattr $C$DW$236, DW_AT_data_member_location[DW_OP_plus_uconst 0x2]
    3045                      .dwattr $C$DW$236, DW_AT_accessibility(DW_ACCESS_public)
    3046                      .dwendtag $C$DW$T$41
    3047              
    3048              $C$DW$T$60      .dwtag  DW_TAG_typedef, DW_AT_name("CSL_I2cObj")
    3049                      .dwattr $C$DW$T$60, DW_AT_type(*$C$DW$T$41)
    3050                      .dwattr $C$DW$T$60, DW_AT_language(DW_LANG_C)
    3051              
    3052              $C$DW$T$61      .dwtag  DW_TAG_array_type
    3053                      .dwattr $C$DW$T$61, DW_AT_type(*$C$DW$T$60)
    3054                      .dwattr $C$DW$T$61, DW_AT_language(DW_LANG_C)
    3055                      .dwattr $C$DW$T$61, DW_AT_byte_size(0x10)
    3056              $C$DW$237       .dwtag  DW_TAG_subrange_type
    3057                      .dwattr $C$DW$237, DW_AT_upper_bound(0x00)
    3058                      .dwendtag $C$DW$T$61
    3059              
    3060              $C$DW$T$62      .dwtag  DW_TAG_pointer_type
    3061                      .dwattr $C$DW$T$62, DW_AT_type(*$C$DW$T$60)
    3062                      .dwattr $C$DW$T$62, DW_AT_address_class(0x17)
    3063              $C$DW$T$63      .dwtag  DW_TAG_typedef, DW_AT_name("pI2cHandle")
    3064                      .dwattr $C$DW$T$63, DW_AT_type(*$C$DW$T$62)
    3065                      .dwattr $C$DW$T$63, DW_AT_language(DW_LANG_C)
    3066              
    3067              $C$DW$T$50      .dwtag  DW_TAG_enumeration_type
    3068                      .dwattr $C$DW$T$50, DW_AT_name("CSL_I2cRepeatMode")
    3069                      .dwattr $C$DW$T$50, DW_AT_byte_size(0x01)
    3070              $C$DW$238       .dwtag  DW_TAG_enumerator, DW_AT_name("CSL_I2C_REPEATMODE_DISABLE"), DW_AT_const_value(0x00)
    3071              $C$DW$239       .dwtag  DW_TAG_enumerator, DW_AT_name("CSL_I2C_REPEATMODE_ENABLE"), DW_AT_const_value(0x01)
    3072                      .dwendtag $C$DW$T$50
    3073              
    3074              $C$DW$T$51      .dwtag  DW_TAG_typedef, DW_AT_name("CSL_I2cRepeatMode")
TMS320C55x Assembler PC v4.4.1 Sun Sep 16 02:56:35 2018

Tools Copyright (c) 1996-2012 Texas Instruments Incorporated
csl_i2c.asm                                                          PAGE   71

    3075                      .dwattr $C$DW$T$51, DW_AT_type(*$C$DW$T$50)
    3076                      .dwattr $C$DW$T$51, DW_AT_language(DW_LANG_C)
    3077              
    3078              $C$DW$T$53      .dwtag  DW_TAG_structure_type
    3079                      .dwattr $C$DW$T$53, DW_AT_name("CSL_I2cSetup")
    3080                      .dwattr $C$DW$T$53, DW_AT_byte_size(0x0a)
    3081              $C$DW$240       .dwtag  DW_TAG_member
    3082                      .dwattr $C$DW$240, DW_AT_type(*$C$DW$T$43)
    3083                      .dwattr $C$DW$240, DW_AT_name("addrMode")
    3084                      .dwattr $C$DW$240, DW_AT_TI_symbol_name("_addrMode")
    3085                      .dwattr $C$DW$240, DW_AT_data_member_location[DW_OP_plus_uconst 0x0]
    3086                      .dwattr $C$DW$240, DW_AT_accessibility(DW_ACCESS_public)
    3087              $C$DW$241       .dwtag  DW_TAG_member
    3088                      .dwattr $C$DW$241, DW_AT_type(*$C$DW$T$45)
    3089                      .dwattr $C$DW$241, DW_AT_name("bitCount")
    3090                      .dwattr $C$DW$241, DW_AT_TI_symbol_name("_bitCount")
    3091                      .dwattr $C$DW$241, DW_AT_data_member_location[DW_OP_plus_uconst 0x1]
    3092                      .dwattr $C$DW$241, DW_AT_accessibility(DW_ACCESS_public)
    3093              $C$DW$242       .dwtag  DW_TAG_member
    3094                      .dwattr $C$DW$242, DW_AT_type(*$C$DW$T$47)
    3095                      .dwattr $C$DW$242, DW_AT_name("loopBack")
    3096                      .dwattr $C$DW$242, DW_AT_TI_symbol_name("_loopBack")
    3097                      .dwattr $C$DW$242, DW_AT_data_member_location[DW_OP_plus_uconst 0x2]
    3098                      .dwattr $C$DW$242, DW_AT_accessibility(DW_ACCESS_public)
    3099              $C$DW$243       .dwtag  DW_TAG_member
    3100                      .dwattr $C$DW$243, DW_AT_type(*$C$DW$T$49)
    3101                      .dwattr $C$DW$243, DW_AT_name("freeMode")
    3102                      .dwattr $C$DW$243, DW_AT_TI_symbol_name("_freeMode")
    3103                      .dwattr $C$DW$243, DW_AT_data_member_location[DW_OP_plus_uconst 0x3]
    3104                      .dwattr $C$DW$243, DW_AT_accessibility(DW_ACCESS_public)
    3105              $C$DW$244       .dwtag  DW_TAG_member
    3106                      .dwattr $C$DW$244, DW_AT_type(*$C$DW$T$51)
    3107                      .dwattr $C$DW$244, DW_AT_name("repeatMode")
    3108                      .dwattr $C$DW$244, DW_AT_TI_symbol_name("_repeatMode")
    3109                      .dwattr $C$DW$244, DW_AT_data_member_location[DW_OP_plus_uconst 0x4]
    3110                      .dwattr $C$DW$244, DW_AT_accessibility(DW_ACCESS_public)
    3111              $C$DW$245       .dwtag  DW_TAG_member
    3112                      .dwattr $C$DW$245, DW_AT_type(*$C$DW$T$19)
    3113                      .dwattr $C$DW$245, DW_AT_name("ownAddr")
    3114                      .dwattr $C$DW$245, DW_AT_TI_symbol_name("_ownAddr")
    3115                      .dwattr $C$DW$245, DW_AT_data_member_location[DW_OP_plus_uconst 0x5]
    3116                      .dwattr $C$DW$245, DW_AT_accessibility(DW_ACCESS_public)
    3117              $C$DW$246       .dwtag  DW_TAG_member
    3118                      .dwattr $C$DW$246, DW_AT_type(*$C$DW$T$52)
    3119                      .dwattr $C$DW$246, DW_AT_name("sysInputClk")
    3120                      .dwattr $C$DW$246, DW_AT_TI_symbol_name("_sysInputClk")
    3121                      .dwattr $C$DW$246, DW_AT_data_member_location[DW_OP_plus_uconst 0x6]
    3122                      .dwattr $C$DW$246, DW_AT_accessibility(DW_ACCESS_public)
    3123              $C$DW$247       .dwtag  DW_TAG_member
    3124                      .dwattr $C$DW$247, DW_AT_type(*$C$DW$T$52)
    3125                      .dwattr $C$DW$247, DW_AT_name("i2cBusFreq")
    3126                      .dwattr $C$DW$247, DW_AT_TI_symbol_name("_i2cBusFreq")
    3127                      .dwattr $C$DW$247, DW_AT_data_member_location[DW_OP_plus_uconst 0x8]
    3128                      .dwattr $C$DW$247, DW_AT_accessibility(DW_ACCESS_public)
    3129                      .dwendtag $C$DW$T$53
TMS320C55x Assembler PC v4.4.1 Sun Sep 16 02:56:35 2018

Tools Copyright (c) 1996-2012 Texas Instruments Incorporated
csl_i2c.asm                                                          PAGE   72

    3130              
    3131              $C$DW$T$64      .dwtag  DW_TAG_typedef, DW_AT_name("CSL_I2cSetup")
    3132                      .dwattr $C$DW$T$64, DW_AT_type(*$C$DW$T$53)
    3133                      .dwattr $C$DW$T$64, DW_AT_language(DW_LANG_C)
    3134              $C$DW$T$65      .dwtag  DW_TAG_pointer_type
    3135                      .dwattr $C$DW$T$65, DW_AT_type(*$C$DW$T$64)
    3136                      .dwattr $C$DW$T$65, DW_AT_address_class(0x17)
    3137              
    3138              $C$DW$T$28      .dwtag  DW_TAG_subroutine_type
    3139                      .dwattr $C$DW$T$28, DW_AT_language(DW_LANG_C)
    3140              $C$DW$T$29      .dwtag  DW_TAG_pointer_type
    3141                      .dwattr $C$DW$T$29, DW_AT_type(*$C$DW$T$28)
    3142                      .dwattr $C$DW$T$29, DW_AT_address_class(0x20)
    3143              $C$DW$T$30      .dwtag  DW_TAG_typedef, DW_AT_name("CSL_I2C_EVENT_ISR")
    3144                      .dwattr $C$DW$T$30, DW_AT_type(*$C$DW$T$29)
    3145                      .dwattr $C$DW$T$30, DW_AT_language(DW_LANG_C)
    3146              
    3147              $C$DW$T$40      .dwtag  DW_TAG_array_type
    3148                      .dwattr $C$DW$T$40, DW_AT_type(*$C$DW$T$30)
    3149                      .dwattr $C$DW$T$40, DW_AT_language(DW_LANG_C)
    3150                      .dwattr $C$DW$T$40, DW_AT_byte_size(0x0e)
    3151              $C$DW$248       .dwtag  DW_TAG_subrange_type
    3152                      .dwattr $C$DW$248, DW_AT_upper_bound(0x06)
    3153                      .dwendtag $C$DW$T$40
    3154              
    3155              $C$DW$T$4       .dwtag  DW_TAG_base_type
    3156                      .dwattr $C$DW$T$4, DW_AT_encoding(DW_ATE_boolean)
    3157                      .dwattr $C$DW$T$4, DW_AT_name("bool")
    3158                      .dwattr $C$DW$T$4, DW_AT_byte_size(0x01)
    3159              $C$DW$T$5       .dwtag  DW_TAG_base_type
    3160                      .dwattr $C$DW$T$5, DW_AT_encoding(DW_ATE_signed_char)
    3161                      .dwattr $C$DW$T$5, DW_AT_name("signed char")
    3162                      .dwattr $C$DW$T$5, DW_AT_byte_size(0x01)
    3163              $C$DW$T$6       .dwtag  DW_TAG_base_type
    3164                      .dwattr $C$DW$T$6, DW_AT_encoding(DW_ATE_unsigned_char)
    3165                      .dwattr $C$DW$T$6, DW_AT_name("unsigned char")
    3166                      .dwattr $C$DW$T$6, DW_AT_byte_size(0x01)
    3167              $C$DW$T$7       .dwtag  DW_TAG_base_type
    3168                      .dwattr $C$DW$T$7, DW_AT_encoding(DW_ATE_signed_char)
    3169                      .dwattr $C$DW$T$7, DW_AT_name("wchar_t")
    3170                      .dwattr $C$DW$T$7, DW_AT_byte_size(0x01)
    3171              $C$DW$T$8       .dwtag  DW_TAG_base_type
    3172                      .dwattr $C$DW$T$8, DW_AT_encoding(DW_ATE_signed)
    3173                      .dwattr $C$DW$T$8, DW_AT_name("short")
    3174                      .dwattr $C$DW$T$8, DW_AT_byte_size(0x01)
    3175              $C$DW$T$68      .dwtag  DW_TAG_typedef, DW_AT_name("Int16")
    3176                      .dwattr $C$DW$T$68, DW_AT_type(*$C$DW$T$8)
    3177                      .dwattr $C$DW$T$68, DW_AT_language(DW_LANG_C)
    3178              $C$DW$T$69      .dwtag  DW_TAG_typedef, DW_AT_name("CSL_Status")
    3179                      .dwattr $C$DW$T$69, DW_AT_type(*$C$DW$T$68)
    3180                      .dwattr $C$DW$T$69, DW_AT_language(DW_LANG_C)
    3181              $C$DW$T$9       .dwtag  DW_TAG_base_type
    3182                      .dwattr $C$DW$T$9, DW_AT_encoding(DW_ATE_unsigned)
    3183                      .dwattr $C$DW$T$9, DW_AT_name("unsigned short")
    3184                      .dwattr $C$DW$T$9, DW_AT_byte_size(0x01)
TMS320C55x Assembler PC v4.4.1 Sun Sep 16 02:56:35 2018

Tools Copyright (c) 1996-2012 Texas Instruments Incorporated
csl_i2c.asm                                                          PAGE   73

    3185              $C$DW$T$19      .dwtag  DW_TAG_typedef, DW_AT_name("Uint16")
    3186                      .dwattr $C$DW$T$19, DW_AT_type(*$C$DW$T$9)
    3187                      .dwattr $C$DW$T$19, DW_AT_language(DW_LANG_C)
    3188              $C$DW$249       .dwtag  DW_TAG_TI_far_type
    3189                      .dwattr $C$DW$249, DW_AT_type(*$C$DW$T$19)
    3190              $C$DW$T$20      .dwtag  DW_TAG_volatile_type
    3191                      .dwattr $C$DW$T$20, DW_AT_type(*$C$DW$249)
    3192              
    3193              $C$DW$T$21      .dwtag  DW_TAG_array_type
    3194                      .dwattr $C$DW$T$21, DW_AT_type(*$C$DW$T$20)
    3195                      .dwattr $C$DW$T$21, DW_AT_language(DW_LANG_C)
    3196                      .dwattr $C$DW$T$21, DW_AT_byte_size(0x03)
    3197              $C$DW$250       .dwtag  DW_TAG_subrange_type
    3198                      .dwattr $C$DW$250, DW_AT_upper_bound(0x02)
    3199                      .dwendtag $C$DW$T$21
    3200              
    3201              
    3202              $C$DW$T$23      .dwtag  DW_TAG_array_type
    3203                      .dwattr $C$DW$T$23, DW_AT_type(*$C$DW$T$20)
    3204                      .dwattr $C$DW$T$23, DW_AT_language(DW_LANG_C)
    3205                      .dwattr $C$DW$T$23, DW_AT_byte_size(0x0e)
    3206              $C$DW$251       .dwtag  DW_TAG_subrange_type
    3207                      .dwattr $C$DW$251, DW_AT_upper_bound(0x0d)
    3208                      .dwendtag $C$DW$T$23
    3209              
    3210              
    3211              $C$DW$T$24      .dwtag  DW_TAG_array_type
    3212                      .dwattr $C$DW$T$24, DW_AT_type(*$C$DW$T$20)
    3213                      .dwattr $C$DW$T$24, DW_AT_language(DW_LANG_C)
    3214                      .dwattr $C$DW$T$24, DW_AT_byte_size(0x02)
    3215              $C$DW$252       .dwtag  DW_TAG_subrange_type
    3216                      .dwattr $C$DW$252, DW_AT_upper_bound(0x01)
    3217                      .dwendtag $C$DW$T$24
    3218              
    3219              
    3220              $C$DW$T$25      .dwtag  DW_TAG_array_type
    3221                      .dwattr $C$DW$T$25, DW_AT_type(*$C$DW$T$20)
    3222                      .dwattr $C$DW$T$25, DW_AT_language(DW_LANG_C)
    3223                      .dwattr $C$DW$T$25, DW_AT_byte_size(0x05)
    3224              $C$DW$253       .dwtag  DW_TAG_subrange_type
    3225                      .dwattr $C$DW$253, DW_AT_upper_bound(0x04)
    3226                      .dwendtag $C$DW$T$25
    3227              
    3228              $C$DW$T$73      .dwtag  DW_TAG_pointer_type
    3229                      .dwattr $C$DW$T$73, DW_AT_type(*$C$DW$T$19)
    3230                      .dwattr $C$DW$T$73, DW_AT_address_class(0x17)
    3231              $C$DW$T$10      .dwtag  DW_TAG_base_type
    3232                      .dwattr $C$DW$T$10, DW_AT_encoding(DW_ATE_signed)
    3233                      .dwattr $C$DW$T$10, DW_AT_name("int")
    3234                      .dwattr $C$DW$T$10, DW_AT_byte_size(0x01)
    3235              $C$DW$T$74      .dwtag  DW_TAG_typedef, DW_AT_name("Bool")
    3236                      .dwattr $C$DW$T$74, DW_AT_type(*$C$DW$T$10)
    3237                      .dwattr $C$DW$T$74, DW_AT_language(DW_LANG_C)
    3238              $C$DW$T$11      .dwtag  DW_TAG_base_type
    3239                      .dwattr $C$DW$T$11, DW_AT_encoding(DW_ATE_unsigned)
TMS320C55x Assembler PC v4.4.1 Sun Sep 16 02:56:35 2018

Tools Copyright (c) 1996-2012 Texas Instruments Incorporated
csl_i2c.asm                                                          PAGE   74

    3240                      .dwattr $C$DW$T$11, DW_AT_name("unsigned int")
    3241                      .dwattr $C$DW$T$11, DW_AT_byte_size(0x01)
    3242              $C$DW$T$12      .dwtag  DW_TAG_base_type
    3243                      .dwattr $C$DW$T$12, DW_AT_encoding(DW_ATE_signed)
    3244                      .dwattr $C$DW$T$12, DW_AT_name("long")
    3245                      .dwattr $C$DW$T$12, DW_AT_byte_size(0x02)
    3246              $C$DW$T$13      .dwtag  DW_TAG_base_type
    3247                      .dwattr $C$DW$T$13, DW_AT_encoding(DW_ATE_unsigned)
    3248                      .dwattr $C$DW$T$13, DW_AT_name("unsigned long")
    3249                      .dwattr $C$DW$T$13, DW_AT_byte_size(0x02)
    3250              $C$DW$T$52      .dwtag  DW_TAG_typedef, DW_AT_name("Uint32")
    3251                      .dwattr $C$DW$T$52, DW_AT_type(*$C$DW$T$13)
    3252                      .dwattr $C$DW$T$52, DW_AT_language(DW_LANG_C)
    3253              $C$DW$T$14      .dwtag  DW_TAG_base_type
    3254                      .dwattr $C$DW$T$14, DW_AT_encoding(DW_ATE_signed)
    3255                      .dwattr $C$DW$T$14, DW_AT_name("long long")
    3256                      .dwattr $C$DW$T$14, DW_AT_byte_size(0x04)
    3257                      .dwattr $C$DW$T$14, DW_AT_bit_size(0x28)
    3258                      .dwattr $C$DW$T$14, DW_AT_bit_offset(0x18)
    3259              $C$DW$T$15      .dwtag  DW_TAG_base_type
    3260                      .dwattr $C$DW$T$15, DW_AT_encoding(DW_ATE_unsigned)
    3261                      .dwattr $C$DW$T$15, DW_AT_name("unsigned long long")
    3262                      .dwattr $C$DW$T$15, DW_AT_byte_size(0x04)
    3263                      .dwattr $C$DW$T$15, DW_AT_bit_size(0x28)
    3264                      .dwattr $C$DW$T$15, DW_AT_bit_offset(0x18)
    3265              $C$DW$T$16      .dwtag  DW_TAG_base_type
    3266                      .dwattr $C$DW$T$16, DW_AT_encoding(DW_ATE_float)
    3267                      .dwattr $C$DW$T$16, DW_AT_name("float")
    3268                      .dwattr $C$DW$T$16, DW_AT_byte_size(0x02)
    3269              $C$DW$T$17      .dwtag  DW_TAG_base_type
    3270                      .dwattr $C$DW$T$17, DW_AT_encoding(DW_ATE_float)
    3271                      .dwattr $C$DW$T$17, DW_AT_name("double")
    3272                      .dwattr $C$DW$T$17, DW_AT_byte_size(0x02)
    3273              $C$DW$T$18      .dwtag  DW_TAG_base_type
    3274                      .dwattr $C$DW$T$18, DW_AT_encoding(DW_ATE_float)
    3275                      .dwattr $C$DW$T$18, DW_AT_name("long double")
    3276                      .dwattr $C$DW$T$18, DW_AT_byte_size(0x02)
    3277                      .dwattr $C$DW$CU, DW_AT_language(DW_LANG_C)
    3278              
    3279              ;***************************************************************
    3280              ;* DWARF CIE ENTRIES                                           *
    3281              ;***************************************************************
    3282              
    3283              $C$DW$CIE       .dwcie 91
    3284                      .dwcfi  cfa_register, 36
    3285                      .dwcfi  cfa_offset, 0
    3286                      .dwcfi  undefined, 0
    3287                      .dwcfi  undefined, 1
    3288                      .dwcfi  undefined, 2
    3289                      .dwcfi  undefined, 3
    3290                      .dwcfi  undefined, 4
    3291                      .dwcfi  undefined, 5
    3292                      .dwcfi  undefined, 6
    3293                      .dwcfi  undefined, 7
    3294                      .dwcfi  undefined, 8
TMS320C55x Assembler PC v4.4.1 Sun Sep 16 02:56:35 2018

Tools Copyright (c) 1996-2012 Texas Instruments Incorporated
csl_i2c.asm                                                          PAGE   75

    3295                      .dwcfi  undefined, 9
    3296                      .dwcfi  undefined, 10
    3297                      .dwcfi  undefined, 11
    3298                      .dwcfi  undefined, 12
    3299                      .dwcfi  undefined, 13
    3300                      .dwcfi  same_value, 14
    3301                      .dwcfi  same_value, 15
    3302                      .dwcfi  undefined, 16
    3303                      .dwcfi  undefined, 17
    3304                      .dwcfi  undefined, 18
    3305                      .dwcfi  undefined, 19
    3306                      .dwcfi  undefined, 20
    3307                      .dwcfi  undefined, 21
    3308                      .dwcfi  undefined, 22
    3309                      .dwcfi  undefined, 23
    3310                      .dwcfi  undefined, 24
    3311                      .dwcfi  undefined, 25
    3312                      .dwcfi  same_value, 26
    3313                      .dwcfi  same_value, 27
    3314                      .dwcfi  same_value, 28
    3315                      .dwcfi  same_value, 29
    3316                      .dwcfi  same_value, 30
    3317                      .dwcfi  same_value, 31
    3318                      .dwcfi  undefined, 32
    3319                      .dwcfi  undefined, 33
    3320                      .dwcfi  undefined, 34
    3321                      .dwcfi  undefined, 35
    3322                      .dwcfi  undefined, 36
    3323                      .dwcfi  undefined, 37
    3324                      .dwcfi  undefined, 38
    3325                      .dwcfi  undefined, 39
    3326                      .dwcfi  undefined, 40
    3327                      .dwcfi  undefined, 41
    3328                      .dwcfi  undefined, 42
    3329                      .dwcfi  undefined, 43
    3330                      .dwcfi  undefined, 44
    3331                      .dwcfi  undefined, 45
    3332                      .dwcfi  undefined, 46
    3333                      .dwcfi  undefined, 47
    3334                      .dwcfi  undefined, 48
    3335                      .dwcfi  undefined, 49
    3336                      .dwcfi  undefined, 50
    3337                      .dwcfi  undefined, 51
    3338                      .dwcfi  undefined, 52
    3339                      .dwcfi  undefined, 53
    3340                      .dwcfi  undefined, 54
    3341                      .dwcfi  undefined, 55
    3342                      .dwcfi  undefined, 56
    3343                      .dwcfi  undefined, 57
    3344                      .dwcfi  undefined, 58
    3345                      .dwcfi  undefined, 59
    3346                      .dwcfi  undefined, 60
    3347                      .dwcfi  undefined, 61
    3348                      .dwcfi  undefined, 62
    3349                      .dwcfi  undefined, 63
TMS320C55x Assembler PC v4.4.1 Sun Sep 16 02:56:35 2018

Tools Copyright (c) 1996-2012 Texas Instruments Incorporated
csl_i2c.asm                                                          PAGE   76

    3350                      .dwcfi  undefined, 64
    3351                      .dwcfi  undefined, 65
    3352                      .dwcfi  undefined, 66
    3353                      .dwcfi  undefined, 67
    3354                      .dwcfi  undefined, 68
    3355                      .dwcfi  undefined, 69
    3356                      .dwcfi  undefined, 70
    3357                      .dwcfi  undefined, 71
    3358                      .dwcfi  undefined, 72
    3359                      .dwcfi  undefined, 73
    3360                      .dwcfi  undefined, 74
    3361                      .dwcfi  undefined, 75
    3362                      .dwcfi  undefined, 76
    3363                      .dwcfi  undefined, 77
    3364                      .dwcfi  undefined, 78
    3365                      .dwcfi  undefined, 79
    3366                      .dwcfi  undefined, 80
    3367                      .dwcfi  undefined, 81
    3368                      .dwcfi  undefined, 82
    3369                      .dwcfi  undefined, 83
    3370                      .dwcfi  undefined, 84
    3371                      .dwcfi  undefined, 85
    3372                      .dwcfi  undefined, 86
    3373                      .dwcfi  undefined, 87
    3374                      .dwcfi  undefined, 88
    3375                      .dwcfi  undefined, 89
    3376                      .dwcfi  undefined, 90
    3377                      .dwcfi  undefined, 91
    3378                      .dwendentry
    3379              
    3380              ;***************************************************************
    3381              ;* DWARF REGISTER MAP                                          *
    3382              ;***************************************************************
    3383              
    3384              $C$DW$254       .dwtag  DW_TAG_TI_assign_register, DW_AT_name("AC0")
    3385                      .dwattr $C$DW$254, DW_AT_location[DW_OP_reg0]
    3386              $C$DW$255       .dwtag  DW_TAG_TI_assign_register, DW_AT_name("AC0")
    3387                      .dwattr $C$DW$255, DW_AT_location[DW_OP_reg1]
    3388              $C$DW$256       .dwtag  DW_TAG_TI_assign_register, DW_AT_name("AC0_G")
    3389                      .dwattr $C$DW$256, DW_AT_location[DW_OP_reg2]
    3390              $C$DW$257       .dwtag  DW_TAG_TI_assign_register, DW_AT_name("AC1")
    3391                      .dwattr $C$DW$257, DW_AT_location[DW_OP_reg3]
    3392              $C$DW$258       .dwtag  DW_TAG_TI_assign_register, DW_AT_name("AC1")
    3393                      .dwattr $C$DW$258, DW_AT_location[DW_OP_reg4]
    3394              $C$DW$259       .dwtag  DW_TAG_TI_assign_register, DW_AT_name("AC1_G")
    3395                      .dwattr $C$DW$259, DW_AT_location[DW_OP_reg5]
    3396              $C$DW$260       .dwtag  DW_TAG_TI_assign_register, DW_AT_name("AC2")
    3397                      .dwattr $C$DW$260, DW_AT_location[DW_OP_reg6]
    3398              $C$DW$261       .dwtag  DW_TAG_TI_assign_register, DW_AT_name("AC2")
    3399                      .dwattr $C$DW$261, DW_AT_location[DW_OP_reg7]
    3400              $C$DW$262       .dwtag  DW_TAG_TI_assign_register, DW_AT_name("AC2_G")
    3401                      .dwattr $C$DW$262, DW_AT_location[DW_OP_reg8]
    3402              $C$DW$263       .dwtag  DW_TAG_TI_assign_register, DW_AT_name("AC3")
    3403                      .dwattr $C$DW$263, DW_AT_location[DW_OP_reg9]
    3404              $C$DW$264       .dwtag  DW_TAG_TI_assign_register, DW_AT_name("AC3")
TMS320C55x Assembler PC v4.4.1 Sun Sep 16 02:56:35 2018

Tools Copyright (c) 1996-2012 Texas Instruments Incorporated
csl_i2c.asm                                                          PAGE   77

    3405                      .dwattr $C$DW$264, DW_AT_location[DW_OP_reg10]
    3406              $C$DW$265       .dwtag  DW_TAG_TI_assign_register, DW_AT_name("AC3_G")
    3407                      .dwattr $C$DW$265, DW_AT_location[DW_OP_reg11]
    3408              $C$DW$266       .dwtag  DW_TAG_TI_assign_register, DW_AT_name("T0")
    3409                      .dwattr $C$DW$266, DW_AT_location[DW_OP_reg12]
    3410              $C$DW$267       .dwtag  DW_TAG_TI_assign_register, DW_AT_name("T1")
    3411                      .dwattr $C$DW$267, DW_AT_location[DW_OP_reg13]
    3412              $C$DW$268       .dwtag  DW_TAG_TI_assign_register, DW_AT_name("T2")
    3413                      .dwattr $C$DW$268, DW_AT_location[DW_OP_reg14]
    3414              $C$DW$269       .dwtag  DW_TAG_TI_assign_register, DW_AT_name("T3")
    3415                      .dwattr $C$DW$269, DW_AT_location[DW_OP_reg15]
    3416              $C$DW$270       .dwtag  DW_TAG_TI_assign_register, DW_AT_name("AR0")
    3417                      .dwattr $C$DW$270, DW_AT_location[DW_OP_reg16]
    3418              $C$DW$271       .dwtag  DW_TAG_TI_assign_register, DW_AT_name("XAR0")
    3419                      .dwattr $C$DW$271, DW_AT_location[DW_OP_reg17]
    3420              $C$DW$272       .dwtag  DW_TAG_TI_assign_register, DW_AT_name("AR1")
    3421                      .dwattr $C$DW$272, DW_AT_location[DW_OP_reg18]
    3422              $C$DW$273       .dwtag  DW_TAG_TI_assign_register, DW_AT_name("XAR1")
    3423                      .dwattr $C$DW$273, DW_AT_location[DW_OP_reg19]
    3424              $C$DW$274       .dwtag  DW_TAG_TI_assign_register, DW_AT_name("AR2")
    3425                      .dwattr $C$DW$274, DW_AT_location[DW_OP_reg20]
    3426              $C$DW$275       .dwtag  DW_TAG_TI_assign_register, DW_AT_name("XAR2")
    3427                      .dwattr $C$DW$275, DW_AT_location[DW_OP_reg21]
    3428              $C$DW$276       .dwtag  DW_TAG_TI_assign_register, DW_AT_name("AR3")
    3429                      .dwattr $C$DW$276, DW_AT_location[DW_OP_reg22]
    3430              $C$DW$277       .dwtag  DW_TAG_TI_assign_register, DW_AT_name("XAR3")
    3431                      .dwattr $C$DW$277, DW_AT_location[DW_OP_reg23]
    3432              $C$DW$278       .dwtag  DW_TAG_TI_assign_register, DW_AT_name("AR4")
    3433                      .dwattr $C$DW$278, DW_AT_location[DW_OP_reg24]
    3434              $C$DW$279       .dwtag  DW_TAG_TI_assign_register, DW_AT_name("XAR4")
    3435                      .dwattr $C$DW$279, DW_AT_location[DW_OP_reg25]
    3436              $C$DW$280       .dwtag  DW_TAG_TI_assign_register, DW_AT_name("AR5")
    3437                      .dwattr $C$DW$280, DW_AT_location[DW_OP_reg26]
    3438              $C$DW$281       .dwtag  DW_TAG_TI_assign_register, DW_AT_name("XAR5")
    3439                      .dwattr $C$DW$281, DW_AT_location[DW_OP_reg27]
    3440              $C$DW$282       .dwtag  DW_TAG_TI_assign_register, DW_AT_name("AR6")
    3441                      .dwattr $C$DW$282, DW_AT_location[DW_OP_reg28]
    3442              $C$DW$283       .dwtag  DW_TAG_TI_assign_register, DW_AT_name("XAR6")
    3443                      .dwattr $C$DW$283, DW_AT_location[DW_OP_reg29]
    3444              $C$DW$284       .dwtag  DW_TAG_TI_assign_register, DW_AT_name("AR7")
    3445                      .dwattr $C$DW$284, DW_AT_location[DW_OP_reg30]
    3446              $C$DW$285       .dwtag  DW_TAG_TI_assign_register, DW_AT_name("XAR7")
    3447                      .dwattr $C$DW$285, DW_AT_location[DW_OP_reg31]
    3448              $C$DW$286       .dwtag  DW_TAG_TI_assign_register, DW_AT_name("FP")
    3449                      .dwattr $C$DW$286, DW_AT_location[DW_OP_regx 0x20]
    3450              $C$DW$287       .dwtag  DW_TAG_TI_assign_register, DW_AT_name("XFP")
    3451                      .dwattr $C$DW$287, DW_AT_location[DW_OP_regx 0x21]
    3452              $C$DW$288       .dwtag  DW_TAG_TI_assign_register, DW_AT_name("PC")
    3453                      .dwattr $C$DW$288, DW_AT_location[DW_OP_regx 0x22]
    3454              $C$DW$289       .dwtag  DW_TAG_TI_assign_register, DW_AT_name("SP")
    3455                      .dwattr $C$DW$289, DW_AT_location[DW_OP_regx 0x23]
    3456              $C$DW$290       .dwtag  DW_TAG_TI_assign_register, DW_AT_name("XSP")
    3457                      .dwattr $C$DW$290, DW_AT_location[DW_OP_regx 0x24]
    3458              $C$DW$291       .dwtag  DW_TAG_TI_assign_register, DW_AT_name("BKC")
    3459                      .dwattr $C$DW$291, DW_AT_location[DW_OP_regx 0x25]
TMS320C55x Assembler PC v4.4.1 Sun Sep 16 02:56:35 2018

Tools Copyright (c) 1996-2012 Texas Instruments Incorporated
csl_i2c.asm                                                          PAGE   78

    3460              $C$DW$292       .dwtag  DW_TAG_TI_assign_register, DW_AT_name("BK03")
    3461                      .dwattr $C$DW$292, DW_AT_location[DW_OP_regx 0x26]
    3462              $C$DW$293       .dwtag  DW_TAG_TI_assign_register, DW_AT_name("BK47")
    3463                      .dwattr $C$DW$293, DW_AT_location[DW_OP_regx 0x27]
    3464              $C$DW$294       .dwtag  DW_TAG_TI_assign_register, DW_AT_name("ST0")
    3465                      .dwattr $C$DW$294, DW_AT_location[DW_OP_regx 0x28]
    3466              $C$DW$295       .dwtag  DW_TAG_TI_assign_register, DW_AT_name("ST1")
    3467                      .dwattr $C$DW$295, DW_AT_location[DW_OP_regx 0x29]
    3468              $C$DW$296       .dwtag  DW_TAG_TI_assign_register, DW_AT_name("ST2")
    3469                      .dwattr $C$DW$296, DW_AT_location[DW_OP_regx 0x2a]
    3470              $C$DW$297       .dwtag  DW_TAG_TI_assign_register, DW_AT_name("ST3")
    3471                      .dwattr $C$DW$297, DW_AT_location[DW_OP_regx 0x2b]
    3472              $C$DW$298       .dwtag  DW_TAG_TI_assign_register, DW_AT_name("MDP")
    3473                      .dwattr $C$DW$298, DW_AT_location[DW_OP_regx 0x2c]
    3474              $C$DW$299       .dwtag  DW_TAG_TI_assign_register, DW_AT_name("MDP05")
    3475                      .dwattr $C$DW$299, DW_AT_location[DW_OP_regx 0x2d]
    3476              $C$DW$300       .dwtag  DW_TAG_TI_assign_register, DW_AT_name("MDP67")
    3477                      .dwattr $C$DW$300, DW_AT_location[DW_OP_regx 0x2e]
    3478              $C$DW$301       .dwtag  DW_TAG_TI_assign_register, DW_AT_name("BRC0")
    3479                      .dwattr $C$DW$301, DW_AT_location[DW_OP_regx 0x2f]
    3480              $C$DW$302       .dwtag  DW_TAG_TI_assign_register, DW_AT_name("RSA0")
    3481                      .dwattr $C$DW$302, DW_AT_location[DW_OP_regx 0x30]
    3482              $C$DW$303       .dwtag  DW_TAG_TI_assign_register, DW_AT_name("RSA0_H")
    3483                      .dwattr $C$DW$303, DW_AT_location[DW_OP_regx 0x31]
    3484              $C$DW$304       .dwtag  DW_TAG_TI_assign_register, DW_AT_name("REA0")
    3485                      .dwattr $C$DW$304, DW_AT_location[DW_OP_regx 0x32]
    3486              $C$DW$305       .dwtag  DW_TAG_TI_assign_register, DW_AT_name("REA0_H")
    3487                      .dwattr $C$DW$305, DW_AT_location[DW_OP_regx 0x33]
    3488              $C$DW$306       .dwtag  DW_TAG_TI_assign_register, DW_AT_name("BRS1")
    3489                      .dwattr $C$DW$306, DW_AT_location[DW_OP_regx 0x34]
    3490              $C$DW$307       .dwtag  DW_TAG_TI_assign_register, DW_AT_name("BRC1")
    3491                      .dwattr $C$DW$307, DW_AT_location[DW_OP_regx 0x35]
    3492              $C$DW$308       .dwtag  DW_TAG_TI_assign_register, DW_AT_name("RSA1")
    3493                      .dwattr $C$DW$308, DW_AT_location[DW_OP_regx 0x36]
    3494              $C$DW$309       .dwtag  DW_TAG_TI_assign_register, DW_AT_name("RSA1_H")
    3495                      .dwattr $C$DW$309, DW_AT_location[DW_OP_regx 0x37]
    3496              $C$DW$310       .dwtag  DW_TAG_TI_assign_register, DW_AT_name("REA1")
    3497                      .dwattr $C$DW$310, DW_AT_location[DW_OP_regx 0x38]
    3498              $C$DW$311       .dwtag  DW_TAG_TI_assign_register, DW_AT_name("REA1_H")
    3499                      .dwattr $C$DW$311, DW_AT_location[DW_OP_regx 0x39]
    3500              $C$DW$312       .dwtag  DW_TAG_TI_assign_register, DW_AT_name("CSR")
    3501                      .dwattr $C$DW$312, DW_AT_location[DW_OP_regx 0x3a]
    3502              $C$DW$313       .dwtag  DW_TAG_TI_assign_register, DW_AT_name("RPTC")
    3503                      .dwattr $C$DW$313, DW_AT_location[DW_OP_regx 0x3b]
    3504              $C$DW$314       .dwtag  DW_TAG_TI_assign_register, DW_AT_name("CDP")
    3505                      .dwattr $C$DW$314, DW_AT_location[DW_OP_regx 0x3c]
    3506              $C$DW$315       .dwtag  DW_TAG_TI_assign_register, DW_AT_name("XCDP")
    3507                      .dwattr $C$DW$315, DW_AT_location[DW_OP_regx 0x3d]
    3508              $C$DW$316       .dwtag  DW_TAG_TI_assign_register, DW_AT_name("TRN0")
    3509                      .dwattr $C$DW$316, DW_AT_location[DW_OP_regx 0x3e]
    3510              $C$DW$317       .dwtag  DW_TAG_TI_assign_register, DW_AT_name("TRN1")
    3511                      .dwattr $C$DW$317, DW_AT_location[DW_OP_regx 0x3f]
    3512              $C$DW$318       .dwtag  DW_TAG_TI_assign_register, DW_AT_name("BSA01")
    3513                      .dwattr $C$DW$318, DW_AT_location[DW_OP_regx 0x40]
    3514              $C$DW$319       .dwtag  DW_TAG_TI_assign_register, DW_AT_name("BSA23")
TMS320C55x Assembler PC v4.4.1 Sun Sep 16 02:56:35 2018

Tools Copyright (c) 1996-2012 Texas Instruments Incorporated
csl_i2c.asm                                                          PAGE   79

    3515                      .dwattr $C$DW$319, DW_AT_location[DW_OP_regx 0x41]
    3516              $C$DW$320       .dwtag  DW_TAG_TI_assign_register, DW_AT_name("BSA45")
    3517                      .dwattr $C$DW$320, DW_AT_location[DW_OP_regx 0x42]
    3518              $C$DW$321       .dwtag  DW_TAG_TI_assign_register, DW_AT_name("BSA67")
    3519                      .dwattr $C$DW$321, DW_AT_location[DW_OP_regx 0x43]
    3520              $C$DW$322       .dwtag  DW_TAG_TI_assign_register, DW_AT_name("BSAC")
    3521                      .dwattr $C$DW$322, DW_AT_location[DW_OP_regx 0x44]
    3522              $C$DW$323       .dwtag  DW_TAG_TI_assign_register, DW_AT_name("CARRY")
    3523                      .dwattr $C$DW$323, DW_AT_location[DW_OP_regx 0x45]
    3524              $C$DW$324       .dwtag  DW_TAG_TI_assign_register, DW_AT_name("TC1")
    3525                      .dwattr $C$DW$324, DW_AT_location[DW_OP_regx 0x46]
    3526              $C$DW$325       .dwtag  DW_TAG_TI_assign_register, DW_AT_name("TC2")
    3527                      .dwattr $C$DW$325, DW_AT_location[DW_OP_regx 0x47]
    3528              $C$DW$326       .dwtag  DW_TAG_TI_assign_register, DW_AT_name("M40")
    3529                      .dwattr $C$DW$326, DW_AT_location[DW_OP_regx 0x48]
    3530              $C$DW$327       .dwtag  DW_TAG_TI_assign_register, DW_AT_name("SXMD")
    3531                      .dwattr $C$DW$327, DW_AT_location[DW_OP_regx 0x49]
    3532              $C$DW$328       .dwtag  DW_TAG_TI_assign_register, DW_AT_name("ARMS")
    3533                      .dwattr $C$DW$328, DW_AT_location[DW_OP_regx 0x4a]
    3534              $C$DW$329       .dwtag  DW_TAG_TI_assign_register, DW_AT_name("C54CM")
    3535                      .dwattr $C$DW$329, DW_AT_location[DW_OP_regx 0x4b]
    3536              $C$DW$330       .dwtag  DW_TAG_TI_assign_register, DW_AT_name("SATA")
    3537                      .dwattr $C$DW$330, DW_AT_location[DW_OP_regx 0x4c]
    3538              $C$DW$331       .dwtag  DW_TAG_TI_assign_register, DW_AT_name("SATD")
    3539                      .dwattr $C$DW$331, DW_AT_location[DW_OP_regx 0x4d]
    3540              $C$DW$332       .dwtag  DW_TAG_TI_assign_register, DW_AT_name("RDM")
    3541                      .dwattr $C$DW$332, DW_AT_location[DW_OP_regx 0x4e]
    3542              $C$DW$333       .dwtag  DW_TAG_TI_assign_register, DW_AT_name("FRCT")
    3543                      .dwattr $C$DW$333, DW_AT_location[DW_OP_regx 0x4f]
    3544              $C$DW$334       .dwtag  DW_TAG_TI_assign_register, DW_AT_name("SMUL")
    3545                      .dwattr $C$DW$334, DW_AT_location[DW_OP_regx 0x50]
    3546              $C$DW$335       .dwtag  DW_TAG_TI_assign_register, DW_AT_name("INTM")
    3547                      .dwattr $C$DW$335, DW_AT_location[DW_OP_regx 0x51]
    3548              $C$DW$336       .dwtag  DW_TAG_TI_assign_register, DW_AT_name("AR0LC")
    3549                      .dwattr $C$DW$336, DW_AT_location[DW_OP_regx 0x52]
    3550              $C$DW$337       .dwtag  DW_TAG_TI_assign_register, DW_AT_name("AR1LC")
    3551                      .dwattr $C$DW$337, DW_AT_location[DW_OP_regx 0x53]
    3552              $C$DW$338       .dwtag  DW_TAG_TI_assign_register, DW_AT_name("AR2LC")
    3553                      .dwattr $C$DW$338, DW_AT_location[DW_OP_regx 0x54]
    3554              $C$DW$339       .dwtag  DW_TAG_TI_assign_register, DW_AT_name("AR3LC")
    3555                      .dwattr $C$DW$339, DW_AT_location[DW_OP_regx 0x55]
    3556              $C$DW$340       .dwtag  DW_TAG_TI_assign_register, DW_AT_name("AR4LC")
    3557                      .dwattr $C$DW$340, DW_AT_location[DW_OP_regx 0x56]
    3558              $C$DW$341       .dwtag  DW_TAG_TI_assign_register, DW_AT_name("AR5LC")
    3559                      .dwattr $C$DW$341, DW_AT_location[DW_OP_regx 0x57]
    3560              $C$DW$342       .dwtag  DW_TAG_TI_assign_register, DW_AT_name("AR6LC")
    3561                      .dwattr $C$DW$342, DW_AT_location[DW_OP_regx 0x58]
    3562              $C$DW$343       .dwtag  DW_TAG_TI_assign_register, DW_AT_name("AR7LC")
    3563                      .dwattr $C$DW$343, DW_AT_location[DW_OP_regx 0x59]
    3564              $C$DW$344       .dwtag  DW_TAG_TI_assign_register, DW_AT_name("CDPLC")
    3565                      .dwattr $C$DW$344, DW_AT_location[DW_OP_regx 0x5a]
    3566              $C$DW$345       .dwtag  DW_TAG_TI_assign_register, DW_AT_name("CIE_RETA")
    3567                      .dwattr $C$DW$345, DW_AT_location[DW_OP_regx 0x5b]
    3568                      .dwendtag $C$DW$CU
    3569              
TMS320C55x Assembler PC v4.4.1 Sun Sep 16 02:56:35 2018

Tools Copyright (c) 1996-2012 Texas Instruments Incorporated
csl_i2c.asm                                                          PAGE   80

    3569              
    3569              

No Assembly Errors, No Assembly Warnings
