TMS320C55x Assembler PC v4.4.1 Tue Sep 18 04:50:04 2018

Tools Copyright (c) 1996-2012 Texas Instruments Incorporated
csl_cdc.asm                                                          PAGE    1

    6220              ; Temporary Registers Used: None
       1              ;*******************************************************************************
       2              ;* TMS320C55x C/C++ Codegen                                          PC v4.4.1 *
       3              ;* Date/Time created: Tue Sep 18 04:50:02 2018                                 *
       4              ;*******************************************************************************
       5                      .compiler_opts --hll_source=on --mem_model:code=flat --mem_model:data=large --object_format=coff --si
       6                      .mmregs
       7                      .cpl_on
       8                      .arms_on
       9                      .c54cm_off
      10                      .asg AR6, FP
      11                      .asg XAR6, XFP
      12                      .asg DPH, MDP
      13                      .model call=c55_std
      14                      .model mem=large
      15                      .noremark 5002  ; code respects overwrite rules
      16              ;*******************************************************************************
      17              ;* GLOBAL FILE PARAMETERS                                                      *
      18              ;*                                                                             *
      19              ;*   Architecture       : TMS320C55x                                           *
      20              ;*   Optimizing for     : Speed                                                *
      21              ;*   Memory             : Large Model (23-Bit Data Pointers)                   *
      22              ;*   Calls              : Normal Library ASM calls                             *
      23              ;*   Debug Info         : Standard TI Debug Information                        *
      24              ;*******************************************************************************
      25              
      26              $C$DW$CU        .dwtag  DW_TAG_compile_unit
      27                      .dwattr $C$DW$CU, DW_AT_name("../c5535_bsl_revc/ezdsp5535_v1/c55xx_csl/src/csl_cdc.c")
      28                      .dwattr $C$DW$CU, DW_AT_producer("TMS320C55x C/C++ Codegen PC v4.4.1 Copyright (c) 1996-2012 Texas In
      29                      .dwattr $C$DW$CU, DW_AT_TI_version(0x01)
      30                      .dwattr $C$DW$CU, DW_AT_comp_dir("F:\eZdsp_DBG\eZDSP_5535_Files\ccsws2\test\Debug")
      31              
      32              $C$DW$1 .dwtag  DW_TAG_subprogram, DW_AT_name("printf")
      33                      .dwattr $C$DW$1, DW_AT_TI_symbol_name("_printf")
      34                      .dwattr $C$DW$1, DW_AT_type(*$C$DW$T$10)
      35                      .dwattr $C$DW$1, DW_AT_declaration
      36                      .dwattr $C$DW$1, DW_AT_external
      37              $C$DW$2 .dwtag  DW_TAG_formal_parameter
      38                      .dwattr $C$DW$2, DW_AT_type(*$C$DW$T$185)
      39              $C$DW$3 .dwtag  DW_TAG_unspecified_parameters
      40                      .dwendtag $C$DW$1
      41              
      42              
      43              $C$DW$4 .dwtag  DW_TAG_subprogram, DW_AT_name("USB_initEndptObj")
      44                      .dwattr $C$DW$4, DW_AT_TI_symbol_name("_USB_initEndptObj")
      45                      .dwattr $C$DW$4, DW_AT_type(*$C$DW$T$106)
      46                      .dwattr $C$DW$4, DW_AT_declaration
      47                      .dwattr $C$DW$4, DW_AT_external
      48              $C$DW$5 .dwtag  DW_TAG_formal_parameter
      49                      .dwattr $C$DW$5, DW_AT_type(*$C$DW$T$72)
      50              $C$DW$6 .dwtag  DW_TAG_formal_parameter
      51                      .dwattr $C$DW$6, DW_AT_type(*$C$DW$T$74)
      52              $C$DW$7 .dwtag  DW_TAG_formal_parameter
      53                      .dwattr $C$DW$7, DW_AT_type(*$C$DW$T$115)
      54              $C$DW$8 .dwtag  DW_TAG_formal_parameter
TMS320C55x Assembler PC v4.4.1 Tue Sep 18 04:50:04 2018

Tools Copyright (c) 1996-2012 Texas Instruments Incorporated
csl_cdc.asm                                                          PAGE    2

      55                      .dwattr $C$DW$8, DW_AT_type(*$C$DW$T$117)
      56              $C$DW$9 .dwtag  DW_TAG_formal_parameter
      57                      .dwattr $C$DW$9, DW_AT_type(*$C$DW$T$20)
      58              $C$DW$10        .dwtag  DW_TAG_formal_parameter
      59                      .dwattr $C$DW$10, DW_AT_type(*$C$DW$T$20)
      60              $C$DW$11        .dwtag  DW_TAG_formal_parameter
      61                      .dwattr $C$DW$11, DW_AT_type(*$C$DW$T$118)
      62                      .dwendtag $C$DW$4
      63              
      64              
      65              $C$DW$12        .dwtag  DW_TAG_subprogram, DW_AT_name("USB_getSetupPacket")
      66                      .dwattr $C$DW$12, DW_AT_TI_symbol_name("_USB_getSetupPacket")
      67                      .dwattr $C$DW$12, DW_AT_type(*$C$DW$T$106)
      68                      .dwattr $C$DW$12, DW_AT_declaration
      69                      .dwattr $C$DW$12, DW_AT_external
      70              $C$DW$13        .dwtag  DW_TAG_formal_parameter
      71                      .dwattr $C$DW$13, DW_AT_type(*$C$DW$T$72)
      72              $C$DW$14        .dwtag  DW_TAG_formal_parameter
      73                      .dwattr $C$DW$14, DW_AT_type(*$C$DW$T$155)
      74              $C$DW$15        .dwtag  DW_TAG_formal_parameter
      75                      .dwattr $C$DW$15, DW_AT_type(*$C$DW$T$77)
      76                      .dwendtag $C$DW$12
      77              
      78              
      79              $C$DW$16        .dwtag  DW_TAG_subprogram, DW_AT_name("USB_postTransaction")
      80                      .dwattr $C$DW$16, DW_AT_TI_symbol_name("_USB_postTransaction")
      81                      .dwattr $C$DW$16, DW_AT_type(*$C$DW$T$106)
      82                      .dwattr $C$DW$16, DW_AT_declaration
      83                      .dwattr $C$DW$16, DW_AT_external
      84              $C$DW$17        .dwtag  DW_TAG_formal_parameter
      85                      .dwattr $C$DW$17, DW_AT_type(*$C$DW$T$74)
      86              $C$DW$18        .dwtag  DW_TAG_formal_parameter
      87                      .dwattr $C$DW$18, DW_AT_type(*$C$DW$T$20)
      88              $C$DW$19        .dwtag  DW_TAG_formal_parameter
      89                      .dwattr $C$DW$19, DW_AT_type(*$C$DW$T$3)
      90              $C$DW$20        .dwtag  DW_TAG_formal_parameter
      91                      .dwattr $C$DW$20, DW_AT_type(*$C$DW$T$127)
      92                      .dwendtag $C$DW$16
      93              
      94              
      95              $C$DW$21        .dwtag  DW_TAG_subprogram, DW_AT_name("USB_isTransactionDone")
      96                      .dwattr $C$DW$21, DW_AT_TI_symbol_name("_USB_isTransactionDone")
      97                      .dwattr $C$DW$21, DW_AT_type(*$C$DW$T$93)
      98                      .dwattr $C$DW$21, DW_AT_declaration
      99                      .dwattr $C$DW$21, DW_AT_external
     100              $C$DW$22        .dwtag  DW_TAG_formal_parameter
     101                      .dwattr $C$DW$22, DW_AT_type(*$C$DW$T$74)
     102              $C$DW$23        .dwtag  DW_TAG_formal_parameter
     103                      .dwattr $C$DW$23, DW_AT_type(*$C$DW$T$129)
     104                      .dwendtag $C$DW$21
     105              
     106              
     107              $C$DW$24        .dwtag  DW_TAG_subprogram, DW_AT_name("USB_bytesRemaining")
     108                      .dwattr $C$DW$24, DW_AT_TI_symbol_name("_USB_bytesRemaining")
     109                      .dwattr $C$DW$24, DW_AT_type(*$C$DW$T$170)
TMS320C55x Assembler PC v4.4.1 Tue Sep 18 04:50:04 2018

Tools Copyright (c) 1996-2012 Texas Instruments Incorporated
csl_cdc.asm                                                          PAGE    3

     110                      .dwattr $C$DW$24, DW_AT_declaration
     111                      .dwattr $C$DW$24, DW_AT_external
     112              $C$DW$25        .dwtag  DW_TAG_formal_parameter
     113                      .dwattr $C$DW$25, DW_AT_type(*$C$DW$T$74)
     114              $C$DW$26        .dwtag  DW_TAG_formal_parameter
     115                      .dwattr $C$DW$26, DW_AT_type(*$C$DW$T$129)
     116                      .dwendtag $C$DW$24
     117              
     118              
     119              $C$DW$27        .dwtag  DW_TAG_subprogram, DW_AT_name("USB_epNumToHandle")
     120                      .dwattr $C$DW$27, DW_AT_TI_symbol_name("_USB_epNumToHandle")
     121                      .dwattr $C$DW$27, DW_AT_type(*$C$DW$T$74)
     122                      .dwattr $C$DW$27, DW_AT_declaration
     123                      .dwattr $C$DW$27, DW_AT_external
     124              $C$DW$28        .dwtag  DW_TAG_formal_parameter
     125                      .dwattr $C$DW$28, DW_AT_type(*$C$DW$T$72)
     126              $C$DW$29        .dwtag  DW_TAG_formal_parameter
     127                      .dwattr $C$DW$29, DW_AT_type(*$C$DW$T$20)
     128                      .dwendtag $C$DW$27
     129              
     130              
     131              $C$DW$30        .dwtag  DW_TAG_subprogram, DW_AT_name("USB_connectDev")
     132                      .dwattr $C$DW$30, DW_AT_TI_symbol_name("_USB_connectDev")
     133                      .dwattr $C$DW$30, DW_AT_type(*$C$DW$T$106)
     134                      .dwattr $C$DW$30, DW_AT_declaration
     135                      .dwattr $C$DW$30, DW_AT_external
     136              $C$DW$31        .dwtag  DW_TAG_formal_parameter
     137                      .dwattr $C$DW$31, DW_AT_type(*$C$DW$T$72)
     138                      .dwendtag $C$DW$30
     139              
     140              
     141              $C$DW$32        .dwtag  DW_TAG_subprogram, DW_AT_name("USB_disconnectDev")
     142                      .dwattr $C$DW$32, DW_AT_TI_symbol_name("_USB_disconnectDev")
     143                      .dwattr $C$DW$32, DW_AT_type(*$C$DW$T$106)
     144                      .dwattr $C$DW$32, DW_AT_declaration
     145                      .dwattr $C$DW$32, DW_AT_external
     146              $C$DW$33        .dwtag  DW_TAG_formal_parameter
     147                      .dwattr $C$DW$33, DW_AT_type(*$C$DW$T$72)
     148                      .dwendtag $C$DW$32
     149              
     150              
     151              $C$DW$34        .dwtag  DW_TAG_subprogram, DW_AT_name("USB_setParams")
     152                      .dwattr $C$DW$34, DW_AT_TI_symbol_name("_USB_setParams")
     153                      .dwattr $C$DW$34, DW_AT_type(*$C$DW$T$106)
     154                      .dwattr $C$DW$34, DW_AT_declaration
     155                      .dwattr $C$DW$34, DW_AT_external
     156              $C$DW$35        .dwtag  DW_TAG_formal_parameter
     157                      .dwattr $C$DW$35, DW_AT_type(*$C$DW$T$72)
     158              $C$DW$36        .dwtag  DW_TAG_formal_parameter
     159                      .dwattr $C$DW$36, DW_AT_type(*$C$DW$T$152)
     160              $C$DW$37        .dwtag  DW_TAG_formal_parameter
     161                      .dwattr $C$DW$37, DW_AT_type(*$C$DW$T$20)
     162                      .dwendtag $C$DW$34
     163              
     164              
TMS320C55x Assembler PC v4.4.1 Tue Sep 18 04:50:04 2018

Tools Copyright (c) 1996-2012 Texas Instruments Incorporated
csl_cdc.asm                                                          PAGE    4

     165              $C$DW$38        .dwtag  DW_TAG_subprogram, DW_AT_name("USB_setFullSpeedMode")
     166                      .dwattr $C$DW$38, DW_AT_TI_symbol_name("_USB_setFullSpeedMode")
     167                      .dwattr $C$DW$38, DW_AT_declaration
     168                      .dwattr $C$DW$38, DW_AT_external
     169              $C$DW$39        .dwtag  DW_TAG_formal_parameter
     170                      .dwattr $C$DW$39, DW_AT_type(*$C$DW$T$20)
     171                      .dwendtag $C$DW$38
     172              
     173              
     174              $C$DW$40        .dwtag  DW_TAG_subprogram, DW_AT_name("USB_getDataCountReadFromFifo")
     175                      .dwattr $C$DW$40, DW_AT_TI_symbol_name("_USB_getDataCountReadFromFifo")
     176                      .dwattr $C$DW$40, DW_AT_type(*$C$DW$T$20)
     177                      .dwattr $C$DW$40, DW_AT_declaration
     178                      .dwattr $C$DW$40, DW_AT_external
     179              $C$DW$41        .dwtag  DW_TAG_formal_parameter
     180                      .dwattr $C$DW$41, DW_AT_type(*$C$DW$T$74)
     181                      .dwendtag $C$DW$40
     182              
     183              $C$DW$42        .dwtag  DW_TAG_variable, DW_AT_name("usbRegisters")
     184                      .dwattr $C$DW$42, DW_AT_TI_symbol_name("_usbRegisters")
     185                      .dwattr $C$DW$42, DW_AT_type(*$C$DW$T$143)
     186                      .dwattr $C$DW$42, DW_AT_declaration
     187                      .dwattr $C$DW$42, DW_AT_external
     188              ;       F:\ti\ccs8p1\ccsv8\tools\compiler\alt-install-ti-cgt-c55x_4.4.1\bin\acp55.exe -@f:\\AppData\\Local\\T
     189 000000               .sect   ".text"
     190                      .align 4
     191              
     192              $C$DW$43        .dwtag  DW_TAG_subprogram, DW_AT_name("USB_isValidDataInFifoOut")
     193                      .dwattr $C$DW$43, DW_AT_low_pc(_USB_isValidDataInFifoOut)
     194                      .dwattr $C$DW$43, DW_AT_high_pc(0x00)
     195                      .dwattr $C$DW$43, DW_AT_TI_symbol_name("_USB_isValidDataInFifoOut")
     196                      .dwattr $C$DW$43, DW_AT_type(*$C$DW$T$77)
     197                      .dwattr $C$DW$43, DW_AT_TI_begin_file("F:/eZdsp_DBG/eZDSP_5535_Files/ccsws2/test/c5535_bsl_revc/ezdsp
     198                      .dwattr $C$DW$43, DW_AT_TI_begin_line(0x80d)
     199                      .dwattr $C$DW$43, DW_AT_TI_begin_column(0x06)
     200                      .dwattr $C$DW$43, DW_AT_TI_max_frame_size(0x06)
     201                      .dwpsn  file "F:/eZdsp_DBG/eZDSP_5535_Files/ccsws2/test/c5535_bsl_revc/ezdsp5535_v1/c55xx_csl/inc/csl
     202              
     203                      .dwfde $C$DW$CIE, _USB_isValidDataInFifoOut
     204              $C$DW$44        .dwtag  DW_TAG_formal_parameter, DW_AT_name("peps")
     205                      .dwattr $C$DW$44, DW_AT_TI_symbol_name("_peps")
     206                      .dwattr $C$DW$44, DW_AT_type(*$C$DW$T$154)
     207                      .dwattr $C$DW$44, DW_AT_location[DW_OP_reg17]
     208              ;*******************************************************************************
     209              ;* FUNCTION NAME: USB_isValidDataInFifoOut                                     *
     210              ;*                                                                             *
     211              ;*   Function Uses Regs : AC0,AC0,AC1,AC1,T0,AR0,XAR0,AR1,AR2,AR3,XAR3,SP,TC1, *
     212              ;*                        M40,SATA,SATD,RDM,FRCT,SMUL                          *
     213              ;*   Stack Frame        : Compact (No Frame Pointer, w/ debug)                 *
     214              ;*   Total Frame Size   : 6 words                                              *
     215              ;*                        (1 return address/alignment)                         *
     216              ;*                        (5 local values)                                     *
     217              ;*   Min System Stack   : 1 word                                               *
     218              ;*******************************************************************************
     219 000000       _USB_isValidDataInFifoOut:
TMS320C55x Assembler PC v4.4.1 Tue Sep 18 04:50:04 2018

Tools Copyright (c) 1996-2012 Texas Instruments Incorporated
csl_cdc.asm                                                          PAGE    5

     220                      .dwcfi  cfa_offset, 1
     221                      .dwcfi  save_reg_to_mem, 91, -1
     222 000000 4EFB          AADD #-5, SP
     223                      .dwcfi  cfa_offset, 6
     224              $C$DW$45        .dwtag  DW_TAG_variable, DW_AT_name("peps")
     225                      .dwattr $C$DW$45, DW_AT_TI_symbol_name("_peps")
     226                      .dwattr $C$DW$45, DW_AT_type(*$C$DW$T$154)
     227                      .dwattr $C$DW$45, DW_AT_location[DW_OP_bregx 0x24 0]
     228              $C$DW$46        .dwtag  DW_TAG_variable, DW_AT_name("saveIndex")
     229                      .dwattr $C$DW$46, DW_AT_TI_symbol_name("_saveIndex")
     230                      .dwattr $C$DW$46, DW_AT_type(*$C$DW$T$20)
     231                      .dwattr $C$DW$46, DW_AT_location[DW_OP_bregx 0x24 2]
     232              $C$DW$47        .dwtag  DW_TAG_variable, DW_AT_name("wByteCount")
     233                      .dwattr $C$DW$47, DW_AT_TI_symbol_name("_wByteCount")
     234                      .dwattr $C$DW$47, DW_AT_type(*$C$DW$T$20)
     235                      .dwattr $C$DW$47, DW_AT_location[DW_OP_bregx 0x24 3]
     236              $C$DW$48        .dwtag  DW_TAG_variable, DW_AT_name("flag")
     237                      .dwattr $C$DW$48, DW_AT_TI_symbol_name("_flag")
     238                      .dwattr $C$DW$48, DW_AT_type(*$C$DW$T$20)
     239                      .dwattr $C$DW$48, DW_AT_location[DW_OP_bregx 0x24 4]
     240 000002 EB00          MOV XAR0, dbl(*SP(#0))
         000004 85   
     241                      .dwpsn  file "F:/eZdsp_DBG/eZDSP_5535_Files/ccsws2/test/c5535_bsl_revc/ezdsp5535_v1/c55xx_csl/inc/csl
     242 000005 E604          MOV #0, *SP(#2) ; |2067| 
         000007 00   
     243                      .dwpsn  file "F:/eZdsp_DBG/eZDSP_5535_Files/ccsws2/test/c5535_bsl_revc/ezdsp5535_v1/c55xx_csl/inc/csl
     244 000008 E606          MOV #0, *SP(#3) ; |2068| 
         00000a 00   
     245                      .dwpsn  file "F:/eZdsp_DBG/eZDSP_5535_Files/ccsws2/test/c5535_bsl_revc/ezdsp5535_v1/c55xx_csl/inc/csl
     246 00000b E608          MOV #0, *SP(#4) ; |2069| 
         00000d 00   
     247                      .dwpsn  file "F:/eZdsp_DBG/eZDSP_5535_Files/ccsws2/test/c5535_bsl_revc/ezdsp5535_v1/c55xx_csl/inc/csl
     248 00000e ED00          MOV dbl(*SP(#0)), XAR3
         000010 BF   
     249              
     250 000011 ED61          MOV dbl(*AR3), AC0 ; |2071| 
         000013 08   
     251 000014 3D21  ||      MOV #2, AC1 ; |2071| 
     252              
     253 000016 121C          CMPU AC1 != AC0, TC1 ; |2071| 
         000018 04   
     254 000019 0464          BCC $C$L3,TC1 ; |2071| 
         00001b 70   
     255                                                      ; branchcc occurs ; |2071| 
     256                      .dwpsn  file "F:/eZdsp_DBG/eZDSP_5535_Files/ccsws2/test/c5535_bsl_revc/ezdsp5535_v1/c55xx_csl/inc/csl
     257 00001c 7604          MOV #1038, T0 ; |2074| 
         00001e 0E48 
     258 000020 AB31          MOV *(#_usbRegisters), AR3 ; |2074| 
         000022 0000 
         000024 00!  
     259 000025 A96B          MOV port(*AR3(T0)), AR1 ; |2074| 
         000027 99   
     260 000028 C904          MOV AR1, *SP(#2) ; |2074| 
     261                      .dwpsn  file "F:/eZdsp_DBG/eZDSP_5535_Files/ccsws2/test/c5535_bsl_revc/ezdsp5535_v1/c55xx_csl/inc/csl
     262 00002a F46B          AND #0xfff0, port(*AR3(T0)) ; |2076| 
TMS320C55x Assembler PC v4.4.1 Tue Sep 18 04:50:04 2018

Tools Copyright (c) 1996-2012 Texas Instruments Incorporated
csl_cdc.asm                                                          PAGE    6

         00002c FFF0 
         00002e 9A   
     263                      .dwpsn  file "F:/eZdsp_DBG/eZDSP_5535_Files/ccsws2/test/c5535_bsl_revc/ezdsp5535_v1/c55xx_csl/inc/csl
     264 00002f AB31          MOV *(#_usbRegisters), AR3 ; |2077| 
         000031 0000 
         000033 00!  
     265 000034 F56B          OR #0x0002, port(*AR3(T0)) ; |2077| 
         000036 0002 
         000038 9A   
     266                      .dwpsn  file "F:/eZdsp_DBG/eZDSP_5535_Files/ccsws2/test/c5535_bsl_revc/ezdsp5535_v1/c55xx_csl/inc/csl
     267 000039 7604          MOV #1046, T0 ; |2080| 
         00003b 1648 
     268 00003d AB31          MOV *(#_usbRegisters), AR3 ; |2080| 
         00003f 0000 
         000041 00!  
     269 000042 A96B          MOV port(*AR3(T0)), AR1 ; |2080| 
         000044 99   
     270              
     271 000045 1801          AND #0x0001, AR1, AR1 ; |2080| 
         000047 99   
     272 000048 3D1A  ||      MOV #1, AR2
     273              
     274 00004a 129C          CMPU AR1 != AR2, TC1 ; |2080| 
         00004c A4   
     275 00004d 0464          BCC $C$L2,TC1 ; |2080| 
         00004f 2E   
     276                                                      ; branchcc occurs ; |2080| 
     277                      .dwpsn  file "F:/eZdsp_DBG/eZDSP_5535_Files/ccsws2/test/c5535_bsl_revc/ezdsp5535_v1/c55xx_csl/inc/csl
     278 000050 7604          MOV #1049, T0 ; |2083| 
         000052 1948 
     279 000054 DF6B          MOV uns(low_byte(port(*AR3(T0)))), AR1 ; |2083| 
         000056 93   
         000057 99   
     280 000058 C906          MOV AR1, *SP(#3) ; |2083| 
     281                      .dwpsn  file "F:/eZdsp_DBG/eZDSP_5535_Files/ccsws2/test/c5535_bsl_revc/ezdsp5535_v1/c55xx_csl/inc/csl
     282 00005a ED00          MOV dbl(*SP(#0)), XAR3
         00005c BF   
     283 00005d C96D          MOV AR1, *AR3(#13) ; |2084| 
         00005f 000D 
     284                      .dwpsn  file "F:/eZdsp_DBG/eZDSP_5535_Files/ccsws2/test/c5535_bsl_revc/ezdsp5535_v1/c55xx_csl/inc/csl
     285 000061 ED00          MOV dbl(*SP(#0)), XAR3
         000063 BF   
     286 000064 F075          CMP *AR3(short(#2)) == #3, TC1 ; |2086| 
         000066 0003 
     287 000068 0464          BCC $C$L1,TC1 ; |2086| 
         00006a 10   
     288                                                      ; branchcc occurs ; |2086| 
     289                      .dwpsn  file "F:/eZdsp_DBG/eZDSP_5535_Files/ccsws2/test/c5535_bsl_revc/ezdsp5535_v1/c55xx_csl/inc/csl
     290 00006b ED79          MOV dbl(*AR3(short(#4))), AC0 ; |2088| 
         00006d 08   
     291 00006e DF06          MOV uns(*SP(#3)), AC1 ; |2088| 
         000070 15   
     292 000071 1204          CMPU AC1 > AC0, TC1 ; |2088| 
         000073 14   
     293 000074 6464          BCC $C$L2,TC1 ; |2088| 
TMS320C55x Assembler PC v4.4.1 Tue Sep 18 04:50:04 2018

Tools Copyright (c) 1996-2012 Texas Instruments Incorporated
csl_cdc.asm                                                          PAGE    7

     294                                                      ; branchcc occurs ; |2088| 
     295                      .dwpsn  file "F:/eZdsp_DBG/eZDSP_5535_Files/ccsws2/test/c5535_bsl_revc/ezdsp5535_v1/c55xx_csl/inc/csl
     296 000076 E608          MOV #1, *SP(#4) ; |2092| 
         000078 01   
     297                      .dwpsn  file "F:/eZdsp_DBG/eZDSP_5535_Files/ccsws2/test/c5535_bsl_revc/ezdsp5535_v1/c55xx_csl/inc/csl
     298 000079 4A03          B $C$L2   ; |2094| 
     299                                                      ; branch occurs ; |2094| 
     300 00007b       $C$L1:    
     301                      .dwpsn  file "F:/eZdsp_DBG/eZDSP_5535_Files/ccsws2/test/c5535_bsl_revc/ezdsp5535_v1/c55xx_csl/inc/csl
     302 00007b E608          MOV #1, *SP(#4) ; |2097| 
         00007d 01   
     303 00007e       $C$L2:    
     304                      .dwpsn  file "F:/eZdsp_DBG/eZDSP_5535_Files/ccsws2/test/c5535_bsl_revc/ezdsp5535_v1/c55xx_csl/inc/csl
     305 00007e AB31          MOV *(#_usbRegisters), AR3 ; |2102| 
         000080 0000 
         000082 00!  
     306 000083 7604          MOV #1038, T0 ; |2102| 
         000085 0E48 
     307 000087 A904          MOV *SP(#2), AR1 ; |2102| 
     308 000089 C96B          MOV AR1, port(*AR3(T0)) ; |2102| 
         00008b 9A   
     309 00008c       $C$L3:    
     310                      .dwpsn  file "F:/eZdsp_DBG/eZDSP_5535_Files/ccsws2/test/c5535_bsl_revc/ezdsp5535_v1/c55xx_csl/inc/csl
     311 00008c A408          MOV *SP(#4), T0 ; |2105| 
     312                      .dwpsn  file "F:/eZdsp_DBG/eZDSP_5535_Files/ccsws2/test/c5535_bsl_revc/ezdsp5535_v1/c55xx_csl/inc/csl
     313 00008e 4E05          AADD #5, SP
     314                      .dwcfi  cfa_offset, 1
     315              $C$DW$49        .dwtag  DW_TAG_TI_branch
     316                      .dwattr $C$DW$49, DW_AT_low_pc(0x00)
     317                      .dwattr $C$DW$49, DW_AT_TI_return
     318 000090 4804          RET
     319                                                      ; return occurs
     320                      .dwattr $C$DW$43, DW_AT_TI_end_file("F:/eZdsp_DBG/eZDSP_5535_Files/ccsws2/test/c5535_bsl_revc/ezdsp55
     321                      .dwattr $C$DW$43, DW_AT_TI_end_line(0x83a)
     322                      .dwattr $C$DW$43, DW_AT_TI_end_column(0x01)
     323                      .dwendentry
     324                      .dwendtag $C$DW$43
     325              
     326 000092               .sect   ".text"
     327                      .align 4
     328                      .global _CDC_Open
     329              
     330              $C$DW$50        .dwtag  DW_TAG_subprogram, DW_AT_name("CDC_Open")
     331                      .dwattr $C$DW$50, DW_AT_low_pc(_CDC_Open)
     332                      .dwattr $C$DW$50, DW_AT_high_pc(0x00)
     333                      .dwattr $C$DW$50, DW_AT_TI_symbol_name("_CDC_Open")
     334                      .dwattr $C$DW$50, DW_AT_external
     335                      .dwattr $C$DW$50, DW_AT_type(*$C$DW$T$106)
     336                      .dwattr $C$DW$50, DW_AT_TI_begin_file("../c5535_bsl_revc/ezdsp5535_v1/c55xx_csl/src/csl_cdc.c")
     337                      .dwattr $C$DW$50, DW_AT_TI_begin_line(0x49)
     338                      .dwattr $C$DW$50, DW_AT_TI_begin_column(0x0c)
     339                      .dwattr $C$DW$50, DW_AT_TI_max_frame_size(0x04)
     340                      .dwpsn  file "../c5535_bsl_revc/ezdsp5535_v1/c55xx_csl/src/csl_cdc.c",line 74,column 1,is_stmt,addres
     341              
     342                      .dwfde $C$DW$CIE, _CDC_Open
TMS320C55x Assembler PC v4.4.1 Tue Sep 18 04:50:04 2018

Tools Copyright (c) 1996-2012 Texas Instruments Incorporated
csl_cdc.asm                                                          PAGE    8

     343              $C$DW$51        .dwtag  DW_TAG_formal_parameter, DW_AT_name("pAppClassHandle")
     344                      .dwattr $C$DW$51, DW_AT_TI_symbol_name("_pAppClassHandle")
     345                      .dwattr $C$DW$51, DW_AT_type(*$C$DW$T$148)
     346                      .dwattr $C$DW$51, DW_AT_location[DW_OP_reg17]
     347              ;*******************************************************************************
     348              ;* FUNCTION NAME: CDC_Open                                                     *
     349              ;*                                                                             *
     350              ;*   Function Uses Regs : AC0,AC0,T0,AR0,XAR0,AR3,XAR3,SP,M40,SATA,SATD,RDM,   *
     351              ;*                        FRCT,SMUL                                            *
     352              ;*   Stack Frame        : Compact (No Frame Pointer, w/ debug)                 *
     353              ;*   Total Frame Size   : 4 words                                              *
     354              ;*                        (1 return address/alignment)                         *
     355              ;*                        (3 local values)                                     *
     356              ;*   Min System Stack   : 1 word                                               *
     357              ;*******************************************************************************
     358 000094       _CDC_Open:
     359                      .dwcfi  cfa_offset, 1
     360                      .dwcfi  save_reg_to_mem, 91, -1
     361 000094 4EFD          AADD #-3, SP
     362                      .dwcfi  cfa_offset, 4
     363              $C$DW$52        .dwtag  DW_TAG_variable, DW_AT_name("pAppClassHandle")
     364                      .dwattr $C$DW$52, DW_AT_TI_symbol_name("_pAppClassHandle")
     365                      .dwattr $C$DW$52, DW_AT_type(*$C$DW$T$148)
     366                      .dwattr $C$DW$52, DW_AT_location[DW_OP_bregx 0x24 0]
     367              $C$DW$53        .dwtag  DW_TAG_variable, DW_AT_name("status")
     368                      .dwattr $C$DW$53, DW_AT_TI_symbol_name("_status")
     369                      .dwattr $C$DW$53, DW_AT_type(*$C$DW$T$106)
     370                      .dwattr $C$DW$53, DW_AT_location[DW_OP_bregx 0x24 2]
     371 000096 EB00          MOV XAR0, dbl(*SP(#0))
         000098 85   
     372                      .dwpsn  file "../c5535_bsl_revc/ezdsp5535_v1/c55xx_csl/src/csl_cdc.c",line 77,column 2,is_stmt
     373 000099 E604          MOV #0, *SP(#2) ; |77| 
         00009b 00   
     374                      .dwpsn  file "../c5535_bsl_revc/ezdsp5535_v1/c55xx_csl/src/csl_cdc.c",line 79,column 2,is_stmt
     375 00009c ED00          MOV dbl(*SP(#0)), XAR3
         00009e BF   
     376 00009f 90B0          MOV XAR3, AC0
     377 0000a1 6600          BCC $C$L4,AC0 == #0 ; |79| 
     378                                                      ; branchcc occurs ; |79| 
     379                      .dwpsn  file "../c5535_bsl_revc/ezdsp5535_v1/c55xx_csl/src/csl_cdc.c",line 81,column 3,is_stmt
     380 0000a3 ED00          MOV dbl(*SP(#0)), XAR0
         0000a5 8F   
     381              $C$DW$54        .dwtag  DW_TAG_TI_branch
     382                      .dwattr $C$DW$54, DW_AT_low_pc(0x00)
     383                      .dwattr $C$DW$54, DW_AT_name("_CDC_Setup")
     384                      .dwattr $C$DW$54, DW_AT_TI_call
     385              
     386 0000a6 0800          CALL #_CDC_Setup ; |81| 
         0000a8 3D   
     387 0000a9 3D14  ||      MOV #1, T0
     388              
     389                                                      ; call occurs [#_CDC_Setup] ; |81| 
     390 0000ab C404          MOV T0, *SP(#2) ; |81| 
     391                      .dwpsn  file "../c5535_bsl_revc/ezdsp5535_v1/c55xx_csl/src/csl_cdc.c",line 82,column 2,is_stmt
     392 0000ad 4A03          B $C$L5   ; |82| 
TMS320C55x Assembler PC v4.4.1 Tue Sep 18 04:50:04 2018

Tools Copyright (c) 1996-2012 Texas Instruments Incorporated
csl_cdc.asm                                                          PAGE    9

     393                                                      ; branch occurs ; |82| 
     394 0000af       $C$L4:    
     395                      .dwpsn  file "../c5535_bsl_revc/ezdsp5535_v1/c55xx_csl/src/csl_cdc.c",line 85,column 3,is_stmt
     396 0000af E604          MOV #-5, *SP(#2) ; |85| 
         0000b1 FB   
     397 0000b2       $C$L5:    
     398                      .dwpsn  file "../c5535_bsl_revc/ezdsp5535_v1/c55xx_csl/src/csl_cdc.c",line 88,column 2,is_stmt
     399 0000b2 A404          MOV *SP(#2), T0 ; |88| 
     400                      .dwpsn  file "../c5535_bsl_revc/ezdsp5535_v1/c55xx_csl/src/csl_cdc.c",line 89,column 1,is_stmt
     401 0000b4 4E03          AADD #3, SP
     402                      .dwcfi  cfa_offset, 1
     403              $C$DW$55        .dwtag  DW_TAG_TI_branch
     404                      .dwattr $C$DW$55, DW_AT_low_pc(0x00)
     405                      .dwattr $C$DW$55, DW_AT_TI_return
     406 0000b6 4804          RET
     407                                                      ; return occurs
     408                      .dwattr $C$DW$50, DW_AT_TI_end_file("../c5535_bsl_revc/ezdsp5535_v1/c55xx_csl/src/csl_cdc.c")
     409                      .dwattr $C$DW$50, DW_AT_TI_end_line(0x59)
     410                      .dwattr $C$DW$50, DW_AT_TI_end_column(0x01)
     411                      .dwendentry
     412                      .dwendtag $C$DW$50
     413              
     414 0000b8               .sect   ".text"
     415                      .align 4
     416                      .global _CDC_OpenFullspeed
     417              
     418              $C$DW$56        .dwtag  DW_TAG_subprogram, DW_AT_name("CDC_OpenFullspeed")
     419                      .dwattr $C$DW$56, DW_AT_low_pc(_CDC_OpenFullspeed)
     420                      .dwattr $C$DW$56, DW_AT_high_pc(0x00)
     421                      .dwattr $C$DW$56, DW_AT_TI_symbol_name("_CDC_OpenFullspeed")
     422                      .dwattr $C$DW$56, DW_AT_external
     423                      .dwattr $C$DW$56, DW_AT_type(*$C$DW$T$106)
     424                      .dwattr $C$DW$56, DW_AT_TI_begin_file("../c5535_bsl_revc/ezdsp5535_v1/c55xx_csl/src/csl_cdc.c")
     425                      .dwattr $C$DW$56, DW_AT_TI_begin_line(0x87)
     426                      .dwattr $C$DW$56, DW_AT_TI_begin_column(0x0c)
     427                      .dwattr $C$DW$56, DW_AT_TI_max_frame_size(0x04)
     428                      .dwpsn  file "../c5535_bsl_revc/ezdsp5535_v1/c55xx_csl/src/csl_cdc.c",line 136,column 1,is_stmt,addre
     429              
     430                      .dwfde $C$DW$CIE, _CDC_OpenFullspeed
     431              $C$DW$57        .dwtag  DW_TAG_formal_parameter, DW_AT_name("pAppClassHandle")
     432                      .dwattr $C$DW$57, DW_AT_TI_symbol_name("_pAppClassHandle")
     433                      .dwattr $C$DW$57, DW_AT_type(*$C$DW$T$148)
     434                      .dwattr $C$DW$57, DW_AT_location[DW_OP_reg17]
     435              ;*******************************************************************************
     436              ;* FUNCTION NAME: CDC_OpenFullspeed                                            *
     437              ;*                                                                             *
     438              ;*   Function Uses Regs : AC0,AC0,T0,AR0,XAR0,AR3,XAR3,SP,M40,SATA,SATD,RDM,   *
     439              ;*                        FRCT,SMUL                                            *
     440              ;*   Stack Frame        : Compact (No Frame Pointer, w/ debug)                 *
     441              ;*   Total Frame Size   : 4 words                                              *
     442              ;*                        (1 return address/alignment)                         *
     443              ;*                        (3 local values)                                     *
     444              ;*   Min System Stack   : 1 word                                               *
     445              ;*******************************************************************************
     446 0000b8       _CDC_OpenFullspeed:
TMS320C55x Assembler PC v4.4.1 Tue Sep 18 04:50:04 2018

Tools Copyright (c) 1996-2012 Texas Instruments Incorporated
csl_cdc.asm                                                          PAGE   10

     447                      .dwcfi  cfa_offset, 1
     448                      .dwcfi  save_reg_to_mem, 91, -1
     449 0000b8 4EFD          AADD #-3, SP
     450                      .dwcfi  cfa_offset, 4
     451              $C$DW$58        .dwtag  DW_TAG_variable, DW_AT_name("pAppClassHandle")
     452                      .dwattr $C$DW$58, DW_AT_TI_symbol_name("_pAppClassHandle")
     453                      .dwattr $C$DW$58, DW_AT_type(*$C$DW$T$148)
     454                      .dwattr $C$DW$58, DW_AT_location[DW_OP_bregx 0x24 0]
     455              $C$DW$59        .dwtag  DW_TAG_variable, DW_AT_name("status")
     456                      .dwattr $C$DW$59, DW_AT_TI_symbol_name("_status")
     457                      .dwattr $C$DW$59, DW_AT_type(*$C$DW$T$106)
     458                      .dwattr $C$DW$59, DW_AT_location[DW_OP_bregx 0x24 2]
     459 0000ba EB00          MOV XAR0, dbl(*SP(#0))
         0000bc 85   
     460                      .dwpsn  file "../c5535_bsl_revc/ezdsp5535_v1/c55xx_csl/src/csl_cdc.c",line 139,column 2,is_stmt
     461 0000bd E604          MOV #0, *SP(#2) ; |139| 
         0000bf 00   
     462                      .dwpsn  file "../c5535_bsl_revc/ezdsp5535_v1/c55xx_csl/src/csl_cdc.c",line 141,column 2,is_stmt
     463 0000c0 ED00          MOV dbl(*SP(#0)), XAR3
         0000c2 BF   
     464 0000c3 90B0          MOV XAR3, AC0
     465 0000c5 0400          BCC $C$L6,AC0 == #0 ; |141| 
         0000c7 14   
     466                                                      ; branchcc occurs ; |141| 
     467                      .dwpsn  file "../c5535_bsl_revc/ezdsp5535_v1/c55xx_csl/src/csl_cdc.c",line 143,column 3,is_stmt
     468 0000c8 ED00          MOV dbl(*SP(#0)), XAR0
         0000ca 8F   
     469              $C$DW$60        .dwtag  DW_TAG_TI_branch
     470                      .dwattr $C$DW$60, DW_AT_low_pc(0x00)
     471                      .dwattr $C$DW$60, DW_AT_name("_CDC_Setup")
     472                      .dwattr $C$DW$60, DW_AT_TI_call
     473              
     474 0000cb 0800          CALL #_CDC_Setup ; |143| 
         0000cd 18   
     475 0000ce 3D04  ||      MOV #0, T0
     476              
     477                                                      ; call occurs [#_CDC_Setup] ; |143| 
     478 0000d0 C404          MOV T0, *SP(#2) ; |143| 
     479                      .dwpsn  file "../c5535_bsl_revc/ezdsp5535_v1/c55xx_csl/src/csl_cdc.c",line 144,column 3,is_stmt
     480 0000d2 7600          MOV #64, T0 ; |144| 
         0000d4 4048 
     481              $C$DW$61        .dwtag  DW_TAG_TI_branch
     482                      .dwattr $C$DW$61, DW_AT_low_pc(0x00)
     483                      .dwattr $C$DW$61, DW_AT_name("_USB_setFullSpeedMode")
     484                      .dwattr $C$DW$61, DW_AT_TI_call
     485 0000d6 6C00          CALL #_USB_setFullSpeedMode ; |144| 
         0000d8 0000!
     486                                                      ; call occurs [#_USB_setFullSpeedMode] ; |144| 
     487                      .dwpsn  file "../c5535_bsl_revc/ezdsp5535_v1/c55xx_csl/src/csl_cdc.c",line 145,column 2,is_stmt
     488 0000da 4A03          B $C$L7   ; |145| 
     489                                                      ; branch occurs ; |145| 
     490 0000dc       $C$L6:    
     491                      .dwpsn  file "../c5535_bsl_revc/ezdsp5535_v1/c55xx_csl/src/csl_cdc.c",line 148,column 3,is_stmt
     492 0000dc E604          MOV #-5, *SP(#2) ; |148| 
         0000de FB   
TMS320C55x Assembler PC v4.4.1 Tue Sep 18 04:50:04 2018

Tools Copyright (c) 1996-2012 Texas Instruments Incorporated
csl_cdc.asm                                                          PAGE   11

     493 0000df       $C$L7:    
     494                      .dwpsn  file "../c5535_bsl_revc/ezdsp5535_v1/c55xx_csl/src/csl_cdc.c",line 151,column 2,is_stmt
     495 0000df A404          MOV *SP(#2), T0 ; |151| 
     496                      .dwpsn  file "../c5535_bsl_revc/ezdsp5535_v1/c55xx_csl/src/csl_cdc.c",line 152,column 1,is_stmt
     497 0000e1 4E03          AADD #3, SP
     498                      .dwcfi  cfa_offset, 1
     499              $C$DW$62        .dwtag  DW_TAG_TI_branch
     500                      .dwattr $C$DW$62, DW_AT_low_pc(0x00)
     501                      .dwattr $C$DW$62, DW_AT_TI_return
     502 0000e3 4804          RET
     503                                                      ; return occurs
     504                      .dwattr $C$DW$56, DW_AT_TI_end_file("../c5535_bsl_revc/ezdsp5535_v1/c55xx_csl/src/csl_cdc.c")
     505                      .dwattr $C$DW$56, DW_AT_TI_end_line(0x98)
     506                      .dwattr $C$DW$56, DW_AT_TI_end_column(0x01)
     507                      .dwendentry
     508                      .dwendtag $C$DW$56
     509              
     510 0000e5               .sect   ".text"
     511                      .align 4
     512              
     513              $C$DW$63        .dwtag  DW_TAG_subprogram, DW_AT_name("CDC_Setup")
     514                      .dwattr $C$DW$63, DW_AT_low_pc(_CDC_Setup)
     515                      .dwattr $C$DW$63, DW_AT_high_pc(0x00)
     516                      .dwattr $C$DW$63, DW_AT_TI_symbol_name("_CDC_Setup")
     517                      .dwattr $C$DW$63, DW_AT_type(*$C$DW$T$106)
     518                      .dwattr $C$DW$63, DW_AT_TI_begin_file("../c5535_bsl_revc/ezdsp5535_v1/c55xx_csl/src/csl_cdc.c")
     519                      .dwattr $C$DW$63, DW_AT_TI_begin_line(0xc8)
     520                      .dwattr $C$DW$63, DW_AT_TI_begin_column(0x13)
     521                      .dwattr $C$DW$63, DW_AT_TI_max_frame_size(0x0a)
     522                      .dwpsn  file "../c5535_bsl_revc/ezdsp5535_v1/c55xx_csl/src/csl_cdc.c",line 202,column 1,is_stmt,addre
     523              
     524                      .dwfde $C$DW$CIE, _CDC_Setup
     525              $C$DW$64        .dwtag  DW_TAG_formal_parameter, DW_AT_name("pAppClassHandle")
     526                      .dwattr $C$DW$64, DW_AT_TI_symbol_name("_pAppClassHandle")
     527                      .dwattr $C$DW$64, DW_AT_type(*$C$DW$T$148)
     528                      .dwattr $C$DW$64, DW_AT_location[DW_OP_reg17]
     529              $C$DW$65        .dwtag  DW_TAG_formal_parameter, DW_AT_name("usbSpeedCfg")
     530                      .dwattr $C$DW$65, DW_AT_TI_symbol_name("_usbSpeedCfg")
     531                      .dwattr $C$DW$65, DW_AT_type(*$C$DW$T$77)
     532                      .dwattr $C$DW$65, DW_AT_location[DW_OP_reg12]
     533              ;*******************************************************************************
     534              ;* FUNCTION NAME: CDC_Setup                                                    *
     535              ;*                                                                             *
     536              ;*   Function Uses Regs : AC0,AC0,T0,T1,AR0,XAR0,AR1,AR2,XAR2,AR3,XAR3,SP,TC1, *
     537              ;*                        M40,SATA,SATD,RDM,FRCT,SMUL                          *
     538              ;*   Stack Frame        : Compact (No Frame Pointer, w/ debug)                 *
     539              ;*   Total Frame Size   : 10 words                                             *
     540              ;*                        (1 return address/alignment)                         *
     541              ;*                        (9 local values)                                     *
     542              ;*   Min System Stack   : 1 word                                               *
     543              ;*******************************************************************************
     544 0000e8       _CDC_Setup:
     545                      .dwcfi  cfa_offset, 1
     546                      .dwcfi  save_reg_to_mem, 91, -1
     547 0000e8 4EF7          AADD #-9, SP
TMS320C55x Assembler PC v4.4.1 Tue Sep 18 04:50:04 2018

Tools Copyright (c) 1996-2012 Texas Instruments Incorporated
csl_cdc.asm                                                          PAGE   12

     548                      .dwcfi  cfa_offset, 10
     549              $C$DW$66        .dwtag  DW_TAG_variable, DW_AT_name("pAppClassHandle")
     550                      .dwattr $C$DW$66, DW_AT_TI_symbol_name("_pAppClassHandle")
     551                      .dwattr $C$DW$66, DW_AT_type(*$C$DW$T$148)
     552                      .dwattr $C$DW$66, DW_AT_location[DW_OP_bregx 0x24 0]
     553              $C$DW$67        .dwtag  DW_TAG_variable, DW_AT_name("usbSpeedCfg")
     554                      .dwattr $C$DW$67, DW_AT_TI_symbol_name("_usbSpeedCfg")
     555                      .dwattr $C$DW$67, DW_AT_type(*$C$DW$T$77)
     556                      .dwattr $C$DW$67, DW_AT_location[DW_OP_bregx 0x24 2]
     557              $C$DW$68        .dwtag  DW_TAG_variable, DW_AT_name("pHandle")
     558                      .dwattr $C$DW$68, DW_AT_TI_symbol_name("_pHandle")
     559                      .dwattr $C$DW$68, DW_AT_type(*$C$DW$T$144)
     560                      .dwattr $C$DW$68, DW_AT_location[DW_OP_bregx 0x24 4]
     561              $C$DW$69        .dwtag  DW_TAG_variable, DW_AT_name("status")
     562                      .dwattr $C$DW$69, DW_AT_TI_symbol_name("_status")
     563                      .dwattr $C$DW$69, DW_AT_type(*$C$DW$T$106)
     564                      .dwattr $C$DW$69, DW_AT_location[DW_OP_bregx 0x24 6]
     565              $C$DW$70        .dwtag  DW_TAG_variable, DW_AT_name("eventMask")
     566                      .dwattr $C$DW$70, DW_AT_TI_symbol_name("_eventMask")
     567                      .dwattr $C$DW$70, DW_AT_type(*$C$DW$T$20)
     568                      .dwattr $C$DW$70, DW_AT_location[DW_OP_bregx 0x24 7]
     569              $C$DW$71        .dwtag  DW_TAG_variable, DW_AT_name("maxPktSize")
     570                      .dwattr $C$DW$71, DW_AT_TI_symbol_name("_maxPktSize")
     571                      .dwattr $C$DW$71, DW_AT_type(*$C$DW$T$20)
     572                      .dwattr $C$DW$71, DW_AT_location[DW_OP_bregx 0x24 8]
     573 0000ea C404          MOV T0, *SP(#2) ; |202| 
     574 0000ec EB00          MOV XAR0, dbl(*SP(#0))
         0000ee 85   
     575                      .dwpsn  file "../c5535_bsl_revc/ezdsp5535_v1/c55xx_csl/src/csl_cdc.c",line 208,column 2,is_stmt
     576 0000ef E60C          MOV #0, *SP(#6) ; |208| 
         0000f1 00   
     577                      .dwpsn  file "../c5535_bsl_revc/ezdsp5535_v1/c55xx_csl/src/csl_cdc.c",line 209,column 2,is_stmt
     578 0000f2 ED00          MOV dbl(*SP(#0)), XAR3
         0000f4 BF   
     579 0000f5 ED61          MOV dbl(*AR3), XAR3
         0000f7 BF   
     580 0000f8 EB08          MOV XAR3, dbl(*SP(#4))
         0000fa B5   
     581                      .dwpsn  file "../c5535_bsl_revc/ezdsp5535_v1/c55xx_csl/src/csl_cdc.c",line 211,column 2,is_stmt
     582 0000fb ED00          MOV dbl(*SP(#0)), XAR3
         0000fd BF   
     583 0000fe 90B0          MOV XAR3, AC0
     584 000100 6D00          BCC $C$L10,AC0 == #0 ; |211| 
         000102 017F 
     585                                                      ; branchcc occurs ; |211| 
     586                      .dwpsn  file "../c5535_bsl_revc/ezdsp5535_v1/c55xx_csl/src/csl_cdc.c",line 213,column 3,is_stmt
     587 000104 ED08          MOV dbl(*SP(#4)), XAR3
         000106 BF   
     588 000107 E66D          MOV #0, *AR3(#20) ; |213| 
         000109 0000 
         00010b 14   
     589                      .dwpsn  file "../c5535_bsl_revc/ezdsp5535_v1/c55xx_csl/src/csl_cdc.c",line 216,column 3,is_stmt
     590 00010c ED08          MOV dbl(*SP(#4)), XAR3
         00010e BF   
     591 00010f E66D          MOV #0, *AR3(#42) ; |216| 
TMS320C55x Assembler PC v4.4.1 Tue Sep 18 04:50:04 2018

Tools Copyright (c) 1996-2012 Texas Instruments Incorporated
csl_cdc.asm                                                          PAGE   13

         000111 0000 
         000113 2A   
     592                      .dwpsn  file "../c5535_bsl_revc/ezdsp5535_v1/c55xx_csl/src/csl_cdc.c",line 217,column 3,is_stmt
     593 000114 ED08          MOV dbl(*SP(#4)), XAR3
         000116 BF   
     594 000117 E66D          MOV #0, *AR3(#66) ; |217| 
         000119 0000 
         00011b 42   
     595                      .dwpsn  file "../c5535_bsl_revc/ezdsp5535_v1/c55xx_csl/src/csl_cdc.c",line 220,column 3,is_stmt
     596 00011c ED08          MOV dbl(*SP(#4)), XAR3
         00011e BF   
     597 00011f ED08          MOV dbl(*SP(#4)), XAR2
         000121 AF   
     598 000122 1416          AADD #22, AR3 ; |220| 
         000124 B4   
     599 000125 EB4D          MOV XAR3, dbl(*AR2(#44))
         000127 B500 
         000129 2C   
     600                      .dwpsn  file "../c5535_bsl_revc/ezdsp5535_v1/c55xx_csl/src/csl_cdc.c",line 221,column 3,is_stmt
     601 00012a ED08          MOV dbl(*SP(#4)), XAR2
         00012c AF   
     602 00012d ED08          MOV dbl(*SP(#4)), XAR3
         00012f BF   
     603 000130 EB4D          MOV XAR3, dbl(*AR2(#46))
         000132 B500 
         000134 2E   
     604                      .dwpsn  file "../c5535_bsl_revc/ezdsp5535_v1/c55xx_csl/src/csl_cdc.c",line 222,column 3,is_stmt
     605 000135 ED08          MOV dbl(*SP(#4)), XAR3
         000137 BF   
     606 000138 ED08          MOV dbl(*SP(#4)), XAR2
         00013a AF   
     607 00013b 145C          AADD #92, AR3 ; |222| 
         00013d B4   
     608 00013e EB4D          MOV XAR3, dbl(*AR2(#48))
         000140 B500 
         000142 30   
     609                      .dwpsn  file "../c5535_bsl_revc/ezdsp5535_v1/c55xx_csl/src/csl_cdc.c",line 223,column 3,is_stmt
     610 000143 ED08          MOV dbl(*SP(#4)), XAR3
         000145 BF   
     611 000146 ED08          MOV dbl(*SP(#4)), XAR2
         000148 AF   
     612 000149 1448          AADD #72, AR3 ; |223| 
         00014b B4   
     613 00014c EB4D          MOV XAR3, dbl(*AR2(#50))
         00014e B500 
         000150 32   
     614                      .dwpsn  file "../c5535_bsl_revc/ezdsp5535_v1/c55xx_csl/src/csl_cdc.c",line 224,column 3,is_stmt
     615 000151 ED08          MOV dbl(*SP(#4)), XAR3
         000153 BF   
     616 000154 ED08          MOV dbl(*SP(#4)), XAR2
         000156 AF   
     617 000157 B46F          AMAR *+AR3(#132) ; |224| 
         000159 0084 
     618 00015b EB4D          MOV XAR3, dbl(*AR2(#52))
         00015d B500 
TMS320C55x Assembler PC v4.4.1 Tue Sep 18 04:50:04 2018

Tools Copyright (c) 1996-2012 Texas Instruments Incorporated
csl_cdc.asm                                                          PAGE   14

         00015f 34   
     619                      .dwpsn  file "../c5535_bsl_revc/ezdsp5535_v1/c55xx_csl/src/csl_cdc.c",line 225,column 3,is_stmt
     620 000160 ED08          MOV dbl(*SP(#4)), XAR3
         000162 BF   
     621 000163 ED08          MOV dbl(*SP(#4)), XAR2
         000165 AF   
     622 000166 1470          AADD #112, AR3 ; |225| 
         000168 B4   
     623 000169 EB4D          MOV XAR3, dbl(*AR2(#54))
         00016b B500 
         00016d 36   
     624                      .dwpsn  file "../c5535_bsl_revc/ezdsp5535_v1/c55xx_csl/src/csl_cdc.c",line 227,column 3,is_stmt
     625 00016e ED08          MOV dbl(*SP(#4)), XAR3
         000170 BF   
     626 000171 A904          MOV *SP(#2), AR1 ; |227| 
     627 000173 C96D          MOV AR1, *AR3(#67) ; |227| 
         000175 0043 
     628                      .dwpsn  file "../c5535_bsl_revc/ezdsp5535_v1/c55xx_csl/src/csl_cdc.c",line 230,column 3,is_stmt
     629 000177 E60E          MOV #61, *SP(#7) ; |230| 
         000179 3D   
     630                      .dwpsn  file "../c5535_bsl_revc/ezdsp5535_v1/c55xx_csl/src/csl_cdc.c",line 234,column 3,is_stmt
     631 00017a F004          CMP *SP(#2) == #1, TC1 ; |234| 
         00017c 0001 
     632 00017e 6374          BCC $C$L8,!TC1 ; |234| 
     633                                                      ; branchcc occurs ; |234| 
     634                      .dwpsn  file "../c5535_bsl_revc/ezdsp5535_v1/c55xx_csl/src/csl_cdc.c",line 236,column 4,is_stmt
     635 000180 FB10          MOV #512, *SP(#8) ; |236| 
         000182 0200 
     636                      .dwpsn  file "../c5535_bsl_revc/ezdsp5535_v1/c55xx_csl/src/csl_cdc.c",line 237,column 3,is_stmt
     637 000184 4A03          B $C$L9   ; |237| 
     638                                                      ; branch occurs ; |237| 
     639 000186       $C$L8:    
     640                      .dwpsn  file "../c5535_bsl_revc/ezdsp5535_v1/c55xx_csl/src/csl_cdc.c",line 240,column 4,is_stmt
     641 000186 E610          MOV #64, *SP(#8) ; |240| 
         000188 40   
     642 000189       $C$L9:    
     643                      .dwpsn  file "../c5535_bsl_revc/ezdsp5535_v1/c55xx_csl/src/csl_cdc.c",line 243,column 3,is_stmt
     644 000189 ED08          MOV dbl(*SP(#4)), XAR3
         00018b BF   
     645 00018c A46D          MOV *AR3(#20), T0 ; |243| 
         00018e 0014 
     646 000190 ED00          MOV dbl(*SP(#0)), XAR3
         000192 BF   
     647 000193 ED08          MOV dbl(*SP(#4)), XAR0
         000195 8F   
     648              
     649 00019a 3D05          MOV #0, T1
     650 000196 7600  ||      MOV #64, AR2 ; |243| 
         000198 40A8 
     651              
     652 00019c ED6D          MOV dbl(*AR3(#18)), AC0 ; |243| 
         00019e 0800 
         0001a0 12   
     653              
     654 0001a1 8A0E          MOV *SP(#7), AR3 ; |243| 
TMS320C55x Assembler PC v4.4.1 Tue Sep 18 04:50:04 2018

Tools Copyright (c) 1996-2012 Texas Instruments Incorporated
csl_cdc.asm                                                          PAGE   15

         0001a3 8B1C 
         0001a5 16   
     655              ||      AADD #22, AR0 ; |243| 
     656              
     657              $C$DW$72        .dwtag  DW_TAG_TI_branch
     658                      .dwattr $C$DW$72, DW_AT_low_pc(0x00)
     659                      .dwattr $C$DW$72, DW_AT_name("_USB_initEndptObj")
     660                      .dwattr $C$DW$72, DW_AT_TI_call
     661              
     662 0001a6 6C00          CALL #_USB_initEndptObj ; |243| 
         0001a8 0000!
     663 0001aa 3D09  ||      MOV #0, AR1
     664              
     665                                                      ; call occurs [#_USB_initEndptObj] ; |243| 
     666 0001ac C40C          MOV T0, *SP(#6) ; |243| 
     667                      .dwpsn  file "../c5535_bsl_revc/ezdsp5535_v1/c55xx_csl/src/csl_cdc.c",line 250,column 3,is_stmt
     668 0001ae 2249          MOV T0, AR1
     669 0001b0 6D19          BCC $C$L12,AR1 != #0 ; |250| 
         0001b2 00D4 
     670                                                      ; branchcc occurs ; |250| 
     671                      .dwpsn  file "../c5535_bsl_revc/ezdsp5535_v1/c55xx_csl/src/csl_cdc.c",line 252,column 4,is_stmt
     672                      .dwpsn  file "../c5535_bsl_revc/ezdsp5535_v1/c55xx_csl/src/csl_cdc.c",line 256,column 3,is_stmt
     673 0001b4 ED08          MOV dbl(*SP(#4)), XAR3
         0001b6 BF   
     674 0001b7 A46D          MOV *AR3(#20), T0 ; |256| 
         0001b9 0014 
     675 0001bb ED00          MOV dbl(*SP(#0)), XAR3
         0001bd BF   
     676 0001be ED08          MOV dbl(*SP(#4)), XAR0
         0001c0 8F   
     677 0001c1 7600          MOV #64, AR2 ; |256| 
         0001c3 40A8 
     678 0001c5 ED6D          MOV dbl(*AR3(#18)), AC0 ; |256| 
         0001c7 0800 
         0001c9 12   
     679              
     680 0001ca 7600          MOV #32, AR3 ; |256| 
         0001cc 20B8 
     681 0001ce 3D85  ||      MOV #8, T1
     682              
     683              $C$DW$73        .dwtag  DW_TAG_TI_branch
     684                      .dwattr $C$DW$73, DW_AT_low_pc(0x00)
     685                      .dwattr $C$DW$73, DW_AT_name("_USB_initEndptObj")
     686                      .dwattr $C$DW$73, DW_AT_TI_call
     687              
     688 0001d0 6C00          CALL #_USB_initEndptObj ; |256| 
         0001d2 0000!
     689 0001d4 3D09  ||      MOV #0, AR1
     690              
     691                                                      ; call occurs [#_USB_initEndptObj] ; |256| 
     692 0001d6 C40C          MOV T0, *SP(#6) ; |256| 
     693                      .dwpsn  file "../c5535_bsl_revc/ezdsp5535_v1/c55xx_csl/src/csl_cdc.c",line 263,column 3,is_stmt
     694 0001d8 2249          MOV T0, AR1
     695 0001da 6D19          BCC $C$L12,AR1 != #0 ; |263| 
         0001dc 00AA 
TMS320C55x Assembler PC v4.4.1 Tue Sep 18 04:50:04 2018

Tools Copyright (c) 1996-2012 Texas Instruments Incorporated
csl_cdc.asm                                                          PAGE   16

     696                                                      ; branchcc occurs ; |263| 
     697                      .dwpsn  file "../c5535_bsl_revc/ezdsp5535_v1/c55xx_csl/src/csl_cdc.c",line 265,column 4,is_stmt
     698                      .dwpsn  file "../c5535_bsl_revc/ezdsp5535_v1/c55xx_csl/src/csl_cdc.c",line 269,column 3,is_stmt
     699 0001de E60E          MOV #33, *SP(#7) ; |269| 
         0001e0 21   
     700                      .dwpsn  file "../c5535_bsl_revc/ezdsp5535_v1/c55xx_csl/src/csl_cdc.c",line 270,column 3,is_stmt
     701 0001e1 ED08          MOV dbl(*SP(#4)), XAR3
         0001e3 BF   
     702 0001e4 A46D          MOV *AR3(#20), T0 ; |270| 
         0001e6 0014 
     703 0001e8 ED00          MOV dbl(*SP(#0)), XAR3
         0001ea BF   
     704 0001eb ED08          MOV dbl(*SP(#4)), XAR0
         0001ed 8F   
     705              
     706 0001ee AA10          MOV *SP(#8), AR2 ; |270| 
     707 0001f0 3D95  ||      MOV #9, T1
     708              
     709 0001f2 ED6D          MOV dbl(*AR3(#20)), AC0 ; |270| 
         0001f4 0800 
         0001f6 14   
     710              
     711 0001f7 8A0E          MOV *SP(#7), AR3 ; |270| 
         0001f9 8B1C 
         0001fb 70   
     712              ||      AADD #112, AR0 ; |270| 
     713              
     714              $C$DW$74        .dwtag  DW_TAG_TI_branch
     715                      .dwattr $C$DW$74, DW_AT_low_pc(0x00)
     716                      .dwattr $C$DW$74, DW_AT_name("_USB_initEndptObj")
     717                      .dwattr $C$DW$74, DW_AT_TI_call
     718              
     719 0001fc 6C00          CALL #_USB_initEndptObj ; |270| 
         0001fe 0000!
     720 000200 3D29  ||      MOV #2, AR1
     721              
     722                                                      ; call occurs [#_USB_initEndptObj] ; |270| 
     723 000202 C40C          MOV T0, *SP(#6) ; |270| 
     724                      .dwpsn  file "../c5535_bsl_revc/ezdsp5535_v1/c55xx_csl/src/csl_cdc.c",line 277,column 3,is_stmt
     725 000204 2249          MOV T0, AR1
     726 000206 0419          BCC $C$L12,AR1 != #0 ; |277| 
         000208 7F   
     727                                                      ; branchcc occurs ; |277| 
     728                      .dwpsn  file "../c5535_bsl_revc/ezdsp5535_v1/c55xx_csl/src/csl_cdc.c",line 279,column 4,is_stmt
     729                      .dwpsn  file "../c5535_bsl_revc/ezdsp5535_v1/c55xx_csl/src/csl_cdc.c",line 283,column 3,is_stmt
     730 000209 ED08          MOV dbl(*SP(#4)), XAR3
         00020b BF   
     731 00020c ED08          MOV dbl(*SP(#4)), XAR0
         00020e 8F   
     732 00020f A46D          MOV *AR3(#20), T0 ; |283| 
         000211 0014 
     733 000213 ED00          MOV dbl(*SP(#0)), XAR3
         000215 BF   
     734              
     735                      AADD #92, AR0 ; |283| 
TMS320C55x Assembler PC v4.4.1 Tue Sep 18 04:50:04 2018

Tools Copyright (c) 1996-2012 Texas Instruments Incorporated
csl_cdc.asm                                                          PAGE   17

     736 000216 8A10  ||      MOV *SP(#8), AR2 ; |283| 
         000218 8A1C 
         00021a 5C   
     737              
     738 00021b ED6D          MOV dbl(*AR3(#16)), AC0 ; |283| 
         00021d 0800 
         00021f 10   
     739              
     740 000220 7600          MOV #32, AR3 ; |283| 
         000222 20B8 
     741 000224 3D25  ||      MOV #2, T1
     742              
     743              $C$DW$75        .dwtag  DW_TAG_TI_branch
     744                      .dwattr $C$DW$75, DW_AT_low_pc(0x00)
     745                      .dwattr $C$DW$75, DW_AT_name("_USB_initEndptObj")
     746                      .dwattr $C$DW$75, DW_AT_TI_call
     747              
     748 000226 6C00          CALL #_USB_initEndptObj ; |283| 
         000228 0000!
     749 00022a 3D19  ||      MOV #1, AR1
     750              
     751                                                      ; call occurs [#_USB_initEndptObj] ; |283| 
     752 00022c C40C          MOV T0, *SP(#6) ; |283| 
     753                      .dwpsn  file "../c5535_bsl_revc/ezdsp5535_v1/c55xx_csl/src/csl_cdc.c",line 290,column 3,is_stmt
     754 00022e 2249          MOV T0, AR1
     755 000230 0419          BCC $C$L12,AR1 != #0 ; |290| 
         000232 55   
     756                                                      ; branchcc occurs ; |290| 
     757                      .dwpsn  file "../c5535_bsl_revc/ezdsp5535_v1/c55xx_csl/src/csl_cdc.c",line 292,column 4,is_stmt
     758                      .dwpsn  file "../c5535_bsl_revc/ezdsp5535_v1/c55xx_csl/src/csl_cdc.c",line 296,column 3,is_stmt
     759 000233 E60E          MOV #33, *SP(#7) ; |296| 
         000235 21   
     760                      .dwpsn  file "../c5535_bsl_revc/ezdsp5535_v1/c55xx_csl/src/csl_cdc.c",line 297,column 3,is_stmt
     761 000236 ED08          MOV dbl(*SP(#4)), XAR3
         000238 BF   
     762 000239 A46D          MOV *AR3(#20), T0 ; |297| 
         00023b 0014 
     763 00023d ED00          MOV dbl(*SP(#0)), XAR3
         00023f BF   
     764 000240 ED08          MOV dbl(*SP(#4)), XAR0
         000242 8F   
     765              
     766 000243 AA10          MOV *SP(#8), AR2 ; |297| 
     767 000245 3DB5  ||      MOV #11, T1
     768              
     769 000247 ED6D          MOV dbl(*AR3(#16)), AC0 ; |297| 
         000249 0800 
         00024b 10   
     770              
     771 00024c 8A0E          MOV *SP(#7), AR3 ; |297| 
         00024e 8B1C 
         000250 48   
     772              ||      AADD #72, AR0 ; |297| 
     773              
     774              $C$DW$76        .dwtag  DW_TAG_TI_branch
TMS320C55x Assembler PC v4.4.1 Tue Sep 18 04:50:04 2018

Tools Copyright (c) 1996-2012 Texas Instruments Incorporated
csl_cdc.asm                                                          PAGE   18

     775                      .dwattr $C$DW$76, DW_AT_low_pc(0x00)
     776                      .dwattr $C$DW$76, DW_AT_name("_USB_initEndptObj")
     777                      .dwattr $C$DW$76, DW_AT_TI_call
     778              
     779 000251 6C00          CALL #_USB_initEndptObj ; |297| 
         000253 0000!
     780 000255 3D19  ||      MOV #1, AR1
     781              
     782                                                      ; call occurs [#_USB_initEndptObj] ; |297| 
     783 000257 C40C          MOV T0, *SP(#6) ; |297| 
     784                      .dwpsn  file "../c5535_bsl_revc/ezdsp5535_v1/c55xx_csl/src/csl_cdc.c",line 304,column 3,is_stmt
     785 000259 2249          MOV T0, AR1
     786 00025b 0419          BCC $C$L12,AR1 != #0 ; |304| 
         00025d 2A   
     787                                                      ; branchcc occurs ; |304| 
     788                      .dwpsn  file "../c5535_bsl_revc/ezdsp5535_v1/c55xx_csl/src/csl_cdc.c",line 306,column 4,is_stmt
     789                      .dwpsn  file "../c5535_bsl_revc/ezdsp5535_v1/c55xx_csl/src/csl_cdc.c",line 310,column 3,is_stmt
     790 00025e ED08          MOV dbl(*SP(#4)), XAR0
         000260 8F   
     791              
     792 000261 142C          AADD #44, AR0 ; |310| 
         000263 84   
     793 000264 3D04  ||      MOV #0, T0
     794              
     795              $C$DW$77        .dwtag  DW_TAG_TI_branch
     796                      .dwattr $C$DW$77, DW_AT_low_pc(0x00)
     797                      .dwattr $C$DW$77, DW_AT_name("_USB_setParams")
     798                      .dwattr $C$DW$77, DW_AT_TI_call
     799              
     800 000266 6C00          CALL #_USB_setParams ; |310| 
         000268 0000!
     801 00026a 3D05  ||      MOV #0, T1
     802              
     803                                                      ; call occurs [#_USB_setParams] ; |310| 
     804 00026c C40C          MOV T0, *SP(#6) ; |310| 
     805                      .dwpsn  file "../c5535_bsl_revc/ezdsp5535_v1/c55xx_csl/src/csl_cdc.c",line 311,column 3,is_stmt
     806 00026e 2249          MOV T0, AR1
     807 000270 0419          BCC $C$L12,AR1 != #0 ; |311| 
         000272 15   
     808                                                      ; branchcc occurs ; |311| 
     809                      .dwpsn  file "../c5535_bsl_revc/ezdsp5535_v1/c55xx_csl/src/csl_cdc.c",line 313,column 4,is_stmt
     810                      .dwpsn  file "../c5535_bsl_revc/ezdsp5535_v1/c55xx_csl/src/csl_cdc.c",line 316,column 3,is_stmt
     811 000273 0419          BCC $C$L11,AR1 != #0 ; |316| 
         000275 10   
     812                                                      ; branchcc occurs ; |316| 
     813                      .dwpsn  file "../c5535_bsl_revc/ezdsp5535_v1/c55xx_csl/src/csl_cdc.c",line 319,column 4,is_stmt
     814 000276 ED08          MOV dbl(*SP(#4)), XAR3
         000278 BF   
     815 000279 A46D          MOV *AR3(#20), T0 ; |319| 
         00027b 0014 
     816              $C$DW$78        .dwtag  DW_TAG_TI_branch
     817                      .dwattr $C$DW$78, DW_AT_low_pc(0x00)
     818                      .dwattr $C$DW$78, DW_AT_name("_USB_connectDev")
     819                      .dwattr $C$DW$78, DW_AT_TI_call
     820 00027d 6C00          CALL #_USB_connectDev ; |319| 
TMS320C55x Assembler PC v4.4.1 Tue Sep 18 04:50:04 2018

Tools Copyright (c) 1996-2012 Texas Instruments Incorporated
csl_cdc.asm                                                          PAGE   19

         00027f 0000!
     821                                                      ; call occurs [#_USB_connectDev] ; |319| 
     822                      .dwpsn  file "../c5535_bsl_revc/ezdsp5535_v1/c55xx_csl/src/csl_cdc.c",line 321,column 2,is_stmt
     823 000281 4A03          B $C$L11  ; |321| 
     824                                                      ; branch occurs ; |321| 
     825 000283       $C$L10:    
     826                      .dwpsn  file "../c5535_bsl_revc/ezdsp5535_v1/c55xx_csl/src/csl_cdc.c",line 324,column 3,is_stmt
     827 000283 E60C          MOV #-5, *SP(#6) ; |324| 
         000285 FB   
     828 000286       $C$L11:    
     829                      .dwpsn  file "../c5535_bsl_revc/ezdsp5535_v1/c55xx_csl/src/csl_cdc.c",line 327,column 2,is_stmt
     830 000286 A40C          MOV *SP(#6), T0 ; |327| 
     831 000288       $C$L12:    
     832                      .dwpsn  file "../c5535_bsl_revc/ezdsp5535_v1/c55xx_csl/src/csl_cdc.c",line 328,column 1,is_stmt
     833 000288 4E09          AADD #9, SP
     834                      .dwcfi  cfa_offset, 1
     835              $C$DW$79        .dwtag  DW_TAG_TI_branch
     836                      .dwattr $C$DW$79, DW_AT_low_pc(0x00)
     837                      .dwattr $C$DW$79, DW_AT_TI_return
     838 00028a 4804          RET
     839                                                      ; return occurs
     840                      .dwattr $C$DW$63, DW_AT_TI_end_file("../c5535_bsl_revc/ezdsp5535_v1/c55xx_csl/src/csl_cdc.c")
     841                      .dwattr $C$DW$63, DW_AT_TI_end_line(0x148)
     842                      .dwattr $C$DW$63, DW_AT_TI_end_column(0x01)
     843                      .dwendentry
     844                      .dwendtag $C$DW$63
     845              
     846 00028c               .sect   ".text"
     847                      .align 4
     848                      .global _CDC_Close
     849              
     850              $C$DW$80        .dwtag  DW_TAG_subprogram, DW_AT_name("CDC_Close")
     851                      .dwattr $C$DW$80, DW_AT_low_pc(_CDC_Close)
     852                      .dwattr $C$DW$80, DW_AT_high_pc(0x00)
     853                      .dwattr $C$DW$80, DW_AT_TI_symbol_name("_CDC_Close")
     854                      .dwattr $C$DW$80, DW_AT_external
     855                      .dwattr $C$DW$80, DW_AT_type(*$C$DW$T$106)
     856                      .dwattr $C$DW$80, DW_AT_TI_begin_file("../c5535_bsl_revc/ezdsp5535_v1/c55xx_csl/src/csl_cdc.c")
     857                      .dwattr $C$DW$80, DW_AT_TI_begin_line(0x176)
     858                      .dwattr $C$DW$80, DW_AT_TI_begin_column(0x0c)
     859                      .dwattr $C$DW$80, DW_AT_TI_max_frame_size(0x08)
     860                      .dwpsn  file "../c5535_bsl_revc/ezdsp5535_v1/c55xx_csl/src/csl_cdc.c",line 375,column 1,is_stmt,addre
     861              
     862                      .dwfde $C$DW$CIE, _CDC_Close
     863              $C$DW$81        .dwtag  DW_TAG_formal_parameter, DW_AT_name("pAppClassHandle")
     864                      .dwattr $C$DW$81, DW_AT_TI_symbol_name("_pAppClassHandle")
     865                      .dwattr $C$DW$81, DW_AT_type(*$C$DW$T$148)
     866                      .dwattr $C$DW$81, DW_AT_location[DW_OP_reg17]
     867              ;*******************************************************************************
     868              ;* FUNCTION NAME: CDC_Close                                                    *
     869              ;*                                                                             *
     870              ;*   Function Uses Regs : AC0,AC0,T0,AR0,XAR0,AR3,XAR3,SP,M40,SATA,SATD,RDM,   *
     871              ;*                        FRCT,SMUL                                            *
     872              ;*   Stack Frame        : Compact (No Frame Pointer, w/ debug)                 *
     873              ;*   Total Frame Size   : 8 words                                              *
TMS320C55x Assembler PC v4.4.1 Tue Sep 18 04:50:04 2018

Tools Copyright (c) 1996-2012 Texas Instruments Incorporated
csl_cdc.asm                                                          PAGE   20

     874              ;*                        (1 return address/alignment)                         *
     875              ;*                        (7 local values)                                     *
     876              ;*   Min System Stack   : 1 word                                               *
     877              ;*******************************************************************************
     878 00028c       _CDC_Close:
     879                      .dwcfi  cfa_offset, 1
     880                      .dwcfi  save_reg_to_mem, 91, -1
     881 00028c 4EF9          AADD #-7, SP
     882                      .dwcfi  cfa_offset, 8
     883              $C$DW$82        .dwtag  DW_TAG_variable, DW_AT_name("pAppClassHandle")
     884                      .dwattr $C$DW$82, DW_AT_TI_symbol_name("_pAppClassHandle")
     885                      .dwattr $C$DW$82, DW_AT_type(*$C$DW$T$148)
     886                      .dwattr $C$DW$82, DW_AT_location[DW_OP_bregx 0x24 0]
     887              $C$DW$83        .dwtag  DW_TAG_variable, DW_AT_name("pCdcClassHdl")
     888                      .dwattr $C$DW$83, DW_AT_TI_symbol_name("_pCdcClassHdl")
     889                      .dwattr $C$DW$83, DW_AT_type(*$C$DW$T$144)
     890                      .dwattr $C$DW$83, DW_AT_location[DW_OP_bregx 0x24 2]
     891              $C$DW$84        .dwtag  DW_TAG_variable, DW_AT_name("pCtrlHandle")
     892                      .dwattr $C$DW$84, DW_AT_TI_symbol_name("_pCtrlHandle")
     893                      .dwattr $C$DW$84, DW_AT_type(*$C$DW$T$145)
     894                      .dwattr $C$DW$84, DW_AT_location[DW_OP_bregx 0x24 4]
     895              $C$DW$85        .dwtag  DW_TAG_variable, DW_AT_name("status")
     896                      .dwattr $C$DW$85, DW_AT_TI_symbol_name("_status")
     897                      .dwattr $C$DW$85, DW_AT_type(*$C$DW$T$106)
     898                      .dwattr $C$DW$85, DW_AT_location[DW_OP_bregx 0x24 6]
     899 00028e EB00          MOV XAR0, dbl(*SP(#0))
         000290 85   
     900                      .dwpsn  file "../c5535_bsl_revc/ezdsp5535_v1/c55xx_csl/src/csl_cdc.c",line 380,column 2,is_stmt
     901 000291 ED00          MOV dbl(*SP(#0)), XAR3
         000293 BF   
     902 000294 ED61          MOV dbl(*AR3), XAR3
         000296 BF   
     903 000297 EB04          MOV XAR3, dbl(*SP(#2))
         000299 B5   
     904                      .dwpsn  file "../c5535_bsl_revc/ezdsp5535_v1/c55xx_csl/src/csl_cdc.c",line 381,column 2,is_stmt
     905 00029a EB08          MOV XAR3, dbl(*SP(#4))
         00029c B5   
     906                      .dwpsn  file "../c5535_bsl_revc/ezdsp5535_v1/c55xx_csl/src/csl_cdc.c",line 382,column 2,is_stmt
     907 00029d E60C          MOV #0, *SP(#6) ; |382| 
         00029f 00   
     908                      .dwpsn  file "../c5535_bsl_revc/ezdsp5535_v1/c55xx_csl/src/csl_cdc.c",line 384,column 2,is_stmt
     909 0002a0 ED00          MOV dbl(*SP(#0)), XAR3
         0002a2 BF   
     910 0002a3 90B0          MOV XAR3, AC0
     911 0002a5 0400          BCC $C$L13,AC0 == #0 ; |384| 
         0002a7 17   
     912                                                      ; branchcc occurs ; |384| 
     913                      .dwpsn  file "../c5535_bsl_revc/ezdsp5535_v1/c55xx_csl/src/csl_cdc.c",line 386,column 3,is_stmt
     914 0002a8 ED08          MOV dbl(*SP(#4)), XAR3
         0002aa BF   
     915 0002ab A46D          MOV *AR3(#20), T0 ; |386| 
         0002ad 0014 
     916              $C$DW$86        .dwtag  DW_TAG_TI_branch
     917                      .dwattr $C$DW$86, DW_AT_low_pc(0x00)
     918                      .dwattr $C$DW$86, DW_AT_name("_USB_disconnectDev")
TMS320C55x Assembler PC v4.4.1 Tue Sep 18 04:50:04 2018

Tools Copyright (c) 1996-2012 Texas Instruments Incorporated
csl_cdc.asm                                                          PAGE   21

     919                      .dwattr $C$DW$86, DW_AT_TI_call
     920 0002af 6C00          CALL #_USB_disconnectDev ; |386| 
         0002b1 0000!
     921                                                      ; call occurs [#_USB_disconnectDev] ; |386| 
     922 0002b3 C40C          MOV T0, *SP(#6) ; |386| 
     923                      .dwpsn  file "../c5535_bsl_revc/ezdsp5535_v1/c55xx_csl/src/csl_cdc.c",line 387,column 3,is_stmt
     924 0002b5 ED00          MOV dbl(*SP(#0)), XAR3
         0002b7 BF   
     925 0002b8 3C00          MOV #0, AC0 ; |387| 
     926 0002ba EB61          MOV AC0, dbl(*AR3)
         0002bc 08   
     927                      .dwpsn  file "../c5535_bsl_revc/ezdsp5535_v1/c55xx_csl/src/csl_cdc.c",line 388,column 2,is_stmt
     928 0002bd 4A03          B $C$L14  ; |388| 
     929                                                      ; branch occurs ; |388| 
     930 0002bf       $C$L13:    
     931                      .dwpsn  file "../c5535_bsl_revc/ezdsp5535_v1/c55xx_csl/src/csl_cdc.c",line 391,column 3,is_stmt
     932 0002bf E60C          MOV #-5, *SP(#6) ; |391| 
         0002c1 FB   
     933 0002c2       $C$L14:    
     934                      .dwpsn  file "../c5535_bsl_revc/ezdsp5535_v1/c55xx_csl/src/csl_cdc.c",line 394,column 2,is_stmt
     935 0002c2 A40C          MOV *SP(#6), T0 ; |394| 
     936                      .dwpsn  file "../c5535_bsl_revc/ezdsp5535_v1/c55xx_csl/src/csl_cdc.c",line 395,column 1,is_stmt
     937 0002c4 4E07          AADD #7, SP
     938                      .dwcfi  cfa_offset, 1
     939              $C$DW$87        .dwtag  DW_TAG_TI_branch
     940                      .dwattr $C$DW$87, DW_AT_low_pc(0x00)
     941                      .dwattr $C$DW$87, DW_AT_TI_return
     942 0002c6 4804          RET
     943                                                      ; return occurs
     944                      .dwattr $C$DW$80, DW_AT_TI_end_file("../c5535_bsl_revc/ezdsp5535_v1/c55xx_csl/src/csl_cdc.c")
     945                      .dwattr $C$DW$80, DW_AT_TI_end_line(0x18b)
     946                      .dwattr $C$DW$80, DW_AT_TI_end_column(0x01)
     947                      .dwendentry
     948                      .dwendtag $C$DW$80
     949              
     950 0002c8               .sect   ".text"
     951                      .align 4
     952                      .global _CDC_GetactivityFlagStatus
     953              
     954              $C$DW$88        .dwtag  DW_TAG_subprogram, DW_AT_name("CDC_GetactivityFlagStatus")
     955                      .dwattr $C$DW$88, DW_AT_low_pc(_CDC_GetactivityFlagStatus)
     956                      .dwattr $C$DW$88, DW_AT_high_pc(0x00)
     957                      .dwattr $C$DW$88, DW_AT_TI_symbol_name("_CDC_GetactivityFlagStatus")
     958                      .dwattr $C$DW$88, DW_AT_external
     959                      .dwattr $C$DW$88, DW_AT_type(*$C$DW$T$20)
     960                      .dwattr $C$DW$88, DW_AT_TI_begin_file("../c5535_bsl_revc/ezdsp5535_v1/c55xx_csl/src/csl_cdc.c")
     961                      .dwattr $C$DW$88, DW_AT_TI_begin_line(0x1ba)
     962                      .dwattr $C$DW$88, DW_AT_TI_begin_column(0x08)
     963                      .dwattr $C$DW$88, DW_AT_TI_max_frame_size(0x08)
     964                      .dwpsn  file "../c5535_bsl_revc/ezdsp5535_v1/c55xx_csl/src/csl_cdc.c",line 443,column 1,is_stmt,addre
     965              
     966                      .dwfde $C$DW$CIE, _CDC_GetactivityFlagStatus
     967              $C$DW$89        .dwtag  DW_TAG_formal_parameter, DW_AT_name("pCDC")
     968                      .dwattr $C$DW$89, DW_AT_TI_symbol_name("_pCDC")
     969                      .dwattr $C$DW$89, DW_AT_type(*$C$DW$T$3)
TMS320C55x Assembler PC v4.4.1 Tue Sep 18 04:50:04 2018

Tools Copyright (c) 1996-2012 Texas Instruments Incorporated
csl_cdc.asm                                                          PAGE   22

     970                      .dwattr $C$DW$89, DW_AT_location[DW_OP_reg17]
     971              ;*******************************************************************************
     972              ;* FUNCTION NAME: CDC_GetactivityFlagStatus                                    *
     973              ;*                                                                             *
     974              ;*   Function Uses Regs : T0,AR0,XAR0,AR3,XAR3,SP,M40,SATA,SATD,RDM,FRCT,SMUL  *
     975              ;*   Stack Frame        : Compact (No Frame Pointer, w/ debug)                 *
     976              ;*   Total Frame Size   : 8 words                                              *
     977              ;*                        (2 return address/alignment)                         *
     978              ;*                        (6 local values)                                     *
     979              ;*   Min System Stack   : 1 word                                               *
     980              ;*******************************************************************************
     981 0002c8       _CDC_GetactivityFlagStatus:
     982                      .dwcfi  cfa_offset, 1
     983                      .dwcfi  save_reg_to_mem, 91, -1
     984 0002c8 4EF9          AADD #-7, SP
     985                      .dwcfi  cfa_offset, 8
     986              $C$DW$90        .dwtag  DW_TAG_variable, DW_AT_name("pCDC")
     987                      .dwattr $C$DW$90, DW_AT_TI_symbol_name("_pCDC")
     988                      .dwattr $C$DW$90, DW_AT_type(*$C$DW$T$3)
     989                      .dwattr $C$DW$90, DW_AT_location[DW_OP_bregx 0x24 0]
     990              $C$DW$91        .dwtag  DW_TAG_variable, DW_AT_name("pCdcClassHdl")
     991                      .dwattr $C$DW$91, DW_AT_TI_symbol_name("_pCdcClassHdl")
     992                      .dwattr $C$DW$91, DW_AT_type(*$C$DW$T$144)
     993                      .dwattr $C$DW$91, DW_AT_location[DW_OP_bregx 0x24 2]
     994              $C$DW$92        .dwtag  DW_TAG_variable, DW_AT_name("pCdcHandle")
     995                      .dwattr $C$DW$92, DW_AT_TI_symbol_name("_pCdcHandle")
     996                      .dwattr $C$DW$92, DW_AT_type(*$C$DW$T$149)
     997                      .dwattr $C$DW$92, DW_AT_location[DW_OP_bregx 0x24 4]
     998 0002ca EB00          MOV XAR0, dbl(*SP(#0))
         0002cc 85   
     999                      .dwpsn  file "../c5535_bsl_revc/ezdsp5535_v1/c55xx_csl/src/csl_cdc.c",line 447,column 4,is_stmt
    1000 0002cd ED00          MOV dbl(*SP(#0)), XAR3
         0002cf BF   
    1001 0002d0 EB04          MOV XAR3, dbl(*SP(#2))
         0002d2 B5   
    1002                      .dwpsn  file "../c5535_bsl_revc/ezdsp5535_v1/c55xx_csl/src/csl_cdc.c",line 448,column 4,is_stmt
    1003              
    1004 0002d3 8E08          MOV XAR3, dbl(*SP(#4))
         0002d5 BB14 
         0002d7 B544 
    1005              ||      AADD #68, AR3 ; |448| 
    1006              
    1007                      .dwpsn  file "../c5535_bsl_revc/ezdsp5535_v1/c55xx_csl/src/csl_cdc.c",line 450,column 4,is_stmt
    1008 0002d9 A475          MOV *AR3(short(#2)), T0 ; |450| 
    1009                      .dwpsn  file "../c5535_bsl_revc/ezdsp5535_v1/c55xx_csl/src/csl_cdc.c",line 451,column 1,is_stmt
    1010 0002db 4E07          AADD #7, SP
    1011                      .dwcfi  cfa_offset, 1
    1012              $C$DW$93        .dwtag  DW_TAG_TI_branch
    1013                      .dwattr $C$DW$93, DW_AT_low_pc(0x00)
    1014                      .dwattr $C$DW$93, DW_AT_TI_return
    1015 0002dd 4804          RET
    1016                                                      ; return occurs
    1017                      .dwattr $C$DW$88, DW_AT_TI_end_file("../c5535_bsl_revc/ezdsp5535_v1/c55xx_csl/src/csl_cdc.c")
    1018                      .dwattr $C$DW$88, DW_AT_TI_end_line(0x1c3)
    1019                      .dwattr $C$DW$88, DW_AT_TI_end_column(0x01)
TMS320C55x Assembler PC v4.4.1 Tue Sep 18 04:50:04 2018

Tools Copyright (c) 1996-2012 Texas Instruments Incorporated
csl_cdc.asm                                                          PAGE   23

    1020                      .dwendentry
    1021                      .dwendtag $C$DW$88
    1022              
    1023 0002df               .sect   ".text"
    1024                      .align 4
    1025                      .global _CDC_GetsuspendFlagStatus
    1026              
    1027              $C$DW$94        .dwtag  DW_TAG_subprogram, DW_AT_name("CDC_GetsuspendFlagStatus")
    1028                      .dwattr $C$DW$94, DW_AT_low_pc(_CDC_GetsuspendFlagStatus)
    1029                      .dwattr $C$DW$94, DW_AT_high_pc(0x00)
    1030                      .dwattr $C$DW$94, DW_AT_TI_symbol_name("_CDC_GetsuspendFlagStatus")
    1031                      .dwattr $C$DW$94, DW_AT_external
    1032                      .dwattr $C$DW$94, DW_AT_type(*$C$DW$T$20)
    1033                      .dwattr $C$DW$94, DW_AT_TI_begin_file("../c5535_bsl_revc/ezdsp5535_v1/c55xx_csl/src/csl_cdc.c")
    1034                      .dwattr $C$DW$94, DW_AT_TI_begin_line(0x1f2)
    1035                      .dwattr $C$DW$94, DW_AT_TI_begin_column(0x08)
    1036                      .dwattr $C$DW$94, DW_AT_TI_max_frame_size(0x08)
    1037                      .dwpsn  file "../c5535_bsl_revc/ezdsp5535_v1/c55xx_csl/src/csl_cdc.c",line 499,column 1,is_stmt,addre
    1038              
    1039                      .dwfde $C$DW$CIE, _CDC_GetsuspendFlagStatus
    1040              $C$DW$95        .dwtag  DW_TAG_formal_parameter, DW_AT_name("pCDC")
    1041                      .dwattr $C$DW$95, DW_AT_TI_symbol_name("_pCDC")
    1042                      .dwattr $C$DW$95, DW_AT_type(*$C$DW$T$3)
    1043                      .dwattr $C$DW$95, DW_AT_location[DW_OP_reg17]
    1044              ;*******************************************************************************
    1045              ;* FUNCTION NAME: CDC_GetsuspendFlagStatus                                     *
    1046              ;*                                                                             *
    1047              ;*   Function Uses Regs : T0,AR0,XAR0,AR3,XAR3,SP,M40,SATA,SATD,RDM,FRCT,SMUL  *
    1048              ;*   Stack Frame        : Compact (No Frame Pointer, w/ debug)                 *
    1049              ;*   Total Frame Size   : 8 words                                              *
    1050              ;*                        (2 return address/alignment)                         *
    1051              ;*                        (6 local values)                                     *
    1052              ;*   Min System Stack   : 1 word                                               *
    1053              ;*******************************************************************************
    1054 0002e0       _CDC_GetsuspendFlagStatus:
    1055                      .dwcfi  cfa_offset, 1
    1056                      .dwcfi  save_reg_to_mem, 91, -1
    1057 0002e0 4EF9          AADD #-7, SP
    1058                      .dwcfi  cfa_offset, 8
    1059              $C$DW$96        .dwtag  DW_TAG_variable, DW_AT_name("pCDC")
    1060                      .dwattr $C$DW$96, DW_AT_TI_symbol_name("_pCDC")
    1061                      .dwattr $C$DW$96, DW_AT_type(*$C$DW$T$3)
    1062                      .dwattr $C$DW$96, DW_AT_location[DW_OP_bregx 0x24 0]
    1063              $C$DW$97        .dwtag  DW_TAG_variable, DW_AT_name("pCdcClassHdl")
    1064                      .dwattr $C$DW$97, DW_AT_TI_symbol_name("_pCdcClassHdl")
    1065                      .dwattr $C$DW$97, DW_AT_type(*$C$DW$T$144)
    1066                      .dwattr $C$DW$97, DW_AT_location[DW_OP_bregx 0x24 2]
    1067              $C$DW$98        .dwtag  DW_TAG_variable, DW_AT_name("pCtrlHandle")
    1068                      .dwattr $C$DW$98, DW_AT_TI_symbol_name("_pCtrlHandle")
    1069                      .dwattr $C$DW$98, DW_AT_type(*$C$DW$T$145)
    1070                      .dwattr $C$DW$98, DW_AT_location[DW_OP_bregx 0x24 4]
    1071 0002e2 EB00          MOV XAR0, dbl(*SP(#0))
         0002e4 85   
    1072                      .dwpsn  file "../c5535_bsl_revc/ezdsp5535_v1/c55xx_csl/src/csl_cdc.c",line 503,column 4,is_stmt
    1073 0002e5 ED00          MOV dbl(*SP(#0)), XAR3
TMS320C55x Assembler PC v4.4.1 Tue Sep 18 04:50:04 2018

Tools Copyright (c) 1996-2012 Texas Instruments Incorporated
csl_cdc.asm                                                          PAGE   24

         0002e7 BF   
    1074 0002e8 EB04          MOV XAR3, dbl(*SP(#2))
         0002ea B5   
    1075                      .dwpsn  file "../c5535_bsl_revc/ezdsp5535_v1/c55xx_csl/src/csl_cdc.c",line 504,column 4,is_stmt
    1076 0002eb EB08          MOV XAR3, dbl(*SP(#4))
         0002ed B5   
    1077                      .dwpsn  file "../c5535_bsl_revc/ezdsp5535_v1/c55xx_csl/src/csl_cdc.c",line 506,column 4,is_stmt
    1078 0002ee A46D          MOV *AR3(#42), T0 ; |506| 
         0002f0 002A 
    1079                      .dwpsn  file "../c5535_bsl_revc/ezdsp5535_v1/c55xx_csl/src/csl_cdc.c",line 507,column 1,is_stmt
    1080 0002f2 4E07          AADD #7, SP
    1081                      .dwcfi  cfa_offset, 1
    1082              $C$DW$99        .dwtag  DW_TAG_TI_branch
    1083                      .dwattr $C$DW$99, DW_AT_low_pc(0x00)
    1084                      .dwattr $C$DW$99, DW_AT_TI_return
    1085 0002f4 4804          RET
    1086                                                      ; return occurs
    1087                      .dwattr $C$DW$94, DW_AT_TI_end_file("../c5535_bsl_revc/ezdsp5535_v1/c55xx_csl/src/csl_cdc.c")
    1088                      .dwattr $C$DW$94, DW_AT_TI_end_line(0x1fb)
    1089                      .dwattr $C$DW$94, DW_AT_TI_end_column(0x01)
    1090                      .dwendentry
    1091                      .dwendtag $C$DW$94
    1092              
    1093 0002f6               .sect   ".text"
    1094                      .align 4
    1095                      .global _CDC_eventHandler
    1096              
    1097              $C$DW$100       .dwtag  DW_TAG_subprogram, DW_AT_name("CDC_eventHandler")
    1098                      .dwattr $C$DW$100, DW_AT_low_pc(_CDC_eventHandler)
    1099                      .dwattr $C$DW$100, DW_AT_high_pc(0x00)
    1100                      .dwattr $C$DW$100, DW_AT_TI_symbol_name("_CDC_eventHandler")
    1101                      .dwattr $C$DW$100, DW_AT_external
    1102                      .dwattr $C$DW$100, DW_AT_type(*$C$DW$T$133)
    1103                      .dwattr $C$DW$100, DW_AT_TI_begin_file("../c5535_bsl_revc/ezdsp5535_v1/c55xx_csl/src/csl_cdc.c")
    1104                      .dwattr $C$DW$100, DW_AT_TI_begin_line(0x237)
    1105                      .dwattr $C$DW$100, DW_AT_TI_begin_column(0x13)
    1106                      .dwattr $C$DW$100, DW_AT_TI_max_frame_size(0x24)
    1107                      .dwpsn  file "../c5535_bsl_revc/ezdsp5535_v1/c55xx_csl/src/csl_cdc.c",line 568,column 1,is_stmt,addre
    1108              
    1109                      .dwfde $C$DW$CIE, _CDC_eventHandler
    1110              $C$DW$101       .dwtag  DW_TAG_formal_parameter, DW_AT_name("pContext")
    1111                      .dwattr $C$DW$101, DW_AT_TI_symbol_name("_pContext")
    1112                      .dwattr $C$DW$101, DW_AT_type(*$C$DW$T$136)
    1113                      .dwattr $C$DW$101, DW_AT_location[DW_OP_reg17]
    1114              $C$DW$102       .dwtag  DW_TAG_formal_parameter, DW_AT_name("hCdcClass")
    1115                      .dwattr $C$DW$102, DW_AT_TI_symbol_name("_hCdcClass")
    1116                      .dwattr $C$DW$102, DW_AT_type(*$C$DW$T$138)
    1117                      .dwattr $C$DW$102, DW_AT_location[DW_OP_reg19]
    1118              ;*******************************************************************************
    1119              ;* FUNCTION NAME: CDC_eventHandler                                             *
    1120              ;*                                                                             *
    1121              ;*   Function Uses Regs : AC0,AC0,AC1,AC1,T0,T1,AR0,XAR0,AR1,XAR1,AR2,XAR2,AR3,*
    1122              ;*                        XAR3,SP,CARRY,TC1,M40,SATA,SATD,RDM,FRCT,SMUL        *
    1123              ;*   Stack Frame        : Compact (No Frame Pointer, w/ debug)                 *
    1124              ;*   Total Frame Size   : 36 words                                             *
TMS320C55x Assembler PC v4.4.1 Tue Sep 18 04:50:04 2018

Tools Copyright (c) 1996-2012 Texas Instruments Incorporated
csl_cdc.asm                                                          PAGE   25

    1125              ;*                        (2 return address/alignment)                         *
    1126              ;*                        (34 local values)                                    *
    1127              ;*   Min System Stack   : 1 word                                               *
    1128              ;*******************************************************************************
    1129 0002f8       _CDC_eventHandler:
    1130                      .dwcfi  cfa_offset, 1
    1131                      .dwcfi  save_reg_to_mem, 91, -1
    1132 0002f8 4EDD          AADD #-35, SP
    1133                      .dwcfi  cfa_offset, 36
    1134              $C$DW$103       .dwtag  DW_TAG_variable, DW_AT_name("pContext")
    1135                      .dwattr $C$DW$103, DW_AT_TI_symbol_name("_pContext")
    1136                      .dwattr $C$DW$103, DW_AT_type(*$C$DW$T$136)
    1137                      .dwattr $C$DW$103, DW_AT_location[DW_OP_bregx 0x24 0]
    1138              $C$DW$104       .dwtag  DW_TAG_variable, DW_AT_name("hCdcClass")
    1139                      .dwattr $C$DW$104, DW_AT_TI_symbol_name("_hCdcClass")
    1140                      .dwattr $C$DW$104, DW_AT_type(*$C$DW$T$138)
    1141                      .dwattr $C$DW$104, DW_AT_location[DW_OP_bregx 0x24 2]
    1142              $C$DW$105       .dwtag  DW_TAG_variable, DW_AT_name("txBuf")
    1143                      .dwattr $C$DW$105, DW_AT_TI_symbol_name("_txBuf")
    1144                      .dwattr $C$DW$105, DW_AT_type(*$C$DW$T$179)
    1145                      .dwattr $C$DW$105, DW_AT_location[DW_OP_bregx 0x24 4]
    1146              $C$DW$106       .dwtag  DW_TAG_variable, DW_AT_name("saveIndex")
    1147                      .dwattr $C$DW$106, DW_AT_TI_symbol_name("_saveIndex")
    1148                      .dwattr $C$DW$106, DW_AT_type(*$C$DW$T$20)
    1149                      .dwattr $C$DW$106, DW_AT_location[DW_OP_bregx 0x24 24]
    1150              $C$DW$107       .dwtag  DW_TAG_variable, DW_AT_name("usbSetup")
    1151                      .dwattr $C$DW$107, DW_AT_TI_symbol_name("_usbSetup")
    1152                      .dwattr $C$DW$107, DW_AT_type(*$C$DW$T$76)
    1153                      .dwattr $C$DW$107, DW_AT_location[DW_OP_bregx 0x24 25]
    1154              $C$DW$108       .dwtag  DW_TAG_variable, DW_AT_name("pCdcObj")
    1155                      .dwattr $C$DW$108, DW_AT_TI_symbol_name("_pCdcObj")
    1156                      .dwattr $C$DW$108, DW_AT_type(*$C$DW$T$149)
    1157                      .dwattr $C$DW$108, DW_AT_location[DW_OP_bregx 0x24 32]
    1158 0002fa EB04          MOV XAR1, dbl(*SP(#2))
         0002fc 95   
    1159 0002fd EB00          MOV XAR0, dbl(*SP(#0))
         0002ff 85   
    1160                      .dwpsn  file "../c5535_bsl_revc/ezdsp5535_v1/c55xx_csl/src/csl_cdc.c",line 571,column 17,is_stmt
    1161 000300 ED04          MOV dbl(*SP(#2)), XAR3
         000302 BF   
    1162              
    1163 000303 8E40          MOV XAR3, dbl(*SP(#32))
         000305 BB14 
         000307 B544 
    1164              ||      AADD #68, AR3 ; |571| 
    1165              
    1166                      .dwpsn  file "../c5535_bsl_revc/ezdsp5535_v1/c55xx_csl/src/csl_cdc.c",line 573,column 2,is_stmt
    1167 000309 7604          MOV #1038, T0 ; |573| 
         00030b 0E48 
    1168 00030d AB31          MOV *(#_usbRegisters), AR3 ; |573| 
         00030f 0000 
         000311 00!  
    1169 000312 A96B          MOV port(*AR3(T0)), AR1 ; |573| 
         000314 99   
    1170 000315 C930          MOV AR1, *SP(#24) ; |573| 
TMS320C55x Assembler PC v4.4.1 Tue Sep 18 04:50:04 2018

Tools Copyright (c) 1996-2012 Texas Instruments Incorporated
csl_cdc.asm                                                          PAGE   26

    1171                      .dwpsn  file "../c5535_bsl_revc/ezdsp5535_v1/c55xx_csl/src/csl_cdc.c",line 574,column 3,is_stmt
    1172 000317 A96B          MOV port(*AR3(T0)), AR1 ; |574| 
         000319 99   
    1173 00031a 7DFF          AND #0xfff0, AR1, AC0 ; |574| 
         00031c F009 
    1174 00031e C06B          MOV AC0, port(*AR3(T0)) ; |574| 
         000320 9A   
    1175                      .dwpsn  file "../c5535_bsl_revc/ezdsp5535_v1/c55xx_csl/src/csl_cdc.c",line 577,column 2,is_stmt
    1176 000321 0602          B $C$L28  ; |577| 
         000323 3F   
    1177                                                      ; branch occurs ; |577| 
    1178 000324       $C$L15:    
    1179                      .dwpsn  file "../c5535_bsl_revc/ezdsp5535_v1/c55xx_csl/src/csl_cdc.c",line 581,column 4,is_stmt
    1180 000324 7604          MOV #1042, T0 ; |581| 
         000326 1248 
    1181 000328 AB31          MOV *(#_usbRegisters), AR3 ; |581| 
         00032a 0000 
         00032c 00!  
    1182 00032d A96B          MOV port(*AR3(T0)), AR1 ; |581| 
         00032f 99   
    1183 000330 EC02          BCLR @#1, AR1 ; |581| 
         000332 92   
    1184 000333 EC02          BSET @#1, AR1 ; |581| 
         000335 90   
    1185 000336 C96B          MOV AR1, port(*AR3(T0)) ; |581| 
         000338 9A   
    1186                      .dwpsn  file "../c5535_bsl_revc/ezdsp5535_v1/c55xx_csl/src/csl_cdc.c",line 583,column 4,is_stmt
    1187 000339 AB31          MOV *(#_usbRegisters), AR3 ; |583| 
         00033b 0000 
         00033d 00!  
    1188 00033e A96B          MOV port(*AR3(T0)), AR1 ; |583| 
         000340 99   
    1189 000341 EC06          BCLR @#3, AR1 ; |583| 
         000343 92   
    1190 000344 EC06          BSET @#3, AR1 ; |583| 
         000346 90   
    1191 000347 C96B          MOV AR1, port(*AR3(T0)) ; |583| 
         000349 9A   
    1192                      .dwpsn  file "../c5535_bsl_revc/ezdsp5535_v1/c55xx_csl/src/csl_cdc.c",line 585,column 9,is_stmt
    1193 00034a 0602          B $C$L30  ; |585| 
         00034c 93   
    1194                                                      ; branch occurs ; |585| 
    1195 00034d       $C$L16:    
    1196                      .dwpsn  file "../c5535_bsl_revc/ezdsp5535_v1/c55xx_csl/src/csl_cdc.c",line 589,column 4,is_stmt
    1197 00034d 7604          MOV #1042, T0 ; |589| 
         00034f 1248 
    1198 000351 AB31          MOV *(#_usbRegisters), AR3 ; |589| 
         000353 0000 
         000355 00!  
    1199 000356 A96B          MOV port(*AR3(T0)), AR1 ; |589| 
         000358 99   
    1200 000359 EC02          BCLR @#1, AR1 ; |589| 
         00035b 92   
    1201 00035c EC02          BSET @#1, AR1 ; |589| 
         00035e 90   
TMS320C55x Assembler PC v4.4.1 Tue Sep 18 04:50:04 2018

Tools Copyright (c) 1996-2012 Texas Instruments Incorporated
csl_cdc.asm                                                          PAGE   27

    1202 00035f C96B          MOV AR1, port(*AR3(T0)) ; |589| 
         000361 9A   
    1203                      .dwpsn  file "../c5535_bsl_revc/ezdsp5535_v1/c55xx_csl/src/csl_cdc.c",line 591,column 4,is_stmt
    1204 000362 AB31          MOV *(#_usbRegisters), AR3 ; |591| 
         000364 0000 
         000366 00!  
    1205 000367 A96B          MOV port(*AR3(T0)), AR1 ; |591| 
         000369 99   
    1206 00036a EC06          BCLR @#3, AR1 ; |591| 
         00036c 92   
    1207 00036d EC06          BSET @#3, AR1 ; |591| 
         00036f 90   
    1208 000370 C96B          MOV AR1, port(*AR3(T0)) ; |591| 
         000372 9A   
    1209                      .dwpsn  file "../c5535_bsl_revc/ezdsp5535_v1/c55xx_csl/src/csl_cdc.c",line 593,column 9,is_stmt
    1210 000373 0602          B $C$L30  ; |593| 
         000375 6A   
    1211                                                      ; branch occurs ; |593| 
    1212 000376       $C$L17:    
    1213                      .dwpsn  file "../c5535_bsl_revc/ezdsp5535_v1/c55xx_csl/src/csl_cdc.c",line 597,column 4,is_stmt
    1214 000376 7604          MOV #1042, T0 ; |597| 
         000378 1248 
    1215 00037a AB31          MOV *(#_usbRegisters), AR3 ; |597| 
         00037c 0000 
         00037e 00!  
    1216 00037f A96B          MOV port(*AR3(T0)), AR1 ; |597| 
         000381 99   
    1217 000382 EC02          BCLR @#1, AR1 ; |597| 
         000384 92   
    1218 000385 EC02          BSET @#1, AR1 ; |597| 
         000387 90   
    1219 000388 C96B          MOV AR1, port(*AR3(T0)) ; |597| 
         00038a 9A   
    1220                      .dwpsn  file "../c5535_bsl_revc/ezdsp5535_v1/c55xx_csl/src/csl_cdc.c",line 599,column 4,is_stmt
    1221 00038b AB31          MOV *(#_usbRegisters), AR3 ; |599| 
         00038d 0000 
         00038f 00!  
    1222 000390 A96B          MOV port(*AR3(T0)), AR1 ; |599| 
         000392 99   
    1223 000393 EC06          BCLR @#3, AR1 ; |599| 
         000395 92   
    1224 000396 EC06          BSET @#3, AR1 ; |599| 
         000398 90   
    1225 000399 C96B          MOV AR1, port(*AR3(T0)) ; |599| 
         00039b 9A   
    1226                      .dwpsn  file "../c5535_bsl_revc/ezdsp5535_v1/c55xx_csl/src/csl_cdc.c",line 601,column 9,is_stmt
    1227 00039c 0602          B $C$L30  ; |601| 
         00039e 41   
    1228                                                      ; branch occurs ; |601| 
    1229 00039f       $C$L18:    
    1230                      .dwpsn  file "../c5535_bsl_revc/ezdsp5535_v1/c55xx_csl/src/csl_cdc.c",line 605,column 4,is_stmt
    1231 00039f 7604          MOV #1042, T0 ; |605| 
         0003a1 1248 
    1232 0003a3 AB31          MOV *(#_usbRegisters), AR3 ; |605| 
         0003a5 0000 
TMS320C55x Assembler PC v4.4.1 Tue Sep 18 04:50:04 2018

Tools Copyright (c) 1996-2012 Texas Instruments Incorporated
csl_cdc.asm                                                          PAGE   28

         0003a7 00!  
    1233 0003a8 A96B          MOV port(*AR3(T0)), AR1 ; |605| 
         0003aa 99   
    1234 0003ab EC02          BCLR @#1, AR1 ; |605| 
         0003ad 92   
    1235 0003ae EC02          BSET @#1, AR1 ; |605| 
         0003b0 90   
    1236 0003b1 C96B          MOV AR1, port(*AR3(T0)) ; |605| 
         0003b3 9A   
    1237                      .dwpsn  file "../c5535_bsl_revc/ezdsp5535_v1/c55xx_csl/src/csl_cdc.c",line 607,column 4,is_stmt
    1238 0003b4 AB31          MOV *(#_usbRegisters), AR3 ; |607| 
         0003b6 0000 
         0003b8 00!  
    1239 0003b9 A96B          MOV port(*AR3(T0)), AR1 ; |607| 
         0003bb 99   
    1240 0003bc EC06          BCLR @#3, AR1 ; |607| 
         0003be 92   
    1241 0003bf EC06          BSET @#3, AR1 ; |607| 
         0003c1 90   
    1242 0003c2 C96B          MOV AR1, port(*AR3(T0)) ; |607| 
         0003c4 9A   
    1243                      .dwpsn  file "../c5535_bsl_revc/ezdsp5535_v1/c55xx_csl/src/csl_cdc.c",line 609,column 9,is_stmt
    1244 0003c5 0602          B $C$L30  ; |609| 
         0003c7 18   
    1245                                                      ; branch occurs ; |609| 
    1246 0003c8       $C$L19:    
    1247                      .dwpsn  file "../c5535_bsl_revc/ezdsp5535_v1/c55xx_csl/src/csl_cdc.c",line 613,column 4,is_stmt
    1248 0003c8 7604          MOV #1042, T0 ; |613| 
         0003ca 1248 
    1249 0003cc AB31          MOV *(#_usbRegisters), AR3 ; |613| 
         0003ce 0000 
         0003d0 00!  
    1250 0003d1 A96B          MOV port(*AR3(T0)), AR1 ; |613| 
         0003d3 99   
    1251 0003d4 EC02          BCLR @#1, AR1 ; |613| 
         0003d6 92   
    1252 0003d7 EC02          BSET @#1, AR1 ; |613| 
         0003d9 90   
    1253 0003da C96B          MOV AR1, port(*AR3(T0)) ; |613| 
         0003dc 9A   
    1254                      .dwpsn  file "../c5535_bsl_revc/ezdsp5535_v1/c55xx_csl/src/csl_cdc.c",line 615,column 4,is_stmt
    1255 0003dd AB31          MOV *(#_usbRegisters), AR3 ; |615| 
         0003df 0000 
         0003e1 00!  
    1256 0003e2 A96B          MOV port(*AR3(T0)), AR1 ; |615| 
         0003e4 99   
    1257 0003e5 EC06          BCLR @#3, AR1 ; |615| 
         0003e7 92   
    1258 0003e8 EC06          BSET @#3, AR1 ; |615| 
         0003ea 90   
    1259 0003eb C96B          MOV AR1, port(*AR3(T0)) ; |615| 
         0003ed 9A   
    1260                      .dwpsn  file "../c5535_bsl_revc/ezdsp5535_v1/c55xx_csl/src/csl_cdc.c",line 617,column 9,is_stmt
    1261 0003ee 0601          B $C$L30  ; |617| 
         0003f0 EF   
TMS320C55x Assembler PC v4.4.1 Tue Sep 18 04:50:04 2018

Tools Copyright (c) 1996-2012 Texas Instruments Incorporated
csl_cdc.asm                                                          PAGE   29

    1262                                                      ; branch occurs ; |617| 
    1263 0003f1       $C$L20:    
    1264                      .dwpsn  file "../c5535_bsl_revc/ezdsp5535_v1/c55xx_csl/src/csl_cdc.c",line 621,column 4,is_stmt
    1265 0003f1 7604          MOV #1042, T0 ; |621| 
         0003f3 1248 
    1266 0003f5 AB31          MOV *(#_usbRegisters), AR3 ; |621| 
         0003f7 0000 
         0003f9 00!  
    1267 0003fa A96B          MOV port(*AR3(T0)), AR1 ; |621| 
         0003fc 99   
    1268              
    1269 0003fd 1801          AND #0x0001, AR1, AR1 ; |621| 
         0003ff 99   
    1270 000400 3D1A  ||      MOV #1, AR2
    1271              
    1272 000402 129C          CMPU AR1 != AR2, TC1 ; |621| 
         000404 A4   
    1273 000405 6664          BCC $C$L21,TC1 ; |621| 
    1274                                                      ; branchcc occurs ; |621| 
    1275                      .dwpsn  file "../c5535_bsl_revc/ezdsp5535_v1/c55xx_csl/src/csl_cdc.c",line 625,column 5,is_stmt
    1276 000407 A96B          MOV port(*AR3(T0)), AR1 ; |625| 
         000409 99   
    1277 00040a EC0C          BCLR @#6, AR1 ; |625| 
         00040c 92   
    1278 00040d EC0C          BSET @#6, AR1 ; |625| 
         00040f 90   
    1279 000410 C96B          MOV AR1, port(*AR3(T0)) ; |625| 
         000412 9A   
    1280 000413       $C$L21:    
    1281                      .dwpsn  file "../c5535_bsl_revc/ezdsp5535_v1/c55xx_csl/src/csl_cdc.c",line 629,column 4,is_stmt
    1282 000413 AB31          MOV *(#_usbRegisters), AR3 ; |629| 
         000415 0000 
         000417 00!  
    1283 000418 A96B          MOV port(*AR3(T0)), AR1 ; |629| 
         00041a 99   
    1284 00041b EC02          BCLR @#1, AR1 ; |629| 
         00041d 92   
    1285 00041e EC02          BSET @#1, AR1 ; |629| 
         000420 90   
    1286 000421 C96B          MOV AR1, port(*AR3(T0)) ; |629| 
         000423 9A   
    1287                      .dwpsn  file "../c5535_bsl_revc/ezdsp5535_v1/c55xx_csl/src/csl_cdc.c",line 631,column 4,is_stmt
    1288 000424 AB31          MOV *(#_usbRegisters), AR3 ; |631| 
         000426 0000 
         000428 00!  
    1289 000429 A96B          MOV port(*AR3(T0)), AR1 ; |631| 
         00042b 99   
    1290 00042c EC06          BCLR @#3, AR1 ; |631| 
         00042e 92   
    1291 00042f EC06          BSET @#3, AR1 ; |631| 
         000431 90   
    1292 000432 C96B          MOV AR1, port(*AR3(T0)) ; |631| 
         000434 9A   
    1293                      .dwpsn  file "../c5535_bsl_revc/ezdsp5535_v1/c55xx_csl/src/csl_cdc.c",line 635,column 11,is_stmt
    1294 000435 AB31          MOV *(#_usbRegisters), AR3 ; |635| 
TMS320C55x Assembler PC v4.4.1 Tue Sep 18 04:50:04 2018

Tools Copyright (c) 1996-2012 Texas Instruments Incorporated
csl_cdc.asm                                                          PAGE   30

         000437 0000 
         000439 00!  
    1295 00043a A96B          MOV port(*AR3(T0)), AR1 ; |635| 
         00043c 99   
    1296 00043d 1801          AND #0x0001, AR1, AR1 ; |635| 
         00043f 99   
    1297 000440 1290          CMPU AR1 == AR2, TC1 ; |635| 
         000442 A4   
    1298 000443 6664          BCC $C$L23,TC1 ; |635| 
    1299                                                      ; branchcc occurs ; |635| 
    1300 000445       $C$L22:    
    1301 000445       $C$DW$L$_CDC_eventHandler$11$B:
    1302 000445 A96B          MOV port(*AR3(T0)), AR1 ; |635| 
         000447 99   
    1303 000448 1801          AND #0x0001, AR1, AR1 ; |635| 
         00044a 99   
    1304 00044b 129C          CMPU AR1 != AR2, TC1 ; |635| 
         00044d A4   
    1305 00044e 0464          BCC $C$L22,TC1 ; |635| 
         000450 F4   
    1306                                                      ; branchcc occurs ; |635| 
    1307 000451       $C$DW$L$_CDC_eventHandler$11$E:
    1308 000451       $C$L23:    
    1309                      .dwpsn  file "../c5535_bsl_revc/ezdsp5535_v1/c55xx_csl/src/csl_cdc.c",line 638,column 4,is_stmt
    1310              
    1311 000454 3D04          MOV #0, T0
    1312 000451 EC32  ||      AMAR *SP(#25), XAR0
         000453 8E   
    1313              
    1314              $C$DW$109       .dwtag  DW_TAG_TI_branch
    1315                      .dwattr $C$DW$109, DW_AT_low_pc(0x00)
    1316                      .dwattr $C$DW$109, DW_AT_name("_USB_getSetupPacket")
    1317                      .dwattr $C$DW$109, DW_AT_TI_call
    1318              
    1319 000456 6C00          CALL #_USB_getSetupPacket ; |638| 
         000458 0000!
    1320 00045a 3D15  ||      MOV #1, T1
    1321              
    1322                                                      ; call occurs [#_USB_getSetupPacket] ; |638| 
    1323                      .dwpsn  file "../c5535_bsl_revc/ezdsp5535_v1/c55xx_csl/src/csl_cdc.c",line 639,column 4,is_stmt
    1324 00045c 7604          MOV #1042, T0 ; |639| 
         00045e 1248 
    1325 000460 AB31          MOV *(#_usbRegisters), AR3 ; |639| 
         000462 0000 
         000464 00!  
    1326 000465 A96B          MOV port(*AR3(T0)), AR1 ; |639| 
         000467 99   
    1327              
    1328 000468 1801          AND #0x0001, AR1, AR1 ; |639| 
         00046a 99   
    1329 00046b 3D1A  ||      MOV #1, AR2
    1330              
    1331 00046d 129C          CMPU AR1 != AR2, TC1 ; |639| 
         00046f A4   
    1332 000470 6664          BCC $C$L24,TC1 ; |639| 
TMS320C55x Assembler PC v4.4.1 Tue Sep 18 04:50:04 2018

Tools Copyright (c) 1996-2012 Texas Instruments Incorporated
csl_cdc.asm                                                          PAGE   31

    1333                                                      ; branchcc occurs ; |639| 
    1334                      .dwpsn  file "../c5535_bsl_revc/ezdsp5535_v1/c55xx_csl/src/csl_cdc.c",line 643,column 5,is_stmt
    1335 000472 A96B          MOV port(*AR3(T0)), AR1 ; |643| 
         000474 99   
    1336 000475 EC0C          BCLR @#6, AR1 ; |643| 
         000477 92   
    1337 000478 EC0C          BSET @#6, AR1 ; |643| 
         00047a 90   
    1338 00047b C96B          MOV AR1, port(*AR3(T0)) ; |643| 
         00047d 9A   
    1339 00047e       $C$L24:    
    1340                      .dwpsn  file "../c5535_bsl_revc/ezdsp5535_v1/c55xx_csl/src/csl_cdc.c",line 647,column 4,is_stmt
    1341 00047e ED40          MOV dbl(*SP(#32)), XAR3
         000480 BF   
    1342 000481 A034          MOV *SP(#26), AC0 ; |647| 
    1343 000483 A136          MOV *SP(#27), AC1 ; |647| 
    1344 000485 1011          OR AC1 << #8, AC0 ; |647| 
         000487 08   
    1345 000488 7DFF          AND #0xffff, AC0, AC0 ; |647| 
         00048a FF00 
    1346 00048c EB6D          MOV AC0, dbl(*AR3(#84)) ; |647| 
         00048e 0800 
         000490 54   
    1347                      .dwpsn  file "../c5535_bsl_revc/ezdsp5535_v1/c55xx_csl/src/csl_cdc.c",line 648,column 4,is_stmt
    1348 000491 ED40          MOV dbl(*SP(#32)), XAR3
         000493 BF   
    1349 000494 A938          MOV *SP(#28), AR1 ; |648| 
    1350 000496 5290          MOV AR1, HI(AC0) ; |648| 
    1351 000498 ED6D          MOV dbl(*AR3(#84)), AC1 ; |648| 
         00049a 1800 
         00049c 54   
    1352 00049d 2A10          OR AC1, AC0 ; |648| 
    1353 00049f EB6D          MOV AC0, dbl(*AR3(#84)) ; |648| 
         0004a1 0800 
         0004a3 54   
    1354                      .dwpsn  file "../c5535_bsl_revc/ezdsp5535_v1/c55xx_csl/src/csl_cdc.c",line 649,column 4,is_stmt
    1355 0004a4 ED40          MOV dbl(*SP(#32)), XAR3
         0004a6 BF   
    1356 0004a7 DF3A          MOV uns(low_byte(*SP(#29))), AR1 ; |649| 
         0004a9 93   
    1357 0004aa C96D          MOV AR1, *AR3(#86) ; |649| 
         0004ac 0056 
    1358                      .dwpsn  file "../c5535_bsl_revc/ezdsp5535_v1/c55xx_csl/src/csl_cdc.c",line 650,column 4,is_stmt
    1359 0004ae ED40          MOV dbl(*SP(#32)), XAR3
         0004b0 BF   
    1360 0004b1 DF3A          MOV uns(high_byte(*SP(#29))), AR1 ; |650| 
         0004b3 91   
    1361 0004b4 C96D          MOV AR1, *AR3(#87) ; |650| 
         0004b6 0057 
    1362                      .dwpsn  file "../c5535_bsl_revc/ezdsp5535_v1/c55xx_csl/src/csl_cdc.c",line 651,column 4,is_stmt
    1363 0004b8 ED40          MOV dbl(*SP(#32)), XAR3
         0004ba BF   
    1364 0004bb DF3C          MOV uns(low_byte(*SP(#30))), AR1 ; |651| 
         0004bd 93   
    1365 0004be C96D          MOV AR1, *AR3(#88) ; |651| 
TMS320C55x Assembler PC v4.4.1 Tue Sep 18 04:50:04 2018

Tools Copyright (c) 1996-2012 Texas Instruments Incorporated
csl_cdc.asm                                                          PAGE   32

         0004c0 0058 
    1366                      .dwpsn  file "../c5535_bsl_revc/ezdsp5535_v1/c55xx_csl/src/csl_cdc.c",line 653,column 9,is_stmt
    1367 0004c2 0601          B $C$L30  ; |653| 
         0004c4 1B   
    1368                                                      ; branch occurs ; |653| 
    1369 0004c5       $C$L25:    
    1370                      .dwpsn  file "../c5535_bsl_revc/ezdsp5535_v1/c55xx_csl/src/csl_cdc.c",line 659,column 4,is_stmt
    1371 0004c5 ED40          MOV dbl(*SP(#32)), XAR3
         0004c7 BF   
    1372 0004c8 ED6D          MOV dbl(*AR3(#84)), AC0 ; |659| 
         0004ca 0800 
         0004cc 54   
    1373 0004cd 7DFF          AND #0xffff, AC0, AC0 ; |659| 
         0004cf FF00 
    1374 0004d1 C008          MOV AC0, *SP(#4) ; |659| 
    1375                      .dwpsn  file "../c5535_bsl_revc/ezdsp5535_v1/c55xx_csl/src/csl_cdc.c",line 660,column 4,is_stmt
    1376 0004d3 ED6D          MOV dbl(*AR3(#84)), AC0 ; |660| 
         0004d5 0800 
         0004d7 54   
    1377 0004d8 BC0A          MOV HI(AC0), *SP(#5) ; |660| 
    1378                      .dwpsn  file "../c5535_bsl_revc/ezdsp5535_v1/c55xx_csl/src/csl_cdc.c",line 662,column 4,is_stmt
    1379 0004da A16D          MOV *AR3(#87), AC1 ; |662| 
         0004dc 0057 
    1380 0004de A06D          MOV *AR3(#86), AC0 ; |662| 
         0004e0 0056 
    1381 0004e2 1011          OR AC1 << #8, AC0 ; |662| 
         0004e4 08   
    1382 0004e5 C00C          MOV AC0, *SP(#6) ; |662| 
    1383                      .dwpsn  file "../c5535_bsl_revc/ezdsp5535_v1/c55xx_csl/src/csl_cdc.c",line 664,column 4,is_stmt
    1384 0004e7 A96D          MOV *AR3(#88), AR1 ; |664| 
         0004e9 0058 
    1385 0004eb C90E          MOV AR1, *SP(#7) ; |664| 
    1386                      .dwpsn  file "../c5535_bsl_revc/ezdsp5535_v1/c55xx_csl/src/csl_cdc.c",line 665,column 4,is_stmt
    1387 0004ed ED00          MOV dbl(*SP(#0)), XAR3
         0004ef BF   
    1388              
    1389 0004f0 EC08          AMAR *SP(#4), XAR1
         0004f2 9E   
    1390 0004f3 3D74  ||      MOV #7, T0
    1391              
    1392 0004f5 ED6D          MOV dbl(*AR3(#184)), XAR0
         0004f7 8F00 
         0004f9 B8   
    1393              $C$DW$110       .dwtag  DW_TAG_TI_branch
    1394                      .dwattr $C$DW$110, DW_AT_low_pc(0x00)
    1395                      .dwattr $C$DW$110, DW_AT_name("_USB_postTransaction")
    1396                      .dwattr $C$DW$110, DW_AT_TI_call
    1397              
    1398 0004fa 6C00          CALL #_USB_postTransaction ; |665| 
         0004fc 0000!
    1399 0004fe 3D15  ||      MOV #1, T1
    1400              
    1401                                                      ; call occurs [#_USB_postTransaction] ; |665| 
    1402                      .dwpsn  file "../c5535_bsl_revc/ezdsp5535_v1/c55xx_csl/src/csl_cdc.c",line 667,column 9,is_stmt
    1403 000500 0600          B $C$L30  ; |667| 
TMS320C55x Assembler PC v4.4.1 Tue Sep 18 04:50:04 2018

Tools Copyright (c) 1996-2012 Texas Instruments Incorporated
csl_cdc.asm                                                          PAGE   33

         000502 DD   
    1404                                                      ; branch occurs ; |667| 
    1405 000503       $C$L26:    
    1406                      .dwpsn  file "../c5535_bsl_revc/ezdsp5535_v1/c55xx_csl/src/csl_cdc.c",line 672,column 4,is_stmt
    1407 000503 A96D          MOV *AR3(#106), AR1 ; |672| 
         000505 006A 
    1408 000507 ED40          MOV dbl(*SP(#32)), XAR3
         000509 BF   
    1409 00050a 1803          AND #0x0003, AR1, AC0 ; |672| 
         00050c 09   
    1410 00050d C06D          MOV AC0, *AR3(#90) ; |672| 
         00050f 005A 
    1411                      .dwpsn  file "../c5535_bsl_revc/ezdsp5535_v1/c55xx_csl/src/csl_cdc.c",line 674,column 4,is_stmt
    1412 000511 7604          MOV #1042, T0 ; |674| 
         000513 1248 
    1413 000515 AB31          MOV *(#_usbRegisters), AR3 ; |674| 
         000517 0000 
         000519 00!  
    1414 00051a A96B          MOV port(*AR3(T0)), AR1 ; |674| 
         00051c 99   
    1415 00051d EC02          BCLR @#1, AR1 ; |674| 
         00051f 92   
    1416 000520 EC02          BSET @#1, AR1 ; |674| 
         000522 90   
    1417 000523 C96B          MOV AR1, port(*AR3(T0)) ; |674| 
         000525 9A   
    1418                      .dwpsn  file "../c5535_bsl_revc/ezdsp5535_v1/c55xx_csl/src/csl_cdc.c",line 676,column 4,is_stmt
    1419 000526 AB31          MOV *(#_usbRegisters), AR3 ; |676| 
         000528 0000 
         00052a 00!  
    1420 00052b A96B          MOV port(*AR3(T0)), AR1 ; |676| 
         00052d 99   
    1421 00052e EC06          BCLR @#3, AR1 ; |676| 
         000530 92   
    1422 000531 EC06          BSET @#3, AR1 ; |676| 
         000533 90   
    1423 000534 C96B          MOV AR1, port(*AR3(T0)) ; |676| 
         000536 9A   
    1424                      .dwpsn  file "../c5535_bsl_revc/ezdsp5535_v1/c55xx_csl/src/csl_cdc.c",line 678,column 9,is_stmt
    1425 000537 0600          B $C$L30  ; |678| 
         000539 A6   
    1426                                                      ; branch occurs ; |678| 
    1427 00053a       $C$L27:    
    1428                      .dwpsn  file "../c5535_bsl_revc/ezdsp5535_v1/c55xx_csl/src/csl_cdc.c",line 682,column 4,is_stmt
    1429 00053a 7604          MOV #1042, T0 ; |682| 
         00053c 1248 
    1430 00053e AB31          MOV *(#_usbRegisters), AR3 ; |682| 
         000540 0000 
         000542 00!  
    1431 000543 A96B          MOV port(*AR3(T0)), AR1 ; |682| 
         000545 99   
    1432 000546 EC02          BCLR @#1, AR1 ; |682| 
         000548 92   
    1433 000549 EC02          BSET @#1, AR1 ; |682| 
         00054b 90   
TMS320C55x Assembler PC v4.4.1 Tue Sep 18 04:50:04 2018

Tools Copyright (c) 1996-2012 Texas Instruments Incorporated
csl_cdc.asm                                                          PAGE   34

    1434 00054c C96B          MOV AR1, port(*AR3(T0)) ; |682| 
         00054e 9A   
    1435                      .dwpsn  file "../c5535_bsl_revc/ezdsp5535_v1/c55xx_csl/src/csl_cdc.c",line 684,column 4,is_stmt
    1436 00054f AB31          MOV *(#_usbRegisters), AR3 ; |684| 
         000551 0000 
         000553 00!  
    1437 000554 A96B          MOV port(*AR3(T0)), AR1 ; |684| 
         000556 99   
    1438 000557 EC06          BCLR @#3, AR1 ; |684| 
         000559 92   
    1439 00055a EC06          BSET @#3, AR1 ; |684| 
         00055c 90   
    1440 00055d C96B          MOV AR1, port(*AR3(T0)) ; |684| 
         00055f 9A   
    1441                      .dwpsn  file "../c5535_bsl_revc/ezdsp5535_v1/c55xx_csl/src/csl_cdc.c",line 686,column 9,is_stmt
    1442 000560 0600          B $C$L30  ; |686| 
         000562 7D   
    1443                                                      ; branch occurs ; |686| 
    1444 000563       $C$L28:    
    1445                      .dwpsn  file "../c5535_bsl_revc/ezdsp5535_v1/c55xx_csl/src/csl_cdc.c",line 577,column 2,is_stmt
    1446 000563 ED00          MOV dbl(*SP(#0)), XAR2
         000565 AF   
    1447 000566 ED00          MOV dbl(*SP(#0)), XAR3
         000568 BF   
    1448 000569 A04D          MOV *AR2(#104), AC0 ; |577| 
         00056b 0068 
    1449              
    1450 00056d 7621          MOV #8450, AR2 ; |577| 
         00056f 02A8 
    1451 000571 1107  ||      SFTL AC0, #8, AC0 ; |577| 
         000573 08   
    1452              
    1453 000574 DA6D          OR *AR3(#105), AC0, AR1 ; |577| 
         000576 9000 
         000578 69   
    1454 000579 12A4          CMP AR1 > AR2, TC1 ; |577| 
         00057b 90   
    1455 00057c 0464          BCC $C$L29,TC1 ; |577| 
         00057e 35   
    1456                                                      ; branchcc occurs ; |577| 
    1457 00057f 1290          CMP AR1 == AR2, TC1 ; |577| 
         000581 A0   
    1458 000582 6D64          BCC $C$L17,TC1 ; |577| 
         000584 FDF0 
    1459                                                      ; branchcc occurs ; |577| 
    1460 000586 76A1          MOV #41217, AR2 ; |577| 
         000588 01A8 
    1461 00058a 1290          CMPU AR1 == AR2, TC1 ; |577| 
         00058c A4   
    1462 00058d 6D64          BCC $C$L16,TC1 ; |577| 
         00058f FDBC 
    1463                                                      ; branchcc occurs ; |577| 
    1464 000591 76A1          MOV #41219, AR2 ; |577| 
         000593 03A8 
    1465 000595 1290          CMPU AR1 == AR2, TC1 ; |577| 
TMS320C55x Assembler PC v4.4.1 Tue Sep 18 04:50:04 2018

Tools Copyright (c) 1996-2012 Texas Instruments Incorporated
csl_cdc.asm                                                          PAGE   35

         000597 A4   
    1466 000598 6D64          BCC $C$L18,TC1 ; |577| 
         00059a FE03 
    1467                                                      ; branchcc occurs ; |577| 
    1468 00059c 76A1          MOV #41249, AR2 ; |577| 
         00059e 21A8 
    1469 0005a0 1290          CMPU AR1 == AR2, TC1 ; |577| 
         0005a2 A4   
    1470 0005a3 6D64          BCC $C$L25,TC1 ; |577| 
         0005a5 FF1E 
    1471                                                      ; branchcc occurs ; |577| 
    1472 0005a7 7621          MOV #8448, AR2 ; |577| 
         0005a9 00A8 
    1473 0005ab 1290          CMPU AR1 == AR2, TC1 ; |577| 
         0005ad A4   
    1474 0005ae 6D64          BCC $C$L15,TC1 ; |577| 
         0005b0 FD72 
    1475                                                      ; branchcc occurs ; |577| 
    1476 0005b2 4A2C          B $C$L30  ; |577| 
    1477                                                      ; branch occurs ; |577| 
    1478 0005b4       $C$L29:    
    1479 0005b4 7621          MOV #8452, AR2 ; |577| 
         0005b6 04A8 
    1480 0005b8 1290          CMPU AR1 == AR2, TC1 ; |577| 
         0005ba A4   
    1481 0005bb 6D64          BCC $C$L19,TC1 ; |577| 
         0005bd FE09 
    1482                                                      ; branchcc occurs ; |577| 
    1483 0005bf 7621          MOV #8480, AR2 ; |577| 
         0005c1 20A8 
    1484 0005c3 1290          CMPU AR1 == AR2, TC1 ; |577| 
         0005c5 A4   
    1485 0005c6 6D64          BCC $C$L20,TC1 ; |577| 
         0005c8 FE27 
    1486                                                      ; branchcc occurs ; |577| 
    1487 0005ca 7621          MOV #8482, AR2 ; |577| 
         0005cc 22A8 
    1488 0005ce 1290          CMPU AR1 == AR2, TC1 ; |577| 
         0005d0 A4   
    1489 0005d1 6D64          BCC $C$L26,TC1 ; |577| 
         0005d3 FF2E 
    1490                                                      ; branchcc occurs ; |577| 
    1491 0005d5 7621          MOV #8483, AR2 ; |577| 
         0005d7 23A8 
    1492 0005d9 1290          CMPU AR1 == AR2, TC1 ; |577| 
         0005db A4   
    1493 0005dc 6D64          BCC $C$L27,TC1 ; |577| 
         0005de FF5A 
    1494                                                      ; branchcc occurs ; |577| 
    1495 0005e0       $C$L30:    
    1496                      .dwpsn  file "../c5535_bsl_revc/ezdsp5535_v1/c55xx_csl/src/csl_cdc.c",line 693,column 2,is_stmt
    1497 0005e0 AB31          MOV *(#_usbRegisters), AR3 ; |693| 
         0005e2 0000 
         0005e4 00!  
    1498 0005e5 7604          MOV #1038, T0 ; |693| 
TMS320C55x Assembler PC v4.4.1 Tue Sep 18 04:50:04 2018

Tools Copyright (c) 1996-2012 Texas Instruments Incorporated
csl_cdc.asm                                                          PAGE   36

         0005e7 0E48 
    1499 0005e9 A930          MOV *SP(#24), AR1 ; |693| 
    1500 0005eb C96B          MOV AR1, port(*AR3(T0)) ; |693| 
         0005ed 9A   
    1501                      .dwpsn  file "../c5535_bsl_revc/ezdsp5535_v1/c55xx_csl/src/csl_cdc.c",line 695,column 2,is_stmt
    1502 0005ee 3C04          MOV #0, T0
    1503                      .dwpsn  file "../c5535_bsl_revc/ezdsp5535_v1/c55xx_csl/src/csl_cdc.c",line 696,column 1,is_stmt
    1504 0005f0 4E23          AADD #35, SP
    1505                      .dwcfi  cfa_offset, 1
    1506              $C$DW$111       .dwtag  DW_TAG_TI_branch
    1507                      .dwattr $C$DW$111, DW_AT_low_pc(0x00)
    1508                      .dwattr $C$DW$111, DW_AT_TI_return
    1509 0005f2 4804          RET
    1510                                                      ; return occurs
    1511              
    1512              $C$DW$112       .dwtag  DW_TAG_TI_loop
    1513                      .dwattr $C$DW$112, DW_AT_name("F:\eZdsp_DBG\eZDSP_5535_Files\ccsws2\test\Debug\csl_cdc.asm:$C$L22:1:1
    1514                      .dwattr $C$DW$112, DW_AT_TI_begin_file("../c5535_bsl_revc/ezdsp5535_v1/c55xx_csl/src/csl_cdc.c")
    1515                      .dwattr $C$DW$112, DW_AT_TI_begin_line(0x27b)
    1516                      .dwattr $C$DW$112, DW_AT_TI_end_line(0x27b)
    1517              $C$DW$113       .dwtag  DW_TAG_TI_loop_range
    1518                      .dwattr $C$DW$113, DW_AT_low_pc($C$DW$L$_CDC_eventHandler$11$B)
    1519                      .dwattr $C$DW$113, DW_AT_high_pc($C$DW$L$_CDC_eventHandler$11$E)
    1520                      .dwendtag $C$DW$112
    1521              
    1522                      .dwattr $C$DW$100, DW_AT_TI_end_file("../c5535_bsl_revc/ezdsp5535_v1/c55xx_csl/src/csl_cdc.c")
    1523                      .dwattr $C$DW$100, DW_AT_TI_end_line(0x2b8)
    1524                      .dwattr $C$DW$100, DW_AT_TI_end_column(0x01)
    1525                      .dwendentry
    1526                      .dwendtag $C$DW$100
    1527              
    1528 0005f4               .sect   ".text"
    1529                      .align 4
    1530                      .global _CDC_bulkOutHandler
    1531              
    1532              $C$DW$114       .dwtag  DW_TAG_subprogram, DW_AT_name("CDC_bulkOutHandler")
    1533                      .dwattr $C$DW$114, DW_AT_low_pc(_CDC_bulkOutHandler)
    1534                      .dwattr $C$DW$114, DW_AT_high_pc(0x00)
    1535                      .dwattr $C$DW$114, DW_AT_TI_symbol_name("_CDC_bulkOutHandler")
    1536                      .dwattr $C$DW$114, DW_AT_external
    1537                      .dwattr $C$DW$114, DW_AT_type(*$C$DW$T$106)
    1538                      .dwattr $C$DW$114, DW_AT_TI_begin_file("../c5535_bsl_revc/ezdsp5535_v1/c55xx_csl/src/csl_cdc.c")
    1539                      .dwattr $C$DW$114, DW_AT_TI_begin_line(0x2f0)
    1540                      .dwattr $C$DW$114, DW_AT_TI_begin_column(0x0c)
    1541                      .dwattr $C$DW$114, DW_AT_TI_max_frame_size(0x10)
    1542                      .dwpsn  file "../c5535_bsl_revc/ezdsp5535_v1/c55xx_csl/src/csl_cdc.c",line 753,column 1,is_stmt,addre
    1543              
    1544                      .dwfde $C$DW$CIE, _CDC_bulkOutHandler
    1545              $C$DW$115       .dwtag  DW_TAG_formal_parameter, DW_AT_name("pContext")
    1546                      .dwattr $C$DW$115, DW_AT_TI_symbol_name("_pContext")
    1547                      .dwattr $C$DW$115, DW_AT_type(*$C$DW$T$136)
    1548                      .dwattr $C$DW$115, DW_AT_location[DW_OP_reg17]
    1549              $C$DW$116       .dwtag  DW_TAG_formal_parameter, DW_AT_name("cdcAppHandle")
    1550                      .dwattr $C$DW$116, DW_AT_TI_symbol_name("_cdcAppHandle")
    1551                      .dwattr $C$DW$116, DW_AT_type(*$C$DW$T$147)
TMS320C55x Assembler PC v4.4.1 Tue Sep 18 04:50:04 2018

Tools Copyright (c) 1996-2012 Texas Instruments Incorporated
csl_cdc.asm                                                          PAGE   37

    1552                      .dwattr $C$DW$116, DW_AT_location[DW_OP_reg19]
    1553              ;*******************************************************************************
    1554              ;* FUNCTION NAME: CDC_bulkOutHandler                                           *
    1555              ;*                                                                             *
    1556              ;*   Function Uses Regs : AC0,T0,T1,AR0,XAR0,AR1,XAR1,AR2,XAR2,AR3,XAR3,SP,    *
    1557              ;*                        CARRY,TC1,M40,SATA,SATD,RDM,FRCT,SMUL                *
    1558              ;*   Stack Frame        : Compact (No Frame Pointer, w/ debug)                 *
    1559              ;*   Total Frame Size   : 16 words                                             *
    1560              ;*                        (1 return address/alignment)                         *
    1561              ;*                        (3 function parameters)                              *
    1562              ;*                        (12 local values)                                    *
    1563              ;*   Min System Stack   : 1 word                                               *
    1564              ;*******************************************************************************
    1565 0005f4       _CDC_bulkOutHandler:
    1566                      .dwcfi  cfa_offset, 1
    1567                      .dwcfi  save_reg_to_mem, 91, -1
    1568 0005f4 4EF1          AADD #-15, SP
    1569                      .dwcfi  cfa_offset, 16
    1570              $C$DW$117       .dwtag  DW_TAG_variable, DW_AT_name("pContext")
    1571                      .dwattr $C$DW$117, DW_AT_TI_symbol_name("_pContext")
    1572                      .dwattr $C$DW$117, DW_AT_type(*$C$DW$T$136)
    1573                      .dwattr $C$DW$117, DW_AT_location[DW_OP_bregx 0x24 4]
    1574              $C$DW$118       .dwtag  DW_TAG_variable, DW_AT_name("cdcAppHandle")
    1575                      .dwattr $C$DW$118, DW_AT_TI_symbol_name("_cdcAppHandle")
    1576                      .dwattr $C$DW$118, DW_AT_type(*$C$DW$T$147)
    1577                      .dwattr $C$DW$118, DW_AT_location[DW_OP_bregx 0x24 6]
    1578              $C$DW$119       .dwtag  DW_TAG_variable, DW_AT_name("tempEpH")
    1579                      .dwattr $C$DW$119, DW_AT_TI_symbol_name("_tempEpH")
    1580                      .dwattr $C$DW$119, DW_AT_type(*$C$DW$T$74)
    1581                      .dwattr $C$DW$119, DW_AT_location[DW_OP_bregx 0x24 8]
    1582              $C$DW$120       .dwtag  DW_TAG_variable, DW_AT_name("tempWord")
    1583                      .dwattr $C$DW$120, DW_AT_TI_symbol_name("_tempWord")
    1584                      .dwattr $C$DW$120, DW_AT_type(*$C$DW$T$20)
    1585                      .dwattr $C$DW$120, DW_AT_location[DW_OP_bregx 0x24 10]
    1586              $C$DW$121       .dwtag  DW_TAG_variable, DW_AT_name("usb_income_num_bytes")
    1587                      .dwattr $C$DW$121, DW_AT_TI_symbol_name("_usb_income_num_bytes")
    1588                      .dwattr $C$DW$121, DW_AT_type(*$C$DW$T$20)
    1589                      .dwattr $C$DW$121, DW_AT_location[DW_OP_bregx 0x24 11]
    1590              $C$DW$122       .dwtag  DW_TAG_variable, DW_AT_name("status")
    1591                      .dwattr $C$DW$122, DW_AT_TI_symbol_name("_status")
    1592                      .dwattr $C$DW$122, DW_AT_type(*$C$DW$T$106)
    1593                      .dwattr $C$DW$122, DW_AT_location[DW_OP_bregx 0x24 12]
    1594              $C$DW$123       .dwtag  DW_TAG_variable, DW_AT_name("txRxStatus")
    1595                      .dwattr $C$DW$123, DW_AT_TI_symbol_name("_txRxStatus")
    1596                      .dwattr $C$DW$123, DW_AT_type(*$C$DW$T$106)
    1597                      .dwattr $C$DW$123, DW_AT_location[DW_OP_bregx 0x24 13]
    1598              $C$DW$124       .dwtag  DW_TAG_variable, DW_AT_name("bytesRem")
    1599                      .dwattr $C$DW$124, DW_AT_TI_symbol_name("_bytesRem")
    1600                      .dwattr $C$DW$124, DW_AT_type(*$C$DW$T$20)
    1601                      .dwattr $C$DW$124, DW_AT_location[DW_OP_bregx 0x24 14]
    1602 0005f6 EB0C          MOV XAR1, dbl(*SP(#6))
         0005f8 95   
    1603 0005f9 EB08          MOV XAR0, dbl(*SP(#4))
         0005fb 85   
    1604                      .dwpsn  file "../c5535_bsl_revc/ezdsp5535_v1/c55xx_csl/src/csl_cdc.c",line 759,column 2,is_stmt
TMS320C55x Assembler PC v4.4.1 Tue Sep 18 04:50:04 2018

Tools Copyright (c) 1996-2012 Texas Instruments Incorporated
csl_cdc.asm                                                          PAGE   38

    1605 0005fc E618          MOV #0, *SP(#12) ; |759| 
         0005fe 00   
    1606                      .dwpsn  file "../c5535_bsl_revc/ezdsp5535_v1/c55xx_csl/src/csl_cdc.c",line 763,column 2,is_stmt
    1607 0005ff ED08          MOV dbl(*SP(#4)), XAR3
         000601 BF   
    1608 000602 ED6D          MOV dbl(*AR3(#98)), XAR0
         000604 8F00 
         000606 62   
    1609 000607 1424          AADD #36, AR0 ; |763| 
         000609 84   
    1610              $C$DW$125       .dwtag  DW_TAG_TI_branch
    1611                      .dwattr $C$DW$125, DW_AT_low_pc(0x00)
    1612                      .dwattr $C$DW$125, DW_AT_name("_USB_isValidDataInFifoOut")
    1613                      .dwattr $C$DW$125, DW_AT_TI_call
    1614 00060a 08F9          CALL #_USB_isValidDataInFifoOut ; |763| 
         00060c F3   
    1615                                                      ; call occurs [#_USB_isValidDataInFifoOut] ; |763| 
    1616 00060d 0404          BCC $C$L31,T0 == #0 ; |763| 
         00060f 11   
    1617                                                      ; branchcc occurs ; |763| 
    1618                      .dwpsn  file "../c5535_bsl_revc/ezdsp5535_v1/c55xx_csl/src/csl_cdc.c",line 766,column 3,is_stmt
    1619 000610 3C04          MOV #0, T0
    1620              $C$DW$126       .dwtag  DW_TAG_TI_branch
    1621                      .dwattr $C$DW$126, DW_AT_low_pc(0x00)
    1622                      .dwattr $C$DW$126, DW_AT_name("_USB_epNumToHandle")
    1623                      .dwattr $C$DW$126, DW_AT_TI_call
    1624              
    1625 000612 6C00          CALL #_USB_epNumToHandle ; |766| 
         000614 0000!
    1626 000616 3D25  ||      MOV #2, T1
    1627              
    1628                                                      ; call occurs [#_USB_epNumToHandle] ; |766| 
    1629 000618 EB10          MOV XAR0, dbl(*SP(#8))
         00061a 85   
    1630                      .dwpsn  file "../c5535_bsl_revc/ezdsp5535_v1/c55xx_csl/src/csl_cdc.c",line 767,column 3,is_stmt
    1631              $C$DW$127       .dwtag  DW_TAG_TI_branch
    1632                      .dwattr $C$DW$127, DW_AT_low_pc(0x00)
    1633                      .dwattr $C$DW$127, DW_AT_name("_USB_getDataCountReadFromFifo")
    1634                      .dwattr $C$DW$127, DW_AT_TI_call
    1635 00061b 6C00          CALL #_USB_getDataCountReadFromFifo ; |767| 
         00061d 0000!
    1636                                                      ; call occurs [#_USB_getDataCountReadFromFifo] ; |767| 
    1637 00061f C416          MOV T0, *SP(#11) ; |767| 
    1638 000621       $C$L31:    
    1639                      .dwpsn  file "../c5535_bsl_revc/ezdsp5535_v1/c55xx_csl/src/csl_cdc.c",line 771,column 2,is_stmt
    1640 000621 ED0C          MOV dbl(*SP(#6)), XAR2
         000623 AF   
    1641 000624 ED0C          MOV dbl(*SP(#6)), XAR3
         000626 BF   
    1642 000627 A05F          MOV *AR2(short(#7)), AC0 ; |771| 
    1643 000629 7602          MOV #512, AR2 ; |771| 
         00062b 00A8 
    1644 00062d DF7D          SUB uns(*AR3(short(#6))), AC0, AC0 ; |771| 
         00062f 0F   
    1645 000630 D616          ADD *SP(#11), AC0, AR1 ; |771| 
TMS320C55x Assembler PC v4.4.1 Tue Sep 18 04:50:04 2018

Tools Copyright (c) 1996-2012 Texas Instruments Incorporated
csl_cdc.asm                                                          PAGE   39

         000632 90   
    1646 000633 1298          CMPU AR1 >= AR2, TC1 ; |771| 
         000635 A4   
    1647 000636 6D64          BCC $C$L35,TC1 ; |771| 
         000638 00A6 
    1648                                                      ; branchcc occurs ; |771| 
    1649                      .dwpsn  file "../c5535_bsl_revc/ezdsp5535_v1/c55xx_csl/src/csl_cdc.c",line 773,column 3,is_stmt
    1650 00063a F016          CMP *SP(#11) == #1, TC1 ; |773| 
         00063c 0001 
    1651 00063e 0474          BCC $C$L33,!TC1 ; |773| 
         000640 67   
    1652                                                      ; branchcc occurs ; |773| 
    1653                      .dwpsn  file "../c5535_bsl_revc/ezdsp5535_v1/c55xx_csl/src/csl_cdc.c",line 775,column 4,is_stmt
    1654 000641 ED08          MOV dbl(*SP(#4)), XAR3
         000643 BF   
    1655 000644 A416          MOV *SP(#11), T0 ; |775| 
    1656 000646 EC14          AMAR *SP(#10), XAR1
         000648 9E   
    1657 000649 ED6D          MOV dbl(*AR3(#186)), XAR0
         00064b 8F00 
         00064d BA   
    1658              $C$DW$128       .dwtag  DW_TAG_TI_branch
    1659                      .dwattr $C$DW$128, DW_AT_low_pc(0x00)
    1660                      .dwattr $C$DW$128, DW_AT_name("_USB_postTransaction")
    1661                      .dwattr $C$DW$128, DW_AT_TI_call
    1662              
    1663 00064e 6C00          CALL #_USB_postTransaction ; |775| 
         000650 0000!
    1664 000652 3D05  ||      MOV #0, T1
    1665              
    1666                                                      ; call occurs [#_USB_postTransaction] ; |775| 
    1667 000654 C418          MOV T0, *SP(#12) ; |775| 
    1668                      .dwpsn  file "../c5535_bsl_revc/ezdsp5535_v1/c55xx_csl/src/csl_cdc.c",line 778,column 4,is_stmt
    1669 000656 2249          MOV T0, AR1
    1670 000658 6689          BCC $C$L32,AR1 == #0 ; |778| 
    1671                                                      ; branchcc occurs ; |778| 
    1672                      .dwpsn  file "../c5535_bsl_revc/ezdsp5535_v1/c55xx_csl/src/csl_cdc.c",line 780,column 5,is_stmt
    1673 00065a EC31          AMOV #$C$FSL1, XAR3 ; |780| 
         00065c BE00 
         00065e 0000+
    1674 000660 EB00          MOV XAR3, dbl(*SP(#0))
         000662 B5   
    1675              $C$DW$129       .dwtag  DW_TAG_TI_branch
    1676                      .dwattr $C$DW$129, DW_AT_low_pc(0x00)
    1677                      .dwattr $C$DW$129, DW_AT_name("_printf")
    1678                      .dwattr $C$DW$129, DW_AT_TI_call
    1679 000663 6C00          CALL #_printf ; |780| 
         000665 0000!
    1680                                                      ; call occurs [#_printf] ; |780| 
    1681 000667       $C$L32:    
    1682                      .dwpsn  file "../c5535_bsl_revc/ezdsp5535_v1/c55xx_csl/src/csl_cdc.c",line 784,column 4,is_stmt
    1683 000667 ED08          MOV dbl(*SP(#4)), XAR3
         000669 BF   
    1684 00066a EC18          AMAR *SP(#12), XAR1
         00066c 9E   
TMS320C55x Assembler PC v4.4.1 Tue Sep 18 04:50:04 2018

Tools Copyright (c) 1996-2012 Texas Instruments Incorporated
csl_cdc.asm                                                          PAGE   40

    1685 00066d ED6D          MOV dbl(*AR3(#186)), XAR0
         00066f 8F00 
         000671 BA   
    1686              $C$DW$130       .dwtag  DW_TAG_TI_branch
    1687                      .dwattr $C$DW$130, DW_AT_low_pc(0x00)
    1688                      .dwattr $C$DW$130, DW_AT_name("_USB_isTransactionDone")
    1689                      .dwattr $C$DW$130, DW_AT_TI_call
    1690 000672 6C00          CALL #_USB_isTransactionDone ; |784| 
         000674 0000!
    1691                                                      ; call occurs [#_USB_isTransactionDone] ; |784| 
    1692 000676 C41A          MOV T0, *SP(#13) ; |784| 
    1693                      .dwpsn  file "../c5535_bsl_revc/ezdsp5535_v1/c55xx_csl/src/csl_cdc.c",line 785,column 4,is_stmt
    1694 000678 F01A          CMP *SP(#13) == #1, TC1 ; |785| 
         00067a 0001 
    1695 00067c 0464          BCC $C$L34,TC1 ; |785| 
         00067e 36   
    1696                                                      ; branchcc occurs ; |785| 
    1697                      .dwpsn  file "../c5535_bsl_revc/ezdsp5535_v1/c55xx_csl/src/csl_cdc.c",line 787,column 5,is_stmt
    1698 00067f ED08          MOV dbl(*SP(#4)), XAR3
         000681 BF   
    1699 000682 EC18          AMAR *SP(#12), XAR1
         000684 9E   
    1700 000685 ED6D          MOV dbl(*AR3(#186)), XAR0
         000687 8F00 
         000689 BA   
    1701              $C$DW$131       .dwtag  DW_TAG_TI_branch
    1702                      .dwattr $C$DW$131, DW_AT_low_pc(0x00)
    1703                      .dwattr $C$DW$131, DW_AT_name("_USB_bytesRemaining")
    1704                      .dwattr $C$DW$131, DW_AT_TI_call
    1705 00068a 6C00          CALL #_USB_bytesRemaining ; |787| 
         00068c 0000!
    1706                                                      ; call occurs [#_USB_bytesRemaining] ; |787| 
    1707 00068e C41C          MOV T0, *SP(#14) ; |787| 
    1708                      .dwpsn  file "../c5535_bsl_revc/ezdsp5535_v1/c55xx_csl/src/csl_cdc.c",line 788,column 5,is_stmt
    1709 000690 2249          MOV T0, AR1
    1710 000692 0409          BCC $C$L34,AR1 == #0 ; |788| 
         000694 20   
    1711                                                      ; branchcc occurs ; |788| 
    1712                      .dwpsn  file "../c5535_bsl_revc/ezdsp5535_v1/c55xx_csl/src/csl_cdc.c",line 790,column 6,is_stmt
    1713 000695 EC31          AMOV #$C$FSL2, XAR3 ; |790| 
         000697 BE00 
         000699 001C+
    1714 00069b EB00          MOV XAR3, dbl(*SP(#0))
         00069d B5   
    1715 00069e A91C          MOV *SP(#14), AR1 ; |790| 
    1716 0006a0 C904          MOV AR1, *SP(#2) ; |790| 
    1717              $C$DW$132       .dwtag  DW_TAG_TI_branch
    1718                      .dwattr $C$DW$132, DW_AT_low_pc(0x00)
    1719                      .dwattr $C$DW$132, DW_AT_name("_printf")
    1720                      .dwattr $C$DW$132, DW_AT_TI_call
    1721 0006a2 6C00          CALL #_printf ; |790| 
         0006a4 0000!
    1722                                                      ; call occurs [#_printf] ; |790| 
    1723                      .dwpsn  file "../c5535_bsl_revc/ezdsp5535_v1/c55xx_csl/src/csl_cdc.c",line 793,column 3,is_stmt
    1724 0006a6 4A0D          B $C$L34  ; |793| 
TMS320C55x Assembler PC v4.4.1 Tue Sep 18 04:50:04 2018

Tools Copyright (c) 1996-2012 Texas Instruments Incorporated
csl_cdc.asm                                                          PAGE   41

    1725                                                      ; branch occurs ; |793| 
    1726 0006a8       $C$L33:    
    1727                      .dwpsn  file "../c5535_bsl_revc/ezdsp5535_v1/c55xx_csl/src/csl_cdc.c",line 795,column 4,is_stmt
    1728 0006a8 EC31          AMOV #$C$FSL3, XAR3 ; |795| 
         0006aa BE00 
         0006ac 0032+
    1729 0006ae EB00          MOV XAR3, dbl(*SP(#0))
         0006b0 B5   
    1730              $C$DW$133       .dwtag  DW_TAG_TI_branch
    1731                      .dwattr $C$DW$133, DW_AT_low_pc(0x00)
    1732                      .dwattr $C$DW$133, DW_AT_name("_printf")
    1733                      .dwattr $C$DW$133, DW_AT_TI_call
    1734 0006b1 6C00          CALL #_printf ; |795| 
         0006b3 0000!
    1735                                                      ; call occurs [#_printf] ; |795| 
    1736 0006b5       $C$L34:    
    1737                      .dwpsn  file "../c5535_bsl_revc/ezdsp5535_v1/c55xx_csl/src/csl_cdc.c",line 799,column 3,is_stmt
    1738 0006b5 ED0C          MOV dbl(*SP(#6)), XAR3
         0006b7 BF   
    1739 0006b8 A47F          MOV *AR3(short(#7)), T0 ; |799| 
    1740 0006ba ED79          MOV dbl(*AR3(short(#4))), XAR3
         0006bc BF   
    1741 0006bd DF14          MOV uns(low_byte(*SP(#10))), AR1 ; |799| 
         0006bf 93   
    1742 0006c0 C96B          MOV AR1, *AR3(T0) ; |799| 
    1743                      .dwpsn  file "../c5535_bsl_revc/ezdsp5535_v1/c55xx_csl/src/csl_cdc.c",line 801,column 3,is_stmt
    1744 0006c2 ED0C          MOV dbl(*SP(#6)), XAR3
         0006c4 BF   
    1745 0006c5 A916          MOV *SP(#11), AR1 ; |801| 
    1746 0006c7 D67F          ADD *AR3(short(#7)), AR1, AR1 ; |801| 
         0006c9 99   
    1747 0006ca C97F          MOV AR1, *AR3(short(#7)) ; |801| 
    1748                      .dwpsn  file "../c5535_bsl_revc/ezdsp5535_v1/c55xx_csl/src/csl_cdc.c",line 802,column 3,is_stmt
    1749 0006cc ED0C          MOV dbl(*SP(#6)), XAR3
         0006ce BF   
    1750 0006cf 7602          MOV #512, AR2 ; |802| 
         0006d1 00A8 
    1751 0006d3 A97F          MOV *AR3(short(#7)), AR1 ; |802| 
    1752 0006d5 1294          CMPU AR1 < AR2, TC1 ; |802| 
         0006d7 A4   
    1753 0006d8 0464          BCC $C$L36,TC1 ; |802| 
         0006da 12   
    1754                                                      ; branchcc occurs ; |802| 
    1755                      .dwpsn  file "../c5535_bsl_revc/ezdsp5535_v1/c55xx_csl/src/csl_cdc.c",line 803,column 4,is_stmt
    1756 0006db E67F          MOV #0, *AR3(short(#7)) ; |803| 
         0006dd 00   
    1757                      .dwpsn  file "../c5535_bsl_revc/ezdsp5535_v1/c55xx_csl/src/csl_cdc.c",line 804,column 2,is_stmt
    1758 0006de 4A0D          B $C$L36  ; |804| 
    1759                                                      ; branch occurs ; |804| 
    1760 0006e0       $C$L35:    
    1761                      .dwpsn  file "../c5535_bsl_revc/ezdsp5535_v1/c55xx_csl/src/csl_cdc.c",line 806,column 3,is_stmt
    1762 0006e0 EC31          AMOV #$C$FSL4, XAR3 ; |806| 
         0006e2 BE00 
         0006e4 004A+
    1763 0006e6 EB00          MOV XAR3, dbl(*SP(#0))
TMS320C55x Assembler PC v4.4.1 Tue Sep 18 04:50:04 2018

Tools Copyright (c) 1996-2012 Texas Instruments Incorporated
csl_cdc.asm                                                          PAGE   42

         0006e8 B5   
    1764              $C$DW$134       .dwtag  DW_TAG_TI_branch
    1765                      .dwattr $C$DW$134, DW_AT_low_pc(0x00)
    1766                      .dwattr $C$DW$134, DW_AT_name("_printf")
    1767                      .dwattr $C$DW$134, DW_AT_TI_call
    1768 0006e9 6C00          CALL #_printf ; |806| 
         0006eb 0000!
    1769                                                      ; call occurs [#_printf] ; |806| 
    1770 0006ed       $C$L36:    
    1771                      .dwpsn  file "../c5535_bsl_revc/ezdsp5535_v1/c55xx_csl/src/csl_cdc.c",line 809,column 2,is_stmt
    1772 0006ed A418          MOV *SP(#12), T0 ; |809| 
    1773                      .dwpsn  file "../c5535_bsl_revc/ezdsp5535_v1/c55xx_csl/src/csl_cdc.c",line 810,column 1,is_stmt
    1774 0006ef 4E0F          AADD #15, SP
    1775                      .dwcfi  cfa_offset, 1
    1776              $C$DW$135       .dwtag  DW_TAG_TI_branch
    1777                      .dwattr $C$DW$135, DW_AT_low_pc(0x00)
    1778                      .dwattr $C$DW$135, DW_AT_TI_return
    1779 0006f1 4804          RET
    1780                                                      ; return occurs
    1781                      .dwattr $C$DW$114, DW_AT_TI_end_file("../c5535_bsl_revc/ezdsp5535_v1/c55xx_csl/src/csl_cdc.c")
    1782                      .dwattr $C$DW$114, DW_AT_TI_end_line(0x32a)
    1783                      .dwattr $C$DW$114, DW_AT_TI_end_column(0x01)
    1784                      .dwendentry
    1785                      .dwendtag $C$DW$114
    1786              
    1787 0006f3               .sect   ".text"
    1788                      .align 4
    1789                      .global _CDC_bulkInHandler
    1790              
    1791              $C$DW$136       .dwtag  DW_TAG_subprogram, DW_AT_name("CDC_bulkInHandler")
    1792                      .dwattr $C$DW$136, DW_AT_low_pc(_CDC_bulkInHandler)
    1793                      .dwattr $C$DW$136, DW_AT_high_pc(0x00)
    1794                      .dwattr $C$DW$136, DW_AT_TI_symbol_name("_CDC_bulkInHandler")
    1795                      .dwattr $C$DW$136, DW_AT_external
    1796                      .dwattr $C$DW$136, DW_AT_type(*$C$DW$T$106)
    1797                      .dwattr $C$DW$136, DW_AT_TI_begin_file("../c5535_bsl_revc/ezdsp5535_v1/c55xx_csl/src/csl_cdc.c")
    1798                      .dwattr $C$DW$136, DW_AT_TI_begin_line(0x362)
    1799                      .dwattr $C$DW$136, DW_AT_TI_begin_column(0x0c)
    1800                      .dwattr $C$DW$136, DW_AT_TI_max_frame_size(0x10)
    1801                      .dwpsn  file "../c5535_bsl_revc/ezdsp5535_v1/c55xx_csl/src/csl_cdc.c",line 867,column 1,is_stmt,addre
    1802              
    1803                      .dwfde $C$DW$CIE, _CDC_bulkInHandler
    1804              $C$DW$137       .dwtag  DW_TAG_formal_parameter, DW_AT_name("pContext")
    1805                      .dwattr $C$DW$137, DW_AT_TI_symbol_name("_pContext")
    1806                      .dwattr $C$DW$137, DW_AT_type(*$C$DW$T$136)
    1807                      .dwattr $C$DW$137, DW_AT_location[DW_OP_reg17]
    1808              $C$DW$138       .dwtag  DW_TAG_formal_parameter, DW_AT_name("cdcAppHandle")
    1809                      .dwattr $C$DW$138, DW_AT_TI_symbol_name("_cdcAppHandle")
    1810                      .dwattr $C$DW$138, DW_AT_type(*$C$DW$T$147)
    1811                      .dwattr $C$DW$138, DW_AT_location[DW_OP_reg19]
    1812              ;*******************************************************************************
    1813              ;* FUNCTION NAME: CDC_bulkInHandler                                            *
    1814              ;*                                                                             *
    1815              ;*   Function Uses Regs : AC0,T0,T1,AR0,XAR0,AR1,XAR1,AR2,AR3,XAR3,SP,CARRY,   *
    1816              ;*                        TC1,M40,SATA,SATD,RDM,FRCT,SMUL                      *
TMS320C55x Assembler PC v4.4.1 Tue Sep 18 04:50:04 2018

Tools Copyright (c) 1996-2012 Texas Instruments Incorporated
csl_cdc.asm                                                          PAGE   43

    1817              ;*   Stack Frame        : Compact (No Frame Pointer, w/ debug)                 *
    1818              ;*   Total Frame Size   : 16 words                                             *
    1819              ;*                        (2 return address/alignment)                         *
    1820              ;*                        (3 function parameters)                              *
    1821              ;*                        (11 local values)                                    *
    1822              ;*   Min System Stack   : 1 word                                               *
    1823              ;*******************************************************************************
    1824 0006f4       _CDC_bulkInHandler:
    1825                      .dwcfi  cfa_offset, 1
    1826                      .dwcfi  save_reg_to_mem, 91, -1
    1827 0006f4 4EF1          AADD #-15, SP
    1828                      .dwcfi  cfa_offset, 16
    1829              $C$DW$139       .dwtag  DW_TAG_variable, DW_AT_name("pContext")
    1830                      .dwattr $C$DW$139, DW_AT_TI_symbol_name("_pContext")
    1831                      .dwattr $C$DW$139, DW_AT_type(*$C$DW$T$136)
    1832                      .dwattr $C$DW$139, DW_AT_location[DW_OP_bregx 0x24 4]
    1833              $C$DW$140       .dwtag  DW_TAG_variable, DW_AT_name("cdcAppHandle")
    1834                      .dwattr $C$DW$140, DW_AT_TI_symbol_name("_cdcAppHandle")
    1835                      .dwattr $C$DW$140, DW_AT_type(*$C$DW$T$147)
    1836                      .dwattr $C$DW$140, DW_AT_location[DW_OP_bregx 0x24 6]
    1837              $C$DW$141       .dwtag  DW_TAG_variable, DW_AT_name("status")
    1838                      .dwattr $C$DW$141, DW_AT_TI_symbol_name("_status")
    1839                      .dwattr $C$DW$141, DW_AT_type(*$C$DW$T$106)
    1840                      .dwattr $C$DW$141, DW_AT_location[DW_OP_bregx 0x24 8]
    1841              $C$DW$142       .dwtag  DW_TAG_variable, DW_AT_name("txRxStatus")
    1842                      .dwattr $C$DW$142, DW_AT_TI_symbol_name("_txRxStatus")
    1843                      .dwattr $C$DW$142, DW_AT_type(*$C$DW$T$106)
    1844                      .dwattr $C$DW$142, DW_AT_location[DW_OP_bregx 0x24 9]
    1845              $C$DW$143       .dwtag  DW_TAG_variable, DW_AT_name("bytesRem")
    1846                      .dwattr $C$DW$143, DW_AT_TI_symbol_name("_bytesRem")
    1847                      .dwattr $C$DW$143, DW_AT_type(*$C$DW$T$20)
    1848                      .dwattr $C$DW$143, DW_AT_location[DW_OP_bregx 0x24 10]
    1849              $C$DW$144       .dwtag  DW_TAG_variable, DW_AT_name("txStartIdxSave")
    1850                      .dwattr $C$DW$144, DW_AT_TI_symbol_name("_txStartIdxSave")
    1851                      .dwattr $C$DW$144, DW_AT_type(*$C$DW$T$20)
    1852                      .dwattr $C$DW$144, DW_AT_location[DW_OP_bregx 0x24 11]
    1853              $C$DW$145       .dwtag  DW_TAG_variable, DW_AT_name("txEndIdxSave")
    1854                      .dwattr $C$DW$145, DW_AT_TI_symbol_name("_txEndIdxSave")
    1855                      .dwattr $C$DW$145, DW_AT_type(*$C$DW$T$20)
    1856                      .dwattr $C$DW$145, DW_AT_location[DW_OP_bregx 0x24 12]
    1857              $C$DW$146       .dwtag  DW_TAG_variable, DW_AT_name("i")
    1858                      .dwattr $C$DW$146, DW_AT_TI_symbol_name("_i")
    1859                      .dwattr $C$DW$146, DW_AT_type(*$C$DW$T$20)
    1860                      .dwattr $C$DW$146, DW_AT_location[DW_OP_bregx 0x24 13]
    1861 0006f6 EB0C          MOV XAR1, dbl(*SP(#6))
         0006f8 95   
    1862 0006f9 EB08          MOV XAR0, dbl(*SP(#4))
         0006fb 85   
    1863                      .dwpsn  file "../c5535_bsl_revc/ezdsp5535_v1/c55xx_csl/src/csl_cdc.c",line 871,column 2,is_stmt
    1864 0006fc E610          MOV #0, *SP(#8) ; |871| 
         0006fe 00   
    1865                      .dwpsn  file "../c5535_bsl_revc/ezdsp5535_v1/c55xx_csl/src/csl_cdc.c",line 874,column 2,is_stmt
    1866 0006ff ED0C          MOV dbl(*SP(#6)), XAR3
         000701 BF   
    1867 000702 A96D          MOV *AR3(#14), AR1 ; |874| 
TMS320C55x Assembler PC v4.4.1 Tue Sep 18 04:50:04 2018

Tools Copyright (c) 1996-2012 Texas Instruments Incorporated
csl_cdc.asm                                                          PAGE   44

         000704 000E 
    1868 000706 6D19          BCC $C$L57,AR1 != #0 ; |874| 
         000708 02D3 
    1869                                                      ; branchcc occurs ; |874| 
    1870                      .dwpsn  file "../c5535_bsl_revc/ezdsp5535_v1/c55xx_csl/src/csl_cdc.c",line 877,column 3,is_stmt
    1871 00070a A96D          MOV *AR3(#10), AR1 ; |877| 
         00070c 000A 
    1872 00070e C916          MOV AR1, *SP(#11) ; |877| 
    1873                      .dwpsn  file "../c5535_bsl_revc/ezdsp5535_v1/c55xx_csl/src/csl_cdc.c",line 878,column 3,is_stmt
    1874 000710 ED0C          MOV dbl(*SP(#6)), XAR3
         000712 BF   
    1875 000713 A96D          MOV *AR3(#11), AR1 ; |878| 
         000715 000B 
    1876 000717 C918          MOV AR1, *SP(#12) ; |878| 
    1877                      .dwpsn  file "../c5535_bsl_revc/ezdsp5535_v1/c55xx_csl/src/csl_cdc.c",line 879,column 3,is_stmt
    1878 000719 AA18          MOV *SP(#12), AR2 ; |879| 
    1879 00071b A916          MOV *SP(#11), AR1 ; |879| 
    1880 00071d 12AC          CMPU AR2 != AR1, TC1 ; |879| 
         00071f 94   
    1881 000720 62E4          BCC $C$L37,TC1 ; |879| 
    1882                                                      ; branchcc occurs ; |879| 
    1883                      .dwpsn  file "../c5535_bsl_revc/ezdsp5535_v1/c55xx_csl/src/csl_cdc.c",line 882,column 4,is_stmt
    1884 000722 A410          MOV *SP(#8), T0 ; |882| 
    1885 000724 0602          B $C$L58  ; |882| 
         000726 B8   
    1886                                                      ; branch occurs ; |882| 
    1887 000727       $C$L37:    
    1888                      .dwpsn  file "../c5535_bsl_revc/ezdsp5535_v1/c55xx_csl/src/csl_cdc.c",line 883,column 10,is_stmt
    1889 000727 1298          CMPU AR2 <= AR1, TC1 ; |883| 
         000729 A4   
    1890 00072a 6D64          BCC $C$L44,TC1 ; |883| 
         00072c 00E8 
    1891                                                      ; branchcc occurs ; |883| 
    1892                      .dwpsn  file "../c5535_bsl_revc/ezdsp5535_v1/c55xx_csl/src/csl_cdc.c",line 887,column 9,is_stmt
    1893 00072e E61A          MOV #0, *SP(#13) ; |887| 
         000730 00   
    1894                      .dwpsn  file "../c5535_bsl_revc/ezdsp5535_v1/c55xx_csl/src/csl_cdc.c",line 887,column 14,is_stmt
    1895 000731 A018          MOV *SP(#12), AC0 ; |887| 
    1896 000733 DF16          SUB uns(*SP(#11)), AC0, AC0 ; |887| 
         000735 0F   
    1897              
    1898 000738 2309          MOV AC0, AR1 ; |887| 
    1899 000736 AA1A  ||      MOV *SP(#13), AR2 ; |887| 
    1900              
    1901 00073a 12A8          CMPU AR2 >= AR1, TC1 ; |887| 
         00073c 94   
    1902 00073d 0464          BCC $C$L41,TC1 ; |887| 
         00073f 59   
    1903                                                      ; branchcc occurs ; |887| 
    1904 000740       $C$L38:    
    1905 000740       $C$DW$L$_CDC_bulkInHandler$7$B:
    1906                      .dwpsn  file "../c5535_bsl_revc/ezdsp5535_v1/c55xx_csl/src/csl_cdc.c",line 889,column 5,is_stmt
    1907 000740 DC1A          BTST #0, *SP(#13), TC1 ; |889| 
         000742 00   
    1908 000743 0474          BCC $C$L39,!TC1 ; |889| 
TMS320C55x Assembler PC v4.4.1 Tue Sep 18 04:50:04 2018

Tools Copyright (c) 1996-2012 Texas Instruments Incorporated
csl_cdc.asm                                                          PAGE   45

         000745 22   
    1909                                                      ; branchcc occurs ; |889| 
    1910 000746       $C$DW$L$_CDC_bulkInHandler$7$E:
    1911 000746       $C$DW$L$_CDC_bulkInHandler$8$B:
    1912                      .dwpsn  file "../c5535_bsl_revc/ezdsp5535_v1/c55xx_csl/src/csl_cdc.c",line 890,column 6,is_stmt
    1913 000746 ED0C          MOV dbl(*SP(#6)), XAR3
         000748 BF   
    1914 000749 22A9          MOV AR2, AR1
    1915 00074b D616          ADD *SP(#11), AR1, T0 ; |890| 
         00074d 49   
    1916 00074e ED6D          MOV dbl(*AR3(#8)), XAR3
         000750 BF00 
         000752 08   
    1917 000753 A06B          MOV *AR3(T0), AC0 ; |890| 
    1918 000755 ED0C          MOV dbl(*SP(#6)), XAR3
         000757 BF   
    1919              
    1920 000758 1007          SFTL AC0, #8, AC0 ; |890| 
         00075a 08   
    1921 00075b 23A4  ||      MOV AR2, T0
    1922              
    1923 00075d 5041          SFTL T0, #-1 ; |890| 
    1924 00075f ED6D          MOV dbl(*AR3(#12)), XAR3
         000761 BF00 
         000763 0C   
    1925 000764 C06B          MOV AC0, *AR3(T0) ; |890| 
    1926 000766 4A1E          B $C$L40  ; |890| 
    1927                                                      ; branch occurs ; |890| 
    1928 000768       $C$DW$L$_CDC_bulkInHandler$8$E:
    1929 000768       $C$L39:    
    1930 000768       $C$DW$L$_CDC_bulkInHandler$9$B:
    1931                      .dwpsn  file "../c5535_bsl_revc/ezdsp5535_v1/c55xx_csl/src/csl_cdc.c",line 892,column 6,is_stmt
    1932 000768 ED0C          MOV dbl(*SP(#6)), XAR3
         00076a BF   
    1933 00076b 22A9          MOV AR2, AR1
    1934 00076d D616          ADD *SP(#11), AR1, T0 ; |892| 
         00076f 49   
    1935 000770 ED6D          MOV dbl(*AR3(#8)), XAR3
         000772 BF00 
         000774 08   
    1936 000775 DF6B          MOV uns(low_byte(*AR3(T0))), AR1 ; |892| 
         000777 93   
    1937 000778 ED0C          MOV dbl(*SP(#6)), XAR3
         00077a BF   
    1938 00077b 22A4          MOV AR2, T0
    1939 00077d 5041          SFTL T0, #-1 ; |892| 
    1940 00077f ED6D          MOV dbl(*AR3(#12)), XAR3
         000781 BF00 
         000783 0C   
    1941 000784 C96B          MOV AR1, *AR3(T0) ; |892| 
    1942 000786       $C$DW$L$_CDC_bulkInHandler$9$E:
    1943 000786       $C$L40:    
    1944 000786       $C$DW$L$_CDC_bulkInHandler$10$B:
    1945                      .dwpsn  file "../c5535_bsl_revc/ezdsp5535_v1/c55xx_csl/src/csl_cdc.c",line 887,column 47,is_stmt
    1946 000786 F71A          ADD #1, *SP(#13) ; |887| 
TMS320C55x Assembler PC v4.4.1 Tue Sep 18 04:50:04 2018

Tools Copyright (c) 1996-2012 Texas Instruments Incorporated
csl_cdc.asm                                                          PAGE   46

         000788 0001 
    1947                      .dwpsn  file "../c5535_bsl_revc/ezdsp5535_v1/c55xx_csl/src/csl_cdc.c",line 887,column 14,is_stmt
    1948 00078a A018          MOV *SP(#12), AC0 ; |887| 
    1949 00078c DF16          SUB uns(*SP(#11)), AC0, AC0 ; |887| 
         00078e 0F   
    1950              
    1951 000791 2309          MOV AC0, AR1 ; |887| 
    1952 00078f AA1A  ||      MOV *SP(#13), AR2 ; |887| 
    1953              
    1954 000793 12A4          CMPU AR2 < AR1, TC1 ; |887| 
         000795 94   
    1955 000796 0464          BCC $C$L38,TC1 ; |887| 
         000798 A7   
    1956                                                      ; branchcc occurs ; |887| 
    1957 000799       $C$DW$L$_CDC_bulkInHandler$10$E:
    1958 000799       $C$L41:    
    1959                      .dwpsn  file "../c5535_bsl_revc/ezdsp5535_v1/c55xx_csl/src/csl_cdc.c",line 895,column 4,is_stmt
    1960 000799 ED08          MOV dbl(*SP(#4)), XAR3
         00079b BF   
    1961 00079c ED6D          MOV dbl(*AR3(#188)), XAR0
         00079e 8F00 
         0007a0 BC   
    1962 0007a1 ED0C          MOV dbl(*SP(#6)), XAR3
         0007a3 BF   
    1963 0007a4 A018          MOV *SP(#12), AC0 ; |895| 
    1964 0007a6 DF16          SUB uns(*SP(#11)), AC0, AC0 ; |895| 
         0007a8 0F   
    1965 0007a9 7600          MOV #128, T1 ; |895| 
         0007ab 8058 
    1966 0007ad ED6D          MOV dbl(*AR3(#12)), XAR1
         0007af 9F00 
         0007b1 0C   
    1967              $C$DW$147       .dwtag  DW_TAG_TI_branch
    1968                      .dwattr $C$DW$147, DW_AT_low_pc(0x00)
    1969                      .dwattr $C$DW$147, DW_AT_name("_USB_postTransaction")
    1970                      .dwattr $C$DW$147, DW_AT_TI_call
    1971              
    1972 0007b2 6C00          CALL #_USB_postTransaction ; |895| 
         0007b4 0000!
    1973 0007b6 2304  ||      MOV AC0, T0 ; |895| 
    1974              
    1975                                                      ; call occurs [#_USB_postTransaction] ; |895| 
    1976 0007b8 C410          MOV T0, *SP(#8) ; |895| 
    1977                      .dwpsn  file "../c5535_bsl_revc/ezdsp5535_v1/c55xx_csl/src/csl_cdc.c",line 897,column 4,is_stmt
    1978 0007ba 2249          MOV T0, AR1
    1979 0007bc 6689          BCC $C$L42,AR1 == #0 ; |897| 
    1980                                                      ; branchcc occurs ; |897| 
    1981                      .dwpsn  file "../c5535_bsl_revc/ezdsp5535_v1/c55xx_csl/src/csl_cdc.c",line 899,column 5,is_stmt
    1982 0007be EC31          AMOV #$C$FSL5, XAR3 ; |899| 
         0007c0 BE00 
         0007c2 0066+
    1983 0007c4 EB00          MOV XAR3, dbl(*SP(#0))
         0007c6 B5   
    1984              $C$DW$148       .dwtag  DW_TAG_TI_branch
    1985                      .dwattr $C$DW$148, DW_AT_low_pc(0x00)
TMS320C55x Assembler PC v4.4.1 Tue Sep 18 04:50:04 2018

Tools Copyright (c) 1996-2012 Texas Instruments Incorporated
csl_cdc.asm                                                          PAGE   47

    1986                      .dwattr $C$DW$148, DW_AT_name("_printf")
    1987                      .dwattr $C$DW$148, DW_AT_TI_call
    1988 0007c7 6C00          CALL #_printf ; |899| 
         0007c9 0000!
    1989                                                      ; call occurs [#_printf] ; |899| 
    1990 0007cb       $C$L42:    
    1991                      .dwpsn  file "../c5535_bsl_revc/ezdsp5535_v1/c55xx_csl/src/csl_cdc.c",line 903,column 4,is_stmt
    1992 0007cb ED08          MOV dbl(*SP(#4)), XAR3
         0007cd BF   
    1993 0007ce EC10          AMAR *SP(#8), XAR1
         0007d0 9E   
    1994 0007d1 ED6D          MOV dbl(*AR3(#188)), XAR0
         0007d3 8F00 
         0007d5 BC   
    1995              $C$DW$149       .dwtag  DW_TAG_TI_branch
    1996                      .dwattr $C$DW$149, DW_AT_low_pc(0x00)
    1997                      .dwattr $C$DW$149, DW_AT_name("_USB_isTransactionDone")
    1998                      .dwattr $C$DW$149, DW_AT_TI_call
    1999 0007d6 6C00          CALL #_USB_isTransactionDone ; |903| 
         0007d8 0000!
    2000                                                      ; call occurs [#_USB_isTransactionDone] ; |903| 
    2001 0007da C412          MOV T0, *SP(#9) ; |903| 
    2002                      .dwpsn  file "../c5535_bsl_revc/ezdsp5535_v1/c55xx_csl/src/csl_cdc.c",line 904,column 4,is_stmt
    2003 0007dc F012          CMP *SP(#9) == #1, TC1 ; |904| 
         0007de 0001 
    2004 0007e0 0464          BCC $C$L43,TC1 ; |904| 
         0007e2 27   
    2005                                                      ; branchcc occurs ; |904| 
    2006                      .dwpsn  file "../c5535_bsl_revc/ezdsp5535_v1/c55xx_csl/src/csl_cdc.c",line 906,column 5,is_stmt
    2007 0007e3 ED08          MOV dbl(*SP(#4)), XAR3
         0007e5 BF   
    2008 0007e6 EC10          AMAR *SP(#8), XAR1
         0007e8 9E   
    2009 0007e9 ED6D          MOV dbl(*AR3(#188)), XAR0
         0007eb 8F00 
         0007ed BC   
    2010              $C$DW$150       .dwtag  DW_TAG_TI_branch
    2011                      .dwattr $C$DW$150, DW_AT_low_pc(0x00)
    2012                      .dwattr $C$DW$150, DW_AT_name("_USB_bytesRemaining")
    2013                      .dwattr $C$DW$150, DW_AT_TI_call
    2014 0007ee 6C00          CALL #_USB_bytesRemaining ; |906| 
         0007f0 0000!
    2015                                                      ; call occurs [#_USB_bytesRemaining] ; |906| 
    2016 0007f2 C414          MOV T0, *SP(#10) ; |906| 
    2017                      .dwpsn  file "../c5535_bsl_revc/ezdsp5535_v1/c55xx_csl/src/csl_cdc.c",line 907,column 5,is_stmt
    2018 0007f4 2249          MOV T0, AR1
    2019 0007f6 0409          BCC $C$L43,AR1 == #0 ; |907| 
         0007f8 11   
    2020                                                      ; branchcc occurs ; |907| 
    2021                      .dwpsn  file "../c5535_bsl_revc/ezdsp5535_v1/c55xx_csl/src/csl_cdc.c",line 909,column 6,is_stmt
    2022 0007f9 EC31          AMOV #$C$FSL2, XAR3 ; |909| 
         0007fb BE00 
         0007fd 001C+
    2023 0007ff EB00          MOV XAR3, dbl(*SP(#0))
         000801 B5   
TMS320C55x Assembler PC v4.4.1 Tue Sep 18 04:50:04 2018

Tools Copyright (c) 1996-2012 Texas Instruments Incorporated
csl_cdc.asm                                                          PAGE   48

    2024 000802 A914          MOV *SP(#10), AR1 ; |909| 
    2025 000804 C904          MOV AR1, *SP(#2) ; |909| 
    2026              $C$DW$151       .dwtag  DW_TAG_TI_branch
    2027                      .dwattr $C$DW$151, DW_AT_low_pc(0x00)
    2028                      .dwattr $C$DW$151, DW_AT_name("_printf")
    2029                      .dwattr $C$DW$151, DW_AT_TI_call
    2030 000806 6C00          CALL #_printf ; |909| 
         000808 0000!
    2031                                                      ; call occurs [#_printf] ; |909| 
    2032 00080a       $C$L43:    
    2033                      .dwpsn  file "../c5535_bsl_revc/ezdsp5535_v1/c55xx_csl/src/csl_cdc.c",line 914,column 4,is_stmt
    2034 00080a ED0C          MOV dbl(*SP(#6)), XAR3
         00080c BF   
    2035 00080d A918          MOV *SP(#12), AR1 ; |914| 
    2036 00080f C96D          MOV AR1, *AR3(#10) ; |914| 
         000811 000A 
    2037                      .dwpsn  file "../c5535_bsl_revc/ezdsp5535_v1/c55xx_csl/src/csl_cdc.c",line 915,column 3,is_stmt
    2038 000813 0601          B $C$L57  ; |915| 
         000815 C7   
    2039                                                      ; branch occurs ; |915| 
    2040 000816       $C$L44:    
    2041                      .dwpsn  file "../c5535_bsl_revc/ezdsp5535_v1/c55xx_csl/src/csl_cdc.c",line 915,column 10,is_stmt
    2042 000816 12A8          CMPU AR2 >= AR1, TC1 ; |915| 
         000818 94   
    2043 000819 6D64          BCC $C$L57,TC1 ; |915| 
         00081b 01C0 
    2044                                                      ; branchcc occurs ; |915| 
    2045                      .dwpsn  file "../c5535_bsl_revc/ezdsp5535_v1/c55xx_csl/src/csl_cdc.c",line 920,column 9,is_stmt
    2046 00081d E61A          MOV #0, *SP(#13) ; |920| 
         00081f 00   
    2047                      .dwpsn  file "../c5535_bsl_revc/ezdsp5535_v1/c55xx_csl/src/csl_cdc.c",line 920,column 14,is_stmt
    2048 000820 7602          MOV #512, AC0 ; |920| 
         000822 0008 
    2049 000824 DF16          SUB uns(*SP(#11)), AC0, AC0 ; |920| 
         000826 0F   
    2050              
    2051 000829 2309          MOV AC0, AR1 ; |920| 
    2052 000827 AA1A  ||      MOV *SP(#13), AR2 ; |920| 
    2053              
    2054 00082b 12A8          CMPU AR2 >= AR1, TC1 ; |920| 
         00082d 94   
    2055 00082e 0464          BCC $C$L48,TC1 ; |920| 
         000830 5B   
    2056                                                      ; branchcc occurs ; |920| 
    2057 000831       $C$L45:    
    2058 000831       $C$DW$L$_CDC_bulkInHandler$19$B:
    2059                      .dwpsn  file "../c5535_bsl_revc/ezdsp5535_v1/c55xx_csl/src/csl_cdc.c",line 922,column 5,is_stmt
    2060 000831 DC1A          BTST #0, *SP(#13), TC1 ; |922| 
         000833 00   
    2061 000834 0474          BCC $C$L46,!TC1 ; |922| 
         000836 22   
    2062                                                      ; branchcc occurs ; |922| 
    2063 000837       $C$DW$L$_CDC_bulkInHandler$19$E:
    2064 000837       $C$DW$L$_CDC_bulkInHandler$20$B:
    2065                      .dwpsn  file "../c5535_bsl_revc/ezdsp5535_v1/c55xx_csl/src/csl_cdc.c",line 923,column 6,is_stmt
TMS320C55x Assembler PC v4.4.1 Tue Sep 18 04:50:04 2018

Tools Copyright (c) 1996-2012 Texas Instruments Incorporated
csl_cdc.asm                                                          PAGE   49

    2066 000837 ED0C          MOV dbl(*SP(#6)), XAR3
         000839 BF   
    2067 00083a 22A9          MOV AR2, AR1
    2068 00083c D616          ADD *SP(#11), AR1, T0 ; |923| 
         00083e 49   
    2069 00083f ED6D          MOV dbl(*AR3(#8)), XAR3
         000841 BF00 
         000843 08   
    2070 000844 A06B          MOV *AR3(T0), AC0 ; |923| 
    2071 000846 ED0C          MOV dbl(*SP(#6)), XAR3
         000848 BF   
    2072              
    2073 000849 1007          SFTL AC0, #8, AC0 ; |923| 
         00084b 08   
    2074 00084c 23A4  ||      MOV AR2, T0
    2075              
    2076 00084e 5041          SFTL T0, #-1 ; |923| 
    2077 000850 ED6D          MOV dbl(*AR3(#12)), XAR3
         000852 BF00 
         000854 0C   
    2078 000855 C06B          MOV AC0, *AR3(T0) ; |923| 
    2079 000857 4A1E          B $C$L47  ; |923| 
    2080                                                      ; branch occurs ; |923| 
    2081 000859       $C$DW$L$_CDC_bulkInHandler$20$E:
    2082 000859       $C$L46:    
    2083 000859       $C$DW$L$_CDC_bulkInHandler$21$B:
    2084                      .dwpsn  file "../c5535_bsl_revc/ezdsp5535_v1/c55xx_csl/src/csl_cdc.c",line 925,column 6,is_stmt
    2085 000859 ED0C          MOV dbl(*SP(#6)), XAR3
         00085b BF   
    2086 00085c 22A9          MOV AR2, AR1
    2087 00085e D616          ADD *SP(#11), AR1, T0 ; |925| 
         000860 49   
    2088 000861 ED6D          MOV dbl(*AR3(#8)), XAR3
         000863 BF00 
         000865 08   
    2089 000866 DF6B          MOV uns(low_byte(*AR3(T0))), AR1 ; |925| 
         000868 93   
    2090 000869 ED0C          MOV dbl(*SP(#6)), XAR3
         00086b BF   
    2091 00086c 22A4          MOV AR2, T0
    2092 00086e 5041          SFTL T0, #-1 ; |925| 
    2093 000870 ED6D          MOV dbl(*AR3(#12)), XAR3
         000872 BF00 
         000874 0C   
    2094 000875 C96B          MOV AR1, *AR3(T0) ; |925| 
    2095 000877       $C$DW$L$_CDC_bulkInHandler$21$E:
    2096 000877       $C$L47:    
    2097 000877       $C$DW$L$_CDC_bulkInHandler$22$B:
    2098                      .dwpsn  file "../c5535_bsl_revc/ezdsp5535_v1/c55xx_csl/src/csl_cdc.c",line 920,column 60,is_stmt
    2099 000877 F71A          ADD #1, *SP(#13) ; |920| 
         000879 0001 
    2100                      .dwpsn  file "../c5535_bsl_revc/ezdsp5535_v1/c55xx_csl/src/csl_cdc.c",line 920,column 14,is_stmt
    2101 00087b 7602          MOV #512, AC0 ; |920| 
         00087d 0008 
    2102 00087f DF16          SUB uns(*SP(#11)), AC0, AC0 ; |920| 
TMS320C55x Assembler PC v4.4.1 Tue Sep 18 04:50:04 2018

Tools Copyright (c) 1996-2012 Texas Instruments Incorporated
csl_cdc.asm                                                          PAGE   50

         000881 0F   
    2103              
    2104 000884 2309          MOV AC0, AR1 ; |920| 
    2105 000882 AA1A  ||      MOV *SP(#13), AR2 ; |920| 
    2106              
    2107 000886 12A4          CMPU AR2 < AR1, TC1 ; |920| 
         000888 94   
    2108 000889 0464          BCC $C$L45,TC1 ; |920| 
         00088b A5   
    2109                                                      ; branchcc occurs ; |920| 
    2110 00088c       $C$DW$L$_CDC_bulkInHandler$22$E:
    2111 00088c       $C$L48:    
    2112                      .dwpsn  file "../c5535_bsl_revc/ezdsp5535_v1/c55xx_csl/src/csl_cdc.c",line 928,column 4,is_stmt
    2113 00088c ED08          MOV dbl(*SP(#4)), XAR3
         00088e BF   
    2114 00088f ED6D          MOV dbl(*AR3(#188)), XAR0
         000891 8F00 
         000893 BC   
    2115 000894 ED0C          MOV dbl(*SP(#6)), XAR3
         000896 BF   
    2116 000897 7602          MOV #512, AC0 ; |928| 
         000899 0008 
    2117 00089b DF16          SUB uns(*SP(#11)), AC0, AC0 ; |928| 
         00089d 0F   
    2118 00089e 7600          MOV #128, T1 ; |928| 
         0008a0 8058 
    2119 0008a2 ED6D          MOV dbl(*AR3(#12)), XAR1
         0008a4 9F00 
         0008a6 0C   
    2120              $C$DW$152       .dwtag  DW_TAG_TI_branch
    2121                      .dwattr $C$DW$152, DW_AT_low_pc(0x00)
    2122                      .dwattr $C$DW$152, DW_AT_name("_USB_postTransaction")
    2123                      .dwattr $C$DW$152, DW_AT_TI_call
    2124              
    2125 0008a7 6C00          CALL #_USB_postTransaction ; |928| 
         0008a9 0000!
    2126 0008ab 2304  ||      MOV AC0, T0 ; |928| 
    2127              
    2128                                                      ; call occurs [#_USB_postTransaction] ; |928| 
    2129 0008ad C410          MOV T0, *SP(#8) ; |928| 
    2130                      .dwpsn  file "../c5535_bsl_revc/ezdsp5535_v1/c55xx_csl/src/csl_cdc.c",line 930,column 4,is_stmt
    2131 0008af 2249          MOV T0, AR1
    2132 0008b1 6689          BCC $C$L49,AR1 == #0 ; |930| 
    2133                                                      ; branchcc occurs ; |930| 
    2134                      .dwpsn  file "../c5535_bsl_revc/ezdsp5535_v1/c55xx_csl/src/csl_cdc.c",line 932,column 5,is_stmt
    2135 0008b3 EC31          AMOV #$C$FSL5, XAR3 ; |932| 
         0008b5 BE00 
         0008b7 0066+
    2136 0008b9 EB00          MOV XAR3, dbl(*SP(#0))
         0008bb B5   
    2137              $C$DW$153       .dwtag  DW_TAG_TI_branch
    2138                      .dwattr $C$DW$153, DW_AT_low_pc(0x00)
    2139                      .dwattr $C$DW$153, DW_AT_name("_printf")
    2140                      .dwattr $C$DW$153, DW_AT_TI_call
    2141 0008bc 6C00          CALL #_printf ; |932| 
TMS320C55x Assembler PC v4.4.1 Tue Sep 18 04:50:04 2018

Tools Copyright (c) 1996-2012 Texas Instruments Incorporated
csl_cdc.asm                                                          PAGE   51

         0008be 0000!
    2142                                                      ; call occurs [#_printf] ; |932| 
    2143 0008c0       $C$L49:    
    2144                      .dwpsn  file "../c5535_bsl_revc/ezdsp5535_v1/c55xx_csl/src/csl_cdc.c",line 936,column 4,is_stmt
    2145 0008c0 ED08          MOV dbl(*SP(#4)), XAR3
         0008c2 BF   
    2146 0008c3 EC10          AMAR *SP(#8), XAR1
         0008c5 9E   
    2147 0008c6 ED6D          MOV dbl(*AR3(#188)), XAR0
         0008c8 8F00 
         0008ca BC   
    2148              $C$DW$154       .dwtag  DW_TAG_TI_branch
    2149                      .dwattr $C$DW$154, DW_AT_low_pc(0x00)
    2150                      .dwattr $C$DW$154, DW_AT_name("_USB_isTransactionDone")
    2151                      .dwattr $C$DW$154, DW_AT_TI_call
    2152 0008cb 6C00          CALL #_USB_isTransactionDone ; |936| 
         0008cd 0000!
    2153                                                      ; call occurs [#_USB_isTransactionDone] ; |936| 
    2154 0008cf C412          MOV T0, *SP(#9) ; |936| 
    2155                      .dwpsn  file "../c5535_bsl_revc/ezdsp5535_v1/c55xx_csl/src/csl_cdc.c",line 937,column 4,is_stmt
    2156 0008d1 F012          CMP *SP(#9) == #1, TC1 ; |937| 
         0008d3 0001 
    2157 0008d5 0464          BCC $C$L50,TC1 ; |937| 
         0008d7 27   
    2158                                                      ; branchcc occurs ; |937| 
    2159                      .dwpsn  file "../c5535_bsl_revc/ezdsp5535_v1/c55xx_csl/src/csl_cdc.c",line 939,column 5,is_stmt
    2160 0008d8 ED08          MOV dbl(*SP(#4)), XAR3
         0008da BF   
    2161 0008db EC10          AMAR *SP(#8), XAR1
         0008dd 9E   
    2162 0008de ED6D          MOV dbl(*AR3(#188)), XAR0
         0008e0 8F00 
         0008e2 BC   
    2163              $C$DW$155       .dwtag  DW_TAG_TI_branch
    2164                      .dwattr $C$DW$155, DW_AT_low_pc(0x00)
    2165                      .dwattr $C$DW$155, DW_AT_name("_USB_bytesRemaining")
    2166                      .dwattr $C$DW$155, DW_AT_TI_call
    2167 0008e3 6C00          CALL #_USB_bytesRemaining ; |939| 
         0008e5 0000!
    2168                                                      ; call occurs [#_USB_bytesRemaining] ; |939| 
    2169 0008e7 C414          MOV T0, *SP(#10) ; |939| 
    2170                      .dwpsn  file "../c5535_bsl_revc/ezdsp5535_v1/c55xx_csl/src/csl_cdc.c",line 940,column 5,is_stmt
    2171 0008e9 2249          MOV T0, AR1
    2172 0008eb 0409          BCC $C$L50,AR1 == #0 ; |940| 
         0008ed 11   
    2173                                                      ; branchcc occurs ; |940| 
    2174                      .dwpsn  file "../c5535_bsl_revc/ezdsp5535_v1/c55xx_csl/src/csl_cdc.c",line 942,column 6,is_stmt
    2175 0008ee EC31          AMOV #$C$FSL2, XAR3 ; |942| 
         0008f0 BE00 
         0008f2 001C+
    2176 0008f4 EB00          MOV XAR3, dbl(*SP(#0))
         0008f6 B5   
    2177 0008f7 A914          MOV *SP(#10), AR1 ; |942| 
    2178 0008f9 C904          MOV AR1, *SP(#2) ; |942| 
    2179              $C$DW$156       .dwtag  DW_TAG_TI_branch
TMS320C55x Assembler PC v4.4.1 Tue Sep 18 04:50:04 2018

Tools Copyright (c) 1996-2012 Texas Instruments Incorporated
csl_cdc.asm                                                          PAGE   52

    2180                      .dwattr $C$DW$156, DW_AT_low_pc(0x00)
    2181                      .dwattr $C$DW$156, DW_AT_name("_printf")
    2182                      .dwattr $C$DW$156, DW_AT_TI_call
    2183 0008fb 6C00          CALL #_printf ; |942| 
         0008fd 0000!
    2184                                                      ; call occurs [#_printf] ; |942| 
    2185 0008ff       $C$L50:    
    2186                      .dwpsn  file "../c5535_bsl_revc/ezdsp5535_v1/c55xx_csl/src/csl_cdc.c",line 947,column 4,is_stmt
    2187 0008ff ED0C          MOV dbl(*SP(#6)), XAR3
         000901 BF   
    2188 000902 E66D          MOV #0, *AR3(#10) ; |947| 
         000904 0000 
         000906 0A   
    2189                      .dwpsn  file "../c5535_bsl_revc/ezdsp5535_v1/c55xx_csl/src/csl_cdc.c",line 951,column 9,is_stmt
    2190 000907 E61A          MOV #0, *SP(#13) ; |951| 
         000909 00   
    2191                      .dwpsn  file "../c5535_bsl_revc/ezdsp5535_v1/c55xx_csl/src/csl_cdc.c",line 951,column 14,is_stmt
    2192 00090a A918          MOV *SP(#12), AR1 ; |951| 
    2193 00090c AA1A          MOV *SP(#13), AR2 ; |951| 
    2194 00090e 12A8          CMPU AR2 >= AR1, TC1 ; |951| 
         000910 94   
    2195 000911 0464          BCC $C$L54,TC1 ; |951| 
         000913 54   
    2196                                                      ; branchcc occurs ; |951| 
    2197 000914       $C$L51:    
    2198 000914       $C$DW$L$_CDC_bulkInHandler$29$B:
    2199                      .dwpsn  file "../c5535_bsl_revc/ezdsp5535_v1/c55xx_csl/src/csl_cdc.c",line 953,column 5,is_stmt
    2200 000914 DC1A          BTST #0, *SP(#13), TC1 ; |953| 
         000916 00   
    2201 000917 0474          BCC $C$L52,!TC1 ; |953| 
         000919 22   
    2202                                                      ; branchcc occurs ; |953| 
    2203 00091a       $C$DW$L$_CDC_bulkInHandler$29$E:
    2204 00091a       $C$DW$L$_CDC_bulkInHandler$30$B:
    2205                      .dwpsn  file "../c5535_bsl_revc/ezdsp5535_v1/c55xx_csl/src/csl_cdc.c",line 954,column 6,is_stmt
    2206 00091a ED0C          MOV dbl(*SP(#6)), XAR3
         00091c BF   
    2207 00091d 22A9          MOV AR2, AR1
    2208 00091f D616          ADD *SP(#11), AR1, T0 ; |954| 
         000921 49   
    2209 000922 ED6D          MOV dbl(*AR3(#8)), XAR3
         000924 BF00 
         000926 08   
    2210 000927 A06B          MOV *AR3(T0), AC0 ; |954| 
    2211 000929 ED0C          MOV dbl(*SP(#6)), XAR3
         00092b BF   
    2212              
    2213 00092c 1007          SFTL AC0, #8, AC0 ; |954| 
         00092e 08   
    2214 00092f 23A4  ||      MOV AR2, T0
    2215              
    2216 000931 5041          SFTL T0, #-1 ; |954| 
    2217 000933 ED6D          MOV dbl(*AR3(#12)), XAR3
         000935 BF00 
         000937 0C   
TMS320C55x Assembler PC v4.4.1 Tue Sep 18 04:50:04 2018

Tools Copyright (c) 1996-2012 Texas Instruments Incorporated
csl_cdc.asm                                                          PAGE   53

    2218 000938 C06B          MOV AC0, *AR3(T0) ; |954| 
    2219 00093a 4A1E          B $C$L53  ; |954| 
    2220                                                      ; branch occurs ; |954| 
    2221 00093c       $C$DW$L$_CDC_bulkInHandler$30$E:
    2222 00093c       $C$L52:    
    2223 00093c       $C$DW$L$_CDC_bulkInHandler$31$B:
    2224                      .dwpsn  file "../c5535_bsl_revc/ezdsp5535_v1/c55xx_csl/src/csl_cdc.c",line 956,column 6,is_stmt
    2225 00093c ED0C          MOV dbl(*SP(#6)), XAR3
         00093e BF   
    2226 00093f 22A9          MOV AR2, AR1
    2227 000941 D616          ADD *SP(#11), AR1, T0 ; |956| 
         000943 49   
    2228 000944 ED6D          MOV dbl(*AR3(#8)), XAR3
         000946 BF00 
         000948 08   
    2229 000949 DF6B          MOV uns(low_byte(*AR3(T0))), AR1 ; |956| 
         00094b 93   
    2230 00094c ED0C          MOV dbl(*SP(#6)), XAR3
         00094e BF   
    2231 00094f 22A4          MOV AR2, T0
    2232 000951 5041          SFTL T0, #-1 ; |956| 
    2233 000953 ED6D          MOV dbl(*AR3(#12)), XAR3
         000955 BF00 
         000957 0C   
    2234 000958 C96B          MOV AR1, *AR3(T0) ; |956| 
    2235 00095a       $C$DW$L$_CDC_bulkInHandler$31$E:
    2236 00095a       $C$L53:    
    2237 00095a       $C$DW$L$_CDC_bulkInHandler$32$B:
    2238                      .dwpsn  file "../c5535_bsl_revc/ezdsp5535_v1/c55xx_csl/src/csl_cdc.c",line 951,column 30,is_stmt
    2239 00095a F71A          ADD #1, *SP(#13) ; |951| 
         00095c 0001 
    2240                      .dwpsn  file "../c5535_bsl_revc/ezdsp5535_v1/c55xx_csl/src/csl_cdc.c",line 951,column 14,is_stmt
    2241 00095e A918          MOV *SP(#12), AR1 ; |951| 
    2242 000960 AA1A          MOV *SP(#13), AR2 ; |951| 
    2243 000962 12A4          CMPU AR2 < AR1, TC1 ; |951| 
         000964 94   
    2244 000965 0464          BCC $C$L51,TC1 ; |951| 
         000967 AC   
    2245                                                      ; branchcc occurs ; |951| 
    2246 000968       $C$DW$L$_CDC_bulkInHandler$32$E:
    2247 000968       $C$L54:    
    2248                      .dwpsn  file "../c5535_bsl_revc/ezdsp5535_v1/c55xx_csl/src/csl_cdc.c",line 959,column 4,is_stmt
    2249 000968 ED08          MOV dbl(*SP(#4)), XAR3
         00096a BF   
    2250 00096b ED6D          MOV dbl(*AR3(#188)), XAR0
         00096d 8F00 
         00096f BC   
    2251 000970 ED0C          MOV dbl(*SP(#6)), XAR3
         000972 BF   
    2252 000973 A418          MOV *SP(#12), T0 ; |959| 
    2253 000975 7600          MOV #128, T1 ; |959| 
         000977 8058 
    2254 000979 ED6D          MOV dbl(*AR3(#12)), XAR1
         00097b 9F00 
         00097d 0C   
TMS320C55x Assembler PC v4.4.1 Tue Sep 18 04:50:04 2018

Tools Copyright (c) 1996-2012 Texas Instruments Incorporated
csl_cdc.asm                                                          PAGE   54

    2255              $C$DW$157       .dwtag  DW_TAG_TI_branch
    2256                      .dwattr $C$DW$157, DW_AT_low_pc(0x00)
    2257                      .dwattr $C$DW$157, DW_AT_name("_USB_postTransaction")
    2258                      .dwattr $C$DW$157, DW_AT_TI_call
    2259 00097e 6C00          CALL #_USB_postTransaction ; |959| 
         000980 0000!
    2260                                                      ; call occurs [#_USB_postTransaction] ; |959| 
    2261 000982 C410          MOV T0, *SP(#8) ; |959| 
    2262                      .dwpsn  file "../c5535_bsl_revc/ezdsp5535_v1/c55xx_csl/src/csl_cdc.c",line 961,column 4,is_stmt
    2263 000984 2249          MOV T0, AR1
    2264 000986 6689          BCC $C$L55,AR1 == #0 ; |961| 
    2265                                                      ; branchcc occurs ; |961| 
    2266                      .dwpsn  file "../c5535_bsl_revc/ezdsp5535_v1/c55xx_csl/src/csl_cdc.c",line 963,column 5,is_stmt
    2267 000988 EC31          AMOV #$C$FSL5, XAR3 ; |963| 
         00098a BE00 
         00098c 0066+
    2268 00098e EB00          MOV XAR3, dbl(*SP(#0))
         000990 B5   
    2269              $C$DW$158       .dwtag  DW_TAG_TI_branch
    2270                      .dwattr $C$DW$158, DW_AT_low_pc(0x00)
    2271                      .dwattr $C$DW$158, DW_AT_name("_printf")
    2272                      .dwattr $C$DW$158, DW_AT_TI_call
    2273 000991 6C00          CALL #_printf ; |963| 
         000993 0000!
    2274                                                      ; call occurs [#_printf] ; |963| 
    2275 000995       $C$L55:    
    2276                      .dwpsn  file "../c5535_bsl_revc/ezdsp5535_v1/c55xx_csl/src/csl_cdc.c",line 967,column 4,is_stmt
    2277 000995 ED08          MOV dbl(*SP(#4)), XAR3
         000997 BF   
    2278 000998 EC10          AMAR *SP(#8), XAR1
         00099a 9E   
    2279 00099b ED6D          MOV dbl(*AR3(#188)), XAR0
         00099d 8F00 
         00099f BC   
    2280              $C$DW$159       .dwtag  DW_TAG_TI_branch
    2281                      .dwattr $C$DW$159, DW_AT_low_pc(0x00)
    2282                      .dwattr $C$DW$159, DW_AT_name("_USB_isTransactionDone")
    2283                      .dwattr $C$DW$159, DW_AT_TI_call
    2284 0009a0 6C00          CALL #_USB_isTransactionDone ; |967| 
         0009a2 0000!
    2285                                                      ; call occurs [#_USB_isTransactionDone] ; |967| 
    2286 0009a4 C412          MOV T0, *SP(#9) ; |967| 
    2287                      .dwpsn  file "../c5535_bsl_revc/ezdsp5535_v1/c55xx_csl/src/csl_cdc.c",line 968,column 4,is_stmt
    2288 0009a6 F012          CMP *SP(#9) == #1, TC1 ; |968| 
         0009a8 0001 
    2289 0009aa 0464          BCC $C$L56,TC1 ; |968| 
         0009ac 27   
    2290                                                      ; branchcc occurs ; |968| 
    2291                      .dwpsn  file "../c5535_bsl_revc/ezdsp5535_v1/c55xx_csl/src/csl_cdc.c",line 970,column 5,is_stmt
    2292 0009ad ED08          MOV dbl(*SP(#4)), XAR3
         0009af BF   
    2293 0009b0 EC10          AMAR *SP(#8), XAR1
         0009b2 9E   
    2294 0009b3 ED6D          MOV dbl(*AR3(#188)), XAR0
         0009b5 8F00 
TMS320C55x Assembler PC v4.4.1 Tue Sep 18 04:50:04 2018

Tools Copyright (c) 1996-2012 Texas Instruments Incorporated
csl_cdc.asm                                                          PAGE   55

         0009b7 BC   
    2295              $C$DW$160       .dwtag  DW_TAG_TI_branch
    2296                      .dwattr $C$DW$160, DW_AT_low_pc(0x00)
    2297                      .dwattr $C$DW$160, DW_AT_name("_USB_bytesRemaining")
    2298                      .dwattr $C$DW$160, DW_AT_TI_call
    2299 0009b8 6C00          CALL #_USB_bytesRemaining ; |970| 
         0009ba 0000!
    2300                                                      ; call occurs [#_USB_bytesRemaining] ; |970| 
    2301 0009bc C414          MOV T0, *SP(#10) ; |970| 
    2302                      .dwpsn  file "../c5535_bsl_revc/ezdsp5535_v1/c55xx_csl/src/csl_cdc.c",line 971,column 5,is_stmt
    2303 0009be 2249          MOV T0, AR1
    2304 0009c0 0409          BCC $C$L56,AR1 == #0 ; |971| 
         0009c2 11   
    2305                                                      ; branchcc occurs ; |971| 
    2306                      .dwpsn  file "../c5535_bsl_revc/ezdsp5535_v1/c55xx_csl/src/csl_cdc.c",line 973,column 6,is_stmt
    2307 0009c3 EC31          AMOV #$C$FSL2, XAR3 ; |973| 
         0009c5 BE00 
         0009c7 001C+
    2308 0009c9 EB00          MOV XAR3, dbl(*SP(#0))
         0009cb B5   
    2309 0009cc A914          MOV *SP(#10), AR1 ; |973| 
    2310 0009ce C904          MOV AR1, *SP(#2) ; |973| 
    2311              $C$DW$161       .dwtag  DW_TAG_TI_branch
    2312                      .dwattr $C$DW$161, DW_AT_low_pc(0x00)
    2313                      .dwattr $C$DW$161, DW_AT_name("_printf")
    2314                      .dwattr $C$DW$161, DW_AT_TI_call
    2315 0009d0 6C00          CALL #_printf ; |973| 
         0009d2 0000!
    2316                                                      ; call occurs [#_printf] ; |973| 
    2317 0009d4       $C$L56:    
    2318                      .dwpsn  file "../c5535_bsl_revc/ezdsp5535_v1/c55xx_csl/src/csl_cdc.c",line 978,column 4,is_stmt
    2319 0009d4 ED0C          MOV dbl(*SP(#6)), XAR3
         0009d6 BF   
    2320 0009d7 A918          MOV *SP(#12), AR1 ; |978| 
    2321 0009d9 C96D          MOV AR1, *AR3(#10) ; |978| 
         0009db 000A 
    2322 0009dd       $C$L57:    
    2323                      .dwpsn  file "../c5535_bsl_revc/ezdsp5535_v1/c55xx_csl/src/csl_cdc.c",line 982,column 2,is_stmt
    2324 0009dd A410          MOV *SP(#8), T0 ; |982| 
    2325 0009df       $C$L58:    
    2326                      .dwpsn  file "../c5535_bsl_revc/ezdsp5535_v1/c55xx_csl/src/csl_cdc.c",line 983,column 1,is_stmt
    2327 0009df 4E0F          AADD #15, SP
    2328                      .dwcfi  cfa_offset, 1
    2329              $C$DW$162       .dwtag  DW_TAG_TI_branch
    2330                      .dwattr $C$DW$162, DW_AT_low_pc(0x00)
    2331                      .dwattr $C$DW$162, DW_AT_TI_return
    2332 0009e1 4804          RET
    2333                                                      ; return occurs
    2334              
    2335              $C$DW$163       .dwtag  DW_TAG_TI_loop
    2336                      .dwattr $C$DW$163, DW_AT_name("F:\eZdsp_DBG\eZDSP_5535_Files\ccsws2\test\Debug\csl_cdc.asm:$C$L51:1:1
    2337                      .dwattr $C$DW$163, DW_AT_TI_begin_file("../c5535_bsl_revc/ezdsp5535_v1/c55xx_csl/src/csl_cdc.c")
    2338                      .dwattr $C$DW$163, DW_AT_TI_begin_line(0x3b7)
    2339                      .dwattr $C$DW$163, DW_AT_TI_end_line(0x3bd)
    2340              $C$DW$164       .dwtag  DW_TAG_TI_loop_range
TMS320C55x Assembler PC v4.4.1 Tue Sep 18 04:50:04 2018

Tools Copyright (c) 1996-2012 Texas Instruments Incorporated
csl_cdc.asm                                                          PAGE   56

    2341                      .dwattr $C$DW$164, DW_AT_low_pc($C$DW$L$_CDC_bulkInHandler$29$B)
    2342                      .dwattr $C$DW$164, DW_AT_high_pc($C$DW$L$_CDC_bulkInHandler$29$E)
    2343              $C$DW$165       .dwtag  DW_TAG_TI_loop_range
    2344                      .dwattr $C$DW$165, DW_AT_low_pc($C$DW$L$_CDC_bulkInHandler$30$B)
    2345                      .dwattr $C$DW$165, DW_AT_high_pc($C$DW$L$_CDC_bulkInHandler$30$E)
    2346              $C$DW$166       .dwtag  DW_TAG_TI_loop_range
    2347                      .dwattr $C$DW$166, DW_AT_low_pc($C$DW$L$_CDC_bulkInHandler$31$B)
    2348                      .dwattr $C$DW$166, DW_AT_high_pc($C$DW$L$_CDC_bulkInHandler$31$E)
    2349              $C$DW$167       .dwtag  DW_TAG_TI_loop_range
    2350                      .dwattr $C$DW$167, DW_AT_low_pc($C$DW$L$_CDC_bulkInHandler$32$B)
    2351                      .dwattr $C$DW$167, DW_AT_high_pc($C$DW$L$_CDC_bulkInHandler$32$E)
    2352                      .dwendtag $C$DW$163
    2353              
    2354              
    2355              $C$DW$168       .dwtag  DW_TAG_TI_loop
    2356                      .dwattr $C$DW$168, DW_AT_name("F:\eZdsp_DBG\eZDSP_5535_Files\ccsws2\test\Debug\csl_cdc.asm:$C$L45:1:1
    2357                      .dwattr $C$DW$168, DW_AT_TI_begin_file("../c5535_bsl_revc/ezdsp5535_v1/c55xx_csl/src/csl_cdc.c")
    2358                      .dwattr $C$DW$168, DW_AT_TI_begin_line(0x398)
    2359                      .dwattr $C$DW$168, DW_AT_TI_end_line(0x39e)
    2360              $C$DW$169       .dwtag  DW_TAG_TI_loop_range
    2361                      .dwattr $C$DW$169, DW_AT_low_pc($C$DW$L$_CDC_bulkInHandler$19$B)
    2362                      .dwattr $C$DW$169, DW_AT_high_pc($C$DW$L$_CDC_bulkInHandler$19$E)
    2363              $C$DW$170       .dwtag  DW_TAG_TI_loop_range
    2364                      .dwattr $C$DW$170, DW_AT_low_pc($C$DW$L$_CDC_bulkInHandler$20$B)
    2365                      .dwattr $C$DW$170, DW_AT_high_pc($C$DW$L$_CDC_bulkInHandler$20$E)
    2366              $C$DW$171       .dwtag  DW_TAG_TI_loop_range
    2367                      .dwattr $C$DW$171, DW_AT_low_pc($C$DW$L$_CDC_bulkInHandler$21$B)
    2368                      .dwattr $C$DW$171, DW_AT_high_pc($C$DW$L$_CDC_bulkInHandler$21$E)
    2369              $C$DW$172       .dwtag  DW_TAG_TI_loop_range
    2370                      .dwattr $C$DW$172, DW_AT_low_pc($C$DW$L$_CDC_bulkInHandler$22$B)
    2371                      .dwattr $C$DW$172, DW_AT_high_pc($C$DW$L$_CDC_bulkInHandler$22$E)
    2372                      .dwendtag $C$DW$168
    2373              
    2374              
    2375              $C$DW$173       .dwtag  DW_TAG_TI_loop
    2376                      .dwattr $C$DW$173, DW_AT_name("F:\eZdsp_DBG\eZDSP_5535_Files\ccsws2\test\Debug\csl_cdc.asm:$C$L38:1:1
    2377                      .dwattr $C$DW$173, DW_AT_TI_begin_file("../c5535_bsl_revc/ezdsp5535_v1/c55xx_csl/src/csl_cdc.c")
    2378                      .dwattr $C$DW$173, DW_AT_TI_begin_line(0x377)
    2379                      .dwattr $C$DW$173, DW_AT_TI_end_line(0x37d)
    2380              $C$DW$174       .dwtag  DW_TAG_TI_loop_range
    2381                      .dwattr $C$DW$174, DW_AT_low_pc($C$DW$L$_CDC_bulkInHandler$7$B)
    2382                      .dwattr $C$DW$174, DW_AT_high_pc($C$DW$L$_CDC_bulkInHandler$7$E)
    2383              $C$DW$175       .dwtag  DW_TAG_TI_loop_range
    2384                      .dwattr $C$DW$175, DW_AT_low_pc($C$DW$L$_CDC_bulkInHandler$8$B)
    2385                      .dwattr $C$DW$175, DW_AT_high_pc($C$DW$L$_CDC_bulkInHandler$8$E)
    2386              $C$DW$176       .dwtag  DW_TAG_TI_loop_range
    2387                      .dwattr $C$DW$176, DW_AT_low_pc($C$DW$L$_CDC_bulkInHandler$9$B)
    2388                      .dwattr $C$DW$176, DW_AT_high_pc($C$DW$L$_CDC_bulkInHandler$9$E)
    2389              $C$DW$177       .dwtag  DW_TAG_TI_loop_range
    2390                      .dwattr $C$DW$177, DW_AT_low_pc($C$DW$L$_CDC_bulkInHandler$10$B)
    2391                      .dwattr $C$DW$177, DW_AT_high_pc($C$DW$L$_CDC_bulkInHandler$10$E)
    2392                      .dwendtag $C$DW$173
    2393              
    2394                      .dwattr $C$DW$136, DW_AT_TI_end_file("../c5535_bsl_revc/ezdsp5535_v1/c55xx_csl/src/csl_cdc.c")
    2395                      .dwattr $C$DW$136, DW_AT_TI_end_line(0x3d7)
TMS320C55x Assembler PC v4.4.1 Tue Sep 18 04:50:04 2018

Tools Copyright (c) 1996-2012 Texas Instruments Incorporated
csl_cdc.asm                                                          PAGE   57

    2396                      .dwattr $C$DW$136, DW_AT_TI_end_column(0x01)
    2397                      .dwendentry
    2398                      .dwendtag $C$DW$136
    2399              
    2400 0009e3               .sect   ".text"
    2401                      .align 4
    2402                      .global _CDC_getData
    2403              
    2404              $C$DW$178       .dwtag  DW_TAG_subprogram, DW_AT_name("CDC_getData")
    2405                      .dwattr $C$DW$178, DW_AT_low_pc(_CDC_getData)
    2406                      .dwattr $C$DW$178, DW_AT_high_pc(0x00)
    2407                      .dwattr $C$DW$178, DW_AT_TI_symbol_name("_CDC_getData")
    2408                      .dwattr $C$DW$178, DW_AT_external
    2409                      .dwattr $C$DW$178, DW_AT_type(*$C$DW$T$20)
    2410                      .dwattr $C$DW$178, DW_AT_TI_begin_file("../c5535_bsl_revc/ezdsp5535_v1/c55xx_csl/src/csl_cdc.c")
    2411                      .dwattr $C$DW$178, DW_AT_TI_begin_line(0x413)
    2412                      .dwattr $C$DW$178, DW_AT_TI_begin_column(0x08)
    2413                      .dwattr $C$DW$178, DW_AT_TI_max_frame_size(0x0c)
    2414                      .dwpsn  file "../c5535_bsl_revc/ezdsp5535_v1/c55xx_csl/src/csl_cdc.c",line 1044,column 1,is_stmt,addr
    2415              
    2416                      .dwfde $C$DW$CIE, _CDC_getData
    2417              $C$DW$179       .dwtag  DW_TAG_formal_parameter, DW_AT_name("pContext")
    2418                      .dwattr $C$DW$179, DW_AT_TI_symbol_name("_pContext")
    2419                      .dwattr $C$DW$179, DW_AT_type(*$C$DW$T$136)
    2420                      .dwattr $C$DW$179, DW_AT_location[DW_OP_reg17]
    2421              $C$DW$180       .dwtag  DW_TAG_formal_parameter, DW_AT_name("cdcAppHandle")
    2422                      .dwattr $C$DW$180, DW_AT_TI_symbol_name("_cdcAppHandle")
    2423                      .dwattr $C$DW$180, DW_AT_type(*$C$DW$T$147)
    2424                      .dwattr $C$DW$180, DW_AT_location[DW_OP_reg19]
    2425              $C$DW$181       .dwtag  DW_TAG_formal_parameter, DW_AT_name("data")
    2426                      .dwattr $C$DW$181, DW_AT_TI_symbol_name("_data")
    2427                      .dwattr $C$DW$181, DW_AT_type(*$C$DW$T$79)
    2428                      .dwattr $C$DW$181, DW_AT_location[DW_OP_reg21]
    2429              ;*******************************************************************************
    2430              ;* FUNCTION NAME: CDC_getData                                                  *
    2431              ;*                                                                             *
    2432              ;*   Function Uses Regs : AC0,T0,AR0,XAR0,AR1,XAR1,AR2,XAR2,AR3,XAR3,SP,CARRY, *
    2433              ;*                        TC1,M40,SATA,SATD,RDM,FRCT,SMUL                      *
    2434              ;*   Stack Frame        : Compact (No Frame Pointer, w/ debug)                 *
    2435              ;*   Total Frame Size   : 12 words                                             *
    2436              ;*                        (2 return address/alignment)                         *
    2437              ;*                        (10 local values)                                    *
    2438              ;*   Min System Stack   : 1 word                                               *
    2439              ;*******************************************************************************
    2440 0009e4       _CDC_getData:
    2441                      .dwcfi  cfa_offset, 1
    2442                      .dwcfi  save_reg_to_mem, 91, -1
    2443 0009e4 4EF5          AADD #-11, SP
    2444                      .dwcfi  cfa_offset, 12
    2445              $C$DW$182       .dwtag  DW_TAG_variable, DW_AT_name("pContext")
    2446                      .dwattr $C$DW$182, DW_AT_TI_symbol_name("_pContext")
    2447                      .dwattr $C$DW$182, DW_AT_type(*$C$DW$T$136)
    2448                      .dwattr $C$DW$182, DW_AT_location[DW_OP_bregx 0x24 0]
    2449              $C$DW$183       .dwtag  DW_TAG_variable, DW_AT_name("cdcAppHandle")
    2450                      .dwattr $C$DW$183, DW_AT_TI_symbol_name("_cdcAppHandle")
TMS320C55x Assembler PC v4.4.1 Tue Sep 18 04:50:04 2018

Tools Copyright (c) 1996-2012 Texas Instruments Incorporated
csl_cdc.asm                                                          PAGE   58

    2451                      .dwattr $C$DW$183, DW_AT_type(*$C$DW$T$147)
    2452                      .dwattr $C$DW$183, DW_AT_location[DW_OP_bregx 0x24 2]
    2453              $C$DW$184       .dwtag  DW_TAG_variable, DW_AT_name("data")
    2454                      .dwattr $C$DW$184, DW_AT_TI_symbol_name("_data")
    2455                      .dwattr $C$DW$184, DW_AT_type(*$C$DW$T$79)
    2456                      .dwattr $C$DW$184, DW_AT_location[DW_OP_bregx 0x24 4]
    2457              $C$DW$185       .dwtag  DW_TAG_variable, DW_AT_name("rxEndIdxSave")
    2458                      .dwattr $C$DW$185, DW_AT_TI_symbol_name("_rxEndIdxSave")
    2459                      .dwattr $C$DW$185, DW_AT_type(*$C$DW$T$20)
    2460                      .dwattr $C$DW$185, DW_AT_location[DW_OP_bregx 0x24 6]
    2461              $C$DW$186       .dwtag  DW_TAG_variable, DW_AT_name("rxStartIdxSave")
    2462                      .dwattr $C$DW$186, DW_AT_TI_symbol_name("_rxStartIdxSave")
    2463                      .dwattr $C$DW$186, DW_AT_type(*$C$DW$T$20)
    2464                      .dwattr $C$DW$186, DW_AT_location[DW_OP_bregx 0x24 7]
    2465              $C$DW$187       .dwtag  DW_TAG_variable, DW_AT_name("i")
    2466                      .dwattr $C$DW$187, DW_AT_TI_symbol_name("_i")
    2467                      .dwattr $C$DW$187, DW_AT_type(*$C$DW$T$20)
    2468                      .dwattr $C$DW$187, DW_AT_location[DW_OP_bregx 0x24 8]
    2469              $C$DW$188       .dwtag  DW_TAG_variable, DW_AT_name("tempSize")
    2470                      .dwattr $C$DW$188, DW_AT_TI_symbol_name("_tempSize")
    2471                      .dwattr $C$DW$188, DW_AT_type(*$C$DW$T$20)
    2472                      .dwattr $C$DW$188, DW_AT_location[DW_OP_bregx 0x24 9]
    2473 0009e6 EB08          MOV XAR2, dbl(*SP(#4))
         0009e8 A5   
    2474 0009e9 EB04          MOV XAR1, dbl(*SP(#2))
         0009eb 95   
    2475 0009ec EB00          MOV XAR0, dbl(*SP(#0))
         0009ee 85   
    2476                      .dwpsn  file "../c5535_bsl_revc/ezdsp5535_v1/c55xx_csl/src/csl_cdc.c",line 1047,column 2,is_stmt
    2477 0009ef E612          MOV #0, *SP(#9) ; |1047| 
         0009f1 00   
    2478                      .dwpsn  file "../c5535_bsl_revc/ezdsp5535_v1/c55xx_csl/src/csl_cdc.c",line 1049,column 2,is_stmt
    2479 0009f2 ED04          MOV dbl(*SP(#2)), XAR3
         0009f4 BF   
    2480 0009f5 A97D          MOV *AR3(short(#6)), AR1 ; |1049| 
    2481 0009f7 C90E          MOV AR1, *SP(#7) ; |1049| 
    2482                      .dwpsn  file "../c5535_bsl_revc/ezdsp5535_v1/c55xx_csl/src/csl_cdc.c",line 1050,column 2,is_stmt
    2483 0009f9 ED04          MOV dbl(*SP(#2)), XAR3
         0009fb BF   
    2484 0009fc A97F          MOV *AR3(short(#7)), AR1 ; |1050| 
    2485 0009fe C90C          MOV AR1, *SP(#6) ; |1050| 
    2486                      .dwpsn  file "../c5535_bsl_revc/ezdsp5535_v1/c55xx_csl/src/csl_cdc.c",line 1051,column 2,is_stmt
    2487 000a00 AA0C          MOV *SP(#6), AR2 ; |1051| 
    2488 000a02 A90E          MOV *SP(#7), AR1 ; |1051| 
    2489 000a04 1298          CMPU AR2 <= AR1, TC1 ; |1051| 
         000a06 A4   
    2490 000a07 64E4          BCC $C$L59,TC1 ; |1051| 
    2491                                                      ; branchcc occurs ; |1051| 
    2492                      .dwpsn  file "../c5535_bsl_revc/ezdsp5535_v1/c55xx_csl/src/csl_cdc.c",line 1054,column 3,is_stmt
    2493 000a09 22A0          MOV AR2, AC0
    2494 000a0b DF0E          SUB uns(*SP(#7)), AC0, AC0 ; |1054| 
         000a0d 0F   
    2495 000a0e C012          MOV AC0, *SP(#9) ; |1054| 
    2496                      .dwpsn  file "../c5535_bsl_revc/ezdsp5535_v1/c55xx_csl/src/csl_cdc.c",line 1055,column 2,is_stmt
    2497 000a10 4A15          B $C$L61  ; |1055| 
TMS320C55x Assembler PC v4.4.1 Tue Sep 18 04:50:04 2018

Tools Copyright (c) 1996-2012 Texas Instruments Incorporated
csl_cdc.asm                                                          PAGE   59

    2498                                                      ; branch occurs ; |1055| 
    2499 000a12       $C$L59:    
    2500                      .dwpsn  file "../c5535_bsl_revc/ezdsp5535_v1/c55xx_csl/src/csl_cdc.c",line 1055,column 9,is_stmt
    2501 000a12 12A8          CMPU AR2 >= AR1, TC1 ; |1055| 
         000a14 94   
    2502 000a15 66E4          BCC $C$L60,TC1 ; |1055| 
    2503                                                      ; branchcc occurs ; |1055| 
    2504                      .dwpsn  file "../c5535_bsl_revc/ezdsp5535_v1/c55xx_csl/src/csl_cdc.c",line 1058,column 3,is_stmt
    2505 000a17 22A0          MOV AR2, AC0
    2506 000a19 DF0E          SUB uns(*SP(#7)), AC0, AC0 ; |1058| 
         000a1b 0F   
    2507 000a1c 7B02          ADD #512, AC0, AR1 ; |1058| 
         000a1e 0090 
    2508 000a20 C912          MOV AR1, *SP(#9) ; |1058| 
    2509                      .dwpsn  file "../c5535_bsl_revc/ezdsp5535_v1/c55xx_csl/src/csl_cdc.c",line 1059,column 2,is_stmt
    2510 000a22 4A03          B $C$L61  ; |1059| 
    2511                                                      ; branch occurs ; |1059| 
    2512 000a24       $C$L60:    
    2513                      .dwpsn  file "../c5535_bsl_revc/ezdsp5535_v1/c55xx_csl/src/csl_cdc.c",line 1062,column 3,is_stmt
    2514 000a24 E612          MOV #0, *SP(#9) ; |1062| 
         000a26 00   
    2515 000a27       $C$L61:    
    2516                      .dwpsn  file "../c5535_bsl_revc/ezdsp5535_v1/c55xx_csl/src/csl_cdc.c",line 1066,column 7,is_stmt
    2517 000a27 E610          MOV #0, *SP(#8) ; |1066| 
         000a29 00   
    2518                      .dwpsn  file "../c5535_bsl_revc/ezdsp5535_v1/c55xx_csl/src/csl_cdc.c",line 1066,column 12,is_stmt
    2519 000a2a A912          MOV *SP(#9), AR1 ; |1066| 
    2520 000a2c AA10          MOV *SP(#8), AR2 ; |1066| 
    2521 000a2e 12A8          CMPU AR2 >= AR1, TC1 ; |1066| 
         000a30 94   
    2522 000a31 0464          BCC $C$L64,TC1 ; |1066| 
         000a33 38   
    2523                                                      ; branchcc occurs ; |1066| 
    2524 000a34       $C$L62:    
    2525 000a34       $C$DW$L$_CDC_getData$7$B:
    2526                      .dwpsn  file "../c5535_bsl_revc/ezdsp5535_v1/c55xx_csl/src/csl_cdc.c",line 1068,column 3,is_stmt
    2527 000a34 ED04          MOV dbl(*SP(#2)), XAR3
         000a36 BF   
    2528 000a37 A47D          MOV *AR3(short(#6)), T0 ; |1068| 
    2529 000a39 ED79          MOV dbl(*AR3(short(#4))), XAR3
         000a3b BF   
    2530 000a3c DF6B          MOV uns(low_byte(*AR3(T0))), AR1 ; |1068| 
         000a3e 93   
    2531 000a3f A410          MOV *SP(#8), T0 ; |1068| 
    2532 000a41 ED08          MOV dbl(*SP(#4)), XAR3
         000a43 BF   
    2533 000a44 C96B          MOV AR1, *AR3(T0) ; |1068| 
    2534                      .dwpsn  file "../c5535_bsl_revc/ezdsp5535_v1/c55xx_csl/src/csl_cdc.c",line 1070,column 3,is_stmt
    2535 000a46 ED04          MOV dbl(*SP(#2)), XAR3
         000a48 BF   
    2536 000a49 F77D          ADD #1, *AR3(short(#6)) ; |1070| 
         000a4b 0001 
    2537                      .dwpsn  file "../c5535_bsl_revc/ezdsp5535_v1/c55xx_csl/src/csl_cdc.c",line 1071,column 3,is_stmt
    2538 000a4d ED04          MOV dbl(*SP(#2)), XAR3
         000a4f BF   
TMS320C55x Assembler PC v4.4.1 Tue Sep 18 04:50:04 2018

Tools Copyright (c) 1996-2012 Texas Instruments Incorporated
csl_cdc.asm                                                          PAGE   60

    2539 000a50 7602          MOV #512, AR2 ; |1071| 
         000a52 00A8 
    2540 000a54 A97D          MOV *AR3(short(#6)), AR1 ; |1071| 
    2541 000a56 1294          CMPU AR1 < AR2, TC1 ; |1071| 
         000a58 A4   
    2542 000a59 61E4          BCC $C$L63,TC1 ; |1071| 
    2543                                                      ; branchcc occurs ; |1071| 
    2544 000a5b       $C$DW$L$_CDC_getData$7$E:
    2545 000a5b       $C$DW$L$_CDC_getData$8$B:
    2546                      .dwpsn  file "../c5535_bsl_revc/ezdsp5535_v1/c55xx_csl/src/csl_cdc.c",line 1072,column 4,is_stmt
    2547 000a5b E67D          MOV #0, *AR3(short(#6)) ; |1072| 
         000a5d 00   
    2548 000a5e       $C$DW$L$_CDC_getData$8$E:
    2549 000a5e       $C$L63:    
    2550 000a5e       $C$DW$L$_CDC_getData$9$B:
    2551                      .dwpsn  file "../c5535_bsl_revc/ezdsp5535_v1/c55xx_csl/src/csl_cdc.c",line 1066,column 24,is_stmt
    2552 000a5e F710          ADD #1, *SP(#8) ; |1066| 
         000a60 0001 
    2553                      .dwpsn  file "../c5535_bsl_revc/ezdsp5535_v1/c55xx_csl/src/csl_cdc.c",line 1066,column 12,is_stmt
    2554 000a62 A912          MOV *SP(#9), AR1 ; |1066| 
    2555 000a64 AA10          MOV *SP(#8), AR2 ; |1066| 
    2556 000a66 12A4          CMPU AR2 < AR1, TC1 ; |1066| 
         000a68 94   
    2557 000a69 0464          BCC $C$L62,TC1 ; |1066| 
         000a6b C8   
    2558                                                      ; branchcc occurs ; |1066| 
    2559 000a6c       $C$DW$L$_CDC_getData$9$E:
    2560 000a6c       $C$L64:    
    2561                      .dwpsn  file "../c5535_bsl_revc/ezdsp5535_v1/c55xx_csl/src/csl_cdc.c",line 1075,column 2,is_stmt
    2562 000a6c 2294          MOV AR1, T0
    2563                      .dwpsn  file "../c5535_bsl_revc/ezdsp5535_v1/c55xx_csl/src/csl_cdc.c",line 1076,column 1,is_stmt
    2564 000a6e 4E0B          AADD #11, SP
    2565                      .dwcfi  cfa_offset, 1
    2566              $C$DW$189       .dwtag  DW_TAG_TI_branch
    2567                      .dwattr $C$DW$189, DW_AT_low_pc(0x00)
    2568                      .dwattr $C$DW$189, DW_AT_TI_return
    2569 000a70 4804          RET
    2570                                                      ; return occurs
    2571              
    2572              $C$DW$190       .dwtag  DW_TAG_TI_loop
    2573                      .dwattr $C$DW$190, DW_AT_name("F:\eZdsp_DBG\eZDSP_5535_Files\ccsws2\test\Debug\csl_cdc.asm:$C$L62:1:1
    2574                      .dwattr $C$DW$190, DW_AT_TI_begin_file("../c5535_bsl_revc/ezdsp5535_v1/c55xx_csl/src/csl_cdc.c")
    2575                      .dwattr $C$DW$190, DW_AT_TI_begin_line(0x42a)
    2576                      .dwattr $C$DW$190, DW_AT_TI_end_line(0x431)
    2577              $C$DW$191       .dwtag  DW_TAG_TI_loop_range
    2578                      .dwattr $C$DW$191, DW_AT_low_pc($C$DW$L$_CDC_getData$7$B)
    2579                      .dwattr $C$DW$191, DW_AT_high_pc($C$DW$L$_CDC_getData$7$E)
    2580              $C$DW$192       .dwtag  DW_TAG_TI_loop_range
    2581                      .dwattr $C$DW$192, DW_AT_low_pc($C$DW$L$_CDC_getData$8$B)
    2582                      .dwattr $C$DW$192, DW_AT_high_pc($C$DW$L$_CDC_getData$8$E)
    2583              $C$DW$193       .dwtag  DW_TAG_TI_loop_range
    2584                      .dwattr $C$DW$193, DW_AT_low_pc($C$DW$L$_CDC_getData$9$B)
    2585                      .dwattr $C$DW$193, DW_AT_high_pc($C$DW$L$_CDC_getData$9$E)
    2586                      .dwendtag $C$DW$190
    2587              
TMS320C55x Assembler PC v4.4.1 Tue Sep 18 04:50:04 2018

Tools Copyright (c) 1996-2012 Texas Instruments Incorporated
csl_cdc.asm                                                          PAGE   61

    2588                      .dwattr $C$DW$178, DW_AT_TI_end_file("../c5535_bsl_revc/ezdsp5535_v1/c55xx_csl/src/csl_cdc.c")
    2589                      .dwattr $C$DW$178, DW_AT_TI_end_line(0x434)
    2590                      .dwattr $C$DW$178, DW_AT_TI_end_column(0x01)
    2591                      .dwendentry
    2592                      .dwendtag $C$DW$178
    2593              
    2594 000a72               .sect   ".text"
    2595                      .align 4
    2596                      .global _CDC_putData
    2597              
    2598              $C$DW$194       .dwtag  DW_TAG_subprogram, DW_AT_name("CDC_putData")
    2599                      .dwattr $C$DW$194, DW_AT_low_pc(_CDC_putData)
    2600                      .dwattr $C$DW$194, DW_AT_high_pc(0x00)
    2601                      .dwattr $C$DW$194, DW_AT_TI_symbol_name("_CDC_putData")
    2602                      .dwattr $C$DW$194, DW_AT_external
    2603                      .dwattr $C$DW$194, DW_AT_type(*$C$DW$T$20)
    2604                      .dwattr $C$DW$194, DW_AT_TI_begin_file("../c5535_bsl_revc/ezdsp5535_v1/c55xx_csl/src/csl_cdc.c")
    2605                      .dwattr $C$DW$194, DW_AT_TI_begin_line(0x471)
    2606                      .dwattr $C$DW$194, DW_AT_TI_begin_column(0x08)
    2607                      .dwattr $C$DW$194, DW_AT_TI_max_frame_size(0x12)
    2608                      .dwpsn  file "../c5535_bsl_revc/ezdsp5535_v1/c55xx_csl/src/csl_cdc.c",line 1138,column 1,is_stmt,addr
    2609              
    2610                      .dwfde $C$DW$CIE, _CDC_putData
    2611              $C$DW$195       .dwtag  DW_TAG_formal_parameter, DW_AT_name("pContext")
    2612                      .dwattr $C$DW$195, DW_AT_TI_symbol_name("_pContext")
    2613                      .dwattr $C$DW$195, DW_AT_type(*$C$DW$T$136)
    2614                      .dwattr $C$DW$195, DW_AT_location[DW_OP_reg17]
    2615              $C$DW$196       .dwtag  DW_TAG_formal_parameter, DW_AT_name("cdcAppHandle")
    2616                      .dwattr $C$DW$196, DW_AT_TI_symbol_name("_cdcAppHandle")
    2617                      .dwattr $C$DW$196, DW_AT_type(*$C$DW$T$147)
    2618                      .dwattr $C$DW$196, DW_AT_location[DW_OP_reg19]
    2619              $C$DW$197       .dwtag  DW_TAG_formal_parameter, DW_AT_name("data")
    2620                      .dwattr $C$DW$197, DW_AT_TI_symbol_name("_data")
    2621                      .dwattr $C$DW$197, DW_AT_type(*$C$DW$T$79)
    2622                      .dwattr $C$DW$197, DW_AT_location[DW_OP_reg21]
    2623              $C$DW$198       .dwtag  DW_TAG_formal_parameter, DW_AT_name("size")
    2624                      .dwattr $C$DW$198, DW_AT_TI_symbol_name("_size")
    2625                      .dwattr $C$DW$198, DW_AT_type(*$C$DW$T$20)
    2626                      .dwattr $C$DW$198, DW_AT_location[DW_OP_reg12]
    2627              ;*******************************************************************************
    2628              ;* FUNCTION NAME: CDC_putData                                                  *
    2629              ;*                                                                             *
    2630              ;*   Function Uses Regs : AC0,AC1,T0,T1,AR0,XAR0,AR1,XAR1,AR2,XAR2,AR3,XAR3,SP,*
    2631              ;*                        CARRY,TC1,M40,SATA,SATD,RDM,FRCT,SMUL                *
    2632              ;*   Stack Frame        : Compact (No Frame Pointer, w/ debug)                 *
    2633              ;*   Total Frame Size   : 18 words                                             *
    2634              ;*                        (1 return address/alignment)                         *
    2635              ;*                        (3 function parameters)                              *
    2636              ;*                        (14 local values)                                    *
    2637              ;*   Min System Stack   : 1 word                                               *
    2638              ;*******************************************************************************
    2639 000a74       _CDC_putData:
    2640                      .dwcfi  cfa_offset, 1
    2641                      .dwcfi  save_reg_to_mem, 91, -1
    2642 000a74 4EEF          AADD #-17, SP
TMS320C55x Assembler PC v4.4.1 Tue Sep 18 04:50:04 2018

Tools Copyright (c) 1996-2012 Texas Instruments Incorporated
csl_cdc.asm                                                          PAGE   62

    2643                      .dwcfi  cfa_offset, 18
    2644              $C$DW$199       .dwtag  DW_TAG_variable, DW_AT_name("pContext")
    2645                      .dwattr $C$DW$199, DW_AT_TI_symbol_name("_pContext")
    2646                      .dwattr $C$DW$199, DW_AT_type(*$C$DW$T$136)
    2647                      .dwattr $C$DW$199, DW_AT_location[DW_OP_bregx 0x24 4]
    2648              $C$DW$200       .dwtag  DW_TAG_variable, DW_AT_name("cdcAppHandle")
    2649                      .dwattr $C$DW$200, DW_AT_TI_symbol_name("_cdcAppHandle")
    2650                      .dwattr $C$DW$200, DW_AT_type(*$C$DW$T$147)
    2651                      .dwattr $C$DW$200, DW_AT_location[DW_OP_bregx 0x24 6]
    2652              $C$DW$201       .dwtag  DW_TAG_variable, DW_AT_name("data")
    2653                      .dwattr $C$DW$201, DW_AT_TI_symbol_name("_data")
    2654                      .dwattr $C$DW$201, DW_AT_type(*$C$DW$T$79)
    2655                      .dwattr $C$DW$201, DW_AT_location[DW_OP_bregx 0x24 8]
    2656              $C$DW$202       .dwtag  DW_TAG_variable, DW_AT_name("size")
    2657                      .dwattr $C$DW$202, DW_AT_TI_symbol_name("_size")
    2658                      .dwattr $C$DW$202, DW_AT_type(*$C$DW$T$20)
    2659                      .dwattr $C$DW$202, DW_AT_location[DW_OP_bregx 0x24 10]
    2660              $C$DW$203       .dwtag  DW_TAG_variable, DW_AT_name("status")
    2661                      .dwattr $C$DW$203, DW_AT_TI_symbol_name("_status")
    2662                      .dwattr $C$DW$203, DW_AT_type(*$C$DW$T$106)
    2663                      .dwattr $C$DW$203, DW_AT_location[DW_OP_bregx 0x24 11]
    2664              $C$DW$204       .dwtag  DW_TAG_variable, DW_AT_name("txRxStatus")
    2665                      .dwattr $C$DW$204, DW_AT_TI_symbol_name("_txRxStatus")
    2666                      .dwattr $C$DW$204, DW_AT_type(*$C$DW$T$106)
    2667                      .dwattr $C$DW$204, DW_AT_location[DW_OP_bregx 0x24 12]
    2668              $C$DW$205       .dwtag  DW_TAG_variable, DW_AT_name("bytesRem")
    2669                      .dwattr $C$DW$205, DW_AT_TI_symbol_name("_bytesRem")
    2670                      .dwattr $C$DW$205, DW_AT_type(*$C$DW$T$20)
    2671                      .dwattr $C$DW$205, DW_AT_location[DW_OP_bregx 0x24 13]
    2672              $C$DW$206       .dwtag  DW_TAG_variable, DW_AT_name("i")
    2673                      .dwattr $C$DW$206, DW_AT_TI_symbol_name("_i")
    2674                      .dwattr $C$DW$206, DW_AT_type(*$C$DW$T$20)
    2675                      .dwattr $C$DW$206, DW_AT_location[DW_OP_bregx 0x24 14]
    2676              $C$DW$207       .dwtag  DW_TAG_variable, DW_AT_name("txEndIdxSave")
    2677                      .dwattr $C$DW$207, DW_AT_TI_symbol_name("_txEndIdxSave")
    2678                      .dwattr $C$DW$207, DW_AT_type(*$C$DW$T$20)
    2679                      .dwattr $C$DW$207, DW_AT_location[DW_OP_bregx 0x24 15]
    2680              $C$DW$208       .dwtag  DW_TAG_variable, DW_AT_name("txStartIdxSave")
    2681                      .dwattr $C$DW$208, DW_AT_TI_symbol_name("_txStartIdxSave")
    2682                      .dwattr $C$DW$208, DW_AT_type(*$C$DW$T$20)
    2683                      .dwattr $C$DW$208, DW_AT_location[DW_OP_bregx 0x24 16]
    2684 000a76 C414          MOV T0, *SP(#10) ; |1138| 
    2685 000a78 EB10          MOV XAR2, dbl(*SP(#8))
         000a7a A5   
    2686 000a7b EB0C          MOV XAR1, dbl(*SP(#6))
         000a7d 95   
    2687 000a7e EB08          MOV XAR0, dbl(*SP(#4))
         000a80 85   
    2688                      .dwpsn  file "../c5535_bsl_revc/ezdsp5535_v1/c55xx_csl/src/csl_cdc.c",line 1144,column 2,is_stmt
    2689 000a81 7602          MOV #512, AR2 ; |1144| 
         000a83 00A8 
    2690 000a85 A914          MOV *SP(#10), AR1 ; |1144| 
    2691 000a87 12A8          CMPU AR1 <= AR2, TC1 ; |1144| 
         000a89 94   
    2692 000a8a 62E4          BCC $C$L65,TC1 ; |1144| 
TMS320C55x Assembler PC v4.4.1 Tue Sep 18 04:50:04 2018

Tools Copyright (c) 1996-2012 Texas Instruments Incorporated
csl_cdc.asm                                                          PAGE   63

    2693                                                      ; branchcc occurs ; |1144| 
    2694                      .dwpsn  file "../c5535_bsl_revc/ezdsp5535_v1/c55xx_csl/src/csl_cdc.c",line 1145,column 3,is_stmt
    2695 000a8c 3C04          MOV #0, T0
    2696 000a8e 0601          B $C$L80  ; |1145| 
         000a90 D0   
    2697                                                      ; branch occurs ; |1145| 
    2698 000a91       $C$L65:    
    2699                      .dwpsn  file "../c5535_bsl_revc/ezdsp5535_v1/c55xx_csl/src/csl_cdc.c",line 1147,column 2,is_stmt
    2700 000a91 ED0C          MOV dbl(*SP(#6)), XAR3
         000a93 BF   
    2701 000a94 A96D          MOV *AR3(#10), AR1 ; |1147| 
         000a96 000A 
    2702 000a98 C920          MOV AR1, *SP(#16) ; |1147| 
    2703                      .dwpsn  file "../c5535_bsl_revc/ezdsp5535_v1/c55xx_csl/src/csl_cdc.c",line 1148,column 2,is_stmt
    2704 000a9a ED0C          MOV dbl(*SP(#6)), XAR3
         000a9c BF   
    2705 000a9d A96D          MOV *AR3(#11), AR1 ; |1148| 
         000a9f 000B 
    2706 000aa1 C91E          MOV AR1, *SP(#15) ; |1148| 
    2707                      .dwpsn  file "../c5535_bsl_revc/ezdsp5535_v1/c55xx_csl/src/csl_cdc.c",line 1149,column 2,is_stmt
    2708 000aa3 AA1E          MOV *SP(#15), AR2 ; |1149| 
    2709 000aa5 A920          MOV *SP(#16), AR1 ; |1149| 
    2710 000aa7 12AC          CMPU AR2 != AR1, TC1 ; |1149| 
         000aa9 94   
    2711 000aaa 6D64          BCC $C$L74,TC1 ; |1149| 
         000aac 0119 
    2712                                                      ; branchcc occurs ; |1149| 
    2713                      .dwpsn  file "../c5535_bsl_revc/ezdsp5535_v1/c55xx_csl/src/csl_cdc.c",line 1152,column 3,is_stmt
    2714 000aae ED0C          MOV dbl(*SP(#6)), XAR3
         000ab0 BF   
    2715 000ab1 A96D          MOV *AR3(#14), AR1 ; |1152| 
         000ab3 000E 
    2716 000ab5 6289          BCC $C$L66,AR1 == #0 ; |1152| 
    2717                                                      ; branchcc occurs ; |1152| 
    2718                      .dwpsn  file "../c5535_bsl_revc/ezdsp5535_v1/c55xx_csl/src/csl_cdc.c",line 1154,column 4,is_stmt
    2719 000ab7 3C04          MOV #0, T0
    2720 000ab9 0601          B $C$L80  ; |1154| 
         000abb A5   
    2721                                                      ; branch occurs ; |1154| 
    2722 000abc       $C$L66:    
    2723                      .dwpsn  file "../c5535_bsl_revc/ezdsp5535_v1/c55xx_csl/src/csl_cdc.c",line 1158,column 8,is_stmt
    2724 000abc E61C          MOV #0, *SP(#14) ; |1158| 
         000abe 00   
    2725                      .dwpsn  file "../c5535_bsl_revc/ezdsp5535_v1/c55xx_csl/src/csl_cdc.c",line 1158,column 13,is_stmt
    2726 000abf A914          MOV *SP(#10), AR1 ; |1158| 
    2727 000ac1 AA1C          MOV *SP(#14), AR2 ; |1158| 
    2728 000ac3 12A8          CMPU AR2 >= AR1, TC1 ; |1158| 
         000ac5 94   
    2729 000ac6 0464          BCC $C$L71,TC1 ; |1158| 
         000ac8 7C   
    2730                                                      ; branchcc occurs ; |1158| 
    2731 000ac9       $C$L67:    
    2732 000ac9       $C$DW$L$_CDC_putData$7$B:
    2733                      .dwpsn  file "../c5535_bsl_revc/ezdsp5535_v1/c55xx_csl/src/csl_cdc.c",line 1160,column 4,is_stmt
    2734 000ac9 ED0C          MOV dbl(*SP(#6)), XAR3
TMS320C55x Assembler PC v4.4.1 Tue Sep 18 04:50:04 2018

Tools Copyright (c) 1996-2012 Texas Instruments Incorporated
csl_cdc.asm                                                          PAGE   64

         000acb BF   
    2735 000acc DC6D          BTST #0, *AR3(#14), TC1 ; |1160| 
         000ace 0000 
         000ad0 0E   
    2736 000ad1 0474          BCC $C$L68,!TC1 ; |1160| 
         000ad3 2D   
    2737                                                      ; branchcc occurs ; |1160| 
    2738 000ad4       $C$DW$L$_CDC_putData$7$E:
    2739 000ad4       $C$DW$L$_CDC_putData$8$B:
    2740                      .dwpsn  file "../c5535_bsl_revc/ezdsp5535_v1/c55xx_csl/src/csl_cdc.c",line 1162,column 5,is_stmt
    2741 000ad4 A41C          MOV *SP(#14), T0 ; |1162| 
    2742 000ad6 ED10          MOV dbl(*SP(#8)), XAR3
         000ad8 BF   
    2743 000ad9 A16B          MOV *AR3(T0), AC1 ; |1162| 
    2744 000adb ED0C          MOV dbl(*SP(#6)), XAR3
         000add BF   
    2745 000ade A46D          MOV *AR3(#14), T0 ; |1162| 
         000ae0 000E 
    2746 000ae2 5041          SFTL T0, #-1 ; |1162| 
    2747 000ae4 ED6D          MOV dbl(*AR3(#12)), XAR3
         000ae6 BF00 
         000ae8 0C   
    2748 000ae9 DF6B          MOV uns(low_byte(*AR3(T0))), AC0 ; |1162| 
         000aeb 03   
    2749 000aec ED0C          MOV dbl(*SP(#6)), XAR3
         000aee BF   
    2750 000aef A46D          MOV *AR3(#14), T0 ; |1162| 
         000af1 000E 
    2751 000af3 5041          SFTL T0, #-1 ; |1162| 
    2752 000af5 ED6D          MOV dbl(*AR3(#12)), XAR3
         000af7 BF00 
         000af9 0C   
    2753 000afa 1011          OR AC1 << #8, AC0 ; |1162| 
         000afc 08   
    2754 000afd C06B          MOV AC0, *AR3(T0) ; |1162| 
    2755                      .dwpsn  file "../c5535_bsl_revc/ezdsp5535_v1/c55xx_csl/src/csl_cdc.c",line 1163,column 4,is_stmt
    2756 000aff 4A18          B $C$L69  ; |1163| 
    2757                                                      ; branch occurs ; |1163| 
    2758 000b01       $C$DW$L$_CDC_putData$8$E:
    2759 000b01       $C$L68:    
    2760 000b01       $C$DW$L$_CDC_putData$9$B:
    2761                      .dwpsn  file "../c5535_bsl_revc/ezdsp5535_v1/c55xx_csl/src/csl_cdc.c",line 1166,column 5,is_stmt
    2762 000b01 A41C          MOV *SP(#14), T0 ; |1166| 
    2763 000b03 ED10          MOV dbl(*SP(#8)), XAR3
         000b05 BF   
    2764 000b06 DF6B          MOV uns(low_byte(*AR3(T0))), AR1 ; |1166| 
         000b08 93   
    2765 000b09 ED0C          MOV dbl(*SP(#6)), XAR3
         000b0b BF   
    2766 000b0c A46D          MOV *AR3(#14), T0 ; |1166| 
         000b0e 000E 
    2767 000b10 5041          SFTL T0, #-1 ; |1166| 
    2768 000b12 ED6D          MOV dbl(*AR3(#12)), XAR3
         000b14 BF00 
         000b16 0C   
TMS320C55x Assembler PC v4.4.1 Tue Sep 18 04:50:04 2018

Tools Copyright (c) 1996-2012 Texas Instruments Incorporated
csl_cdc.asm                                                          PAGE   65

    2769 000b17 C96B          MOV AR1, *AR3(T0) ; |1166| 
    2770 000b19       $C$DW$L$_CDC_putData$9$E:
    2771 000b19       $C$L69:    
    2772 000b19       $C$DW$L$_CDC_putData$10$B:
    2773                      .dwpsn  file "../c5535_bsl_revc/ezdsp5535_v1/c55xx_csl/src/csl_cdc.c",line 1169,column 4,is_stmt
    2774 000b19 ED0C          MOV dbl(*SP(#6)), XAR3
         000b1b BF   
    2775 000b1c F76D          ADD #1, *AR3(#14) ; |1169| 
         000b1e 0001 
         000b20 000E 
    2776                      .dwpsn  file "../c5535_bsl_revc/ezdsp5535_v1/c55xx_csl/src/csl_cdc.c",line 1170,column 4,is_stmt
    2777 000b22 ED0C          MOV dbl(*SP(#6)), XAR3
         000b24 BF   
    2778 000b25 7602          MOV #512, AR2 ; |1170| 
         000b27 00A8 
    2779 000b29 A96D          MOV *AR3(#14), AR1 ; |1170| 
         000b2b 000E 
    2780 000b2d 1294          CMPU AR1 < AR2, TC1 ; |1170| 
         000b2f A4   
    2781 000b30 62E4          BCC $C$L70,TC1 ; |1170| 
    2782                                                      ; branchcc occurs ; |1170| 
    2783 000b32       $C$DW$L$_CDC_putData$10$E:
    2784 000b32       $C$DW$L$_CDC_putData$11$B:
    2785                      .dwpsn  file "../c5535_bsl_revc/ezdsp5535_v1/c55xx_csl/src/csl_cdc.c",line 1171,column 5,is_stmt
    2786 000b32 E66D          MOV #0, *AR3(#14) ; |1171| 
         000b34 0000 
         000b36 0E   
    2787 000b37       $C$DW$L$_CDC_putData$11$E:
    2788 000b37       $C$L70:    
    2789 000b37       $C$DW$L$_CDC_putData$12$B:
    2790                      .dwpsn  file "../c5535_bsl_revc/ezdsp5535_v1/c55xx_csl/src/csl_cdc.c",line 1158,column 21,is_stmt
    2791 000b37 F71C          ADD #1, *SP(#14) ; |1158| 
         000b39 0001 
    2792                      .dwpsn  file "../c5535_bsl_revc/ezdsp5535_v1/c55xx_csl/src/csl_cdc.c",line 1158,column 13,is_stmt
    2793 000b3b A914          MOV *SP(#10), AR1 ; |1158| 
    2794 000b3d AA1C          MOV *SP(#14), AR2 ; |1158| 
    2795 000b3f 12A4          CMPU AR2 < AR1, TC1 ; |1158| 
         000b41 94   
    2796 000b42 0464          BCC $C$L67,TC1 ; |1158| 
         000b44 84   
    2797                                                      ; branchcc occurs ; |1158| 
    2798 000b45       $C$DW$L$_CDC_putData$12$E:
    2799 000b45       $C$L71:    
    2800                      .dwpsn  file "../c5535_bsl_revc/ezdsp5535_v1/c55xx_csl/src/csl_cdc.c",line 1175,column 3,is_stmt
    2801 000b45 ED08          MOV dbl(*SP(#4)), XAR3
         000b47 BF   
    2802 000b48 ED6D          MOV dbl(*AR3(#188)), XAR0
         000b4a 8F00 
         000b4c BC   
    2803 000b4d ED0C          MOV dbl(*SP(#6)), XAR3
         000b4f BF   
    2804 000b50 A414          MOV *SP(#10), T0 ; |1175| 
    2805 000b52 7600          MOV #128, T1 ; |1175| 
         000b54 8058 
    2806 000b56 ED6D          MOV dbl(*AR3(#12)), XAR1
TMS320C55x Assembler PC v4.4.1 Tue Sep 18 04:50:04 2018

Tools Copyright (c) 1996-2012 Texas Instruments Incorporated
csl_cdc.asm                                                          PAGE   66

         000b58 9F00 
         000b5a 0C   
    2807              $C$DW$209       .dwtag  DW_TAG_TI_branch
    2808                      .dwattr $C$DW$209, DW_AT_low_pc(0x00)
    2809                      .dwattr $C$DW$209, DW_AT_name("_USB_postTransaction")
    2810                      .dwattr $C$DW$209, DW_AT_TI_call
    2811 000b5b 6C00          CALL #_USB_postTransaction ; |1175| 
         000b5d 0000!
    2812                                                      ; call occurs [#_USB_postTransaction] ; |1175| 
    2813 000b5f C416          MOV T0, *SP(#11) ; |1175| 
    2814                      .dwpsn  file "../c5535_bsl_revc/ezdsp5535_v1/c55xx_csl/src/csl_cdc.c",line 1177,column 3,is_stmt
    2815 000b61 2249          MOV T0, AR1
    2816 000b63 6689          BCC $C$L72,AR1 == #0 ; |1177| 
    2817                                                      ; branchcc occurs ; |1177| 
    2818                      .dwpsn  file "../c5535_bsl_revc/ezdsp5535_v1/c55xx_csl/src/csl_cdc.c",line 1179,column 4,is_stmt
    2819 000b65 EC31          AMOV #$C$FSL5, XAR3 ; |1179| 
         000b67 BE00 
         000b69 0066+
    2820 000b6b EB00          MOV XAR3, dbl(*SP(#0))
         000b6d B5   
    2821              $C$DW$210       .dwtag  DW_TAG_TI_branch
    2822                      .dwattr $C$DW$210, DW_AT_low_pc(0x00)
    2823                      .dwattr $C$DW$210, DW_AT_name("_printf")
    2824                      .dwattr $C$DW$210, DW_AT_TI_call
    2825 000b6e 6C00          CALL #_printf ; |1179| 
         000b70 0000!
    2826                                                      ; call occurs [#_printf] ; |1179| 
    2827 000b72       $C$L72:    
    2828                      .dwpsn  file "../c5535_bsl_revc/ezdsp5535_v1/c55xx_csl/src/csl_cdc.c",line 1183,column 3,is_stmt
    2829 000b72 ED08          MOV dbl(*SP(#4)), XAR3
         000b74 BF   
    2830 000b75 EC16          AMAR *SP(#11), XAR1
         000b77 9E   
    2831 000b78 ED6D          MOV dbl(*AR3(#188)), XAR0
         000b7a 8F00 
         000b7c BC   
    2832              $C$DW$211       .dwtag  DW_TAG_TI_branch
    2833                      .dwattr $C$DW$211, DW_AT_low_pc(0x00)
    2834                      .dwattr $C$DW$211, DW_AT_name("_USB_isTransactionDone")
    2835                      .dwattr $C$DW$211, DW_AT_TI_call
    2836 000b7d 6C00          CALL #_USB_isTransactionDone ; |1183| 
         000b7f 0000!
    2837                                                      ; call occurs [#_USB_isTransactionDone] ; |1183| 
    2838 000b81 C418          MOV T0, *SP(#12) ; |1183| 
    2839                      .dwpsn  file "../c5535_bsl_revc/ezdsp5535_v1/c55xx_csl/src/csl_cdc.c",line 1184,column 3,is_stmt
    2840 000b83 F018          CMP *SP(#12) == #1, TC1 ; |1184| 
         000b85 0001 
    2841 000b87 0464          BCC $C$L73,TC1 ; |1184| 
         000b89 27   
    2842                                                      ; branchcc occurs ; |1184| 
    2843                      .dwpsn  file "../c5535_bsl_revc/ezdsp5535_v1/c55xx_csl/src/csl_cdc.c",line 1186,column 4,is_stmt
    2844 000b8a ED08          MOV dbl(*SP(#4)), XAR3
         000b8c BF   
    2845 000b8d EC16          AMAR *SP(#11), XAR1
         000b8f 9E   
TMS320C55x Assembler PC v4.4.1 Tue Sep 18 04:50:04 2018

Tools Copyright (c) 1996-2012 Texas Instruments Incorporated
csl_cdc.asm                                                          PAGE   67

    2846 000b90 ED6D          MOV dbl(*AR3(#188)), XAR0
         000b92 8F00 
         000b94 BC   
    2847              $C$DW$212       .dwtag  DW_TAG_TI_branch
    2848                      .dwattr $C$DW$212, DW_AT_low_pc(0x00)
    2849                      .dwattr $C$DW$212, DW_AT_name("_USB_bytesRemaining")
    2850                      .dwattr $C$DW$212, DW_AT_TI_call
    2851 000b95 6C00          CALL #_USB_bytesRemaining ; |1186| 
         000b97 0000!
    2852                                                      ; call occurs [#_USB_bytesRemaining] ; |1186| 
    2853 000b99 C41A          MOV T0, *SP(#13) ; |1186| 
    2854                      .dwpsn  file "../c5535_bsl_revc/ezdsp5535_v1/c55xx_csl/src/csl_cdc.c",line 1187,column 4,is_stmt
    2855 000b9b 2249          MOV T0, AR1
    2856 000b9d 0409          BCC $C$L73,AR1 == #0 ; |1187| 
         000b9f 11   
    2857                                                      ; branchcc occurs ; |1187| 
    2858                      .dwpsn  file "../c5535_bsl_revc/ezdsp5535_v1/c55xx_csl/src/csl_cdc.c",line 1189,column 5,is_stmt
    2859 000ba0 EC31          AMOV #$C$FSL2, XAR3 ; |1189| 
         000ba2 BE00 
         000ba4 001C+
    2860 000ba6 EB00          MOV XAR3, dbl(*SP(#0))
         000ba8 B5   
    2861 000ba9 A91A          MOV *SP(#13), AR1 ; |1189| 
    2862 000bab C904          MOV AR1, *SP(#2) ; |1189| 
    2863              $C$DW$213       .dwtag  DW_TAG_TI_branch
    2864                      .dwattr $C$DW$213, DW_AT_low_pc(0x00)
    2865                      .dwattr $C$DW$213, DW_AT_name("_printf")
    2866                      .dwattr $C$DW$213, DW_AT_TI_call
    2867 000bad 6C00          CALL #_printf ; |1189| 
         000baf 0000!
    2868                                                      ; call occurs [#_printf] ; |1189| 
    2869 000bb1       $C$L73:    
    2870                      .dwpsn  file "../c5535_bsl_revc/ezdsp5535_v1/c55xx_csl/src/csl_cdc.c",line 1194,column 3,is_stmt
    2871 000bb1 ED0C          MOV dbl(*SP(#6)), XAR3
         000bb3 BF   
    2872 000bb4 A96D          MOV *AR3(#11), AR1 ; |1194| 
         000bb6 000B 
    2873 000bb8 C96D          MOV AR1, *AR3(#10) ; |1194| 
         000bba 000A 
    2874                      .dwpsn  file "../c5535_bsl_revc/ezdsp5535_v1/c55xx_csl/src/csl_cdc.c",line 1196,column 3,is_stmt
    2875 000bbc ED0C          MOV dbl(*SP(#6)), XAR3
         000bbe BF   
    2876 000bbf E66D          MOV #0, *AR3(#14) ; |1196| 
         000bc1 0000 
         000bc3 0E   
    2877                      .dwpsn  file "../c5535_bsl_revc/ezdsp5535_v1/c55xx_csl/src/csl_cdc.c",line 1197,column 2,is_stmt
    2878 000bc4 0600          B $C$L79  ; |1197| 
         000bc6 98   
    2879                                                      ; branch occurs ; |1197| 
    2880 000bc7       $C$L74:    
    2881                      .dwpsn  file "../c5535_bsl_revc/ezdsp5535_v1/c55xx_csl/src/csl_cdc.c",line 1201,column 3,is_stmt
    2882 000bc7 1298          CMPU AR2 <= AR1, TC1 ; |1201| 
         000bc9 A4   
    2883 000bca 0464          BCC $C$L75,TC1 ; |1201| 
         000bcc 17   
TMS320C55x Assembler PC v4.4.1 Tue Sep 18 04:50:04 2018

Tools Copyright (c) 1996-2012 Texas Instruments Incorporated
csl_cdc.asm                                                          PAGE   68

    2884                                                      ; branchcc occurs ; |1201| 
    2885                      .dwpsn  file "../c5535_bsl_revc/ezdsp5535_v1/c55xx_csl/src/csl_cdc.c",line 1203,column 4,is_stmt
    2886 000bcd A01E          MOV *SP(#15), AC0 ; |1203| 
    2887 000bcf 7602          MOV #512, AR2 ; |1203| 
         000bd1 00A8 
    2888 000bd3 DF20          SUB uns(*SP(#16)), AC0, AC0 ; |1203| 
         000bd5 0F   
    2889 000bd6 D614          ADD *SP(#10), AC0, AR1 ; |1203| 
         000bd8 90   
    2890 000bd9 12A8          CMPU AR1 <= AR2, TC1 ; |1203| 
         000bdb 94   
    2891 000bdc 0464          BCC $C$L76,TC1 ; |1203| 
         000bde 1B   
    2892                                                      ; branchcc occurs ; |1203| 
    2893                      .dwpsn  file "../c5535_bsl_revc/ezdsp5535_v1/c55xx_csl/src/csl_cdc.c",line 1204,column 5,is_stmt
    2894 000bdf 3C04          MOV #0, T0
    2895 000be1 0600          B $C$L80  ; |1204| 
         000be3 7D   
    2896                                                      ; branch occurs ; |1204| 
    2897 000be4       $C$L75:    
    2898                      .dwpsn  file "../c5535_bsl_revc/ezdsp5535_v1/c55xx_csl/src/csl_cdc.c",line 1208,column 4,is_stmt
    2899              
    2900 000be4 7602          MOV #512, AR2 ; |1208| 
         000be6 00A8 
    2901 000be8 2390  ||      MOV AR1, AC0 ; |1208| 
    2902              
    2903 000bea DF1E          SUB uns(*SP(#15)), AC0, AC0 ; |1208| 
         000bec 0F   
    2904 000bed D614          ADD *SP(#10), AC0, AR1 ; |1208| 
         000bef 90   
    2905 000bf0 12A8          CMPU AR1 <= AR2, TC1 ; |1208| 
         000bf2 94   
    2906 000bf3 62E4          BCC $C$L76,TC1 ; |1208| 
    2907                                                      ; branchcc occurs ; |1208| 
    2908                      .dwpsn  file "../c5535_bsl_revc/ezdsp5535_v1/c55xx_csl/src/csl_cdc.c",line 1209,column 5,is_stmt
    2909 000bf5 3C04          MOV #0, T0
    2910 000bf7 0600          B $C$L80  ; |1209| 
         000bf9 67   
    2911                                                      ; branch occurs ; |1209| 
    2912 000bfa       $C$L76:    
    2913                      .dwpsn  file "../c5535_bsl_revc/ezdsp5535_v1/c55xx_csl/src/csl_cdc.c",line 1212,column 8,is_stmt
    2914 000bfa E61C          MOV #0, *SP(#14) ; |1212| 
         000bfc 00   
    2915                      .dwpsn  file "../c5535_bsl_revc/ezdsp5535_v1/c55xx_csl/src/csl_cdc.c",line 1212,column 13,is_stmt
    2916 000bfd A914          MOV *SP(#10), AR1 ; |1212| 
    2917 000bff AA1C          MOV *SP(#14), AR2 ; |1212| 
    2918 000c01 12A8          CMPU AR2 >= AR1, TC1 ; |1212| 
         000c03 94   
    2919 000c04 0464          BCC $C$L79,TC1 ; |1212| 
         000c06 58   
    2920                                                      ; branchcc occurs ; |1212| 
    2921 000c07       $C$L77:    
    2922 000c07       $C$DW$L$_CDC_putData$26$B:
    2923                      .dwpsn  file "../c5535_bsl_revc/ezdsp5535_v1/c55xx_csl/src/csl_cdc.c",line 1214,column 4,is_stmt
    2924 000c07 ED0C          MOV dbl(*SP(#6)), XAR3
TMS320C55x Assembler PC v4.4.1 Tue Sep 18 04:50:04 2018

Tools Copyright (c) 1996-2012 Texas Instruments Incorporated
csl_cdc.asm                                                          PAGE   69

         000c09 BF   
    2925 000c0a A46D          MOV *AR3(#11), T0 ; |1214| 
         000c0c 000B 
    2926 000c0e 5041          SFTL T0, #-1 ; |1214| 
    2927 000c10 ED6D          MOV dbl(*AR3(#8)), XAR3
         000c12 BF00 
         000c14 08   
    2928 000c15 A96B          MOV *AR3(T0), AR1 ; |1214| 
    2929 000c17 A41C          MOV *SP(#14), T0 ; |1214| 
    2930 000c19 ED10          MOV dbl(*SP(#8)), XAR3
         000c1b BF   
    2931 000c1c 7DFF          AND #0xff00, AR1, AR2 ; |1214| 
         000c1e 00A9 
    2932 000c20 DF6B          MOV uns(low_byte(*AR3(T0))), AR1 ; |1214| 
         000c22 93   
    2933 000c23 ED0C          MOV dbl(*SP(#6)), XAR3
         000c25 BF   
    2934 000c26 A46D          MOV *AR3(#11), T0 ; |1214| 
         000c28 000B 
    2935 000c2a ED6D          MOV dbl(*AR3(#8)), XAR3
         000c2c BF00 
         000c2e 08   
    2936 000c2f 2AA9          OR AR2, AR1 ; |1214| 
    2937 000c31 C96B          MOV AR1, *AR3(T0) ; |1214| 
    2938                      .dwpsn  file "../c5535_bsl_revc/ezdsp5535_v1/c55xx_csl/src/csl_cdc.c",line 1216,column 4,is_stmt
    2939 000c33 ED0C          MOV dbl(*SP(#6)), XAR3
         000c35 BF   
    2940 000c36 F76D          ADD #1, *AR3(#11) ; |1216| 
         000c38 0001 
         000c3a 000B 
    2941                      .dwpsn  file "../c5535_bsl_revc/ezdsp5535_v1/c55xx_csl/src/csl_cdc.c",line 1217,column 4,is_stmt
    2942 000c3c ED0C          MOV dbl(*SP(#6)), XAR3
         000c3e BF   
    2943 000c3f 7602          MOV #512, AR2 ; |1217| 
         000c41 00A8 
    2944 000c43 A96D          MOV *AR3(#11), AR1 ; |1217| 
         000c45 000B 
    2945 000c47 1294          CMPU AR1 < AR2, TC1 ; |1217| 
         000c49 A4   
    2946 000c4a 62E4          BCC $C$L78,TC1 ; |1217| 
    2947                                                      ; branchcc occurs ; |1217| 
    2948 000c4c       $C$DW$L$_CDC_putData$26$E:
    2949 000c4c       $C$DW$L$_CDC_putData$27$B:
    2950                      .dwpsn  file "../c5535_bsl_revc/ezdsp5535_v1/c55xx_csl/src/csl_cdc.c",line 1218,column 5,is_stmt
    2951 000c4c E66D          MOV #0, *AR3(#11) ; |1218| 
         000c4e 0000 
         000c50 0B   
    2952 000c51       $C$DW$L$_CDC_putData$27$E:
    2953 000c51       $C$L78:    
    2954 000c51       $C$DW$L$_CDC_putData$28$B:
    2955                      .dwpsn  file "../c5535_bsl_revc/ezdsp5535_v1/c55xx_csl/src/csl_cdc.c",line 1212,column 21,is_stmt
    2956 000c51 F71C          ADD #1, *SP(#14) ; |1212| 
         000c53 0001 
    2957                      .dwpsn  file "../c5535_bsl_revc/ezdsp5535_v1/c55xx_csl/src/csl_cdc.c",line 1212,column 13,is_stmt
    2958 000c55 A914          MOV *SP(#10), AR1 ; |1212| 
TMS320C55x Assembler PC v4.4.1 Tue Sep 18 04:50:04 2018

Tools Copyright (c) 1996-2012 Texas Instruments Incorporated
csl_cdc.asm                                                          PAGE   70

    2959 000c57 AA1C          MOV *SP(#14), AR2 ; |1212| 
    2960 000c59 12A4          CMPU AR2 < AR1, TC1 ; |1212| 
         000c5b 94   
    2961 000c5c 0464          BCC $C$L77,TC1 ; |1212| 
         000c5e A8   
    2962                                                      ; branchcc occurs ; |1212| 
    2963 000c5f       $C$DW$L$_CDC_putData$28$E:
    2964 000c5f       $C$L79:    
    2965                      .dwpsn  file "../c5535_bsl_revc/ezdsp5535_v1/c55xx_csl/src/csl_cdc.c",line 1222,column 2,is_stmt
    2966 000c5f A414          MOV *SP(#10), T0 ; |1222| 
    2967 000c61       $C$L80:    
    2968                      .dwpsn  file "../c5535_bsl_revc/ezdsp5535_v1/c55xx_csl/src/csl_cdc.c",line 1223,column 1,is_stmt
    2969 000c61 4E11          AADD #17, SP
    2970                      .dwcfi  cfa_offset, 1
    2971              $C$DW$214       .dwtag  DW_TAG_TI_branch
    2972                      .dwattr $C$DW$214, DW_AT_low_pc(0x00)
    2973                      .dwattr $C$DW$214, DW_AT_TI_return
    2974 000c63 4804          RET
    2975                                                      ; return occurs
    2976              
    2977              $C$DW$215       .dwtag  DW_TAG_TI_loop
    2978                      .dwattr $C$DW$215, DW_AT_name("F:\eZdsp_DBG\eZDSP_5535_Files\ccsws2\test\Debug\csl_cdc.asm:$C$L77:1:1
    2979                      .dwattr $C$DW$215, DW_AT_TI_begin_file("../c5535_bsl_revc/ezdsp5535_v1/c55xx_csl/src/csl_cdc.c")
    2980                      .dwattr $C$DW$215, DW_AT_TI_begin_line(0x4bc)
    2981                      .dwattr $C$DW$215, DW_AT_TI_end_line(0x4c3)
    2982              $C$DW$216       .dwtag  DW_TAG_TI_loop_range
    2983                      .dwattr $C$DW$216, DW_AT_low_pc($C$DW$L$_CDC_putData$26$B)
    2984                      .dwattr $C$DW$216, DW_AT_high_pc($C$DW$L$_CDC_putData$26$E)
    2985              $C$DW$217       .dwtag  DW_TAG_TI_loop_range
    2986                      .dwattr $C$DW$217, DW_AT_low_pc($C$DW$L$_CDC_putData$27$B)
    2987                      .dwattr $C$DW$217, DW_AT_high_pc($C$DW$L$_CDC_putData$27$E)
    2988              $C$DW$218       .dwtag  DW_TAG_TI_loop_range
    2989                      .dwattr $C$DW$218, DW_AT_low_pc($C$DW$L$_CDC_putData$28$B)
    2990                      .dwattr $C$DW$218, DW_AT_high_pc($C$DW$L$_CDC_putData$28$E)
    2991                      .dwendtag $C$DW$215
    2992              
    2993              
    2994              $C$DW$219       .dwtag  DW_TAG_TI_loop
    2995                      .dwattr $C$DW$219, DW_AT_name("F:\eZdsp_DBG\eZDSP_5535_Files\ccsws2\test\Debug\csl_cdc.asm:$C$L67:1:1
    2996                      .dwattr $C$DW$219, DW_AT_TI_begin_file("../c5535_bsl_revc/ezdsp5535_v1/c55xx_csl/src/csl_cdc.c")
    2997                      .dwattr $C$DW$219, DW_AT_TI_begin_line(0x486)
    2998                      .dwattr $C$DW$219, DW_AT_TI_end_line(0x494)
    2999              $C$DW$220       .dwtag  DW_TAG_TI_loop_range
    3000                      .dwattr $C$DW$220, DW_AT_low_pc($C$DW$L$_CDC_putData$7$B)
    3001                      .dwattr $C$DW$220, DW_AT_high_pc($C$DW$L$_CDC_putData$7$E)
    3002              $C$DW$221       .dwtag  DW_TAG_TI_loop_range
    3003                      .dwattr $C$DW$221, DW_AT_low_pc($C$DW$L$_CDC_putData$8$B)
    3004                      .dwattr $C$DW$221, DW_AT_high_pc($C$DW$L$_CDC_putData$8$E)
    3005              $C$DW$222       .dwtag  DW_TAG_TI_loop_range
    3006                      .dwattr $C$DW$222, DW_AT_low_pc($C$DW$L$_CDC_putData$9$B)
    3007                      .dwattr $C$DW$222, DW_AT_high_pc($C$DW$L$_CDC_putData$9$E)
    3008              $C$DW$223       .dwtag  DW_TAG_TI_loop_range
    3009                      .dwattr $C$DW$223, DW_AT_low_pc($C$DW$L$_CDC_putData$10$B)
    3010                      .dwattr $C$DW$223, DW_AT_high_pc($C$DW$L$_CDC_putData$10$E)
    3011              $C$DW$224       .dwtag  DW_TAG_TI_loop_range
TMS320C55x Assembler PC v4.4.1 Tue Sep 18 04:50:04 2018

Tools Copyright (c) 1996-2012 Texas Instruments Incorporated
csl_cdc.asm                                                          PAGE   71

    3012                      .dwattr $C$DW$224, DW_AT_low_pc($C$DW$L$_CDC_putData$11$B)
    3013                      .dwattr $C$DW$224, DW_AT_high_pc($C$DW$L$_CDC_putData$11$E)
    3014              $C$DW$225       .dwtag  DW_TAG_TI_loop_range
    3015                      .dwattr $C$DW$225, DW_AT_low_pc($C$DW$L$_CDC_putData$12$B)
    3016                      .dwattr $C$DW$225, DW_AT_high_pc($C$DW$L$_CDC_putData$12$E)
    3017                      .dwendtag $C$DW$219
    3018              
    3019                      .dwattr $C$DW$194, DW_AT_TI_end_file("../c5535_bsl_revc/ezdsp5535_v1/c55xx_csl/src/csl_cdc.c")
    3020                      .dwattr $C$DW$194, DW_AT_TI_end_line(0x4c7)
    3021                      .dwattr $C$DW$194, DW_AT_TI_end_column(0x01)
    3022                      .dwendentry
    3023                      .dwendtag $C$DW$194
    3024              
    3025              ;*******************************************************************************
    3026              ;* FAR STRINGS                                                                 *
    3027              ;*******************************************************************************
    3028 000000               .sect   ".const:.string"
    3029                      .align  2
    3030 000000 0055  $C$FSL1:        .string "USB RX Transaction failed",10,0
         000001 0053 
         000002 0042 
         000003 0020 
         000004 0052 
         000005 0058 
         000006 0020 
         000007 0054 
         000008 0072 
         000009 0061 
         00000a 006E 
         00000b 0073 
         00000c 0061 
         00000d 0063 
         00000e 0074 
