TMS320C55x Assembler PC v4.4.1 Fri Sep 14 03:54:38 2018

Tools Copyright (c) 1996-2012 Texas Instruments Incorporated
csl_mmcsd.asm                                                        PAGE    1

   17007              ; Temporary Registers Used: None
       1              ;*******************************************************************************
       2              ;* TMS320C55x C/C++ Codegen                                          PC v4.4.1 *
       3              ;* Date/Time created: Fri Sep 14 03:54:28 2018                                 *
       4              ;*******************************************************************************
       5                      .compiler_opts --hll_source=on --mem_model:code=flat --mem_model:data=large --object_format=coff --si
       6                      .mmregs
       7                      .cpl_on
       8                      .arms_on
       9                      .c54cm_off
      10                      .asg AR6, FP
      11                      .asg XAR6, XFP
      12                      .asg DPH, MDP
      13                      .model call=c55_std
      14                      .model mem=large
      15                      .noremark 5002  ; code respects overwrite rules
      16              ;*******************************************************************************
      17              ;* GLOBAL FILE PARAMETERS                                                      *
      18              ;*                                                                             *
      19              ;*   Architecture       : TMS320C55x                                           *
      20              ;*   Optimizing for     : Speed                                                *
      21              ;*   Memory             : Large Model (23-Bit Data Pointers)                   *
      22              ;*   Calls              : Normal Library ASM calls                             *
      23              ;*   Debug Info         : Standard TI Debug Information                        *
      24              ;*******************************************************************************
      25              
      26              $C$DW$CU        .dwtag  DW_TAG_compile_unit
      27                      .dwattr $C$DW$CU, DW_AT_name("../c5535_bsl_revc/ezdsp5535_v1/c55xx_csl/src/csl_mmcsd.c")
      28                      .dwattr $C$DW$CU, DW_AT_producer("TMS320C55x C/C++ Codegen PC v4.4.1 Copyright (c) 1996-2012 Texas In
      29                      .dwattr $C$DW$CU, DW_AT_TI_version(0x01)
      30                      .dwattr $C$DW$CU, DW_AT_comp_dir("F:\eZdsp_DBG\eZDSP_5535_Files\ccsws2\test\Debug")
      31              
      32              $C$DW$1 .dwtag  DW_TAG_subprogram, DW_AT_name("DMA_close")
      33                      .dwattr $C$DW$1, DW_AT_TI_symbol_name("_DMA_close")
      34                      .dwattr $C$DW$1, DW_AT_type(*$C$DW$T$116)
      35                      .dwattr $C$DW$1, DW_AT_declaration
      36                      .dwattr $C$DW$1, DW_AT_external
      37              $C$DW$2 .dwtag  DW_TAG_formal_parameter
      38                      .dwattr $C$DW$2, DW_AT_type(*$C$DW$T$89)
      39                      .dwendtag $C$DW$1
      40              
      41              
      42              $C$DW$3 .dwtag  DW_TAG_subprogram, DW_AT_name("DMA_config")
      43                      .dwattr $C$DW$3, DW_AT_TI_symbol_name("_DMA_config")
      44                      .dwattr $C$DW$3, DW_AT_type(*$C$DW$T$116)
      45                      .dwattr $C$DW$3, DW_AT_declaration
      46                      .dwattr $C$DW$3, DW_AT_external
      47              $C$DW$4 .dwtag  DW_TAG_formal_parameter
      48                      .dwattr $C$DW$4, DW_AT_type(*$C$DW$T$89)
      49              $C$DW$5 .dwtag  DW_TAG_formal_parameter
      50                      .dwattr $C$DW$5, DW_AT_type(*$C$DW$T$111)
      51                      .dwendtag $C$DW$3
      52              
      53              
      54              $C$DW$6 .dwtag  DW_TAG_subprogram, DW_AT_name("DMA_start")
TMS320C55x Assembler PC v4.4.1 Fri Sep 14 03:54:38 2018

Tools Copyright (c) 1996-2012 Texas Instruments Incorporated
csl_mmcsd.asm                                                        PAGE    2

      55                      .dwattr $C$DW$6, DW_AT_TI_symbol_name("_DMA_start")
      56                      .dwattr $C$DW$6, DW_AT_type(*$C$DW$T$116)
      57                      .dwattr $C$DW$6, DW_AT_declaration
      58                      .dwattr $C$DW$6, DW_AT_external
      59              $C$DW$7 .dwtag  DW_TAG_formal_parameter
      60                      .dwattr $C$DW$7, DW_AT_type(*$C$DW$T$89)
      61                      .dwendtag $C$DW$6
      62              
      63              
      64              $C$DW$8 .dwtag  DW_TAG_subprogram, DW_AT_name("DMA_stop")
      65                      .dwattr $C$DW$8, DW_AT_TI_symbol_name("_DMA_stop")
      66                      .dwattr $C$DW$8, DW_AT_type(*$C$DW$T$116)
      67                      .dwattr $C$DW$8, DW_AT_declaration
      68                      .dwattr $C$DW$8, DW_AT_external
      69              $C$DW$9 .dwtag  DW_TAG_formal_parameter
      70                      .dwattr $C$DW$9, DW_AT_type(*$C$DW$T$89)
      71                      .dwendtag $C$DW$8
      72              
      73              
      74              $C$DW$10        .dwtag  DW_TAG_subprogram, DW_AT_name("DMA_swapWords")
      75                      .dwattr $C$DW$10, DW_AT_TI_symbol_name("_DMA_swapWords")
      76                      .dwattr $C$DW$10, DW_AT_type(*$C$DW$T$116)
      77                      .dwattr $C$DW$10, DW_AT_declaration
      78                      .dwattr $C$DW$10, DW_AT_external
      79              $C$DW$11        .dwtag  DW_TAG_formal_parameter
      80                      .dwattr $C$DW$11, DW_AT_type(*$C$DW$T$141)
      81              $C$DW$12        .dwtag  DW_TAG_formal_parameter
      82                      .dwattr $C$DW$12, DW_AT_type(*$C$DW$T$49)
      83                      .dwendtag $C$DW$10
      84              
      85              
      86              $C$DW$13        .dwtag  DW_TAG_subprogram, DW_AT_name("IRQ_globalDisable")
      87                      .dwattr $C$DW$13, DW_AT_TI_symbol_name("_IRQ_globalDisable")
      88                      .dwattr $C$DW$13, DW_AT_type(*$C$DW$T$31)
      89                      .dwattr $C$DW$13, DW_AT_declaration
      90                      .dwattr $C$DW$13, DW_AT_external
      91              
      92              $C$DW$14        .dwtag  DW_TAG_subprogram, DW_AT_name("IRQ_globalRestore")
      93                      .dwattr $C$DW$14, DW_AT_TI_symbol_name("_IRQ_globalRestore")
      94                      .dwattr $C$DW$14, DW_AT_declaration
      95                      .dwattr $C$DW$14, DW_AT_external
      96              $C$DW$15        .dwtag  DW_TAG_formal_parameter
      97                      .dwattr $C$DW$15, DW_AT_type(*$C$DW$T$31)
      98                      .dwendtag $C$DW$14
      99              
     100              ;       F:\ti\ccs8p1\ccsv8\tools\compiler\alt-install-ti-cgt-c55x_4.4.1\bin\acp55.exe -@f:\\AppData\\Local\\T
     101 000000               .sect   ".text"
     102                      .align 4
     103                      .global _MMC_init
     104              
     105              $C$DW$16        .dwtag  DW_TAG_subprogram, DW_AT_name("MMC_init")
     106                      .dwattr $C$DW$16, DW_AT_low_pc(_MMC_init)
     107                      .dwattr $C$DW$16, DW_AT_high_pc(0x00)
     108                      .dwattr $C$DW$16, DW_AT_TI_symbol_name("_MMC_init")
     109                      .dwattr $C$DW$16, DW_AT_external
TMS320C55x Assembler PC v4.4.1 Fri Sep 14 03:54:38 2018

Tools Copyright (c) 1996-2012 Texas Instruments Incorporated
csl_mmcsd.asm                                                        PAGE    3

     110                      .dwattr $C$DW$16, DW_AT_type(*$C$DW$T$116)
     111                      .dwattr $C$DW$16, DW_AT_TI_begin_file("../c5535_bsl_revc/ezdsp5535_v1/c55xx_csl/src/csl_mmcsd.c")
     112                      .dwattr $C$DW$16, DW_AT_TI_begin_line(0x8e)
     113                      .dwattr $C$DW$16, DW_AT_TI_begin_column(0x0c)
     114                      .dwattr $C$DW$16, DW_AT_TI_max_frame_size(0x01)
     115                      .dwpsn  file "../c5535_bsl_revc/ezdsp5535_v1/c55xx_csl/src/csl_mmcsd.c",line 143,column 1,is_stmt,add
     116              
     117                      .dwfde $C$DW$CIE, _MMC_init
     118              ;*******************************************************************************
     119              ;* FUNCTION NAME: MMC_init                                                     *
     120              ;*                                                                             *
     121              ;*   Function Uses Regs : AC0,AC0,T0,AR1,SP,M40,SATA,SATD,RDM,FRCT,SMUL        *
     122              ;*   Stack Frame        : Compact (No Frame Pointer, w/ debug)                 *
     123              ;*   Total Frame Size   : 1 word                                               *
     124              ;*                        (1 return address/alignment)                         *
     125              ;*   Min System Stack   : 1 word                                               *
     126              ;*******************************************************************************
     127 000000       _MMC_init:
     128                      .dwcfi  cfa_offset, 1
     129                      .dwcfi  save_reg_to_mem, 91, -1
     130                      .dwpsn  file "../c5535_bsl_revc/ezdsp5535_v1/c55xx_csl/src/csl_mmcsd.c",line 145,column 2,is_stmt
     131 000000 F451          AND #0xffef, *port(#7170) ; |145| 
         000002 FFEF 
         000004 1C02 
     132                      .dwpsn  file "../c5535_bsl_revc/ezdsp5535_v1/c55xx_csl/src/csl_mmcsd.c",line 146,column 2,is_stmt
     133 000006 F451          AND #0xff7f, *port(#7171) ; |146| 
         000008 FF7F 
         00000a 1C03 
     134                      .dwpsn  file "../c5535_bsl_revc/ezdsp5535_v1/c55xx_csl/src/csl_mmcsd.c",line 149,column 2,is_stmt
     135 00000c 3C00          MOV #0, AC0 ; |149| 
     136 00000e A951          MOV *port(#7172), AR1 ; |149| 
         000010 1C04 
     137 000012 EC0A          BSET @#5, AC0 ; |149| 
         000014 00   
     138 000015 C051          MOV AC0, *port(#7172) ; |149| 
         000017 1C04 
     139                      .dwpsn  file "../c5535_bsl_revc/ezdsp5535_v1/c55xx_csl/src/csl_mmcsd.c",line 150,column 2,is_stmt
     140 000019 A951          MOV *port(#7173), AR1 ; |150| 
         00001b 1C05 
     141 00001d EC0A          BCLR @#5, AR1 ; |150| 
         00001f 92   
     142 000020 EC0A          BSET @#5, AR1 ; |150| 
         000022 90   
     143 000023 C951          MOV AR1, *port(#7173) ; |150| 
         000025 1C05 
     144                      .dwpsn  file "../c5535_bsl_revc/ezdsp5535_v1/c55xx_csl/src/csl_mmcsd.c",line 153,column 2,is_stmt
     145 000027 F451          AND #0xfcff, *port(#7168) ; |153| 
         000029 FCFF 
         00002b 1C00 
     146                      .dwpsn  file "../c5535_bsl_revc/ezdsp5535_v1/c55xx_csl/src/csl_mmcsd.c",line 155,column 2,is_stmt
     147 00002d F451          AND #0xf3ff, *port(#7168) ; |155| 
         00002f F3FF 
         000031 1C00 
     148                      .dwpsn  file "../c5535_bsl_revc/ezdsp5535_v1/c55xx_csl/src/csl_mmcsd.c",line 157,column 5,is_stmt
     149 000033 3C04          MOV #0, T0
TMS320C55x Assembler PC v4.4.1 Fri Sep 14 03:54:38 2018

Tools Copyright (c) 1996-2012 Texas Instruments Incorporated
csl_mmcsd.asm                                                        PAGE    4

     150                      .dwpsn  file "../c5535_bsl_revc/ezdsp5535_v1/c55xx_csl/src/csl_mmcsd.c",line 158,column 1,is_stmt
     151              $C$DW$17        .dwtag  DW_TAG_TI_branch
     152                      .dwattr $C$DW$17, DW_AT_low_pc(0x00)
     153                      .dwattr $C$DW$17, DW_AT_TI_return
     154 000035 4804          RET
     155                                                      ; return occurs
     156                      .dwattr $C$DW$16, DW_AT_TI_end_file("../c5535_bsl_revc/ezdsp5535_v1/c55xx_csl/src/csl_mmcsd.c")
     157                      .dwattr $C$DW$16, DW_AT_TI_end_line(0x9e)
     158                      .dwattr $C$DW$16, DW_AT_TI_end_column(0x01)
     159                      .dwendentry
     160                      .dwendtag $C$DW$16
     161              
     162 000037               .sect   ".text"
     163                      .align 4
     164                      .global _MMC_open
     165              
     166              $C$DW$18        .dwtag  DW_TAG_subprogram, DW_AT_name("MMC_open")
     167                      .dwattr $C$DW$18, DW_AT_low_pc(_MMC_open)
     168                      .dwattr $C$DW$18, DW_AT_high_pc(0x00)
     169                      .dwattr $C$DW$18, DW_AT_TI_symbol_name("_MMC_open")
     170                      .dwattr $C$DW$18, DW_AT_external
     171                      .dwattr $C$DW$18, DW_AT_type(*$C$DW$T$114)
     172                      .dwattr $C$DW$18, DW_AT_TI_begin_file("../c5535_bsl_revc/ezdsp5535_v1/c55xx_csl/src/csl_mmcsd.c")
     173                      .dwattr $C$DW$18, DW_AT_TI_begin_line(0xd5)
     174                      .dwattr $C$DW$18, DW_AT_TI_begin_column(0x11)
     175                      .dwattr $C$DW$18, DW_AT_TI_max_frame_size(0x0a)
     176                      .dwpsn  file "../c5535_bsl_revc/ezdsp5535_v1/c55xx_csl/src/csl_mmcsd.c",line 217,column 1,is_stmt,add
     177              
     178                      .dwfde $C$DW$CIE, _MMC_open
     179              $C$DW$19        .dwtag  DW_TAG_formal_parameter, DW_AT_name("pMmcsdContObj")
     180                      .dwattr $C$DW$19, DW_AT_TI_symbol_name("_pMmcsdContObj")
     181                      .dwattr $C$DW$19, DW_AT_type(*$C$DW$T$113)
     182                      .dwattr $C$DW$19, DW_AT_location[DW_OP_reg17]
     183              $C$DW$20        .dwtag  DW_TAG_formal_parameter, DW_AT_name("instId")
     184                      .dwattr $C$DW$20, DW_AT_TI_symbol_name("_instId")
     185                      .dwattr $C$DW$20, DW_AT_type(*$C$DW$T$108)
     186                      .dwattr $C$DW$20, DW_AT_location[DW_OP_reg12]
     187              $C$DW$21        .dwtag  DW_TAG_formal_parameter, DW_AT_name("opMode")
     188                      .dwattr $C$DW$21, DW_AT_TI_symbol_name("_opMode")
     189                      .dwattr $C$DW$21, DW_AT_type(*$C$DW$T$86)
     190                      .dwattr $C$DW$21, DW_AT_location[DW_OP_reg13]
     191              $C$DW$22        .dwtag  DW_TAG_formal_parameter, DW_AT_name("status")
     192                      .dwattr $C$DW$22, DW_AT_TI_symbol_name("_status")
     193                      .dwattr $C$DW$22, DW_AT_type(*$C$DW$T$117)
     194                      .dwattr $C$DW$22, DW_AT_location[DW_OP_reg19]
     195              ;*******************************************************************************
     196              ;* FUNCTION NAME: MMC_open                                                     *
     197              ;*                                                                             *
     198              ;*   Function Uses Regs : AC0,AC0,T0,T1,AR0,XAR0,AR1,XAR1,AR2,AR3,XAR3,SP,TC1, *
     199              ;*                        M40,SATA,SATD,RDM,FRCT,SMUL                          *
     200              ;*   Stack Frame        : Compact (No Frame Pointer, w/ debug)                 *
     201              ;*   Total Frame Size   : 10 words                                             *
     202              ;*                        (2 return address/alignment)                         *
     203              ;*                        (8 local values)                                     *
     204              ;*   Min System Stack   : 1 word                                               *
TMS320C55x Assembler PC v4.4.1 Fri Sep 14 03:54:38 2018

Tools Copyright (c) 1996-2012 Texas Instruments Incorporated
csl_mmcsd.asm                                                        PAGE    5

     205              ;*******************************************************************************
     206 000038       _MMC_open:
     207                      .dwcfi  cfa_offset, 1
     208                      .dwcfi  save_reg_to_mem, 91, -1
     209 000038 4EF7          AADD #-9, SP
     210                      .dwcfi  cfa_offset, 10
     211              $C$DW$23        .dwtag  DW_TAG_variable, DW_AT_name("pMmcsdContObj")
     212                      .dwattr $C$DW$23, DW_AT_TI_symbol_name("_pMmcsdContObj")
     213                      .dwattr $C$DW$23, DW_AT_type(*$C$DW$T$113)
     214                      .dwattr $C$DW$23, DW_AT_location[DW_OP_bregx 0x24 0]
     215              $C$DW$24        .dwtag  DW_TAG_variable, DW_AT_name("instId")
     216                      .dwattr $C$DW$24, DW_AT_TI_symbol_name("_instId")
     217                      .dwattr $C$DW$24, DW_AT_type(*$C$DW$T$108)
     218                      .dwattr $C$DW$24, DW_AT_location[DW_OP_bregx 0x24 2]
     219              $C$DW$25        .dwtag  DW_TAG_variable, DW_AT_name("opMode")
     220                      .dwattr $C$DW$25, DW_AT_TI_symbol_name("_opMode")
     221                      .dwattr $C$DW$25, DW_AT_type(*$C$DW$T$86)
     222                      .dwattr $C$DW$25, DW_AT_location[DW_OP_bregx 0x24 3]
     223              $C$DW$26        .dwtag  DW_TAG_variable, DW_AT_name("status")
     224                      .dwattr $C$DW$26, DW_AT_TI_symbol_name("_status")
     225                      .dwattr $C$DW$26, DW_AT_type(*$C$DW$T$117)
     226                      .dwattr $C$DW$26, DW_AT_location[DW_OP_bregx 0x24 4]
     227              $C$DW$27        .dwtag  DW_TAG_variable, DW_AT_name("hMmcsd")
     228                      .dwattr $C$DW$27, DW_AT_TI_symbol_name("_hMmcsd")
     229                      .dwattr $C$DW$27, DW_AT_type(*$C$DW$T$114)
     230                      .dwattr $C$DW$27, DW_AT_location[DW_OP_bregx 0x24 6]
     231 00003a EB08          MOV XAR1, dbl(*SP(#4))
         00003c 95   
     232 00003d C506          MOV T1, *SP(#3) ; |217| 
     233 00003f C404          MOV T0, *SP(#2) ; |217| 
     234 000041 EB00          MOV XAR0, dbl(*SP(#0))
         000043 85   
     235                      .dwpsn  file "../c5535_bsl_revc/ezdsp5535_v1/c55xx_csl/src/csl_mmcsd.c",line 220,column 5,is_stmt
     236 000044 ED00          MOV dbl(*SP(#0)), XAR3
         000046 BF   
     237 000047 90B0          MOV XAR3, AC0
     238 000049 0400          BCC $C$L1,AC0 == #0 ; |220| 
         00004b 13   
     239                                                      ; branchcc occurs ; |220| 
     240 00004c A906          MOV *SP(#3), AR1 ; |220| 
     241 00004e 0409          BCC $C$L3,AR1 == #0 ; |220| 
         000050 20   
     242                                                      ; branchcc occurs ; |220| 
     243 000051 F006          CMP *SP(#3) == #1, TC1 ; |220| 
         000053 0001 
     244 000055 0464          BCC $C$L3,TC1 ; |220| 
         000057 19   
     245                                                      ; branchcc occurs ; |220| 
     246 000058 F006          CMP *SP(#3) == #2, TC1 ; |220| 
         00005a 0002 
     247 00005c 0464          BCC $C$L3,TC1 ; |220| 
         00005e 12   
     248                                                      ; branchcc occurs ; |220| 
     249 00005f       $C$L1:    
     250                      .dwpsn  file "../c5535_bsl_revc/ezdsp5535_v1/c55xx_csl/src/csl_mmcsd.c",line 225,column 3,is_stmt
TMS320C55x Assembler PC v4.4.1 Fri Sep 14 03:54:38 2018

Tools Copyright (c) 1996-2012 Texas Instruments Incorporated
csl_mmcsd.asm                                                        PAGE    6

     251 00005f ED08          MOV dbl(*SP(#4)), XAR3
         000061 BF   
     252 000062 90B0          MOV XAR3, AC0
     253 000064 6180          BCC $C$L2,AC0 == #0 ; |225| 
     254                                                      ; branchcc occurs ; |225| 
     255                      .dwpsn  file "../c5535_bsl_revc/ezdsp5535_v1/c55xx_csl/src/csl_mmcsd.c",line 227,column 10,is_stmt
     256 000066 E661          MOV #-6, *AR3 ; |227| 
         000068 FA   
     257 000069       $C$L2:    
     258                      .dwpsn  file "../c5535_bsl_revc/ezdsp5535_v1/c55xx_csl/src/csl_mmcsd.c",line 229,column 9,is_stmt
     259 000069 3C00          MOV #0, AC0 ; |229| 
     260 00006b EB0C          MOV AC0, dbl(*SP(#6))
         00006d 08   
     261                      .dwpsn  file "../c5535_bsl_revc/ezdsp5535_v1/c55xx_csl/src/csl_mmcsd.c",line 230,column 2,is_stmt
     262 00006e 0601          B $C$L10  ; |230| 
         000070 CF   
     263                                                      ; branch occurs ; |230| 
     264 000071       $C$L3:    
     265                      .dwpsn  file "../c5535_bsl_revc/ezdsp5535_v1/c55xx_csl/src/csl_mmcsd.c",line 231,column 7,is_stmt
     266 000071 ED08          MOV dbl(*SP(#4)), XAR3
         000073 BF   
     267 000074 90B0          MOV XAR3, AC0
     268 000076 0410          BCC $C$L7,AC0 != #0 ; |231| 
         000078 3C   
     269                                                      ; branchcc occurs ; |231| 
     270                      .dwpsn  file "../c5535_bsl_revc/ezdsp5535_v1/c55xx_csl/src/csl_mmcsd.c",line 233,column 3,is_stmt
     271 000079 3C00          MOV #0, AC0 ; |233| 
     272 00007b EB0C          MOV AC0, dbl(*SP(#6))
         00007d 08   
     273                      .dwpsn  file "../c5535_bsl_revc/ezdsp5535_v1/c55xx_csl/src/csl_mmcsd.c",line 234,column 2,is_stmt
     274 00007e 0601          B $C$L10  ; |234| 
         000080 BF   
     275                                                      ; branch occurs ; |234| 
     276 000081       $C$L4:    
     277                      .dwpsn  file "../c5535_bsl_revc/ezdsp5535_v1/c55xx_csl/src/csl_mmcsd.c",line 240,column 5,is_stmt
     278 000081 E661          MOV #0, *AR3 ; |240| 
         000083 00   
     279                      .dwpsn  file "../c5535_bsl_revc/ezdsp5535_v1/c55xx_csl/src/csl_mmcsd.c",line 241,column 5,is_stmt
     280 000084 ED00          MOV dbl(*SP(#0)), XAR3
         000086 BF   
     281 000087 FB61          MOV #14848, *AR3 ; |241| 
         000089 3A00 
     282                      .dwpsn  file "../c5535_bsl_revc/ezdsp5535_v1/c55xx_csl/src/csl_mmcsd.c",line 242,column 5,is_stmt
     283 00008b ED00          MOV dbl(*SP(#0)), XAR3
         00008d BF   
     284 00008e EB0C          MOV XAR3, dbl(*SP(#6))
         000090 B5   
     285                      .dwpsn  file "../c5535_bsl_revc/ezdsp5535_v1/c55xx_csl/src/csl_mmcsd.c",line 243,column 10,is_stmt
     286 000091 4A31          B $C$L8   ; |243| 
     287                                                      ; branch occurs ; |243| 
     288 000093       $C$L5:    
     289                      .dwpsn  file "../c5535_bsl_revc/ezdsp5535_v1/c55xx_csl/src/csl_mmcsd.c",line 246,column 5,is_stmt
     290 000093 E661          MOV #0, *AR3 ; |246| 
         000095 00   
     291                      .dwpsn  file "../c5535_bsl_revc/ezdsp5535_v1/c55xx_csl/src/csl_mmcsd.c",line 247,column 5,is_stmt
TMS320C55x Assembler PC v4.4.1 Fri Sep 14 03:54:38 2018

Tools Copyright (c) 1996-2012 Texas Instruments Incorporated
csl_mmcsd.asm                                                        PAGE    7

     292 000096 ED00          MOV dbl(*SP(#0)), XAR3
         000098 BF   
     293 000099 FB61          MOV #15104, *AR3 ; |247| 
         00009b 3B00 
     294                      .dwpsn  file "../c5535_bsl_revc/ezdsp5535_v1/c55xx_csl/src/csl_mmcsd.c",line 248,column 5,is_stmt
     295 00009d ED00          MOV dbl(*SP(#0)), XAR3
         00009f BF   
     296 0000a0 EB0C          MOV XAR3, dbl(*SP(#6))
         0000a2 B5   
     297                      .dwpsn  file "../c5535_bsl_revc/ezdsp5535_v1/c55xx_csl/src/csl_mmcsd.c",line 249,column 10,is_stmt
     298 0000a3 4A1F          B $C$L8   ; |249| 
     299                                                      ; branch occurs ; |249| 
     300 0000a5       $C$L6:    
     301                      .dwpsn  file "../c5535_bsl_revc/ezdsp5535_v1/c55xx_csl/src/csl_mmcsd.c",line 252,column 5,is_stmt
     302 0000a5 E661          MOV #-6, *AR3 ; |252| 
         0000a7 FA   
     303                      .dwpsn  file "../c5535_bsl_revc/ezdsp5535_v1/c55xx_csl/src/csl_mmcsd.c",line 253,column 5,is_stmt
     304 0000a8 ED00          MOV dbl(*SP(#0)), XAR3
         0000aa BF   
     305 0000ab E661          MOV #0, *AR3 ; |253| 
         0000ad 00   
     306                      .dwpsn  file "../c5535_bsl_revc/ezdsp5535_v1/c55xx_csl/src/csl_mmcsd.c",line 254,column 5,is_stmt
     307 0000ae 3C00          MOV #0, AC0 ; |254| 
     308 0000b0 EB0C          MOV AC0, dbl(*SP(#6))
         0000b2 08   
     309                      .dwpsn  file "../c5535_bsl_revc/ezdsp5535_v1/c55xx_csl/src/csl_mmcsd.c",line 255,column 10,is_stmt
     310 0000b3 4A0F          B $C$L8   ; |255| 
     311                                                      ; branch occurs ; |255| 
     312 0000b5       $C$L7:    
     313                      .dwpsn  file "../c5535_bsl_revc/ezdsp5535_v1/c55xx_csl/src/csl_mmcsd.c",line 237,column 6,is_stmt
     314 0000b5 A904          MOV *SP(#2), AR1 ; |237| 
     315 0000b7 0409          BCC $C$L4,AR1 == #0 ; |237| 
         0000b9 C7   
     316                                                      ; branchcc occurs ; |237| 
     317 0000ba 3C1A          MOV #1, AR2
     318 0000bc 1290          CMP AR1 == AR2, TC1 ; |237| 
         0000be A0   
     319 0000bf 0464          BCC $C$L5,TC1 ; |237| 
         0000c1 D1   
     320                                                      ; branchcc occurs ; |237| 
     321 0000c2 4A61          B $C$L6   ; |237| 
     322                                                      ; branch occurs ; |237| 
     323 0000c4       $C$L8:    
     324                      .dwpsn  file "../c5535_bsl_revc/ezdsp5535_v1/c55xx_csl/src/csl_mmcsd.c",line 258,column 3,is_stmt
     325 0000c4 ED0C          MOV dbl(*SP(#6)), XAR3
         0000c6 BF   
     326 0000c7 A906          MOV *SP(#3), AR1 ; |258| 
     327 0000c9 C96D          MOV AR1, *AR3(#8) ; |258| 
         0000cb 0008 
     328                      .dwpsn  file "../c5535_bsl_revc/ezdsp5535_v1/c55xx_csl/src/csl_mmcsd.c",line 260,column 3,is_stmt
     329 0000cd ED0C          MOV dbl(*SP(#6)), XAR3
         0000cf BF   
     330 0000d0 E66D          MOV #0, *AR3(#61) ; |260| 
         0000d2 0000 
         0000d4 3D   
TMS320C55x Assembler PC v4.4.1 Fri Sep 14 03:54:38 2018

Tools Copyright (c) 1996-2012 Texas Instruments Incorporated
csl_mmcsd.asm                                                        PAGE    8

     331                      .dwpsn  file "../c5535_bsl_revc/ezdsp5535_v1/c55xx_csl/src/csl_mmcsd.c",line 261,column 3,is_stmt
     332 0000d5 ED0C          MOV dbl(*SP(#6)), XAR3
         0000d7 BF   
     333 0000d8 E66D          MOV #0, *AR3(#62) ; |261| 
         0000da 0000 
         0000dc 3E   
     334                      .dwpsn  file "../c5535_bsl_revc/ezdsp5535_v1/c55xx_csl/src/csl_mmcsd.c",line 262,column 3,is_stmt
     335 0000dd ED0C          MOV dbl(*SP(#6)), XAR3
         0000df BF   
     336 0000e0 E66D          MOV #0, *AR3(#44) ; |262| 
         0000e2 0000 
         0000e4 2C   
     337                      .dwpsn  file "../c5535_bsl_revc/ezdsp5535_v1/c55xx_csl/src/csl_mmcsd.c",line 263,column 3,is_stmt
     338 0000e5 ED0C          MOV dbl(*SP(#6)), XAR3
         0000e7 BF   
     339 0000e8 E66D          MOV #0, *AR3(#63) ; |263| 
         0000ea 0000 
         0000ec 3F   
     340                      .dwpsn  file "../c5535_bsl_revc/ezdsp5535_v1/c55xx_csl/src/csl_mmcsd.c",line 266,column 3,is_stmt
     341 0000ed ED0C          MOV dbl(*SP(#6)), XAR3
         0000ef BF   
     342 0000f0 AB61          MOV *AR3, AR3 ; |266| 
     343 0000f2 A961          MOV port(*AR3), AR1 ; |266| 
         0000f4 99   
     344 0000f5 ED0C          MOV dbl(*SP(#6)), XAR3
         0000f7 BF   
     345 0000f8 F96D          MOV *AR3(#62) << #10, AC0 ; |266| 
         0000fa 0A08 
         0000fc 003E 
     346 0000fe AB61          MOV *AR3, AR3 ; |266| 
     347 000100 EC14          BCLR @#10, AR1 ; |266| 
         000102 92   
     348 000103 7D04          AND #0x0400, AC0, AR2 ; |266| 
         000105 00A0 
     349 000107 2A9A          OR AR1, AR2 ; |266| 
     350 000109 CA61          MOV AR2, port(*AR3) ; |266| 
         00010b 9A   
     351                      .dwpsn  file "../c5535_bsl_revc/ezdsp5535_v1/c55xx_csl/src/csl_mmcsd.c",line 270,column 3,is_stmt
     352 00010c ED0C          MOV dbl(*SP(#6)), XAR3
         00010e BF   
     353 00010f AB61          MOV *AR3, AR3 ; |270| 
     354 000111 A961          MOV port(*AR3), AR1 ; |270| 
         000113 99   
     355 000114 ED0C          MOV dbl(*SP(#6)), XAR3
         000116 BF   
     356 000117 F96D          MOV *AR3(#61) << #9, AC0 ; |270| 
         000119 0908 
         00011b 003D 
     357 00011d AB61          MOV *AR3, AR3 ; |270| 
     358 00011f EC12          BCLR @#9, AR1 ; |270| 
         000121 92   
     359 000122 7D02          AND #0x0200, AC0, AR2 ; |270| 
         000124 00A0 
     360 000126 2A9A          OR AR1, AR2 ; |270| 
     361 000128 CA61          MOV AR2, port(*AR3) ; |270| 
TMS320C55x Assembler PC v4.4.1 Fri Sep 14 03:54:38 2018

Tools Copyright (c) 1996-2012 Texas Instruments Incorporated
csl_mmcsd.asm                                                        PAGE    9

         00012a 9A   
     362                      .dwpsn  file "../c5535_bsl_revc/ezdsp5535_v1/c55xx_csl/src/csl_mmcsd.c",line 273,column 3,is_stmt
     363 00012b ED08          MOV dbl(*SP(#4)), XAR3
         00012d BF   
     364              
     365 00012e A961          MOV *AR3, AR1 ; |273| 
     366 000130 3D0A  ||      MOV #0, AR2
     367              
     368 000132 12AC          CMP AR2 != AR1, TC1 ; |273| 
         000134 90   
     369 000135 6D64          BCC $C$L10,TC1 ; |273| 
         000137 0107 
     370                                                      ; branchcc occurs ; |273| 
     371 000139 ED0C          MOV dbl(*SP(#6)), XAR3
         00013b BF   
     372 00013c 3C2A          MOV #2, AR2
     373 00013e A96D          MOV *AR3(#8), AR1 ; |273| 
         000140 0008 
     374 000142 12AC          CMP AR2 != AR1, TC1 ; |273| 
         000144 90   
     375 000145 6D64          BCC $C$L10,TC1 ; |273| 
         000147 00F7 
     376                                                      ; branchcc occurs ; |273| 
     377                      .dwpsn  file "../c5535_bsl_revc/ezdsp5535_v1/c55xx_csl/src/csl_mmcsd.c",line 275,column 4,is_stmt
     378 000149 3C00          MOV #0, AC0 ; |275| 
     379 00014b EB6D          MOV AC0, dbl(*AR3(#10))
         00014d 0800 
         00014f 0A   
     380                      .dwpsn  file "../c5535_bsl_revc/ezdsp5535_v1/c55xx_csl/src/csl_mmcsd.c",line 276,column 4,is_stmt
     381 000150 ED0C          MOV dbl(*SP(#6)), XAR3
         000152 BF   
     382 000153 EB6D          MOV AC0, dbl(*AR3(#12))
         000155 0800 
         000157 0C   
     383                      .dwpsn  file "../c5535_bsl_revc/ezdsp5535_v1/c55xx_csl/src/csl_mmcsd.c",line 280,column 7,is_stmt
     384 000158 ED0C          MOV dbl(*SP(#6)), XAR3
         00015a BF   
     385 00015b E66D          MOV #0, *AR3(#14) ; |280| 
         00015d 0000 
         00015f 0E   
     386                      .dwpsn  file "../c5535_bsl_revc/ezdsp5535_v1/c55xx_csl/src/csl_mmcsd.c",line 282,column 4,is_stmt
     387 000160 ED0C          MOV dbl(*SP(#6)), XAR3
         000162 BF   
     388 000163 E66D          MOV #0, *AR3(#15) ; |282| 
         000165 0000 
         000167 0F   
     389                      .dwpsn  file "../c5535_bsl_revc/ezdsp5535_v1/c55xx_csl/src/csl_mmcsd.c",line 283,column 4,is_stmt
     390 000168 ED0C          MOV dbl(*SP(#6)), XAR3
         00016a BF   
     391 00016b E66D          MOV #3, *AR3(#16) ; |283| 
         00016d 0300 
         00016f 10   
     392                      .dwpsn  file "../c5535_bsl_revc/ezdsp5535_v1/c55xx_csl/src/csl_mmcsd.c",line 284,column 4,is_stmt
     393 000170 ED0C          MOV dbl(*SP(#6)), XAR3
         000172 BF   
TMS320C55x Assembler PC v4.4.1 Fri Sep 14 03:54:38 2018

Tools Copyright (c) 1996-2012 Texas Instruments Incorporated
csl_mmcsd.asm                                                        PAGE   10

     394 000173 E66D          MOV #1, *AR3(#20) ; |284| 
         000175 0100 
         000177 14   
     395                      .dwpsn  file "../c5535_bsl_revc/ezdsp5535_v1/c55xx_csl/src/csl_mmcsd.c",line 285,column 4,is_stmt
     396 000178 ED0C          MOV dbl(*SP(#6)), XAR3
         00017a BF   
     397 00017b E66D          MOV #0, *AR3(#19) ; |285| 
         00017d 0000 
         00017f 13   
     398                      .dwpsn  file "../c5535_bsl_revc/ezdsp5535_v1/c55xx_csl/src/csl_mmcsd.c",line 286,column 4,is_stmt
     399 000180 ED0C          MOV dbl(*SP(#6)), XAR3
         000182 BF   
     400 000183 E66D          MOV #0, *AR3(#21) ; |286| 
         000185 0000 
         000187 15   
     401                      .dwpsn  file "../c5535_bsl_revc/ezdsp5535_v1/c55xx_csl/src/csl_mmcsd.c",line 287,column 4,is_stmt
     402 000188 ED0C          MOV dbl(*SP(#6)), XAR3
         00018a BF   
     403 00018b E66D          MOV #1, *AR3(#17) ; |287| 
         00018d 0100 
         00018f 11   
     404                      .dwpsn  file "../c5535_bsl_revc/ezdsp5535_v1/c55xx_csl/src/csl_mmcsd.c",line 288,column 4,is_stmt
     405 000190 ED0C          MOV dbl(*SP(#6)), XAR3
         000192 BF   
     406 000193 EB6D          MOV AC0, dbl(*AR3(#24)) ; |288| 
         000195 0800 
         000197 18   
     407                      .dwpsn  file "../c5535_bsl_revc/ezdsp5535_v1/c55xx_csl/src/csl_mmcsd.c",line 289,column 4,is_stmt
     408 000198 ED0C          MOV dbl(*SP(#6)), XAR3
         00019a BF   
     409 00019b E66D          MOV #0, *AR3(#22) ; |289| 
         00019d 0000 
         00019f 16   
     410                      .dwpsn  file "../c5535_bsl_revc/ezdsp5535_v1/c55xx_csl/src/csl_mmcsd.c",line 290,column 4,is_stmt
     411 0001a0 ED00          MOV dbl(*SP(#0)), XAR3
         0001a2 BF   
     412 0001a3 DF61          MOV uns(*AR3), AC0 ; |290| 
         0001a5 05   
     413 0001a6 900B          MOV AC0, XAR3
     414 0001a8 142C          AADD #44, AR3 ; |290| 
         0001aa B4   
     415 0001ab 90B0          MOV XAR3, AC0
     416 0001ad ED0C          MOV dbl(*SP(#6)), XAR3
         0001af BF   
     417 0001b0 EB6D          MOV AC0, dbl(*AR3(#26)) ; |290| 
         0001b2 0800 
         0001b4 1A   
     418                      .dwpsn  file "../c5535_bsl_revc/ezdsp5535_v1/c55xx_csl/src/csl_mmcsd.c",line 294,column 7,is_stmt
     419 0001b5 ED0C          MOV dbl(*SP(#6)), XAR3
         0001b7 BF   
     420 0001b8 E66D          MOV #0, *AR3(#28) ; |294| 
         0001ba 0000 
         0001bc 1C   
     421                      .dwpsn  file "../c5535_bsl_revc/ezdsp5535_v1/c55xx_csl/src/csl_mmcsd.c",line 296,column 4,is_stmt
     422 0001bd ED0C          MOV dbl(*SP(#6)), XAR3
TMS320C55x Assembler PC v4.4.1 Fri Sep 14 03:54:38 2018

Tools Copyright (c) 1996-2012 Texas Instruments Incorporated
csl_mmcsd.asm                                                        PAGE   11

         0001bf BF   
     423 0001c0 E66D          MOV #0, *AR3(#29) ; |296| 
         0001c2 0000 
         0001c4 1D   
     424                      .dwpsn  file "../c5535_bsl_revc/ezdsp5535_v1/c55xx_csl/src/csl_mmcsd.c",line 297,column 4,is_stmt
     425 0001c5 ED0C          MOV dbl(*SP(#6)), XAR3
         0001c7 BF   
     426 0001c8 E66D          MOV #3, *AR3(#30) ; |297| 
         0001ca 0300 
         0001cc 1E   
     427                      .dwpsn  file "../c5535_bsl_revc/ezdsp5535_v1/c55xx_csl/src/csl_mmcsd.c",line 298,column 4,is_stmt
     428 0001cd ED0C          MOV dbl(*SP(#6)), XAR3
         0001cf BF   
     429 0001d0 E66D          MOV #0, *AR3(#34) ; |298| 
         0001d2 0000 
         0001d4 22   
     430                      .dwpsn  file "../c5535_bsl_revc/ezdsp5535_v1/c55xx_csl/src/csl_mmcsd.c",line 299,column 4,is_stmt
     431 0001d5 ED0C          MOV dbl(*SP(#6)), XAR3
         0001d7 BF   
     432 0001d8 E66D          MOV #0, *AR3(#33) ; |299| 
         0001da 0000 
         0001dc 21   
     433                      .dwpsn  file "../c5535_bsl_revc/ezdsp5535_v1/c55xx_csl/src/csl_mmcsd.c",line 300,column 4,is_stmt
     434 0001dd ED0C          MOV dbl(*SP(#6)), XAR3
         0001df BF   
     435 0001e0 E66D          MOV #0, *AR3(#35) ; |300| 
         0001e2 0000 
         0001e4 23   
     436                      .dwpsn  file "../c5535_bsl_revc/ezdsp5535_v1/c55xx_csl/src/csl_mmcsd.c",line 301,column 4,is_stmt
     437 0001e5 ED0C          MOV dbl(*SP(#6)), XAR3
         0001e7 BF   
     438 0001e8 E66D          MOV #1, *AR3(#31) ; |301| 
         0001ea 0100 
         0001ec 1F   
     439                      .dwpsn  file "../c5535_bsl_revc/ezdsp5535_v1/c55xx_csl/src/csl_mmcsd.c",line 302,column 4,is_stmt
     440 0001ed ED0C          MOV dbl(*SP(#6)), XAR3
         0001ef BF   
     441 0001f0 3C00          MOV #0, AC0 ; |302| 
     442 0001f2 EB6D          MOV AC0, dbl(*AR3(#40)) ; |302| 
         0001f4 0800 
         0001f6 28   
     443                      .dwpsn  file "../c5535_bsl_revc/ezdsp5535_v1/c55xx_csl/src/csl_mmcsd.c",line 303,column 4,is_stmt
     444 0001f7 ED0C          MOV dbl(*SP(#6)), XAR3
         0001f9 BF   
     445 0001fa E66D          MOV #0, *AR3(#36) ; |303| 
         0001fc 0000 
         0001fe 24   
     446                      .dwpsn  file "../c5535_bsl_revc/ezdsp5535_v1/c55xx_csl/src/csl_mmcsd.c",line 304,column 4,is_stmt
     447 0001ff ED00          MOV dbl(*SP(#0)), XAR3
         000201 BF   
     448 000202 DF61          MOV uns(*AR3), AC0 ; |304| 
         000204 05   
     449 000205 900B          MOV AC0, XAR3
     450 000207 1428          AADD #40, AR3 ; |304| 
         000209 B4   
TMS320C55x Assembler PC v4.4.1 Fri Sep 14 03:54:38 2018

Tools Copyright (c) 1996-2012 Texas Instruments Incorporated
csl_mmcsd.asm                                                        PAGE   12

     451 00020a 90B0          MOV XAR3, AC0
     452 00020c ED0C          MOV dbl(*SP(#6)), XAR3
         00020e BF   
     453 00020f EB6D          MOV AC0, dbl(*AR3(#38)) ; |304| 
         000211 0800 
         000213 26   
     454                      .dwpsn  file "../c5535_bsl_revc/ezdsp5535_v1/c55xx_csl/src/csl_mmcsd.c",line 307,column 4,is_stmt
     455              
     456 000214 A904          MOV *SP(#2), AR1 ; |307| 
     457 000216 3D0A  ||      MOV #0, AR2
     458              
     459 000218 12AC          CMP AR2 != AR1, TC1 ; |307| 
         00021a 90   
     460 00021b 0464          BCC $C$L9,TC1 ; |307| 
         00021d 12   
     461                                                      ; branchcc occurs ; |307| 
     462                      .dwpsn  file "../c5535_bsl_revc/ezdsp5535_v1/c55xx_csl/src/csl_mmcsd.c",line 309,column 5,is_stmt
     463 00021e ED0C          MOV dbl(*SP(#6)), XAR3
         000220 BF   
     464 000221 E66D          MOV #5, *AR3(#18) ; |309| 
         000223 0500 
         000225 12   
     465                      .dwpsn  file "../c5535_bsl_revc/ezdsp5535_v1/c55xx_csl/src/csl_mmcsd.c",line 310,column 5,is_stmt
     466 000226 ED0C          MOV dbl(*SP(#6)), XAR3
         000228 BF   
     467 000229 E66D          MOV #6, *AR3(#32) ; |310| 
         00022b 0600 
         00022d 20   
     468                      .dwpsn  file "../c5535_bsl_revc/ezdsp5535_v1/c55xx_csl/src/csl_mmcsd.c",line 311,column 4,is_stmt
     469 00022e 4A10          B $C$L10  ; |311| 
     470                                                      ; branch occurs ; |311| 
     471 000230       $C$L9:    
     472                      .dwpsn  file "../c5535_bsl_revc/ezdsp5535_v1/c55xx_csl/src/csl_mmcsd.c",line 314,column 5,is_stmt
     473 000230 ED0C          MOV dbl(*SP(#6)), XAR3
         000232 BF   
     474 000233 E66D          MOV #7, *AR3(#18) ; |314| 
         000235 0700 
         000237 12   
     475                      .dwpsn  file "../c5535_bsl_revc/ezdsp5535_v1/c55xx_csl/src/csl_mmcsd.c",line 315,column 5,is_stmt
     476 000238 ED0C          MOV dbl(*SP(#6)), XAR3
         00023a BF   
     477 00023b E66D          MOV #8, *AR3(#32) ; |315| 
         00023d 0800 
         00023f 20   
     478 000240       $C$L10:    
     479                      .dwpsn  file "../c5535_bsl_revc/ezdsp5535_v1/c55xx_csl/src/csl_mmcsd.c",line 320,column 5,is_stmt
     480 000240 ED0C          MOV dbl(*SP(#6)), XAR0
         000242 8F   
     481                      .dwpsn  file "../c5535_bsl_revc/ezdsp5535_v1/c55xx_csl/src/csl_mmcsd.c",line 321,column 1,is_stmt
     482 000243 4E09          AADD #9, SP
     483                      .dwcfi  cfa_offset, 1
     484              $C$DW$28        .dwtag  DW_TAG_TI_branch
     485                      .dwattr $C$DW$28, DW_AT_low_pc(0x00)
     486                      .dwattr $C$DW$28, DW_AT_TI_return
     487 000245 4804          RET
TMS320C55x Assembler PC v4.4.1 Fri Sep 14 03:54:38 2018

Tools Copyright (c) 1996-2012 Texas Instruments Incorporated
csl_mmcsd.asm                                                        PAGE   13

     488                                                      ; return occurs
     489                      .dwattr $C$DW$18, DW_AT_TI_end_file("../c5535_bsl_revc/ezdsp5535_v1/c55xx_csl/src/csl_mmcsd.c")
     490                      .dwattr $C$DW$18, DW_AT_TI_end_line(0x141)
     491                      .dwattr $C$DW$18, DW_AT_TI_end_column(0x01)
     492                      .dwendentry
     493                      .dwendtag $C$DW$18
     494              
     495 000247               .sect   ".text"
     496                      .align 4
     497                      .global _MMC_close
     498              
     499              $C$DW$29        .dwtag  DW_TAG_subprogram, DW_AT_name("MMC_close")
     500                      .dwattr $C$DW$29, DW_AT_low_pc(_MMC_close)
     501                      .dwattr $C$DW$29, DW_AT_high_pc(0x00)
     502                      .dwattr $C$DW$29, DW_AT_TI_symbol_name("_MMC_close")
     503                      .dwattr $C$DW$29, DW_AT_external
     504                      .dwattr $C$DW$29, DW_AT_type(*$C$DW$T$116)
     505                      .dwattr $C$DW$29, DW_AT_TI_begin_file("../c5535_bsl_revc/ezdsp5535_v1/c55xx_csl/src/csl_mmcsd.c")
     506                      .dwattr $C$DW$29, DW_AT_TI_begin_line(0x16b)
     507                      .dwattr $C$DW$29, DW_AT_TI_begin_column(0x0c)
     508                      .dwattr $C$DW$29, DW_AT_TI_max_frame_size(0x04)
     509                      .dwpsn  file "../c5535_bsl_revc/ezdsp5535_v1/c55xx_csl/src/csl_mmcsd.c",line 364,column 1,is_stmt,add
     510              
     511                      .dwfde $C$DW$CIE, _MMC_close
     512              $C$DW$30        .dwtag  DW_TAG_formal_parameter, DW_AT_name("hMmcsd")
     513                      .dwattr $C$DW$30, DW_AT_TI_symbol_name("_hMmcsd")
     514                      .dwattr $C$DW$30, DW_AT_type(*$C$DW$T$114)
     515                      .dwattr $C$DW$30, DW_AT_location[DW_OP_reg17]
     516              ;*******************************************************************************
     517              ;* FUNCTION NAME: MMC_close                                                    *
     518              ;*                                                                             *
     519              ;*   Function Uses Regs : AC0,AC0,AC1,AC1,T0,AR0,XAR0,AR3,XAR3,SP,TC1,M40,SATA,*
     520              ;*                        SATD,RDM,FRCT,SMUL                                   *
     521              ;*   Stack Frame        : Compact (No Frame Pointer, w/ debug)                 *
     522              ;*   Total Frame Size   : 4 words                                              *
     523              ;*                        (2 return address/alignment)                         *
     524              ;*                        (2 local values)                                     *
     525              ;*   Min System Stack   : 1 word                                               *
     526              ;*******************************************************************************
     527 000248       _MMC_close:
     528                      .dwcfi  cfa_offset, 1
     529                      .dwcfi  save_reg_to_mem, 91, -1
     530 000248 4EFD          AADD #-3, SP
     531                      .dwcfi  cfa_offset, 4
     532              $C$DW$31        .dwtag  DW_TAG_variable, DW_AT_name("hMmcsd")
     533                      .dwattr $C$DW$31, DW_AT_TI_symbol_name("_hMmcsd")
     534                      .dwattr $C$DW$31, DW_AT_type(*$C$DW$T$114)
     535                      .dwattr $C$DW$31, DW_AT_location[DW_OP_bregx 0x24 0]
     536 00024a EB00          MOV XAR0, dbl(*SP(#0))
         00024c 85   
     537                      .dwpsn  file "../c5535_bsl_revc/ezdsp5535_v1/c55xx_csl/src/csl_mmcsd.c",line 365,column 5,is_stmt
     538 00024d ED00          MOV dbl(*SP(#0)), XAR3
         00024f BF   
     539              
     540 000250 90B0          MOV XAR3, AC0
TMS320C55x Assembler PC v4.4.1 Fri Sep 14 03:54:38 2018

Tools Copyright (c) 1996-2012 Texas Instruments Incorporated
csl_mmcsd.asm                                                        PAGE   14

     541 000252 3D01  ||      MOV #0, AC1 ; |365| 
     542              
     543 000254 121C          CMPU AC1 != AC0, TC1 ; |365| 
         000256 04   
     544 000257 6264          BCC $C$L11,TC1 ; |365| 
     545                                                      ; branchcc occurs ; |365| 
     546                      .dwpsn  file "../c5535_bsl_revc/ezdsp5535_v1/c55xx_csl/src/csl_mmcsd.c",line 367,column 9,is_stmt
     547 000259 3E54          MOV #-5, T0
     548 00025b 4A26          B $C$L13  ; |367| 
     549                                                      ; branch occurs ; |367| 
     550 00025d       $C$L11:    
     551                      .dwpsn  file "../c5535_bsl_revc/ezdsp5535_v1/c55xx_csl/src/csl_mmcsd.c",line 371,column 3,is_stmt
     552 00025d F06D          CMP *AR3(#8) == #2, TC1 ; |371| 
         00025f 0002 
         000261 0008 
     553 000263 0474          BCC $C$L12,!TC1 ; |371| 
         000265 15   
     554                                                      ; branchcc occurs ; |371| 
     555                      .dwpsn  file "../c5535_bsl_revc/ezdsp5535_v1/c55xx_csl/src/csl_mmcsd.c",line 374,column 4,is_stmt
     556 000266 ED6D          MOV dbl(*AR3(#10)), XAR0
         000268 8F00 
         00026a 0A   
     557              $C$DW$32        .dwtag  DW_TAG_TI_branch
     558                      .dwattr $C$DW$32, DW_AT_low_pc(0x00)
     559                      .dwattr $C$DW$32, DW_AT_name("_DMA_close")
     560                      .dwattr $C$DW$32, DW_AT_TI_call
     561 00026b 6C00          CALL #_DMA_close ; |374| 
         00026d 0000!
     562                                                      ; call occurs [#_DMA_close] ; |374| 
     563                      .dwpsn  file "../c5535_bsl_revc/ezdsp5535_v1/c55xx_csl/src/csl_mmcsd.c",line 375,column 4,is_stmt
     564 00026f ED00          MOV dbl(*SP(#0)), XAR3
         000271 BF   
     565 000272 ED6D          MOV dbl(*AR3(#12)), XAR0
         000274 8F00 
         000276 0C   
     566              $C$DW$33        .dwtag  DW_TAG_TI_branch
     567                      .dwattr $C$DW$33, DW_AT_low_pc(0x00)
     568                      .dwattr $C$DW$33, DW_AT_name("_DMA_close")
     569                      .dwattr $C$DW$33, DW_AT_TI_call
     570 000277 6C00          CALL #_DMA_close ; |375| 
         000279 0000!
     571                                                      ; call occurs [#_DMA_close] ; |375| 
     572 00027b       $C$L12:    
     573                      .dwpsn  file "../c5535_bsl_revc/ezdsp5535_v1/c55xx_csl/src/csl_mmcsd.c",line 378,column 9,is_stmt
     574 00027b ED00          MOV dbl(*SP(#0)), XAR3
         00027d BF   
     575 00027e E661          MOV #0, *AR3 ; |378| 
         000280 00   
     576                      .dwpsn  file "../c5535_bsl_revc/ezdsp5535_v1/c55xx_csl/src/csl_mmcsd.c",line 380,column 9,is_stmt
     577 000281 3C04          MOV #0, T0
     578 000283       $C$L13:    
     579                      .dwpsn  file "../c5535_bsl_revc/ezdsp5535_v1/c55xx_csl/src/csl_mmcsd.c",line 382,column 1,is_stmt
     580 000283 4E03          AADD #3, SP
     581                      .dwcfi  cfa_offset, 1
     582              $C$DW$34        .dwtag  DW_TAG_TI_branch
TMS320C55x Assembler PC v4.4.1 Fri Sep 14 03:54:38 2018

Tools Copyright (c) 1996-2012 Texas Instruments Incorporated
csl_mmcsd.asm                                                        PAGE   15

     583                      .dwattr $C$DW$34, DW_AT_low_pc(0x00)
     584                      .dwattr $C$DW$34, DW_AT_TI_return
     585 000285 4804          RET
     586                                                      ; return occurs
     587                      .dwattr $C$DW$29, DW_AT_TI_end_file("../c5535_bsl_revc/ezdsp5535_v1/c55xx_csl/src/csl_mmcsd.c")
     588                      .dwattr $C$DW$29, DW_AT_TI_end_line(0x17e)
     589                      .dwattr $C$DW$29, DW_AT_TI_end_column(0x01)
     590                      .dwendentry
     591                      .dwendtag $C$DW$29
     592              
     593 000287               .sect   ".text"
     594                      .align 4
     595                      .global _MMC_setCardType
     596              
     597              $C$DW$35        .dwtag  DW_TAG_subprogram, DW_AT_name("MMC_setCardType")
     598                      .dwattr $C$DW$35, DW_AT_low_pc(_MMC_setCardType)
     599                      .dwattr $C$DW$35, DW_AT_high_pc(0x00)
     600                      .dwattr $C$DW$35, DW_AT_TI_symbol_name("_MMC_setCardType")
     601                      .dwattr $C$DW$35, DW_AT_external
     602                      .dwattr $C$DW$35, DW_AT_type(*$C$DW$T$116)
     603                      .dwattr $C$DW$35, DW_AT_TI_begin_file("../c5535_bsl_revc/ezdsp5535_v1/c55xx_csl/src/csl_mmcsd.c")
     604                      .dwattr $C$DW$35, DW_AT_TI_begin_line(0x1a6)
     605                      .dwattr $C$DW$35, DW_AT_TI_begin_column(0x0c)
     606                      .dwattr $C$DW$35, DW_AT_TI_max_frame_size(0x04)
     607                      .dwpsn  file "../c5535_bsl_revc/ezdsp5535_v1/c55xx_csl/src/csl_mmcsd.c",line 424,column 1,is_stmt,add
     608              
     609                      .dwfde $C$DW$CIE, _MMC_setCardType
     610              $C$DW$36        .dwtag  DW_TAG_formal_parameter, DW_AT_name("pCardObj")
     611                      .dwattr $C$DW$36, DW_AT_TI_symbol_name("_pCardObj")
     612                      .dwattr $C$DW$36, DW_AT_type(*$C$DW$T$82)
     613                      .dwattr $C$DW$36, DW_AT_location[DW_OP_reg17]
     614              $C$DW$37        .dwtag  DW_TAG_formal_parameter, DW_AT_name("cardType")
     615                      .dwattr $C$DW$37, DW_AT_TI_symbol_name("_cardType")
     616                      .dwattr $C$DW$37, DW_AT_type(*$C$DW$T$62)
     617                      .dwattr $C$DW$37, DW_AT_location[DW_OP_reg12]
     618              ;*******************************************************************************
     619              ;* FUNCTION NAME: MMC_setCardType                                              *
     620              ;*                                                                             *
     621              ;*   Function Uses Regs : AC0,AC0,AC1,AC1,T0,AR0,XAR0,AR1,AR3,XAR3,SP,TC1,M40, *
     622              ;*                        SATA,SATD,RDM,FRCT,SMUL                              *
     623              ;*   Stack Frame        : Compact (No Frame Pointer, w/ debug)                 *
     624              ;*   Total Frame Size   : 4 words                                              *
     625              ;*                        (1 return address/alignment)                         *
     626              ;*                        (3 local values)                                     *
     627              ;*   Min System Stack   : 1 word                                               *
     628              ;*******************************************************************************
     629 000288       _MMC_setCardType:
     630                      .dwcfi  cfa_offset, 1
     631                      .dwcfi  save_reg_to_mem, 91, -1
     632 000288 4EFD          AADD #-3, SP
     633                      .dwcfi  cfa_offset, 4
     634              $C$DW$38        .dwtag  DW_TAG_variable, DW_AT_name("pCardObj")
     635                      .dwattr $C$DW$38, DW_AT_TI_symbol_name("_pCardObj")
     636                      .dwattr $C$DW$38, DW_AT_type(*$C$DW$T$82)
     637                      .dwattr $C$DW$38, DW_AT_location[DW_OP_bregx 0x24 0]
TMS320C55x Assembler PC v4.4.1 Fri Sep 14 03:54:38 2018

Tools Copyright (c) 1996-2012 Texas Instruments Incorporated
csl_mmcsd.asm                                                        PAGE   16

     638              $C$DW$39        .dwtag  DW_TAG_variable, DW_AT_name("cardType")
     639                      .dwattr $C$DW$39, DW_AT_TI_symbol_name("_cardType")
     640                      .dwattr $C$DW$39, DW_AT_type(*$C$DW$T$62)
     641                      .dwattr $C$DW$39, DW_AT_location[DW_OP_bregx 0x24 2]
     642 00028a C404          MOV T0, *SP(#2) ; |424| 
     643 00028c EB00          MOV XAR0, dbl(*SP(#0))
         00028e 85   
     644                      .dwpsn  file "../c5535_bsl_revc/ezdsp5535_v1/c55xx_csl/src/csl_mmcsd.c",line 425,column 5,is_stmt
     645 00028f ED00          MOV dbl(*SP(#0)), XAR3
         000291 BF   
     646              
     647 000292 90B0          MOV XAR3, AC0
     648 000294 3D01  ||      MOV #0, AC1 ; |425| 
     649              
     650 000296 121C          CMPU AC1 != AC0, TC1 ; |425| 
         000298 04   
     651 000299 6264          BCC $C$L14,TC1 ; |425| 
     652                                                      ; branchcc occurs ; |425| 
     653                      .dwpsn  file "../c5535_bsl_revc/ezdsp5535_v1/c55xx_csl/src/csl_mmcsd.c",line 427,column 9,is_stmt
     654 00029b 3E64          MOV #-6, T0
     655 00029d 4A18          B $C$L17  ; |427| 
     656                                                      ; branch occurs ; |427| 
     657 00029f       $C$L14:    
     658                      .dwpsn  file "../c5535_bsl_revc/ezdsp5535_v1/c55xx_csl/src/csl_mmcsd.c",line 431,column 3,is_stmt
     659 00029f F004          CMP *SP(#2) == #1, TC1 ; |431| 
         0002a1 0001 
     660 0002a3 6364          BCC $C$L15,TC1 ; |431| 
     661                                                      ; branchcc occurs ; |431| 
     662 0002a5 F004          CMP *SP(#2) == #2, TC1 ; |431| 
         0002a7 0002 
     663 0002a9 6574          BCC $C$L16,!TC1 ; |431| 
     664                                                      ; branchcc occurs ; |431| 
     665 0002ab       $C$L15:    
     666                      .dwpsn  file "../c5535_bsl_revc/ezdsp5535_v1/c55xx_csl/src/csl_mmcsd.c",line 433,column 10,is_stmt
     667 0002ab A904          MOV *SP(#2), AR1 ; |433| 
     668 0002ad C96D          MOV AR1, *AR3(#18) ; |433| 
         0002af 0012 
     669                      .dwpsn  file "../c5535_bsl_revc/ezdsp5535_v1/c55xx_csl/src/csl_mmcsd.c",line 434,column 10,is_stmt
     670 0002b1 3C04          MOV #0, T0
     671 0002b3 4A02          B $C$L17  ; |434| 
     672                                                      ; branch occurs ; |434| 
     673 0002b5       $C$L16:    
     674                      .dwpsn  file "../c5535_bsl_revc/ezdsp5535_v1/c55xx_csl/src/csl_mmcsd.c",line 438,column 4,is_stmt
     675 0002b5 3E64          MOV #-6, T0
     676 0002b7       $C$L17:    
     677                      .dwpsn  file "../c5535_bsl_revc/ezdsp5535_v1/c55xx_csl/src/csl_mmcsd.c",line 441,column 1,is_stmt
     678 0002b7 4E03          AADD #3, SP
     679                      .dwcfi  cfa_offset, 1
     680              $C$DW$40        .dwtag  DW_TAG_TI_branch
     681                      .dwattr $C$DW$40, DW_AT_low_pc(0x00)
     682                      .dwattr $C$DW$40, DW_AT_TI_return
     683 0002b9 4804          RET
     684                                                      ; return occurs
     685                      .dwattr $C$DW$35, DW_AT_TI_end_file("../c5535_bsl_revc/ezdsp5535_v1/c55xx_csl/src/csl_mmcsd.c")
     686                      .dwattr $C$DW$35, DW_AT_TI_end_line(0x1b9)
TMS320C55x Assembler PC v4.4.1 Fri Sep 14 03:54:38 2018

Tools Copyright (c) 1996-2012 Texas Instruments Incorporated
csl_mmcsd.asm                                                        PAGE   17

     687                      .dwattr $C$DW$35, DW_AT_TI_end_column(0x01)
     688                      .dwendentry
     689                      .dwendtag $C$DW$35
     690              
     691 0002bb               .sect   ".text"
     692                      .align 4
     693                      .global _MMC_setCardPtr
     694              
     695              $C$DW$41        .dwtag  DW_TAG_subprogram, DW_AT_name("MMC_setCardPtr")
     696                      .dwattr $C$DW$41, DW_AT_low_pc(_MMC_setCardPtr)
     697                      .dwattr $C$DW$41, DW_AT_high_pc(0x00)
     698                      .dwattr $C$DW$41, DW_AT_TI_symbol_name("_MMC_setCardPtr")
     699                      .dwattr $C$DW$41, DW_AT_external
     700                      .dwattr $C$DW$41, DW_AT_type(*$C$DW$T$116)
     701                      .dwattr $C$DW$41, DW_AT_TI_begin_file("../c5535_bsl_revc/ezdsp5535_v1/c55xx_csl/src/csl_mmcsd.c")
     702                      .dwattr $C$DW$41, DW_AT_TI_begin_line(0x1e7)
     703                      .dwattr $C$DW$41, DW_AT_TI_begin_column(0x0c)
     704                      .dwattr $C$DW$41, DW_AT_TI_max_frame_size(0x06)
     705                      .dwpsn  file "../c5535_bsl_revc/ezdsp5535_v1/c55xx_csl/src/csl_mmcsd.c",line 489,column 1,is_stmt,add
     706              
     707                      .dwfde $C$DW$CIE, _MMC_setCardPtr
     708              $C$DW$42        .dwtag  DW_TAG_formal_parameter, DW_AT_name("hMmcsd")
     709                      .dwattr $C$DW$42, DW_AT_TI_symbol_name("_hMmcsd")
     710                      .dwattr $C$DW$42, DW_AT_type(*$C$DW$T$114)
     711                      .dwattr $C$DW$42, DW_AT_location[DW_OP_reg17]
     712              $C$DW$43        .dwtag  DW_TAG_formal_parameter, DW_AT_name("pMmcCardObj")
     713                      .dwattr $C$DW$43, DW_AT_TI_symbol_name("_pMmcCardObj")
     714                      .dwattr $C$DW$43, DW_AT_type(*$C$DW$T$82)
     715                      .dwattr $C$DW$43, DW_AT_location[DW_OP_reg19]
     716              ;*******************************************************************************
     717              ;* FUNCTION NAME: MMC_setCardPtr                                               *
     718              ;*                                                                             *
     719              ;*   Function Uses Regs : AC0,AC0,AC1,AC1,T0,AR0,XAR0,AR1,XAR1,AR2,XAR2,AR3,   *
     720              ;*                        XAR3,SP,TC1,M40,SATA,SATD,RDM,FRCT,SMUL              *
     721              ;*   Stack Frame        : Compact (No Frame Pointer, w/ debug)                 *
     722              ;*   Total Frame Size   : 6 words                                              *
     723              ;*                        (2 return address/alignment)                         *
     724              ;*                        (4 local values)                                     *
     725              ;*   Min System Stack   : 1 word                                               *
     726              ;*******************************************************************************
     727 0002bc       _MMC_setCardPtr:
     728                      .dwcfi  cfa_offset, 1
     729                      .dwcfi  save_reg_to_mem, 91, -1
     730 0002bc 4EFB          AADD #-5, SP
     731                      .dwcfi  cfa_offset, 6
     732              $C$DW$44        .dwtag  DW_TAG_variable, DW_AT_name("hMmcsd")
     733                      .dwattr $C$DW$44, DW_AT_TI_symbol_name("_hMmcsd")
     734                      .dwattr $C$DW$44, DW_AT_type(*$C$DW$T$114)
     735                      .dwattr $C$DW$44, DW_AT_location[DW_OP_bregx 0x24 0]
     736              $C$DW$45        .dwtag  DW_TAG_variable, DW_AT_name("pMmcCardObj")
     737                      .dwattr $C$DW$45, DW_AT_TI_symbol_name("_pMmcCardObj")
     738                      .dwattr $C$DW$45, DW_AT_type(*$C$DW$T$82)
     739                      .dwattr $C$DW$45, DW_AT_location[DW_OP_bregx 0x24 2]
     740 0002be EB04          MOV XAR1, dbl(*SP(#2))
         0002c0 95   
TMS320C55x Assembler PC v4.4.1 Fri Sep 14 03:54:38 2018

Tools Copyright (c) 1996-2012 Texas Instruments Incorporated
csl_mmcsd.asm                                                        PAGE   18

     741 0002c1 EB00          MOV XAR0, dbl(*SP(#0))
         0002c3 85   
     742                      .dwpsn  file "../c5535_bsl_revc/ezdsp5535_v1/c55xx_csl/src/csl_mmcsd.c",line 490,column 5,is_stmt
     743 0002c4 ED00          MOV dbl(*SP(#0)), XAR3
         0002c6 BF   
     744 0002c7 90B0          MOV XAR3, AC0
     745 0002c9 6210          BCC $C$L18,AC0 != #0 ; |490| 
     746                                                      ; branchcc occurs ; |490| 
     747                      .dwpsn  file "../c5535_bsl_revc/ezdsp5535_v1/c55xx_csl/src/csl_mmcsd.c",line 492,column 9,is_stmt
     748 0002cb 3E54          MOV #-5, T0
     749 0002cd 4A1B          B $C$L20  ; |492| 
     750                                                      ; branch occurs ; |492| 
     751 0002cf       $C$L18:    
     752                      .dwpsn  file "../c5535_bsl_revc/ezdsp5535_v1/c55xx_csl/src/csl_mmcsd.c",line 496,column 9,is_stmt
     753 0002cf ED04          MOV dbl(*SP(#2)), XAR3
         0002d1 BF   
     754              
     755 0002d2 90B0          MOV XAR3, AC0
     756 0002d4 3D01  ||      MOV #0, AC1 ; |496| 
     757              
     758 0002d6 121C          CMPU AC1 != AC0, TC1 ; |496| 
         0002d8 04   
     759 0002d9 6264          BCC $C$L19,TC1 ; |496| 
     760                                                      ; branchcc occurs ; |496| 
     761                      .dwpsn  file "../c5535_bsl_revc/ezdsp5535_v1/c55xx_csl/src/csl_mmcsd.c",line 498,column 13,is_stmt
     762 0002db 3E64          MOV #-6, T0
     763 0002dd 4A0B          B $C$L20  ; |498| 
     764                                                      ; branch occurs ; |498| 
     765 0002df       $C$L19:    
     766                      .dwpsn  file "../c5535_bsl_revc/ezdsp5535_v1/c55xx_csl/src/csl_mmcsd.c",line 502,column 13,is_stmt
     767 0002df ED00          MOV dbl(*SP(#0)), XAR3
         0002e1 BF   
     768 0002e2 ED04          MOV dbl(*SP(#2)), XAR2
         0002e4 AF   
     769 0002e5 EB75          MOV XAR2, dbl(*AR3(short(#2)))
         0002e7 A5   
     770                      .dwpsn  file "../c5535_bsl_revc/ezdsp5535_v1/c55xx_csl/src/csl_mmcsd.c",line 503,column 13,is_stmt
     771 0002e8 3C04          MOV #0, T0
     772 0002ea       $C$L20:    
     773                      .dwpsn  file "../c5535_bsl_revc/ezdsp5535_v1/c55xx_csl/src/csl_mmcsd.c",line 506,column 1,is_stmt
     774 0002ea 4E05          AADD #5, SP
     775                      .dwcfi  cfa_offset, 1
     776              $C$DW$46        .dwtag  DW_TAG_TI_branch
     777                      .dwattr $C$DW$46, DW_AT_low_pc(0x00)
     778                      .dwattr $C$DW$46, DW_AT_TI_return
     779 0002ec 4804          RET
     780                                                      ; return occurs
     781                      .dwattr $C$DW$41, DW_AT_TI_end_file("../c5535_bsl_revc/ezdsp5535_v1/c55xx_csl/src/csl_mmcsd.c")
     782                      .dwattr $C$DW$41, DW_AT_TI_end_line(0x1fa)
     783                      .dwattr $C$DW$41, DW_AT_TI_end_column(0x01)
     784                      .dwendentry
     785                      .dwendtag $C$DW$41
     786              
     787 0002ee               .sect   ".text"
     788                      .align 4
TMS320C55x Assembler PC v4.4.1 Fri Sep 14 03:54:38 2018

Tools Copyright (c) 1996-2012 Texas Instruments Incorporated
csl_mmcsd.asm                                                        PAGE   19

     789                      .global _MMC_setCallBack
     790              
     791              $C$DW$47        .dwtag  DW_TAG_subprogram, DW_AT_name("MMC_setCallBack")
     792                      .dwattr $C$DW$47, DW_AT_low_pc(_MMC_setCallBack)
     793                      .dwattr $C$DW$47, DW_AT_high_pc(0x00)
     794                      .dwattr $C$DW$47, DW_AT_TI_symbol_name("_MMC_setCallBack")
     795                      .dwattr $C$DW$47, DW_AT_external
     796                      .dwattr $C$DW$47, DW_AT_type(*$C$DW$T$116)
     797                      .dwattr $C$DW$47, DW_AT_TI_begin_file("../c5535_bsl_revc/ezdsp5535_v1/c55xx_csl/src/csl_mmcsd.c")
     798                      .dwattr $C$DW$47, DW_AT_TI_begin_line(0x230)
     799                      .dwattr $C$DW$47, DW_AT_TI_begin_column(0x0c)
     800                      .dwattr $C$DW$47, DW_AT_TI_max_frame_size(0x06)
     801                      .dwpsn  file "../c5535_bsl_revc/ezdsp5535_v1/c55xx_csl/src/csl_mmcsd.c",line 562,column 1,is_stmt,add
     802              
     803                      .dwfde $C$DW$CIE, _MMC_setCallBack
     804              $C$DW$48        .dwtag  DW_TAG_formal_parameter, DW_AT_name("hMmcsd")
     805                      .dwattr $C$DW$48, DW_AT_TI_symbol_name("_hMmcsd")
     806                      .dwattr $C$DW$48, DW_AT_type(*$C$DW$T$114)
     807                      .dwattr $C$DW$48, DW_AT_location[DW_OP_reg17]
     808              $C$DW$49        .dwtag  DW_TAG_formal_parameter, DW_AT_name("pFunction")
     809                      .dwattr $C$DW$49, DW_AT_TI_symbol_name("_pFunction")
     810                      .dwattr $C$DW$49, DW_AT_type(*$C$DW$T$84)
     811                      .dwattr $C$DW$49, DW_AT_location[DW_OP_reg19]
     812              ;*******************************************************************************
     813              ;* FUNCTION NAME: MMC_setCallBack                                              *
     814              ;*                                                                             *
     815              ;*   Function Uses Regs : AC0,AC0,AC1,AC1,T0,AR0,XAR0,AR1,XAR1,AR2,XAR2,AR3,   *
     816              ;*                        XAR3,SP,TC1,M40,SATA,SATD,RDM,FRCT,SMUL              *
     817              ;*   Stack Frame        : Compact (No Frame Pointer, w/ debug)                 *
     818              ;*   Total Frame Size   : 6 words                                              *
     819              ;*                        (2 return address/alignment)                         *
     820              ;*                        (4 local values)                                     *
     821              ;*   Min System Stack   : 1 word                                               *
     822              ;*******************************************************************************
     823 0002f0       _MMC_setCallBack:
     824                      .dwcfi  cfa_offset, 1
     825                      .dwcfi  save_reg_to_mem, 91, -1
     826 0002f0 4EFB          AADD #-5, SP
     827                      .dwcfi  cfa_offset, 6
     828              $C$DW$50        .dwtag  DW_TAG_variable, DW_AT_name("hMmcsd")
     829                      .dwattr $C$DW$50, DW_AT_TI_symbol_name("_hMmcsd")
     830                      .dwattr $C$DW$50, DW_AT_type(*$C$DW$T$114)
     831                      .dwattr $C$DW$50, DW_AT_location[DW_OP_bregx 0x24 0]
     832              $C$DW$51        .dwtag  DW_TAG_variable, DW_AT_name("pFunction")
     833                      .dwattr $C$DW$51, DW_AT_TI_symbol_name("_pFunction")
     834                      .dwattr $C$DW$51, DW_AT_type(*$C$DW$T$84)
     835                      .dwattr $C$DW$51, DW_AT_location[DW_OP_bregx 0x24 2]
     836 0002f2 EB04          MOV XAR1, dbl(*SP(#2))
         0002f4 95   
     837 0002f5 EB00          MOV XAR0, dbl(*SP(#0))
         0002f7 85   
     838                      .dwpsn  file "../c5535_bsl_revc/ezdsp5535_v1/c55xx_csl/src/csl_mmcsd.c",line 563,column 5,is_stmt
     839 0002f8 ED00          MOV dbl(*SP(#0)), XAR3
         0002fa BF   
     840              
TMS320C55x Assembler PC v4.4.1 Fri Sep 14 03:54:38 2018

Tools Copyright (c) 1996-2012 Texas Instruments Incorporated
csl_mmcsd.asm                                                        PAGE   20

     841 0002fb 90B0          MOV XAR3, AC0
     842 0002fd 3D01  ||      MOV #0, AC1 ; |563| 
     843              
     844 0002ff 1210          CMPU AC1 == AC0, TC1 ; |563| 
         000301 04   
     845 000302 0464          BCC $C$L21,TC1 ; |563| 
         000304 17   
     846                                                      ; branchcc occurs ; |563| 
     847 000305 ED04          MOV dbl(*SP(#2)), XAR3
         000307 BF   
     848 000308 90B0          MOV XAR3, AC0
     849 00030a 1210          CMPU AC1 == AC0, TC1 ; |563| 
         00030c 04   
     850 00030d 66E4          BCC $C$L21,TC1 ; |563| 
     851                                                      ; branchcc occurs ; |563| 
     852                      .dwpsn  file "../c5535_bsl_revc/ezdsp5535_v1/c55xx_csl/src/csl_mmcsd.c",line 565,column 3,is_stmt
     853 00030f ED00          MOV dbl(*SP(#0)), XAR3
         000311 BF   
     854 000312 ED04          MOV dbl(*SP(#2)), XAR2
         000314 AF   
     855 000315 EB7D          MOV XAR2, dbl(*AR3(short(#6)))
         000317 A5   
     856                      .dwpsn  file "../c5535_bsl_revc/ezdsp5535_v1/c55xx_csl/src/csl_mmcsd.c",line 566,column 3,is_stmt
     857 000318 3C04          MOV #0, T0
     858 00031a 4A10          B $C$L23  ; |566| 
     859                                                      ; branch occurs ; |566| 
     860 00031c       $C$L21:    
     861                      .dwpsn  file "../c5535_bsl_revc/ezdsp5535_v1/c55xx_csl/src/csl_mmcsd.c",line 570,column 9,is_stmt
     862 00031c ED00          MOV dbl(*SP(#0)), XAR3
         00031e BF   
     863 00031f 90B0          MOV XAR3, AC0
     864 000321 121C          CMPU AC1 != AC0, TC1 ; |570| 
         000323 04   
     865 000324 6264          BCC $C$L22,TC1 ; |570| 
     866                                                      ; branchcc occurs ; |570| 
     867                      .dwpsn  file "../c5535_bsl_revc/ezdsp5535_v1/c55xx_csl/src/csl_mmcsd.c",line 572,column 13,is_stmt
     868 000326 3E54          MOV #-5, T0
     869 000328 4A02          B $C$L23  ; |572| 
     870                                                      ; branch occurs ; |572| 
     871 00032a       $C$L22:    
     872                      .dwpsn  file "../c5535_bsl_revc/ezdsp5535_v1/c55xx_csl/src/csl_mmcsd.c",line 576,column 13,is_stmt
     873 00032a 3E64          MOV #-6, T0
     874 00032c       $C$L23:    
     875                      .dwpsn  file "../c5535_bsl_revc/ezdsp5535_v1/c55xx_csl/src/csl_mmcsd.c",line 579,column 1,is_stmt
     876 00032c 4E05          AADD #5, SP
     877                      .dwcfi  cfa_offset, 1
     878              $C$DW$52        .dwtag  DW_TAG_TI_branch
     879                      .dwattr $C$DW$52, DW_AT_low_pc(0x00)
     880                      .dwattr $C$DW$52, DW_AT_TI_return
     881 00032e 4804          RET
     882                                                      ; return occurs
     883                      .dwattr $C$DW$47, DW_AT_TI_end_file("../c5535_bsl_revc/ezdsp5535_v1/c55xx_csl/src/csl_mmcsd.c")
     884                      .dwattr $C$DW$47, DW_AT_TI_end_line(0x243)
     885                      .dwattr $C$DW$47, DW_AT_TI_end_column(0x01)
     886                      .dwendentry
TMS320C55x Assembler PC v4.4.1 Fri Sep 14 03:54:38 2018

Tools Copyright (c) 1996-2012 Texas Instruments Incorporated
csl_mmcsd.asm                                                        PAGE   21

     887                      .dwendtag $C$DW$47
     888              
     889 000330               .sect   ".text"
     890                      .align 4
     891                      .global _MMC_getNumberOfCards
     892              
     893              $C$DW$53        .dwtag  DW_TAG_subprogram, DW_AT_name("MMC_getNumberOfCards")
     894                      .dwattr $C$DW$53, DW_AT_low_pc(_MMC_getNumberOfCards)
     895                      .dwattr $C$DW$53, DW_AT_high_pc(0x00)
     896                      .dwattr $C$DW$53, DW_AT_TI_symbol_name("_MMC_getNumberOfCards")
     897                      .dwattr $C$DW$53, DW_AT_external
     898                      .dwattr $C$DW$53, DW_AT_type(*$C$DW$T$116)
     899                      .dwattr $C$DW$53, DW_AT_TI_begin_file("../c5535_bsl_revc/ezdsp5535_v1/c55xx_csl/src/csl_mmcsd.c")
     900                      .dwattr $C$DW$53, DW_AT_TI_begin_line(0x270)
     901                      .dwattr $C$DW$53, DW_AT_TI_begin_column(0x0c)
     902                      .dwattr $C$DW$53, DW_AT_TI_max_frame_size(0x06)
     903                      .dwpsn  file "../c5535_bsl_revc/ezdsp5535_v1/c55xx_csl/src/csl_mmcsd.c",line 626,column 1,is_stmt,add
     904              
     905                      .dwfde $C$DW$CIE, _MMC_getNumberOfCards
     906              $C$DW$54        .dwtag  DW_TAG_formal_parameter, DW_AT_name("hMmcsd")
     907                      .dwattr $C$DW$54, DW_AT_TI_symbol_name("_hMmcsd")
     908                      .dwattr $C$DW$54, DW_AT_type(*$C$DW$T$114)
     909                      .dwattr $C$DW$54, DW_AT_location[DW_OP_reg17]
     910              $C$DW$55        .dwtag  DW_TAG_formal_parameter, DW_AT_name("pActiveNoCard")
     911                      .dwattr $C$DW$55, DW_AT_TI_symbol_name("_pActiveNoCard")
     912                      .dwattr $C$DW$55, DW_AT_type(*$C$DW$T$141)
     913                      .dwattr $C$DW$55, DW_AT_location[DW_OP_reg19]
     914              ;*******************************************************************************
     915              ;* FUNCTION NAME: MMC_getNumberOfCards                                         *
     916              ;*                                                                             *
     917              ;*   Function Uses Regs : AC0,AC0,AC1,AC1,T0,AR0,XAR0,AR1,XAR1,AR3,XAR3,SP,TC1,*
     918              ;*                        M40,SATA,SATD,RDM,FRCT,SMUL                          *
     919              ;*   Stack Frame        : Compact (No Frame Pointer, w/ debug)                 *
     920              ;*   Total Frame Size   : 6 words                                              *
     921              ;*                        (2 return address/alignment)                         *
     922              ;*                        (4 local values)                                     *
     923              ;*   Min System Stack   : 1 word                                               *
     924              ;*******************************************************************************
     925 000330       _MMC_getNumberOfCards:
     926                      .dwcfi  cfa_offset, 1
     927                      .dwcfi  save_reg_to_mem, 91, -1
     928 000330 4EFB          AADD #-5, SP
     929                      .dwcfi  cfa_offset, 6
     930              $C$DW$56        .dwtag  DW_TAG_variable, DW_AT_name("hMmcsd")
     931                      .dwattr $C$DW$56, DW_AT_TI_symbol_name("_hMmcsd")
     932                      .dwattr $C$DW$56, DW_AT_type(*$C$DW$T$114)
     933                      .dwattr $C$DW$56, DW_AT_location[DW_OP_bregx 0x24 0]
     934              $C$DW$57        .dwtag  DW_TAG_variable, DW_AT_name("pActiveNoCard")
     935                      .dwattr $C$DW$57, DW_AT_TI_symbol_name("_pActiveNoCard")
     936                      .dwattr $C$DW$57, DW_AT_type(*$C$DW$T$141)
     937                      .dwattr $C$DW$57, DW_AT_location[DW_OP_bregx 0x24 2]
     938 000332 EB04          MOV XAR1, dbl(*SP(#2))
         000334 95   
     939 000335 EB00          MOV XAR0, dbl(*SP(#0))
         000337 85   
TMS320C55x Assembler PC v4.4.1 Fri Sep 14 03:54:38 2018

Tools Copyright (c) 1996-2012 Texas Instruments Incorporated
csl_mmcsd.asm                                                        PAGE   22

     940                      .dwpsn  file "../c5535_bsl_revc/ezdsp5535_v1/c55xx_csl/src/csl_mmcsd.c",line 627,column 5,is_stmt
     941 000338 ED00          MOV dbl(*SP(#0)), XAR3
         00033a BF   
     942              
     943 00033b 90B0          MOV XAR3, AC0
     944 00033d 3D01  ||      MOV #0, AC1 ; |627| 
     945              
     946 00033f 121C          CMPU AC1 != AC0, TC1 ; |627| 
         000341 04   
     947 000342 6264          BCC $C$L24,TC1 ; |627| 
     948                                                      ; branchcc occurs ; |627| 
     949                      .dwpsn  file "../c5535_bsl_revc/ezdsp5535_v1/c55xx_csl/src/csl_mmcsd.c",line 629,column 3,is_stmt
     950 000344 3E54          MOV #-5, T0
     951 000346 4A1A          B $C$L26  ; |629| 
     952                                                      ; branch occurs ; |629| 
     953 000348       $C$L24:    
     954                      .dwpsn  file "../c5535_bsl_revc/ezdsp5535_v1/c55xx_csl/src/csl_mmcsd.c",line 633,column 9,is_stmt
     955 000348 ED04          MOV dbl(*SP(#2)), XAR3
         00034a BF   
     956 00034b 90B0          MOV XAR3, AC0
     957 00034d 121C          CMPU AC1 != AC0, TC1 ; |633| 
         00034f 04   
     958 000350 6264          BCC $C$L25,TC1 ; |633| 
     959                                                      ; branchcc occurs ; |633| 
     960                      .dwpsn  file "../c5535_bsl_revc/ezdsp5535_v1/c55xx_csl/src/csl_mmcsd.c",line 635,column 13,is_stmt
     961 000352 3E64          MOV #-6, T0
     962 000354 4A0C          B $C$L26  ; |635| 
     963                                                      ; branch occurs ; |635| 
     964 000356       $C$L25:    
     965                      .dwpsn  file "../c5535_bsl_revc/ezdsp5535_v1/c55xx_csl/src/csl_mmcsd.c",line 639,column 13,is_stmt
     966 000356 ED00          MOV dbl(*SP(#0)), XAR3
         000358 BF   
     967 000359 A979          MOV *AR3(short(#4)), AR1 ; |639| 
     968 00035b ED04          MOV dbl(*SP(#2)), XAR3
         00035d BF   
     969 00035e C961          MOV AR1, *AR3 ; |639| 
     970                      .dwpsn  file "../c5535_bsl_revc/ezdsp5535_v1/c55xx_csl/src/csl_mmcsd.c",line 640,column 13,is_stmt
     971 000360 3C04          MOV #0, T0
     972 000362       $C$L26:    
     973                      .dwpsn  file "../c5535_bsl_revc/ezdsp5535_v1/c55xx_csl/src/csl_mmcsd.c",line 643,column 1,is_stmt
     974 000362 4E05          AADD #5, SP
     975                      .dwcfi  cfa_offset, 1
     976              $C$DW$58        .dwtag  DW_TAG_TI_branch
     977                      .dwattr $C$DW$58, DW_AT_low_pc(0x00)
     978                      .dwattr $C$DW$58, DW_AT_TI_return
     979 000364 4804          RET
     980                                                      ; return occurs
     981                      .dwattr $C$DW$53, DW_AT_TI_end_file("../c5535_bsl_revc/ezdsp5535_v1/c55xx_csl/src/csl_mmcsd.c")
     982                      .dwattr $C$DW$53, DW_AT_TI_end_line(0x283)
     983                      .dwattr $C$DW$53, DW_AT_TI_end_column(0x01)
     984                      .dwendentry
     985                      .dwendtag $C$DW$53
     986              
     987 000366               .sect   ".text"
     988                      .align 4
TMS320C55x Assembler PC v4.4.1 Fri Sep 14 03:54:38 2018

Tools Copyright (c) 1996-2012 Texas Instruments Incorporated
csl_mmcsd.asm                                                        PAGE   23

     989                      .global _MMC_clearResponse
     990              
     991              $C$DW$59        .dwtag  DW_TAG_subprogram, DW_AT_name("MMC_clearResponse")
     992                      .dwattr $C$DW$59, DW_AT_low_pc(_MMC_clearResponse)
     993                      .dwattr $C$DW$59, DW_AT_high_pc(0x00)
     994                      .dwattr $C$DW$59, DW_AT_TI_symbol_name("_MMC_clearResponse")
     995                      .dwattr $C$DW$59, DW_AT_external
     996                      .dwattr $C$DW$59, DW_AT_type(*$C$DW$T$116)
     997                      .dwattr $C$DW$59, DW_AT_TI_begin_file("../c5535_bsl_revc/ezdsp5535_v1/c55xx_csl/src/csl_mmcsd.c")
     998                      .dwattr $C$DW$59, DW_AT_TI_begin_line(0x2ad)
     999                      .dwattr $C$DW$59, DW_AT_TI_begin_column(0x0c)
    1000                      .dwattr $C$DW$59, DW_AT_TI_max_frame_size(0x04)
    1001                      .dwpsn  file "../c5535_bsl_revc/ezdsp5535_v1/c55xx_csl/src/csl_mmcsd.c",line 686,column 1,is_stmt,add
    1002              
    1003                      .dwfde $C$DW$CIE, _MMC_clearResponse
    1004              $C$DW$60        .dwtag  DW_TAG_formal_parameter, DW_AT_name("hMmcsd")
    1005                      .dwattr $C$DW$60, DW_AT_TI_symbol_name("_hMmcsd")
    1006                      .dwattr $C$DW$60, DW_AT_type(*$C$DW$T$114)
    1007                      .dwattr $C$DW$60, DW_AT_location[DW_OP_reg17]
    1008              ;*******************************************************************************
    1009              ;* FUNCTION NAME: MMC_clearResponse                                            *
    1010              ;*                                                                             *
    1011              ;*   Function Uses Regs : AC0,AC0,AC1,AC1,T0,AR0,XAR0,AR1,AR3,XAR3,SP,TC1,M40, *
    1012              ;*                        SATA,SATD,RDM,FRCT,SMUL                              *
    1013              ;*   Stack Frame        : Compact (No Frame Pointer, w/ debug)                 *
    1014              ;*   Total Frame Size   : 4 words                                              *
    1015              ;*                        (2 return address/alignment)                         *
    1016              ;*                        (2 local values)                                     *
    1017              ;*   Min System Stack   : 1 word                                               *
    1018              ;*******************************************************************************
    1019 000368       _MMC_clearResponse:
    1020                      .dwcfi  cfa_offset, 1
    1021                      .dwcfi  save_reg_to_mem, 91, -1
    1022 000368 4EFD          AADD #-3, SP
    1023                      .dwcfi  cfa_offset, 4
    1024              $C$DW$61        .dwtag  DW_TAG_variable, DW_AT_name("hMmcsd")
    1025                      .dwattr $C$DW$61, DW_AT_TI_symbol_name("_hMmcsd")
    1026                      .dwattr $C$DW$61, DW_AT_type(*$C$DW$T$114)
    1027                      .dwattr $C$DW$61, DW_AT_location[DW_OP_bregx 0x24 0]
    1028 00036a EB00          MOV XAR0, dbl(*SP(#0))
         00036c 85   
    1029                      .dwpsn  file "../c5535_bsl_revc/ezdsp5535_v1/c55xx_csl/src/csl_mmcsd.c",line 687,column 5,is_stmt
    1030 00036d ED00          MOV dbl(*SP(#0)), XAR3
         00036f BF   
    1031              
    1032 000370 90B0          MOV XAR3, AC0
    1033 000372 3D01  ||      MOV #0, AC1 ; |687| 
    1034              
    1035 000374 121C          CMPU AC1 != AC0, TC1 ; |687| 
         000376 04   
    1036 000377 62E4          BCC $C$L27,TC1 ; |687| 
    1037                                                      ; branchcc occurs ; |687| 
    1038                      .dwpsn  file "../c5535_bsl_revc/ezdsp5535_v1/c55xx_csl/src/csl_mmcsd.c",line 689,column 9,is_stmt
    1039 000379 3E54          MOV #-5, T0
    1040 00037b 0600          B $C$L28  ; |689| 
TMS320C55x Assembler PC v4.4.1 Fri Sep 14 03:54:38 2018

Tools Copyright (c) 1996-2012 Texas Instruments Incorporated
csl_mmcsd.asm                                                        PAGE   24

         00037d BF   
    1041                                                      ; branch occurs ; |689| 
    1042 00037e       $C$L27:    
    1043                      .dwpsn  file "../c5535_bsl_revc/ezdsp5535_v1/c55xx_csl/src/csl_mmcsd.c",line 693,column 9,is_stmt
    1044 00037e 7600          MOV #56, T0 ; |693| 
         000380 3848 
    1045 000382 AB61          MOV *AR3, AR3 ; |693| 
    1046 000384 A96B          MOV port(*AR3(T0)), AR1 ; |693| 
         000386 99   
    1047 000387 ED00          MOV dbl(*SP(#0)), XAR3
         000389 BF   
    1048 00038a AB61          MOV *AR3, AR3 ; |693| 
    1049 00038c E66B          MOV #0, port(*AR3(T0)) ; |693| 
         00038e 00   
         00038f 9A   
    1050                      .dwpsn  file "../c5535_bsl_revc/ezdsp5535_v1/c55xx_csl/src/csl_mmcsd.c",line 695,column 9,is_stmt
    1051 000390 ED00          MOV dbl(*SP(#0)), XAR3
         000392 BF   
    1052 000393 7600          MOV #57, T0 ; |695| 
         000395 3948 
    1053 000397 AB61          MOV *AR3, AR3 ; |695| 
    1054 000399 A96B          MOV port(*AR3(T0)), AR1 ; |695| 
         00039b 99   
    1055 00039c ED00          MOV dbl(*SP(#0)), XAR3
         00039e BF   
    1056 00039f AB61          MOV *AR3, AR3 ; |695| 
    1057 0003a1 E66B          MOV #0, port(*AR3(T0)) ; |695| 
         0003a3 00   
         0003a4 9A   
    1058                      .dwpsn  file "../c5535_bsl_revc/ezdsp5535_v1/c55xx_csl/src/csl_mmcsd.c",line 697,column 9,is_stmt
    1059 0003a5 ED00          MOV dbl(*SP(#0)), XAR3
         0003a7 BF   
    1060 0003a8 7600          MOV #60, T0 ; |697| 
         0003aa 3C48 
    1061 0003ac AB61          MOV *AR3, AR3 ; |697| 
    1062 0003ae A96B          MOV port(*AR3(T0)), AR1 ; |697| 
         0003b0 99   
    1063 0003b1 ED00          MOV dbl(*SP(#0)), XAR3
         0003b3 BF   
    1064 0003b4 AB61          MOV *AR3, AR3 ; |697| 
    1065 0003b6 E66B          MOV #0, port(*AR3(T0)) ; |697| 
         0003b8 00   
         0003b9 9A   
    1066                      .dwpsn  file "../c5535_bsl_revc/ezdsp5535_v1/c55xx_csl/src/csl_mmcsd.c",line 699,column 9,is_stmt
    1067 0003ba ED00          MOV dbl(*SP(#0)), XAR3
         0003bc BF   
    1068 0003bd 7600          MOV #61, T0 ; |699| 
         0003bf 3D48 
    1069 0003c1 AB61          MOV *AR3, AR3 ; |699| 
    1070 0003c3 A96B          MOV port(*AR3(T0)), AR1 ; |699| 
         0003c5 99   
    1071 0003c6 ED00          MOV dbl(*SP(#0)), XAR3
         0003c8 BF   
    1072 0003c9 AB61          MOV *AR3, AR3 ; |699| 
    1073 0003cb E66B          MOV #0, port(*AR3(T0)) ; |699| 
TMS320C55x Assembler PC v4.4.1 Fri Sep 14 03:54:38 2018

Tools Copyright (c) 1996-2012 Texas Instruments Incorporated
csl_mmcsd.asm                                                        PAGE   25

         0003cd 00   
         0003ce 9A   
    1074                      .dwpsn  file "../c5535_bsl_revc/ezdsp5535_v1/c55xx_csl/src/csl_mmcsd.c",line 701,column 9,is_stmt
    1075 0003cf ED00          MOV dbl(*SP(#0)), XAR3
         0003d1 BF   
    1076 0003d2 7600          MOV #64, T0 ; |701| 
         0003d4 4048 
    1077 0003d6 AB61          MOV *AR3, AR3 ; |701| 
    1078 0003d8 A96B          MOV port(*AR3(T0)), AR1 ; |701| 
         0003da 99   
    1079 0003db ED00          MOV dbl(*SP(#0)), XAR3
         0003dd BF   
    1080 0003de AB61          MOV *AR3, AR3 ; |701| 
    1081 0003e0 E66B          MOV #0, port(*AR3(T0)) ; |701| 
         0003e2 00   
         0003e3 9A   
    1082                      .dwpsn  file "../c5535_bsl_revc/ezdsp5535_v1/c55xx_csl/src/csl_mmcsd.c",line 703,column 9,is_stmt
    1083 0003e4 ED00          MOV dbl(*SP(#0)), XAR3
         0003e6 BF   
    1084 0003e7 7600          MOV #65, T0 ; |703| 
         0003e9 4148 
    1085 0003eb AB61          MOV *AR3, AR3 ; |703| 
    1086 0003ed A96B          MOV port(*AR3(T0)), AR1 ; |703| 
         0003ef 99   
    1087 0003f0 ED00          MOV dbl(*SP(#0)), XAR3
         0003f2 BF   
    1088 0003f3 AB61          MOV *AR3, AR3 ; |703| 
    1089 0003f5 E66B          MOV #0, port(*AR3(T0)) ; |703| 
         0003f7 00   
         0003f8 9A   
    1090                      .dwpsn  file "../c5535_bsl_revc/ezdsp5535_v1/c55xx_csl/src/csl_mmcsd.c",line 705,column 9,is_stmt
    1091 0003f9 ED00          MOV dbl(*SP(#0)), XAR3
         0003fb BF   
    1092 0003fc 7600          MOV #68, T0 ; |705| 
         0003fe 4448 
    1093 000400 AB61          MOV *AR3, AR3 ; |705| 
    1094 000402 A96B          MOV port(*AR3(T0)), AR1 ; |705| 
         000404 99   
    1095 000405 ED00          MOV dbl(*SP(#0)), XAR3
         000407 BF   
    1096 000408 AB61          MOV *AR3, AR3 ; |705| 
    1097 00040a E66B          MOV #0, port(*AR3(T0)) ; |705| 
         00040c 00   
         00040d 9A   
    1098                      .dwpsn  file "../c5535_bsl_revc/ezdsp5535_v1/c55xx_csl/src/csl_mmcsd.c",line 707,column 9,is_stmt
    1099 00040e ED00          MOV dbl(*SP(#0)), XAR3
         000410 BF   
    1100 000411 7600          MOV #69, T0 ; |707| 
         000413 4548 
    1101 000415 AB61          MOV *AR3, AR3 ; |707| 
    1102 000417 A96B          MOV port(*AR3(T0)), AR1 ; |707| 
         000419 99   
    1103 00041a ED00          MOV dbl(*SP(#0)), XAR3
         00041c BF   
    1104 00041d AB61          MOV *AR3, AR3 ; |707| 
TMS320C55x Assembler PC v4.4.1 Fri Sep 14 03:54:38 2018

Tools Copyright (c) 1996-2012 Texas Instruments Incorporated
csl_mmcsd.asm                                                        PAGE   26

    1105 00041f E66B          MOV #0, port(*AR3(T0)) ; |707| 
         000421 00   
         000422 9A   
    1106                      .dwpsn  file "../c5535_bsl_revc/ezdsp5535_v1/c55xx_csl/src/csl_mmcsd.c",line 711,column 9,is_stmt
    1107 000423 ED00          MOV dbl(*SP(#0)), XAR3
         000425 BF   
    1108 000426 7600          MOV #80, T0 ; |711| 
         000428 5048 
    1109 00042a AB61          MOV *AR3, AR3 ; |711| 
    1110 00042c A96B          MOV port(*AR3(T0)), AR1 ; |711| 
         00042e 99   
    1111 00042f ED00          MOV dbl(*SP(#0)), XAR3
         000431 BF   
    1112 000432 AB61          MOV *AR3, AR3 ; |711| 
    1113 000434 7DFF          AND #0xffc0, AR1, AC0 ; |711| 
         000436 C009 
    1114 000438 C06B          MOV AC0, port(*AR3(T0)) ; |711| 
         00043a 9A   
    1115                      .dwpsn  file "../c5535_bsl_revc/ezdsp5535_v1/c55xx_csl/src/csl_mmcsd.c",line 713,column 9,is_stmt
    1116 00043b 3C04          MOV #0, T0
    1117 00043d       $C$L28:    
    1118                      .dwpsn  file "../c5535_bsl_revc/ezdsp5535_v1/c55xx_csl/src/csl_mmcsd.c",line 715,column 1,is_stmt
    1119 00043d 4E03          AADD #3, SP
    1120                      .dwcfi  cfa_offset, 1
    1121              $C$DW$62        .dwtag  DW_TAG_TI_branch
    1122                      .dwattr $C$DW$62, DW_AT_low_pc(0x00)
    1123                      .dwattr $C$DW$62, DW_AT_TI_return
    1124 00043f 4804          RET
    1125                                                      ; return occurs
    1126                      .dwattr $C$DW$59, DW_AT_TI_end_file("../c5535_bsl_revc/ezdsp5535_v1/c55xx_csl/src/csl_mmcsd.c")
    1127                      .dwattr $C$DW$59, DW_AT_TI_end_line(0x2cb)
    1128                      .dwattr $C$DW$59, DW_AT_TI_end_column(0x01)
    1129                      .dwendentry
    1130                      .dwendtag $C$DW$59
    1131              
    1132 000441               .sect   ".text"
    1133                      .align 4
    1134                      .global _MMC_ierEnable
    1135              
    1136              $C$DW$63        .dwtag  DW_TAG_subprogram, DW_AT_name("MMC_ierEnable")
    1137                      .dwattr $C$DW$63, DW_AT_low_pc(_MMC_ierEnable)
    1138                      .dwattr $C$DW$63, DW_AT_high_pc(0x00)
    1139                      .dwattr $C$DW$63, DW_AT_TI_symbol_name("_MMC_ierEnable")
    1140                      .dwattr $C$DW$63, DW_AT_external
    1141                      .dwattr $C$DW$63, DW_AT_type(*$C$DW$T$116)
    1142                      .dwattr $C$DW$63, DW_AT_TI_begin_file("../c5535_bsl_revc/ezdsp5535_v1/c55xx_csl/src/csl_mmcsd.c")
    1143                      .dwattr $C$DW$63, DW_AT_TI_begin_line(0x2f7)
    1144                      .dwattr $C$DW$63, DW_AT_TI_begin_column(0x0c)
    1145                      .dwattr $C$DW$63, DW_AT_TI_max_frame_size(0x04)
    1146                      .dwpsn  file "../c5535_bsl_revc/ezdsp5535_v1/c55xx_csl/src/csl_mmcsd.c",line 761,column 1,is_stmt,add
    1147              
    1148                      .dwfde $C$DW$CIE, _MMC_ierEnable
    1149              $C$DW$64        .dwtag  DW_TAG_formal_parameter, DW_AT_name("hMmcsd")
    1150                      .dwattr $C$DW$64, DW_AT_TI_symbol_name("_hMmcsd")
    1151                      .dwattr $C$DW$64, DW_AT_type(*$C$DW$T$114)
TMS320C55x Assembler PC v4.4.1 Fri Sep 14 03:54:38 2018

Tools Copyright (c) 1996-2012 Texas Instruments Incorporated
csl_mmcsd.asm                                                        PAGE   27

    1152                      .dwattr $C$DW$64, DW_AT_location[DW_OP_reg17]
    1153              ;*******************************************************************************
    1154              ;* FUNCTION NAME: MMC_ierEnable                                                *
    1155              ;*                                                                             *
    1156              ;*   Function Uses Regs : AC0,AC0,AC1,AC1,T0,AR0,XAR0,AR1,AR3,XAR3,SP,TC1,M40, *
    1157              ;*                        SATA,SATD,RDM,FRCT,SMUL                              *
    1158              ;*   Stack Frame        : Compact (No Frame Pointer, w/ debug)                 *
    1159              ;*   Total Frame Size   : 4 words                                              *
    1160              ;*                        (2 return address/alignment)                         *
    1161              ;*                        (2 local values)                                     *
    1162              ;*   Min System Stack   : 1 word                                               *
    1163              ;*******************************************************************************
    1164 000444       _MMC_ierEnable:
    1165                      .dwcfi  cfa_offset, 1
    1166                      .dwcfi  save_reg_to_mem, 91, -1
    1167 000444 4EFD          AADD #-3, SP
    1168                      .dwcfi  cfa_offset, 4
    1169              $C$DW$65        .dwtag  DW_TAG_variable, DW_AT_name("hMmcsd")
    1170                      .dwattr $C$DW$65, DW_AT_TI_symbol_name("_hMmcsd")
    1171                      .dwattr $C$DW$65, DW_AT_type(*$C$DW$T$114)
    1172                      .dwattr $C$DW$65, DW_AT_location[DW_OP_bregx 0x24 0]
    1173 000446 EB00          MOV XAR0, dbl(*SP(#0))
         000448 85   
    1174                      .dwpsn  file "../c5535_bsl_revc/ezdsp5535_v1/c55xx_csl/src/csl_mmcsd.c",line 762,column 5,is_stmt
    1175 000449 ED00          MOV dbl(*SP(#0)), XAR3
         00044b BF   
    1176              
    1177 00044c 90B0          MOV XAR3, AC0
    1178 00044e 3D01  ||      MOV #0, AC1 ; |762| 
    1179              
    1180 000450 121C          CMPU AC1 != AC0, TC1 ; |762| 
         000452 04   
    1181 000453 6264          BCC $C$L29,TC1 ; |762| 
    1182                                                      ; branchcc occurs ; |762| 
    1183                      .dwpsn  file "../c5535_bsl_revc/ezdsp5535_v1/c55xx_csl/src/csl_mmcsd.c",line 764,column 9,is_stmt
    1184 000455 3E54          MOV #-5, T0
    1185 000457 4A2B          B $C$L32  ; |764| 
    1186                                                      ; branch occurs ; |764| 
    1187 000459       $C$L29:    
    1188                      .dwpsn  file "../c5535_bsl_revc/ezdsp5535_v1/c55xx_csl/src/csl_mmcsd.c",line 768,column 9,is_stmt
    1189 000459 F061          CMP *AR3 == #14848, TC1 ; |768| 
         00045b 3A00 
    1190 00045d 0474          BCC $C$L30,!TC1 ; |768| 
         00045f 12   
    1191                                                      ; branchcc occurs ; |768| 
    1192                      .dwpsn  file "../c5535_bsl_revc/ezdsp5535_v1/c55xx_csl/src/csl_mmcsd.c",line 770,column 4,is_stmt
    1193 000460 A931          MOV *(#0), AR1 ; |770| 
         000462 0000 
         000464 00   
    1194 000465 EC0A          BCLR @#5, AR1 ; |770| 
         000467 92   
    1195 000468 EC0A          BSET @#5, AR1 ; |770| 
         00046a 90   
    1196 00046b C931          MOV AR1, *(#0) ; |770| 
         00046d 0000 
TMS320C55x Assembler PC v4.4.1 Fri Sep 14 03:54:38 2018

Tools Copyright (c) 1996-2012 Texas Instruments Incorporated
csl_mmcsd.asm                                                        PAGE   28

         00046f 00   
    1197                      .dwpsn  file "../c5535_bsl_revc/ezdsp5535_v1/c55xx_csl/src/csl_mmcsd.c",line 771,column 3,is_stmt
    1198 000470 4A10          B $C$L31  ; |771| 
    1199                                                      ; branch occurs ; |771| 
    1200 000472       $C$L30:    
    1201                      .dwpsn  file "../c5535_bsl_revc/ezdsp5535_v1/c55xx_csl/src/csl_mmcsd.c",line 773,column 4,is_stmt
    1202 000472 A931          MOV *(#0), AR1 ; |773| 
         000474 0000 
         000476 00   
    1203 000477 EC12          BCLR @#9, AR1 ; |773| 
         000479 92   
    1204 00047a EC12          BSET @#9, AR1 ; |773| 
         00047c 90   
    1205 00047d C931          MOV AR1, *(#0) ; |773| 
         00047f 0000 
         000481 00   
    1206 000482       $C$L31:    
    1207                      .dwpsn  file "../c5535_bsl_revc/ezdsp5535_v1/c55xx_csl/src/csl_mmcsd.c",line 775,column 9,is_stmt
    1208 000482 3C04          MOV #0, T0
    1209 000484       $C$L32:    
    1210                      .dwpsn  file "../c5535_bsl_revc/ezdsp5535_v1/c55xx_csl/src/csl_mmcsd.c",line 777,column 1,is_stmt
    1211 000484 4E03          AADD #3, SP
    1212                      .dwcfi  cfa_offset, 1
    1213              $C$DW$66        .dwtag  DW_TAG_TI_branch
    1214                      .dwattr $C$DW$66, DW_AT_low_pc(0x00)
    1215                      .dwattr $C$DW$66, DW_AT_TI_return
    1216 000486 4804          RET
    1217                                                      ; return occurs
    1218                      .dwattr $C$DW$63, DW_AT_TI_end_file("../c5535_bsl_revc/ezdsp5535_v1/c55xx_csl/src/csl_mmcsd.c")
    1219                      .dwattr $C$DW$63, DW_AT_TI_end_line(0x309)
    1220                      .dwattr $C$DW$63, DW_AT_TI_end_column(0x01)
    1221                      .dwendentry
    1222                      .dwendtag $C$DW$63
    1223              
    1224 000488               .sect   ".text"
    1225                      .align 4
    1226                      .global _MMC_ierDisable
    1227              
    1228              $C$DW$67        .dwtag  DW_TAG_subprogram, DW_AT_name("MMC_ierDisable")
    1229                      .dwattr $C$DW$67, DW_AT_low_pc(_MMC_ierDisable)
    1230                      .dwattr $C$DW$67, DW_AT_high_pc(0x00)
    1231                      .dwattr $C$DW$67, DW_AT_TI_symbol_name("_MMC_ierDisable")
    1232                      .dwattr $C$DW$67, DW_AT_external
    1233                      .dwattr $C$DW$67, DW_AT_type(*$C$DW$T$116)
    1234                      .dwattr $C$DW$67, DW_AT_TI_begin_file("../c5535_bsl_revc/ezdsp5535_v1/c55xx_csl/src/csl_mmcsd.c")
    1235                      .dwattr $C$DW$67, DW_AT_TI_begin_line(0x335)
    1236                      .dwattr $C$DW$67, DW_AT_TI_begin_column(0x0c)
    1237                      .dwattr $C$DW$67, DW_AT_TI_max_frame_size(0x04)
    1238                      .dwpsn  file "../c5535_bsl_revc/ezdsp5535_v1/c55xx_csl/src/csl_mmcsd.c",line 823,column 1,is_stmt,add
    1239              
    1240                      .dwfde $C$DW$CIE, _MMC_ierDisable
    1241              $C$DW$68        .dwtag  DW_TAG_formal_parameter, DW_AT_name("hMmcsd")
    1242                      .dwattr $C$DW$68, DW_AT_TI_symbol_name("_hMmcsd")
    1243                      .dwattr $C$DW$68, DW_AT_type(*$C$DW$T$114)
    1244                      .dwattr $C$DW$68, DW_AT_location[DW_OP_reg17]
TMS320C55x Assembler PC v4.4.1 Fri Sep 14 03:54:38 2018

Tools Copyright (c) 1996-2012 Texas Instruments Incorporated
csl_mmcsd.asm                                                        PAGE   29

    1245              ;*******************************************************************************
    1246              ;* FUNCTION NAME: MMC_ierDisable                                               *
    1247              ;*                                                                             *
    1248              ;*   Function Uses Regs : AC0,AC0,AC1,AC1,T0,AR0,XAR0,AR3,XAR3,SP,TC1,M40,SATA,*
    1249              ;*                        SATD,RDM,FRCT,SMUL                                   *
    1250              ;*   Stack Frame        : Compact (No Frame Pointer, w/ debug)                 *
    1251              ;*   Total Frame Size   : 4 words                                              *
    1252              ;*                        (2 return address/alignment)                         *
    1253              ;*                        (2 local values)                                     *
    1254              ;*   Min System Stack   : 1 word                                               *
    1255              ;*******************************************************************************
    1256 000488       _MMC_ierDisable:
    1257                      .dwcfi  cfa_offset, 1
    1258                      .dwcfi  save_reg_to_mem, 91, -1
    1259 000488 4EFD          AADD #-3, SP
    1260                      .dwcfi  cfa_offset, 4
    1261              $C$DW$69        .dwtag  DW_TAG_variable, DW_AT_name("hMmcsd")
    1262                      .dwattr $C$DW$69, DW_AT_TI_symbol_name("_hMmcsd")
    1263                      .dwattr $C$DW$69, DW_AT_type(*$C$DW$T$114)
    1264                      .dwattr $C$DW$69, DW_AT_location[DW_OP_bregx 0x24 0]
    1265 00048a EB00          MOV XAR0, dbl(*SP(#0))
         00048c 85   
    1266                      .dwpsn  file "../c5535_bsl_revc/ezdsp5535_v1/c55xx_csl/src/csl_mmcsd.c",line 824,column 5,is_stmt
    1267 00048d ED00          MOV dbl(*SP(#0)), XAR3
         00048f BF   
    1268              
    1269 000490 90B0          MOV XAR3, AC0
    1270 000492 3D01  ||      MOV #0, AC1 ; |824| 
    1271              
    1272 000494 121C          CMPU AC1 != AC0, TC1 ; |824| 
         000496 04   
    1273 000497 6264          BCC $C$L33,TC1 ; |824| 
    1274                                                      ; branchcc occurs ; |824| 
    1275                      .dwpsn  file "../c5535_bsl_revc/ezdsp5535_v1/c55xx_csl/src/csl_mmcsd.c",line 826,column 9,is_stmt
    1276 000499 3E54          MOV #-5, T0
    1277 00049b 4A18          B $C$L36  ; |826| 
    1278                                                      ; branch occurs ; |826| 
    1279 00049d       $C$L33:    
    1280                      .dwpsn  file "../c5535_bsl_revc/ezdsp5535_v1/c55xx_csl/src/csl_mmcsd.c",line 830,column 9,is_stmt
    1281 00049d F061          CMP *AR3 == #14848, TC1 ; |830| 
         00049f 3A00 
    1282 0004a1 64F4          BCC $C$L34,!TC1 ; |830| 
    1283                                                      ; branchcc occurs ; |830| 
    1284                      .dwpsn  file "../c5535_bsl_revc/ezdsp5535_v1/c55xx_csl/src/csl_mmcsd.c",line 832,column 4,is_stmt
    1285 0004a3 F431          AND #0xffdf, *(#0) ; |832| 
         0004a5 FFDF 
         0004a7 0000 
         0004a9 00   
    1286                      .dwpsn  file "../c5535_bsl_revc/ezdsp5535_v1/c55xx_csl/src/csl_mmcsd.c",line 833,column 3,is_stmt
    1287 0004aa 4A07          B $C$L35  ; |833| 
    1288                                                      ; branch occurs ; |833| 
    1289 0004ac       $C$L34:    
    1290                      .dwpsn  file "../c5535_bsl_revc/ezdsp5535_v1/c55xx_csl/src/csl_mmcsd.c",line 835,column 4,is_stmt
    1291 0004ac F431          AND #0xfdff, *(#0) ; |835| 
         0004ae FDFF 
TMS320C55x Assembler PC v4.4.1 Fri Sep 14 03:54:38 2018

Tools Copyright (c) 1996-2012 Texas Instruments Incorporated
csl_mmcsd.asm                                                        PAGE   30

         0004b0 0000 
         0004b2 00   
    1292 0004b3       $C$L35:    
    1293                      .dwpsn  file "../c5535_bsl_revc/ezdsp5535_v1/c55xx_csl/src/csl_mmcsd.c",line 837,column 9,is_stmt
    1294 0004b3 3C04          MOV #0, T0
    1295 0004b5       $C$L36:    
    1296                      .dwpsn  file "../c5535_bsl_revc/ezdsp5535_v1/c55xx_csl/src/csl_mmcsd.c",line 839,column 1,is_stmt
    1297 0004b5 4E03          AADD #3, SP
    1298                      .dwcfi  cfa_offset, 1
    1299              $C$DW$70        .dwtag  DW_TAG_TI_branch
    1300                      .dwattr $C$DW$70, DW_AT_low_pc(0x00)
    1301                      .dwattr $C$DW$70, DW_AT_TI_return
    1302 0004b7 4804          RET
    1303                                                      ; return occurs
    1304                      .dwattr $C$DW$67, DW_AT_TI_end_file("../c5535_bsl_revc/ezdsp5535_v1/c55xx_csl/src/csl_mmcsd.c")
    1305                      .dwattr $C$DW$67, DW_AT_TI_end_line(0x347)
    1306                      .dwattr $C$DW$67, DW_AT_TI_end_column(0x01)
    1307                      .dwendentry
    1308                      .dwendtag $C$DW$67
    1309              
    1310 0004b9               .sect   ".text"
    1311                      .align 4
    1312                      .global _MMC_intEnable
    1313              
    1314              $C$DW$71        .dwtag  DW_TAG_subprogram, DW_AT_name("MMC_intEnable")
    1315                      .dwattr $C$DW$71, DW_AT_low_pc(_MMC_intEnable)
    1316                      .dwattr $C$DW$71, DW_AT_high_pc(0x00)
    1317                      .dwattr $C$DW$71, DW_AT_TI_symbol_name("_MMC_intEnable")
    1318                      .dwattr $C$DW$71, DW_AT_external
    1319                      .dwattr $C$DW$71, DW_AT_type(*$C$DW$T$116)
    1320                      .dwattr $C$DW$71, DW_AT_TI_begin_file("../c5535_bsl_revc/ezdsp5535_v1/c55xx_csl/src/csl_mmcsd.c")
    1321                      .dwattr $C$DW$71, DW_AT_TI_begin_line(0x37e)
    1322                      .dwattr $C$DW$71, DW_AT_TI_begin_column(0x0c)
    1323                      .dwattr $C$DW$71, DW_AT_TI_max_frame_size(0x04)
    1324                      .dwpsn  file "../c5535_bsl_revc/ezdsp5535_v1/c55xx_csl/src/csl_mmcsd.c",line 896,column 1,is_stmt,add
    1325              
    1326                      .dwfde $C$DW$CIE, _MMC_intEnable
    1327              $C$DW$72        .dwtag  DW_TAG_formal_parameter, DW_AT_name("hMmcsd")
    1328                      .dwattr $C$DW$72, DW_AT_TI_symbol_name("_hMmcsd")
    1329                      .dwattr $C$DW$72, DW_AT_type(*$C$DW$T$114)
    1330                      .dwattr $C$DW$72, DW_AT_location[DW_OP_reg17]
    1331              $C$DW$73        .dwtag  DW_TAG_formal_parameter, DW_AT_name("maskValue")
    1332                      .dwattr $C$DW$73, DW_AT_TI_symbol_name("_maskValue")
    1333                      .dwattr $C$DW$73, DW_AT_type(*$C$DW$T$19)
    1334                      .dwattr $C$DW$73, DW_AT_location[DW_OP_reg12]
    1335              ;*******************************************************************************
    1336              ;* FUNCTION NAME: MMC_intEnable                                                *
    1337              ;*                                                                             *
    1338              ;*   Function Uses Regs : AC0,AC0,AC1,AC1,T0,AR0,XAR0,AR1,AR3,XAR3,SP,TC1,M40, *
    1339              ;*                        SATA,SATD,RDM,FRCT,SMUL                              *
    1340              ;*   Stack Frame        : Compact (No Frame Pointer, w/ debug)                 *
    1341              ;*   Total Frame Size   : 4 words                                              *
    1342              ;*                        (1 return address/alignment)                         *
    1343              ;*                        (3 local values)                                     *
    1344              ;*   Min System Stack   : 1 word                                               *
TMS320C55x Assembler PC v4.4.1 Fri Sep 14 03:54:38 2018

Tools Copyright (c) 1996-2012 Texas Instruments Incorporated
csl_mmcsd.asm                                                        PAGE   31

    1345              ;*******************************************************************************
    1346 0004bc       _MMC_intEnable:
    1347                      .dwcfi  cfa_offset, 1
    1348                      .dwcfi  save_reg_to_mem, 91, -1
    1349 0004bc 4EFD          AADD #-3, SP
    1350                      .dwcfi  cfa_offset, 4
    1351              $C$DW$74        .dwtag  DW_TAG_variable, DW_AT_name("hMmcsd")
    1352                      .dwattr $C$DW$74, DW_AT_TI_symbol_name("_hMmcsd")
    1353                      .dwattr $C$DW$74, DW_AT_type(*$C$DW$T$114)
    1354                      .dwattr $C$DW$74, DW_AT_location[DW_OP_bregx 0x24 0]
    1355              $C$DW$75        .dwtag  DW_TAG_variable, DW_AT_name("maskValue")
    1356                      .dwattr $C$DW$75, DW_AT_TI_symbol_name("_maskValue")
    1357                      .dwattr $C$DW$75, DW_AT_type(*$C$DW$T$19)
    1358                      .dwattr $C$DW$75, DW_AT_location[DW_OP_bregx 0x24 2]
    1359 0004be C404          MOV T0, *SP(#2) ; |896| 
    1360 0004c0 EB00          MOV XAR0, dbl(*SP(#0))
         0004c2 85   
    1361                      .dwpsn  file "../c5535_bsl_revc/ezdsp5535_v1/c55xx_csl/src/csl_mmcsd.c",line 897,column 5,is_stmt
    1362 0004c3 ED00          MOV dbl(*SP(#0)), XAR3
         0004c5 BF   
    1363              
    1364 0004c6 90B0          MOV XAR3, AC0
    1365 0004c8 3D01  ||      MOV #0, AC1 ; |897| 
    1366              
    1367 0004ca 121C          CMPU AC1 != AC0, TC1 ; |897| 
         0004cc 04   
    1368 0004cd 6264          BCC $C$L37,TC1 ; |897| 
    1369                                                      ; branchcc occurs ; |897| 
    1370                      .dwpsn  file "../c5535_bsl_revc/ezdsp5535_v1/c55xx_csl/src/csl_mmcsd.c",line 899,column 9,is_stmt
    1371 0004cf 3E54          MOV #-5, T0
    1372 0004d1 4A0D          B $C$L38  ; |899| 
    1373                                                      ; branch occurs ; |899| 
    1374 0004d3       $C$L37:    
    1375                      .dwpsn  file "../c5535_bsl_revc/ezdsp5535_v1/c55xx_csl/src/csl_mmcsd.c",line 903,column 9,is_stmt
    1376 0004d3 AB61          MOV *AR3, AR3 ; |903| 
    1377 0004d5 7600          MOV #16, T0 ; |903| 
         0004d7 1048 
    1378 0004d9 A904          MOV *SP(#2), AR1 ; |903| 
    1379 0004db C96B          MOV AR1, port(*AR3(T0)) ; |903| 
         0004dd 9A   
    1380                      .dwpsn  file "../c5535_bsl_revc/ezdsp5535_v1/c55xx_csl/src/csl_mmcsd.c",line 904,column 9,is_stmt
    1381 0004de 3C04          MOV #0, T0
    1382 0004e0       $C$L38:    
    1383                      .dwpsn  file "../c5535_bsl_revc/ezdsp5535_v1/c55xx_csl/src/csl_mmcsd.c",line 906,column 1,is_stmt
    1384 0004e0 4E03          AADD #3, SP
    1385                      .dwcfi  cfa_offset, 1
    1386              $C$DW$76        .dwtag  DW_TAG_TI_branch
    1387                      .dwattr $C$DW$76, DW_AT_low_pc(0x00)
    1388                      .dwattr $C$DW$76, DW_AT_TI_return
    1389 0004e2 4804          RET
    1390                                                      ; return occurs
    1391                      .dwattr $C$DW$71, DW_AT_TI_end_file("../c5535_bsl_revc/ezdsp5535_v1/c55xx_csl/src/csl_mmcsd.c")
    1392                      .dwattr $C$DW$71, DW_AT_TI_end_line(0x38a)
    1393                      .dwattr $C$DW$71, DW_AT_TI_end_column(0x01)
    1394                      .dwendentry
TMS320C55x Assembler PC v4.4.1 Fri Sep 14 03:54:38 2018

Tools Copyright (c) 1996-2012 Texas Instruments Incorporated
csl_mmcsd.asm                                                        PAGE   32

    1395                      .dwendtag $C$DW$71
    1396              
    1397 0004e4               .sect   ".text"
    1398                      .align 4
    1399                      .global _MMC_eventEnable
    1400              
    1401              $C$DW$77        .dwtag  DW_TAG_subprogram, DW_AT_name("MMC_eventEnable")
    1402                      .dwattr $C$DW$77, DW_AT_low_pc(_MMC_eventEnable)
    1403                      .dwattr $C$DW$77, DW_AT_high_pc(0x00)
    1404                      .dwattr $C$DW$77, DW_AT_TI_symbol_name("_MMC_eventEnable")
    1405                      .dwattr $C$DW$77, DW_AT_external
    1406                      .dwattr $C$DW$77, DW_AT_type(*$C$DW$T$116)
    1407                      .dwattr $C$DW$77, DW_AT_TI_begin_file("../c5535_bsl_revc/ezdsp5535_v1/c55xx_csl/src/csl_mmcsd.c")
    1408                      .dwattr $C$DW$77, DW_AT_TI_begin_line(0x3bc)
    1409                      .dwattr $C$DW$77, DW_AT_TI_begin_column(0x0c)
    1410                      .dwattr $C$DW$77, DW_AT_TI_max_frame_size(0x06)
    1411                      .dwpsn  file "../c5535_bsl_revc/ezdsp5535_v1/c55xx_csl/src/csl_mmcsd.c",line 958,column 1,is_stmt,add
    1412              
    1413                      .dwfde $C$DW$CIE, _MMC_eventEnable
    1414              $C$DW$78        .dwtag  DW_TAG_formal_parameter, DW_AT_name("hMmcsd")
    1415                      .dwattr $C$DW$78, DW_AT_TI_symbol_name("_hMmcsd")
    1416                      .dwattr $C$DW$78, DW_AT_type(*$C$DW$T$114)
    1417                      .dwattr $C$DW$78, DW_AT_location[DW_OP_reg17]
    1418              $C$DW$79        .dwtag  DW_TAG_formal_parameter, DW_AT_name("mmcsdEvent")
    1419                      .dwattr $C$DW$79, DW_AT_TI_symbol_name("_mmcsdEvent")
    1420                      .dwattr $C$DW$79, DW_AT_type(*$C$DW$T$110)
    1421                      .dwattr $C$DW$79, DW_AT_location[DW_OP_reg12]
    1422              ;*******************************************************************************
    1423              ;* FUNCTION NAME: MMC_eventEnable                                              *
    1424              ;*                                                                             *
    1425              ;*   Function Uses Regs : AC0,AC0,AC1,AC1,T0,AR0,XAR0,AR1,AR2,AR3,XAR3,SP,TC1, *
    1426              ;*                        M40,SATA,SATD,RDM,FRCT,SMUL                          *
    1427              ;*   Stack Frame        : Compact (No Frame Pointer, w/ debug)                 *
    1428              ;*   Total Frame Size   : 6 words                                              *
    1429              ;*                        (2 return address/alignment)                         *
    1430              ;*                        (4 local values)                                     *
    1431              ;*   Min System Stack   : 1 word                                               *
    1432              ;*******************************************************************************
    1433 0004e4       _MMC_eventEnable:
    1434                      .dwcfi  cfa_offset, 1
    1435                      .dwcfi  save_reg_to_mem, 91, -1
    1436 0004e4 4EFB          AADD #-5, SP
    1437                      .dwcfi  cfa_offset, 6
    1438              $C$DW$80        .dwtag  DW_TAG_variable, DW_AT_name("hMmcsd")
    1439                      .dwattr $C$DW$80, DW_AT_TI_symbol_name("_hMmcsd")
    1440                      .dwattr $C$DW$80, DW_AT_type(*$C$DW$T$114)
    1441                      .dwattr $C$DW$80, DW_AT_location[DW_OP_bregx 0x24 0]
    1442              $C$DW$81        .dwtag  DW_TAG_variable, DW_AT_name("mmcsdEvent")
    1443                      .dwattr $C$DW$81, DW_AT_TI_symbol_name("_mmcsdEvent")
    1444                      .dwattr $C$DW$81, DW_AT_type(*$C$DW$T$110)
    1445                      .dwattr $C$DW$81, DW_AT_location[DW_OP_bregx 0x24 2]
    1446              $C$DW$82        .dwtag  DW_TAG_variable, DW_AT_name("status")
    1447                      .dwattr $C$DW$82, DW_AT_TI_symbol_name("_status")
    1448                      .dwattr $C$DW$82, DW_AT_type(*$C$DW$T$116)
    1449                      .dwattr $C$DW$82, DW_AT_location[DW_OP_bregx 0x24 3]
TMS320C55x Assembler PC v4.4.1 Fri Sep 14 03:54:38 2018

Tools Copyright (c) 1996-2012 Texas Instruments Incorporated
csl_mmcsd.asm                                                        PAGE   33

    1450 0004e6 C404          MOV T0, *SP(#2) ; |958| 
    1451 0004e8 EB00          MOV XAR0, dbl(*SP(#0))
         0004ea 85   
    1452                      .dwpsn  file "../c5535_bsl_revc/ezdsp5535_v1/c55xx_csl/src/csl_mmcsd.c",line 961,column 2,is_stmt
    1453 0004eb E606          MOV #0, *SP(#3) ; |961| 
         0004ed 00   
    1454                      .dwpsn  file "../c5535_bsl_revc/ezdsp5535_v1/c55xx_csl/src/csl_mmcsd.c",line 963,column 5,is_stmt
    1455 0004ee ED00          MOV dbl(*SP(#0)), XAR3
         0004f0 BF   
    1456              
    1457 0004f1 90B0          MOV XAR3, AC0
    1458 0004f3 3D01  ||      MOV #0, AC1 ; |963| 
    1459              
    1460 0004f5 121C          CMPU AC1 != AC0, TC1 ; |963| 
         0004f7 04   
    1461 0004f8 6D64          BCC $C$L52,TC1 ; |963| 
         0004fa 0144 
    1462                                                      ; branchcc occurs ; |963| 
    1463                      .dwpsn  file "../c5535_bsl_revc/ezdsp5535_v1/c55xx_csl/src/csl_mmcsd.c",line 965,column 9,is_stmt
    1464 0004fc E606          MOV #-5, *SP(#3) ; |965| 
         0004fe FB   
    1465                      .dwpsn  file "../c5535_bsl_revc/ezdsp5535_v1/c55xx_csl/src/csl_mmcsd.c",line 966,column 5,is_stmt
    1466 0004ff 0601          B $C$L56  ; |966| 
         000501 D8   
    1467                                                      ; branch occurs ; |966| 
    1468 000502       $C$L39:    
    1469                      .dwpsn  file "../c5535_bsl_revc/ezdsp5535_v1/c55xx_csl/src/csl_mmcsd.c",line 972,column 5,is_stmt
    1470 000502 7600          MOV #16, T0 ; |972| 
         000504 1048 
    1471 000506 AB61          MOV *AR3, AR3 ; |972| 
    1472 000508 A96B          MOV port(*AR3(T0)), AR1 ; |972| 
         00050a 99   
    1473 00050b ED00          MOV dbl(*SP(#0)), XAR3
         00050d BF   
    1474 00050e AB61          MOV *AR3, AR3 ; |972| 
    1475 000510 EC18          BCLR @#12, AR1 ; |972| 
         000512 92   
    1476 000513 EC18          BSET @#12, AR1 ; |972| 
         000515 90   
    1477 000516 C96B          MOV AR1, port(*AR3(T0)) ; |972| 
         000518 9A   
    1478                      .dwpsn  file "../c5535_bsl_revc/ezdsp5535_v1/c55xx_csl/src/csl_mmcsd.c",line 973,column 10,is_stmt
    1479 000519 0601          B $C$L56  ; |973| 
         00051b BE   
    1480                                                      ; branch occurs ; |973| 
    1481 00051c       $C$L40:    
    1482                      .dwpsn  file "../c5535_bsl_revc/ezdsp5535_v1/c55xx_csl/src/csl_mmcsd.c",line 976,column 5,is_stmt
    1483 00051c 7600          MOV #16, T0 ; |976| 
         00051e 1048 
    1484 000520 AB61          MOV *AR3, AR3 ; |976| 
    1485 000522 A96B          MOV port(*AR3(T0)), AR1 ; |976| 
         000524 99   
    1486 000525 ED00          MOV dbl(*SP(#0)), XAR3
         000527 BF   
    1487 000528 AB61          MOV *AR3, AR3 ; |976| 
TMS320C55x Assembler PC v4.4.1 Fri Sep 14 03:54:38 2018

Tools Copyright (c) 1996-2012 Texas Instruments Incorporated
csl_mmcsd.asm                                                        PAGE   34

    1488 00052a EC16          BCLR @#11, AR1 ; |976| 
         00052c 92   
    1489 00052d EC16          BSET @#11, AR1 ; |976| 
         00052f 90   
    1490 000530 C96B          MOV AR1, port(*AR3(T0)) ; |976| 
         000532 9A   
    1491                      .dwpsn  file "../c5535_bsl_revc/ezdsp5535_v1/c55xx_csl/src/csl_mmcsd.c",line 977,column 10,is_stmt
    1492 000533 0601          B $C$L56  ; |977| 
         000535 A4   
    1493                                                      ; branch occurs ; |977| 
    1494 000536       $C$L41:    
    1495                      .dwpsn  file "../c5535_bsl_revc/ezdsp5535_v1/c55xx_csl/src/csl_mmcsd.c",line 980,column 5,is_stmt
    1496 000536 7600          MOV #16, T0 ; |980| 
         000538 1048 
    1497 00053a AB61          MOV *AR3, AR3 ; |980| 
    1498 00053c A96B          MOV port(*AR3(T0)), AR1 ; |980| 
         00053e 99   
    1499 00053f ED00          MOV dbl(*SP(#0)), XAR3
         000541 BF   
    1500 000542 AB61          MOV *AR3, AR3 ; |980| 
    1501 000544 EC14          BCLR @#10, AR1 ; |980| 
         000546 92   
    1502 000547 EC14          BSET @#10, AR1 ; |980| 
         000549 90   
    1503 00054a C96B          MOV AR1, port(*AR3(T0)) ; |980| 
         00054c 9A   
    1504                      .dwpsn  file "../c5535_bsl_revc/ezdsp5535_v1/c55xx_csl/src/csl_mmcsd.c",line 981,column 10,is_stmt
    1505 00054d 0601          B $C$L56  ; |981| 
         00054f 8A   
    1506                                                      ; branch occurs ; |981| 
    1507 000550       $C$L42:    
    1508                      .dwpsn  file "../c5535_bsl_revc/ezdsp5535_v1/c55xx_csl/src/csl_mmcsd.c",line 984,column 5,is_stmt
    1509 000550 7600          MOV #16, T0 ; |984| 
         000552 1048 
    1510 000554 AB61          MOV *AR3, AR3 ; |984| 
    1511 000556 A96B          MOV port(*AR3(T0)), AR1 ; |984| 
         000558 99   
    1512 000559 ED00          MOV dbl(*SP(#0)), XAR3
         00055b BF   
    1513 00055c AB61          MOV *AR3, AR3 ; |984| 
    1514 00055e EC12          BCLR @#9, AR1 ; |984| 
         000560 92   
    1515 000561 EC12          BSET @#9, AR1 ; |984| 
         000563 90   
    1516 000564 C96B          MOV AR1, port(*AR3(T0)) ; |984| 
         000566 9A   
    1517                      .dwpsn  file "../c5535_bsl_revc/ezdsp5535_v1/c55xx_csl/src/csl_mmcsd.c",line 985,column 10,is_stmt
    1518 000567 0601          B $C$L56  ; |985| 
         000569 70   
    1519                                                      ; branch occurs ; |985| 
    1520 00056a       $C$L43:    
    1521                      .dwpsn  file "../c5535_bsl_revc/ezdsp5535_v1/c55xx_csl/src/csl_mmcsd.c",line 988,column 5,is_stmt
    1522 00056a 7600          MOV #16, T0 ; |988| 
         00056c 1048 
    1523 00056e AB61          MOV *AR3, AR3 ; |988| 
TMS320C55x Assembler PC v4.4.1 Fri Sep 14 03:54:38 2018

Tools Copyright (c) 1996-2012 Texas Instruments Incorporated
csl_mmcsd.asm                                                        PAGE   35

    1524 000570 A96B          MOV port(*AR3(T0)), AR1 ; |988| 
         000572 99   
    1525 000573 ED00          MOV dbl(*SP(#0)), XAR3
         000575 BF   
    1526 000576 AB61          MOV *AR3, AR3 ; |988| 
    1527 000578 EC0E          BCLR @#7, AR1 ; |988| 
         00057a 92   
    1528 00057b EC0E          BSET @#7, AR1 ; |988| 
         00057d 90   
    1529 00057e C96B          MOV AR1, port(*AR3(T0)) ; |988| 
         000580 9A   
    1530                      .dwpsn  file "../c5535_bsl_revc/ezdsp5535_v1/c55xx_csl/src/csl_mmcsd.c",line 989,column 10,is_stmt
    1531 000581 0601          B $C$L56  ; |989| 
         000583 56   
    1532                                                      ; branch occurs ; |989| 
    1533 000584       $C$L44:    
    1534                      .dwpsn  file "../c5535_bsl_revc/ezdsp5535_v1/c55xx_csl/src/csl_mmcsd.c",line 992,column 5,is_stmt
    1535 000584 7600          MOV #16, T0 ; |992| 
         000586 1048 
    1536 000588 AB61          MOV *AR3, AR3 ; |992| 
    1537 00058a A96B          MOV port(*AR3(T0)), AR1 ; |992| 
         00058c 99   
    1538 00058d ED00          MOV dbl(*SP(#0)), XAR3
         00058f BF   
    1539 000590 AB61          MOV *AR3, AR3 ; |992| 
    1540 000592 EC0C          BCLR @#6, AR1 ; |992| 
         000594 92   
    1541 000595 EC0C          BSET @#6, AR1 ; |992| 
         000597 90   
    1542 000598 C96B          MOV AR1, port(*AR3(T0)) ; |992| 
         00059a 9A   
    1543                      .dwpsn  file "../c5535_bsl_revc/ezdsp5535_v1/c55xx_csl/src/csl_mmcsd.c",line 993,column 10,is_stmt
    1544 00059b 0601          B $C$L56  ; |993| 
         00059d 3C   
    1545                                                      ; branch occurs ; |993| 
    1546 00059e       $C$L45:    
    1547                      .dwpsn  file "../c5535_bsl_revc/ezdsp5535_v1/c55xx_csl/src/csl_mmcsd.c",line 996,column 5,is_stmt
    1548 00059e 7600          MOV #16, T0 ; |996| 
         0005a0 1048 
    1549 0005a2 AB61          MOV *AR3, AR3 ; |996| 
    1550 0005a4 A96B          MOV port(*AR3(T0)), AR1 ; |996| 
         0005a6 99   
    1551 0005a7 ED00          MOV dbl(*SP(#0)), XAR3
         0005a9 BF   
    1552 0005aa AB61          MOV *AR3, AR3 ; |996| 
    1553 0005ac EC0A          BCLR @#5, AR1 ; |996| 
         0005ae 92   
    1554 0005af EC0A          BSET @#5, AR1 ; |996| 
         0005b1 90   
    1555 0005b2 C96B          MOV AR1, port(*AR3(T0)) ; |996| 
         0005b4 9A   
    1556                      .dwpsn  file "../c5535_bsl_revc/ezdsp5535_v1/c55xx_csl/src/csl_mmcsd.c",line 997,column 10,is_stmt
    1557 0005b5 0601          B $C$L56  ; |997| 
         0005b7 22   
    1558                                                      ; branch occurs ; |997| 
TMS320C55x Assembler PC v4.4.1 Fri Sep 14 03:54:38 2018

Tools Copyright (c) 1996-2012 Texas Instruments Incorporated
csl_mmcsd.asm                                                        PAGE   36

    1559 0005b8       $C$L46:    
    1560                      .dwpsn  file "../c5535_bsl_revc/ezdsp5535_v1/c55xx_csl/src/csl_mmcsd.c",line 1000,column 5,is_stmt
    1561 0005b8 7600          MOV #16, T0 ; |1000| 
         0005ba 1048 
    1562 0005bc AB61          MOV *AR3, AR3 ; |1000| 
    1563 0005be A96B          MOV port(*AR3(T0)), AR1 ; |1000| 
         0005c0 99   
    1564 0005c1 ED00          MOV dbl(*SP(#0)), XAR3
         0005c3 BF   
    1565 0005c4 AB61          MOV *AR3, AR3 ; |1000| 
    1566 0005c6 EC08          BCLR @#4, AR1 ; |1000| 
         0005c8 92   
    1567 0005c9 EC08          BSET @#4, AR1 ; |1000| 
         0005cb 90   
    1568 0005cc C96B          MOV AR1, port(*AR3(T0)) ; |1000| 
         0005ce 9A   
    1569                      .dwpsn  file "../c5535_bsl_revc/ezdsp5535_v1/c55xx_csl/src/csl_mmcsd.c",line 1001,column 10,is_stmt
    1570 0005cf 0601          B $C$L56  ; |1001| 
         0005d1 08   
    1571                                                      ; branch occurs ; |1001| 
    1572 0005d2       $C$L47:    
    1573                      .dwpsn  file "../c5535_bsl_revc/ezdsp5535_v1/c55xx_csl/src/csl_mmcsd.c",line 1004,column 5,is_stmt
    1574 0005d2 7600          MOV #16, T0 ; |1004| 
         0005d4 1048 
    1575 0005d6 AB61          MOV *AR3, AR3 ; |1004| 
    1576 0005d8 A96B          MOV port(*AR3(T0)), AR1 ; |1004| 
         0005da 99   
    1577 0005db ED00          MOV dbl(*SP(#0)), XAR3
         0005dd BF   
    1578 0005de AB61          MOV *AR3, AR3 ; |1004| 
    1579 0005e0 EC06          BCLR @#3, AR1 ; |1004| 
         0005e2 92   
    1580 0005e3 EC06          BSET @#3, AR1 ; |1004| 
         0005e5 90   
    1581 0005e6 C96B          MOV AR1, port(*AR3(T0)) ; |1004| 
         0005e8 9A   
    1582                      .dwpsn  file "../c5535_bsl_revc/ezdsp5535_v1/c55xx_csl/src/csl_mmcsd.c",line 1005,column 10,is_stmt
    1583 0005e9 0600          B $C$L56  ; |1005| 
         0005eb EE   
    1584                                                      ; branch occurs ; |1005| 
    1585 0005ec       $C$L48:    
    1586                      .dwpsn  file "../c5535_bsl_revc/ezdsp5535_v1/c55xx_csl/src/csl_mmcsd.c",line 1008,column 5,is_stmt
    1587 0005ec 7600          MOV #16, T0 ; |1008| 
         0005ee 1048 
    1588 0005f0 AB61          MOV *AR3, AR3 ; |1008| 
    1589 0005f2 A96B          MOV port(*AR3(T0)), AR1 ; |1008| 
         0005f4 99   
    1590 0005f5 ED00          MOV dbl(*SP(#0)), XAR3
         0005f7 BF   
    1591 0005f8 AB61          MOV *AR3, AR3 ; |1008| 
    1592 0005fa EC04          BCLR @#2, AR1 ; |1008| 
         0005fc 92   
    1593 0005fd EC04          BSET @#2, AR1 ; |1008| 
         0005ff 90   
    1594 000600 C96B          MOV AR1, port(*AR3(T0)) ; |1008| 
TMS320C55x Assembler PC v4.4.1 Fri Sep 14 03:54:38 2018

Tools Copyright (c) 1996-2012 Texas Instruments Incorporated
csl_mmcsd.asm                                                        PAGE   37

         000602 9A   
    1595                      .dwpsn  file "../c5535_bsl_revc/ezdsp5535_v1/c55xx_csl/src/csl_mmcsd.c",line 1009,column 10,is_stmt
    1596 000603 0600          B $C$L56  ; |1009| 
         000605 D4   
    1597                                                      ; branch occurs ; |1009| 
    1598 000606       $C$L49:    
    1599                      .dwpsn  file "../c5535_bsl_revc/ezdsp5535_v1/c55xx_csl/src/csl_mmcsd.c",line 1012,column 5,is_stmt
    1600 000606 7600          MOV #16, T0 ; |1012| 
         000608 1048 
    1601 00060a AB61          MOV *AR3, AR3 ; |1012| 
    1602 00060c A96B          MOV port(*AR3(T0)), AR1 ; |1012| 
         00060e 99   
    1603 00060f ED00          MOV dbl(*SP(#0)), XAR3
         000611 BF   
    1604 000612 AB61          MOV *AR3, AR3 ; |1012| 
    1605 000614 EC02          BCLR @#1, AR1 ; |1012| 
         000616 92   
    1606 000617 EC02          BSET @#1, AR1 ; |1012| 
         000619 90   
    1607 00061a C96B          MOV AR1, port(*AR3(T0)) ; |1012| 
         00061c 9A   
    1608                      .dwpsn  file "../c5535_bsl_revc/ezdsp5535_v1/c55xx_csl/src/csl_mmcsd.c",line 1013,column 10,is_stmt
    1609 00061d 0600          B $C$L56  ; |1013| 
         00061f BA   
    1610                                                      ; branch occurs ; |1013| 
    1611 000620       $C$L50:    
    1612                      .dwpsn  file "../c5535_bsl_revc/ezdsp5535_v1/c55xx_csl/src/csl_mmcsd.c",line 1016,column 5,is_stmt
    1613 000620 7600          MOV #16, T0 ; |1016| 
         000622 1048 
    1614 000624 AB61          MOV *AR3, AR3 ; |1016| 
    1615 000626 A96B          MOV port(*AR3(T0)), AR1 ; |1016| 
         000628 99   
    1616 000629 ED00          MOV dbl(*SP(#0)), XAR3
         00062b BF   
    1617 00062c AB61          MOV *AR3, AR3 ; |1016| 
    1618 00062e EC00          BCLR @#0, AR1 ; |1016| 
         000630 92   
    1619 000631 EC00          BSET @#0, AR1 ; |1016| 
         000633 90   
    1620 000634 C96B          MOV AR1, port(*AR3(T0)) ; |1016| 
         000636 9A   
    1621                      .dwpsn  file "../c5535_bsl_revc/ezdsp5535_v1/c55xx_csl/src/csl_mmcsd.c",line 1017,column 10,is_stmt
    1622 000637 0600          B $C$L56  ; |1017| 
         000639 A0   
    1623                                                      ; branch occurs ; |1017| 
    1624 00063a       $C$L51:    
    1625                      .dwpsn  file "../c5535_bsl_revc/ezdsp5535_v1/c55xx_csl/src/csl_mmcsd.c",line 1020,column 5,is_stmt
    1626 00063a E606          MOV #-6, *SP(#3) ; |1020| 
         00063c FA   
    1627                      .dwpsn  file "../c5535_bsl_revc/ezdsp5535_v1/c55xx_csl/src/csl_mmcsd.c",line 1021,column 10,is_stmt
    1628 00063d 0600          B $C$L56  ; |1021| 
         00063f 9A   
    1629                                                      ; branch occurs ; |1021| 
    1630 000640       $C$L52:    
    1631                      .dwpsn  file "../c5535_bsl_revc/ezdsp5535_v1/c55xx_csl/src/csl_mmcsd.c",line 969,column 3,is_stmt
TMS320C55x Assembler PC v4.4.1 Fri Sep 14 03:54:38 2018

Tools Copyright (c) 1996-2012 Texas Instruments Incorporated
csl_mmcsd.asm                                                        PAGE   38

    1632 000640 7600          MOV #64, AR2 ; |969| 
         000642 40A8 
    1633 000644 A904          MOV *SP(#2), AR1 ; |969| 
    1634 000646 12A4          CMP AR1 > AR2, TC1 ; |969| 
         000648 90   
    1635 000649 0464          BCC $C$L54,TC1 ; |969| 
         00064b 4B   
    1636                                                      ; branchcc occurs ; |969| 
    1637 00064c 1290          CMP AR1 == AR2, TC1 ; |969| 
         00064e A0   
    1638 00064f 6D64          BCC $C$L44,TC1 ; |969| 
         000651 FF31 
    1639                                                      ; branchcc occurs ; |969| 
    1640 000653 3C8A          MOV #8, AR2
    1641 000655 12A4          CMP AR1 > AR2, TC1 ; |969| 
         000657 90   
    1642 000658 0464          BCC $C$L53,TC1 ; |969| 
         00065a 23   
    1643                                                      ; branchcc occurs ; |969| 
    1644 00065b 1290          CMP AR1 == AR2, TC1 ; |969| 
         00065d A0   
    1645 00065e 6D64          BCC $C$L47,TC1 ; |969| 
         000660 FF70 
    1646                                                      ; branchcc occurs ; |969| 
    1647 000662 3C1A          MOV #1, AR2
    1648 000664 1290          CMP AR1 == AR2, TC1 ; |969| 
         000666 A0   
    1649 000667 0464          BCC $C$L50,TC1 ; |969| 
         000669 B6   
    1650                                                      ; branchcc occurs ; |969| 
    1651 00066a 3C2A          MOV #2, AR2
    1652 00066c 1290          CMP AR1 == AR2, TC1 ; |969| 
         00066e A0   
    1653 00066f 0464          BCC $C$L49,TC1 ; |969| 
         000671 94   
    1654                                                      ; branchcc occurs ; |969| 
    1655 000672 3C4A          MOV #4, AR2
    1656 000674 1290          CMP AR1 == AR2, TC1 ; |969| 
         000676 A0   
    1657 000677 6D64          BCC $C$L48,TC1 ; |969| 
         000679 FF71 
    1658                                                      ; branchcc occurs ; |969| 
    1659 00067b 06FF          B $C$L51  ; |969| 
         00067d BC   
    1660                                                      ; branch occurs ; |969| 
    1661 00067e       $C$L53:    
    1662 00067e 7600          MOV #16, AR2 ; |969| 
         000680 10A8 
    1663 000682 1290          CMP AR1 == AR2, TC1 ; |969| 
         000684 A0   
    1664 000685 6D64          BCC $C$L46,TC1 ; |969| 
         000687 FF2F 
    1665                                                      ; branchcc occurs ; |969| 
    1666 000689 7600          MOV #32, AR2 ; |969| 
         00068b 20A8 
TMS320C55x Assembler PC v4.4.1 Fri Sep 14 03:54:38 2018

Tools Copyright (c) 1996-2012 Texas Instruments Incorporated
csl_mmcsd.asm                                                        PAGE   39

    1667 00068d 1290          CMP AR1 == AR2, TC1 ; |969| 
         00068f A0   
    1668 000690 6D64          BCC $C$L45,TC1 ; |969| 
         000692 FF0A 
    1669                                                      ; branchcc occurs ; |969| 
    1670 000694 06FF          B $C$L51  ; |969| 
         000696 A3   
    1671                                                      ; branch occurs ; |969| 
    1672 000697       $C$L54:    
    1673 000697 7604          MOV #1024, AR2 ; |969| 
         000699 00A8 
    1674 00069b 12A4          CMP AR1 > AR2, TC1 ; |969| 
         00069d 90   
    1675 00069e 0464          BCC $C$L55,TC1 ; |969| 
         0006a0 20   
    1676                                                      ; branchcc occurs ; |969| 
    1677 0006a1 1290          CMP AR1 == AR2, TC1 ; |969| 
         0006a3 A0   
    1678 0006a4 6D64          BCC $C$L41,TC1 ; |969| 
         0006a6 FE8E 
    1679                                                      ; branchcc occurs ; |969| 
    1680 0006a8 7600          MOV #128, AR2 ; |969| 
         0006aa 80A8 
    1681 0006ac 1290          CMP AR1 == AR2, TC1 ; |969| 
         0006ae A0   
    1682 0006af 6D64          BCC $C$L43,TC1 ; |969| 
         0006b1 FEB7 
    1683                                                      ; branchcc occurs ; |969| 
    1684 0006b3 7602          MOV #512, AR2 ; |969| 
         0006b5 00A8 
    1685 0006b7 1290          CMP AR1 == AR2, TC1 ; |969| 
         0006b9 A0   
    1686 0006ba 6D64          BCC $C$L42,TC1 ; |969| 
         0006bc FE92 
    1687                                                      ; branchcc occurs ; |969| 
    1688 0006be 06FF          B $C$L51  ; |969| 
         0006c0 79   
    1689                                                      ; branch occurs ; |969| 
    1690 0006c1       $C$L55:    
    1691 0006c1 7608          MOV #2048, AR2 ; |969| 
         0006c3 00A8 
    1692 0006c5 1290          CMP AR1 == AR2, TC1 ; |969| 
         0006c7 A0   
    1693 0006c8 6D64          BCC $C$L40,TC1 ; |969| 
         0006ca FE50 
    1694                                                      ; branchcc occurs ; |969| 
    1695 0006cc 7610          MOV #4096, AR2 ; |969| 
         0006ce 00A8 
    1696 0006d0 1290          CMP AR1 == AR2, TC1 ; |969| 
         0006d2 A0   
    1697 0006d3 6D64          BCC $C$L39,TC1 ; |969| 
         0006d5 FE2B 
    1698                                                      ; branchcc occurs ; |969| 
    1699 0006d7 06FF          B $C$L51  ; |969| 
         0006d9 60   
TMS320C55x Assembler PC v4.4.1 Fri Sep 14 03:54:38 2018

Tools Copyright (c) 1996-2012 Texas Instruments Incorporated
csl_mmcsd.asm                                                        PAGE   40

    1700                                                      ; branch occurs ; |969| 
    1701 0006da       $C$L56:    
    1702                      .dwpsn  file "../c5535_bsl_revc/ezdsp5535_v1/c55xx_csl/src/csl_mmcsd.c",line 1025,column 2,is_stmt
    1703 0006da A406          MOV *SP(#3), T0 ; |1025| 
    1704                      .dwpsn  file "../c5535_bsl_revc/ezdsp5535_v1/c55xx_csl/src/csl_mmcsd.c",line 1026,column 1,is_stmt
    1705 0006dc 4E05          AADD #5, SP
    1706                      .dwcfi  cfa_offset, 1
    1707              $C$DW$83        .dwtag  DW_TAG_TI_branch
    1708                      .dwattr $C$DW$83, DW_AT_low_pc(0x00)
    1709                      .dwattr $C$DW$83, DW_AT_TI_return
    1710 0006de 4804          RET
    1711                                                      ; return occurs
    1712                      .dwattr $C$DW$77, DW_AT_TI_end_file("../c5535_bsl_revc/ezdsp5535_v1/c55xx_csl/src/csl_mmcsd.c")
    1713                      .dwattr $C$DW$77, DW_AT_TI_end_line(0x402)
    1714                      .dwattr $C$DW$77, DW_AT_TI_end_column(0x01)
    1715                      .dwendentry
    1716                      .dwendtag $C$DW$77
    1717              
    1718 0006e0               .sect   ".text"
    1719                      .align 4
    1720                      .global _MMC_eventDisable
    1721              
    1722              $C$DW$84        .dwtag  DW_TAG_subprogram, DW_AT_name("MMC_eventDisable")
    1723                      .dwattr $C$DW$84, DW_AT_low_pc(_MMC_eventDisable)
    1724                      .dwattr $C$DW$84, DW_AT_high_pc(0x00)
    1725                      .dwattr $C$DW$84, DW_AT_TI_symbol_name("_MMC_eventDisable")
    1726                      .dwattr $C$DW$84, DW_AT_external
    1727                      .dwattr $C$DW$84, DW_AT_type(*$C$DW$T$116)
    1728                      .dwattr $C$DW$84, DW_AT_TI_begin_file("../c5535_bsl_revc/ezdsp5535_v1/c55xx_csl/src/csl_mmcsd.c")
    1729                      .dwattr $C$DW$84, DW_AT_TI_begin_line(0x432)
    1730                      .dwattr $C$DW$84, DW_AT_TI_begin_column(0x0c)
    1731                      .dwattr $C$DW$84, DW_AT_TI_max_frame_size(0x06)
    1732                      .dwpsn  file "../c5535_bsl_revc/ezdsp5535_v1/c55xx_csl/src/csl_mmcsd.c",line 1076,column 1,is_stmt,ad
    1733              
    1734                      .dwfde $C$DW$CIE, _MMC_eventDisable
    1735              $C$DW$85        .dwtag  DW_TAG_formal_parameter, DW_AT_name("hMmcsd")
    1736                      .dwattr $C$DW$85, DW_AT_TI_symbol_name("_hMmcsd")
    1737                      .dwattr $C$DW$85, DW_AT_type(*$C$DW$T$114)
    1738                      .dwattr $C$DW$85, DW_AT_location[DW_OP_reg17]
    1739              $C$DW$86        .dwtag  DW_TAG_formal_parameter, DW_AT_name("mmcsdEvent")
    1740                      .dwattr $C$DW$86, DW_AT_TI_symbol_name("_mmcsdEvent")
    1741                      .dwattr $C$DW$86, DW_AT_type(*$C$DW$T$110)
    1742                      .dwattr $C$DW$86, DW_AT_location[DW_OP_reg12]
    1743              ;*******************************************************************************
    1744              ;* FUNCTION NAME: MMC_eventDisable                                             *
    1745              ;*                                                                             *
    1746              ;*   Function Uses Regs : AC0,AC0,AC1,AC1,T0,AR0,XAR0,AR1,AR2,AR3,XAR3,SP,TC1, *
    1747              ;*                        M40,SATA,SATD,RDM,FRCT,SMUL                          *
    1748              ;*   Stack Frame        : Compact (No Frame Pointer, w/ debug)                 *
    1749              ;*   Total Frame Size   : 6 words                                              *
    1750              ;*                        (2 return address/alignment)                         *
    1751              ;*                        (4 local values)                                     *
    1752              ;*   Min System Stack   : 1 word                                               *
    1753              ;*******************************************************************************
    1754 0006e0       _MMC_eventDisable:
TMS320C55x Assembler PC v4.4.1 Fri Sep 14 03:54:38 2018

Tools Copyright (c) 1996-2012 Texas Instruments Incorporated
csl_mmcsd.asm                                                        PAGE   41

    1755                      .dwcfi  cfa_offset, 1
    1756                      .dwcfi  save_reg_to_mem, 91, -1
    1757 0006e0 4EFB          AADD #-5, SP
    1758                      .dwcfi  cfa_offset, 6
    1759              $C$DW$87        .dwtag  DW_TAG_variable, DW_AT_name("hMmcsd")
    1760                      .dwattr $C$DW$87, DW_AT_TI_symbol_name("_hMmcsd")
    1761                      .dwattr $C$DW$87, DW_AT_type(*$C$DW$T$114)
    1762                      .dwattr $C$DW$87, DW_AT_location[DW_OP_bregx 0x24 0]
    1763              $C$DW$88        .dwtag  DW_TAG_variable, DW_AT_name("mmcsdEvent")
    1764                      .dwattr $C$DW$88, DW_AT_TI_symbol_name("_mmcsdEvent")
    1765                      .dwattr $C$DW$88, DW_AT_type(*$C$DW$T$110)
    1766                      .dwattr $C$DW$88, DW_AT_location[DW_OP_bregx 0x24 2]
    1767              $C$DW$89        .dwtag  DW_TAG_variable, DW_AT_name("status")
    1768                      .dwattr $C$DW$89, DW_AT_TI_symbol_name("_status")
    1769                      .dwattr $C$DW$89, DW_AT_type(*$C$DW$T$116)
    1770                      .dwattr $C$DW$89, DW_AT_location[DW_OP_bregx 0x24 3]
    1771 0006e2 C404          MOV T0, *SP(#2) ; |1076| 
    1772 0006e4 EB00          MOV XAR0, dbl(*SP(#0))
         0006e6 85   
    1773                      .dwpsn  file "../c5535_bsl_revc/ezdsp5535_v1/c55xx_csl/src/csl_mmcsd.c",line 1079,column 2,is_stmt
    1774 0006e7 E606          MOV #0, *SP(#3) ; |1079| 
         0006e9 00   
    1775                      .dwpsn  file "../c5535_bsl_revc/ezdsp5535_v1/c55xx_csl/src/csl_mmcsd.c",line 1081,column 5,is_stmt
    1776 0006ea ED00          MOV dbl(*SP(#0)), XAR3
         0006ec BF   
    1777              
    1778 0006ed 90B0          MOV XAR3, AC0
    1779 0006ef 3D01  ||      MOV #0, AC1 ; |1081| 
    1780              
    1781 0006f1 121C          CMPU AC1 != AC0, TC1 ; |1081| 
         0006f3 04   
    1782 0006f4 6D64          BCC $C$L70,TC1 ; |1081| 
         0006f6 0120 
    1783                                                      ; branchcc occurs ; |1081| 
    1784                      .dwpsn  file "../c5535_bsl_revc/ezdsp5535_v1/c55xx_csl/src/csl_mmcsd.c",line 1083,column 3,is_stmt
    1785 0006f8 E606          MOV #-5, *SP(#3) ; |1083| 
         0006fa FB   
    1786                      .dwpsn  file "../c5535_bsl_revc/ezdsp5535_v1/c55xx_csl/src/csl_mmcsd.c",line 1084,column 5,is_stmt
    1787 0006fb 0601          B $C$L74  ; |1084| 
         0006fd B4   
    1788                                                      ; branch occurs ; |1084| 
    1789 0006fe       $C$L57:    
    1790                      .dwpsn  file "../c5535_bsl_revc/ezdsp5535_v1/c55xx_csl/src/csl_mmcsd.c",line 1090,column 5,is_stmt
    1791 0006fe 7600          MOV #16, T0 ; |1090| 
         000700 1048 
    1792 000702 AB61          MOV *AR3, AR3 ; |1090| 
    1793 000704 A96B          MOV port(*AR3(T0)), AR1 ; |1090| 
         000706 99   
    1794 000707 ED00          MOV dbl(*SP(#0)), XAR3
         000709 BF   
    1795 00070a AB61          MOV *AR3, AR3 ; |1090| 
    1796 00070c EC18          BCLR @#12, AR1 ; |1090| 
         00070e 92   
    1797 00070f C96B          MOV AR1, port(*AR3(T0)) ; |1090| 
         000711 9A   
TMS320C55x Assembler PC v4.4.1 Fri Sep 14 03:54:38 2018

Tools Copyright (c) 1996-2012 Texas Instruments Incorporated
csl_mmcsd.asm                                                        PAGE   42

    1798                      .dwpsn  file "../c5535_bsl_revc/ezdsp5535_v1/c55xx_csl/src/csl_mmcsd.c",line 1091,column 10,is_stmt
    1799 000712 0601          B $C$L74  ; |1091| 
         000714 9D   
    1800                                                      ; branch occurs ; |1091| 
    1801 000715       $C$L58:    
    1802                      .dwpsn  file "../c5535_bsl_revc/ezdsp5535_v1/c55xx_csl/src/csl_mmcsd.c",line 1094,column 5,is_stmt
    1803 000715 7600          MOV #16, T0 ; |1094| 
         000717 1048 
    1804 000719 AB61          MOV *AR3, AR3 ; |1094| 
    1805 00071b A96B          MOV port(*AR3(T0)), AR1 ; |1094| 
         00071d 99   
    1806 00071e ED00          MOV dbl(*SP(#0)), XAR3
         000720 BF   
    1807 000721 AB61          MOV *AR3, AR3 ; |1094| 
    1808 000723 EC16          BCLR @#11, AR1 ; |1094| 
         000725 92   
    1809 000726 C96B          MOV AR1, port(*AR3(T0)) ; |1094| 
         000728 9A   
    1810                      .dwpsn  file "../c5535_bsl_revc/ezdsp5535_v1/c55xx_csl/src/csl_mmcsd.c",line 1095,column 10,is_stmt
    1811 000729 0601          B $C$L74  ; |1095| 
         00072b 86   
    1812                                                      ; branch occurs ; |1095| 
    1813 00072c       $C$L59:    
    1814                      .dwpsn  file "../c5535_bsl_revc/ezdsp5535_v1/c55xx_csl/src/csl_mmcsd.c",line 1098,column 5,is_stmt
    1815 00072c 7600          MOV #16, T0 ; |1098| 
         00072e 1048 
    1816 000730 AB61          MOV *AR3, AR3 ; |1098| 
    1817 000732 A96B          MOV port(*AR3(T0)), AR1 ; |1098| 
         000734 99   
    1818 000735 ED00          MOV dbl(*SP(#0)), XAR3
         000737 BF   
    1819 000738 AB61          MOV *AR3, AR3 ; |1098| 
    1820 00073a EC14          BCLR @#10, AR1 ; |1098| 
         00073c 92   
    1821 00073d C96B          MOV AR1, port(*AR3(T0)) ; |1098| 
         00073f 9A   
    1822                      .dwpsn  file "../c5535_bsl_revc/ezdsp5535_v1/c55xx_csl/src/csl_mmcsd.c",line 1099,column 10,is_stmt
    1823 000740 0601          B $C$L74  ; |1099| 
         000742 6F   
    1824                                                      ; branch occurs ; |1099| 
    1825 000743       $C$L60:    
    1826                      .dwpsn  file "../c5535_bsl_revc/ezdsp5535_v1/c55xx_csl/src/csl_mmcsd.c",line 1102,column 5,is_stmt
    1827 000743 7600          MOV #16, T0 ; |1102| 
         000745 1048 
    1828 000747 AB61          MOV *AR3, AR3 ; |1102| 
    1829 000749 A96B          MOV port(*AR3(T0)), AR1 ; |1102| 
         00074b 99   
    1830 00074c ED00          MOV dbl(*SP(#0)), XAR3
         00074e BF   
    1831 00074f AB61          MOV *AR3, AR3 ; |1102| 
    1832 000751 EC12          BCLR @#9, AR1 ; |1102| 
         000753 92   
    1833 000754 C96B          MOV AR1, port(*AR3(T0)) ; |1102| 
         000756 9A   
    1834                      .dwpsn  file "../c5535_bsl_revc/ezdsp5535_v1/c55xx_csl/src/csl_mmcsd.c",line 1103,column 10,is_stmt
TMS320C55x Assembler PC v4.4.1 Fri Sep 14 03:54:38 2018

Tools Copyright (c) 1996-2012 Texas Instruments Incorporated
csl_mmcsd.asm                                                        PAGE   43

    1835 000757 0601          B $C$L74  ; |1103| 
         000759 58   
    1836                                                      ; branch occurs ; |1103| 
    1837 00075a       $C$L61:    
    1838                      .dwpsn  file "../c5535_bsl_revc/ezdsp5535_v1/c55xx_csl/src/csl_mmcsd.c",line 1106,column 5,is_stmt
    1839 00075a 7600          MOV #16, T0 ; |1106| 
         00075c 1048 
    1840 00075e AB61          MOV *AR3, AR3 ; |1106| 
    1841 000760 A96B          MOV port(*AR3(T0)), AR1 ; |1106| 
         000762 99   
    1842 000763 ED00          MOV dbl(*SP(#0)), XAR3
         000765 BF   
    1843 000766 AB61          MOV *AR3, AR3 ; |1106| 
    1844 000768 EC0E          BCLR @#7, AR1 ; |1106| 
         00076a 92   
    1845 00076b C96B          MOV AR1, port(*AR3(T0)) ; |1106| 
         00076d 9A   
    1846                      .dwpsn  file "../c5535_bsl_revc/ezdsp5535_v1/c55xx_csl/src/csl_mmcsd.c",line 1107,column 10,is_stmt
    1847 00076e 0601          B $C$L74  ; |1107| 
         000770 41   
    1848                                                      ; branch occurs ; |1107| 
    1849 000771       $C$L62:    
    1850                      .dwpsn  file "../c5535_bsl_revc/ezdsp5535_v1/c55xx_csl/src/csl_mmcsd.c",line 1110,column 5,is_stmt
    1851 000771 7600          MOV #16, T0 ; |1110| 
         000773 1048 
    1852 000775 AB61          MOV *AR3, AR3 ; |1110| 
    1853 000777 A96B          MOV port(*AR3(T0)), AR1 ; |1110| 
         000779 99   
    1854 00077a ED00          MOV dbl(*SP(#0)), XAR3
         00077c BF   
    1855 00077d AB61          MOV *AR3, AR3 ; |1110| 
    1856 00077f EC0C          BCLR @#6, AR1 ; |1110| 
         000781 92   
    1857 000782 C96B          MOV AR1, port(*AR3(T0)) ; |1110| 
         000784 9A   
    1858                      .dwpsn  file "../c5535_bsl_revc/ezdsp5535_v1/c55xx_csl/src/csl_mmcsd.c",line 1111,column 10,is_stmt
    1859 000785 0601          B $C$L74  ; |1111| 
         000787 2A   
    1860                                                      ; branch occurs ; |1111| 
    1861 000788       $C$L63:    
    1862                      .dwpsn  file "../c5535_bsl_revc/ezdsp5535_v1/c55xx_csl/src/csl_mmcsd.c",line 1114,column 5,is_stmt
    1863 000788 7600          MOV #16, T0 ; |1114| 
         00078a 1048 
    1864 00078c AB61          MOV *AR3, AR3 ; |1114| 
    1865 00078e A96B          MOV port(*AR3(T0)), AR1 ; |1114| 
         000790 99   
    1866 000791 ED00          MOV dbl(*SP(#0)), XAR3
         000793 BF   
    1867 000794 AB61          MOV *AR3, AR3 ; |1114| 
    1868 000796 EC0A          BCLR @#5, AR1 ; |1114| 
         000798 92   
    1869 000799 C96B          MOV AR1, port(*AR3(T0)) ; |1114| 
         00079b 9A   
    1870                      .dwpsn  file "../c5535_bsl_revc/ezdsp5535_v1/c55xx_csl/src/csl_mmcsd.c",line 1115,column 10,is_stmt
    1871 00079c 0601          B $C$L74  ; |1115| 
TMS320C55x Assembler PC v4.4.1 Fri Sep 14 03:54:38 2018

Tools Copyright (c) 1996-2012 Texas Instruments Incorporated
csl_mmcsd.asm                                                        PAGE   44

         00079e 13   
    1872                                                      ; branch occurs ; |1115| 
    1873 00079f       $C$L64:    
    1874                      .dwpsn  file "../c5535_bsl_revc/ezdsp5535_v1/c55xx_csl/src/csl_mmcsd.c",line 1118,column 5,is_stmt
    1875 00079f 7600          MOV #16, T0 ; |1118| 
         0007a1 1048 
    1876 0007a3 AB61          MOV *AR3, AR3 ; |1118| 
    1877 0007a5 A96B          MOV port(*AR3(T0)), AR1 ; |1118| 
         0007a7 99   
    1878 0007a8 ED00          MOV dbl(*SP(#0)), XAR3
         0007aa BF   
    1879 0007ab AB61          MOV *AR3, AR3 ; |1118| 
    1880 0007ad EC08          BCLR @#4, AR1 ; |1118| 
         0007af 92   
    1881 0007b0 C96B          MOV AR1, port(*AR3(T0)) ; |1118| 
         0007b2 9A   
    1882                      .dwpsn  file "../c5535_bsl_revc/ezdsp5535_v1/c55xx_csl/src/csl_mmcsd.c",line 1119,column 10,is_stmt
    1883 0007b3 0600          B $C$L74  ; |1119| 
         0007b5 FC   
    1884                                                      ; branch occurs ; |1119| 
    1885 0007b6       $C$L65:    
    1886                      .dwpsn  file "../c5535_bsl_revc/ezdsp5535_v1/c55xx_csl/src/csl_mmcsd.c",line 1122,column 5,is_stmt
    1887 0007b6 7600          MOV #16, T0 ; |1122| 
         0007b8 1048 
    1888 0007ba AB61          MOV *AR3, AR3 ; |1122| 
    1889 0007bc A96B          MOV port(*AR3(T0)), AR1 ; |1122| 
         0007be 99   
    1890 0007bf ED00          MOV dbl(*SP(#0)), XAR3
         0007c1 BF   
    1891 0007c2 AB61          MOV *AR3, AR3 ; |1122| 
    1892 0007c4 EC06          BCLR @#3, AR1 ; |1122| 
         0007c6 92   
    1893 0007c7 C96B          MOV AR1, port(*AR3(T0)) ; |1122| 
         0007c9 9A   
    1894                      .dwpsn  file "../c5535_bsl_revc/ezdsp5535_v1/c55xx_csl/src/csl_mmcsd.c",line 1123,column 10,is_stmt
    1895 0007ca 0600          B $C$L74  ; |1123| 
         0007cc E5   
    1896                                                      ; branch occurs ; |1123| 
    1897 0007cd       $C$L66:    
    1898                      .dwpsn  file "../c5535_bsl_revc/ezdsp5535_v1/c55xx_csl/src/csl_mmcsd.c",line 1126,column 5,is_stmt
    1899 0007cd 7600          MOV #16, T0 ; |1126| 
         0007cf 1048 
    1900 0007d1 AB61          MOV *AR3, AR3 ; |1126| 
    1901 0007d3 A96B          MOV port(*AR3(T0)), AR1 ; |1126| 
         0007d5 99   
    1902 0007d6 ED00          MOV dbl(*SP(#0)), XAR3
         0007d8 BF   
    1903 0007d9 AB61          MOV *AR3, AR3 ; |1126| 
    1904 0007db EC04          BCLR @#2, AR1 ; |1126| 
         0007dd 92   
    1905 0007de C96B          MOV AR1, port(*AR3(T0)) ; |1126| 
         0007e0 9A   
    1906                      .dwpsn  file "../c5535_bsl_revc/ezdsp5535_v1/c55xx_csl/src/csl_mmcsd.c",line 1127,column 10,is_stmt
    1907 0007e1 0600          B $C$L74  ; |1127| 
         0007e3 CE   
TMS320C55x Assembler PC v4.4.1 Fri Sep 14 03:54:38 2018

Tools Copyright (c) 1996-2012 Texas Instruments Incorporated
csl_mmcsd.asm                                                        PAGE   45

    1908                                                      ; branch occurs ; |1127| 
    1909 0007e4       $C$L67:    
    1910                      .dwpsn  file "../c5535_bsl_revc/ezdsp5535_v1/c55xx_csl/src/csl_mmcsd.c",line 1130,column 5,is_stmt
    1911 0007e4 7600          MOV #16, T0 ; |1130| 
         0007e6 1048 
    1912 0007e8 AB61          MOV *AR3, AR3 ; |1130| 
    1913 0007ea A96B          MOV port(*AR3(T0)), AR1 ; |1130| 
         0007ec 99   
    1914 0007ed ED00          MOV dbl(*SP(#0)), XAR3
         0007ef BF   
    1915 0007f0 AB61          MOV *AR3, AR3 ; |1130| 
    1916 0007f2 EC02          BCLR @#1, AR1 ; |1130| 
         0007f4 92   
    1917 0007f5 C96B          MOV AR1, port(*AR3(T0)) ; |1130| 
         0007f7 9A   
    1918                      .dwpsn  file "../c5535_bsl_revc/ezdsp5535_v1/c55xx_csl/src/csl_mmcsd.c",line 1131,column 10,is_stmt
    1919 0007f8 0600          B $C$L74  ; |1131| 
         0007fa B7   
    1920                                                      ; branch occurs ; |1131| 
    1921 0007fb       $C$L68:    
    1922                      .dwpsn  file "../c5535_bsl_revc/ezdsp5535_v1/c55xx_csl/src/csl_mmcsd.c",line 1134,column 5,is_stmt
    1923 0007fb 7600          MOV #16, T0 ; |1134| 
         0007fd 1048 
    1924 0007ff AB61          MOV *AR3, AR3 ; |1134| 
    1925 000801 A96B          MOV port(*AR3(T0)), AR1 ; |1134| 
         000803 99   
    1926 000804 ED00          MOV dbl(*SP(#0)), XAR3
         000806 BF   
    1927 000807 AB61          MOV *AR3, AR3 ; |1134| 
    1928 000809 EC00          BCLR @#0, AR1 ; |1134| 
         00080b 92   
    1929 00080c C96B          MOV AR1, port(*AR3(T0)) ; |1134| 
         00080e 9A   
    1930                      .dwpsn  file "../c5535_bsl_revc/ezdsp5535_v1/c55xx_csl/src/csl_mmcsd.c",line 1135,column 10,is_stmt
    1931 00080f 0600          B $C$L74  ; |1135| 
         000811 A0   
    1932                                                      ; branch occurs ; |1135| 
    1933 000812       $C$L69:    
    1934                      .dwpsn  file "../c5535_bsl_revc/ezdsp5535_v1/c55xx_csl/src/csl_mmcsd.c",line 1138,column 5,is_stmt
    1935 000812 E606          MOV #-6, *SP(#3) ; |1138| 
         000814 FA   
    1936                      .dwpsn  file "../c5535_bsl_revc/ezdsp5535_v1/c55xx_csl/src/csl_mmcsd.c",line 1139,column 10,is_stmt
    1937 000815 0600          B $C$L74  ; |1139| 
         000817 9A   
    1938                                                      ; branch occurs ; |1139| 
    1939 000818       $C$L70:    
    1940                      .dwpsn  file "../c5535_bsl_revc/ezdsp5535_v1/c55xx_csl/src/csl_mmcsd.c",line 1087,column 3,is_stmt
    1941 000818 7600          MOV #64, AR2 ; |1087| 
         00081a 40A8 
    1942 00081c A904          MOV *SP(#2), AR1 ; |1087| 
    1943 00081e 12A4          CMP AR1 > AR2, TC1 ; |1087| 
         000820 90   
    1944 000821 0464          BCC $C$L72,TC1 ; |1087| 
         000823 4B   
    1945                                                      ; branchcc occurs ; |1087| 
TMS320C55x Assembler PC v4.4.1 Fri Sep 14 03:54:38 2018

Tools Copyright (c) 1996-2012 Texas Instruments Incorporated
csl_mmcsd.asm                                                        PAGE   46

    1946 000824 1290          CMP AR1 == AR2, TC1 ; |1087| 
         000826 A0   
    1947 000827 6D64          BCC $C$L62,TC1 ; |1087| 
         000829 FF46 
    1948                                                      ; branchcc occurs ; |1087| 
    1949 00082b 3C8A          MOV #8, AR2
    1950 00082d 12A4          CMP AR1 > AR2, TC1 ; |1087| 
         00082f 90   
    1951 000830 0464          BCC $C$L71,TC1 ; |1087| 
         000832 23   
    1952                                                      ; branchcc occurs ; |1087| 
    1953 000833 1290          CMP AR1 == AR2, TC1 ; |1087| 
         000835 A0   
    1954 000836 6D64          BCC $C$L65,TC1 ; |1087| 
         000838 FF7C 
    1955                                                      ; branchcc occurs ; |1087| 
    1956 00083a 3C1A          MOV #1, AR2
    1957 00083c 1290          CMP AR1 == AR2, TC1 ; |1087| 
         00083e A0   
    1958 00083f 0464          BCC $C$L68,TC1 ; |1087| 
         000841 B9   
    1959                                                      ; branchcc occurs ; |1087| 
    1960 000842 3C2A          MOV #2, AR2
    1961 000844 1290          CMP AR1 == AR2, TC1 ; |1087| 
         000846 A0   
    1962 000847 0464          BCC $C$L67,TC1 ; |1087| 
         000849 9A   
    1963                                                      ; branchcc occurs ; |1087| 
    1964 00084a 3C4A          MOV #4, AR2
    1965 00084c 1290          CMP AR1 == AR2, TC1 ; |1087| 
         00084e A0   
    1966 00084f 6D64          BCC $C$L66,TC1 ; |1087| 
         000851 FF7A 
    1967                                                      ; branchcc occurs ; |1087| 
    1968 000853 06FF          B $C$L69  ; |1087| 
         000855 BC   
    1969                                                      ; branch occurs ; |1087| 
    1970 000856       $C$L71:    
    1971 000856 7600          MOV #16, AR2 ; |1087| 
         000858 10A8 
    1972 00085a 1290          CMP AR1 == AR2, TC1 ; |1087| 
         00085c A0   
    1973 00085d 6D64          BCC $C$L64,TC1 ; |1087| 
         00085f FF3E 
    1974                                                      ; branchcc occurs ; |1087| 
    1975 000861 7600          MOV #32, AR2 ; |1087| 
         000863 20A8 
    1976 000865 1290          CMP AR1 == AR2, TC1 ; |1087| 
         000867 A0   
    1977 000868 6D64          BCC $C$L63,TC1 ; |1087| 
         00086a FF1C 
    1978                                                      ; branchcc occurs ; |1087| 
    1979 00086c 06FF          B $C$L69  ; |1087| 
         00086e A3   
    1980                                                      ; branch occurs ; |1087| 
TMS320C55x Assembler PC v4.4.1 Fri Sep 14 03:54:38 2018

Tools Copyright (c) 1996-2012 Texas Instruments Incorporated
csl_mmcsd.asm                                                        PAGE   47

    1981 00086f       $C$L72:    
    1982 00086f 7604          MOV #1024, AR2 ; |1087| 
         000871 00A8 
    1983 000873 12A4          CMP AR1 > AR2, TC1 ; |1087| 
         000875 90   
    1984 000876 0464          BCC $C$L73,TC1 ; |1087| 
         000878 20   
    1985                                                      ; branchcc occurs ; |1087| 
    1986 000879 1290          CMP AR1 == AR2, TC1 ; |1087| 
         00087b A0   
    1987 00087c 6D64          BCC $C$L59,TC1 ; |1087| 
         00087e FEAC 
    1988                                                      ; branchcc occurs ; |1087| 
    1989 000880 7600          MOV #128, AR2 ; |1087| 
         000882 80A8 
    1990 000884 1290          CMP AR1 == AR2, TC1 ; |1087| 
         000886 A0   
    1991 000887 6D64          BCC $C$L61,TC1 ; |1087| 
         000889 FECF 
    1992                                                      ; branchcc occurs ; |1087| 
    1993 00088b 7602          MOV #512, AR2 ; |1087| 
         00088d 00A8 
    1994 00088f 1290          CMP AR1 == AR2, TC1 ; |1087| 
         000891 A0   
    1995 000892 6D64          BCC $C$L60,TC1 ; |1087| 
         000894 FEAD 
    1996                                                      ; branchcc occurs ; |1087| 
    1997 000896 06FF          B $C$L69  ; |1087| 
         000898 79   
    1998                                                      ; branch occurs ; |1087| 
    1999 000899       $C$L73:    
    2000 000899 7608          MOV #2048, AR2 ; |1087| 
         00089b 00A8 
    2001 00089d 1290          CMP AR1 == AR2, TC1 ; |1087| 
         00089f A0   
    2002 0008a0 6D64          BCC $C$L58,TC1 ; |1087| 
         0008a2 FE71 
    2003                                                      ; branchcc occurs ; |1087| 
    2004 0008a4 7610          MOV #4096, AR2 ; |1087| 
         0008a6 00A8 
    2005 0008a8 1290          CMP AR1 == AR2, TC1 ; |1087| 
         0008aa A0   
    2006 0008ab 6D64          BCC $C$L57,TC1 ; |1087| 
         0008ad FE4F 
    2007                                                      ; branchcc occurs ; |1087| 
    2008 0008af 06FF          B $C$L69  ; |1087| 
         0008b1 60   
    2009                                                      ; branch occurs ; |1087| 
    2010 0008b2       $C$L74:    
    2011                      .dwpsn  file "../c5535_bsl_revc/ezdsp5535_v1/c55xx_csl/src/csl_mmcsd.c",line 1143,column 2,is_stmt
    2012 0008b2 A406          MOV *SP(#3), T0 ; |1143| 
    2013                      .dwpsn  file "../c5535_bsl_revc/ezdsp5535_v1/c55xx_csl/src/csl_mmcsd.c",line 1144,column 1,is_stmt
    2014 0008b4 4E05          AADD #5, SP
    2015                      .dwcfi  cfa_offset, 1
    2016              $C$DW$90        .dwtag  DW_TAG_TI_branch
TMS320C55x Assembler PC v4.4.1 Fri Sep 14 03:54:38 2018

Tools Copyright (c) 1996-2012 Texas Instruments Incorporated
csl_mmcsd.asm                                                        PAGE   48

    2017                      .dwattr $C$DW$90, DW_AT_low_pc(0x00)
    2018                      .dwattr $C$DW$90, DW_AT_TI_return
    2019 0008b6 4804          RET
    2020                                                      ; return occurs
    2021                      .dwattr $C$DW$84, DW_AT_TI_end_file("../c5535_bsl_revc/ezdsp5535_v1/c55xx_csl/src/csl_mmcsd.c")
    2022                      .dwattr $C$DW$84, DW_AT_TI_end_line(0x478)
    2023                      .dwattr $C$DW$84, DW_AT_TI_end_column(0x01)
    2024                      .dwendentry
    2025                      .dwendtag $C$DW$84
    2026              
    2027 0008b8               .sect   ".text"
    2028                      .align 4
    2029                      .global _MMC_drrdy
    2030              
    2031              $C$DW$91        .dwtag  DW_TAG_subprogram, DW_AT_name("MMC_drrdy")
    2032                      .dwattr $C$DW$91, DW_AT_low_pc(_MMC_drrdy)
    2033                      .dwattr $C$DW$91, DW_AT_high_pc(0x00)
    2034                      .dwattr $C$DW$91, DW_AT_TI_symbol_name("_MMC_drrdy")
    2035                      .dwattr $C$DW$91, DW_AT_external
    2036                      .dwattr $C$DW$91, DW_AT_type(*$C$DW$T$31)
    2037                      .dwattr $C$DW$91, DW_AT_TI_begin_file("../c5535_bsl_revc/ezdsp5535_v1/c55xx_csl/src/csl_mmcsd.c")
    2038                      .dwattr $C$DW$91, DW_AT_TI_begin_line(0x4a6)
    2039                      .dwattr $C$DW$91, DW_AT_TI_begin_column(0x06)
    2040                      .dwattr $C$DW$91, DW_AT_TI_max_frame_size(0x06)
    2041                      .dwpsn  file "../c5535_bsl_revc/ezdsp5535_v1/c55xx_csl/src/csl_mmcsd.c",line 1192,column 1,is_stmt,ad
    2042              
    2043                      .dwfde $C$DW$CIE, _MMC_drrdy
    2044              $C$DW$92        .dwtag  DW_TAG_formal_parameter, DW_AT_name("hMmcsd")
    2045                      .dwattr $C$DW$92, DW_AT_TI_symbol_name("_hMmcsd")
    2046                      .dwattr $C$DW$92, DW_AT_type(*$C$DW$T$114)
    2047                      .dwattr $C$DW$92, DW_AT_location[DW_OP_reg17]
    2048              $C$DW$93        .dwtag  DW_TAG_formal_parameter, DW_AT_name("pStatus")
    2049                      .dwattr $C$DW$93, DW_AT_TI_symbol_name("_pStatus")
    2050                      .dwattr $C$DW$93, DW_AT_type(*$C$DW$T$117)
    2051                      .dwattr $C$DW$93, DW_AT_location[DW_OP_reg19]
    2052              ;*******************************************************************************
    2053              ;* FUNCTION NAME: MMC_drrdy                                                    *
    2054              ;*                                                                             *
    2055              ;*   Function Uses Regs : AC0,AC0,AC1,AC1,T0,AR0,XAR0,AR1,XAR1,AR3,XAR3,SP,TC1,*
    2056              ;*                        M40,SATA,SATD,RDM,FRCT,SMUL                          *
    2057              ;*   Stack Frame        : Compact (No Frame Pointer, w/ debug)                 *
    2058              ;*   Total Frame Size   : 6 words                                              *
    2059              ;*                        (1 return address/alignment)                         *
    2060              ;*                        (5 local values)                                     *
    2061              ;*   Min System Stack   : 1 word                                               *
    2062              ;*******************************************************************************
    2063 0008b8       _MMC_drrdy:
    2064                      .dwcfi  cfa_offset, 1
    2065                      .dwcfi  save_reg_to_mem, 91, -1
    2066 0008b8 4EFB          AADD #-5, SP
    2067                      .dwcfi  cfa_offset, 6
    2068              $C$DW$94        .dwtag  DW_TAG_variable, DW_AT_name("hMmcsd")
    2069                      .dwattr $C$DW$94, DW_AT_TI_symbol_name("_hMmcsd")
    2070                      .dwattr $C$DW$94, DW_AT_type(*$C$DW$T$114)
    2071                      .dwattr $C$DW$94, DW_AT_location[DW_OP_bregx 0x24 0]
TMS320C55x Assembler PC v4.4.1 Fri Sep 14 03:54:38 2018

Tools Copyright (c) 1996-2012 Texas Instruments Incorporated
csl_mmcsd.asm                                                        PAGE   49

    2072              $C$DW$95        .dwtag  DW_TAG_variable, DW_AT_name("pStatus")
    2073                      .dwattr $C$DW$95, DW_AT_TI_symbol_name("_pStatus")
    2074                      .dwattr $C$DW$95, DW_AT_type(*$C$DW$T$117)
    2075                      .dwattr $C$DW$95, DW_AT_location[DW_OP_bregx 0x24 2]
    2076              $C$DW$96        .dwtag  DW_TAG_variable, DW_AT_name("status")
    2077                      .dwattr $C$DW$96, DW_AT_TI_symbol_name("_status")
    2078                      .dwattr $C$DW$96, DW_AT_type(*$C$DW$T$31)
    2079                      .dwattr $C$DW$96, DW_AT_location[DW_OP_bregx 0x24 4]
    2080 0008ba EB04          MOV XAR1, dbl(*SP(#2))
         0008bc 95   
    2081 0008bd EB00          MOV XAR0, dbl(*SP(#0))
         0008bf 85   
    2082                      .dwpsn  file "../c5535_bsl_revc/ezdsp5535_v1/c55xx_csl/src/csl_mmcsd.c",line 1195,column 5,is_stmt
    2083 0008c0 E608          MOV #0, *SP(#4) ; |1195| 
         0008c2 00   
    2084                      .dwpsn  file "../c5535_bsl_revc/ezdsp5535_v1/c55xx_csl/src/csl_mmcsd.c",line 1197,column 5,is_stmt
    2085 0008c3 ED00          MOV dbl(*SP(#0)), XAR3
         0008c5 BF   
    2086              
    2087 0008c6 90B0          MOV XAR3, AC0
    2088 0008c8 3D01  ||      MOV #0, AC1 ; |1197| 
    2089              
    2090 0008ca 121C          CMPU AC1 != AC0, TC1 ; |1197| 
         0008cc 04   
    2091 0008cd 66E4          BCC $C$L75,TC1 ; |1197| 
    2092                                                      ; branchcc occurs ; |1197| 
    2093                      .dwpsn  file "../c5535_bsl_revc/ezdsp5535_v1/c55xx_csl/src/csl_mmcsd.c",line 1199,column 3,is_stmt
    2094 0008cf ED04          MOV dbl(*SP(#2)), XAR3
         0008d1 BF   
    2095 0008d2 90B0          MOV XAR3, AC0
    2096 0008d4 0400          BCC $C$L77,AC0 == #0 ; |1199| 
         0008d6 23   
    2097                                                      ; branchcc occurs ; |1199| 
    2098                      .dwpsn  file "../c5535_bsl_revc/ezdsp5535_v1/c55xx_csl/src/csl_mmcsd.c",line 1201,column 10,is_stmt
    2099 0008d7 E661          MOV #-5, *AR3 ; |1201| 
         0008d9 FB   
    2100                      .dwpsn  file "../c5535_bsl_revc/ezdsp5535_v1/c55xx_csl/src/csl_mmcsd.c",line 1203,column 5,is_stmt
    2101 0008da 4A1E          B $C$L77  ; |1203| 
    2102                                                      ; branch occurs ; |1203| 
    2103 0008dc       $C$L75:    
    2104                      .dwpsn  file "../c5535_bsl_revc/ezdsp5535_v1/c55xx_csl/src/csl_mmcsd.c",line 1206,column 3,is_stmt
    2105 0008dc ED04          MOV dbl(*SP(#2)), XAR3
         0008de BF   
    2106 0008df 90B0          MOV XAR3, AC0
    2107 0008e1 6180          BCC $C$L76,AC0 == #0 ; |1206| 
    2108                                                      ; branchcc occurs ; |1206| 
    2109                      .dwpsn  file "../c5535_bsl_revc/ezdsp5535_v1/c55xx_csl/src/csl_mmcsd.c",line 1208,column 10,is_stmt
    2110 0008e3 E661          MOV #0, *AR3 ; |1208| 
         0008e5 00   
    2111 0008e6       $C$L76:    
    2112                      .dwpsn  file "../c5535_bsl_revc/ezdsp5535_v1/c55xx_csl/src/csl_mmcsd.c",line 1210,column 9,is_stmt
    2113 0008e6 ED00          MOV dbl(*SP(#0)), XAR3
         0008e8 BF   
    2114 0008e9 AB61          MOV *AR3, AR3 ; |1210| 
    2115 0008eb 1408          AMOV #8, T0
TMS320C55x Assembler PC v4.4.1 Fri Sep 14 03:54:38 2018

Tools Copyright (c) 1996-2012 Texas Instruments Incorporated
csl_mmcsd.asm                                                        PAGE   50

         0008ed 45   
    2116 0008ee A96B          MOV port(*AR3(T0)), AR1 ; |1210| 
         0008f0 99   
    2117 0008f1 7D04          AND #0x0400, AR1, AC0 ; |1210| 
         0008f3 0009 
    2118 0008f5 1005          SFTS AC0, #-10, AC0 ; |1210| 
         0008f7 36   
    2119 0008f8 C008          MOV AC0, *SP(#4) ; |1210| 
    2120 0008fa       $C$L77:    
    2121                      .dwpsn  file "../c5535_bsl_revc/ezdsp5535_v1/c55xx_csl/src/csl_mmcsd.c",line 1213,column 2,is_stmt
    2122 0008fa A408          MOV *SP(#4), T0 ; |1213| 
    2123                      .dwpsn  file "../c5535_bsl_revc/ezdsp5535_v1/c55xx_csl/src/csl_mmcsd.c",line 1214,column 1,is_stmt
    2124 0008fc 4E05          AADD #5, SP
    2125                      .dwcfi  cfa_offset, 1
    2126              $C$DW$97        .dwtag  DW_TAG_TI_branch
    2127                      .dwattr $C$DW$97, DW_AT_low_pc(0x00)
    2128                      .dwattr $C$DW$97, DW_AT_TI_return
    2129 0008fe 4804          RET
    2130                                                      ; return occurs
    2131                      .dwattr $C$DW$91, DW_AT_TI_end_file("../c5535_bsl_revc/ezdsp5535_v1/c55xx_csl/src/csl_mmcsd.c")
    2132                      .dwattr $C$DW$91, DW_AT_TI_end_line(0x4be)
    2133                      .dwattr $C$DW$91, DW_AT_TI_end_column(0x01)
    2134                      .dwendentry
    2135                      .dwendtag $C$DW$91
    2136              
    2137 000900               .sect   ".text"
    2138                      .align 4
    2139                      .global _MMC_dxrdy
    2140              
    2141              $C$DW$98        .dwtag  DW_TAG_subprogram, DW_AT_name("MMC_dxrdy")
    2142                      .dwattr $C$DW$98, DW_AT_low_pc(_MMC_dxrdy)
    2143                      .dwattr $C$DW$98, DW_AT_high_pc(0x00)
    2144                      .dwattr $C$DW$98, DW_AT_TI_symbol_name("_MMC_dxrdy")
    2145                      .dwattr $C$DW$98, DW_AT_external
    2146                      .dwattr $C$DW$98, DW_AT_type(*$C$DW$T$31)
    2147                      .dwattr $C$DW$98, DW_AT_TI_begin_file("../c5535_bsl_revc/ezdsp5535_v1/c55xx_csl/src/csl_mmcsd.c")
    2148                      .dwattr $C$DW$98, DW_AT_TI_begin_line(0x4ec)
    2149                      .dwattr $C$DW$98, DW_AT_TI_begin_column(0x06)
    2150                      .dwattr $C$DW$98, DW_AT_TI_max_frame_size(0x06)
    2151                      .dwpsn  file "../c5535_bsl_revc/ezdsp5535_v1/c55xx_csl/src/csl_mmcsd.c",line 1262,column 1,is_stmt,ad
    2152              
    2153                      .dwfde $C$DW$CIE, _MMC_dxrdy
    2154              $C$DW$99        .dwtag  DW_TAG_formal_parameter, DW_AT_name("hMmcsd")
    2155                      .dwattr $C$DW$99, DW_AT_TI_symbol_name("_hMmcsd")
    2156                      .dwattr $C$DW$99, DW_AT_type(*$C$DW$T$114)
    2157                      .dwattr $C$DW$99, DW_AT_location[DW_OP_reg17]
    2158              $C$DW$100       .dwtag  DW_TAG_formal_parameter, DW_AT_name("pStatus")
    2159                      .dwattr $C$DW$100, DW_AT_TI_symbol_name("_pStatus")
    2160                      .dwattr $C$DW$100, DW_AT_type(*$C$DW$T$117)
    2161                      .dwattr $C$DW$100, DW_AT_location[DW_OP_reg19]
    2162              ;*******************************************************************************
    2163              ;* FUNCTION NAME: MMC_dxrdy                                                    *
    2164              ;*                                                                             *
    2165              ;*   Function Uses Regs : AC0,AC0,AC1,AC1,T0,AR0,XAR0,AR1,XAR1,AR3,XAR3,SP,TC1,*
    2166              ;*                        M40,SATA,SATD,RDM,FRCT,SMUL                          *
TMS320C55x Assembler PC v4.4.1 Fri Sep 14 03:54:38 2018

Tools Copyright (c) 1996-2012 Texas Instruments Incorporated
csl_mmcsd.asm                                                        PAGE   51

    2167              ;*   Stack Frame        : Compact (No Frame Pointer, w/ debug)                 *
    2168              ;*   Total Frame Size   : 6 words                                              *
    2169              ;*                        (1 return address/alignment)                         *
    2170              ;*                        (5 local values)                                     *
    2171              ;*   Min System Stack   : 1 word                                               *
    2172              ;*******************************************************************************
    2173 000900       _MMC_dxrdy:
    2174                      .dwcfi  cfa_offset, 1
    2175                      .dwcfi  save_reg_to_mem, 91, -1
    2176 000900 4EFB          AADD #-5, SP
    2177                      .dwcfi  cfa_offset, 6
    2178              $C$DW$101       .dwtag  DW_TAG_variable, DW_AT_name("hMmcsd")
    2179                      .dwattr $C$DW$101, DW_AT_TI_symbol_name("_hMmcsd")
    2180                      .dwattr $C$DW$101, DW_AT_type(*$C$DW$T$114)
    2181                      .dwattr $C$DW$101, DW_AT_location[DW_OP_bregx 0x24 0]
    2182              $C$DW$102       .dwtag  DW_TAG_variable, DW_AT_name("pStatus")
    2183                      .dwattr $C$DW$102, DW_AT_TI_symbol_name("_pStatus")
    2184                      .dwattr $C$DW$102, DW_AT_type(*$C$DW$T$117)
    2185                      .dwattr $C$DW$102, DW_AT_location[DW_OP_bregx 0x24 2]
    2186              $C$DW$103       .dwtag  DW_TAG_variable, DW_AT_name("status")
    2187                      .dwattr $C$DW$103, DW_AT_TI_symbol_name("_status")
    2188                      .dwattr $C$DW$103, DW_AT_type(*$C$DW$T$31)
    2189                      .dwattr $C$DW$103, DW_AT_location[DW_OP_bregx 0x24 4]
    2190 000902 EB04          MOV XAR1, dbl(*SP(#2))
         000904 95   
    2191 000905 EB00          MOV XAR0, dbl(*SP(#0))
         000907 85   
    2192                      .dwpsn  file "../c5535_bsl_revc/ezdsp5535_v1/c55xx_csl/src/csl_mmcsd.c",line 1265,column 5,is_stmt
    2193 000908 ED00          MOV dbl(*SP(#0)), XAR3
         00090a BF   
    2194              
    2195 00090b 90B0          MOV XAR3, AC0
    2196 00090d 3D01  ||      MOV #0, AC1 ; |1265| 
    2197              
    2198 00090f 121C          CMPU AC1 != AC0, TC1 ; |1265| 
         000911 04   
    2199 000912 66E4          BCC $C$L78,TC1 ; |1265| 
    2200                                                      ; branchcc occurs ; |1265| 
    2201                      .dwpsn  file "../c5535_bsl_revc/ezdsp5535_v1/c55xx_csl/src/csl_mmcsd.c",line 1267,column 3,is_stmt
    2202 000914 ED04          MOV dbl(*SP(#2)), XAR3
         000916 BF   
    2203 000917 90B0          MOV XAR3, AC0
    2204 000919 0400          BCC $C$L80,AC0 == #0 ; |1267| 
         00091b 23   
    2205                                                      ; branchcc occurs ; |1267| 
    2206                      .dwpsn  file "../c5535_bsl_revc/ezdsp5535_v1/c55xx_csl/src/csl_mmcsd.c",line 1269,column 10,is_stmt
    2207 00091c E661          MOV #-5, *AR3 ; |1269| 
         00091e FB   
    2208                      .dwpsn  file "../c5535_bsl_revc/ezdsp5535_v1/c55xx_csl/src/csl_mmcsd.c",line 1271,column 5,is_stmt
    2209 00091f 4A1E          B $C$L80  ; |1271| 
    2210                                                      ; branch occurs ; |1271| 
    2211 000921       $C$L78:    
    2212                      .dwpsn  file "../c5535_bsl_revc/ezdsp5535_v1/c55xx_csl/src/csl_mmcsd.c",line 1274,column 3,is_stmt
    2213 000921 ED04          MOV dbl(*SP(#2)), XAR3
         000923 BF   
TMS320C55x Assembler PC v4.4.1 Fri Sep 14 03:54:38 2018

Tools Copyright (c) 1996-2012 Texas Instruments Incorporated
csl_mmcsd.asm                                                        PAGE   52

    2214 000924 90B0          MOV XAR3, AC0
    2215 000926 6180          BCC $C$L79,AC0 == #0 ; |1274| 
    2216                                                      ; branchcc occurs ; |1274| 
    2217                      .dwpsn  file "../c5535_bsl_revc/ezdsp5535_v1/c55xx_csl/src/csl_mmcsd.c",line 1276,column 10,is_stmt
    2218 000928 E661          MOV #0, *AR3 ; |1276| 
         00092a 00   
    2219 00092b       $C$L79:    
    2220                      .dwpsn  file "../c5535_bsl_revc/ezdsp5535_v1/c55xx_csl/src/csl_mmcsd.c",line 1278,column 9,is_stmt
    2221 00092b ED00          MOV dbl(*SP(#0)), XAR3
         00092d BF   
    2222 00092e AB61          MOV *AR3, AR3 ; |1278| 
    2223 000930 1408          AMOV #8, T0
         000932 45   
    2224 000933 A96B          MOV port(*AR3(T0)), AR1 ; |1278| 
         000935 99   
    2225 000936 7D02          AND #0x0200, AR1, AC0 ; |1278| 
         000938 0009 
    2226 00093a 1005          SFTS AC0, #-9, AC0 ; |1278| 
         00093c 37   
    2227 00093d C008          MOV AC0, *SP(#4) ; |1278| 
    2228 00093f       $C$L80:    
    2229                      .dwpsn  file "../c5535_bsl_revc/ezdsp5535_v1/c55xx_csl/src/csl_mmcsd.c",line 1281,column 2,is_stmt
    2230 00093f A408          MOV *SP(#4), T0 ; |1281| 
    2231                      .dwpsn  file "../c5535_bsl_revc/ezdsp5535_v1/c55xx_csl/src/csl_mmcsd.c",line 1282,column 1,is_stmt
    2232 000941 4E05          AADD #5, SP
    2233                      .dwcfi  cfa_offset, 1
    2234              $C$DW$104       .dwtag  DW_TAG_TI_branch
    2235                      .dwattr $C$DW$104, DW_AT_low_pc(0x00)
    2236                      .dwattr $C$DW$104, DW_AT_TI_return
    2237 000943 4804          RET
    2238                                                      ; return occurs
    2239                      .dwattr $C$DW$98, DW_AT_TI_end_file("../c5535_bsl_revc/ezdsp5535_v1/c55xx_csl/src/csl_mmcsd.c")
    2240                      .dwattr $C$DW$98, DW_AT_TI_end_line(0x502)
    2241                      .dwattr $C$DW$98, DW_AT_TI_end_column(0x01)
    2242                      .dwendentry
    2243                      .dwendtag $C$DW$98
    2244              
    2245 000945               .sect   ".text"
    2246                      .align 4
    2247                      .global _MMC_saveStatus
    2248              
    2249              $C$DW$105       .dwtag  DW_TAG_subprogram, DW_AT_name("MMC_saveStatus")
    2250                      .dwattr $C$DW$105, DW_AT_low_pc(_MMC_saveStatus)
    2251                      .dwattr $C$DW$105, DW_AT_high_pc(0x00)
    2252                      .dwattr $C$DW$105, DW_AT_TI_symbol_name("_MMC_saveStatus")
    2253                      .dwattr $C$DW$105, DW_AT_external
    2254                      .dwattr $C$DW$105, DW_AT_type(*$C$DW$T$116)
    2255                      .dwattr $C$DW$105, DW_AT_TI_begin_file("../c5535_bsl_revc/ezdsp5535_v1/c55xx_csl/src/csl_mmcsd.c")
    2256                      .dwattr $C$DW$105, DW_AT_TI_begin_line(0x52e)
    2257                      .dwattr $C$DW$105, DW_AT_TI_begin_column(0x0c)
    2258                      .dwattr $C$DW$105, DW_AT_TI_max_frame_size(0x04)
    2259                      .dwpsn  file "../c5535_bsl_revc/ezdsp5535_v1/c55xx_csl/src/csl_mmcsd.c",line 1327,column 1,is_stmt,ad
    2260              
    2261                      .dwfde $C$DW$CIE, _MMC_saveStatus
    2262              $C$DW$106       .dwtag  DW_TAG_formal_parameter, DW_AT_name("hMmcsd")
TMS320C55x Assembler PC v4.4.1 Fri Sep 14 03:54:38 2018

Tools Copyright (c) 1996-2012 Texas Instruments Incorporated
csl_mmcsd.asm                                                        PAGE   53

    2263                      .dwattr $C$DW$106, DW_AT_TI_symbol_name("_hMmcsd")
    2264                      .dwattr $C$DW$106, DW_AT_type(*$C$DW$T$114)
    2265                      .dwattr $C$DW$106, DW_AT_location[DW_OP_reg17]
    2266              ;*******************************************************************************
    2267              ;* FUNCTION NAME: MMC_saveStatus                                               *
    2268              ;*                                                                             *
    2269              ;*   Function Uses Regs : AC0,AC0,AC1,AC1,T0,AR0,XAR0,AR1,AR3,XAR3,SP,TC1,M40, *
    2270              ;*                        SATA,SATD,RDM,FRCT,SMUL                              *
    2271              ;*   Stack Frame        : Compact (No Frame Pointer, w/ debug)                 *
    2272              ;*   Total Frame Size   : 4 words                                              *
    2273              ;*                        (2 return address/alignment)                         *
    2274              ;*                        (2 local values)                                     *
    2275              ;*   Min System Stack   : 1 word                                               *
    2276              ;*******************************************************************************
    2277 000948       _MMC_saveStatus:
    2278                      .dwcfi  cfa_offset, 1
    2279                      .dwcfi  save_reg_to_mem, 91, -1
    2280 000948 4EFD          AADD #-3, SP
    2281                      .dwcfi  cfa_offset, 4
    2282              $C$DW$107       .dwtag  DW_TAG_variable, DW_AT_name("hMmcsd")
    2283                      .dwattr $C$DW$107, DW_AT_TI_symbol_name("_hMmcsd")
    2284                      .dwattr $C$DW$107, DW_AT_type(*$C$DW$T$114)
    2285                      .dwattr $C$DW$107, DW_AT_location[DW_OP_bregx 0x24 0]
    2286 00094a EB00          MOV XAR0, dbl(*SP(#0))
         00094c 85   
    2287                      .dwpsn  file "../c5535_bsl_revc/ezdsp5535_v1/c55xx_csl/src/csl_mmcsd.c",line 1328,column 5,is_stmt
    2288 00094d ED00          MOV dbl(*SP(#0)), XAR3
         00094f BF   
    2289              
    2290 000950 90B0          MOV XAR3, AC0
    2291 000952 3D01  ||      MOV #0, AC1 ; |1328| 
    2292              
    2293 000954 121C          CMPU AC1 != AC0, TC1 ; |1328| 
         000956 04   
    2294 000957 6264          BCC $C$L81,TC1 ; |1328| 
    2295                                                      ; branchcc occurs ; |1328| 
    2296                      .dwpsn  file "../c5535_bsl_revc/ezdsp5535_v1/c55xx_csl/src/csl_mmcsd.c",line 1330,column 9,is_stmt
    2297 000959 3E54          MOV #-5, T0
    2298 00095b 4A25          B $C$L82  ; |1330| 
    2299                                                      ; branch occurs ; |1330| 
    2300 00095d       $C$L81:    
    2301                      .dwpsn  file "../c5535_bsl_revc/ezdsp5535_v1/c55xx_csl/src/csl_mmcsd.c",line 1334,column 9,is_stmt
    2302 00095d AB61          MOV *AR3, AR3 ; |1334| 
    2303 00095f 1408          AMOV #8, T0
         000961 45   
    2304 000962 A96B          MOV port(*AR3(T0)), AR1 ; |1334| 
         000964 99   
    2305 000965 ED00          MOV dbl(*SP(#0)), XAR3
         000967 BF   
    2306 000968 ED75          MOV dbl(*AR3(short(#2))), XAR3
         00096a BF   
    2307 00096b C973          MOV AR1, *AR3(short(#1)) ; |1334| 
    2308                      .dwpsn  file "../c5535_bsl_revc/ezdsp5535_v1/c55xx_csl/src/csl_mmcsd.c",line 1335,column 9,is_stmt
    2309 00096d ED00          MOV dbl(*SP(#0)), XAR3
         00096f BF   
TMS320C55x Assembler PC v4.4.1 Fri Sep 14 03:54:38 2018

Tools Copyright (c) 1996-2012 Texas Instruments Incorporated
csl_mmcsd.asm                                                        PAGE   54

    2310 000970 AB61          MOV *AR3, AR3 ; |1335| 
    2311 000972 140C          AMOV #12, T0
         000974 45   
    2312 000975 A96B          MOV port(*AR3(T0)), AR1 ; |1335| 
         000977 99   
    2313 000978 ED00          MOV dbl(*SP(#0)), XAR3
         00097a BF   
    2314 00097b ED75          MOV dbl(*AR3(short(#2))), XAR3
         00097d BF   
    2315 00097e C975          MOV AR1, *AR3(short(#2)) ; |1335| 
    2316                      .dwpsn  file "../c5535_bsl_revc/ezdsp5535_v1/c55xx_csl/src/csl_mmcsd.c",line 1336,column 9,is_stmt
    2317 000980 3C04          MOV #0, T0
    2318 000982       $C$L82:    
    2319                      .dwpsn  file "../c5535_bsl_revc/ezdsp5535_v1/c55xx_csl/src/csl_mmcsd.c",line 1338,column 1,is_stmt
    2320 000982 4E03          AADD #3, SP
    2321                      .dwcfi  cfa_offset, 1
    2322              $C$DW$108       .dwtag  DW_TAG_TI_branch
    2323                      .dwattr $C$DW$108, DW_AT_low_pc(0x00)
    2324                      .dwattr $C$DW$108, DW_AT_TI_return
    2325 000984 4804          RET
    2326                                                      ; return occurs
    2327                      .dwattr $C$DW$105, DW_AT_TI_end_file("../c5535_bsl_revc/ezdsp5535_v1/c55xx_csl/src/csl_mmcsd.c")
    2328                      .dwattr $C$DW$105, DW_AT_TI_end_line(0x53a)
    2329                      .dwattr $C$DW$105, DW_AT_TI_end_column(0x01)
    2330                      .dwendentry
    2331                      .dwendtag $C$DW$105
    2332              
    2333 000986               .sect   ".text"
    2334                      .align 4
    2335                      .global _MMC_getStatus
    2336              
    2337              $C$DW$109       .dwtag  DW_TAG_subprogram, DW_AT_name("MMC_getStatus")
    2338                      .dwattr $C$DW$109, DW_AT_low_pc(_MMC_getStatus)
    2339                      .dwattr $C$DW$109, DW_AT_high_pc(0x00)
    2340                      .dwattr $C$DW$109, DW_AT_TI_symbol_name("_MMC_getStatus")
    2341                      .dwattr $C$DW$109, DW_AT_external
    2342                      .dwattr $C$DW$109, DW_AT_type(*$C$DW$T$49)
    2343                      .dwattr $C$DW$109, DW_AT_TI_begin_file("../c5535_bsl_revc/ezdsp5535_v1/c55xx_csl/src/csl_mmcsd.c")
    2344                      .dwattr $C$DW$109, DW_AT_TI_begin_line(0x56d)
    2345                      .dwattr $C$DW$109, DW_AT_TI_begin_column(0x08)
    2346                      .dwattr $C$DW$109, DW_AT_TI_max_frame_size(0x0a)
    2347                      .dwpsn  file "../c5535_bsl_revc/ezdsp5535_v1/c55xx_csl/src/csl_mmcsd.c",line 1392,column 1,is_stmt,ad
    2348              
    2349                      .dwfde $C$DW$CIE, _MMC_getStatus
    2350              $C$DW$110       .dwtag  DW_TAG_formal_parameter, DW_AT_name("hMmcsd")
    2351                      .dwattr $C$DW$110, DW_AT_TI_symbol_name("_hMmcsd")
    2352                      .dwattr $C$DW$110, DW_AT_type(*$C$DW$T$114)
    2353                      .dwattr $C$DW$110, DW_AT_location[DW_OP_reg17]
    2354              $C$DW$111       .dwtag  DW_TAG_formal_parameter, DW_AT_name("maskValue")
    2355                      .dwattr $C$DW$111, DW_AT_TI_symbol_name("_maskValue")
    2356                      .dwattr $C$DW$111, DW_AT_type(*$C$DW$T$49)
    2357                      .dwattr $C$DW$111, DW_AT_location[DW_OP_reg0]
    2358              $C$DW$112       .dwtag  DW_TAG_formal_parameter, DW_AT_name("pStatus")
    2359                      .dwattr $C$DW$112, DW_AT_TI_symbol_name("_pStatus")
    2360                      .dwattr $C$DW$112, DW_AT_type(*$C$DW$T$117)
TMS320C55x Assembler PC v4.4.1 Fri Sep 14 03:54:38 2018

Tools Copyright (c) 1996-2012 Texas Instruments Incorporated
csl_mmcsd.asm                                                        PAGE   55

    2361                      .dwattr $C$DW$112, DW_AT_location[DW_OP_reg19]
    2362              ;*******************************************************************************
    2363              ;* FUNCTION NAME: MMC_getStatus                                                *
    2364              ;*                                                                             *
    2365              ;*   Function Uses Regs : AC0,AC0,AC1,AC1,T0,AR0,XAR0,AR1,XAR1,AR3,XAR3,SP,    *
    2366              ;*                        CARRY,TC1,M40,SATA,SATD,RDM,FRCT,SMUL                *
    2367              ;*   Stack Frame        : Compact (No Frame Pointer, w/ debug)                 *
    2368              ;*   Total Frame Size   : 10 words                                             *
    2369              ;*                        (2 return address/alignment)                         *
    2370              ;*                        (8 local values)                                     *
    2371              ;*   Min System Stack   : 1 word                                               *
    2372              ;*******************************************************************************
    2373 000988       _MMC_getStatus:
    2374                      .dwcfi  cfa_offset, 1
    2375                      .dwcfi  save_reg_to_mem, 91, -1
    2376 000988 4EF7          AADD #-9, SP
    2377                      .dwcfi  cfa_offset, 10
    2378              $C$DW$113       .dwtag  DW_TAG_variable, DW_AT_name("hMmcsd")
    2379                      .dwattr $C$DW$113, DW_AT_TI_symbol_name("_hMmcsd")
    2380                      .dwattr $C$DW$113, DW_AT_type(*$C$DW$T$114)
    2381                      .dwattr $C$DW$113, DW_AT_location[DW_OP_bregx 0x24 0]
    2382              $C$DW$114       .dwtag  DW_TAG_variable, DW_AT_name("maskValue")
    2383                      .dwattr $C$DW$114, DW_AT_TI_symbol_name("_maskValue")
    2384                      .dwattr $C$DW$114, DW_AT_type(*$C$DW$T$49)
    2385                      .dwattr $C$DW$114, DW_AT_location[DW_OP_bregx 0x24 2]
    2386              $C$DW$115       .dwtag  DW_TAG_variable, DW_AT_name("pStatus")
    2387                      .dwattr $C$DW$115, DW_AT_TI_symbol_name("_pStatus")
    2388                      .dwattr $C$DW$115, DW_AT_type(*$C$DW$T$117)
    2389                      .dwattr $C$DW$115, DW_AT_location[DW_OP_bregx 0x24 4]
    2390              $C$DW$116       .dwtag  DW_TAG_variable, DW_AT_name("status")
    2391                      .dwattr $C$DW$116, DW_AT_TI_symbol_name("_status")
    2392                      .dwattr $C$DW$116, DW_AT_type(*$C$DW$T$49)
    2393                      .dwattr $C$DW$116, DW_AT_location[DW_OP_bregx 0x24 6]
    2394 00098a EB08          MOV XAR1, dbl(*SP(#4))
         00098c 95   
    2395 00098d EB04          MOV AC0, dbl(*SP(#2)) ; |1392| 
         00098f 08   
    2396 000990 EB00          MOV XAR0, dbl(*SP(#0))
         000992 85   
    2397                      .dwpsn  file "../c5535_bsl_revc/ezdsp5535_v1/c55xx_csl/src/csl_mmcsd.c",line 1395,column 5,is_stmt
    2398 000993 ED00          MOV dbl(*SP(#0)), XAR3
         000995 BF   
    2399              
    2400 000996 90B0          MOV XAR3, AC0
    2401 000998 3D01  ||      MOV #0, AC1 ; |1395| 
    2402              
    2403 00099a 121C          CMPU AC1 != AC0, TC1 ; |1395| 
         00099c 04   
    2404 00099d 6464          BCC $C$L83,TC1 ; |1395| 
    2405                                                      ; branchcc occurs ; |1395| 
    2406                      .dwpsn  file "../c5535_bsl_revc/ezdsp5535_v1/c55xx_csl/src/csl_mmcsd.c",line 1397,column 9,is_stmt
    2407 00099f ED08          MOV dbl(*SP(#4)), XAR3
         0009a1 BF   
    2408 0009a2 E661          MOV #-5, *AR3 ; |1397| 
         0009a4 FB   
TMS320C55x Assembler PC v4.4.1 Fri Sep 14 03:54:38 2018

Tools Copyright (c) 1996-2012 Texas Instruments Incorporated
csl_mmcsd.asm                                                        PAGE   56

    2409                      .dwpsn  file "../c5535_bsl_revc/ezdsp5535_v1/c55xx_csl/src/csl_mmcsd.c",line 1398,column 5,is_stmt
    2410 0009a5 4A3B          B $C$L84  ; |1398| 
    2411                                                      ; branch occurs ; |1398| 
    2412 0009a7       $C$L83:    
    2413                      .dwpsn  file "../c5535_bsl_revc/ezdsp5535_v1/c55xx_csl/src/csl_mmcsd.c",line 1401,column 9,is_stmt
    2414 0009a7 ED08          MOV dbl(*SP(#4)), XAR3
         0009a9 BF   
    2415 0009aa E661          MOV #0, *AR3 ; |1401| 
         0009ac 00   
    2416                      .dwpsn  file "../c5535_bsl_revc/ezdsp5535_v1/c55xx_csl/src/csl_mmcsd.c",line 1402,column 9,is_stmt
    2417 0009ad ED00          MOV dbl(*SP(#0)), XAR3
         0009af BF   
    2418 0009b0 AB61          MOV *AR3, AR3 ; |1402| 
    2419 0009b2 140C          AMOV #12, T0
         0009b4 45   
    2420 0009b5 DF6B          MOV uns(port(*AR3(T0))), AC0 ; |1402| 
         0009b7 05   
         0009b8 99   
    2421 0009b9 EB0C          MOV AC0, dbl(*SP(#6)) ; |1402| 
         0009bb 08   
    2422                      .dwpsn  file "../c5535_bsl_revc/ezdsp5535_v1/c55xx_csl/src/csl_mmcsd.c",line 1403,column 9,is_stmt
    2423 0009bc ED0C          MOV dbl(*SP(#6)), AC0 ; |1403| 
         0009be 08   
    2424 0009bf 1007          SFTL AC0, #16, AC0 ; |1403| 
         0009c1 10   
    2425 0009c2 EB0C          MOV AC0, dbl(*SP(#6)) ; |1403| 
         0009c4 08   
    2426                      .dwpsn  file "../c5535_bsl_revc/ezdsp5535_v1/c55xx_csl/src/csl_mmcsd.c",line 1404,column 9,is_stmt
    2427 0009c5 ED00          MOV dbl(*SP(#0)), XAR3
         0009c7 BF   
    2428 0009c8 AB61          MOV *AR3, AR3 ; |1404| 
    2429              
    2430 0009ca 8E0C          MOV dbl(*SP(#6)), AC0 ; |1404| 
         0009cc 4D1D 
         0009ce 0808 
    2431              ||      AMOV #8, T0
    2432              
    2433 0009d0 DA6B          OR port(*AR3(T0)), AC0, AC0 ; |1404| 
         0009d2 00   
         0009d3 99   
    2434 0009d4 EB0C          MOV AC0, dbl(*SP(#6)) ; |1404| 
         0009d6 08   
    2435                      .dwpsn  file "../c5535_bsl_revc/ezdsp5535_v1/c55xx_csl/src/csl_mmcsd.c",line 1405,column 9,is_stmt
    2436 0009d7 ED0C          MOV dbl(*SP(#6)), AC1 ; |1405| 
         0009d9 18   
    2437 0009da ED04          MOV dbl(*SP(#2)), AC0 ; |1405| 
         0009dc 08   
    2438 0009dd 2810          AND AC1, AC0 ; |1405| 
    2439 0009df EB0C          MOV AC0, dbl(*SP(#6)) ; |1405| 
         0009e1 08   
    2440 0009e2       $C$L84:    
    2441                      .dwpsn  file "../c5535_bsl_revc/ezdsp5535_v1/c55xx_csl/src/csl_mmcsd.c",line 1408,column 2,is_stmt
    2442 0009e2 ED0C          MOV dbl(*SP(#6)), AC0 ; |1408| 
         0009e4 08   
    2443                      .dwpsn  file "../c5535_bsl_revc/ezdsp5535_v1/c55xx_csl/src/csl_mmcsd.c",line 1409,column 1,is_stmt
TMS320C55x Assembler PC v4.4.1 Fri Sep 14 03:54:38 2018

Tools Copyright (c) 1996-2012 Texas Instruments Incorporated
csl_mmcsd.asm                                                        PAGE   57

    2444 0009e5 4E09          AADD #9, SP
    2445                      .dwcfi  cfa_offset, 1
    2446              $C$DW$117       .dwtag  DW_TAG_TI_branch
    2447                      .dwattr $C$DW$117, DW_AT_low_pc(0x00)
    2448                      .dwattr $C$DW$117, DW_AT_TI_return
    2449 0009e7 4804          RET
    2450                                                      ; return occurs
    2451                      .dwattr $C$DW$109, DW_AT_TI_end_file("../c5535_bsl_revc/ezdsp5535_v1/c55xx_csl/src/csl_mmcsd.c")
    2452                      .dwattr $C$DW$109, DW_AT_TI_end_line(0x581)
    2453                      .dwattr $C$DW$109, DW_AT_TI_end_column(0x01)
    2454                      .dwendentry
    2455                      .dwendtag $C$DW$109
    2456              
    2457 0009e9               .sect   ".text"
    2458                      .align 4
    2459                      .global _MMC_setupNative
    2460              
    2461              $C$DW$118       .dwtag  DW_TAG_subprogram, DW_AT_name("MMC_setupNative")
    2462                      .dwattr $C$DW$118, DW_AT_low_pc(_MMC_setupNative)
    2463                      .dwattr $C$DW$118, DW_AT_high_pc(0x00)
    2464                      .dwattr $C$DW$118, DW_AT_TI_symbol_name("_MMC_setupNative")
    2465                      .dwattr $C$DW$118, DW_AT_external
    2466                      .dwattr $C$DW$118, DW_AT_type(*$C$DW$T$116)
    2467                      .dwattr $C$DW$118, DW_AT_TI_begin_file("../c5535_bsl_revc/ezdsp5535_v1/c55xx_csl/src/csl_mmcsd.c")
    2468                      .dwattr $C$DW$118, DW_AT_TI_begin_line(0x5b6)
    2469                      .dwattr $C$DW$118, DW_AT_TI_begin_column(0x0c)
    2470                      .dwattr $C$DW$118, DW_AT_TI_max_frame_size(0x06)
    2471                      .dwpsn  file "../c5535_bsl_revc/ezdsp5535_v1/c55xx_csl/src/csl_mmcsd.c",line 1464,column 1,is_stmt,ad
    2472              
    2473                      .dwfde $C$DW$CIE, _MMC_setupNative
    2474              $C$DW$119       .dwtag  DW_TAG_formal_parameter, DW_AT_name("hMmcsd")
    2475                      .dwattr $C$DW$119, DW_AT_TI_symbol_name("_hMmcsd")
    2476                      .dwattr $C$DW$119, DW_AT_type(*$C$DW$T$114)
    2477                      .dwattr $C$DW$119, DW_AT_location[DW_OP_reg17]
    2478              $C$DW$120       .dwtag  DW_TAG_formal_parameter, DW_AT_name("pMmcInit")
    2479                      .dwattr $C$DW$120, DW_AT_TI_symbol_name("_pMmcInit")
    2480                      .dwattr $C$DW$120, DW_AT_type(*$C$DW$T$120)
    2481                      .dwattr $C$DW$120, DW_AT_location[DW_OP_reg19]
    2482              ;*******************************************************************************
    2483              ;* FUNCTION NAME: MMC_setupNative                                              *
    2484              ;*                                                                             *
    2485              ;*   Function Uses Regs : AC0,AC0,AC1,AC1,T0,AR0,XAR0,AR1,XAR1,AR2,AR3,XAR3,SP,*
    2486              ;*                        CARRY,TC1,M40,SATA,SATD,RDM,FRCT,SMUL                *
    2487              ;*   Stack Frame        : Compact (No Frame Pointer, w/ debug)                 *
    2488              ;*   Total Frame Size   : 6 words                                              *
    2489              ;*                        (2 return address/alignment)                         *
    2490              ;*                        (4 local values)                                     *
    2491              ;*   Min System Stack   : 1 word                                               *
    2492              ;*******************************************************************************
    2493 0009ec       _MMC_setupNative:
    2494                      .dwcfi  cfa_offset, 1
    2495                      .dwcfi  save_reg_to_mem, 91, -1
    2496 0009ec 4EFB          AADD #-5, SP
    2497                      .dwcfi  cfa_offset, 6
    2498              $C$DW$121       .dwtag  DW_TAG_variable, DW_AT_name("hMmcsd")
TMS320C55x Assembler PC v4.4.1 Fri Sep 14 03:54:38 2018

Tools Copyright (c) 1996-2012 Texas Instruments Incorporated
csl_mmcsd.asm                                                        PAGE   58

    2499                      .dwattr $C$DW$121, DW_AT_TI_symbol_name("_hMmcsd")
    2500                      .dwattr $C$DW$121, DW_AT_type(*$C$DW$T$114)
    2501                      .dwattr $C$DW$121, DW_AT_location[DW_OP_bregx 0x24 0]
    2502              $C$DW$122       .dwtag  DW_TAG_variable, DW_AT_name("pMmcInit")
    2503                      .dwattr $C$DW$122, DW_AT_TI_symbol_name("_pMmcInit")
    2504                      .dwattr $C$DW$122, DW_AT_type(*$C$DW$T$120)
    2505                      .dwattr $C$DW$122, DW_AT_location[DW_OP_bregx 0x24 2]
    2506 0009ee EB04          MOV XAR1, dbl(*SP(#2))
         0009f0 95   
    2507 0009f1 EB00          MOV XAR0, dbl(*SP(#0))
         0009f3 85   
    2508                      .dwpsn  file "../c5535_bsl_revc/ezdsp5535_v1/c55xx_csl/src/csl_mmcsd.c",line 1467,column 5,is_stmt
    2509 0009f4 ED00          MOV dbl(*SP(#0)), XAR3
         0009f6 BF   
    2510              
    2511 0009f7 90B0          MOV XAR3, AC0
    2512 0009f9 3D01  ||      MOV #0, AC1 ; |1467| 
    2513              
    2514 0009fb 121C          CMPU AC1 != AC0, TC1 ; |1467| 
         0009fd 04   
    2515 0009fe 62E4          BCC $C$L85,TC1 ; |1467| 
    2516                                                      ; branchcc occurs ; |1467| 
    2517                      .dwpsn  file "../c5535_bsl_revc/ezdsp5535_v1/c55xx_csl/src/csl_mmcsd.c",line 1469,column 9,is_stmt
    2518 000a00 3E54          MOV #-5, T0
    2519 000a02 0600          B $C$L87  ; |1469| 
         000a04 94   
    2520                                                      ; branch occurs ; |1469| 
    2521 000a05       $C$L85:    
    2522                      .dwpsn  file "../c5535_bsl_revc/ezdsp5535_v1/c55xx_csl/src/csl_mmcsd.c",line 1473,column 9,is_stmt
    2523 000a05 ED04          MOV dbl(*SP(#2)), XAR3
         000a07 BF   
    2524 000a08 90B0          MOV XAR3, AC0
    2525 000a0a 121C          CMPU AC1 != AC0, TC1 ; |1473| 
         000a0c 04   
    2526 000a0d 62E4          BCC $C$L86,TC1 ; |1473| 
    2527                                                      ; branchcc occurs ; |1473| 
    2528                      .dwpsn  file "../c5535_bsl_revc/ezdsp5535_v1/c55xx_csl/src/csl_mmcsd.c",line 1475,column 13,is_stmt
    2529 000a0f 3E64          MOV #-6, T0
    2530 000a11 0600          B $C$L87  ; |1475| 
         000a13 85   
    2531                                                      ; branch occurs ; |1475| 
    2532 000a14       $C$L86:    
    2533                      .dwpsn  file "../c5535_bsl_revc/ezdsp5535_v1/c55xx_csl/src/csl_mmcsd.c",line 1484,column 13,is_stmt
    2534 000a14 ED00          MOV dbl(*SP(#0)), XAR3
         000a16 BF   
    2535 000a17 AB61          MOV *AR3, AR3 ; |1484| 
    2536 000a19 A979          MOV port(*AR3(short(#4))), AR1 ; |1484| 
         000a1b 99   
    2537 000a1c ED00          MOV dbl(*SP(#0)), XAR3
         000a1e BF   
    2538 000a1f AB61          MOV *AR3, AR3 ; |1484| 
    2539 000a21 EC10          BCLR @#8, AR1 ; |1484| 
         000a23 92   
    2540 000a24 C979          MOV AR1, port(*AR3(short(#4))) ; |1484| 
         000a26 9A   
TMS320C55x Assembler PC v4.4.1 Fri Sep 14 03:54:38 2018

Tools Copyright (c) 1996-2012 Texas Instruments Incorporated
csl_mmcsd.asm                                                        PAGE   59

    2541                      .dwpsn  file "../c5535_bsl_revc/ezdsp5535_v1/c55xx_csl/src/csl_mmcsd.c",line 1485,column 13,is_stmt
    2542 000a27 ED00          MOV dbl(*SP(#0)), XAR3
         000a29 BF   
    2543 000a2a AB61          MOV *AR3, AR3 ; |1485| 
    2544 000a2c A979          MOV port(*AR3(short(#4))), AR1 ; |1485| 
         000a2e 99   
    2545 000a2f ED04          MOV dbl(*SP(#2)), XAR3
         000a31 BF   
    2546 000a32 7DFF          AND #0xff00, AR1, AR2 ; |1485| 
         000a34 00A9 
    2547 000a36 DF77          MOV uns(low_byte(*AR3(short(#3)))), AR1 ; |1485| 
         000a38 93   
    2548 000a39 ED00          MOV dbl(*SP(#0)), XAR3
         000a3b BF   
    2549 000a3c AB61          MOV *AR3, AR3 ; |1485| 
    2550 000a3e 2AA9          OR AR2, AR1 ; |1485| 
    2551 000a40 C979          MOV AR1, port(*AR3(short(#4))) ; |1485| 
         000a42 9A   
    2552                      .dwpsn  file "../c5535_bsl_revc/ezdsp5535_v1/c55xx_csl/src/csl_mmcsd.c",line 1487,column 13,is_stmt
    2553 000a43 ED00          MOV dbl(*SP(#0)), XAR3
         000a45 BF   
    2554 000a46 AB61          MOV *AR3, AR3 ; |1487| 
    2555 000a48 A979          MOV port(*AR3(short(#4))), AR1 ; |1487| 
         000a4a 99   
    2556 000a4b ED04          MOV dbl(*SP(#2)), XAR3
         000a4d BF   
    2557 000a4e A073          MOV *AR3(short(#1)), AC0 ; |1487| 
    2558 000a50 ED00          MOV dbl(*SP(#0)), XAR3
         000a52 BF   
    2559 000a53 AB61          MOV *AR3, AR3 ; |1487| 
    2560              
    2561 000a55 7DFF          AND #0xff3f, AR1, AR1 ; |1487| 
         000a57 3F99 
    2562 000a59 1107  ||      SFTL AC0, #6, AC0 ; |1487| 
         000a5b 06   
    2563              
    2564 000a5c 18C0          AND #0x00c0, AC0, AR2 ; |1487| 
         000a5e A0   
    2565 000a5f 2A9A          OR AR1, AR2 ; |1487| 
    2566 000a61 CA79          MOV AR2, port(*AR3(short(#4))) ; |1487| 
         000a63 9A   
    2567                      .dwpsn  file "../c5535_bsl_revc/ezdsp5535_v1/c55xx_csl/src/csl_mmcsd.c",line 1490,column 13,is_stmt
    2568 000a64 ED04          MOV dbl(*SP(#2)), XAR3
         000a66 BF   
    2569 000a67 A979          MOV *AR3(short(#4)), AR1 ; |1490| 
    2570 000a69 ED00          MOV dbl(*SP(#0)), XAR3
         000a6b BF   
    2571 000a6c 7600          MOV #20, T0 ; |1490| 
         000a6e 1448 
    2572 000a70 AB61          MOV *AR3, AR3 ; |1490| 
    2573 000a72 C96B          MOV AR1, port(*AR3(T0)) ; |1490| 
         000a74 9A   
    2574                      .dwpsn  file "../c5535_bsl_revc/ezdsp5535_v1/c55xx_csl/src/csl_mmcsd.c",line 1491,column 13,is_stmt
    2575 000a75 ED04          MOV dbl(*SP(#2)), XAR3
         000a77 BF   
TMS320C55x Assembler PC v4.4.1 Fri Sep 14 03:54:38 2018

Tools Copyright (c) 1996-2012 Texas Instruments Incorporated
csl_mmcsd.asm                                                        PAGE   60

    2576 000a78 A97B          MOV *AR3(short(#5)), AR1 ; |1491| 
    2577 000a7a ED00          MOV dbl(*SP(#0)), XAR3
         000a7c BF   
    2578 000a7d 7600          MOV #24, T0 ; |1491| 
         000a7f 1848 
    2579 000a81 AB61          MOV *AR3, AR3 ; |1491| 
    2580 000a83 C96B          MOV AR1, port(*AR3(T0)) ; |1491| 
         000a85 9A   
    2581                      .dwpsn  file "../c5535_bsl_revc/ezdsp5535_v1/c55xx_csl/src/csl_mmcsd.c",line 1492,column 13,is_stmt
    2582 000a86 ED04          MOV dbl(*SP(#2)), XAR3
         000a88 BF   
    2583 000a89 A97D          MOV *AR3(short(#6)), AR1 ; |1492| 
    2584 000a8b ED00          MOV dbl(*SP(#0)), XAR3
         000a8d BF   
    2585 000a8e 7600          MOV #28, T0 ; |1492| 
         000a90 1C48 
    2586 000a92 AB61          MOV *AR3, AR3 ; |1492| 
    2587 000a94 C96B          MOV AR1, port(*AR3(T0)) ; |1492| 
         000a96 9A   
    2588                      .dwpsn  file "../c5535_bsl_revc/ezdsp5535_v1/c55xx_csl/src/csl_mmcsd.c",line 1494,column 13,is_stmt
    2589 000a97 3C04          MOV #0, T0
    2590 000a99       $C$L87:    
    2591                      .dwpsn  file "../c5535_bsl_revc/ezdsp5535_v1/c55xx_csl/src/csl_mmcsd.c",line 1497,column 1,is_stmt
    2592 000a99 4E05          AADD #5, SP
    2593                      .dwcfi  cfa_offset, 1
    2594              $C$DW$123       .dwtag  DW_TAG_TI_branch
    2595                      .dwattr $C$DW$123, DW_AT_low_pc(0x00)
    2596                      .dwattr $C$DW$123, DW_AT_TI_return
    2597 000a9b 4804          RET
    2598                                                      ; return occurs
    2599                      .dwattr $C$DW$118, DW_AT_TI_end_file("../c5535_bsl_revc/ezdsp5535_v1/c55xx_csl/src/csl_mmcsd.c")
    2600                      .dwattr $C$DW$118, DW_AT_TI_end_line(0x5d9)
    2601                      .dwattr $C$DW$118, DW_AT_TI_end_column(0x01)
    2602                      .dwendentry
    2603                      .dwendtag $C$DW$118
    2604              
    2605 000a9d               .sect   ".text"
    2606                      .align 4
    2607                      .global _MMC_config
    2608              
    2609              $C$DW$124       .dwtag  DW_TAG_subprogram, DW_AT_name("MMC_config")
    2610                      .dwattr $C$DW$124, DW_AT_low_pc(_MMC_config)
    2611                      .dwattr $C$DW$124, DW_AT_high_pc(0x00)
    2612                      .dwattr $C$DW$124, DW_AT_TI_symbol_name("_MMC_config")
    2613                      .dwattr $C$DW$124, DW_AT_external
    2614                      .dwattr $C$DW$124, DW_AT_type(*$C$DW$T$116)
    2615                      .dwattr $C$DW$124, DW_AT_TI_begin_file("../c5535_bsl_revc/ezdsp5535_v1/c55xx_csl/src/csl_mmcsd.c")
    2616                      .dwattr $C$DW$124, DW_AT_TI_begin_line(0x610)
    2617                      .dwattr $C$DW$124, DW_AT_TI_begin_column(0x0c)
    2618                      .dwattr $C$DW$124, DW_AT_TI_max_frame_size(0x06)
    2619                      .dwpsn  file "../c5535_bsl_revc/ezdsp5535_v1/c55xx_csl/src/csl_mmcsd.c",line 1554,column 1,is_stmt,ad
    2620              
    2621                      .dwfde $C$DW$CIE, _MMC_config
    2622              $C$DW$125       .dwtag  DW_TAG_formal_parameter, DW_AT_name("hMmcsd")
    2623                      .dwattr $C$DW$125, DW_AT_TI_symbol_name("_hMmcsd")
TMS320C55x Assembler PC v4.4.1 Fri Sep 14 03:54:38 2018

Tools Copyright (c) 1996-2012 Texas Instruments Incorporated
csl_mmcsd.asm                                                        PAGE   61

    2624                      .dwattr $C$DW$125, DW_AT_type(*$C$DW$T$114)
    2625                      .dwattr $C$DW$125, DW_AT_location[DW_OP_reg17]
    2626              $C$DW$126       .dwtag  DW_TAG_formal_parameter, DW_AT_name("pMmcConfig")
    2627                      .dwattr $C$DW$126, DW_AT_TI_symbol_name("_pMmcConfig")
    2628                      .dwattr $C$DW$126, DW_AT_type(*$C$DW$T$122)
    2629                      .dwattr $C$DW$126, DW_AT_location[DW_OP_reg19]
    2630              ;*******************************************************************************
    2631              ;* FUNCTION NAME: MMC_config                                                   *
    2632              ;*                                                                             *
    2633              ;*   Function Uses Regs : AC0,AC0,AC1,AC1,T0,AR0,XAR0,AR1,XAR1,AR3,XAR3,SP,TC1,*
    2634              ;*                        M40,SATA,SATD,RDM,FRCT,SMUL                          *
    2635              ;*   Stack Frame        : Compact (No Frame Pointer, w/ debug)                 *
    2636              ;*   Total Frame Size   : 6 words                                              *
    2637              ;*                        (2 return address/alignment)                         *
    2638              ;*                        (4 local values)                                     *
    2639              ;*   Min System Stack   : 1 word                                               *
    2640              ;*******************************************************************************
    2641 000aa0       _MMC_config:
    2642                      .dwcfi  cfa_offset, 1
    2643                      .dwcfi  save_reg_to_mem, 91, -1
    2644 000aa0 4EFB          AADD #-5, SP
    2645                      .dwcfi  cfa_offset, 6
    2646              $C$DW$127       .dwtag  DW_TAG_variable, DW_AT_name("hMmcsd")
    2647                      .dwattr $C$DW$127, DW_AT_TI_symbol_name("_hMmcsd")
    2648                      .dwattr $C$DW$127, DW_AT_type(*$C$DW$T$114)
    2649                      .dwattr $C$DW$127, DW_AT_location[DW_OP_bregx 0x24 0]
    2650              $C$DW$128       .dwtag  DW_TAG_variable, DW_AT_name("pMmcConfig")
    2651                      .dwattr $C$DW$128, DW_AT_TI_symbol_name("_pMmcConfig")
    2652                      .dwattr $C$DW$128, DW_AT_type(*$C$DW$T$122)
    2653                      .dwattr $C$DW$128, DW_AT_location[DW_OP_bregx 0x24 2]
    2654 000aa2 EB04          MOV XAR1, dbl(*SP(#2))
         000aa4 95   
    2655 000aa5 EB00          MOV XAR0, dbl(*SP(#0))
         000aa7 85   
    2656                      .dwpsn  file "../c5535_bsl_revc/ezdsp5535_v1/c55xx_csl/src/csl_mmcsd.c",line 1555,column 5,is_stmt
    2657 000aa8 ED00          MOV dbl(*SP(#0)), XAR3
         000aaa BF   
    2658              
    2659 000aab 90B0          MOV XAR3, AC0
    2660 000aad 3D01  ||      MOV #0, AC1 ; |1555| 
    2661              
    2662 000aaf 121C          CMPU AC1 != AC0, TC1 ; |1555| 
         000ab1 04   
    2663 000ab2 62E4          BCC $C$L88,TC1 ; |1555| 
    2664                                                      ; branchcc occurs ; |1555| 
    2665                      .dwpsn  file "../c5535_bsl_revc/ezdsp5535_v1/c55xx_csl/src/csl_mmcsd.c",line 1557,column 9,is_stmt
    2666 000ab4 3E54          MOV #-5, T0
    2667 000ab6 0600          B $C$L90  ; |1557| 
         000ab8 7D   
    2668                                                      ; branch occurs ; |1557| 
    2669 000ab9       $C$L88:    
    2670                      .dwpsn  file "../c5535_bsl_revc/ezdsp5535_v1/c55xx_csl/src/csl_mmcsd.c",line 1561,column 9,is_stmt
    2671 000ab9 ED04          MOV dbl(*SP(#2)), XAR3
         000abb BF   
    2672 000abc 90B0          MOV XAR3, AC0
TMS320C55x Assembler PC v4.4.1 Fri Sep 14 03:54:38 2018

Tools Copyright (c) 1996-2012 Texas Instruments Incorporated
csl_mmcsd.asm                                                        PAGE   62

    2673 000abe 121C          CMPU AC1 != AC0, TC1 ; |1561| 
         000ac0 04   
    2674 000ac1 62E4          BCC $C$L89,TC1 ; |1561| 
    2675                                                      ; branchcc occurs ; |1561| 
    2676                      .dwpsn  file "../c5535_bsl_revc/ezdsp5535_v1/c55xx_csl/src/csl_mmcsd.c",line 1563,column 13,is_stmt
    2677 000ac3 3E64          MOV #-6, T0
    2678 000ac5 0600          B $C$L90  ; |1563| 
         000ac7 6E   
    2679                                                      ; branch occurs ; |1563| 
    2680 000ac8       $C$L89:    
    2681                      .dwpsn  file "../c5535_bsl_revc/ezdsp5535_v1/c55xx_csl/src/csl_mmcsd.c",line 1567,column 13,is_stmt
    2682 000ac8 A961          MOV *AR3, AR1 ; |1567| 
    2683 000aca ED00          MOV dbl(*SP(#0)), XAR3
         000acc BF   
    2684 000acd AB61          MOV *AR3, AR3 ; |1567| 
    2685 000acf C961          MOV AR1, port(*AR3) ; |1567| 
         000ad1 9A   
    2686                      .dwpsn  file "../c5535_bsl_revc/ezdsp5535_v1/c55xx_csl/src/csl_mmcsd.c",line 1568,column 13,is_stmt
    2687 000ad2 ED04          MOV dbl(*SP(#2)), XAR3
         000ad4 BF   
    2688 000ad5 A973          MOV *AR3(short(#1)), AR1 ; |1568| 
    2689 000ad7 ED00          MOV dbl(*SP(#0)), XAR3
         000ad9 BF   
    2690 000ada AB61          MOV *AR3, AR3 ; |1568| 
    2691 000adc C979          MOV AR1, port(*AR3(short(#4))) ; |1568| 
         000ade 9A   
    2692                      .dwpsn  file "../c5535_bsl_revc/ezdsp5535_v1/c55xx_csl/src/csl_mmcsd.c",line 1569,column 13,is_stmt
    2693 000adf ED04          MOV dbl(*SP(#2)), XAR3
         000ae1 BF   
    2694 000ae2 A975          MOV *AR3(short(#2)), AR1 ; |1569| 
    2695 000ae4 ED00          MOV dbl(*SP(#0)), XAR3
         000ae6 BF   
    2696 000ae7 7600          MOV #16, T0 ; |1569| 
         000ae9 1048 
    2697 000aeb AB61          MOV *AR3, AR3 ; |1569| 
    2698 000aed C96B          MOV AR1, port(*AR3(T0)) ; |1569| 
         000aef 9A   
    2699                      .dwpsn  file "../c5535_bsl_revc/ezdsp5535_v1/c55xx_csl/src/csl_mmcsd.c",line 1570,column 13,is_stmt
    2700 000af0 ED04          MOV dbl(*SP(#2)), XAR3
         000af2 BF   
    2701 000af3 A977          MOV *AR3(short(#3)), AR1 ; |1570| 
    2702 000af5 ED00          MOV dbl(*SP(#0)), XAR3
         000af7 BF   
    2703 000af8 7600          MOV #20, T0 ; |1570| 
         000afa 1448 
    2704 000afc AB61          MOV *AR3, AR3 ; |1570| 
    2705 000afe C96B          MOV AR1, port(*AR3(T0)) ; |1570| 
         000b00 9A   
    2706                      .dwpsn  file "../c5535_bsl_revc/ezdsp5535_v1/c55xx_csl/src/csl_mmcsd.c",line 1571,column 13,is_stmt
    2707 000b01 ED04          MOV dbl(*SP(#2)), XAR3
         000b03 BF   
    2708 000b04 A979          MOV *AR3(short(#4)), AR1 ; |1571| 
    2709 000b06 ED00          MOV dbl(*SP(#0)), XAR3
         000b08 BF   
    2710 000b09 7600          MOV #24, T0 ; |1571| 
TMS320C55x Assembler PC v4.4.1 Fri Sep 14 03:54:38 2018

Tools Copyright (c) 1996-2012 Texas Instruments Incorporated
csl_mmcsd.asm                                                        PAGE   63

         000b0b 1848 
    2711 000b0d AB61          MOV *AR3, AR3 ; |1571| 
    2712 000b0f C96B          MOV AR1, port(*AR3(T0)) ; |1571| 
         000b11 9A   
    2713                      .dwpsn  file "../c5535_bsl_revc/ezdsp5535_v1/c55xx_csl/src/csl_mmcsd.c",line 1572,column 13,is_stmt
    2714 000b12 ED04          MOV dbl(*SP(#2)), XAR3
         000b14 BF   
    2715 000b15 A97B          MOV *AR3(short(#5)), AR1 ; |1572| 
    2716 000b17 ED00          MOV dbl(*SP(#0)), XAR3
         000b19 BF   
    2717 000b1a 7600          MOV #28, T0 ; |1572| 
         000b1c 1C48 
    2718 000b1e AB61          MOV *AR3, AR3 ; |1572| 
    2719 000b20 C96B          MOV AR1, port(*AR3(T0)) ; |1572| 
         000b22 9A   
    2720                      .dwpsn  file "../c5535_bsl_revc/ezdsp5535_v1/c55xx_csl/src/csl_mmcsd.c",line 1573,column 13,is_stmt
    2721 000b23 ED04          MOV dbl(*SP(#2)), XAR3
         000b25 BF   
    2722 000b26 A97D          MOV *AR3(short(#6)), AR1 ; |1573| 
    2723 000b28 ED00          MOV dbl(*SP(#0)), XAR3
         000b2a BF   
    2724 000b2b 7600          MOV #32, T0 ; |1573| 
         000b2d 2048 
    2725 000b2f AB61          MOV *AR3, AR3 ; |1573| 
    2726 000b31 C96B          MOV AR1, port(*AR3(T0)) ; |1573| 
         000b33 9A   
    2727                      .dwpsn  file "../c5535_bsl_revc/ezdsp5535_v1/c55xx_csl/src/csl_mmcsd.c",line 1574,column 13,is_stmt
    2728 000b34 3C04          MOV #0, T0
    2729 000b36       $C$L90:    
    2730                      .dwpsn  file "../c5535_bsl_revc/ezdsp5535_v1/c55xx_csl/src/csl_mmcsd.c",line 1577,column 1,is_stmt
    2731 000b36 4E05          AADD #5, SP
    2732                      .dwcfi  cfa_offset, 1
    2733              $C$DW$129       .dwtag  DW_TAG_TI_branch
    2734                      .dwattr $C$DW$129, DW_AT_low_pc(0x00)
    2735                      .dwattr $C$DW$129, DW_AT_TI_return
    2736 000b38 4804          RET
    2737                                                      ; return occurs
    2738                      .dwattr $C$DW$124, DW_AT_TI_end_file("../c5535_bsl_revc/ezdsp5535_v1/c55xx_csl/src/csl_mmcsd.c")
    2739                      .dwattr $C$DW$124, DW_AT_TI_end_line(0x629)
    2740                      .dwattr $C$DW$124, DW_AT_TI_end_column(0x01)
    2741                      .dwendentry
    2742                      .dwendtag $C$DW$124
    2743              
    2744 000b3a               .sect   ".text"
    2745                      .align 4
    2746                      .global _MMC_getConfig
    2747              
    2748              $C$DW$130       .dwtag  DW_TAG_subprogram, DW_AT_name("MMC_getConfig")
    2749                      .dwattr $C$DW$130, DW_AT_low_pc(_MMC_getConfig)
    2750                      .dwattr $C$DW$130, DW_AT_high_pc(0x00)
    2751                      .dwattr $C$DW$130, DW_AT_TI_symbol_name("_MMC_getConfig")
    2752                      .dwattr $C$DW$130, DW_AT_external
    2753                      .dwattr $C$DW$130, DW_AT_type(*$C$DW$T$116)
    2754                      .dwattr $C$DW$130, DW_AT_TI_begin_file("../c5535_bsl_revc/ezdsp5535_v1/c55xx_csl/src/csl_mmcsd.c")
    2755                      .dwattr $C$DW$130, DW_AT_TI_begin_line(0x657)
TMS320C55x Assembler PC v4.4.1 Fri Sep 14 03:54:38 2018

Tools Copyright (c) 1996-2012 Texas Instruments Incorporated
csl_mmcsd.asm                                                        PAGE   64

    2756                      .dwattr $C$DW$130, DW_AT_TI_begin_column(0x0c)
    2757                      .dwattr $C$DW$130, DW_AT_TI_max_frame_size(0x06)
    2758                      .dwpsn  file "../c5535_bsl_revc/ezdsp5535_v1/c55xx_csl/src/csl_mmcsd.c",line 1625,column 1,is_stmt,ad
    2759              
    2760                      .dwfde $C$DW$CIE, _MMC_getConfig
    2761              $C$DW$131       .dwtag  DW_TAG_formal_parameter, DW_AT_name("hMmcsd")
    2762                      .dwattr $C$DW$131, DW_AT_TI_symbol_name("_hMmcsd")
    2763                      .dwattr $C$DW$131, DW_AT_type(*$C$DW$T$114)
    2764                      .dwattr $C$DW$131, DW_AT_location[DW_OP_reg17]
    2765              $C$DW$132       .dwtag  DW_TAG_formal_parameter, DW_AT_name("pMmcConfig")
    2766                      .dwattr $C$DW$132, DW_AT_TI_symbol_name("_pMmcConfig")
    2767                      .dwattr $C$DW$132, DW_AT_type(*$C$DW$T$122)
    2768                      .dwattr $C$DW$132, DW_AT_location[DW_OP_reg19]
    2769              ;*******************************************************************************
    2770              ;* FUNCTION NAME: MMC_getConfig                                                *
    2771              ;*                                                                             *
    2772              ;*   Function Uses Regs : AC0,AC0,AC1,AC1,T0,AR0,XAR0,AR1,XAR1,AR3,XAR3,SP,TC1,*
    2773              ;*                        M40,SATA,SATD,RDM,FRCT,SMUL                          *
    2774              ;*   Stack Frame        : Compact (No Frame Pointer, w/ debug)                 *
    2775              ;*   Total Frame Size   : 6 words                                              *
    2776              ;*                        (2 return address/alignment)                         *
    2777              ;*                        (4 local values)                                     *
    2778              ;*   Min System Stack   : 1 word                                               *
    2779              ;*******************************************************************************
    2780 000b3c       _MMC_getConfig:
    2781                      .dwcfi  cfa_offset, 1
    2782                      .dwcfi  save_reg_to_mem, 91, -1
    2783 000b3c 4EFB          AADD #-5, SP
    2784                      .dwcfi  cfa_offset, 6
    2785              $C$DW$133       .dwtag  DW_TAG_variable, DW_AT_name("hMmcsd")
    2786                      .dwattr $C$DW$133, DW_AT_TI_symbol_name("_hMmcsd")
    2787                      .dwattr $C$DW$133, DW_AT_type(*$C$DW$T$114)
    2788                      .dwattr $C$DW$133, DW_AT_location[DW_OP_bregx 0x24 0]
    2789              $C$DW$134       .dwtag  DW_TAG_variable, DW_AT_name("pMmcConfig")
    2790                      .dwattr $C$DW$134, DW_AT_TI_symbol_name("_pMmcConfig")
    2791                      .dwattr $C$DW$134, DW_AT_type(*$C$DW$T$122)
    2792                      .dwattr $C$DW$134, DW_AT_location[DW_OP_bregx 0x24 2]
    2793 000b3e EB04          MOV XAR1, dbl(*SP(#2))
         000b40 95   
    2794 000b41 EB00          MOV XAR0, dbl(*SP(#0))
         000b43 85   
    2795                      .dwpsn  file "../c5535_bsl_revc/ezdsp5535_v1/c55xx_csl/src/csl_mmcsd.c",line 1626,column 5,is_stmt
    2796 000b44 ED00          MOV dbl(*SP(#0)), XAR3
         000b46 BF   
    2797              
    2798 000b47 90B0          MOV XAR3, AC0
    2799 000b49 3D01  ||      MOV #0, AC1 ; |1626| 
    2800              
    2801 000b4b 121C          CMPU AC1 != AC0, TC1 ; |1626| 
         000b4d 04   
    2802 000b4e 62E4          BCC $C$L91,TC1 ; |1626| 
    2803                                                      ; branchcc occurs ; |1626| 
    2804                      .dwpsn  file "../c5535_bsl_revc/ezdsp5535_v1/c55xx_csl/src/csl_mmcsd.c",line 1628,column 9,is_stmt
    2805 000b50 3E54          MOV #-5, T0
    2806 000b52 0600          B $C$L93  ; |1628| 
TMS320C55x Assembler PC v4.4.1 Fri Sep 14 03:54:38 2018

Tools Copyright (c) 1996-2012 Texas Instruments Incorporated
csl_mmcsd.asm                                                        PAGE   65

         000b54 80   
    2807                                                      ; branch occurs ; |1628| 
    2808 000b55       $C$L91:    
    2809                      .dwpsn  file "../c5535_bsl_revc/ezdsp5535_v1/c55xx_csl/src/csl_mmcsd.c",line 1632,column 9,is_stmt
    2810 000b55 ED04          MOV dbl(*SP(#2)), XAR3
         000b57 BF   
    2811 000b58 90B0          MOV XAR3, AC0
    2812 000b5a 121C          CMPU AC1 != AC0, TC1 ; |1632| 
         000b5c 04   
    2813 000b5d 62E4          BCC $C$L92,TC1 ; |1632| 
    2814                                                      ; branchcc occurs ; |1632| 
    2815                      .dwpsn  file "../c5535_bsl_revc/ezdsp5535_v1/c55xx_csl/src/csl_mmcsd.c",line 1634,column 13,is_stmt
    2816 000b5f 3E64          MOV #-6, T0
    2817 000b61 0600          B $C$L93  ; |1634| 
         000b63 71   
    2818                                                      ; branch occurs ; |1634| 
    2819 000b64       $C$L92:    
    2820                      .dwpsn  file "../c5535_bsl_revc/ezdsp5535_v1/c55xx_csl/src/csl_mmcsd.c",line 1638,column 13,is_stmt
    2821 000b64 ED00          MOV dbl(*SP(#0)), XAR3
         000b66 BF   
    2822 000b67 AB61          MOV *AR3, AR3 ; |1638| 
    2823 000b69 A961          MOV port(*AR3), AR1 ; |1638| 
         000b6b 99   
    2824 000b6c ED04          MOV dbl(*SP(#2)), XAR3
         000b6e BF   
    2825 000b6f C961          MOV AR1, *AR3 ; |1638| 
    2826                      .dwpsn  file "../c5535_bsl_revc/ezdsp5535_v1/c55xx_csl/src/csl_mmcsd.c",line 1639,column 13,is_stmt
    2827 000b71 ED00          MOV dbl(*SP(#0)), XAR3
         000b73 BF   
    2828 000b74 AB61          MOV *AR3, AR3 ; |1639| 
    2829 000b76 A979          MOV port(*AR3(short(#4))), AR1 ; |1639| 
         000b78 99   
    2830 000b79 ED04          MOV dbl(*SP(#2)), XAR3
         000b7b BF   
    2831 000b7c C973          MOV AR1, *AR3(short(#1)) ; |1639| 
    2832                      .dwpsn  file "../c5535_bsl_revc/ezdsp5535_v1/c55xx_csl/src/csl_mmcsd.c",line 1640,column 13,is_stmt
    2833 000b7e ED00          MOV dbl(*SP(#0)), XAR3
         000b80 BF   
    2834 000b81 7600          MOV #16, T0 ; |1640| 
         000b83 1048 
    2835 000b85 AB61          MOV *AR3, AR3 ; |1640| 
    2836 000b87 A96B          MOV port(*AR3(T0)), AR1 ; |1640| 
         000b89 99   
    2837 000b8a ED04          MOV dbl(*SP(#2)), XAR3
         000b8c BF   
    2838 000b8d C975          MOV AR1, *AR3(short(#2)) ; |1640| 
    2839                      .dwpsn  file "../c5535_bsl_revc/ezdsp5535_v1/c55xx_csl/src/csl_mmcsd.c",line 1641,column 13,is_stmt
    2840 000b8f ED00          MOV dbl(*SP(#0)), XAR3
         000b91 BF   
    2841 000b92 7600          MOV #20, T0 ; |1641| 
         000b94 1448 
    2842 000b96 AB61          MOV *AR3, AR3 ; |1641| 
    2843 000b98 A96B          MOV port(*AR3(T0)), AR1 ; |1641| 
         000b9a 99   
    2844 000b9b ED04          MOV dbl(*SP(#2)), XAR3
TMS320C55x Assembler PC v4.4.1 Fri Sep 14 03:54:38 2018

Tools Copyright (c) 1996-2012 Texas Instruments Incorporated
csl_mmcsd.asm                                                        PAGE   66

         000b9d BF   
    2845 000b9e C977          MOV AR1, *AR3(short(#3)) ; |1641| 
    2846                      .dwpsn  file "../c5535_bsl_revc/ezdsp5535_v1/c55xx_csl/src/csl_mmcsd.c",line 1642,column 13,is_stmt
    2847 000ba0 ED00          MOV dbl(*SP(#0)), XAR3
         000ba2 BF   
    2848 000ba3 7600          MOV #24, T0 ; |1642| 
         000ba5 1848 
    2849 000ba7 AB61          MOV *AR3, AR3 ; |1642| 
    2850 000ba9 A96B          MOV port(*AR3(T0)), AR1 ; |1642| 
         000bab 99   
    2851 000bac ED04          MOV dbl(*SP(#2)), XAR3
         000bae BF   
    2852 000baf C979          MOV AR1, *AR3(short(#4)) ; |1642| 
    2853                      .dwpsn  file "../c5535_bsl_revc/ezdsp5535_v1/c55xx_csl/src/csl_mmcsd.c",line 1643,column 13,is_stmt
    2854 000bb1 ED00          MOV dbl(*SP(#0)), XAR3
         000bb3 BF   
    2855 000bb4 7600          MOV #28, T0 ; |1643| 
         000bb6 1C48 
    2856 000bb8 AB61          MOV *AR3, AR3 ; |1643| 
    2857 000bba A96B          MOV port(*AR3(T0)), AR1 ; |1643| 
         000bbc 99   
    2858 000bbd ED04          MOV dbl(*SP(#2)), XAR3
         000bbf BF   
    2859 000bc0 C97B          MOV AR1, *AR3(short(#5)) ; |1643| 
    2860                      .dwpsn  file "../c5535_bsl_revc/ezdsp5535_v1/c55xx_csl/src/csl_mmcsd.c",line 1644,column 13,is_stmt
    2861 000bc2 ED00          MOV dbl(*SP(#0)), XAR3
         000bc4 BF   
    2862 000bc5 7600          MOV #32, T0 ; |1644| 
         000bc7 2048 
    2863 000bc9 AB61          MOV *AR3, AR3 ; |1644| 
    2864 000bcb A96B          MOV port(*AR3(T0)), AR1 ; |1644| 
         000bcd 99   
    2865 000bce ED04          MOV dbl(*SP(#2)), XAR3
         000bd0 BF   
    2866 000bd1 C97D          MOV AR1, *AR3(short(#6)) ; |1644| 
    2867                      .dwpsn  file "../c5535_bsl_revc/ezdsp5535_v1/c55xx_csl/src/csl_mmcsd.c",line 1645,column 13,is_stmt
    2868 000bd3 3C04          MOV #0, T0
    2869 000bd5       $C$L93:    
    2870                      .dwpsn  file "../c5535_bsl_revc/ezdsp5535_v1/c55xx_csl/src/csl_mmcsd.c",line 1648,column 1,is_stmt
    2871 000bd5 4E05          AADD #5, SP
    2872                      .dwcfi  cfa_offset, 1
    2873              $C$DW$135       .dwtag  DW_TAG_TI_branch
    2874                      .dwattr $C$DW$135, DW_AT_low_pc(0x00)
    2875                      .dwattr $C$DW$135, DW_AT_TI_return
    2876 000bd7 4804          RET
    2877                                                      ; return occurs
    2878                      .dwattr $C$DW$130, DW_AT_TI_end_file("../c5535_bsl_revc/ezdsp5535_v1/c55xx_csl/src/csl_mmcsd.c")
    2879                      .dwattr $C$DW$130, DW_AT_TI_end_line(0x670)
    2880                      .dwattr $C$DW$130, DW_AT_TI_end_column(0x01)
    2881                      .dwendentry
    2882                      .dwendtag $C$DW$130
    2883              
    2884 000bd9               .sect   ".text"
    2885                      .align 4
    2886                      .global _MMC_sendCmd
TMS320C55x Assembler PC v4.4.1 Fri Sep 14 03:54:38 2018

Tools Copyright (c) 1996-2012 Texas Instruments Incorporated
csl_mmcsd.asm                                                        PAGE   67

    2887              
    2888              $C$DW$136       .dwtag  DW_TAG_subprogram, DW_AT_name("MMC_sendCmd")
    2889                      .dwattr $C$DW$136, DW_AT_low_pc(_MMC_sendCmd)
    2890                      .dwattr $C$DW$136, DW_AT_high_pc(0x00)
    2891                      .dwattr $C$DW$136, DW_AT_TI_symbol_name("_MMC_sendCmd")
    2892                      .dwattr $C$DW$136, DW_AT_external
    2893                      .dwattr $C$DW$136, DW_AT_type(*$C$DW$T$116)
    2894                      .dwattr $C$DW$136, DW_AT_TI_begin_file("../c5535_bsl_revc/ezdsp5535_v1/c55xx_csl/src/csl_mmcsd.c")
    2895                      .dwattr $C$DW$136, DW_AT_TI_begin_line(0x6ad)
    2896                      .dwattr $C$DW$136, DW_AT_TI_begin_column(0x0c)
    2897                      .dwattr $C$DW$136, DW_AT_TI_max_frame_size(0x0a)
    2898                      .dwpsn  file "../c5535_bsl_revc/ezdsp5535_v1/c55xx_csl/src/csl_mmcsd.c",line 1713,column 1,is_stmt,ad
    2899              
    2900                      .dwfde $C$DW$CIE, _MMC_sendCmd
    2901              $C$DW$137       .dwtag  DW_TAG_formal_parameter, DW_AT_name("hMmcsd")
    2902                      .dwattr $C$DW$137, DW_AT_TI_symbol_name("_hMmcsd")
    2903                      .dwattr $C$DW$137, DW_AT_type(*$C$DW$T$114)
    2904                      .dwattr $C$DW$137, DW_AT_location[DW_OP_reg17]
    2905              $C$DW$138       .dwtag  DW_TAG_formal_parameter, DW_AT_name("cmd")
    2906                      .dwattr $C$DW$138, DW_AT_TI_symbol_name("_cmd")
    2907                      .dwattr $C$DW$138, DW_AT_type(*$C$DW$T$49)
    2908                      .dwattr $C$DW$138, DW_AT_location[DW_OP_reg0]
    2909              $C$DW$139       .dwtag  DW_TAG_formal_parameter, DW_AT_name("arg")
    2910                      .dwattr $C$DW$139, DW_AT_TI_symbol_name("_arg")
    2911                      .dwattr $C$DW$139, DW_AT_type(*$C$DW$T$49)
    2912                      .dwattr $C$DW$139, DW_AT_location[DW_OP_reg3]
    2913              $C$DW$140       .dwtag  DW_TAG_formal_parameter, DW_AT_name("waitForRsp")
    2914                      .dwattr $C$DW$140, DW_AT_TI_symbol_name("_waitForRsp")
    2915                      .dwattr $C$DW$140, DW_AT_type(*$C$DW$T$19)
    2916                      .dwattr $C$DW$140, DW_AT_location[DW_OP_reg12]
    2917              ;*******************************************************************************
    2918              ;* FUNCTION NAME: MMC_sendCmd                                                  *
    2919              ;*                                                                             *
    2920              ;*   Function Uses Regs : AC0,AC0,AC1,AC1,T0,AR0,XAR0,AR1,AR3,XAR3,SP,CARRY,   *
    2921              ;*                        TC1,M40,SATA,SATD,RDM,FRCT,SMUL                      *
    2922              ;*   Stack Frame        : Compact (No Frame Pointer, w/ debug)                 *
    2923              ;*   Total Frame Size   : 10 words                                             *
    2924              ;*                        (2 return address/alignment)                         *
    2925              ;*                        (8 local values)                                     *
    2926              ;*   Min System Stack   : 1 word                                               *
    2927              ;*******************************************************************************
    2928 000bdc       _MMC_sendCmd:
    2929                      .dwcfi  cfa_offset, 1
    2930                      .dwcfi  save_reg_to_mem, 91, -1
    2931 000bdc 4EF7          AADD #-9, SP
    2932                      .dwcfi  cfa_offset, 10
    2933              $C$DW$141       .dwtag  DW_TAG_variable, DW_AT_name("hMmcsd")
    2934                      .dwattr $C$DW$141, DW_AT_TI_symbol_name("_hMmcsd")
    2935                      .dwattr $C$DW$141, DW_AT_type(*$C$DW$T$114)
    2936                      .dwattr $C$DW$141, DW_AT_location[DW_OP_bregx 0x24 0]
    2937              $C$DW$142       .dwtag  DW_TAG_variable, DW_AT_name("cmd")
    2938                      .dwattr $C$DW$142, DW_AT_TI_symbol_name("_cmd")
    2939                      .dwattr $C$DW$142, DW_AT_type(*$C$DW$T$49)
    2940                      .dwattr $C$DW$142, DW_AT_location[DW_OP_bregx 0x24 2]
    2941              $C$DW$143       .dwtag  DW_TAG_variable, DW_AT_name("arg")
TMS320C55x Assembler PC v4.4.1 Fri Sep 14 03:54:38 2018

Tools Copyright (c) 1996-2012 Texas Instruments Incorporated
csl_mmcsd.asm                                                        PAGE   68

    2942                      .dwattr $C$DW$143, DW_AT_TI_symbol_name("_arg")
    2943                      .dwattr $C$DW$143, DW_AT_type(*$C$DW$T$49)
    2944                      .dwattr $C$DW$143, DW_AT_location[DW_OP_bregx 0x24 4]
    2945              $C$DW$144       .dwtag  DW_TAG_variable, DW_AT_name("waitForRsp")
    2946                      .dwattr $C$DW$144, DW_AT_TI_symbol_name("_waitForRsp")
    2947                      .dwattr $C$DW$144, DW_AT_type(*$C$DW$T$19)
    2948                      .dwattr $C$DW$144, DW_AT_location[DW_OP_bregx 0x24 6]
    2949              $C$DW$145       .dwtag  DW_TAG_variable, DW_AT_name("status")
    2950                      .dwattr $C$DW$145, DW_AT_TI_symbol_name("_status")
    2951                      .dwattr $C$DW$145, DW_AT_type(*$C$DW$T$20)
    2952                      .dwattr $C$DW$145, DW_AT_location[DW_OP_bregx 0x24 7]
    2953 000bde C40C          MOV T0, *SP(#6) ; |1713| 
    2954 000be0 EB08          MOV AC1, dbl(*SP(#4)) ; |1713| 
         000be2 18   
    2955 000be3 EB04          MOV AC0, dbl(*SP(#2)) ; |1713| 
         000be5 08   
    2956 000be6 EB00          MOV XAR0, dbl(*SP(#0))
         000be8 85   
    2957                      .dwpsn  file "../c5535_bsl_revc/ezdsp5535_v1/c55xx_csl/src/csl_mmcsd.c",line 1716,column 5,is_stmt
    2958 000be9 ED00          MOV dbl(*SP(#0)), XAR3
         000beb BF   
    2959              
    2960 000bec 90B0          MOV XAR3, AC0
    2961 000bee 3D01  ||      MOV #0, AC1 ; |1716| 
    2962              
    2963 000bf0 121C          CMPU AC1 != AC0, TC1 ; |1716| 
         000bf2 04   
    2964 000bf3 62E4          BCC $C$L94,TC1 ; |1716| 
    2965                                                      ; branchcc occurs ; |1716| 
    2966                      .dwpsn  file "../c5535_bsl_revc/ezdsp5535_v1/c55xx_csl/src/csl_mmcsd.c",line 1718,column 9,is_stmt
    2967 000bf5 3E54          MOV #-5, T0
    2968 000bf7 0600          B $C$L98  ; |1718| 
         000bf9 8F   
    2969                                                      ; branch occurs ; |1718| 
    2970 000bfa       $C$L94:    
    2971                      .dwpsn  file "../c5535_bsl_revc/ezdsp5535_v1/c55xx_csl/src/csl_mmcsd.c",line 1722,column 9,is_stmt
    2972 000bfa 7600          MOV #52, T0 ; |1722| 
         000bfc 3448 
    2973 000bfe AB61          MOV *AR3, AR3 ; |1722| 
    2974 000c00 A96B          MOV port(*AR3(T0)), AR1 ; |1722| 
         000c02 99   
    2975 000c03 ED00          MOV dbl(*SP(#0)), XAR3
         000c05 BF   
    2976 000c06 AB61          MOV *AR3, AR3 ; |1722| 
    2977 000c08 ED08          MOV dbl(*SP(#4)), AC0 ; |1722| 
         000c0a 08   
    2978 000c0b 7DFF          AND #0xffff, AC0, AC0 ; |1722| 
         000c0d FF00 
    2979 000c0f 1A00          OR #0x0000, AC0, AC0 ; |1722| 
         000c11 00   
    2980 000c12 C06B          MOV AC0, port(*AR3(T0)) ; |1722| 
         000c14 9A   
    2981                      .dwpsn  file "../c5535_bsl_revc/ezdsp5535_v1/c55xx_csl/src/csl_mmcsd.c",line 1724,column 9,is_stmt
    2982 000c15 ED00          MOV dbl(*SP(#0)), XAR3
         000c17 BF   
TMS320C55x Assembler PC v4.4.1 Fri Sep 14 03:54:38 2018

Tools Copyright (c) 1996-2012 Texas Instruments Incorporated
csl_mmcsd.asm                                                        PAGE   69

    2983 000c18 7600          MOV #53, T0 ; |1724| 
         000c1a 3548 
    2984 000c1c AB61          MOV *AR3, AR3 ; |1724| 
    2985 000c1e A96B          MOV port(*AR3(T0)), AR1 ; |1724| 
         000c20 99   
    2986 000c21 ED00          MOV dbl(*SP(#0)), XAR3
         000c23 BF   
    2987 000c24 AB61          MOV *AR3, AR3 ; |1724| 
    2988 000c26 ED08          MOV dbl(*SP(#4)), AC0 ; |1724| 
         000c28 08   
    2989 000c29 1007          SFTL AC0, #-16, AC0 ; |1724| 
         000c2b 30   
    2990 000c2c 7DFF          AND #0xffff, AC0, AC0 ; |1724| 
         000c2e FF00 
    2991 000c30 1A00          OR #0x0000, AC0, AC0 ; |1724| 
         000c32 00   
    2992 000c33 C06B          MOV AC0, port(*AR3(T0)) ; |1724| 
         000c35 9A   
    2993                      .dwpsn  file "../c5535_bsl_revc/ezdsp5535_v1/c55xx_csl/src/csl_mmcsd.c",line 1727,column 9,is_stmt
    2994 000c36 ED00          MOV dbl(*SP(#0)), XAR3
         000c38 BF   
    2995 000c39 7600          MOV #48, T0 ; |1727| 
         000c3b 3048 
    2996 000c3d AB61          MOV *AR3, AR3 ; |1727| 
    2997 000c3f ED04          MOV dbl(*SP(#2)), AC0 ; |1727| 
         000c41 08   
    2998 000c42 7DFF          AND #0xffff, AC0, AC0 ; |1727| 
         000c44 FF00 
    2999 000c46 C06B          MOV AC0, port(*AR3(T0)) ; |1727| 
         000c48 9A   
    3000 000c49 3C84          MOV #8, T0
    3001 000c4b       $C$L95:    
    3002 000c4b       $C$DW$L$_MMC_sendCmd$5$B:
    3003                      .dwpsn  file "../c5535_bsl_revc/ezdsp5535_v1/c55xx_csl/src/csl_mmcsd.c",line 1731,column 13,is_stmt
    3004 000c4b ED00          MOV dbl(*SP(#0)), XAR3
         000c4d BF   
    3005 000c4e AB61          MOV *AR3, AR3 ; |1731| 
    3006 000c50 A96B          MOV port(*AR3(T0)), AR1 ; |1731| 
         000c52 99   
    3007 000c53 C90E          MOV AR1, *SP(#7) ; |1731| 
    3008 000c55 20            NOP
    3009 000c56 20            NOP
    3010 000c57 20            NOP
    3011                      .dwpsn  file "../c5535_bsl_revc/ezdsp5535_v1/c55xx_csl/src/csl_mmcsd.c",line 1732,column 4,is_stmt
    3012 000c58 F20E          BAND *SP(#7), #144, TC1 ; |1732| 
         000c5a 0090 
    3013 000c5c 66F4          BCC $C$L97,!TC1 ; |1732| 
    3014                                                      ; branchcc occurs ; |1732| 
    3015 000c5e       $C$DW$L$_MMC_sendCmd$5$E:
    3016                      .dwpsn  file "../c5535_bsl_revc/ezdsp5535_v1/c55xx_csl/src/csl_mmcsd.c",line 1734,column 5,is_stmt
    3017 000c5e DC0E          BTST #4, *SP(#7), TC1 ; |1734| 
         000c60 40   
    3018 000c61 6274          BCC $C$L96,!TC1 ; |1734| 
    3019                                                      ; branchcc occurs ; |1734| 
    3020                      .dwpsn  file "../c5535_bsl_revc/ezdsp5535_v1/c55xx_csl/src/csl_mmcsd.c",line 1736,column 6,is_stmt
TMS320C55x Assembler PC v4.4.1 Fri Sep 14 03:54:38 2018

Tools Copyright (c) 1996-2012 Texas Instruments Incorporated
csl_mmcsd.asm                                                        PAGE   70

    3021 000c63 3EA4          MOV #-10, T0
    3022 000c65 4A22          B $C$L98  ; |1736| 
    3023                                                      ; branch occurs ; |1736| 
    3024 000c67       $C$L96:    
    3025                      .dwpsn  file "../c5535_bsl_revc/ezdsp5535_v1/c55xx_csl/src/csl_mmcsd.c",line 1740,column 6,is_stmt
    3026 000c67 3EF4          MOV #-15, T0
    3027 000c69 4A1E          B $C$L98  ; |1740| 
    3028                                                      ; branch occurs ; |1740| 
    3029 000c6b       $C$L97:    
    3030 000c6b       $C$DW$L$_MMC_sendCmd$10$B:
    3031                      .dwpsn  file "../c5535_bsl_revc/ezdsp5535_v1/c55xx_csl/src/csl_mmcsd.c",line 1743,column 17,is_stmt
    3032 000c6b DC0E          BTST #2, *SP(#7), TC1 ; |1743| 
         000c6d 20   
    3033 000c6e 0474          BCC $C$L95,!TC1 ; |1743| 
         000c70 DA   
    3034                                                      ; branchcc occurs ; |1743| 
    3035 000c71       $C$DW$L$_MMC_sendCmd$10$E:
    3036                      .dwpsn  file "../c5535_bsl_revc/ezdsp5535_v1/c55xx_csl/src/csl_mmcsd.c",line 1750,column 3,is_stmt
    3037 000c71 ED00          MOV dbl(*SP(#0)), XAR3
         000c73 BF   
    3038 000c74 7600          MOV #49, T0 ; |1750| 
         000c76 3148 
    3039 000c78 AB61          MOV *AR3, AR3 ; |1750| 
    3040 000c7a ED04          MOV dbl(*SP(#2)), AC0 ; |1750| 
         000c7c 08   
    3041 000c7d 1007          SFTL AC0, #-16, AC0 ; |1750| 
         000c7f 30   
    3042 000c80 7DFF          AND #0xffff, AC0, AC0 ; |1750| 
         000c82 FF00 
    3043 000c84 C06B          MOV AC0, port(*AR3(T0)) ; |1750| 
         000c86 9A   
    3044                      .dwpsn  file "../c5535_bsl_revc/ezdsp5535_v1/c55xx_csl/src/csl_mmcsd.c",line 1753,column 9,is_stmt
    3045 000c87 3C04          MOV #0, T0
    3046 000c89       $C$L98:    
    3047                      .dwpsn  file "../c5535_bsl_revc/ezdsp5535_v1/c55xx_csl/src/csl_mmcsd.c",line 1755,column 1,is_stmt
    3048 000c89 4E09          AADD #9, SP
    3049                      .dwcfi  cfa_offset, 1
    3050              $C$DW$146       .dwtag  DW_TAG_TI_branch
    3051                      .dwattr $C$DW$146, DW_AT_low_pc(0x00)
    3052                      .dwattr $C$DW$146, DW_AT_TI_return
    3053 000c8b 4804          RET
    3054                                                      ; return occurs
    3055              
    3056              $C$DW$147       .dwtag  DW_TAG_TI_loop
    3057                      .dwattr $C$DW$147, DW_AT_name("F:\eZdsp_DBG\eZDSP_5535_Files\ccsws2\test\Debug\csl_mmcsd.asm:$C$L95:1
    3058                      .dwattr $C$DW$147, DW_AT_TI_begin_file("../c5535_bsl_revc/ezdsp5535_v1/c55xx_csl/src/csl_mmcsd.c")
    3059                      .dwattr $C$DW$147, DW_AT_TI_begin_line(0x6c1)
    3060                      .dwattr $C$DW$147, DW_AT_TI_end_line(0x6cf)
    3061              $C$DW$148       .dwtag  DW_TAG_TI_loop_range
