TMS320C55x Assembler PC v4.4.1 Fri Sep 07 02:27:33 2018

Tools Copyright (c) 1996-2012 Texas Instruments Incorporated
csl_audioClass.asm                                                   PAGE    1

    5400              ; Temporary Registers Used: None
       1              ;*******************************************************************************
       2              ;* TMS320C55x C/C++ Codegen                                          PC v4.4.1 *
       3              ;* Date/Time created: Fri Sep 07 02:27:31 2018                                 *
       4              ;*******************************************************************************
       5                      .compiler_opts --hll_source=on --mem_model:code=flat --mem_model:data=large --object_format=coff --si
       6                      .mmregs
       7                      .cpl_on
       8                      .arms_on
       9                      .c54cm_off
      10                      .asg AR6, FP
      11                      .asg XAR6, XFP
      12                      .asg DPH, MDP
      13                      .model call=c55_std
      14                      .model mem=large
      15                      .noremark 5002  ; code respects overwrite rules
      16              ;*******************************************************************************
      17              ;* GLOBAL FILE PARAMETERS                                                      *
      18              ;*                                                                             *
      19              ;*   Architecture       : TMS320C55x                                           *
      20              ;*   Optimizing for     : Speed                                                *
      21              ;*   Memory             : Large Model (23-Bit Data Pointers)                   *
      22              ;*   Calls              : Normal Library ASM calls                             *
      23              ;*   Debug Info         : Standard TI Debug Information                        *
      24              ;*******************************************************************************
      25              
      26              $C$DW$CU        .dwtag  DW_TAG_compile_unit
      27                      .dwattr $C$DW$CU, DW_AT_name("../c5535_bsl_revc/ezdsp5535_v1/c55xx_csl/src/csl_audioClass.c")
      28                      .dwattr $C$DW$CU, DW_AT_producer("TMS320C55x C/C++ Codegen PC v4.4.1 Copyright (c) 1996-2012 Texas In
      29                      .dwattr $C$DW$CU, DW_AT_TI_version(0x01)
      30                      .dwattr $C$DW$CU, DW_AT_comp_dir("F:\eZDSP_5535_Files\ccsws2\test\Debug")
      31              
      32              $C$DW$1 .dwtag  DW_TAG_subprogram, DW_AT_name("memcpy")
      33                      .dwattr $C$DW$1, DW_AT_TI_symbol_name("_memcpy")
      34                      .dwattr $C$DW$1, DW_AT_type(*$C$DW$T$3)
      35                      .dwattr $C$DW$1, DW_AT_declaration
      36                      .dwattr $C$DW$1, DW_AT_external
      37              $C$DW$2 .dwtag  DW_TAG_formal_parameter
      38                      .dwattr $C$DW$2, DW_AT_type(*$C$DW$T$3)
      39              $C$DW$3 .dwtag  DW_TAG_formal_parameter
      40                      .dwattr $C$DW$3, DW_AT_type(*$C$DW$T$104)
      41              $C$DW$4 .dwtag  DW_TAG_formal_parameter
      42                      .dwattr $C$DW$4, DW_AT_type(*$C$DW$T$105)
      43                      .dwendtag $C$DW$1
      44              
      45              
      46              $C$DW$5 .dwtag  DW_TAG_subprogram, DW_AT_name("strlen")
      47                      .dwattr $C$DW$5, DW_AT_TI_symbol_name("_strlen")
      48                      .dwattr $C$DW$5, DW_AT_type(*$C$DW$T$105)
      49                      .dwattr $C$DW$5, DW_AT_declaration
      50                      .dwattr $C$DW$5, DW_AT_external
      51              $C$DW$6 .dwtag  DW_TAG_formal_parameter
      52                      .dwattr $C$DW$6, DW_AT_type(*$C$DW$T$143)
      53                      .dwendtag $C$DW$5
      54              
TMS320C55x Assembler PC v4.4.1 Fri Sep 07 02:27:33 2018

Tools Copyright (c) 1996-2012 Texas Instruments Incorporated
csl_audioClass.asm                                                   PAGE    2

      55              
      56              $C$DW$7 .dwtag  DW_TAG_subprogram, DW_AT_name("USB_initEndptObj")
      57                      .dwattr $C$DW$7, DW_AT_TI_symbol_name("_USB_initEndptObj")
      58                      .dwattr $C$DW$7, DW_AT_type(*$C$DW$T$108)
      59                      .dwattr $C$DW$7, DW_AT_declaration
      60                      .dwattr $C$DW$7, DW_AT_external
      61              $C$DW$8 .dwtag  DW_TAG_formal_parameter
      62                      .dwattr $C$DW$8, DW_AT_type(*$C$DW$T$24)
      63              $C$DW$9 .dwtag  DW_TAG_formal_parameter
      64                      .dwattr $C$DW$9, DW_AT_type(*$C$DW$T$27)
      65              $C$DW$10        .dwtag  DW_TAG_formal_parameter
      66                      .dwattr $C$DW$10, DW_AT_type(*$C$DW$T$81)
      67              $C$DW$11        .dwtag  DW_TAG_formal_parameter
      68                      .dwattr $C$DW$11, DW_AT_type(*$C$DW$T$83)
      69              $C$DW$12        .dwtag  DW_TAG_formal_parameter
      70                      .dwattr $C$DW$12, DW_AT_type(*$C$DW$T$25)
      71              $C$DW$13        .dwtag  DW_TAG_formal_parameter
      72                      .dwattr $C$DW$13, DW_AT_type(*$C$DW$T$25)
      73              $C$DW$14        .dwtag  DW_TAG_formal_parameter
      74                      .dwattr $C$DW$14, DW_AT_type(*$C$DW$T$84)
      75                      .dwendtag $C$DW$7
      76              
      77              
      78              $C$DW$15        .dwtag  DW_TAG_subprogram, DW_AT_name("USB_getEvents")
      79                      .dwattr $C$DW$15, DW_AT_TI_symbol_name("_USB_getEvents")
      80                      .dwattr $C$DW$15, DW_AT_type(*$C$DW$T$129)
      81                      .dwattr $C$DW$15, DW_AT_declaration
      82                      .dwattr $C$DW$15, DW_AT_external
      83              $C$DW$16        .dwtag  DW_TAG_formal_parameter
      84                      .dwattr $C$DW$16, DW_AT_type(*$C$DW$T$27)
      85              $C$DW$17        .dwtag  DW_TAG_formal_parameter
      86                      .dwattr $C$DW$17, DW_AT_type(*$C$DW$T$111)
      87                      .dwendtag $C$DW$15
      88              
      89              
      90              $C$DW$18        .dwtag  DW_TAG_subprogram, DW_AT_name("USB_getSetupPacket")
      91                      .dwattr $C$DW$18, DW_AT_TI_symbol_name("_USB_getSetupPacket")
      92                      .dwattr $C$DW$18, DW_AT_type(*$C$DW$T$108)
      93                      .dwattr $C$DW$18, DW_AT_declaration
      94                      .dwattr $C$DW$18, DW_AT_external
      95              $C$DW$19        .dwtag  DW_TAG_formal_parameter
      96                      .dwattr $C$DW$19, DW_AT_type(*$C$DW$T$24)
      97              $C$DW$20        .dwtag  DW_TAG_formal_parameter
      98                      .dwattr $C$DW$20, DW_AT_type(*$C$DW$T$45)
      99              $C$DW$21        .dwtag  DW_TAG_formal_parameter
     100                      .dwattr $C$DW$21, DW_AT_type(*$C$DW$T$112)
     101                      .dwendtag $C$DW$18
     102              
     103              
     104              $C$DW$22        .dwtag  DW_TAG_subprogram, DW_AT_name("USB_postTransaction")
     105                      .dwattr $C$DW$22, DW_AT_TI_symbol_name("_USB_postTransaction")
     106                      .dwattr $C$DW$22, DW_AT_type(*$C$DW$T$108)
     107                      .dwattr $C$DW$22, DW_AT_declaration
     108                      .dwattr $C$DW$22, DW_AT_external
     109              $C$DW$23        .dwtag  DW_TAG_formal_parameter
TMS320C55x Assembler PC v4.4.1 Fri Sep 07 02:27:33 2018

Tools Copyright (c) 1996-2012 Texas Instruments Incorporated
csl_audioClass.asm                                                   PAGE    3

     110                      .dwattr $C$DW$23, DW_AT_type(*$C$DW$T$27)
     111              $C$DW$24        .dwtag  DW_TAG_formal_parameter
     112                      .dwattr $C$DW$24, DW_AT_type(*$C$DW$T$25)
     113              $C$DW$25        .dwtag  DW_TAG_formal_parameter
     114                      .dwattr $C$DW$25, DW_AT_type(*$C$DW$T$3)
     115              $C$DW$26        .dwtag  DW_TAG_formal_parameter
     116                      .dwattr $C$DW$26, DW_AT_type(*$C$DW$T$115)
     117                      .dwendtag $C$DW$22
     118              
     119              
     120              $C$DW$27        .dwtag  DW_TAG_subprogram, DW_AT_name("USB_stallEndpt")
     121                      .dwattr $C$DW$27, DW_AT_TI_symbol_name("_USB_stallEndpt")
     122                      .dwattr $C$DW$27, DW_AT_type(*$C$DW$T$108)
     123                      .dwattr $C$DW$27, DW_AT_declaration
     124                      .dwattr $C$DW$27, DW_AT_external
     125              $C$DW$28        .dwtag  DW_TAG_formal_parameter
     126                      .dwattr $C$DW$28, DW_AT_type(*$C$DW$T$27)
     127                      .dwendtag $C$DW$27
     128              
     129              
     130              $C$DW$29        .dwtag  DW_TAG_subprogram, DW_AT_name("USB_abortAllTransaction")
     131                      .dwattr $C$DW$29, DW_AT_TI_symbol_name("_USB_abortAllTransaction")
     132                      .dwattr $C$DW$29, DW_AT_type(*$C$DW$T$108)
     133                      .dwattr $C$DW$29, DW_AT_declaration
     134                      .dwattr $C$DW$29, DW_AT_external
     135              $C$DW$30        .dwtag  DW_TAG_formal_parameter
     136                      .dwattr $C$DW$30, DW_AT_type(*$C$DW$T$24)
     137                      .dwendtag $C$DW$29
     138              
     139              
     140              $C$DW$31        .dwtag  DW_TAG_subprogram, DW_AT_name("USB_connectDev")
     141                      .dwattr $C$DW$31, DW_AT_TI_symbol_name("_USB_connectDev")
     142                      .dwattr $C$DW$31, DW_AT_type(*$C$DW$T$108)
     143                      .dwattr $C$DW$31, DW_AT_declaration
     144                      .dwattr $C$DW$31, DW_AT_external
     145              $C$DW$32        .dwtag  DW_TAG_formal_parameter
     146                      .dwattr $C$DW$32, DW_AT_type(*$C$DW$T$24)
     147                      .dwendtag $C$DW$31
     148              
     149              
     150              $C$DW$33        .dwtag  DW_TAG_subprogram, DW_AT_name("USB_disconnectDev")
     151                      .dwattr $C$DW$33, DW_AT_TI_symbol_name("_USB_disconnectDev")
     152                      .dwattr $C$DW$33, DW_AT_type(*$C$DW$T$108)
     153                      .dwattr $C$DW$33, DW_AT_declaration
     154                      .dwattr $C$DW$33, DW_AT_external
     155              $C$DW$34        .dwtag  DW_TAG_formal_parameter
     156                      .dwattr $C$DW$34, DW_AT_type(*$C$DW$T$24)
     157                      .dwendtag $C$DW$33
     158              
     159              
     160              $C$DW$35        .dwtag  DW_TAG_subprogram, DW_AT_name("USB_setParams")
     161                      .dwattr $C$DW$35, DW_AT_TI_symbol_name("_USB_setParams")
     162                      .dwattr $C$DW$35, DW_AT_type(*$C$DW$T$108)
     163                      .dwattr $C$DW$35, DW_AT_declaration
     164                      .dwattr $C$DW$35, DW_AT_external
TMS320C55x Assembler PC v4.4.1 Fri Sep 07 02:27:33 2018

Tools Copyright (c) 1996-2012 Texas Instruments Incorporated
csl_audioClass.asm                                                   PAGE    4

     165              $C$DW$36        .dwtag  DW_TAG_formal_parameter
     166                      .dwattr $C$DW$36, DW_AT_type(*$C$DW$T$24)
     167              $C$DW$37        .dwtag  DW_TAG_formal_parameter
     168                      .dwattr $C$DW$37, DW_AT_type(*$C$DW$T$101)
     169              $C$DW$38        .dwtag  DW_TAG_formal_parameter
     170                      .dwattr $C$DW$38, DW_AT_type(*$C$DW$T$25)
     171                      .dwendtag $C$DW$35
     172              
     173              ;       F:\ti\ccs8p1\ccsv8\tools\compiler\alt-install-ti-cgt-c55x_4.4.1\bin\acp55.exe -@f:\\AppData\\Local\\T
     174 000000               .sect   ".text"
     175                      .align 4
     176              
     177              $C$DW$39        .dwtag  DW_TAG_subprogram, DW_AT_name("AC_reqUnknown")
     178                      .dwattr $C$DW$39, DW_AT_low_pc(_AC_reqUnknown)
     179                      .dwattr $C$DW$39, DW_AT_high_pc(0x00)
     180                      .dwattr $C$DW$39, DW_AT_TI_symbol_name("_AC_reqUnknown")
     181                      .dwattr $C$DW$39, DW_AT_type(*$C$DW$T$44)
     182                      .dwattr $C$DW$39, DW_AT_TI_begin_file("F:/eZDSP_5535_Files/ccsws2/test/c5535_bsl_revc/ezdsp5535_v1/c5
     183                      .dwattr $C$DW$39, DW_AT_TI_begin_line(0x5c)
     184                      .dwattr $C$DW$39, DW_AT_TI_begin_column(0x12)
     185                      .dwattr $C$DW$39, DW_AT_TI_max_frame_size(0x0c)
     186                      .dwpsn  file "F:/eZDSP_5535_Files/ccsws2/test/c5535_bsl_revc/ezdsp5535_v1/c55xx_csl/inc/csl_audioClas
     187              
     188                      .dwfde $C$DW$CIE, _AC_reqUnknown
     189              $C$DW$40        .dwtag  DW_TAG_formal_parameter, DW_AT_name("devNum")
     190                      .dwattr $C$DW$40, DW_AT_TI_symbol_name("_devNum")
     191                      .dwattr $C$DW$40, DW_AT_type(*$C$DW$T$24)
     192                      .dwattr $C$DW$40, DW_AT_location[DW_OP_reg12]
     193              $C$DW$41        .dwtag  DW_TAG_formal_parameter, DW_AT_name("usbSetup")
     194                      .dwattr $C$DW$41, DW_AT_TI_symbol_name("_usbSetup")
     195                      .dwattr $C$DW$41, DW_AT_type(*$C$DW$T$45)
     196                      .dwattr $C$DW$41, DW_AT_location[DW_OP_reg17]
     197              $C$DW$42        .dwtag  DW_TAG_formal_parameter, DW_AT_name("hInEp")
     198                      .dwattr $C$DW$42, DW_AT_TI_symbol_name("_hInEp")
     199                      .dwattr $C$DW$42, DW_AT_type(*$C$DW$T$27)
     200                      .dwattr $C$DW$42, DW_AT_location[DW_OP_reg19]
     201              $C$DW$43        .dwtag  DW_TAG_formal_parameter, DW_AT_name("hOutEp")
     202                      .dwattr $C$DW$43, DW_AT_TI_symbol_name("_hOutEp")
     203                      .dwattr $C$DW$43, DW_AT_type(*$C$DW$T$27)
     204                      .dwattr $C$DW$43, DW_AT_location[DW_OP_reg21]
     205              $C$DW$44        .dwtag  DW_TAG_formal_parameter, DW_AT_name("pAcObj")
     206                      .dwattr $C$DW$44, DW_AT_TI_symbol_name("_pAcObj")
     207                      .dwattr $C$DW$44, DW_AT_type(*$C$DW$T$3)
     208                      .dwattr $C$DW$44, DW_AT_location[DW_OP_reg23]
     209              ;*******************************************************************************
     210              ;* FUNCTION NAME: AC_reqUnknown                                                *
     211              ;*                                                                             *
     212              ;*   Function Uses Regs : T0,AR0,XAR0,AR1,XAR1,AR2,XAR2,AR3,XAR3,SP,M40,SATA,  *
     213              ;*                        SATD,RDM,FRCT,SMUL                                   *
     214              ;*   Stack Frame        : Compact (No Frame Pointer, w/ debug)                 *
     215              ;*   Total Frame Size   : 12 words                                             *
     216              ;*                        (1 return address/alignment)                         *
     217              ;*                        (11 local values)                                    *
     218              ;*   Min System Stack   : 1 word                                               *
     219              ;*******************************************************************************
TMS320C55x Assembler PC v4.4.1 Fri Sep 07 02:27:33 2018

Tools Copyright (c) 1996-2012 Texas Instruments Incorporated
csl_audioClass.asm                                                   PAGE    5

     220 000000       _AC_reqUnknown:
     221                      .dwcfi  cfa_offset, 1
     222                      .dwcfi  save_reg_to_mem, 91, -1
     223 000000 4EF5          AADD #-11, SP
     224                      .dwcfi  cfa_offset, 12
     225              $C$DW$45        .dwtag  DW_TAG_variable, DW_AT_name("devNum")
     226                      .dwattr $C$DW$45, DW_AT_TI_symbol_name("_devNum")
     227                      .dwattr $C$DW$45, DW_AT_type(*$C$DW$T$24)
     228                      .dwattr $C$DW$45, DW_AT_location[DW_OP_bregx 0x24 0]
     229              $C$DW$46        .dwtag  DW_TAG_variable, DW_AT_name("usbSetup")
     230                      .dwattr $C$DW$46, DW_AT_TI_symbol_name("_usbSetup")
     231                      .dwattr $C$DW$46, DW_AT_type(*$C$DW$T$45)
     232                      .dwattr $C$DW$46, DW_AT_location[DW_OP_bregx 0x24 2]
     233              $C$DW$47        .dwtag  DW_TAG_variable, DW_AT_name("hInEp")
     234                      .dwattr $C$DW$47, DW_AT_TI_symbol_name("_hInEp")
     235                      .dwattr $C$DW$47, DW_AT_type(*$C$DW$T$27)
     236                      .dwattr $C$DW$47, DW_AT_location[DW_OP_bregx 0x24 4]
     237              $C$DW$48        .dwtag  DW_TAG_variable, DW_AT_name("hOutEp")
     238                      .dwattr $C$DW$48, DW_AT_TI_symbol_name("_hOutEp")
     239                      .dwattr $C$DW$48, DW_AT_type(*$C$DW$T$27)
     240                      .dwattr $C$DW$48, DW_AT_location[DW_OP_bregx 0x24 6]
     241              $C$DW$49        .dwtag  DW_TAG_variable, DW_AT_name("pAcObj")
     242                      .dwattr $C$DW$49, DW_AT_TI_symbol_name("_pAcObj")
     243                      .dwattr $C$DW$49, DW_AT_type(*$C$DW$T$3)
     244                      .dwattr $C$DW$49, DW_AT_location[DW_OP_bregx 0x24 8]
     245              $C$DW$50        .dwtag  DW_TAG_variable, DW_AT_name("retStat")
     246                      .dwattr $C$DW$50, DW_AT_TI_symbol_name("_retStat")
     247                      .dwattr $C$DW$50, DW_AT_type(*$C$DW$T$44)
     248                      .dwattr $C$DW$50, DW_AT_location[DW_OP_bregx 0x24 10]
     249 000002 EB10          MOV XAR3, dbl(*SP(#8))
         000004 B5   
     250 000005 EB0C          MOV XAR2, dbl(*SP(#6))
         000007 A5   
     251 000008 EB08          MOV XAR1, dbl(*SP(#4))
         00000a 95   
     252 00000b EB04          MOV XAR0, dbl(*SP(#2))
         00000d 85   
     253 00000e C400          MOV T0, *SP(#0) ; |97| 
     254                      .dwpsn  file "F:/eZDSP_5535_Files/ccsws2/test/c5535_bsl_revc/ezdsp5535_v1/c55xx_csl/inc/csl_audioClas
     255 000010 E614          MOV #1, *SP(#10) ; |101| 
         000012 01   
     256                      .dwpsn  file "F:/eZDSP_5535_Files/ccsws2/test/c5535_bsl_revc/ezdsp5535_v1/c55xx_csl/inc/csl_audioClas
     257 000013 A414          MOV *SP(#10), T0 ; |103| 
     258                      .dwpsn  file "F:/eZDSP_5535_Files/ccsws2/test/c5535_bsl_revc/ezdsp5535_v1/c55xx_csl/inc/csl_audioClas
     259 000015 4E0B          AADD #11, SP
     260                      .dwcfi  cfa_offset, 1
     261              $C$DW$51        .dwtag  DW_TAG_TI_branch
     262                      .dwattr $C$DW$51, DW_AT_low_pc(0x00)
     263                      .dwattr $C$DW$51, DW_AT_TI_return
     264 000017 4804          RET
     265                                                      ; return occurs
     266                      .dwattr $C$DW$39, DW_AT_TI_end_file("F:/eZDSP_5535_Files/ccsws2/test/c5535_bsl_revc/ezdsp5535_v1/c55x
     267                      .dwattr $C$DW$39, DW_AT_TI_end_line(0x68)
     268                      .dwattr $C$DW$39, DW_AT_TI_end_column(0x01)
     269                      .dwendentry
TMS320C55x Assembler PC v4.4.1 Fri Sep 07 02:27:33 2018

Tools Copyright (c) 1996-2012 Texas Instruments Incorporated
csl_audioClass.asm                                                   PAGE    6

     270                      .dwendtag $C$DW$39
     271              
     272 000019               .sect   ".text"
     273                      .align 4
     274              
     275              $C$DW$52        .dwtag  DW_TAG_subprogram, DW_AT_name("AC_lookupReqHandler")
     276                      .dwattr $C$DW$52, DW_AT_low_pc(_AC_lookupReqHandler)
     277                      .dwattr $C$DW$52, DW_AT_high_pc(0x00)
     278                      .dwattr $C$DW$52, DW_AT_TI_symbol_name("_AC_lookupReqHandler")
     279                      .dwattr $C$DW$52, DW_AT_type(*$C$DW$T$88)
     280                      .dwattr $C$DW$52, DW_AT_TI_begin_file("F:/eZDSP_5535_Files/ccsws2/test/c5535_bsl_revc/ezdsp5535_v1/c5
     281                      .dwattr $C$DW$52, DW_AT_TI_begin_line(0x9d)
     282                      .dwattr $C$DW$52, DW_AT_TI_begin_column(0x12)
     283                      .dwattr $C$DW$52, DW_AT_TI_max_frame_size(0x06)
     284                      .dwpsn  file "F:/eZDSP_5535_Files/ccsws2/test/c5535_bsl_revc/ezdsp5535_v1/c55xx_csl/inc/csl_audioClas
     285              
     286                      .dwfde $C$DW$CIE, _AC_lookupReqHandler
     287              $C$DW$53        .dwtag  DW_TAG_formal_parameter, DW_AT_name("request")
     288                      .dwattr $C$DW$53, DW_AT_TI_symbol_name("_request")
     289                      .dwattr $C$DW$53, DW_AT_type(*$C$DW$T$25)
     290                      .dwattr $C$DW$53, DW_AT_location[DW_OP_reg12]
     291              $C$DW$54        .dwtag  DW_TAG_formal_parameter, DW_AT_name("pUSB_ReqTable")
     292                      .dwattr $C$DW$54, DW_AT_TI_symbol_name("_pUSB_ReqTable")
     293                      .dwattr $C$DW$54, DW_AT_type(*$C$DW$T$42)
     294                      .dwattr $C$DW$54, DW_AT_location[DW_OP_reg17]
     295              ;*******************************************************************************
     296              ;* FUNCTION NAME: AC_lookupReqHandler                                          *
     297              ;*                                                                             *
     298              ;*   Function Uses Regs : AC0,AC0,T0,AR0,XAR0,AR1,AR2,AR3,XAR3,SP,CARRY,TC1,   *
     299              ;*                        M40,SATA,SATD,RDM,FRCT,SMUL                          *
     300              ;*   Stack Frame        : Compact (No Frame Pointer, w/ debug)                 *
     301              ;*   Total Frame Size   : 6 words                                              *
     302              ;*                        (1 return address/alignment)                         *
     303              ;*                        (5 local values)                                     *
     304              ;*   Min System Stack   : 1 word                                               *
     305              ;*******************************************************************************
     306 00001c       _AC_lookupReqHandler:
     307                      .dwcfi  cfa_offset, 1
     308                      .dwcfi  save_reg_to_mem, 91, -1
     309 00001c 4EFB          AADD #-5, SP
     310                      .dwcfi  cfa_offset, 6
     311              $C$DW$55        .dwtag  DW_TAG_variable, DW_AT_name("request")
     312                      .dwattr $C$DW$55, DW_AT_TI_symbol_name("_request")
     313                      .dwattr $C$DW$55, DW_AT_type(*$C$DW$T$25)
     314                      .dwattr $C$DW$55, DW_AT_location[DW_OP_bregx 0x24 0]
     315              $C$DW$56        .dwtag  DW_TAG_variable, DW_AT_name("pUSB_ReqTable")
     316                      .dwattr $C$DW$56, DW_AT_TI_symbol_name("_pUSB_ReqTable")
     317                      .dwattr $C$DW$56, DW_AT_type(*$C$DW$T$42)
     318                      .dwattr $C$DW$56, DW_AT_location[DW_OP_bregx 0x24 2]
     319              $C$DW$57        .dwtag  DW_TAG_variable, DW_AT_name("index")
     320                      .dwattr $C$DW$57, DW_AT_TI_symbol_name("_index")
     321                      .dwattr $C$DW$57, DW_AT_type(*$C$DW$T$25)
     322                      .dwattr $C$DW$57, DW_AT_location[DW_OP_bregx 0x24 4]
     323 00001e EB04          MOV XAR0, dbl(*SP(#2))
         000020 85   
TMS320C55x Assembler PC v4.4.1 Fri Sep 07 02:27:33 2018

Tools Copyright (c) 1996-2012 Texas Instruments Incorporated
csl_audioClass.asm                                                   PAGE    7

     324 000021 C400          MOV T0, *SP(#0) ; |159| 
     325                      .dwpsn  file "F:/eZDSP_5535_Files/ccsws2/test/c5535_bsl_revc/ezdsp5535_v1/c55xx_csl/inc/csl_audioClas
     326 000023 E608          MOV #0, *SP(#4) ; |163| 
         000025 00   
     327                      .dwpsn  file "F:/eZDSP_5535_Files/ccsws2/test/c5535_bsl_revc/ezdsp5535_v1/c55xx_csl/inc/csl_audioClas
     328 000026 ED04          MOV dbl(*SP(#2)), XAR3
         000028 BF   
     329 000029 F908          MOV *SP(#4) << #2, AC0 ; |163| 
         00002b 0208 
     330 00002d 2209          MOV AC0, AR1 ; |163| 
     331 00002f 1490          AADD AR1, AR3 ; |163| 
         000031 B0   
     332 000032 ED75          MOV dbl(*AR3(short(#2))), AC0 ; |163| 
         000034 08   
     333 000035 0400          BCC $C$L3,AC0 == #0 ; |163| 
         000037 36   
     334                                                      ; branchcc occurs ; |163| 
     335 000038       $C$L1:    
     336 000038       $C$DW$L$_AC_lookupReqHandler$2$B:
     337                      .dwpsn  file "F:/eZDSP_5535_Files/ccsws2/test/c5535_bsl_revc/ezdsp5535_v1/c55xx_csl/inc/csl_audioClas
     338 000038 ED04          MOV dbl(*SP(#2)), XAR3
         00003a BF   
     339 00003b F908          MOV *SP(#4) << #2, AC0 ; |166| 
         00003d 0208 
     340 00003f 2204          MOV AC0, T0 ; |166| 
     341 000041 A900          MOV *SP(#0), AR1 ; |166| 
     342 000043 AA6B          MOV *AR3(T0), AR2 ; |166| 
     343 000045 12AC          CMPU AR2 != AR1, TC1 ; |166| 
         000047 94   
     344 000048 6764          BCC $C$L2,TC1 ; |166| 
     345                                                      ; branchcc occurs ; |166| 
     346 00004a       $C$DW$L$_AC_lookupReqHandler$2$E:
     347                      .dwpsn  file "F:/eZDSP_5535_Files/ccsws2/test/c5535_bsl_revc/ezdsp5535_v1/c55xx_csl/inc/csl_audioClas
     348 00004a F908          MOV *SP(#4) << #2, AC0 ; |168| 
         00004c 0208 
     349 00004e 2209          MOV AC0, AR1 ; |168| 
     350 000050 1490          AADD AR1, AR3 ; |168| 
         000052 B0   
     351 000053 ED75          MOV dbl(*AR3(short(#2))), AC0 ; |168| 
         000055 08   
     352 000056 4A1E          B $C$L4   ; |168| 
     353                                                      ; branch occurs ; |168| 
     354 000058       $C$L2:    
     355 000058       $C$DW$L$_AC_lookupReqHandler$4$B:
     356                      .dwpsn  file "F:/eZDSP_5535_Files/ccsws2/test/c5535_bsl_revc/ezdsp5535_v1/c55xx_csl/inc/csl_audioClas
     357 000058 F708          ADD #1, *SP(#4) ; |163| 
         00005a 0001 
     358                      .dwpsn  file "F:/eZDSP_5535_Files/ccsws2/test/c5535_bsl_revc/ezdsp5535_v1/c55xx_csl/inc/csl_audioClas
     359 00005c ED04          MOV dbl(*SP(#2)), XAR3
         00005e BF   
     360 00005f F908          MOV *SP(#4) << #2, AC0 ; |163| 
         000061 0208 
     361 000063 2209          MOV AC0, AR1 ; |163| 
     362 000065 1490          AADD AR1, AR3 ; |163| 
         000067 B0   
TMS320C55x Assembler PC v4.4.1 Fri Sep 07 02:27:33 2018

Tools Copyright (c) 1996-2012 Texas Instruments Incorporated
csl_audioClass.asm                                                   PAGE    8

     363 000068 ED75          MOV dbl(*AR3(short(#2))), AC0 ; |163| 
         00006a 08   
     364 00006b 0410          BCC $C$L1,AC0 != #0 ; |163| 
         00006d CA   
     365                                                      ; branchcc occurs ; |163| 
     366 00006e       $C$DW$L$_AC_lookupReqHandler$4$E:
     367 00006e       $C$L3:    
     368                      .dwpsn  file "F:/eZDSP_5535_Files/ccsws2/test/c5535_bsl_revc/ezdsp5535_v1/c55xx_csl/inc/csl_audioClas
     369 00006e 7A00          MOV #(_AC_reqUnknown >> 16) << #16, AC0 ; |174| 
         000070 000A%
     370 000072 7E00          OR #(_AC_reqUnknown & 0xffff), AC0, AC0 ; |174| 
         000074 0000%
     371 000076       $C$L4:    
     372                      .dwpsn  file "F:/eZDSP_5535_Files/ccsws2/test/c5535_bsl_revc/ezdsp5535_v1/c55xx_csl/inc/csl_audioClas
     373 000076 4E05          AADD #5, SP
     374                      .dwcfi  cfa_offset, 1
     375              $C$DW$58        .dwtag  DW_TAG_TI_branch
     376                      .dwattr $C$DW$58, DW_AT_low_pc(0x00)
     377                      .dwattr $C$DW$58, DW_AT_TI_return
     378 000078 4804          RET
     379                                                      ; return occurs
     380              
     381              $C$DW$59        .dwtag  DW_TAG_TI_loop
     382                      .dwattr $C$DW$59, DW_AT_name("F:\eZDSP_5535_Files\ccsws2\test\Debug\csl_audioClass.asm:$C$L1:1:153631
     383                      .dwattr $C$DW$59, DW_AT_TI_begin_file("F:/eZDSP_5535_Files/ccsws2/test/c5535_bsl_revc/ezdsp5535_v1/c5
     384                      .dwattr $C$DW$59, DW_AT_TI_begin_line(0xa3)
     385                      .dwattr $C$DW$59, DW_AT_TI_end_line(0xaa)
     386              $C$DW$60        .dwtag  DW_TAG_TI_loop_range
     387                      .dwattr $C$DW$60, DW_AT_low_pc($C$DW$L$_AC_lookupReqHandler$2$B)
     388                      .dwattr $C$DW$60, DW_AT_high_pc($C$DW$L$_AC_lookupReqHandler$2$E)
     389              $C$DW$61        .dwtag  DW_TAG_TI_loop_range
     390                      .dwattr $C$DW$61, DW_AT_low_pc($C$DW$L$_AC_lookupReqHandler$4$B)
     391                      .dwattr $C$DW$61, DW_AT_high_pc($C$DW$L$_AC_lookupReqHandler$4$E)
     392                      .dwendtag $C$DW$59
     393              
     394                      .dwattr $C$DW$52, DW_AT_TI_end_file("F:/eZDSP_5535_Files/ccsws2/test/c5535_bsl_revc/ezdsp5535_v1/c55x
     395                      .dwattr $C$DW$52, DW_AT_TI_end_line(0xaf)
     396                      .dwattr $C$DW$52, DW_AT_TI_end_column(0x01)
     397                      .dwendentry
     398                      .dwendtag $C$DW$52
     399              
     400 00007a               .sect   ".text"
     401                      .align 4
     402                      .global _AC_Open
     403              
     404              $C$DW$62        .dwtag  DW_TAG_subprogram, DW_AT_name("AC_Open")
     405                      .dwattr $C$DW$62, DW_AT_low_pc(_AC_Open)
     406                      .dwattr $C$DW$62, DW_AT_high_pc(0x00)
     407                      .dwattr $C$DW$62, DW_AT_TI_symbol_name("_AC_Open")
     408                      .dwattr $C$DW$62, DW_AT_external
     409                      .dwattr $C$DW$62, DW_AT_type(*$C$DW$T$108)
     410                      .dwattr $C$DW$62, DW_AT_TI_begin_file("../c5535_bsl_revc/ezdsp5535_v1/c55xx_csl/src/csl_audioClass.c"
     411                      .dwattr $C$DW$62, DW_AT_TI_begin_line(0x48)
     412                      .dwattr $C$DW$62, DW_AT_TI_begin_column(0x0c)
     413                      .dwattr $C$DW$62, DW_AT_TI_max_frame_size(0x08)
TMS320C55x Assembler PC v4.4.1 Fri Sep 07 02:27:33 2018

Tools Copyright (c) 1996-2012 Texas Instruments Incorporated
csl_audioClass.asm                                                   PAGE    9

     414                      .dwpsn  file "../c5535_bsl_revc/ezdsp5535_v1/c55xx_csl/src/csl_audioClass.c",line 73,column 1,is_stmt
     415              
     416                      .dwfde $C$DW$CIE, _AC_Open
     417              $C$DW$63        .dwtag  DW_TAG_formal_parameter, DW_AT_name("pAppClassHandle")
     418                      .dwattr $C$DW$63, DW_AT_TI_symbol_name("_pAppClassHandle")
     419                      .dwattr $C$DW$63, DW_AT_type(*$C$DW$T$99)
     420                      .dwattr $C$DW$63, DW_AT_location[DW_OP_reg17]
     421              ;*******************************************************************************
     422              ;* FUNCTION NAME: AC_Open                                                      *
     423              ;*                                                                             *
     424              ;*   Function Uses Regs : AC0,AC0,T0,T1,AR0,XAR0,AR1,AR2,XAR2,AR3,XAR3,SP,     *
     425              ;*                        CARRY,M40,SATA,SATD,RDM,FRCT,SMUL                    *
     426              ;*   Stack Frame        : Compact (No Frame Pointer, w/ debug)                 *
     427              ;*   Total Frame Size   : 8 words                                              *
     428              ;*                        (2 return address/alignment)                         *
     429              ;*                        (6 local values)                                     *
     430              ;*   Min System Stack   : 1 word                                               *
     431              ;*******************************************************************************
     432 00007c       _AC_Open:
     433                      .dwcfi  cfa_offset, 1
     434                      .dwcfi  save_reg_to_mem, 91, -1
     435 00007c 4EF9          AADD #-7, SP
     436                      .dwcfi  cfa_offset, 8
     437              $C$DW$64        .dwtag  DW_TAG_variable, DW_AT_name("pAppClassHandle")
     438                      .dwattr $C$DW$64, DW_AT_TI_symbol_name("_pAppClassHandle")
     439                      .dwattr $C$DW$64, DW_AT_type(*$C$DW$T$99)
     440                      .dwattr $C$DW$64, DW_AT_location[DW_OP_bregx 0x24 0]
     441              $C$DW$65        .dwtag  DW_TAG_variable, DW_AT_name("pHandle")
     442                      .dwattr $C$DW$65, DW_AT_TI_symbol_name("_pHandle")
     443                      .dwattr $C$DW$65, DW_AT_type(*$C$DW$T$95)
     444                      .dwattr $C$DW$65, DW_AT_location[DW_OP_bregx 0x24 2]
     445              $C$DW$66        .dwtag  DW_TAG_variable, DW_AT_name("status")
     446                      .dwattr $C$DW$66, DW_AT_TI_symbol_name("_status")
     447                      .dwattr $C$DW$66, DW_AT_type(*$C$DW$T$108)
     448                      .dwattr $C$DW$66, DW_AT_location[DW_OP_bregx 0x24 4]
     449              $C$DW$67        .dwtag  DW_TAG_variable, DW_AT_name("eventMask")
     450                      .dwattr $C$DW$67, DW_AT_TI_symbol_name("_eventMask")
     451                      .dwattr $C$DW$67, DW_AT_type(*$C$DW$T$25)
     452                      .dwattr $C$DW$67, DW_AT_location[DW_OP_bregx 0x24 5]
     453 00007e EB00          MOV XAR0, dbl(*SP(#0))
         000080 85   
     454                      .dwpsn  file "../c5535_bsl_revc/ezdsp5535_v1/c55xx_csl/src/csl_audioClass.c",line 78,column 2,is_stmt
     455 000081 E608          MOV #0, *SP(#4) ; |78| 
         000083 00   
     456                      .dwpsn  file "../c5535_bsl_revc/ezdsp5535_v1/c55xx_csl/src/csl_audioClass.c",line 79,column 2,is_stmt
     457 000084 ED00          MOV dbl(*SP(#0)), XAR3
         000086 BF   
     458 000087 ED61          MOV dbl(*AR3), XAR3
         000089 BF   
     459 00008a EB04          MOV XAR3, dbl(*SP(#2))
         00008c B5   
     460                      .dwpsn  file "../c5535_bsl_revc/ezdsp5535_v1/c55xx_csl/src/csl_audioClass.c",line 81,column 2,is_stmt
     461 00008d ED00          MOV dbl(*SP(#0)), XAR3
         00008f BF   
     462 000090 90B0          MOV XAR3, AC0
TMS320C55x Assembler PC v4.4.1 Fri Sep 07 02:27:33 2018

Tools Copyright (c) 1996-2012 Texas Instruments Incorporated
csl_audioClass.asm                                                   PAGE   10

     463 000092 6D00          BCC $C$L6,AC0 == #0 ; |81| 
         000094 0225 
     464                                                      ; branchcc occurs ; |81| 
     465                      .dwpsn  file "../c5535_bsl_revc/ezdsp5535_v1/c55xx_csl/src/csl_audioClass.c",line 84,column 3,is_stmt
     466 000096 A979          MOV *AR3(short(#4)), AR1 ; |84| 
     467 000098 6589          BCC $C$L5,AR1 == #0 ; |84| 
     468                                                      ; branchcc occurs ; |84| 
     469                      .dwpsn  file "../c5535_bsl_revc/ezdsp5535_v1/c55xx_csl/src/csl_audioClass.c",line 86,column 4,is_stmt
     470 00009a A979          MOV *AR3(short(#4)), AR1 ; |86| 
     471 00009c ED04          MOV dbl(*SP(#2)), XAR3
         00009e BF   
     472 00009f 4219          SUB #1, AR1 ; |86| 
     473 0000a1 C96D          MOV AR1, *AR3(#750) ; |86| 
         0000a3 02EE 
     474 0000a5       $C$L5:    
     475                      .dwpsn  file "../c5535_bsl_revc/ezdsp5535_v1/c55xx_csl/src/csl_audioClass.c",line 89,column 3,is_stmt
     476 0000a5 ED04          MOV dbl(*SP(#2)), XAR3
         0000a7 BF   
     477 0000a8 E66D          MOV #0, *AR3(#20) ; |89| 
         0000aa 0000 
         0000ac 14   
     478                      .dwpsn  file "../c5535_bsl_revc/ezdsp5535_v1/c55xx_csl/src/csl_audioClass.c",line 92,column 3,is_stmt
     479 0000ad ED04          MOV dbl(*SP(#2)), XAR3
         0000af BF   
     480 0000b0 E66D          MOV #0, *AR3(#42) ; |92| 
         0000b2 0000 
         0000b4 2A   
     481                      .dwpsn  file "../c5535_bsl_revc/ezdsp5535_v1/c55xx_csl/src/csl_audioClass.c",line 93,column 3,is_stmt
     482 0000b5 ED04          MOV dbl(*SP(#2)), XAR3
         0000b7 BF   
     483 0000b8 E66D          MOV #0, *AR3(#368) ; |93| 
         0000ba 0001 
         0000bc 70   
     484                      .dwpsn  file "../c5535_bsl_revc/ezdsp5535_v1/c55xx_csl/src/csl_audioClass.c",line 96,column 3,is_stmt
     485 0000bd ED04          MOV dbl(*SP(#2)), XAR3
         0000bf BF   
     486 0000c0 ED04          MOV dbl(*SP(#2)), XAR2
         0000c2 AF   
     487 0000c3 1416          AADD #22, AR3 ; |96| 
         0000c5 B4   
     488 0000c6 EB4D          MOV XAR3, dbl(*AR2(#44))
         0000c8 B500 
         0000ca 2C   
     489                      .dwpsn  file "../c5535_bsl_revc/ezdsp5535_v1/c55xx_csl/src/csl_audioClass.c",line 97,column 3,is_stmt
     490 0000cb ED04          MOV dbl(*SP(#2)), XAR2
         0000cd AF   
     491 0000ce ED04          MOV dbl(*SP(#2)), XAR3
         0000d0 BF   
     492 0000d1 EB4D          MOV XAR3, dbl(*AR2(#46))
         0000d3 B500 
         0000d5 2E   
     493                      .dwpsn  file "../c5535_bsl_revc/ezdsp5535_v1/c55xx_csl/src/csl_audioClass.c",line 98,column 3,is_stmt
     494 0000d6 ED04          MOV dbl(*SP(#2)), XAR3
         0000d8 BF   
     495 0000d9 ED04          MOV dbl(*SP(#2)), XAR2
TMS320C55x Assembler PC v4.4.1 Fri Sep 07 02:27:33 2018

Tools Copyright (c) 1996-2012 Texas Instruments Incorporated
csl_audioClass.asm                                                   PAGE   11

         0000db AF   
     496 0000dc B46F          AMAR *+AR3(#730) ; |98| 
         0000de 02DA 
     497 0000e0 EB4D          MOV XAR3, dbl(*AR2(#48))
         0000e2 B500 
         0000e4 30   
     498                      .dwpsn  file "../c5535_bsl_revc/ezdsp5535_v1/c55xx_csl/src/csl_audioClass.c",line 99,column 3,is_stmt
     499 0000e5 ED04          MOV dbl(*SP(#2)), XAR3
         0000e7 BF   
     500 0000e8 ED04          MOV dbl(*SP(#2)), XAR2
         0000ea AF   
     501 0000eb B46F          AMAR *+AR3(#710) ; |99| 
         0000ed 02C6 
     502 0000ef EB4D          MOV XAR3, dbl(*AR2(#50))
         0000f1 B500 
         0000f3 32   
     503                      .dwpsn  file "../c5535_bsl_revc/ezdsp5535_v1/c55xx_csl/src/csl_audioClass.c",line 100,column 3,is_stm
     504 0000f4 ED04          MOV dbl(*SP(#2)), XAR3
         0000f6 BF   
     505 0000f7 3C00          MOV #0, AC0 ; |100| 
     506 0000f9 EB6D          MOV AC0, dbl(*AR3(#52))
         0000fb 0800 
         0000fd 34   
     507                      .dwpsn  file "../c5535_bsl_revc/ezdsp5535_v1/c55xx_csl/src/csl_audioClass.c",line 102,column 3,is_stm
     508 0000fe ED04          MOV dbl(*SP(#2)), XAR3
         000100 BF   
     509 000101 E66D          MOV #0, *AR3(#90) ; |102| 
         000103 0000 
         000105 5A   
     510                      .dwpsn  file "../c5535_bsl_revc/ezdsp5535_v1/c55xx_csl/src/csl_audioClass.c",line 103,column 3,is_stm
     511 000106 ED04          MOV dbl(*SP(#2)), XAR3
         000108 BF   
     512 000109 FB6D          MOV #41344, *AR3(#91) ; |103| 
         00010b A180 
         00010d 005B 
     513                      .dwpsn  file "../c5535_bsl_revc/ezdsp5535_v1/c55xx_csl/src/csl_audioClass.c",line 105,column 3,is_stm
     514 00010f ED04          MOV dbl(*SP(#2)), XAR3
         000111 BF   
     515 000112 E66D          MOV #0, *AR3(#94) ; |105| 
         000114 0000 
         000116 5E   
     516                      .dwpsn  file "../c5535_bsl_revc/ezdsp5535_v1/c55xx_csl/src/csl_audioClass.c",line 106,column 3,is_stm
     517 000117 ED04          MOV dbl(*SP(#2)), XAR3
         000119 BF   
     518 00011a E66D          MOV #0, *AR3(#95) ; |106| 
         00011c 0000 
         00011e 5F   
     519                      .dwpsn  file "../c5535_bsl_revc/ezdsp5535_v1/c55xx_csl/src/csl_audioClass.c",line 108,column 3,is_stm
     520 00011f ED04          MOV dbl(*SP(#2)), XAR3
         000121 BF   
     521 000122 E66D          MOV #0, *AR3(#98) ; |108| 
         000124 0000 
         000126 62   
     522                      .dwpsn  file "../c5535_bsl_revc/ezdsp5535_v1/c55xx_csl/src/csl_audioClass.c",line 109,column 3,is_stm
     523 000127 ED04          MOV dbl(*SP(#2)), XAR3
TMS320C55x Assembler PC v4.4.1 Fri Sep 07 02:27:33 2018

Tools Copyright (c) 1996-2012 Texas Instruments Incorporated
csl_audioClass.asm                                                   PAGE   12

         000129 BF   
     524 00012a FB6D          MOV #384, *AR3(#99) ; |109| 
         00012c 0180 
         00012e 0063 
     525                      .dwpsn  file "../c5535_bsl_revc/ezdsp5535_v1/c55xx_csl/src/csl_audioClass.c",line 112,column 3,is_stm
     526 000130 ED00          MOV dbl(*SP(#0)), XAR2
         000132 AF   
     527 000133 ED04          MOV dbl(*SP(#2)), XAR3
         000135 BF   
     528 000136 ED4D          MOV dbl(*AR2(#8)), XAR2
         000138 AF00 
         00013a 08   
     529 00013b B46F          AMAR *+AR3(#356) ; |112| 
         00013d 0164 
     530 00013f EB41          MOV XAR3, dbl(*AR2)
         000141 B5   
     531                      .dwpsn  file "../c5535_bsl_revc/ezdsp5535_v1/c55xx_csl/src/csl_audioClass.c",line 115,column 3,is_stm
     532 000142 ED00          MOV dbl(*SP(#0)), XAR3
         000144 BF   
     533 000145 ED04          MOV dbl(*SP(#2)), XAR2
         000147 AF   
     534 000148 ED6D          MOV dbl(*AR3(#8)), XAR3
         00014a BF00 
         00014c 08   
     535 00014d EB4D          MOV XAR3, dbl(*AR2(#388))
         00014f B501 
         000151 84   
     536                      .dwpsn  file "../c5535_bsl_revc/ezdsp5535_v1/c55xx_csl/src/csl_audioClass.c",line 116,column 3,is_stm
     537 000152 ED00          MOV dbl(*SP(#0)), XAR3
         000154 BF   
     538 000155 ED04          MOV dbl(*SP(#2)), XAR2
         000157 AF   
     539 000158 ED6D          MOV dbl(*AR3(#12)), XAR3
         00015a BF00 
         00015c 0C   
     540 00015d EB4D          MOV XAR3, dbl(*AR2(#390))
         00015f B501 
         000161 86   
     541                      .dwpsn  file "../c5535_bsl_revc/ezdsp5535_v1/c55xx_csl/src/csl_audioClass.c",line 117,column 3,is_stm
     542 000162 ED00          MOV dbl(*SP(#0)), XAR3
         000164 BF   
     543 000165 ED04          MOV dbl(*SP(#2)), XAR2
         000167 AF   
     544 000168 ED6D          MOV dbl(*AR3(#10)), XAR3
         00016a BF00 
         00016c 0A   
     545 00016d EB4D          MOV XAR3, dbl(*AR2(#410))
         00016f B501 
         000171 9A   
     546                      .dwpsn  file "../c5535_bsl_revc/ezdsp5535_v1/c55xx_csl/src/csl_audioClass.c",line 119,column 3,is_stm
     547 000172 ED04          MOV dbl(*SP(#2)), XAR3
         000174 BF   
     548 000175 E66D          MOV #1, *AR3(#753) ; |119| 
         000177 0102 
         000179 F1   
TMS320C55x Assembler PC v4.4.1 Fri Sep 07 02:27:33 2018

Tools Copyright (c) 1996-2012 Texas Instruments Incorporated
csl_audioClass.asm                                                   PAGE   13

     549                      .dwpsn  file "../c5535_bsl_revc/ezdsp5535_v1/c55xx_csl/src/csl_audioClass.c",line 120,column 3,is_stm
     550 00017a ED04          MOV dbl(*SP(#2)), XAR3
         00017c BF   
     551 00017d E66D          MOV #0, *AR3(#752) ; |120| 
         00017f 0002 
         000181 F0   
     552                      .dwpsn  file "../c5535_bsl_revc/ezdsp5535_v1/c55xx_csl/src/csl_audioClass.c",line 123,column 3,is_stm
     553 000182 ED00          MOV dbl(*SP(#0)), XAR3
         000184 BF   
     554 000185 ED04          MOV dbl(*SP(#2)), XAR2
         000187 AF   
     555 000188 ED6D          MOV dbl(*AR3(#10)), XAR3
         00018a BF00 
         00018c 0A   
     556 00018d EB4D          MOV XAR3, dbl(*AR2(#410))
         00018f B501 
         000191 9A   
     557                      .dwpsn  file "../c5535_bsl_revc/ezdsp5535_v1/c55xx_csl/src/csl_audioClass.c",line 126,column 3,is_stm
     558 000192 ED04          MOV dbl(*SP(#2)), XAR0
         000194 8F   
     559 000195 B40F          AMAR *+AR0(#394) ; |126| 
         000197 018A 
     560              $C$DW$68        .dwtag  DW_TAG_TI_branch
     561                      .dwattr $C$DW$68, DW_AT_low_pc(0x00)
     562                      .dwattr $C$DW$68, DW_AT_name("_AC_initAcVal")
     563                      .dwattr $C$DW$68, DW_AT_TI_call
     564 000199 0806          CALL #_AC_initAcVal ; |126| 
         00019b 14   
     565                                                      ; call occurs [#_AC_initAcVal] ; |126| 
     566                      .dwpsn  file "../c5535_bsl_revc/ezdsp5535_v1/c55xx_csl/src/csl_audioClass.c",line 128,column 3,is_stm
     567 00019c ED00          MOV dbl(*SP(#0)), XAR3
         00019e BF   
     568 00019f 7601          MOV #394, T0 ; |128| 
         0001a1 8A48 
     569 0001a3 ED04          MOV dbl(*SP(#2)), XAR2
         0001a5 AF   
     570 0001a6 1416          AADD #22, AR3 ; |128| 
         0001a8 B4   
     571 0001a9 8061          MOV dbl(*AR3), dbl(*AR2(T0)) ; |128| 
         0001ab 70   
     572                      .dwpsn  file "../c5535_bsl_revc/ezdsp5535_v1/c55xx_csl/src/csl_audioClass.c",line 129,column 3,is_stm
     573 0001ac ED00          MOV dbl(*SP(#0)), XAR3
         0001ae BF   
     574 0001af 7601          MOV #396, T0 ; |129| 
         0001b1 8C48 
     575 0001b3 ED04          MOV dbl(*SP(#2)), XAR2
         0001b5 AF   
     576 0001b6 1412          AADD #18, AR3 ; |129| 
         0001b8 B4   
     577 0001b9 8061          MOV dbl(*AR3), dbl(*AR2(T0)) ; |129| 
         0001bb 70   
     578                      .dwpsn  file "../c5535_bsl_revc/ezdsp5535_v1/c55xx_csl/src/csl_audioClass.c",line 130,column 3,is_stm
     579 0001bc ED00          MOV dbl(*SP(#0)), XAR3
         0001be BF   
     580 0001bf 7601          MOV #400, T0 ; |130| 
TMS320C55x Assembler PC v4.4.1 Fri Sep 07 02:27:33 2018

Tools Copyright (c) 1996-2012 Texas Instruments Incorporated
csl_audioClass.asm                                                   PAGE   14

         0001c1 9048 
     581 0001c3 ED04          MOV dbl(*SP(#2)), XAR2
         0001c5 AF   
     582 0001c6 1418          AADD #24, AR3 ; |130| 
         0001c8 B4   
     583 0001c9 8061          MOV dbl(*AR3), dbl(*AR2(T0)) ; |130| 
         0001cb 70   
     584                      .dwpsn  file "../c5535_bsl_revc/ezdsp5535_v1/c55xx_csl/src/csl_audioClass.c",line 132,column 3,is_stm
     585 0001cc ED00          MOV dbl(*SP(#0)), XAR3
         0001ce BF   
     586 0001cf 7601          MOV #402, T0 ; |132| 
         0001d1 9248 
     587 0001d3 ED04          MOV dbl(*SP(#2)), XAR2
         0001d5 AF   
     588 0001d6 141A          AADD #26, AR3 ; |132| 
         0001d8 B4   
     589 0001d9 8061          MOV dbl(*AR3), dbl(*AR2(T0)) ; |132| 
         0001db 70   
     590                      .dwpsn  file "../c5535_bsl_revc/ezdsp5535_v1/c55xx_csl/src/csl_audioClass.c",line 133,column 3,is_stm
     591 0001dc ED00          MOV dbl(*SP(#0)), XAR3
         0001de BF   
     592 0001df 7601          MOV #404, T0 ; |133| 
         0001e1 9448 
     593 0001e3 ED04          MOV dbl(*SP(#2)), XAR2
         0001e5 AF   
     594 0001e6 141C          AADD #28, AR3 ; |133| 
         0001e8 B4   
     595 0001e9 8061          MOV dbl(*AR3), dbl(*AR2(T0)) ; |133| 
         0001eb 70   
     596                      .dwpsn  file "../c5535_bsl_revc/ezdsp5535_v1/c55xx_csl/src/csl_audioClass.c",line 134,column 3,is_stm
     597 0001ec ED00          MOV dbl(*SP(#0)), XAR3
         0001ee BF   
     598 0001ef 7601          MOV #406, T0 ; |134| 
         0001f1 9648 
     599 0001f3 ED04          MOV dbl(*SP(#2)), XAR2
         0001f5 AF   
     600 0001f6 141E          AADD #30, AR3 ; |134| 
         0001f8 B4   
     601 0001f9 8061          MOV dbl(*AR3), dbl(*AR2(T0)) ; |134| 
         0001fb 70   
     602                      .dwpsn  file "../c5535_bsl_revc/ezdsp5535_v1/c55xx_csl/src/csl_audioClass.c",line 135,column 3,is_stm
     603 0001fc ED00          MOV dbl(*SP(#0)), XAR3
         0001fe BF   
     604 0001ff 7601          MOV #408, T0 ; |135| 
         000201 9848 
     605 000203 ED04          MOV dbl(*SP(#2)), XAR2
         000205 AF   
     606 000206 1420          AADD #32, AR3 ; |135| 
         000208 B4   
     607 000209 8061          MOV dbl(*AR3), dbl(*AR2(T0)) ; |135| 
         00020b 70   
     608                      .dwpsn  file "../c5535_bsl_revc/ezdsp5535_v1/c55xx_csl/src/csl_audioClass.c",line 136,column 3,is_stm
     609 00020c ED00          MOV dbl(*SP(#0)), XAR3
         00020e BF   
     610 00020f 7601          MOV #398, T0 ; |136| 
TMS320C55x Assembler PC v4.4.1 Fri Sep 07 02:27:33 2018

Tools Copyright (c) 1996-2012 Texas Instruments Incorporated
csl_audioClass.asm                                                   PAGE   15

         000211 8E48 
     611 000213 ED04          MOV dbl(*SP(#2)), XAR2
         000215 AF   
     612 000216 1414          AADD #20, AR3 ; |136| 
         000218 B4   
     613 000219 8061          MOV dbl(*AR3), dbl(*AR2(T0)) ; |136| 
         00021b 70   
     614                      .dwpsn  file "../c5535_bsl_revc/ezdsp5535_v1/c55xx_csl/src/csl_audioClass.c",line 139,column 3,is_stm
     615 00021c ED00          MOV dbl(*SP(#0)), XAR3
         00021e BF   
     616 00021f A977          MOV *AR3(short(#3)), AR1 ; |139| 
     617 000221 ED04          MOV dbl(*SP(#2)), XAR3
         000223 BF   
     618 000224 C96D          MOV AR1, *AR3(#182) ; |139| 
         000226 00B6 
     619                      .dwpsn  file "../c5535_bsl_revc/ezdsp5535_v1/c55xx_csl/src/csl_audioClass.c",line 140,column 3,is_stm
     620 000228 ED00          MOV dbl(*SP(#0)), XAR3
         00022a BF   
     621 00022b A975          MOV *AR3(short(#2)), AR1 ; |140| 
     622 00022d ED04          MOV dbl(*SP(#2)), XAR3
         00022f BF   
     623 000230 C96D          MOV AR1, *AR3(#183) ; |140| 
         000232 00B7 
     624                      .dwpsn  file "../c5535_bsl_revc/ezdsp5535_v1/c55xx_csl/src/csl_audioClass.c",line 143,column 3,is_stm
     625 000234 E60A          MOV #61, *SP(#5) ; |143| 
         000236 3D   
     626                      .dwpsn  file "../c5535_bsl_revc/ezdsp5535_v1/c55xx_csl/src/csl_audioClass.c",line 147,column 3,is_stm
     627 000237 ED04          MOV dbl(*SP(#2)), XAR3
         000239 BF   
     628 00023a A46D          MOV *AR3(#20), T0 ; |147| 
         00023c 0014 
     629 00023e ED00          MOV dbl(*SP(#0)), XAR3
         000240 BF   
     630 000241 ED04          MOV dbl(*SP(#2)), XAR0
         000243 8F   
     631              
     632 000244 7600          MOV #64, AR2 ; |147| 
         000246 40A8 
     633 000248 3D05  ||      MOV #0, T1
     634              
     635 00024a ED6D          MOV dbl(*AR3(#16)), AC0 ; |147| 
         00024c 0800 
         00024e 10   
     636              
     637 00024f 8A0A          MOV *SP(#5), AR3 ; |147| 
         000251 8B1C 
         000253 16   
     638              ||      AADD #22, AR0 ; |147| 
     639              
     640              $C$DW$69        .dwtag  DW_TAG_TI_branch
     641                      .dwattr $C$DW$69, DW_AT_low_pc(0x00)
     642                      .dwattr $C$DW$69, DW_AT_name("_USB_initEndptObj")
     643                      .dwattr $C$DW$69, DW_AT_TI_call
     644              
     645 000254 6C00          CALL #_USB_initEndptObj ; |147| 
TMS320C55x Assembler PC v4.4.1 Fri Sep 07 02:27:33 2018

Tools Copyright (c) 1996-2012 Texas Instruments Incorporated
csl_audioClass.asm                                                   PAGE   16

         000256 0000!
     646 000258 3D09  ||      MOV #0, AR1
     647              
     648                                                      ; call occurs [#_USB_initEndptObj] ; |147| 
     649                      .dwpsn  file "../c5535_bsl_revc/ezdsp5535_v1/c55xx_csl/src/csl_audioClass.c",line 156,column 3,is_stm
     650 00025a ED04          MOV dbl(*SP(#2)), XAR3
         00025c BF   
     651 00025d A46D          MOV *AR3(#20), T0 ; |156| 
         00025f 0014 
     652 000261 ED00          MOV dbl(*SP(#0)), XAR3
         000263 BF   
     653 000264 7600          MOV #64, AR2 ; |156| 
         000266 40A8 
     654 000268 ED04          MOV dbl(*SP(#2)), XAR0
         00026a 8F   
     655 00026b ED6D          MOV dbl(*AR3(#16)), AC0 ; |156| 
         00026d 0800 
         00026f 10   
     656              
     657 000270 7600          MOV #32, AR3 ; |156| 
         000272 20B8 
     658 000274 3D85  ||      MOV #8, T1
     659              
     660              $C$DW$70        .dwtag  DW_TAG_TI_branch
     661                      .dwattr $C$DW$70, DW_AT_low_pc(0x00)
     662                      .dwattr $C$DW$70, DW_AT_name("_USB_initEndptObj")
     663                      .dwattr $C$DW$70, DW_AT_TI_call
     664              
     665 000276 6C00          CALL #_USB_initEndptObj ; |156| 
         000278 0000!
     666 00027a 3D09  ||      MOV #0, AR1
     667              
     668                                                      ; call occurs [#_USB_initEndptObj] ; |156| 
     669                      .dwpsn  file "../c5535_bsl_revc/ezdsp5535_v1/c55xx_csl/src/csl_audioClass.c",line 166,column 3,is_stm
     670 00027c ED04          MOV dbl(*SP(#2)), XAR3
         00027e BF   
     671 00027f ED04          MOV dbl(*SP(#2)), XAR0
         000281 8F   
     672 000282 A46D          MOV *AR3(#20), T0 ; |166| 
         000284 0014 
     673 000286 ED00          MOV dbl(*SP(#0)), XAR3
         000288 BF   
     674 000289 B40F          AMAR *+AR0(#730) ; |166| 
         00028b 02DA 
     675 00028d AA7D          MOV *AR3(short(#6)), AR2 ; |166| 
     676 00028f ED6D          MOV dbl(*AR3(#14)), AC0 ; |166| 
         000291 0800 
         000293 0E   
     677              
     678 000294 7600          MOV #32, AR3 ; |166| 
         000296 20B8 
     679 000298 3D25  ||      MOV #2, T1
     680              
     681              $C$DW$71        .dwtag  DW_TAG_TI_branch
     682                      .dwattr $C$DW$71, DW_AT_low_pc(0x00)
TMS320C55x Assembler PC v4.4.1 Fri Sep 07 02:27:33 2018

Tools Copyright (c) 1996-2012 Texas Instruments Incorporated
csl_audioClass.asm                                                   PAGE   17

     683                      .dwattr $C$DW$71, DW_AT_name("_USB_initEndptObj")
     684                      .dwattr $C$DW$71, DW_AT_TI_call
     685              
     686 00029a 6C00          CALL #_USB_initEndptObj ; |166| 
         00029c 0000!
     687 00029e 3D39  ||      MOV #3, AR1
     688              
     689                                                      ; call occurs [#_USB_initEndptObj] ; |166| 
     690                      .dwpsn  file "../c5535_bsl_revc/ezdsp5535_v1/c55xx_csl/src/csl_audioClass.c",line 175,column 3,is_stm
     691 0002a0 ED04          MOV dbl(*SP(#2)), XAR0
         0002a2 8F   
     692              
     693 0002a3 142C          AADD #44, AR0 ; |175| 
         0002a5 84   
     694 0002a6 3D04  ||      MOV #0, T0
     695              
     696              $C$DW$72        .dwtag  DW_TAG_TI_branch
     697                      .dwattr $C$DW$72, DW_AT_low_pc(0x00)
     698                      .dwattr $C$DW$72, DW_AT_name("_USB_setParams")
     699                      .dwattr $C$DW$72, DW_AT_TI_call
     700              
     701 0002a8 6C00          CALL #_USB_setParams ; |175| 
         0002aa 0000!
     702 0002ac 3D05  ||      MOV #0, T1
     703              
     704                                                      ; call occurs [#_USB_setParams] ; |175| 
     705                      .dwpsn  file "../c5535_bsl_revc/ezdsp5535_v1/c55xx_csl/src/csl_audioClass.c",line 177,column 3,is_stm
     706 0002ae ED04          MOV dbl(*SP(#2)), XAR3
         0002b0 BF   
     707 0002b1 A46D          MOV *AR3(#20), T0 ; |177| 
         0002b3 0014 
     708              $C$DW$73        .dwtag  DW_TAG_TI_branch
     709                      .dwattr $C$DW$73, DW_AT_low_pc(0x00)
     710                      .dwattr $C$DW$73, DW_AT_name("_USB_connectDev")
     711                      .dwattr $C$DW$73, DW_AT_TI_call
     712 0002b5 6C00          CALL #_USB_connectDev ; |177| 
         0002b7 0000!
     713                                                      ; call occurs [#_USB_connectDev] ; |177| 
     714                      .dwpsn  file "../c5535_bsl_revc/ezdsp5535_v1/c55xx_csl/src/csl_audioClass.c",line 178,column 2,is_stm
     715 0002b9 4A03          B $C$L7   ; |178| 
     716                                                      ; branch occurs ; |178| 
     717 0002bb       $C$L6:    
     718                      .dwpsn  file "../c5535_bsl_revc/ezdsp5535_v1/c55xx_csl/src/csl_audioClass.c",line 181,column 3,is_stm
     719 0002bb E608          MOV #-5, *SP(#4) ; |181| 
         0002bd FB   
     720 0002be       $C$L7:    
     721                      .dwpsn  file "../c5535_bsl_revc/ezdsp5535_v1/c55xx_csl/src/csl_audioClass.c",line 184,column 2,is_stm
     722 0002be A408          MOV *SP(#4), T0 ; |184| 
     723                      .dwpsn  file "../c5535_bsl_revc/ezdsp5535_v1/c55xx_csl/src/csl_audioClass.c",line 185,column 1,is_stm
     724 0002c0 4E07          AADD #7, SP
     725                      .dwcfi  cfa_offset, 1
     726              $C$DW$74        .dwtag  DW_TAG_TI_branch
     727                      .dwattr $C$DW$74, DW_AT_low_pc(0x00)
     728                      .dwattr $C$DW$74, DW_AT_TI_return
     729 0002c2 4804          RET
TMS320C55x Assembler PC v4.4.1 Fri Sep 07 02:27:33 2018

Tools Copyright (c) 1996-2012 Texas Instruments Incorporated
csl_audioClass.asm                                                   PAGE   18

     730                                                      ; return occurs
     731                      .dwattr $C$DW$62, DW_AT_TI_end_file("../c5535_bsl_revc/ezdsp5535_v1/c55xx_csl/src/csl_audioClass.c")
     732                      .dwattr $C$DW$62, DW_AT_TI_end_line(0xb9)
     733                      .dwattr $C$DW$62, DW_AT_TI_end_column(0x01)
     734                      .dwendentry
     735                      .dwendtag $C$DW$62
     736              
     737 0002c4               .sect   ".text"
     738                      .align 4
     739                      .global _AC_Close
     740              
     741              $C$DW$75        .dwtag  DW_TAG_subprogram, DW_AT_name("AC_Close")
     742                      .dwattr $C$DW$75, DW_AT_low_pc(_AC_Close)
     743                      .dwattr $C$DW$75, DW_AT_high_pc(0x00)
     744                      .dwattr $C$DW$75, DW_AT_TI_symbol_name("_AC_Close")
     745                      .dwattr $C$DW$75, DW_AT_external
     746                      .dwattr $C$DW$75, DW_AT_type(*$C$DW$T$108)
     747                      .dwattr $C$DW$75, DW_AT_TI_begin_file("../c5535_bsl_revc/ezdsp5535_v1/c55xx_csl/src/csl_audioClass.c"
     748                      .dwattr $C$DW$75, DW_AT_TI_begin_line(0xe7)
     749                      .dwattr $C$DW$75, DW_AT_TI_begin_column(0x0c)
     750                      .dwattr $C$DW$75, DW_AT_TI_max_frame_size(0x08)
     751                      .dwpsn  file "../c5535_bsl_revc/ezdsp5535_v1/c55xx_csl/src/csl_audioClass.c",line 232,column 1,is_stm
     752              
     753                      .dwfde $C$DW$CIE, _AC_Close
     754              $C$DW$76        .dwtag  DW_TAG_formal_parameter, DW_AT_name("pAppClassHandle")
     755                      .dwattr $C$DW$76, DW_AT_TI_symbol_name("_pAppClassHandle")
     756                      .dwattr $C$DW$76, DW_AT_type(*$C$DW$T$99)
     757                      .dwattr $C$DW$76, DW_AT_location[DW_OP_reg17]
     758              ;*******************************************************************************
     759              ;* FUNCTION NAME: AC_Close                                                     *
     760              ;*                                                                             *
     761              ;*   Function Uses Regs : AC0,AC0,T0,AR0,XAR0,AR3,XAR3,SP,M40,SATA,SATD,RDM,   *
     762              ;*                        FRCT,SMUL                                            *
     763              ;*   Stack Frame        : Compact (No Frame Pointer, w/ debug)                 *
     764              ;*   Total Frame Size   : 8 words                                              *
     765              ;*                        (1 return address/alignment)                         *
     766              ;*                        (7 local values)                                     *
     767              ;*   Min System Stack   : 1 word                                               *
     768              ;*******************************************************************************
     769 0002c4       _AC_Close:
     770                      .dwcfi  cfa_offset, 1
     771                      .dwcfi  save_reg_to_mem, 91, -1
     772 0002c4 4EF9          AADD #-7, SP
     773                      .dwcfi  cfa_offset, 8
     774              $C$DW$77        .dwtag  DW_TAG_variable, DW_AT_name("pAppClassHandle")
     775                      .dwattr $C$DW$77, DW_AT_TI_symbol_name("_pAppClassHandle")
     776                      .dwattr $C$DW$77, DW_AT_type(*$C$DW$T$99)
     777                      .dwattr $C$DW$77, DW_AT_location[DW_OP_bregx 0x24 0]
     778              $C$DW$78        .dwtag  DW_TAG_variable, DW_AT_name("pAcClassHdl")
     779                      .dwattr $C$DW$78, DW_AT_TI_symbol_name("_pAcClassHdl")
     780                      .dwattr $C$DW$78, DW_AT_type(*$C$DW$T$95)
     781                      .dwattr $C$DW$78, DW_AT_location[DW_OP_bregx 0x24 2]
     782              $C$DW$79        .dwtag  DW_TAG_variable, DW_AT_name("pCtrlHandle")
     783                      .dwattr $C$DW$79, DW_AT_TI_symbol_name("_pCtrlHandle")
     784                      .dwattr $C$DW$79, DW_AT_type(*$C$DW$T$96)
TMS320C55x Assembler PC v4.4.1 Fri Sep 07 02:27:33 2018

Tools Copyright (c) 1996-2012 Texas Instruments Incorporated
csl_audioClass.asm                                                   PAGE   19

     785                      .dwattr $C$DW$79, DW_AT_location[DW_OP_bregx 0x24 4]
     786              $C$DW$80        .dwtag  DW_TAG_variable, DW_AT_name("status")
     787                      .dwattr $C$DW$80, DW_AT_TI_symbol_name("_status")
     788                      .dwattr $C$DW$80, DW_AT_type(*$C$DW$T$108)
     789                      .dwattr $C$DW$80, DW_AT_location[DW_OP_bregx 0x24 6]
     790 0002c6 EB00          MOV XAR0, dbl(*SP(#0))
         0002c8 85   
     791                      .dwpsn  file "../c5535_bsl_revc/ezdsp5535_v1/c55xx_csl/src/csl_audioClass.c",line 237,column 2,is_stm
     792 0002c9 ED00          MOV dbl(*SP(#0)), XAR3
         0002cb BF   
     793 0002cc ED61          MOV dbl(*AR3), XAR3
         0002ce BF   
     794 0002cf EB04          MOV XAR3, dbl(*SP(#2))
         0002d1 B5   
     795                      .dwpsn  file "../c5535_bsl_revc/ezdsp5535_v1/c55xx_csl/src/csl_audioClass.c",line 238,column 2,is_stm
     796 0002d2 EB08          MOV XAR3, dbl(*SP(#4))
         0002d4 B5   
     797                      .dwpsn  file "../c5535_bsl_revc/ezdsp5535_v1/c55xx_csl/src/csl_audioClass.c",line 239,column 2,is_stm
     798 0002d5 E60C          MOV #0, *SP(#6) ; |239| 
         0002d7 00   
     799                      .dwpsn  file "../c5535_bsl_revc/ezdsp5535_v1/c55xx_csl/src/csl_audioClass.c",line 241,column 2,is_stm
     800 0002d8 ED00          MOV dbl(*SP(#0)), XAR3
         0002da BF   
     801 0002db 90B0          MOV XAR3, AC0
     802 0002dd 0400          BCC $C$L8,AC0 == #0 ; |241| 
         0002df 17   
     803                                                      ; branchcc occurs ; |241| 
     804                      .dwpsn  file "../c5535_bsl_revc/ezdsp5535_v1/c55xx_csl/src/csl_audioClass.c",line 243,column 3,is_stm
     805 0002e0 ED08          MOV dbl(*SP(#4)), XAR3
         0002e2 BF   
     806 0002e3 A46D          MOV *AR3(#20), T0 ; |243| 
         0002e5 0014 
     807              $C$DW$81        .dwtag  DW_TAG_TI_branch
     808                      .dwattr $C$DW$81, DW_AT_low_pc(0x00)
     809                      .dwattr $C$DW$81, DW_AT_name("_USB_disconnectDev")
     810                      .dwattr $C$DW$81, DW_AT_TI_call
     811 0002e7 6C00          CALL #_USB_disconnectDev ; |243| 
         0002e9 0000!
     812                                                      ; call occurs [#_USB_disconnectDev] ; |243| 
     813 0002eb C40C          MOV T0, *SP(#6) ; |243| 
     814                      .dwpsn  file "../c5535_bsl_revc/ezdsp5535_v1/c55xx_csl/src/csl_audioClass.c",line 244,column 3,is_stm
     815 0002ed ED00          MOV dbl(*SP(#0)), XAR3
         0002ef BF   
     816 0002f0 3C00          MOV #0, AC0 ; |244| 
     817 0002f2 EB61          MOV AC0, dbl(*AR3)
         0002f4 08   
     818                      .dwpsn  file "../c5535_bsl_revc/ezdsp5535_v1/c55xx_csl/src/csl_audioClass.c",line 245,column 2,is_stm
     819 0002f5 4A03          B $C$L9   ; |245| 
     820                                                      ; branch occurs ; |245| 
     821 0002f7       $C$L8:    
     822                      .dwpsn  file "../c5535_bsl_revc/ezdsp5535_v1/c55xx_csl/src/csl_audioClass.c",line 248,column 3,is_stm
     823 0002f7 E60C          MOV #-5, *SP(#6) ; |248| 
         0002f9 FB   
     824 0002fa       $C$L9:    
     825                      .dwpsn  file "../c5535_bsl_revc/ezdsp5535_v1/c55xx_csl/src/csl_audioClass.c",line 251,column 2,is_stm
TMS320C55x Assembler PC v4.4.1 Fri Sep 07 02:27:33 2018

Tools Copyright (c) 1996-2012 Texas Instruments Incorporated
csl_audioClass.asm                                                   PAGE   20

     826 0002fa A40C          MOV *SP(#6), T0 ; |251| 
     827                      .dwpsn  file "../c5535_bsl_revc/ezdsp5535_v1/c55xx_csl/src/csl_audioClass.c",line 252,column 1,is_stm
     828 0002fc 4E07          AADD #7, SP
     829                      .dwcfi  cfa_offset, 1
     830              $C$DW$82        .dwtag  DW_TAG_TI_branch
     831                      .dwattr $C$DW$82, DW_AT_low_pc(0x00)
     832                      .dwattr $C$DW$82, DW_AT_TI_return
     833 0002fe 4804          RET
     834                                                      ; return occurs
     835                      .dwattr $C$DW$75, DW_AT_TI_end_file("../c5535_bsl_revc/ezdsp5535_v1/c55xx_csl/src/csl_audioClass.c")
     836                      .dwattr $C$DW$75, DW_AT_TI_end_line(0xfc)
     837                      .dwattr $C$DW$75, DW_AT_TI_end_column(0x01)
     838                      .dwendentry
     839                      .dwendtag $C$DW$75
     840              
     841 000300               .sect   ".text"
     842                      .align 4
     843                      .global _AC_Ctrl
     844              
     845              $C$DW$83        .dwtag  DW_TAG_subprogram, DW_AT_name("AC_Ctrl")
     846                      .dwattr $C$DW$83, DW_AT_low_pc(_AC_Ctrl)
     847                      .dwattr $C$DW$83, DW_AT_high_pc(0x00)
     848                      .dwattr $C$DW$83, DW_AT_TI_symbol_name("_AC_Ctrl")
     849                      .dwattr $C$DW$83, DW_AT_external
     850                      .dwattr $C$DW$83, DW_AT_type(*$C$DW$T$108)
     851                      .dwattr $C$DW$83, DW_AT_TI_begin_file("../c5535_bsl_revc/ezdsp5535_v1/c55xx_csl/src/csl_audioClass.c"
     852                      .dwattr $C$DW$83, DW_AT_TI_begin_line(0x12d)
     853                      .dwattr $C$DW$83, DW_AT_TI_begin_column(0x0c)
     854                      .dwattr $C$DW$83, DW_AT_TI_max_frame_size(0x10)
     855                      .dwpsn  file "../c5535_bsl_revc/ezdsp5535_v1/c55xx_csl/src/csl_audioClass.c",line 302,column 1,is_stm
     856              
     857                      .dwfde $C$DW$CIE, _AC_Ctrl
     858              $C$DW$84        .dwtag  DW_TAG_formal_parameter, DW_AT_name("pAcObj")
     859                      .dwattr $C$DW$84, DW_AT_TI_symbol_name("_pAcObj")
     860                      .dwattr $C$DW$84, DW_AT_type(*$C$DW$T$3)
     861                      .dwattr $C$DW$84, DW_AT_location[DW_OP_reg17]
     862              ;*******************************************************************************
     863              ;* FUNCTION NAME: AC_Ctrl                                                      *
     864              ;*                                                                             *
     865              ;*   Function Uses Regs : AC0,AC0,T0,T1,T2,AR0,XAR0,AR1,XAR1,AR2,XAR2,AR3,XAR3,*
     866              ;*                        SP,CARRY,TC1,M40,SATA,SATD,RDM,FRCT,SMUL             *
     867              ;*   Save On Entry Regs : T2                                                   *
     868              ;*   Stack Frame        : Compact (No Frame Pointer, w/ debug)                 *
     869              ;*   Total Frame Size   : 16 words                                             *
     870              ;*                        (1 return address/alignment)                         *
     871              ;*                        (14 local values)                                    *
     872              ;*                        (1 register save area)                               *
     873              ;*   Min System Stack   : 1 word                                               *
     874              ;*******************************************************************************
     875 000300       _AC_Ctrl:
     876                      .dwcfi  cfa_offset, 1
     877                      .dwcfi  save_reg_to_mem, 91, -1
     878 000300 5066          PSH T2
     879                      .dwcfi  cfa_offset, 2
     880                      .dwcfi  save_reg_to_mem, 14, -2
TMS320C55x Assembler PC v4.4.1 Fri Sep 07 02:27:33 2018

Tools Copyright (c) 1996-2012 Texas Instruments Incorporated
csl_audioClass.asm                                                   PAGE   21

     881 000302 4EF2          AADD #-14, SP
     882                      .dwcfi  cfa_offset, 16
     883              $C$DW$85        .dwtag  DW_TAG_variable, DW_AT_name("pAcObj")
     884                      .dwattr $C$DW$85, DW_AT_TI_symbol_name("_pAcObj")
     885                      .dwattr $C$DW$85, DW_AT_type(*$C$DW$T$3)
     886                      .dwattr $C$DW$85, DW_AT_location[DW_OP_bregx 0x24 0]
     887              $C$DW$86        .dwtag  DW_TAG_variable, DW_AT_name("pAcClassHdl")
     888                      .dwattr $C$DW$86, DW_AT_TI_symbol_name("_pAcClassHdl")
     889                      .dwattr $C$DW$86, DW_AT_type(*$C$DW$T$95)
     890                      .dwattr $C$DW$86, DW_AT_location[DW_OP_bregx 0x24 2]
     891              $C$DW$87        .dwtag  DW_TAG_variable, DW_AT_name("pCtrlHandle")
     892                      .dwattr $C$DW$87, DW_AT_TI_symbol_name("_pCtrlHandle")
     893                      .dwattr $C$DW$87, DW_AT_type(*$C$DW$T$96)
     894                      .dwattr $C$DW$87, DW_AT_location[DW_OP_bregx 0x24 4]
     895              $C$DW$88        .dwtag  DW_TAG_variable, DW_AT_name("reqHandlerRet")
     896                      .dwattr $C$DW$88, DW_AT_TI_symbol_name("_reqHandlerRet")
     897                      .dwattr $C$DW$88, DW_AT_type(*$C$DW$T$44)
     898                      .dwattr $C$DW$88, DW_AT_location[DW_OP_bregx 0x24 6]
     899              $C$DW$89        .dwtag  DW_TAG_variable, DW_AT_name("usbCtrlEvents")
     900                      .dwattr $C$DW$89, DW_AT_TI_symbol_name("_usbCtrlEvents")
     901                      .dwattr $C$DW$89, DW_AT_type(*$C$DW$T$129)
     902                      .dwattr $C$DW$89, DW_AT_location[DW_OP_bregx 0x24 7]
     903              $C$DW$90        .dwtag  DW_TAG_variable, DW_AT_name("hCtrlEpIn")
     904                      .dwattr $C$DW$90, DW_AT_TI_symbol_name("_hCtrlEpIn")
     905                      .dwattr $C$DW$90, DW_AT_type(*$C$DW$T$27)
     906                      .dwattr $C$DW$90, DW_AT_location[DW_OP_bregx 0x24 8]
     907              $C$DW$91        .dwtag  DW_TAG_variable, DW_AT_name("hCtrlEpOut")
     908                      .dwattr $C$DW$91, DW_AT_TI_symbol_name("_hCtrlEpOut")
     909                      .dwattr $C$DW$91, DW_AT_type(*$C$DW$T$27)
     910                      .dwattr $C$DW$91, DW_AT_location[DW_OP_bregx 0x24 10]
     911              $C$DW$92        .dwtag  DW_TAG_variable, DW_AT_name("status")
     912                      .dwattr $C$DW$92, DW_AT_TI_symbol_name("_status")
     913                      .dwattr $C$DW$92, DW_AT_type(*$C$DW$T$108)
     914                      .dwattr $C$DW$92, DW_AT_location[DW_OP_bregx 0x24 12]
     915              $C$DW$93        .dwtag  DW_TAG_variable, DW_AT_name("request")
     916                      .dwattr $C$DW$93, DW_AT_TI_symbol_name("_request")
     917                      .dwattr $C$DW$93, DW_AT_type(*$C$DW$T$25)
     918                      .dwattr $C$DW$93, DW_AT_location[DW_OP_bregx 0x24 13]
     919 000304 EB00          MOV XAR0, dbl(*SP(#0))
         000306 85   
     920                      .dwpsn  file "../c5535_bsl_revc/ezdsp5535_v1/c55xx_csl/src/csl_audioClass.c",line 312,column 5,is_stm
     921 000307 ED00          MOV dbl(*SP(#0)), XAR3
         000309 BF   
     922 00030a 90B0          MOV XAR3, AC0
     923 00030c 6290          BCC $C$L10,AC0 != #0 ; |312| 
     924                                                      ; branchcc occurs ; |312| 
     925                      .dwpsn  file "../c5535_bsl_revc/ezdsp5535_v1/c55xx_csl/src/csl_audioClass.c",line 314,column 3,is_stm
     926 00030e 3E54          MOV #-5, T0
     927 000310 0601          B $C$L23  ; |314| 
         000312 DE   
     928                                                      ; branch occurs ; |314| 
     929 000313       $C$L10:    
     930                      .dwpsn  file "../c5535_bsl_revc/ezdsp5535_v1/c55xx_csl/src/csl_audioClass.c",line 317,column 5,is_stm
     931 000313 EB04          MOV XAR3, dbl(*SP(#2))
         000315 B5   
TMS320C55x Assembler PC v4.4.1 Fri Sep 07 02:27:33 2018

Tools Copyright (c) 1996-2012 Texas Instruments Incorporated
csl_audioClass.asm                                                   PAGE   22

     932                      .dwpsn  file "../c5535_bsl_revc/ezdsp5535_v1/c55xx_csl/src/csl_audioClass.c",line 318,column 5,is_stm
     933 000316 EB08          MOV XAR3, dbl(*SP(#4))
         000318 B5   
     934                      .dwpsn  file "../c5535_bsl_revc/ezdsp5535_v1/c55xx_csl/src/csl_audioClass.c",line 319,column 5,is_stm
     935 000319 EB10          MOV XAR3, dbl(*SP(#8))
         00031b B5   
     936                      .dwpsn  file "../c5535_bsl_revc/ezdsp5535_v1/c55xx_csl/src/csl_audioClass.c",line 320,column 5,is_stm
     937 00031c ED08          MOV dbl(*SP(#4)), XAR3
         00031e BF   
     938              
     939 00031f 8E14          MOV XAR3, dbl(*SP(#10))
         000321 BB14 
         000323 B516 
     940              ||      AADD #22, AR3 ; |320| 
     941              
     942                      .dwpsn  file "../c5535_bsl_revc/ezdsp5535_v1/c55xx_csl/src/csl_audioClass.c",line 321,column 5,is_stm
     943 000325 E60C          MOV #0, *SP(#6) ; |321| 
         000327 00   
     944                      .dwpsn  file "../c5535_bsl_revc/ezdsp5535_v1/c55xx_csl/src/csl_audioClass.c",line 323,column 5,is_stm
     945 000328 ED08          MOV dbl(*SP(#4)), XAR3
         00032a BF   
     946 00032b 7A00          MOV #(_AC_reqUnknown >> 16) << #16, AC0 ; |323| 
         00032d 000A%
     947 00032f 7E00          OR #(_AC_reqUnknown & 0xffff), AC0, AC0 ; |323| 
         000331 0000%
     948 000333 EB6D          MOV AC0, dbl(*AR3(#392)) ; |323| 
         000335 0801 
         000337 88   
     949                      .dwpsn  file "../c5535_bsl_revc/ezdsp5535_v1/c55xx_csl/src/csl_audioClass.c",line 325,column 5,is_stm
     950 000338 EC18          AMAR *SP(#12), XAR1
         00033a 9E   
     951 00033b ED14          MOV dbl(*SP(#10)), XAR0
         00033d 8F   
     952              $C$DW$94        .dwtag  DW_TAG_TI_branch
     953                      .dwattr $C$DW$94, DW_AT_low_pc(0x00)
     954                      .dwattr $C$DW$94, DW_AT_name("_USB_getEvents")
     955                      .dwattr $C$DW$94, DW_AT_TI_call
     956 00033e 6C00          CALL #_USB_getEvents ; |325| 
         000340 0000!
     957                                                      ; call occurs [#_USB_getEvents] ; |325| 
     958 000342 EC18          AMAR *SP(#12), XAR1
         000344 9E   
     959 000345 ED10          MOV dbl(*SP(#8)), XAR0
         000347 8F   
     960              $C$DW$95        .dwtag  DW_TAG_TI_branch
     961                      .dwattr $C$DW$95, DW_AT_low_pc(0x00)
     962                      .dwattr $C$DW$95, DW_AT_name("_USB_getEvents")
     963                      .dwattr $C$DW$95, DW_AT_TI_call
     964              
     965 000348 6C00          CALL #_USB_getEvents ; |325| 
         00034a 0000!
     966 00034c 2346  ||      MOV T0, T2 ; |325| 
     967              
     968                                                      ; call occurs [#_USB_getEvents] ; |325| 
     969 00034e 2A64          OR T2, T0 ; |325| 
TMS320C55x Assembler PC v4.4.1 Fri Sep 07 02:27:33 2018

Tools Copyright (c) 1996-2012 Texas Instruments Incorporated
csl_audioClass.asm                                                   PAGE   23

     970 000350 C40E          MOV T0, *SP(#7) ; |325| 
     971                      .dwpsn  file "../c5535_bsl_revc/ezdsp5535_v1/c55xx_csl/src/csl_audioClass.c",line 330,column 2,is_stm
     972 000352 DC0E          BTST #0, *SP(#7), TC1 ; |330| 
         000354 00   
     973 000355 0474          BCC $C$L11,!TC1 ; |330| 
         000357 38   
     974                                                      ; branchcc occurs ; |330| 
     975                      .dwpsn  file "../c5535_bsl_revc/ezdsp5535_v1/c55xx_csl/src/csl_audioClass.c",line 332,column 3,is_stm
     976 000358 ED08          MOV dbl(*SP(#4)), XAR3
         00035a BF   
     977 00035b E66D          MOV #0, *AR3(#42) ; |332| 
         00035d 0000 
         00035f 2A   
     978                      .dwpsn  file "../c5535_bsl_revc/ezdsp5535_v1/c55xx_csl/src/csl_audioClass.c",line 334,column 3,is_stm
     979 000360 ED08          MOV dbl(*SP(#4)), XAR3
         000362 BF   
     980 000363 A46D          MOV *AR3(#20), T0 ; |334| 
         000365 0014 
     981              $C$DW$96        .dwtag  DW_TAG_TI_branch
     982                      .dwattr $C$DW$96, DW_AT_low_pc(0x00)
     983                      .dwattr $C$DW$96, DW_AT_name("_USB_abortAllTransaction")
     984                      .dwattr $C$DW$96, DW_AT_TI_call
     985 000367 6C00          CALL #_USB_abortAllTransaction ; |334| 
         000369 0000!
     986                                                      ; call occurs [#_USB_abortAllTransaction] ; |334| 
     987 00036b DA18          OR *SP(#12), T0, AR1 ; |334| 
         00036d 94   
     988 00036e C918          MOV AR1, *SP(#12) ; |334| 
     989                      .dwpsn  file "../c5535_bsl_revc/ezdsp5535_v1/c55xx_csl/src/csl_audioClass.c",line 336,column 3,is_stm
     990 000370 ED08          MOV dbl(*SP(#4)), XAR0
         000372 8F   
     991 000373 ED08          MOV dbl(*SP(#4)), XAR3
         000375 BF   
     992 000376 142C          AADD #44, AR0 ; |336| 
         000378 84   
     993 000379 A46D          MOV *AR3(#20), T0 ; |336| 
         00037b 0014 
     994              $C$DW$97        .dwtag  DW_TAG_TI_branch
     995                      .dwattr $C$DW$97, DW_AT_low_pc(0x00)
     996                      .dwattr $C$DW$97, DW_AT_name("_USB_setParams")
     997                      .dwattr $C$DW$97, DW_AT_TI_call
     998              
     999 00037d 6C00          CALL #_USB_setParams ; |336| 
         00037f 0000!
    1000 000381 3D05  ||      MOV #0, T1
    1001              
    1002                                                      ; call occurs [#_USB_setParams] ; |336| 
    1003 000383 DA18          OR *SP(#12), T0, AR1 ; |336| 
         000385 94   
    1004 000386 C918          MOV AR1, *SP(#12) ; |336| 
    1005                      .dwpsn  file "../c5535_bsl_revc/ezdsp5535_v1/c55xx_csl/src/csl_audioClass.c",line 339,column 3,is_stm
    1006 000388 ED08          MOV dbl(*SP(#4)), XAR3
         00038a BF   
    1007 00038b E66D          MOV #0, *AR3(#368) ; |339| 
         00038d 0001 
TMS320C55x Assembler PC v4.4.1 Fri Sep 07 02:27:33 2018

Tools Copyright (c) 1996-2012 Texas Instruments Incorporated
csl_audioClass.asm                                                   PAGE   24

         00038f 70   
    1008 000390       $C$L11:    
    1009                      .dwpsn  file "../c5535_bsl_revc/ezdsp5535_v1/c55xx_csl/src/csl_audioClass.c",line 342,column 2,is_stm
    1010 000390 DC0E          BTST #2, *SP(#7), TC1 ; |342| 
         000392 20   
    1011 000393 6474          BCC $C$L12,!TC1 ; |342| 
    1012                                                      ; branchcc occurs ; |342| 
    1013                      .dwpsn  file "../c5535_bsl_revc/ezdsp5535_v1/c55xx_csl/src/csl_audioClass.c",line 344,column 3,is_stm
    1014 000395 ED08          MOV dbl(*SP(#4)), XAR3
         000397 BF   
    1015 000398 E66D          MOV #1, *AR3(#42) ; |344| 
         00039a 0100 
         00039c 2A   
    1016 00039d       $C$L12:    
    1017                      .dwpsn  file "../c5535_bsl_revc/ezdsp5535_v1/c55xx_csl/src/csl_audioClass.c",line 347,column 2,is_stm
    1018 00039d DC0E          BTST #3, *SP(#7), TC1 ; |347| 
         00039f 30   
    1019 0003a0 6474          BCC $C$L13,!TC1 ; |347| 
    1020                                                      ; branchcc occurs ; |347| 
    1021                      .dwpsn  file "../c5535_bsl_revc/ezdsp5535_v1/c55xx_csl/src/csl_audioClass.c",line 349,column 3,is_stm
    1022 0003a2 ED08          MOV dbl(*SP(#4)), XAR3
         0003a4 BF   
    1023 0003a5 E66D          MOV #0, *AR3(#42) ; |349| 
         0003a7 0000 
         0003a9 2A   
    1024 0003aa       $C$L13:    
    1025                      .dwpsn  file "../c5535_bsl_revc/ezdsp5535_v1/c55xx_csl/src/csl_audioClass.c",line 354,column 3,is_stm
    1026 0003aa A90E          MOV *SP(#7), AR1 ; |354| 
    1027              
    1028 0003b0 1910          AND #0x0010, AR1, AR1 ; |354| 
         0003b2 99   
    1029 0003ac 7600  ||      MOV #16, AR2 ; |354| 
         0003ae 10A8 
    1030              
    1031 0003b3 129C          CMPU AR1 != AR2, TC1 ; |354| 
         0003b5 A4   
    1032 0003b6 6D64          BCC $C$L22,TC1 ; |354| 
         0003b8 0135 
    1033                                                      ; branchcc occurs ; |354| 
    1034                      .dwpsn  file "../c5535_bsl_revc/ezdsp5535_v1/c55xx_csl/src/csl_audioClass.c",line 357,column 3,is_stm
    1035 0003ba ED08          MOV dbl(*SP(#4)), XAR3
         0003bc BF   
    1036 0003bd ED08          MOV dbl(*SP(#4)), XAR0
         0003bf 8F   
    1037 0003c0 A46D          MOV *AR3(#20), T0 ; |357| 
         0003c2 0014 
    1038 0003c4 1436          AADD #54, AR0 ; |357| 
         0003c6 84   
    1039              $C$DW$98        .dwtag  DW_TAG_TI_branch
    1040                      .dwattr $C$DW$98, DW_AT_low_pc(0x00)
    1041                      .dwattr $C$DW$98, DW_AT_name("_USB_getSetupPacket")
    1042                      .dwattr $C$DW$98, DW_AT_TI_call
    1043              
    1044 0003c7 6C00          CALL #_USB_getSetupPacket ; |357| 
         0003c9 0000!
TMS320C55x Assembler PC v4.4.1 Fri Sep 07 02:27:33 2018

Tools Copyright (c) 1996-2012 Texas Instruments Incorporated
csl_audioClass.asm                                                   PAGE   25

    1045 0003cb 3D05  ||      MOV #0, T1
    1046              
    1047                                                      ; call occurs [#_USB_getSetupPacket] ; |357| 
    1048 0003cd DA18          OR *SP(#12), T0, AR1 ; |357| 
         0003cf 94   
    1049 0003d0 C918          MOV AR1, *SP(#12) ; |357| 
    1050                      .dwpsn  file "../c5535_bsl_revc/ezdsp5535_v1/c55xx_csl/src/csl_audioClass.c",line 359,column 3,is_stm
    1051 0003d2 ED08          MOV dbl(*SP(#4)), XAR2
         0003d4 AF   
    1052 0003d5 ED08          MOV dbl(*SP(#4)), XAR3
         0003d7 BF   
    1053 0003d8 A04D          MOV *AR2(#55), AC0 ; |359| 
         0003da 0037 
    1054 0003dc 1007          SFTL AC0, #8, AC0 ; |359| 
         0003de 08   
    1055 0003df 7DF0          AND #0xf000, AC0, AR1 ; |359| 
         0003e1 0090 
    1056 0003e3 DA6D          OR *AR3(#56), AR1, AR1 ; |359| 
         0003e5 9900 
         0003e7 38   
    1057 0003e8 C91A          MOV AR1, *SP(#13) ; |359| 
    1058                      .dwpsn  file "../c5535_bsl_revc/ezdsp5535_v1/c55xx_csl/src/csl_audioClass.c",line 363,column 3,is_stm
    1059 0003ea ED08          MOV dbl(*SP(#4)), XAR3
         0003ec BF   
    1060 0003ed ED6D          MOV dbl(*AR3(#390)), XAR0
         0003ef 8F01 
         0003f1 86   
    1061              $C$DW$99        .dwtag  DW_TAG_TI_branch
    1062                      .dwattr $C$DW$99, DW_AT_low_pc(0x00)
    1063                      .dwattr $C$DW$99, DW_AT_name("_AC_lookupReqHandler")
    1064                      .dwattr $C$DW$99, DW_AT_TI_call
    1065              
    1066 0003f2 08FC          CALL #_AC_lookupReqHandler ; |363| 
         0003f4 25   
    1067 0003f5 2394  ||      MOV AR1, T0
    1068              
    1069                                                      ; call occurs [#_AC_lookupReqHandler] ; |363| 
    1070 0003f7 ED08          MOV dbl(*SP(#4)), XAR3
         0003f9 BF   
    1071 0003fa EB6D          MOV AC0, dbl(*AR3(#392)) ; |363| 
         0003fc 0801 
         0003fe 88   
    1072                      .dwpsn  file "../c5535_bsl_revc/ezdsp5535_v1/c55xx_csl/src/csl_audioClass.c",line 366,column 6,is_stm
    1073 0003ff A90C          MOV *SP(#6), AR1 ; |366| 
    1074 000401 6D19          BCC $C$L19,AR1 != #0 ; |366| 
         000403 00A7 
    1075                                                      ; branchcc occurs ; |366| 
    1076                      .dwpsn  file "../c5535_bsl_revc/ezdsp5535_v1/c55xx_csl/src/csl_audioClass.c",line 368,column 4,is_stm
    1077 000405 ED08          MOV dbl(*SP(#4)), XAR3
         000407 BF   
    1078 000408 ED08          MOV dbl(*SP(#4)), XAR0
         00040a 8F   
    1079 00040b ED10          MOV dbl(*SP(#8)), XAR1
         00040d 9F   
    1080 00040e ED14          MOV dbl(*SP(#10)), XAR2
TMS320C55x Assembler PC v4.4.1 Fri Sep 07 02:27:33 2018

Tools Copyright (c) 1996-2012 Texas Instruments Incorporated
csl_audioClass.asm                                                   PAGE   26

         000410 AF   
    1081 000411 ED6D          MOV dbl(*AR3(#392)), AC0 ; |368| 
         000413 0801 
         000415 88   
    1082 000416 A46D          MOV *AR3(#20), T0 ; |368| 
         000418 0014 
    1083 00041a 1436          AADD #54, AR0 ; |368| 
         00041c 84   
    1084 00041d ED00          MOV dbl(*SP(#0)), XAR3
         00041f BF   
    1085              $C$DW$100       .dwtag  DW_TAG_TI_branch
    1086                      .dwattr $C$DW$100, DW_AT_low_pc(0x00)
    1087                      .dwattr $C$DW$100, DW_AT_TI_call
    1088                      .dwattr $C$DW$100, DW_AT_TI_indirect
    1089 000420 9200          CALL AC0  ; |368| 
    1090                                                      ; call occurs [AC0] ; |368| 
    1091 000422 C40C          MOV T0, *SP(#6) ; |368| 
    1092                      .dwpsn  file "../c5535_bsl_revc/ezdsp5535_v1/c55xx_csl/src/csl_audioClass.c",line 372,column 3,is_stm
    1093 000424 0600          B $C$L19  ; |372| 
         000426 85   
    1094                                                      ; branch occurs ; |372| 
    1095 000427       $C$L14:    
    1096                      .dwpsn  file "../c5535_bsl_revc/ezdsp5535_v1/c55xx_csl/src/csl_audioClass.c",line 377,column 5,is_stm
    1097 000427 ED10          MOV dbl(*SP(#8)), XAR0
         000429 8F   
    1098 00042a EC31          AMOV #0, XAR1 ; |377| 
         00042c 9E00 
         00042e 0000 
    1099 000430 3C04          MOV #0, T0
    1100              $C$DW$101       .dwtag  DW_TAG_TI_branch
    1101                      .dwattr $C$DW$101, DW_AT_low_pc(0x00)
    1102                      .dwattr $C$DW$101, DW_AT_name("_USB_postTransaction")
    1103                      .dwattr $C$DW$101, DW_AT_TI_call
    1104              
    1105 000432 6C00          CALL #_USB_postTransaction ; |377| 
         000434 0000!
    1106 000436 3D05  ||      MOV #0, T1
    1107              
    1108                                                      ; call occurs [#_USB_postTransaction] ; |377| 
    1109 000438 DA18          OR *SP(#12), T0, AR1 ; |377| 
         00043a 94   
    1110 00043b C918          MOV AR1, *SP(#12) ; |377| 
    1111                      .dwpsn  file "../c5535_bsl_revc/ezdsp5535_v1/c55xx_csl/src/csl_audioClass.c",line 379,column 5,is_stm
    1112 00043d ED08          MOV dbl(*SP(#4)), XAR3
         00043f BF   
    1113 000440 7A00          MOV #(_AC_reqUnknown >> 16) << #16, AC0 ; |379| 
         000442 000A%
    1114 000444 7E00          OR #(_AC_reqUnknown & 0xffff), AC0, AC0 ; |379| 
         000446 0000%
    1115 000448 EB6D          MOV AC0, dbl(*AR3(#392)) ; |379| 
         00044a 0801 
         00044c 88   
    1116                      .dwpsn  file "../c5535_bsl_revc/ezdsp5535_v1/c55xx_csl/src/csl_audioClass.c",line 380,column 10,is_st
    1117 00044d 0600          B $C$L21  ; |380| 
         00044f 91   
TMS320C55x Assembler PC v4.4.1 Fri Sep 07 02:27:33 2018

Tools Copyright (c) 1996-2012 Texas Instruments Incorporated
csl_audioClass.asm                                                   PAGE   27

    1118                                                      ; branch occurs ; |380| 
    1119 000450       $C$L15:    
    1120                      .dwpsn  file "../c5535_bsl_revc/ezdsp5535_v1/c55xx_csl/src/csl_audioClass.c",line 389,column 5,is_stm
    1121 000450 ED14          MOV dbl(*SP(#10)), XAR0
         000452 8F   
    1122 000453 EC31          AMOV #0, XAR1 ; |389| 
         000455 9E00 
         000457 0000 
    1123 000459 3C04          MOV #0, T0
    1124              $C$DW$102       .dwtag  DW_TAG_TI_branch
    1125                      .dwattr $C$DW$102, DW_AT_low_pc(0x00)
    1126                      .dwattr $C$DW$102, DW_AT_name("_USB_postTransaction")
    1127                      .dwattr $C$DW$102, DW_AT_TI_call
    1128              
    1129 00045b 6C00          CALL #_USB_postTransaction ; |389| 
         00045d 0000!
    1130 00045f 3D05  ||      MOV #0, T1
    1131              
    1132                                                      ; call occurs [#_USB_postTransaction] ; |389| 
    1133 000461 DA18          OR *SP(#12), T0, AR1 ; |389| 
         000463 94   
    1134 000464 C918          MOV AR1, *SP(#12) ; |389| 
    1135                      .dwpsn  file "../c5535_bsl_revc/ezdsp5535_v1/c55xx_csl/src/csl_audioClass.c",line 391,column 5,is_stm
    1136 000466 ED08          MOV dbl(*SP(#4)), XAR3
         000468 BF   
    1137 000469 7A00          MOV #(_AC_reqUnknown >> 16) << #16, AC0 ; |391| 
         00046b 000A%
    1138 00046d 7E00          OR #(_AC_reqUnknown & 0xffff), AC0, AC0 ; |391| 
         00046f 0000%
    1139 000471 EB6D          MOV AC0, dbl(*AR3(#392)) ; |391| 
         000473 0801 
         000475 88   
    1140                      .dwpsn  file "../c5535_bsl_revc/ezdsp5535_v1/c55xx_csl/src/csl_audioClass.c",line 392,column 10,is_st
    1141 000476 0600          B $C$L21  ; |392| 
         000478 68   
    1142                                                      ; branch occurs ; |392| 
    1143 000479       $C$L16:    
    1144                      .dwpsn  file "../c5535_bsl_revc/ezdsp5535_v1/c55xx_csl/src/csl_audioClass.c",line 401,column 5,is_stm
    1145 000479 ED14          MOV dbl(*SP(#10)), XAR0
         00047b 8F   
    1146              $C$DW$103       .dwtag  DW_TAG_TI_branch
    1147                      .dwattr $C$DW$103, DW_AT_low_pc(0x00)
    1148                      .dwattr $C$DW$103, DW_AT_name("_USB_stallEndpt")
    1149                      .dwattr $C$DW$103, DW_AT_TI_call
    1150 00047c 6C00          CALL #_USB_stallEndpt ; |401| 
         00047e 0000!
    1151                                                      ; call occurs [#_USB_stallEndpt] ; |401| 
    1152 000480 DA18          OR *SP(#12), T0, AR1 ; |401| 
         000482 94   
    1153 000483 C918          MOV AR1, *SP(#12) ; |401| 
    1154                      .dwpsn  file "../c5535_bsl_revc/ezdsp5535_v1/c55xx_csl/src/csl_audioClass.c",line 402,column 5,is_stm
    1155 000485 ED10          MOV dbl(*SP(#8)), XAR0
         000487 8F   
    1156              $C$DW$104       .dwtag  DW_TAG_TI_branch
    1157                      .dwattr $C$DW$104, DW_AT_low_pc(0x00)
TMS320C55x Assembler PC v4.4.1 Fri Sep 07 02:27:33 2018

Tools Copyright (c) 1996-2012 Texas Instruments Incorporated
csl_audioClass.asm                                                   PAGE   28

    1158                      .dwattr $C$DW$104, DW_AT_name("_USB_stallEndpt")
    1159                      .dwattr $C$DW$104, DW_AT_TI_call
    1160 000488 6C00          CALL #_USB_stallEndpt ; |402| 
         00048a 0000!
    1161                                                      ; call occurs [#_USB_stallEndpt] ; |402| 
    1162 00048c DA18          OR *SP(#12), T0, AR1 ; |402| 
         00048e 94   
    1163 00048f C918          MOV AR1, *SP(#12) ; |402| 
    1164                      .dwpsn  file "../c5535_bsl_revc/ezdsp5535_v1/c55xx_csl/src/csl_audioClass.c",line 403,column 10,is_st
    1165 000491 0600          B $C$L21  ; |403| 
         000493 4D   
    1166                                                      ; branch occurs ; |403| 
    1167 000494       $C$L17:    
    1168                      .dwpsn  file "../c5535_bsl_revc/ezdsp5535_v1/c55xx_csl/src/csl_audioClass.c",line 406,column 5,is_stm
    1169 000494 ED08          MOV dbl(*SP(#4)), XAR3
         000496 BF   
    1170 000497 7A00          MOV #(_AC_reqUnknown >> 16) << #16, AC0 ; |406| 
         000499 000A%
    1171 00049b 7E00          OR #(_AC_reqUnknown & 0xffff), AC0, AC0 ; |406| 
         00049d 0000%
    1172 00049f EB6D          MOV AC0, dbl(*AR3(#392)) ; |406| 
         0004a1 0801 
         0004a3 88   
    1173                      .dwpsn  file "../c5535_bsl_revc/ezdsp5535_v1/c55xx_csl/src/csl_audioClass.c",line 407,column 10,is_st
    1174 0004a4 4A3B          B $C$L21  ; |407| 
    1175                                                      ; branch occurs ; |407| 
    1176 0004a6       $C$L18:    
    1177                      .dwpsn  file "../c5535_bsl_revc/ezdsp5535_v1/c55xx_csl/src/csl_audioClass.c",line 410,column 5,is_stm
    1178 0004a6 FB18          MOV #-578, *SP(#12) ; |410| 
         0004a8 FDBE 
    1179                      .dwpsn  file "../c5535_bsl_revc/ezdsp5535_v1/c55xx_csl/src/csl_audioClass.c",line 411,column 10,is_st
    1180 0004aa 4A35          B $C$L21  ; |411| 
    1181                                                      ; branch occurs ; |411| 
    1182 0004ac       $C$L19:    
    1183                      .dwpsn  file "../c5535_bsl_revc/ezdsp5535_v1/c55xx_csl/src/csl_audioClass.c",line 372,column 3,is_stm
    1184              
    1185 0004ac A90C          MOV *SP(#6), AR1 ; |372| 
    1186 0004ae 3D3A  ||      MOV #3, AR2
    1187              
    1188 0004b0 12A4          CMP AR1 > AR2, TC1 ; |372| 
         0004b2 90   
    1189 0004b3 0464          BCC $C$L20,TC1 ; |372| 
         0004b5 1C   
    1190                                                      ; branchcc occurs ; |372| 
    1191 0004b6 1290          CMP AR1 == AR2, TC1 ; |372| 
         0004b8 A0   
    1192 0004b9 0464          BCC $C$L15,TC1 ; |372| 
         0004bb 94   
    1193                                                      ; branchcc occurs ; |372| 
    1194 0004bc 0409          BCC $C$L17,AR1 == #0 ; |372| 
         0004be D5   
    1195                                                      ; branchcc occurs ; |372| 
    1196 0004bf 3C1A          MOV #1, AR2
    1197 0004c1 1290          CMP AR1 == AR2, TC1 ; |372| 
         0004c3 A0   
TMS320C55x Assembler PC v4.4.1 Fri Sep 07 02:27:33 2018

Tools Copyright (c) 1996-2012 Texas Instruments Incorporated
csl_audioClass.asm                                                   PAGE   29

    1198 0004c4 0464          BCC $C$L16,TC1 ; |372| 
         0004c6 B2   
    1199                                                      ; branchcc occurs ; |372| 
    1200 0004c7 3C2A          MOV #2, AR2
    1201 0004c9 1290          CMP AR1 == AR2, TC1 ; |372| 
         0004cb A0   
    1202 0004cc 6D64          BCC $C$L14,TC1 ; |372| 
         0004ce FF57 
    1203                                                      ; branchcc occurs ; |372| 
    1204 0004d0 4A54          B $C$L18  ; |372| 
    1205                                                      ; branch occurs ; |372| 
    1206 0004d2       $C$L20:    
    1207 0004d2 3C4A          MOV #4, AR2
    1208 0004d4 1290          CMP AR1 == AR2, TC1 ; |372| 
         0004d6 A0   
    1209 0004d7 6464          BCC $C$L21,TC1 ; |372| 
    1210                                                      ; branchcc occurs ; |372| 
    1211 0004d9 3C5A          MOV #5, AR2
    1212 0004db 1290          CMP AR1 == AR2, TC1 ; |372| 
         0004dd A0   
    1213 0004de 0474          BCC $C$L18,!TC1 ; |372| 
         0004e0 C5   
    1214                                                      ; branchcc occurs ; |372| 
    1215 0004e1       $C$L21:    
    1216                      .dwpsn  file "../c5535_bsl_revc/ezdsp5535_v1/c55xx_csl/src/csl_audioClass.c",line 415,column 6,is_stm
    1217 0004e1 ED08          MOV dbl(*SP(#4)), XAR3
         0004e3 BF   
    1218 0004e4 A96D          MOV *AR3(#54), AR1 ; |415| 
         0004e6 0036 
    1219 0004e8 6289          BCC $C$L22,AR1 == #0 ; |415| 
    1220                                                      ; branchcc occurs ; |415| 
    1221                      .dwpsn  file "../c5535_bsl_revc/ezdsp5535_v1/c55xx_csl/src/csl_audioClass.c",line 417,column 4,is_stm
    1222 0004ea E66D          MOV #0, *AR3(#54) ; |417| 
         0004ec 0000 
         0004ee 36   
    1223 0004ef       $C$L22:    
    1224                      .dwpsn  file "../c5535_bsl_revc/ezdsp5535_v1/c55xx_csl/src/csl_audioClass.c",line 421,column 2,is_stm
    1225 0004ef A418          MOV *SP(#12), T0 ; |421| 
    1226 0004f1       $C$L23:    
    1227                      .dwpsn  file "../c5535_bsl_revc/ezdsp5535_v1/c55xx_csl/src/csl_audioClass.c",line 422,column 1,is_stm
    1228 0004f1 4E0E          AADD #14, SP
    1229                      .dwcfi  cfa_offset, 2
    1230 0004f3 5062          POP T2
    1231                      .dwcfi  restore_reg, 14
    1232                      .dwcfi  cfa_offset, 1
    1233              $C$DW$105       .dwtag  DW_TAG_TI_branch
    1234                      .dwattr $C$DW$105, DW_AT_low_pc(0x00)
    1235                      .dwattr $C$DW$105, DW_AT_TI_return
    1236 0004f5 4804          RET
    1237                                                      ; return occurs
    1238                      .dwattr $C$DW$83, DW_AT_TI_end_file("../c5535_bsl_revc/ezdsp5535_v1/c55xx_csl/src/csl_audioClass.c")
    1239                      .dwattr $C$DW$83, DW_AT_TI_end_line(0x1a6)
    1240                      .dwattr $C$DW$83, DW_AT_TI_end_column(0x01)
    1241                      .dwendentry
    1242                      .dwendtag $C$DW$83
TMS320C55x Assembler PC v4.4.1 Fri Sep 07 02:27:33 2018

Tools Copyright (c) 1996-2012 Texas Instruments Incorporated
csl_audioClass.asm                                                   PAGE   30

    1243              
    1244 0004f7               .sect   ".text"
    1245                      .align 4
    1246                      .global _AC_Iso
    1247              
    1248              $C$DW$106       .dwtag  DW_TAG_subprogram, DW_AT_name("AC_Iso")
    1249                      .dwattr $C$DW$106, DW_AT_low_pc(_AC_Iso)
    1250                      .dwattr $C$DW$106, DW_AT_high_pc(0x00)
    1251                      .dwattr $C$DW$106, DW_AT_TI_symbol_name("_AC_Iso")
    1252                      .dwattr $C$DW$106, DW_AT_external
    1253                      .dwattr $C$DW$106, DW_AT_type(*$C$DW$T$108)
    1254                      .dwattr $C$DW$106, DW_AT_TI_begin_file("../c5535_bsl_revc/ezdsp5535_v1/c55xx_csl/src/csl_audioClass.c
    1255                      .dwattr $C$DW$106, DW_AT_TI_begin_line(0x1d7)
    1256                      .dwattr $C$DW$106, DW_AT_TI_begin_column(0x0c)
    1257                      .dwattr $C$DW$106, DW_AT_TI_max_frame_size(0x0c)
    1258                      .dwpsn  file "../c5535_bsl_revc/ezdsp5535_v1/c55xx_csl/src/csl_audioClass.c",line 472,column 1,is_stm
    1259              
    1260                      .dwfde $C$DW$CIE, _AC_Iso
    1261              $C$DW$107       .dwtag  DW_TAG_formal_parameter, DW_AT_name("pAcObj")
    1262                      .dwattr $C$DW$107, DW_AT_TI_symbol_name("_pAcObj")
    1263                      .dwattr $C$DW$107, DW_AT_type(*$C$DW$T$3)
    1264                      .dwattr $C$DW$107, DW_AT_location[DW_OP_reg17]
    1265              ;*******************************************************************************
    1266              ;* FUNCTION NAME: AC_Iso                                                       *
    1267              ;*                                                                             *
    1268              ;*   Function Uses Regs : AC0,AC0,AC1,T0,T1,AR0,XAR0,AR1,XAR1,AR2,XAR2,AR3,    *
    1269              ;*                        XAR3,SP,TC1,M40,SATA,SATD,RDM,FRCT,SMUL              *
    1270              ;*   Stack Frame        : Compact (No Frame Pointer, w/ debug)                 *
    1271              ;*   Total Frame Size   : 12 words                                             *
    1272              ;*                        (2 return address/alignment)                         *
    1273              ;*                        (10 local values)                                    *
    1274              ;*   Min System Stack   : 1 word                                               *
    1275              ;*******************************************************************************
    1276 0004f8       _AC_Iso:
    1277                      .dwcfi  cfa_offset, 1
    1278                      .dwcfi  save_reg_to_mem, 91, -1
    1279 0004f8 4EF5          AADD #-11, SP
    1280                      .dwcfi  cfa_offset, 12
    1281              $C$DW$108       .dwtag  DW_TAG_variable, DW_AT_name("pAcObj")
    1282                      .dwattr $C$DW$108, DW_AT_TI_symbol_name("_pAcObj")
    1283                      .dwattr $C$DW$108, DW_AT_type(*$C$DW$T$3)
    1284                      .dwattr $C$DW$108, DW_AT_location[DW_OP_bregx 0x24 0]
    1285              $C$DW$109       .dwtag  DW_TAG_variable, DW_AT_name("pAcClassHdl")
    1286                      .dwattr $C$DW$109, DW_AT_TI_symbol_name("_pAcClassHdl")
    1287                      .dwattr $C$DW$109, DW_AT_type(*$C$DW$T$95)
    1288                      .dwattr $C$DW$109, DW_AT_location[DW_OP_bregx 0x24 2]
    1289              $C$DW$110       .dwtag  DW_TAG_variable, DW_AT_name("pAcHandle")
    1290                      .dwattr $C$DW$110, DW_AT_TI_symbol_name("_pAcHandle")
    1291                      .dwattr $C$DW$110, DW_AT_type(*$C$DW$T$100)
    1292                      .dwattr $C$DW$110, DW_AT_location[DW_OP_bregx 0x24 4]
    1293              $C$DW$111       .dwtag  DW_TAG_variable, DW_AT_name("hUsbOutEp")
    1294                      .dwattr $C$DW$111, DW_AT_TI_symbol_name("_hUsbOutEp")
    1295                      .dwattr $C$DW$111, DW_AT_type(*$C$DW$T$27)
    1296                      .dwattr $C$DW$111, DW_AT_location[DW_OP_bregx 0x24 6]
    1297              $C$DW$112       .dwtag  DW_TAG_variable, DW_AT_name("status")
TMS320C55x Assembler PC v4.4.1 Fri Sep 07 02:27:33 2018

Tools Copyright (c) 1996-2012 Texas Instruments Incorporated
csl_audioClass.asm                                                   PAGE   31

    1298                      .dwattr $C$DW$112, DW_AT_TI_symbol_name("_status")
    1299                      .dwattr $C$DW$112, DW_AT_type(*$C$DW$T$108)
    1300                      .dwattr $C$DW$112, DW_AT_location[DW_OP_bregx 0x24 8]
    1301              $C$DW$113       .dwtag  DW_TAG_variable, DW_AT_name("usbEvent")
    1302                      .dwattr $C$DW$113, DW_AT_TI_symbol_name("_usbEvent")
    1303                      .dwattr $C$DW$113, DW_AT_type(*$C$DW$T$129)
    1304                      .dwattr $C$DW$113, DW_AT_location[DW_OP_bregx 0x24 9]
    1305 0004fa EB00          MOV XAR0, dbl(*SP(#0))
         0004fc 85   
    1306                      .dwpsn  file "../c5535_bsl_revc/ezdsp5535_v1/c55xx_csl/src/csl_audioClass.c",line 479,column 2,is_stm
    1307 0004fd E610          MOV #0, *SP(#8) ; |479| 
         0004ff 00   
    1308                      .dwpsn  file "../c5535_bsl_revc/ezdsp5535_v1/c55xx_csl/src/csl_audioClass.c",line 481,column 2,is_stm
    1309 000500 ED00          MOV dbl(*SP(#0)), XAR3
         000502 BF   
    1310 000503 90B0          MOV XAR3, AC0
    1311 000505 6D00          BCC $C$L25,AC0 == #0 ; |481| 
         000507 0082 
    1312                                                      ; branchcc occurs ; |481| 
    1313                      .dwpsn  file "../c5535_bsl_revc/ezdsp5535_v1/c55xx_csl/src/csl_audioClass.c",line 483,column 3,is_stm
    1314 000509 EB04          MOV XAR3, dbl(*SP(#2))
         00050b B5   
    1315                      .dwpsn  file "../c5535_bsl_revc/ezdsp5535_v1/c55xx_csl/src/csl_audioClass.c",line 484,column 3,is_stm
    1316 00050c B46F          AMAR *+AR3(#394) ; |484| 
         00050e 018A 
    1317 000510 EB08          MOV XAR3, dbl(*SP(#4))
         000512 B5   
    1318                      .dwpsn  file "../c5535_bsl_revc/ezdsp5535_v1/c55xx_csl/src/csl_audioClass.c",line 485,column 3,is_stm
    1319 000513 B46F          AMAR *+AR3(#336) ; |485| 
         000515 0150 
    1320 000517 EB0C          MOV XAR3, dbl(*SP(#6))
         000519 B5   
    1321                      .dwpsn  file "../c5535_bsl_revc/ezdsp5535_v1/c55xx_csl/src/csl_audioClass.c",line 487,column 3,is_stm
    1322 00051a EC10          AMAR *SP(#8), XAR1
         00051c 9E   
    1323 00051d ED0C          MOV dbl(*SP(#6)), XAR0
         00051f 8F   
    1324              $C$DW$114       .dwtag  DW_TAG_TI_branch
    1325                      .dwattr $C$DW$114, DW_AT_low_pc(0x00)
    1326                      .dwattr $C$DW$114, DW_AT_name("_USB_getEvents")
    1327                      .dwattr $C$DW$114, DW_AT_TI_call
    1328 000520 6C00          CALL #_USB_getEvents ; |487| 
         000522 0000!
    1329                                                      ; call occurs [#_USB_getEvents] ; |487| 
    1330 000524 C412          MOV T0, *SP(#9) ; |487| 
    1331                      .dwpsn  file "../c5535_bsl_revc/ezdsp5535_v1/c55xx_csl/src/csl_audioClass.c",line 489,column 3,is_stm
    1332              
    1333 00052a 2349          MOV T0, AR1 ; |489| 
    1334 000526 7608  ||      MOV #2048, AR2 ; |489| 
         000528 00A8 
    1335              
    1336 00052c 7D08          AND #0x0800, AR1, AR1 ; |489| 
         00052e 0099 
    1337 000530 129C          CMPU AR1 != AR2, TC1 ; |489| 
         000532 A4   
TMS320C55x Assembler PC v4.4.1 Fri Sep 07 02:27:33 2018

Tools Copyright (c) 1996-2012 Texas Instruments Incorporated
csl_audioClass.asm                                                   PAGE   32

    1338 000533 0464          BCC $C$L24,TC1 ; |489| 
         000535 1C   
    1339                                                      ; branchcc occurs ; |489| 
    1340                      .dwpsn  file "../c5535_bsl_revc/ezdsp5535_v1/c55xx_csl/src/csl_audioClass.c",line 491,column 4,is_stm
    1341 000536 ED0C          MOV dbl(*SP(#6)), XAR3
         000538 BF   
    1342 000539 ED08          MOV dbl(*SP(#4)), XAR0
         00053b 8F   
    1343 00053c A475          MOV *AR3(short(#2)), T0 ; |491| 
    1344 00053e ED08          MOV dbl(*SP(#4)), XAR3
         000540 BF   
    1345 000541 B40F          AMAR *+AR0(#336) ; |491| 
         000543 0150 
    1346 000545 ED6D          MOV dbl(*AR3(#16)), XAR1
         000547 9F00 
         000549 10   
    1347              $C$DW$115       .dwtag  DW_TAG_TI_branch
    1348                      .dwattr $C$DW$115, DW_AT_low_pc(0x00)
    1349                      .dwattr $C$DW$115, DW_AT_name("_USB_postTransaction")
    1350                      .dwattr $C$DW$115, DW_AT_TI_call
    1351              
    1352 00054a 6C00          CALL #_USB_postTransaction ; |491| 
         00054c 0000!
    1353 00054e 3D15  ||      MOV #1, T1
    1354              
    1355                                                      ; call occurs [#_USB_postTransaction] ; |491| 
    1356 000550 C410          MOV T0, *SP(#8) ; |491| 
    1357 000552       $C$L24:    
    1358                      .dwpsn  file "../c5535_bsl_revc/ezdsp5535_v1/c55xx_csl/src/csl_audioClass.c",line 496,column 3,is_stm
    1359 000552 A912          MOV *SP(#9), AR1 ; |496| 
    1360 000554 7620          MOV #8192, AR2 ; |496| 
         000556 00A8 
    1361 000558 7D20          AND #0x2000, AR1, AR1 ; |496| 
         00055a 0099 
    1362 00055c 129C          CMPU AR1 != AR2, TC1 ; |496| 
         00055e A4   
    1363 00055f 0464          BCC $C$L26,TC1 ; |496| 
         000561 2C   
    1364                                                      ; branchcc occurs ; |496| 
    1365                      .dwpsn  file "../c5535_bsl_revc/ezdsp5535_v1/c55xx_csl/src/csl_audioClass.c",line 498,column 4,is_stm
    1366 000562 ED08          MOV dbl(*SP(#4)), XAR3
         000564 BF   
    1367 000565 ED75          MOV dbl(*AR3(short(#2))), AC0 ; |498| 
         000567 08   
    1368 000568 ED0C          MOV dbl(*SP(#6)), XAR3
         00056a BF   
    1369 00056b ED08          MOV dbl(*SP(#4)), XAR2
         00056d AF   
    1370 00056e A175          MOV *AR3(short(#2)), AC1 ; |498| 
    1371 000570 ED08          MOV dbl(*SP(#4)), XAR3
         000572 BF   
    1372 000573 B44F          AMAR *+AR2(#358) ; |498| 
         000575 0166 
    1373 000577 76FF          BFXTR #0xfffe, AC1, T0 ; |498| 
         000579 FE41 
TMS320C55x Assembler PC v4.4.1 Fri Sep 07 02:27:33 2018

Tools Copyright (c) 1996-2012 Texas Instruments Incorporated
csl_audioClass.asm                                                   PAGE   33

    1374 00057b ED6D          MOV dbl(*AR3(#16)), XAR0
         00057d 8F00 
         00057f 10   
    1375 000580 ED6D          MOV dbl(*AR3(#16)), XAR1
         000582 9F00 
         000584 10   
    1376              $C$DW$116       .dwtag  DW_TAG_TI_branch
    1377                      .dwattr $C$DW$116, DW_AT_low_pc(0x00)
    1378                      .dwattr $C$DW$116, DW_AT_TI_call
    1379                      .dwattr $C$DW$116, DW_AT_TI_indirect
    1380 000585 9200          CALL AC0  ; |498| 
    1381                                                      ; call occurs [AC0] ; |498| 
    1382 000587 C410          MOV T0, *SP(#8) ; |498| 
    1383                      .dwpsn  file "../c5535_bsl_revc/ezdsp5535_v1/c55xx_csl/src/csl_audioClass.c",line 501,column 2,is_stm
    1384 000589 4A03          B $C$L26  ; |501| 
    1385                                                      ; branch occurs ; |501| 
    1386 00058b       $C$L25:    
    1387                      .dwpsn  file "../c5535_bsl_revc/ezdsp5535_v1/c55xx_csl/src/csl_audioClass.c",line 504,column 3,is_stm
    1388 00058b E610          MOV #-5, *SP(#8) ; |504| 
         00058d FB   
    1389 00058e       $C$L26:    
    1390                      .dwpsn  file "../c5535_bsl_revc/ezdsp5535_v1/c55xx_csl/src/csl_audioClass.c",line 507,column 2,is_stm
    1391 00058e A410          MOV *SP(#8), T0 ; |507| 
    1392                      .dwpsn  file "../c5535_bsl_revc/ezdsp5535_v1/c55xx_csl/src/csl_audioClass.c",line 508,column 1,is_stm
    1393 000590 4E0B          AADD #11, SP
    1394                      .dwcfi  cfa_offset, 1
    1395              $C$DW$117       .dwtag  DW_TAG_TI_branch
    1396                      .dwattr $C$DW$117, DW_AT_low_pc(0x00)
    1397                      .dwattr $C$DW$117, DW_AT_TI_return
    1398 000592 4804          RET
    1399                                                      ; return occurs
    1400                      .dwattr $C$DW$106, DW_AT_TI_end_file("../c5535_bsl_revc/ezdsp5535_v1/c55xx_csl/src/csl_audioClass.c")
    1401                      .dwattr $C$DW$106, DW_AT_TI_end_line(0x1fc)
    1402                      .dwattr $C$DW$106, DW_AT_TI_end_column(0x01)
    1403                      .dwendentry
    1404                      .dwendtag $C$DW$106
    1405              
    1406 000594               .sect   ".text"
    1407                      .align 4
    1408                      .global _AC_GetactivityFlagStatus
    1409              
    1410              $C$DW$118       .dwtag  DW_TAG_subprogram, DW_AT_name("AC_GetactivityFlagStatus")
    1411                      .dwattr $C$DW$118, DW_AT_low_pc(_AC_GetactivityFlagStatus)
    1412                      .dwattr $C$DW$118, DW_AT_high_pc(0x00)
    1413                      .dwattr $C$DW$118, DW_AT_TI_symbol_name("_AC_GetactivityFlagStatus")
    1414                      .dwattr $C$DW$118, DW_AT_external
    1415                      .dwattr $C$DW$118, DW_AT_type(*$C$DW$T$25)
    1416                      .dwattr $C$DW$118, DW_AT_TI_begin_file("../c5535_bsl_revc/ezdsp5535_v1/c55xx_csl/src/csl_audioClass.c
    1417                      .dwattr $C$DW$118, DW_AT_TI_begin_line(0x22b)
    1418                      .dwattr $C$DW$118, DW_AT_TI_begin_column(0x08)
    1419                      .dwattr $C$DW$118, DW_AT_TI_max_frame_size(0x08)
    1420                      .dwpsn  file "../c5535_bsl_revc/ezdsp5535_v1/c55xx_csl/src/csl_audioClass.c",line 556,column 1,is_stm
    1421              
    1422                      .dwfde $C$DW$CIE, _AC_GetactivityFlagStatus
    1423              $C$DW$119       .dwtag  DW_TAG_formal_parameter, DW_AT_name("pAcObj")
TMS320C55x Assembler PC v4.4.1 Fri Sep 07 02:27:33 2018

Tools Copyright (c) 1996-2012 Texas Instruments Incorporated
csl_audioClass.asm                                                   PAGE   34

    1424                      .dwattr $C$DW$119, DW_AT_TI_symbol_name("_pAcObj")
    1425                      .dwattr $C$DW$119, DW_AT_type(*$C$DW$T$3)
    1426                      .dwattr $C$DW$119, DW_AT_location[DW_OP_reg17]
    1427              ;*******************************************************************************
    1428              ;* FUNCTION NAME: AC_GetactivityFlagStatus                                     *
    1429              ;*                                                                             *
    1430              ;*   Function Uses Regs : T0,AR0,XAR0,AR3,XAR3,SP,M40,SATA,SATD,RDM,FRCT,SMUL  *
    1431              ;*   Stack Frame        : Compact (No Frame Pointer, w/ debug)                 *
    1432              ;*   Total Frame Size   : 8 words                                              *
    1433              ;*                        (2 return address/alignment)                         *
    1434              ;*                        (6 local values)                                     *
    1435              ;*   Min System Stack   : 1 word                                               *
    1436              ;*******************************************************************************
    1437 000594       _AC_GetactivityFlagStatus:
    1438                      .dwcfi  cfa_offset, 1
    1439                      .dwcfi  save_reg_to_mem, 91, -1
    1440 000594 4EF9          AADD #-7, SP
    1441                      .dwcfi  cfa_offset, 8
    1442              $C$DW$120       .dwtag  DW_TAG_variable, DW_AT_name("pAcObj")
    1443                      .dwattr $C$DW$120, DW_AT_TI_symbol_name("_pAcObj")
    1444                      .dwattr $C$DW$120, DW_AT_type(*$C$DW$T$3)
    1445                      .dwattr $C$DW$120, DW_AT_location[DW_OP_bregx 0x24 0]
    1446              $C$DW$121       .dwtag  DW_TAG_variable, DW_AT_name("pAcClassHdl")
    1447                      .dwattr $C$DW$121, DW_AT_TI_symbol_name("_pAcClassHdl")
    1448                      .dwattr $C$DW$121, DW_AT_type(*$C$DW$T$95)
    1449                      .dwattr $C$DW$121, DW_AT_location[DW_OP_bregx 0x24 2]
    1450              $C$DW$122       .dwtag  DW_TAG_variable, DW_AT_name("pAcHandle")
    1451                      .dwattr $C$DW$122, DW_AT_TI_symbol_name("_pAcHandle")
    1452                      .dwattr $C$DW$122, DW_AT_type(*$C$DW$T$100)
    1453                      .dwattr $C$DW$122, DW_AT_location[DW_OP_bregx 0x24 4]
    1454 000596 EB00          MOV XAR0, dbl(*SP(#0))
         000598 85   
    1455                      .dwpsn  file "../c5535_bsl_revc/ezdsp5535_v1/c55xx_csl/src/csl_audioClass.c",line 560,column 4,is_stm
    1456 000599 ED00          MOV dbl(*SP(#0)), XAR3
         00059b BF   
    1457 00059c EB04          MOV XAR3, dbl(*SP(#2))
         00059e B5   
    1458                      .dwpsn  file "../c5535_bsl_revc/ezdsp5535_v1/c55xx_csl/src/csl_audioClass.c",line 561,column 4,is_stm
    1459 00059f B46F          AMAR *+AR3(#394) ; |561| 
         0005a1 018A 
    1460 0005a3 EB08          MOV XAR3, dbl(*SP(#4))
         0005a5 B5   
    1461                      .dwpsn  file "../c5535_bsl_revc/ezdsp5535_v1/c55xx_csl/src/csl_audioClass.c",line 563,column 4,is_stm
    1462 0005a6 A46D          MOV *AR3(#283), T0 ; |563| 
         0005a8 011B 
    1463                      .dwpsn  file "../c5535_bsl_revc/ezdsp5535_v1/c55xx_csl/src/csl_audioClass.c",line 564,column 1,is_stm
    1464 0005aa 4E07          AADD #7, SP
    1465                      .dwcfi  cfa_offset, 1
    1466              $C$DW$123       .dwtag  DW_TAG_TI_branch
    1467                      .dwattr $C$DW$123, DW_AT_low_pc(0x00)
    1468                      .dwattr $C$DW$123, DW_AT_TI_return
    1469 0005ac 4804          RET
    1470                                                      ; return occurs
    1471                      .dwattr $C$DW$118, DW_AT_TI_end_file("../c5535_bsl_revc/ezdsp5535_v1/c55xx_csl/src/csl_audioClass.c")
    1472                      .dwattr $C$DW$118, DW_AT_TI_end_line(0x234)
TMS320C55x Assembler PC v4.4.1 Fri Sep 07 02:27:33 2018

Tools Copyright (c) 1996-2012 Texas Instruments Incorporated
csl_audioClass.asm                                                   PAGE   35

    1473                      .dwattr $C$DW$118, DW_AT_TI_end_column(0x01)
    1474                      .dwendentry
    1475                      .dwendtag $C$DW$118
    1476              
    1477 0005ae               .sect   ".text"
    1478                      .align 4
    1479                      .global _AC_GetsuspendFlagStatus
    1480              
    1481              $C$DW$124       .dwtag  DW_TAG_subprogram, DW_AT_name("AC_GetsuspendFlagStatus")
    1482                      .dwattr $C$DW$124, DW_AT_low_pc(_AC_GetsuspendFlagStatus)
    1483                      .dwattr $C$DW$124, DW_AT_high_pc(0x00)
    1484                      .dwattr $C$DW$124, DW_AT_TI_symbol_name("_AC_GetsuspendFlagStatus")
    1485                      .dwattr $C$DW$124, DW_AT_external
    1486                      .dwattr $C$DW$124, DW_AT_type(*$C$DW$T$25)
    1487                      .dwattr $C$DW$124, DW_AT_TI_begin_file("../c5535_bsl_revc/ezdsp5535_v1/c55xx_csl/src/csl_audioClass.c
    1488                      .dwattr $C$DW$124, DW_AT_TI_begin_line(0x263)
    1489                      .dwattr $C$DW$124, DW_AT_TI_begin_column(0x08)
    1490                      .dwattr $C$DW$124, DW_AT_TI_max_frame_size(0x08)
    1491                      .dwpsn  file "../c5535_bsl_revc/ezdsp5535_v1/c55xx_csl/src/csl_audioClass.c",line 612,column 1,is_stm
    1492              
    1493                      .dwfde $C$DW$CIE, _AC_GetsuspendFlagStatus
    1494              $C$DW$125       .dwtag  DW_TAG_formal_parameter, DW_AT_name("pAcObj")
    1495                      .dwattr $C$DW$125, DW_AT_TI_symbol_name("_pAcObj")
    1496                      .dwattr $C$DW$125, DW_AT_type(*$C$DW$T$3)
    1497                      .dwattr $C$DW$125, DW_AT_location[DW_OP_reg17]
    1498              ;*******************************************************************************
    1499              ;* FUNCTION NAME: AC_GetsuspendFlagStatus                                      *
    1500              ;*                                                                             *
    1501              ;*   Function Uses Regs : T0,AR0,XAR0,AR3,XAR3,SP,M40,SATA,SATD,RDM,FRCT,SMUL  *
    1502              ;*   Stack Frame        : Compact (No Frame Pointer, w/ debug)                 *
    1503              ;*   Total Frame Size   : 8 words                                              *
    1504              ;*                        (2 return address/alignment)                         *
    1505              ;*                        (6 local values)                                     *
    1506              ;*   Min System Stack   : 1 word                                               *
    1507              ;*******************************************************************************
    1508 0005b0       _AC_GetsuspendFlagStatus:
    1509                      .dwcfi  cfa_offset, 1
    1510                      .dwcfi  save_reg_to_mem, 91, -1
    1511 0005b0 4EF9          AADD #-7, SP
    1512                      .dwcfi  cfa_offset, 8
    1513              $C$DW$126       .dwtag  DW_TAG_variable, DW_AT_name("pAcObj")
    1514                      .dwattr $C$DW$126, DW_AT_TI_symbol_name("_pAcObj")
    1515                      .dwattr $C$DW$126, DW_AT_type(*$C$DW$T$3)
    1516                      .dwattr $C$DW$126, DW_AT_location[DW_OP_bregx 0x24 0]
    1517              $C$DW$127       .dwtag  DW_TAG_variable, DW_AT_name("pAcClassHdl")
    1518                      .dwattr $C$DW$127, DW_AT_TI_symbol_name("_pAcClassHdl")
    1519                      .dwattr $C$DW$127, DW_AT_type(*$C$DW$T$95)
    1520                      .dwattr $C$DW$127, DW_AT_location[DW_OP_bregx 0x24 2]
    1521              $C$DW$128       .dwtag  DW_TAG_variable, DW_AT_name("pCtrlHandle")
    1522                      .dwattr $C$DW$128, DW_AT_TI_symbol_name("_pCtrlHandle")
    1523                      .dwattr $C$DW$128, DW_AT_type(*$C$DW$T$96)
    1524                      .dwattr $C$DW$128, DW_AT_location[DW_OP_bregx 0x24 4]
    1525 0005b2 EB00          MOV XAR0, dbl(*SP(#0))
         0005b4 85   
    1526                      .dwpsn  file "../c5535_bsl_revc/ezdsp5535_v1/c55xx_csl/src/csl_audioClass.c",line 616,column 4,is_stm
TMS320C55x Assembler PC v4.4.1 Fri Sep 07 02:27:33 2018

Tools Copyright (c) 1996-2012 Texas Instruments Incorporated
csl_audioClass.asm                                                   PAGE   36

    1527 0005b5 ED00          MOV dbl(*SP(#0)), XAR3
         0005b7 BF   
    1528 0005b8 EB04          MOV XAR3, dbl(*SP(#2))
         0005ba B5   
    1529                      .dwpsn  file "../c5535_bsl_revc/ezdsp5535_v1/c55xx_csl/src/csl_audioClass.c",line 617,column 4,is_stm
    1530 0005bb EB08          MOV XAR3, dbl(*SP(#4))
         0005bd B5   
    1531                      .dwpsn  file "../c5535_bsl_revc/ezdsp5535_v1/c55xx_csl/src/csl_audioClass.c",line 619,column 4,is_stm
    1532 0005be A46D          MOV *AR3(#42), T0 ; |619| 
         0005c0 002A 
    1533                      .dwpsn  file "../c5535_bsl_revc/ezdsp5535_v1/c55xx_csl/src/csl_audioClass.c",line 620,column 1,is_stm
    1534 0005c2 4E07          AADD #7, SP
    1535                      .dwcfi  cfa_offset, 1
    1536              $C$DW$129       .dwtag  DW_TAG_TI_branch
    1537                      .dwattr $C$DW$129, DW_AT_low_pc(0x00)
    1538                      .dwattr $C$DW$129, DW_AT_TI_return
    1539 0005c4 4804          RET
    1540                                                      ; return occurs
    1541                      .dwattr $C$DW$124, DW_AT_TI_end_file("../c5535_bsl_revc/ezdsp5535_v1/c55xx_csl/src/csl_audioClass.c")
    1542                      .dwattr $C$DW$124, DW_AT_TI_end_line(0x26c)
    1543                      .dwattr $C$DW$124, DW_AT_TI_end_column(0x01)
    1544                      .dwendentry
    1545                      .dwendtag $C$DW$124
    1546              
    1547 0005c6               .sect   ".text"
    1548                      .align 4
    1549                      .global _AC_initDescriptors
    1550              
    1551              $C$DW$130       .dwtag  DW_TAG_subprogram, DW_AT_name("AC_initDescriptors")
    1552                      .dwattr $C$DW$130, DW_AT_low_pc(_AC_initDescriptors)
    1553                      .dwattr $C$DW$130, DW_AT_high_pc(0x00)
    1554                      .dwattr $C$DW$130, DW_AT_TI_symbol_name("_AC_initDescriptors")
    1555                      .dwattr $C$DW$130, DW_AT_external
    1556                      .dwattr $C$DW$130, DW_AT_type(*$C$DW$T$108)
    1557                      .dwattr $C$DW$130, DW_AT_TI_begin_file("../c5535_bsl_revc/ezdsp5535_v1/c55xx_csl/src/csl_audioClass.c
    1558                      .dwattr $C$DW$130, DW_AT_TI_begin_line(0x29b)
    1559                      .dwattr $C$DW$130, DW_AT_TI_begin_column(0x0c)
    1560                      .dwattr $C$DW$130, DW_AT_TI_max_frame_size(0x0e)
    1561                      .dwpsn  file "../c5535_bsl_revc/ezdsp5535_v1/c55xx_csl/src/csl_audioClass.c",line 671,column 1,is_stm
    1562              
    1563                      .dwfde $C$DW$CIE, _AC_initDescriptors
    1564              $C$DW$131       .dwtag  DW_TAG_formal_parameter, DW_AT_name("pAcObj")
    1565                      .dwattr $C$DW$131, DW_AT_TI_symbol_name("_pAcObj")
    1566                      .dwattr $C$DW$131, DW_AT_type(*$C$DW$T$3)
    1567                      .dwattr $C$DW$131, DW_AT_location[DW_OP_reg17]
    1568              $C$DW$132       .dwtag  DW_TAG_formal_parameter, DW_AT_name("descBuf")
    1569                      .dwattr $C$DW$132, DW_AT_TI_symbol_name("_descBuf")
    1570                      .dwattr $C$DW$132, DW_AT_type(*$C$DW$T$49)
    1571                      .dwattr $C$DW$132, DW_AT_location[DW_OP_reg19]
    1572              $C$DW$133       .dwtag  DW_TAG_formal_parameter, DW_AT_name("descrId")
    1573                      .dwattr $C$DW$133, DW_AT_TI_symbol_name("_descrId")
    1574                      .dwattr $C$DW$133, DW_AT_type(*$C$DW$T$92)
    1575                      .dwattr $C$DW$133, DW_AT_location[DW_OP_reg12]
    1576              $C$DW$134       .dwtag  DW_TAG_formal_parameter, DW_AT_name("descrLen")
    1577                      .dwattr $C$DW$134, DW_AT_TI_symbol_name("_descrLen")
TMS320C55x Assembler PC v4.4.1 Fri Sep 07 02:27:33 2018

Tools Copyright (c) 1996-2012 Texas Instruments Incorporated
csl_audioClass.asm                                                   PAGE   37

    1578                      .dwattr $C$DW$134, DW_AT_type(*$C$DW$T$25)
    1579                      .dwattr $C$DW$134, DW_AT_location[DW_OP_reg13]
    1580              ;*******************************************************************************
    1581              ;* FUNCTION NAME: AC_initDescriptors                                           *
    1582              ;*                                                                             *
    1583              ;*   Function Uses Regs : AC0,AC0,T0,T1,AR0,XAR0,AR1,XAR1,AR2,AR3,XAR3,SP,     *
    1584              ;*                        CARRY,TC1,M40,SATA,SATD,RDM,FRCT,SMUL                *
    1585              ;*   Stack Frame        : Compact (No Frame Pointer, w/ debug)                 *
    1586              ;*   Total Frame Size   : 14 words                                             *
    1587              ;*                        (2 return address/alignment)                         *
    1588              ;*                        (12 local values)                                    *
    1589              ;*   Min System Stack   : 1 word                                               *
    1590              ;*******************************************************************************
    1591 0005c8       _AC_initDescriptors:
    1592                      .dwcfi  cfa_offset, 1
    1593                      .dwcfi  save_reg_to_mem, 91, -1
    1594 0005c8 4EF3          AADD #-13, SP
    1595                      .dwcfi  cfa_offset, 14
    1596              $C$DW$135       .dwtag  DW_TAG_variable, DW_AT_name("pAcObj")
    1597                      .dwattr $C$DW$135, DW_AT_TI_symbol_name("_pAcObj")
    1598                      .dwattr $C$DW$135, DW_AT_type(*$C$DW$T$3)
    1599                      .dwattr $C$DW$135, DW_AT_location[DW_OP_bregx 0x24 0]
    1600              $C$DW$136       .dwtag  DW_TAG_variable, DW_AT_name("descBuf")
    1601                      .dwattr $C$DW$136, DW_AT_TI_symbol_name("_descBuf")
    1602                      .dwattr $C$DW$136, DW_AT_type(*$C$DW$T$49)
    1603                      .dwattr $C$DW$136, DW_AT_location[DW_OP_bregx 0x24 2]
    1604              $C$DW$137       .dwtag  DW_TAG_variable, DW_AT_name("descrId")
    1605                      .dwattr $C$DW$137, DW_AT_TI_symbol_name("_descrId")
    1606                      .dwattr $C$DW$137, DW_AT_type(*$C$DW$T$92)
    1607                      .dwattr $C$DW$137, DW_AT_location[DW_OP_bregx 0x24 4]
    1608              $C$DW$138       .dwtag  DW_TAG_variable, DW_AT_name("descrLen")
    1609                      .dwattr $C$DW$138, DW_AT_TI_symbol_name("_descrLen")
    1610                      .dwattr $C$DW$138, DW_AT_type(*$C$DW$T$25)
    1611                      .dwattr $C$DW$138, DW_AT_location[DW_OP_bregx 0x24 5]
    1612              $C$DW$139       .dwtag  DW_TAG_variable, DW_AT_name("pAcClassHdl")
    1613                      .dwattr $C$DW$139, DW_AT_TI_symbol_name("_pAcClassHdl")
    1614                      .dwattr $C$DW$139, DW_AT_type(*$C$DW$T$95)
    1615                      .dwattr $C$DW$139, DW_AT_location[DW_OP_bregx 0x24 6]
    1616              $C$DW$140       .dwtag  DW_TAG_variable, DW_AT_name("pCtrlHandle")
    1617                      .dwattr $C$DW$140, DW_AT_TI_symbol_name("_pCtrlHandle")
    1618                      .dwattr $C$DW$140, DW_AT_type(*$C$DW$T$96)
    1619                      .dwattr $C$DW$140, DW_AT_location[DW_OP_bregx 0x24 8]
    1620              $C$DW$141       .dwtag  DW_TAG_variable, DW_AT_name("status")
    1621                      .dwattr $C$DW$141, DW_AT_TI_symbol_name("_status")
    1622                      .dwattr $C$DW$141, DW_AT_type(*$C$DW$T$108)
    1623                      .dwattr $C$DW$141, DW_AT_location[DW_OP_bregx 0x24 10]
    1624              $C$DW$142       .dwtag  DW_TAG_variable, DW_AT_name("length")
    1625                      .dwattr $C$DW$142, DW_AT_TI_symbol_name("_length")
    1626                      .dwattr $C$DW$142, DW_AT_type(*$C$DW$T$25)
    1627                      .dwattr $C$DW$142, DW_AT_location[DW_OP_bregx 0x24 11]
    1628 0005ca C50A          MOV T1, *SP(#5) ; |671| 
    1629 0005cc C408          MOV T0, *SP(#4) ; |671| 
    1630 0005ce EB04          MOV XAR1, dbl(*SP(#2))
         0005d0 95   
    1631 0005d1 EB00          MOV XAR0, dbl(*SP(#0))
TMS320C55x Assembler PC v4.4.1 Fri Sep 07 02:27:33 2018

Tools Copyright (c) 1996-2012 Texas Instruments Incorporated
csl_audioClass.asm                                                   PAGE   38

         0005d3 85   
    1632                      .dwpsn  file "../c5535_bsl_revc/ezdsp5535_v1/c55xx_csl/src/csl_audioClass.c",line 677,column 2,is_stm
    1633 0005d4 E614          MOV #-6, *SP(#10) ; |677| 
         0005d6 FA   
    1634                      .dwpsn  file "../c5535_bsl_revc/ezdsp5535_v1/c55xx_csl/src/csl_audioClass.c",line 679,column 5,is_stm
    1635 0005d7 ED00          MOV dbl(*SP(#0)), XAR3
         0005d9 BF   
    1636 0005da 90B0          MOV XAR3, AC0
    1637 0005dc 6D00          BCC $C$L44,AC0 == #0 ; |679| 
         0005de 01C4 
    1638                                                      ; branchcc occurs ; |679| 
    1639                      .dwpsn  file "../c5535_bsl_revc/ezdsp5535_v1/c55xx_csl/src/csl_audioClass.c",line 681,column 3,is_stm
    1640 0005e0 EB0C          MOV XAR3, dbl(*SP(#6))
         0005e2 B5   
    1641                      .dwpsn  file "../c5535_bsl_revc/ezdsp5535_v1/c55xx_csl/src/csl_audioClass.c",line 682,column 6,is_stm
    1642 0005e3 EB10          MOV XAR3, dbl(*SP(#8))
         0005e5 B5   
    1643                      .dwpsn  file "../c5535_bsl_revc/ezdsp5535_v1/c55xx_csl/src/csl_audioClass.c",line 684,column 6,is_stm
    1644 0005e6 0601          B $C$L42  ; |684| 
         0005e8 88   
    1645                                                      ; branch occurs ; |684| 
    1646 0005e9       $C$L27:    
    1647                      .dwpsn  file "../c5535_bsl_revc/ezdsp5535_v1/c55xx_csl/src/csl_audioClass.c",line 688,column 5,is_stm
    1648 0005e9 7600          MOV #20, AR2 ; |688| 
         0005eb 14A8 
    1649 0005ed A90A          MOV *SP(#5), AR1 ; |688| 
    1650 0005ef 12A4          CMPU AR1 > AR2, TC1 ; |688| 
         0005f1 94   
    1651 0005f2 6D64          BCC $C$L45,TC1 ; |688| 
         0005f4 01B2 
    1652                                                      ; branchcc occurs ; |688| 
    1653                      .dwpsn  file "../c5535_bsl_revc/ezdsp5535_v1/c55xx_csl/src/csl_audioClass.c",line 690,column 6,is_stm
    1654 0005f6 E66D          MOV #0, *AR3(#177) ; |690| 
         0005f8 0000 
         0005fa B1   
    1655                      .dwpsn  file "../c5535_bsl_revc/ezdsp5535_v1/c55xx_csl/src/csl_audioClass.c",line 691,column 10,is_st
    1656 0005fb E616          MOV #0, *SP(#11) ; |691| 
         0005fd 00   
    1657                      .dwpsn  file "../c5535_bsl_revc/ezdsp5535_v1/c55xx_csl/src/csl_audioClass.c",line 691,column 22,is_st
    1658 0005fe A90A          MOV *SP(#5), AR1 ; |691| 
    1659 000600 4019          ADD #1, AR1 ; |691| 
    1660              
    1661 000604 5191          SFTL AR1, #-1 ; |691| 
    1662 000602 AA16  ||      MOV *SP(#11), AR2 ; |691| 
    1663              
    1664 000606 12A8          CMPU AR2 >= AR1, TC1 ; |691| 
         000608 94   
    1665 000609 0464          BCC $C$L29,TC1 ; |691| 
         00060b 27   
    1666                                                      ; branchcc occurs ; |691| 
    1667 00060c       $C$L28:    
    1668 00060c       $C$DW$L$_AC_initDescriptors$6$B:
    1669                      .dwpsn  file "../c5535_bsl_revc/ezdsp5535_v1/c55xx_csl/src/csl_audioClass.c",line 693,column 7,is_stm
    1670 00060c A416          MOV *SP(#11), T0 ; |693| 
    1671 00060e ED04          MOV dbl(*SP(#2)), XAR3
TMS320C55x Assembler PC v4.4.1 Fri Sep 07 02:27:33 2018

Tools Copyright (c) 1996-2012 Texas Instruments Incorporated
csl_audioClass.asm                                                   PAGE   39

         000610 BF   
    1672 000611 A916          MOV *SP(#11), AR1 ; |693| 
    1673 000613 4019          ADD #1, AR1 ; |693| 
    1674 000615 AA6B          MOV *AR3(T0), AR2 ; |693| 
    1675 000617 ED10          MOV dbl(*SP(#8)), XAR3
         000619 BF   
    1676 00061a 1490          AADD AR1, AR3 ; |693| 
         00061c B0   
    1677 00061d CA6D          MOV AR2, *AR3(#177) ; |693| 
         00061f 00B1 
    1678                      .dwpsn  file "../c5535_bsl_revc/ezdsp5535_v1/c55xx_csl/src/csl_audioClass.c",line 691,column 47,is_st
    1679 000621 F716          ADD #1, *SP(#11) ; |691| 
         000623 0001 
    1680                      .dwpsn  file "../c5535_bsl_revc/ezdsp5535_v1/c55xx_csl/src/csl_audioClass.c",line 691,column 22,is_st
    1681 000625 A90A          MOV *SP(#5), AR1 ; |691| 
    1682 000627 4019          ADD #1, AR1 ; |691| 
    1683              
    1684 00062b 5191          SFTL AR1, #-1 ; |691| 
    1685 000629 AA16  ||      MOV *SP(#11), AR2 ; |691| 
    1686              
    1687 00062d 12A4          CMPU AR2 < AR1, TC1 ; |691| 
         00062f 94   
    1688 000630 0464          BCC $C$L28,TC1 ; |691| 
         000632 D9   
    1689                                                      ; branchcc occurs ; |691| 
    1690 000633       $C$DW$L$_AC_initDescriptors$6$E:
    1691 000633       $C$L29:    
    1692                      .dwpsn  file "../c5535_bsl_revc/ezdsp5535_v1/c55xx_csl/src/csl_audioClass.c",line 695,column 6,is_stm
    1693 000633 E614          MOV #0, *SP(#10) ; |695| 
         000635 00   
    1694                      .dwpsn  file "../c5535_bsl_revc/ezdsp5535_v1/c55xx_csl/src/csl_audioClass.c",line 697,column 13,is_st
    1695 000636 0601          B $C$L45  ; |697| 
         000638 6F   
    1696                                                      ; branch occurs ; |697| 
    1697 000639       $C$L30:    
    1698                      .dwpsn  file "../c5535_bsl_revc/ezdsp5535_v1/c55xx_csl/src/csl_audioClass.c",line 701,column 5,is_stm
    1699              
    1700 000639 A90A          MOV *SP(#5), AR1 ; |701| 
    1701 00063b 3DCA  ||      MOV #12, AR2
    1702              
    1703 00063d 12A4          CMPU AR1 > AR2, TC1 ; |701| 
         00063f 94   
    1704 000640 6D64          BCC $C$L45,TC1 ; |701| 
         000642 0164 
    1705                                                      ; branchcc occurs ; |701| 
    1706                      .dwpsn  file "../c5535_bsl_revc/ezdsp5535_v1/c55xx_csl/src/csl_audioClass.c",line 703,column 6,is_stm
    1707 000644 E66D          MOV #0, *AR3(#165) ; |703| 
         000646 0000 
         000648 A5   
    1708                      .dwpsn  file "../c5535_bsl_revc/ezdsp5535_v1/c55xx_csl/src/csl_audioClass.c",line 704,column 10,is_st
    1709 000649 E616          MOV #0, *SP(#11) ; |704| 
         00064b 00   
    1710                      .dwpsn  file "../c5535_bsl_revc/ezdsp5535_v1/c55xx_csl/src/csl_audioClass.c",line 704,column 22,is_st
    1711 00064c A90A          MOV *SP(#5), AR1 ; |704| 
    1712 00064e 4019          ADD #1, AR1 ; |704| 
TMS320C55x Assembler PC v4.4.1 Fri Sep 07 02:27:33 2018

Tools Copyright (c) 1996-2012 Texas Instruments Incorporated
csl_audioClass.asm                                                   PAGE   40

    1713              
    1714 000652 5191          SFTL AR1, #-1 ; |704| 
    1715 000650 AA16  ||      MOV *SP(#11), AR2 ; |704| 
    1716              
    1717 000654 12A8          CMPU AR2 >= AR1, TC1 ; |704| 
         000656 94   
    1718 000657 0464          BCC $C$L32,TC1 ; |704| 
         000659 27   
    1719                                                      ; branchcc occurs ; |704| 
    1720 00065a       $C$L31:    
    1721 00065a       $C$DW$L$_AC_initDescriptors$10$B:
    1722                      .dwpsn  file "../c5535_bsl_revc/ezdsp5535_v1/c55xx_csl/src/csl_audioClass.c",line 706,column 7,is_stm
    1723 00065a A416          MOV *SP(#11), T0 ; |706| 
    1724 00065c ED04          MOV dbl(*SP(#2)), XAR3
         00065e BF   
    1725 00065f A916          MOV *SP(#11), AR1 ; |706| 
    1726 000661 4019          ADD #1, AR1 ; |706| 
    1727 000663 AA6B          MOV *AR3(T0), AR2 ; |706| 
    1728 000665 ED10          MOV dbl(*SP(#8)), XAR3
         000667 BF   
    1729 000668 1490          AADD AR1, AR3 ; |706| 
         00066a B0   
    1730 00066b CA6D          MOV AR2, *AR3(#165) ; |706| 
         00066d 00A5 
    1731                      .dwpsn  file "../c5535_bsl_revc/ezdsp5535_v1/c55xx_csl/src/csl_audioClass.c",line 704,column 47,is_st
    1732 00066f F716          ADD #1, *SP(#11) ; |704| 
         000671 0001 
    1733                      .dwpsn  file "../c5535_bsl_revc/ezdsp5535_v1/c55xx_csl/src/csl_audioClass.c",line 704,column 22,is_st
    1734 000673 A90A          MOV *SP(#5), AR1 ; |704| 
    1735 000675 4019          ADD #1, AR1 ; |704| 
    1736              
    1737 000679 5191          SFTL AR1, #-1 ; |704| 
    1738 000677 AA16  ||      MOV *SP(#11), AR2 ; |704| 
    1739              
    1740 00067b 12A4          CMPU AR2 < AR1, TC1 ; |704| 
         00067d 94   
    1741 00067e 0464          BCC $C$L31,TC1 ; |704| 
         000680 D9   
    1742                                                      ; branchcc occurs ; |704| 
    1743 000681       $C$DW$L$_AC_initDescriptors$10$E:
    1744 000681       $C$L32:    
    1745                      .dwpsn  file "../c5535_bsl_revc/ezdsp5535_v1/c55xx_csl/src/csl_audioClass.c",line 708,column 6,is_stm
    1746 000681 E614          MOV #0, *SP(#10) ; |708| 
         000683 00   
    1747                      .dwpsn  file "../c5535_bsl_revc/ezdsp5535_v1/c55xx_csl/src/csl_audioClass.c",line 710,column 13,is_st
    1748 000684 0601          B $C$L45  ; |710| 
         000686 21   
    1749                                                      ; branch occurs ; |710| 
    1750 000687       $C$L33:    
    1751                      .dwpsn  file "../c5535_bsl_revc/ezdsp5535_v1/c55xx_csl/src/csl_audioClass.c",line 714,column 5,is_stm
    1752 000687 7600          MOV #124, AR2 ; |714| 
         000689 7CA8 
    1753 00068b A90A          MOV *SP(#5), AR1 ; |714| 
    1754 00068d 12A4          CMPU AR1 > AR2, TC1 ; |714| 
         00068f 94   
TMS320C55x Assembler PC v4.4.1 Fri Sep 07 02:27:33 2018

Tools Copyright (c) 1996-2012 Texas Instruments Incorporated
csl_audioClass.asm                                                   PAGE   41

    1755 000690 6D64          BCC $C$L45,TC1 ; |714| 
         000692 0114 
    1756                                                      ; branchcc occurs ; |714| 
    1757                      .dwpsn  file "../c5535_bsl_revc/ezdsp5535_v1/c55xx_csl/src/csl_audioClass.c",line 716,column 6,is_stm
    1758 000694 E66D          MOV #0, *AR3(#197) ; |716| 
         000696 0000 
         000698 C5   
    1759                      .dwpsn  file "../c5535_bsl_revc/ezdsp5535_v1/c55xx_csl/src/csl_audioClass.c",line 717,column 10,is_st
    1760 000699 E616          MOV #0, *SP(#11) ; |717| 
         00069b 00   
    1761                      .dwpsn  file "../c5535_bsl_revc/ezdsp5535_v1/c55xx_csl/src/csl_audioClass.c",line 717,column 22,is_st
    1762 00069c A90A          MOV *SP(#5), AR1 ; |717| 
    1763 00069e 4019          ADD #1, AR1 ; |717| 
    1764              
    1765 0006a2 5191          SFTL AR1, #-1 ; |717| 
    1766 0006a0 AA16  ||      MOV *SP(#11), AR2 ; |717| 
    1767              
    1768 0006a4 12A8          CMPU AR2 >= AR1, TC1 ; |717| 
         0006a6 94   
    1769 0006a7 0464          BCC $C$L35,TC1 ; |717| 
         0006a9 27   
    1770                                                      ; branchcc occurs ; |717| 
    1771 0006aa       $C$L34:    
    1772 0006aa       $C$DW$L$_AC_initDescriptors$14$B:
    1773                      .dwpsn  file "../c5535_bsl_revc/ezdsp5535_v1/c55xx_csl/src/csl_audioClass.c",line 719,column 7,is_stm
    1774 0006aa A416          MOV *SP(#11), T0 ; |719| 
    1775 0006ac ED04          MOV dbl(*SP(#2)), XAR3
         0006ae BF   
    1776 0006af A916          MOV *SP(#11), AR1 ; |719| 
    1777 0006b1 4019          ADD #1, AR1 ; |719| 
    1778 0006b3 AA6B          MOV *AR3(T0), AR2 ; |719| 
    1779 0006b5 ED10          MOV dbl(*SP(#8)), XAR3
         0006b7 BF   
    1780 0006b8 1490          AADD AR1, AR3 ; |719| 
         0006ba B0   
    1781 0006bb CA6D          MOV AR2, *AR3(#197) ; |719| 
         0006bd 00C5 
    1782                      .dwpsn  file "../c5535_bsl_revc/ezdsp5535_v1/c55xx_csl/src/csl_audioClass.c",line 717,column 47,is_st
    1783 0006bf F716          ADD #1, *SP(#11) ; |717| 
         0006c1 0001 
    1784                      .dwpsn  file "../c5535_bsl_revc/ezdsp5535_v1/c55xx_csl/src/csl_audioClass.c",line 717,column 22,is_st
    1785 0006c3 A90A          MOV *SP(#5), AR1 ; |717| 
    1786 0006c5 4019          ADD #1, AR1 ; |717| 
    1787              
    1788 0006c9 5191          SFTL AR1, #-1 ; |717| 
    1789 0006c7 AA16  ||      MOV *SP(#11), AR2 ; |717| 
    1790              
    1791 0006cb 12A4          CMPU AR2 < AR1, TC1 ; |717| 
         0006cd 94   
    1792 0006ce 0464          BCC $C$L34,TC1 ; |717| 
         0006d0 D9   
    1793                                                      ; branchcc occurs ; |717| 
    1794 0006d1       $C$DW$L$_AC_initDescriptors$14$E:
    1795 0006d1       $C$L35:    
    1796                      .dwpsn  file "../c5535_bsl_revc/ezdsp5535_v1/c55xx_csl/src/csl_audioClass.c",line 721,column 6,is_stm
TMS320C55x Assembler PC v4.4.1 Fri Sep 07 02:27:33 2018

Tools Copyright (c) 1996-2012 Texas Instruments Incorporated
csl_audioClass.asm                                                   PAGE   42

    1797 0006d1 E614          MOV #0, *SP(#10) ; |721| 
         0006d3 00   
    1798                      .dwpsn  file "../c5535_bsl_revc/ezdsp5535_v1/c55xx_csl/src/csl_audioClass.c",line 723,column 13,is_st
    1799 0006d4 0600          B $C$L45  ; |723| 
         0006d6 D1   
    1800                                                      ; branch occurs ; |723| 
    1801 0006d7       $C$L36:    
    1802                      .dwpsn  file "../c5535_bsl_revc/ezdsp5535_v1/c55xx_csl/src/csl_audioClass.c",line 726,column 5,is_stm
    1803              
    1804 0006d7 A90A          MOV *SP(#5), AR1 ; |726| 
    1805 0006d9 3DCA  ||      MOV #12, AR2
    1806              
    1807 0006db 12A4          CMPU AR1 > AR2, TC1 ; |726| 
         0006dd 94   
    1808 0006de 6D64          BCC $C$L45,TC1 ; |726| 
         0006e0 00C6 
    1809                                                      ; branchcc occurs ; |726| 
    1810                      .dwpsn  file "../c5535_bsl_revc/ezdsp5535_v1/c55xx_csl/src/csl_audioClass.c",line 728,column 6,is_stm
    1811 0006e2 E66D          MOV #0, *AR3(#321) ; |728| 
         0006e4 0001 
         0006e6 41   
    1812                      .dwpsn  file "../c5535_bsl_revc/ezdsp5535_v1/c55xx_csl/src/csl_audioClass.c",line 729,column 10,is_st
    1813 0006e7 E616          MOV #0, *SP(#11) ; |729| 
         0006e9 00   
    1814                      .dwpsn  file "../c5535_bsl_revc/ezdsp5535_v1/c55xx_csl/src/csl_audioClass.c",line 729,column 22,is_st
    1815 0006ea A90A          MOV *SP(#5), AR1 ; |729| 
    1816 0006ec 4019          ADD #1, AR1 ; |729| 
    1817              
    1818 0006f0 5191          SFTL AR1, #-1 ; |729| 
    1819 0006ee AA16  ||      MOV *SP(#11), AR2 ; |729| 
    1820              
    1821 0006f2 12A8          CMPU AR2 >= AR1, TC1 ; |729| 
         0006f4 94   
    1822 0006f5 0464          BCC $C$L38,TC1 ; |729| 
         0006f7 27   
    1823                                                      ; branchcc occurs ; |729| 
    1824 0006f8       $C$L37:    
    1825 0006f8       $C$DW$L$_AC_initDescriptors$18$B:
    1826                      .dwpsn  file "../c5535_bsl_revc/ezdsp5535_v1/c55xx_csl/src/csl_audioClass.c",line 731,column 7,is_stm
    1827 0006f8 A416          MOV *SP(#11), T0 ; |731| 
    1828 0006fa ED04          MOV dbl(*SP(#2)), XAR3
         0006fc BF   
    1829 0006fd A916          MOV *SP(#11), AR1 ; |731| 
    1830 0006ff 4019          ADD #1, AR1 ; |731| 
    1831 000701 AA6B          MOV *AR3(T0), AR2 ; |731| 
    1832 000703 ED10          MOV dbl(*SP(#8)), XAR3
         000705 BF   
    1833 000706 1490          AADD AR1, AR3 ; |731| 
         000708 B0   
    1834 000709 CA6D          MOV AR2, *AR3(#321) ; |731| 
         00070b 0141 
    1835                      .dwpsn  file "../c5535_bsl_revc/ezdsp5535_v1/c55xx_csl/src/csl_audioClass.c",line 729,column 47,is_st
    1836 00070d F716          ADD #1, *SP(#11) ; |729| 
         00070f 0001 
    1837                      .dwpsn  file "../c5535_bsl_revc/ezdsp5535_v1/c55xx_csl/src/csl_audioClass.c",line 729,column 22,is_st
TMS320C55x Assembler PC v4.4.1 Fri Sep 07 02:27:33 2018

Tools Copyright (c) 1996-2012 Texas Instruments Incorporated
csl_audioClass.asm                                                   PAGE   43

    1838 000711 A90A          MOV *SP(#5), AR1 ; |729| 
    1839 000713 4019          ADD #1, AR1 ; |729| 
    1840              
    1841 000717 5191          SFTL AR1, #-1 ; |729| 
    1842 000715 AA16  ||      MOV *SP(#11), AR2 ; |729| 
    1843              
    1844 000719 12A4          CMPU AR2 < AR1, TC1 ; |729| 
         00071b 94   
    1845 00071c 0464          BCC $C$L37,TC1 ; |729| 
         00071e D9   
    1846                                                      ; branchcc occurs ; |729| 
    1847 00071f       $C$DW$L$_AC_initDescriptors$18$E:
    1848 00071f       $C$L38:    
    1849                      .dwpsn  file "../c5535_bsl_revc/ezdsp5535_v1/c55xx_csl/src/csl_audioClass.c",line 733,column 6,is_stm
    1850 00071f E614          MOV #0, *SP(#10) ; |733| 
         000721 00   
    1851                      .dwpsn  file "../c5535_bsl_revc/ezdsp5535_v1/c55xx_csl/src/csl_audioClass.c",line 735,column 13,is_st
    1852 000722 0600          B $C$L45  ; |735| 
         000724 83   
    1853                                                      ; branch occurs ; |735| 
    1854 000725       $C$L39:    
    1855                      .dwpsn  file "../c5535_bsl_revc/ezdsp5535_v1/c55xx_csl/src/csl_audioClass.c",line 738,column 5,is_stm
    1856              
    1857 000725 A90A          MOV *SP(#5), AR1 ; |738| 
    1858 000727 3DCA  ||      MOV #12, AR2
    1859              
    1860 000729 1298          CMPU AR1 >= AR2, TC1 ; |738| 
         00072b A4   
    1861 00072c 0464          BCC $C$L45,TC1 ; |738| 
         00072e 79   
    1862                                                      ; branchcc occurs ; |738| 
    1863                      .dwpsn  file "../c5535_bsl_revc/ezdsp5535_v1/c55xx_csl/src/csl_audioClass.c",line 740,column 6,is_stm
    1864 00072f E66D          MOV #0, *AR3(#356) ; |740| 
         000731 0001 
         000733 64   
    1865                      .dwpsn  file "../c5535_bsl_revc/ezdsp5535_v1/c55xx_csl/src/csl_audioClass.c",line 741,column 10,is_st
    1866 000734 E616          MOV #0, *SP(#11) ; |741| 
         000736 00   
    1867                      .dwpsn  file "../c5535_bsl_revc/ezdsp5535_v1/c55xx_csl/src/csl_audioClass.c",line 741,column 22,is_st
    1868 000737 A90A          MOV *SP(#5), AR1 ; |741| 
    1869 000739 4019          ADD #1, AR1 ; |741| 
    1870              
    1871 00073d 5191          SFTL AR1, #-1 ; |741| 
    1872 00073b AA16  ||      MOV *SP(#11), AR2 ; |741| 
    1873              
    1874 00073f 12A8          CMPU AR2 >= AR1, TC1 ; |741| 
         000741 94   
    1875 000742 0464          BCC $C$L41,TC1 ; |741| 
         000744 27   
    1876                                                      ; branchcc occurs ; |741| 
    1877 000745       $C$L40:    
    1878 000745       $C$DW$L$_AC_initDescriptors$22$B:
    1879                      .dwpsn  file "../c5535_bsl_revc/ezdsp5535_v1/c55xx_csl/src/csl_audioClass.c",line 743,column 7,is_stm
    1880 000745 A416          MOV *SP(#11), T0 ; |743| 
    1881 000747 ED04          MOV dbl(*SP(#2)), XAR3
TMS320C55x Assembler PC v4.4.1 Fri Sep 07 02:27:33 2018

Tools Copyright (c) 1996-2012 Texas Instruments Incorporated
csl_audioClass.asm                                                   PAGE   44

         000749 BF   
    1882 00074a A916          MOV *SP(#11), AR1 ; |743| 
    1883 00074c 4019          ADD #1, AR1 ; |743| 
    1884 00074e AA6B          MOV *AR3(T0), AR2 ; |743| 
    1885 000750 ED10          MOV dbl(*SP(#8)), XAR3
         000752 BF   
    1886 000753 1490          AADD AR1, AR3 ; |743| 
         000755 B0   
    1887 000756 CA6D          MOV AR2, *AR3(#356) ; |743| 
         000758 0164 
    1888                      .dwpsn  file "../c5535_bsl_revc/ezdsp5535_v1/c55xx_csl/src/csl_audioClass.c",line 741,column 47,is_st
    1889 00075a F716          ADD #1, *SP(#11) ; |741| 
         00075c 0001 
    1890                      .dwpsn  file "../c5535_bsl_revc/ezdsp5535_v1/c55xx_csl/src/csl_audioClass.c",line 741,column 22,is_st
    1891 00075e A90A          MOV *SP(#5), AR1 ; |741| 
    1892 000760 4019          ADD #1, AR1 ; |741| 
    1893              
    1894 000764 5191          SFTL AR1, #-1 ; |741| 
    1895 000762 AA16  ||      MOV *SP(#11), AR2 ; |741| 
    1896              
    1897 000766 12A4          CMPU AR2 < AR1, TC1 ; |741| 
         000768 94   
    1898 000769 0464          BCC $C$L40,TC1 ; |741| 
         00076b D9   
    1899                                                      ; branchcc occurs ; |741| 
    1900 00076c       $C$DW$L$_AC_initDescriptors$22$E:
    1901 00076c       $C$L41:    
    1902                      .dwpsn  file "../c5535_bsl_revc/ezdsp5535_v1/c55xx_csl/src/csl_audioClass.c",line 745,column 6,is_stm
    1903 00076c E614          MOV #0, *SP(#10) ; |745| 
         00076e 00   
    1904                      .dwpsn  file "../c5535_bsl_revc/ezdsp5535_v1/c55xx_csl/src/csl_audioClass.c",line 747,column 10,is_st
    1905 00076f 4A37          B $C$L45  ; |747| 
    1906                                                      ; branch occurs ; |747| 
    1907 000771       $C$L42:    
    1908                      .dwpsn  file "../c5535_bsl_revc/ezdsp5535_v1/c55xx_csl/src/csl_audioClass.c",line 684,column 6,is_stm
    1909              
    1910 000771 A908          MOV *SP(#4), AR1 ; |684| 
    1911 000773 3D2A  ||      MOV #2, AR2
    1912              
    1913 000775 12A4          CMP AR1 > AR2, TC1 ; |684| 
         000777 90   
    1914 000778 0464          BCC $C$L43,TC1 ; |684| 
         00077a 16   
    1915                                                      ; branchcc occurs ; |684| 
    1916 00077b 1290          CMP AR1 == AR2, TC1 ; |684| 
         00077d A0   
    1917 00077e 6D64          BCC $C$L33,TC1 ; |684| 
         000780 FF05 
    1918                                                      ; branchcc occurs ; |684| 
    1919 000782 6D09          BCC $C$L27,AR1 == #0 ; |684| 
         000784 FE63 
    1920                                                      ; branchcc occurs ; |684| 
    1921 000786 3C1A          MOV #1, AR2
    1922 000788 1290          CMP AR1 == AR2, TC1 ; |684| 
         00078a A0   
TMS320C55x Assembler PC v4.4.1 Fri Sep 07 02:27:33 2018

Tools Copyright (c) 1996-2012 Texas Instruments Incorporated
csl_audioClass.asm                                                   PAGE   45

    1923 00078b 6D64          BCC $C$L30,TC1 ; |684| 
         00078d FEAA 
    1924                                                      ; branchcc occurs ; |684| 
    1925 00078f 4A17          B $C$L45  ; |684| 
    1926                                                      ; branch occurs ; |684| 
    1927 000791       $C$L43:    
    1928 000791 3C3A          MOV #3, AR2
    1929 000793 1290          CMP AR1 == AR2, TC1 ; |684| 
         000795 A0   
    1930 000796 6D64          BCC $C$L36,TC1 ; |684| 
         000798 FF3D 
    1931                                                      ; branchcc occurs ; |684| 
    1932 00079a 3C4A          MOV #4, AR2
    1933 00079c 1290          CMP AR1 == AR2, TC1 ; |684| 
         00079e A0   
    1934 00079f 0464          BCC $C$L39,TC1 ; |684| 
         0007a1 83   
    1935                                                      ; branchcc occurs ; |684| 
    1936 0007a2 4A04          B $C$L45  ; |684| 
    1937                                                      ; branch occurs ; |684| 
    1938 0007a4       $C$L44:    
    1939                      .dwpsn  file "../c5535_bsl_revc/ezdsp5535_v1/c55xx_csl/src/csl_audioClass.c",line 755,column 3,is_stm
    1940 0007a4 3E54          MOV #-5, T0
    1941 0007a6 4A02          B $C$L46  ; |755| 
    1942                                                      ; branch occurs ; |755| 
    1943 0007a8       $C$L45:    
    1944                      .dwpsn  file "../c5535_bsl_revc/ezdsp5535_v1/c55xx_csl/src/csl_audioClass.c",line 758,column 2,is_stm
    1945 0007a8 A414          MOV *SP(#10), T0 ; |758| 
    1946 0007aa       $C$L46:    
    1947                      .dwpsn  file "../c5535_bsl_revc/ezdsp5535_v1/c55xx_csl/src/csl_audioClass.c",line 760,column 1,is_stm
    1948 0007aa 4E0D          AADD #13, SP
    1949                      .dwcfi  cfa_offset, 1
    1950              $C$DW$143       .dwtag  DW_TAG_TI_branch
    1951                      .dwattr $C$DW$143, DW_AT_low_pc(0x00)
    1952                      .dwattr $C$DW$143, DW_AT_TI_return
    1953 0007ac 4804          RET
    1954                                                      ; return occurs
    1955              
    1956              $C$DW$144       .dwtag  DW_TAG_TI_loop
    1957                      .dwattr $C$DW$144, DW_AT_name("F:\eZDSP_5535_Files\ccsws2\test\Debug\csl_audioClass.asm:$C$L40:1:1536
    1958                      .dwattr $C$DW$144, DW_AT_TI_begin_file("../c5535_bsl_revc/ezdsp5535_v1/c55xx_csl/src/csl_audioClass.c
    1959                      .dwattr $C$DW$144, DW_AT_TI_begin_line(0x2e5)
    1960                      .dwattr $C$DW$144, DW_AT_TI_end_line(0x2e8)
    1961              $C$DW$145       .dwtag  DW_TAG_TI_loop_range
    1962                      .dwattr $C$DW$145, DW_AT_low_pc($C$DW$L$_AC_initDescriptors$22$B)
    1963                      .dwattr $C$DW$145, DW_AT_high_pc($C$DW$L$_AC_initDescriptors$22$E)
    1964                      .dwendtag $C$DW$144
    1965              
    1966              
    1967              $C$DW$146       .dwtag  DW_TAG_TI_loop
    1968                      .dwattr $C$DW$146, DW_AT_name("F:\eZDSP_5535_Files\ccsws2\test\Debug\csl_audioClass.asm:$C$L37:1:1536
    1969                      .dwattr $C$DW$146, DW_AT_TI_begin_file("../c5535_bsl_revc/ezdsp5535_v1/c55xx_csl/src/csl_audioClass.c
    1970                      .dwattr $C$DW$146, DW_AT_TI_begin_line(0x2d9)
    1971                      .dwattr $C$DW$146, DW_AT_TI_end_line(0x2dc)
    1972              $C$DW$147       .dwtag  DW_TAG_TI_loop_range
TMS320C55x Assembler PC v4.4.1 Fri Sep 07 02:27:33 2018

Tools Copyright (c) 1996-2012 Texas Instruments Incorporated
csl_audioClass.asm                                                   PAGE   46

    1973                      .dwattr $C$DW$147, DW_AT_low_pc($C$DW$L$_AC_initDescriptors$18$B)
    1974                      .dwattr $C$DW$147, DW_AT_high_pc($C$DW$L$_AC_initDescriptors$18$E)
    1975                      .dwendtag $C$DW$146
    1976              
    1977              
    1978              $C$DW$148       .dwtag  DW_TAG_TI_loop
    1979                      .dwattr $C$DW$148, DW_AT_name("F:\eZDSP_5535_Files\ccsws2\test\Debug\csl_audioClass.asm:$C$L34:1:1536
    1980                      .dwattr $C$DW$148, DW_AT_TI_begin_file("../c5535_bsl_revc/ezdsp5535_v1/c55xx_csl/src/csl_audioClass.c
    1981                      .dwattr $C$DW$148, DW_AT_TI_begin_line(0x2cd)
    1982                      .dwattr $C$DW$148, DW_AT_TI_end_line(0x2d0)
    1983              $C$DW$149       .dwtag  DW_TAG_TI_loop_range
    1984                      .dwattr $C$DW$149, DW_AT_low_pc($C$DW$L$_AC_initDescriptors$14$B)
    1985                      .dwattr $C$DW$149, DW_AT_high_pc($C$DW$L$_AC_initDescriptors$14$E)
    1986                      .dwendtag $C$DW$148
    1987              
    1988              
    1989              $C$DW$150       .dwtag  DW_TAG_TI_loop
    1990                      .dwattr $C$DW$150, DW_AT_name("F:\eZDSP_5535_Files\ccsws2\test\Debug\csl_audioClass.asm:$C$L31:1:1536
    1991                      .dwattr $C$DW$150, DW_AT_TI_begin_file("../c5535_bsl_revc/ezdsp5535_v1/c55xx_csl/src/csl_audioClass.c
    1992                      .dwattr $C$DW$150, DW_AT_TI_begin_line(0x2c0)
    1993                      .dwattr $C$DW$150, DW_AT_TI_end_line(0x2c3)
    1994              $C$DW$151       .dwtag  DW_TAG_TI_loop_range
    1995                      .dwattr $C$DW$151, DW_AT_low_pc($C$DW$L$_AC_initDescriptors$10$B)
    1996                      .dwattr $C$DW$151, DW_AT_high_pc($C$DW$L$_AC_initDescriptors$10$E)
    1997                      .dwendtag $C$DW$150
    1998              
    1999              
    2000              $C$DW$152       .dwtag  DW_TAG_TI_loop
    2001                      .dwattr $C$DW$152, DW_AT_name("F:\eZDSP_5535_Files\ccsws2\test\Debug\csl_audioClass.asm:$C$L28:1:1536
    2002                      .dwattr $C$DW$152, DW_AT_TI_begin_file("../c5535_bsl_revc/ezdsp5535_v1/c55xx_csl/src/csl_audioClass.c
    2003                      .dwattr $C$DW$152, DW_AT_TI_begin_line(0x2b3)
    2004                      .dwattr $C$DW$152, DW_AT_TI_end_line(0x2b6)
    2005              $C$DW$153       .dwtag  DW_TAG_TI_loop_range
    2006                      .dwattr $C$DW$153, DW_AT_low_pc($C$DW$L$_AC_initDescriptors$6$B)
    2007                      .dwattr $C$DW$153, DW_AT_high_pc($C$DW$L$_AC_initDescriptors$6$E)
    2008                      .dwendtag $C$DW$152
    2009              
    2010                      .dwattr $C$DW$130, DW_AT_TI_end_file("../c5535_bsl_revc/ezdsp5535_v1/c55xx_csl/src/csl_audioClass.c")
    2011                      .dwattr $C$DW$130, DW_AT_TI_end_line(0x2f8)
    2012                      .dwattr $C$DW$130, DW_AT_TI_end_column(0x01)
    2013                      .dwendentry
    2014                      .dwendtag $C$DW$130
    2015              
    2016 0007ae               .sect   ".text"
    2017                      .align 4
    2018              
    2019              $C$DW$154       .dwtag  DW_TAG_subprogram, DW_AT_name("AC_initAcVal")
    2020                      .dwattr $C$DW$154, DW_AT_low_pc(_AC_initAcVal)
    2021                      .dwattr $C$DW$154, DW_AT_high_pc(0x00)
    2022                      .dwattr $C$DW$154, DW_AT_TI_symbol_name("_AC_initAcVal")
    2023                      .dwattr $C$DW$154, DW_AT_type(*$C$DW$T$108)
    2024                      .dwattr $C$DW$154, DW_AT_TI_begin_file("../c5535_bsl_revc/ezdsp5535_v1/c55xx_csl/src/csl_audioClass.c
    2025                      .dwattr $C$DW$154, DW_AT_TI_begin_line(0x31c)
    2026                      .dwattr $C$DW$154, DW_AT_TI_begin_column(0x13)
    2027                      .dwattr $C$DW$154, DW_AT_TI_max_frame_size(0x06)
TMS320C55x Assembler PC v4.4.1 Fri Sep 07 02:27:33 2018

Tools Copyright (c) 1996-2012 Texas Instruments Incorporated
csl_audioClass.asm                                                   PAGE   47

    2028                      .dwpsn  file "../c5535_bsl_revc/ezdsp5535_v1/c55xx_csl/src/csl_audioClass.c",line 797,column 1,is_stm
    2029              
    2030                      .dwfde $C$DW$CIE, _AC_initAcVal
    2031              $C$DW$155       .dwtag  DW_TAG_formal_parameter, DW_AT_name("pAcHandle")
    2032                      .dwattr $C$DW$155, DW_AT_TI_symbol_name("_pAcHandle")
    2033                      .dwattr $C$DW$155, DW_AT_type(*$C$DW$T$100)
    2034                      .dwattr $C$DW$155, DW_AT_location[DW_OP_reg17]
    2035              ;*******************************************************************************
    2036              ;* FUNCTION NAME: AC_initAcVal                                                 *
    2037              ;*                                                                             *
    2038              ;*   Function Uses Regs : AC0,AC0,T0,AR0,XAR0,AR1,AR2,AR3,XAR3,SP,CARRY,TC1,   *
    2039              ;*                        M40,SATA,SATD,RDM,FRCT,SMUL                          *
    2040              ;*   Stack Frame        : Compact (No Frame Pointer, w/ debug)                 *
    2041              ;*   Total Frame Size   : 6 words                                              *
    2042              ;*                        (2 return address/alignment)                         *
    2043              ;*                        (4 local values)                                     *
    2044              ;*   Min System Stack   : 1 word                                               *
    2045              ;*******************************************************************************
    2046 0007b0       _AC_initAcVal:
    2047                      .dwcfi  cfa_offset, 1
    2048                      .dwcfi  save_reg_to_mem, 91, -1
    2049 0007b0 4EFB          AADD #-5, SP
    2050                      .dwcfi  cfa_offset, 6
    2051              $C$DW$156       .dwtag  DW_TAG_variable, DW_AT_name("pAcHandle")
    2052                      .dwattr $C$DW$156, DW_AT_TI_symbol_name("_pAcHandle")
    2053                      .dwattr $C$DW$156, DW_AT_type(*$C$DW$T$100)
    2054                      .dwattr $C$DW$156, DW_AT_location[DW_OP_bregx 0x24 0]
    2055              $C$DW$157       .dwtag  DW_TAG_variable, DW_AT_name("copyCnt")
    2056                      .dwattr $C$DW$157, DW_AT_TI_symbol_name("_copyCnt")
    2057                      .dwattr $C$DW$157, DW_AT_type(*$C$DW$T$25)
    2058                      .dwattr $C$DW$157, DW_AT_location[DW_OP_bregx 0x24 2]
    2059              $C$DW$158       .dwtag  DW_TAG_variable, DW_AT_name("status")
    2060                      .dwattr $C$DW$158, DW_AT_TI_symbol_name("_status")
    2061                      .dwattr $C$DW$158, DW_AT_type(*$C$DW$T$108)
    2062                      .dwattr $C$DW$158, DW_AT_location[DW_OP_bregx 0x24 3]
    2063 0007b2 EB00          MOV XAR0, dbl(*SP(#0))
         0007b4 85   
    2064                      .dwpsn  file "../c5535_bsl_revc/ezdsp5535_v1/c55xx_csl/src/csl_audioClass.c",line 801,column 2,is_stm
    2065 0007b5 E606          MOV #0, *SP(#3) ; |801| 
         0007b7 00   
    2066                      .dwpsn  file "../c5535_bsl_revc/ezdsp5535_v1/c55xx_csl/src/csl_audioClass.c",line 803,column 2,is_stm
    2067 0007b8 ED00          MOV dbl(*SP(#0)), XAR3
         0007ba BF   
    2068 0007bb 90B0          MOV XAR3, AC0
    2069 0007bd 6D00          BCC $C$L50,AC0 == #0 ; |803| 
         0007bf 00AE 
    2070                                                      ; branchcc occurs ; |803| 
    2071                      .dwpsn  file "../c5535_bsl_revc/ezdsp5535_v1/c55xx_csl/src/csl_audioClass.c",line 805,column 3,is_stm
    2072 0007c1 E66D          MOV #0, *AR3(#357) ; |805| 
         0007c3 0001 
         0007c5 65   
    2073                      .dwpsn  file "../c5535_bsl_revc/ezdsp5535_v1/c55xx_csl/src/csl_audioClass.c",line 806,column 3,is_stm
    2074 0007c6 ED00          MOV dbl(*SP(#0)), XAR3
         0007c8 BF   
    2075 0007c9 E66D          MOV #0, *AR3(#283) ; |806| 
TMS320C55x Assembler PC v4.4.1 Fri Sep 07 02:27:33 2018

Tools Copyright (c) 1996-2012 Texas Instruments Incorporated
csl_audioClass.asm                                                   PAGE   48

         0007cb 0001 
         0007cd 1B   
    2076                      .dwpsn  file "../c5535_bsl_revc/ezdsp5535_v1/c55xx_csl/src/csl_audioClass.c",line 810,column 3,is_stm
    2077 0007ce ED00          MOV dbl(*SP(#0)), XAR3
         0007d0 BF   
    2078 0007d1 E66D          MOV #26, *AR3(#268) ; |810| 
         0007d3 1A01 
         0007d5 0C   
    2079                      .dwpsn  file "../c5535_bsl_revc/ezdsp5535_v1/c55xx_csl/src/csl_audioClass.c",line 812,column 3,is_stm
    2080 0007d6 ED00          MOV dbl(*SP(#0)), XAR3
         0007d8 BF   
    2081 0007d9 E66D          MOV #0, *AR3(#269) ; |812| 
         0007db 0001 
         0007dd 0D   
    2082                      .dwpsn  file "../c5535_bsl_revc/ezdsp5535_v1/c55xx_csl/src/csl_audioClass.c",line 814,column 3,is_stm
    2083 0007de ED00          MOV dbl(*SP(#0)), XAR3
         0007e0 BF   
    2084 0007e1 E66D          MOV #112, *AR3(#270) ; |814| 
         0007e3 7001 
         0007e5 0E   
    2085                      .dwpsn  file "../c5535_bsl_revc/ezdsp5535_v1/c55xx_csl/src/csl_audioClass.c",line 816,column 3,is_stm
    2086 0007e6 ED00          MOV dbl(*SP(#0)), XAR3
         0007e8 BF   
    2087 0007e9 E66D          MOV #0, *AR3(#271) ; |816| 
         0007eb 0001 
         0007ed 0F   
    2088                      .dwpsn  file "../c5535_bsl_revc/ezdsp5535_v1/c55xx_csl/src/csl_audioClass.c",line 818,column 3,is_stm
    2089 0007ee ED00          MOV dbl(*SP(#0)), XAR3
         0007f0 BF   
    2090 0007f1 E66D          MOV #0, *AR3(#272) ; |818| 
         0007f3 0001 
         0007f5 10   
    2091                      .dwpsn  file "../c5535_bsl_revc/ezdsp5535_v1/c55xx_csl/src/csl_audioClass.c",line 820,column 3,is_stm
    2092 0007f6 ED00          MOV dbl(*SP(#0)), XAR3
         0007f8 BF   
    2093 0007f9 FB6D          MOV #2816, *AR3(#273) ; |820| 
         0007fb 0B00 
         0007fd 0111 
    2094                      .dwpsn  file "../c5535_bsl_revc/ezdsp5535_v1/c55xx_csl/src/csl_audioClass.c",line 822,column 3,is_stm
    2095 0007ff ED00          MOV dbl(*SP(#0)), XAR3
         000801 BF   
    2096 000802 E66D          MOV #8, *AR3(#292) ; |822| 
         000804 0801 
         000806 24   
    2097                      .dwpsn  file "../c5535_bsl_revc/ezdsp5535_v1/c55xx_csl/src/csl_audioClass.c",line 824,column 7,is_stm
    2098 000807 E604          MOV #6, *SP(#2) ; |824| 
         000809 06   
    2099                      .dwpsn  file "../c5535_bsl_revc/ezdsp5535_v1/c55xx_csl/src/csl_audioClass.c",line 824,column 20,is_st
    2100              
    2101 00080a A904          MOV *SP(#2), AR1 ; |824| 
    2102 00080c 3DFA  ||      MOV #15, AR2
    2103              
    2104 00080e 1298          CMPU AR1 >= AR2, TC1 ; |824| 
         000810 A4   
    2105 000811 0464          BCC $C$L48,TC1 ; |824| 
TMS320C55x Assembler PC v4.4.1 Fri Sep 07 02:27:33 2018

Tools Copyright (c) 1996-2012 Texas Instruments Incorporated
csl_audioClass.asm                                                   PAGE   49

         000813 19   
    2106                                                      ; branchcc occurs ; |824| 
    2107 000814       $C$L47:    
    2108 000814       $C$DW$L$_AC_initAcVal$3$B:
    2109                      .dwpsn  file "../c5535_bsl_revc/ezdsp5535_v1/c55xx_csl/src/csl_audioClass.c",line 826,column 4,is_stm
    2110 000814 A904          MOV *SP(#2), AR1 ; |826| 
    2111 000816 ED00          MOV dbl(*SP(#0)), XAR3
         000818 BF   
    2112 000819 1490          AADD AR1, AR3 ; |826| 
         00081b B0   
    2113 00081c E66D          MOV #0, *AR3(#268) ; |826| 
         00081e 0001 
         000820 0C   
    2114                      .dwpsn  file "../c5535_bsl_revc/ezdsp5535_v1/c55xx_csl/src/csl_audioClass.c",line 824,column 34,is_st
    2115 000821 F704          ADD #1, *SP(#2) ; |824| 
         000823 0001 
    2116                      .dwpsn  file "../c5535_bsl_revc/ezdsp5535_v1/c55xx_csl/src/csl_audioClass.c",line 824,column 20,is_st
    2117 000825 A904          MOV *SP(#2), AR1 ; |824| 
    2118 000827 1294          CMPU AR1 < AR2, TC1 ; |824| 
         000829 A4   
    2119 00082a 0464          BCC $C$L47,TC1 ; |824| 
         00082c E7   
    2120                                                      ; branchcc occurs ; |824| 
    2121 00082d       $C$DW$L$_AC_initAcVal$3$E:
    2122 00082d       $C$L48:    
    2123                      .dwpsn  file "../c5535_bsl_revc/ezdsp5535_v1/c55xx_csl/src/csl_audioClass.c",line 831,column 3,is_stm
    2124 00082d ED00          MOV dbl(*SP(#0)), XAR3
         00082f BF   
    2125 000830 E66D          MOV #0, *AR3(#284) ; |831| 
         000832 0001 
         000834 1C   
    2126                      .dwpsn  file "../c5535_bsl_revc/ezdsp5535_v1/c55xx_csl/src/csl_audioClass.c",line 832,column 3,is_stm
    2127 000835 ED00          MOV dbl(*SP(#0)), XAR3
         000837 BF   
    2128 000838 FB6D          MOV #21333, *AR3(#285) ; |832| 
         00083a 5355 
         00083c 011D 
    2129                      .dwpsn  file "../c5535_bsl_revc/ezdsp5535_v1/c55xx_csl/src/csl_audioClass.c",line 833,column 3,is_stm
    2130 00083e ED00          MOV dbl(*SP(#0)), XAR3
         000840 BF   
    2131 000841 FB6D          MOV #21314, *AR3(#286) ; |833| 
         000843 5342 
         000845 011E 
    2132                      .dwpsn  file "../c5535_bsl_revc/ezdsp5535_v1/c55xx_csl/src/csl_audioClass.c",line 834,column 8,is_stm
    2133 000847 E604          MOV #3, *SP(#2) ; |834| 
         000849 03   
    2134                      .dwpsn  file "../c5535_bsl_revc/ezdsp5535_v1/c55xx_csl/src/csl_audioClass.c",line 834,column 21,is_st
    2135              
    2136 00084a A904          MOV *SP(#2), AR1 ; |834| 
    2137 00084c 3D8A  ||      MOV #8, AR2
    2138              
    2139 00084e 1298          CMPU AR1 >= AR2, TC1 ; |834| 
         000850 A4   
    2140 000851 0464          BCC $C$L51,TC1 ; |834| 
         000853 1E   
TMS320C55x Assembler PC v4.4.1 Fri Sep 07 02:27:33 2018

Tools Copyright (c) 1996-2012 Texas Instruments Incorporated
csl_audioClass.asm                                                   PAGE   50

    2141                                                      ; branchcc occurs ; |834| 
    2142 000854       $C$L49:    
    2143 000854       $C$DW$L$_AC_initAcVal$5$B:
    2144                      .dwpsn  file "../c5535_bsl_revc/ezdsp5535_v1/c55xx_csl/src/csl_audioClass.c",line 836,column 4,is_stm
    2145 000854 A904          MOV *SP(#2), AR1 ; |836| 
    2146 000856 ED00          MOV dbl(*SP(#0)), XAR3
         000858 BF   
    2147 000859 1490          AADD AR1, AR3 ; |836| 
         00085b B0   
    2148 00085c E66D          MOV #0, *AR3(#284) ; |836| 
         00085e 0001 
         000860 1C   
    2149                      .dwpsn  file "../c5535_bsl_revc/ezdsp5535_v1/c55xx_csl/src/csl_audioClass.c",line 834,column 34,is_st
    2150 000861 F704          ADD #1, *SP(#2) ; |834| 
         000863 0001 
    2151                      .dwpsn  file "../c5535_bsl_revc/ezdsp5535_v1/c55xx_csl/src/csl_audioClass.c",line 834,column 21,is_st
    2152 000865 A904          MOV *SP(#2), AR1 ; |834| 
    2153 000867 1294          CMPU AR1 < AR2, TC1 ; |834| 
         000869 A4   
    2154 00086a 0464          BCC $C$L49,TC1 ; |834| 
         00086c E7   
    2155                                                      ; branchcc occurs ; |834| 
    2156 00086d       $C$DW$L$_AC_initAcVal$5$E:
    2157                      .dwpsn  file "../c5535_bsl_revc/ezdsp5535_v1/c55xx_csl/src/csl_audioClass.c",line 838,column 2,is_stm
    2158 00086d 4A03          B $C$L51  ; |838| 
    2159                                                      ; branch occurs ; |838| 
    2160 00086f       $C$L50:    
    2161                      .dwpsn  file "../c5535_bsl_revc/ezdsp5535_v1/c55xx_csl/src/csl_audioClass.c",line 841,column 3,is_stm
    2162 00086f E606          MOV #-5, *SP(#3) ; |841| 
         000871 FB   
    2163 000872       $C$L51:    
    2164                      .dwpsn  file "../c5535_bsl_revc/ezdsp5535_v1/c55xx_csl/src/csl_audioClass.c",line 844,column 2,is_stm
    2165 000872 A406          MOV *SP(#3), T0 ; |844| 
    2166                      .dwpsn  file "../c5535_bsl_revc/ezdsp5535_v1/c55xx_csl/src/csl_audioClass.c",line 845,column 1,is_stm
    2167 000874 4E05          AADD #5, SP
    2168                      .dwcfi  cfa_offset, 1
    2169              $C$DW$159       .dwtag  DW_TAG_TI_branch
    2170                      .dwattr $C$DW$159, DW_AT_low_pc(0x00)
    2171                      .dwattr $C$DW$159, DW_AT_TI_return
    2172 000876 4804          RET
    2173                                                      ; return occurs
    2174              
    2175              $C$DW$160       .dwtag  DW_TAG_TI_loop
    2176                      .dwattr $C$DW$160, DW_AT_name("F:\eZDSP_5535_Files\ccsws2\test\Debug\csl_audioClass.asm:$C$L49:1:1536
    2177                      .dwattr $C$DW$160, DW_AT_TI_begin_file("../c5535_bsl_revc/ezdsp5535_v1/c55xx_csl/src/csl_audioClass.c
    2178                      .dwattr $C$DW$160, DW_AT_TI_begin_line(0x342)
    2179                      .dwattr $C$DW$160, DW_AT_TI_end_line(0x345)
    2180              $C$DW$161       .dwtag  DW_TAG_TI_loop_range
    2181                      .dwattr $C$DW$161, DW_AT_low_pc($C$DW$L$_AC_initAcVal$5$B)
    2182                      .dwattr $C$DW$161, DW_AT_high_pc($C$DW$L$_AC_initAcVal$5$E)
    2183                      .dwendtag $C$DW$160
    2184              
    2185              
    2186              $C$DW$162       .dwtag  DW_TAG_TI_loop
    2187                      .dwattr $C$DW$162, DW_AT_name("F:\eZDSP_5535_Files\ccsws2\test\Debug\csl_audioClass.asm:$C$L47:1:1536
TMS320C55x Assembler PC v4.4.1 Fri Sep 07 02:27:33 2018

Tools Copyright (c) 1996-2012 Texas Instruments Incorporated
csl_audioClass.asm                                                   PAGE   51

    2188                      .dwattr $C$DW$162, DW_AT_TI_begin_file("../c5535_bsl_revc/ezdsp5535_v1/c55xx_csl/src/csl_audioClass.c
    2189                      .dwattr $C$DW$162, DW_AT_TI_begin_line(0x338)
    2190                      .dwattr $C$DW$162, DW_AT_TI_end_line(0x33b)
    2191              $C$DW$163       .dwtag  DW_TAG_TI_loop_range
    2192                      .dwattr $C$DW$163, DW_AT_low_pc($C$DW$L$_AC_initAcVal$3$B)
    2193                      .dwattr $C$DW$163, DW_AT_high_pc($C$DW$L$_AC_initAcVal$3$E)
    2194                      .dwendtag $C$DW$162
    2195              
    2196                      .dwattr $C$DW$154, DW_AT_TI_end_file("../c5535_bsl_revc/ezdsp5535_v1/c55xx_csl/src/csl_audioClass.c")
    2197                      .dwattr $C$DW$154, DW_AT_TI_end_line(0x34d)
    2198                      .dwattr $C$DW$154, DW_AT_TI_end_column(0x01)
    2199                      .dwendentry
    2200                      .dwendtag $C$DW$154
    2201              
    2202 000878               .sect   ".text"
    2203                      .align 4
    2204                      .global _AC_reqGetDescriptor
    2205              
    2206              $C$DW$164       .dwtag  DW_TAG_subprogram, DW_AT_name("AC_reqGetDescriptor")
    2207                      .dwattr $C$DW$164, DW_AT_low_pc(_AC_reqGetDescriptor)
    2208                      .dwattr $C$DW$164, DW_AT_high_pc(0x00)
    2209                      .dwattr $C$DW$164, DW_AT_TI_symbol_name("_AC_reqGetDescriptor")
    2210                      .dwattr $C$DW$164, DW_AT_external
    2211                      .dwattr $C$DW$164, DW_AT_type(*$C$DW$T$44)
    2212                      .dwattr $C$DW$164, DW_AT_TI_begin_file("../c5535_bsl_revc/ezdsp5535_v1/c55xx_csl/src/csl_audioClass.c
    2213                      .dwattr $C$DW$164, DW_AT_TI_begin_line(0x381)
    2214                      .dwattr $C$DW$164, DW_AT_TI_begin_column(0x12)
    2215                      .dwattr $C$DW$164, DW_AT_TI_max_frame_size(0x5a)
    2216                      .dwpsn  file "../c5535_bsl_revc/ezdsp5535_v1/c55xx_csl/src/csl_audioClass.c",line 902,column 1,is_stm
    2217              
    2218                      .dwfde $C$DW$CIE, _AC_reqGetDescriptor
    2219              $C$DW$165       .dwtag  DW_TAG_formal_parameter, DW_AT_name("devNum")
    2220                      .dwattr $C$DW$165, DW_AT_TI_symbol_name("_devNum")
    2221                      .dwattr $C$DW$165, DW_AT_type(*$C$DW$T$24)
    2222                      .dwattr $C$DW$165, DW_AT_location[DW_OP_reg12]
    2223              $C$DW$166       .dwtag  DW_TAG_formal_parameter, DW_AT_name("usbSetup")
    2224                      .dwattr $C$DW$166, DW_AT_TI_symbol_name("_usbSetup")
    2225                      .dwattr $C$DW$166, DW_AT_type(*$C$DW$T$45)
    2226                      .dwattr $C$DW$166, DW_AT_location[DW_OP_reg17]
    2227              $C$DW$167       .dwtag  DW_TAG_formal_parameter, DW_AT_name("hInEp")
    2228                      .dwattr $C$DW$167, DW_AT_TI_symbol_name("_hInEp")
    2229                      .dwattr $C$DW$167, DW_AT_type(*$C$DW$T$27)
    2230                      .dwattr $C$DW$167, DW_AT_location[DW_OP_reg19]
    2231              $C$DW$168       .dwtag  DW_TAG_formal_parameter, DW_AT_name("hOutEp")
    2232                      .dwattr $C$DW$168, DW_AT_TI_symbol_name("_hOutEp")
    2233                      .dwattr $C$DW$168, DW_AT_type(*$C$DW$T$27)
    2234                      .dwattr $C$DW$168, DW_AT_location[DW_OP_reg21]
    2235              $C$DW$169       .dwtag  DW_TAG_formal_parameter, DW_AT_name("pAcObj")
    2236                      .dwattr $C$DW$169, DW_AT_TI_symbol_name("_pAcObj")
    2237                      .dwattr $C$DW$169, DW_AT_type(*$C$DW$T$3)
    2238                      .dwattr $C$DW$169, DW_AT_location[DW_OP_reg23]
    2239              ;*******************************************************************************
    2240              ;* FUNCTION NAME: AC_reqGetDescriptor                                          *
    2241              ;*                                                                             *
    2242              ;*   Function Uses Regs : AC0,AC0,AC1,T0,T1,AR0,XAR0,AR1,XAR1,AR2,XAR2,AR3,    *
TMS320C55x Assembler PC v4.4.1 Fri Sep 07 02:27:33 2018

Tools Copyright (c) 1996-2012 Texas Instruments Incorporated
csl_audioClass.asm                                                   PAGE   52

    2243              ;*                        XAR3,SP,CSR,RPTC,CARRY,TC1,M40,SATA,SATD,RDM,FRCT,   *
    2244              ;*                        SMUL                                                 *
    2245              ;*   Stack Frame        : Compact (No Frame Pointer, w/ debug)                 *
    2246              ;*   Total Frame Size   : 90 words                                             *
    2247              ;*                        (2 return address/alignment)                         *
    2248              ;*                        (88 local values)                                    *
    2249              ;*   Min System Stack   : 1 word                                               *
    2250              ;*******************************************************************************
    2251 000878       _AC_reqGetDescriptor:
    2252                      .dwcfi  cfa_offset, 1
    2253                      .dwcfi  save_reg_to_mem, 91, -1
    2254 000878 4EA7          AADD #-89, SP
    2255                      .dwcfi  cfa_offset, 90
    2256              $C$DW$170       .dwtag  DW_TAG_variable, DW_AT_name("devNum")
    2257                      .dwattr $C$DW$170, DW_AT_TI_symbol_name("_devNum")
    2258                      .dwattr $C$DW$170, DW_AT_type(*$C$DW$T$24)
    2259                      .dwattr $C$DW$170, DW_AT_location[DW_OP_bregx 0x24 0]
    2260              $C$DW$171       .dwtag  DW_TAG_variable, DW_AT_name("usbSetup")
    2261                      .dwattr $C$DW$171, DW_AT_TI_symbol_name("_usbSetup")
    2262                      .dwattr $C$DW$171, DW_AT_type(*$C$DW$T$45)
    2263                      .dwattr $C$DW$171, DW_AT_location[DW_OP_bregx 0x24 2]
    2264              $C$DW$172       .dwtag  DW_TAG_variable, DW_AT_name("hInEp")
    2265                      .dwattr $C$DW$172, DW_AT_TI_symbol_name("_hInEp")
    2266                      .dwattr $C$DW$172, DW_AT_type(*$C$DW$T$27)
    2267                      .dwattr $C$DW$172, DW_AT_location[DW_OP_bregx 0x24 4]
    2268              $C$DW$173       .dwtag  DW_TAG_variable, DW_AT_name("hOutEp")
    2269                      .dwattr $C$DW$173, DW_AT_TI_symbol_name("_hOutEp")
    2270                      .dwattr $C$DW$173, DW_AT_type(*$C$DW$T$27)
    2271                      .dwattr $C$DW$173, DW_AT_location[DW_OP_bregx 0x24 6]
    2272              $C$DW$174       .dwtag  DW_TAG_variable, DW_AT_name("pAcObj")
    2273                      .dwattr $C$DW$174, DW_AT_TI_symbol_name("_pAcObj")
    2274                      .dwattr $C$DW$174, DW_AT_type(*$C$DW$T$3)
    2275                      .dwattr $C$DW$174, DW_AT_location[DW_OP_bregx 0x24 8]
    2276              $C$DW$175       .dwtag  DW_TAG_variable, DW_AT_name("tempLen")
    2277                      .dwattr $C$DW$175, DW_AT_TI_symbol_name("_tempLen")
    2278                      .dwattr $C$DW$175, DW_AT_type(*$C$DW$T$25)
    2279                      .dwattr $C$DW$175, DW_AT_location[DW_OP_bregx 0x24 10]
    2280              $C$DW$176       .dwtag  DW_TAG_variable, DW_AT_name("strLen")
    2281                      .dwattr $C$DW$176, DW_AT_TI_symbol_name("_strLen")
    2282                      .dwattr $C$DW$176, DW_AT_type(*$C$DW$T$25)
    2283                      .dwattr $C$DW$176, DW_AT_location[DW_OP_bregx 0x24 11]
    2284              $C$DW$177       .dwtag  DW_TAG_variable, DW_AT_name("inOutFlag")
    2285                      .dwattr $C$DW$177, DW_AT_TI_symbol_name("_inOutFlag")
    2286                      .dwattr $C$DW$177, DW_AT_type(*$C$DW$T$25)
    2287                      .dwattr $C$DW$177, DW_AT_location[DW_OP_bregx 0x24 12]
    2288              $C$DW$178       .dwtag  DW_TAG_variable, DW_AT_name("count")
    2289                      .dwattr $C$DW$178, DW_AT_TI_symbol_name("_count")
    2290                      .dwattr $C$DW$178, DW_AT_type(*$C$DW$T$25)
    2291                      .dwattr $C$DW$178, DW_AT_location[DW_OP_bregx 0x24 13]
    2292              $C$DW$179       .dwtag  DW_TAG_variable, DW_AT_name("temp1")
    2293                      .dwattr $C$DW$179, DW_AT_TI_symbol_name("_temp1")
    2294                      .dwattr $C$DW$179, DW_AT_type(*$C$DW$T$25)
    2295                      .dwattr $C$DW$179, DW_AT_location[DW_OP_bregx 0x24 14]
    2296              $C$DW$180       .dwtag  DW_TAG_variable, DW_AT_name("temp2")
    2297                      .dwattr $C$DW$180, DW_AT_TI_symbol_name("_temp2")
TMS320C55x Assembler PC v4.4.1 Fri Sep 07 02:27:33 2018

Tools Copyright (c) 1996-2012 Texas Instruments Incorporated
csl_audioClass.asm                                                   PAGE   53

    2298                      .dwattr $C$DW$180, DW_AT_type(*$C$DW$T$25)
    2299                      .dwattr $C$DW$180, DW_AT_location[DW_OP_bregx 0x24 15]
    2300              $C$DW$181       .dwtag  DW_TAG_variable, DW_AT_name("unicodeString")
    2301                      .dwattr $C$DW$181, DW_AT_TI_symbol_name("_unicodeString")
    2302                      .dwattr $C$DW$181, DW_AT_type(*$C$DW$T$140)
    2303                      .dwattr $C$DW$181, DW_AT_location[DW_OP_bregx 0x24 16]
    2304              $C$DW$182       .dwtag  DW_TAG_variable, DW_AT_name("descrLen")
    2305                      .dwattr $C$DW$182, DW_AT_TI_symbol_name("_descrLen")
    2306                      .dwattr $C$DW$182, DW_AT_type(*$C$DW$T$25)
    2307                      .dwattr $C$DW$182, DW_AT_location[DW_OP_bregx 0x24 82]
    2308              $C$DW$183       .dwtag  DW_TAG_variable, DW_AT_name("pACClassHdl")
    2309                      .dwattr $C$DW$183, DW_AT_TI_symbol_name("_pACClassHdl")
    2310                      .dwattr $C$DW$183, DW_AT_type(*$C$DW$T$95)
    2311                      .dwattr $C$DW$183, DW_AT_location[DW_OP_bregx 0x24 84]
    2312              $C$DW$184       .dwtag  DW_TAG_variable, DW_AT_name("pCtrlHandle")
    2313                      .dwattr $C$DW$184, DW_AT_TI_symbol_name("_pCtrlHandle")
    2314                      .dwattr $C$DW$184, DW_AT_type(*$C$DW$T$96)
    2315                      .dwattr $C$DW$184, DW_AT_location[DW_OP_bregx 0x24 86]
    2316 00087a EB10          MOV XAR3, dbl(*SP(#8))
         00087c B5   
    2317 00087d EB0C          MOV XAR2, dbl(*SP(#6))
         00087f A5   
    2318 000880 EB08          MOV XAR1, dbl(*SP(#4))
         000882 95   
    2319 000883 EB04          MOV XAR0, dbl(*SP(#2))
         000885 85   
    2320 000886 C400          MOV T0, *SP(#0) ; |902| 
    2321                      .dwpsn  file "../c5535_bsl_revc/ezdsp5535_v1/c55xx_csl/src/csl_audioClass.c",line 914,column 2,is_stm
    2322 000888 ED10          MOV dbl(*SP(#8)), XAR3
         00088a BF   
    2323 00088b EBA8          MOV XAR3, dbl(*SP(#84))
         00088d B5   
    2324                      .dwpsn  file "../c5535_bsl_revc/ezdsp5535_v1/c55xx_csl/src/csl_audioClass.c",line 915,column 2,is_stm
    2325 00088e EBAC          MOV XAR3, dbl(*SP(#86))
         000890 B5   
    2326                      .dwpsn  file "../c5535_bsl_revc/ezdsp5535_v1/c55xx_csl/src/csl_audioClass.c",line 916,column 2,is_stm
    2327 000891 E61A          MOV #0, *SP(#13) ; |916| 
         000893 00   
    2328                      .dwpsn  file "../c5535_bsl_revc/ezdsp5535_v1/c55xx_csl/src/csl_audioClass.c",line 918,column 5,is_stm
    2329 000894 0601          B $C$L73  ; |918| 
         000896 88   
    2330                                                      ; branch occurs ; |918| 
    2331 000897       $C$L52:    
    2332                      .dwpsn  file "../c5535_bsl_revc/ezdsp5535_v1/c55xx_csl/src/csl_audioClass.c",line 922,column 10,is_st
    2333 000897 EDAC          MOV dbl(*SP(#86)), XAR3
         000899 BF   
    2334 00089a DF6D          MOV uns(low_byte(*AR3(#178))), AR1 ; |922| 
         00089c 9300 
         00089e B2   
    2335 00089f C914          MOV AR1, *SP(#10) ; |922| 
    2336                      .dwpsn  file "../c5535_bsl_revc/ezdsp5535_v1/c55xx_csl/src/csl_audioClass.c",line 924,column 13,is_st
    2337 0008a1 ED04          MOV dbl(*SP(#2)), XAR3
         0008a3 BF   
    2338 0008a4 AA14          MOV *SP(#10), AR2 ; |924| 
    2339 0008a6 A97B          MOV *AR3(short(#5)), AR1 ; |924| 
TMS320C55x Assembler PC v4.4.1 Fri Sep 07 02:27:33 2018

Tools Copyright (c) 1996-2012 Texas Instruments Incorporated
csl_audioClass.asm                                                   PAGE   54

    2340 0008a8 12A8          CMPU AR2 >= AR1, TC1 ; |924| 
         0008aa 94   
    2341 0008ab 6264          BCC $C$L53,TC1 ; |924| 
    2342                                                      ; branchcc occurs ; |924| 
    2343              
    2344 0008ad 4A02          B $C$L54  ; |924| 
    2345 0008af 23A9  ||      MOV AR2, AR1
    2346              
    2347                                                      ; branch occurs ; |924| 
    2348 0008b1       $C$L53:    
    2349 0008b1 A97B          MOV *AR3(short(#5)), AR1 ; |924| 
    2350 0008b3       $C$L54:    
    2351 0008b3 C914          MOV AR1, *SP(#10) ; |924| 
    2352                      .dwpsn  file "../c5535_bsl_revc/ezdsp5535_v1/c55xx_csl/src/csl_audioClass.c",line 926,column 13,is_st
    2353 0008b5 EDAC          MOV dbl(*SP(#86)), XAR1
         0008b7 9F   
    2354 0008b8 ED08          MOV dbl(*SP(#4)), XAR0
         0008ba 8F   
    2355 0008bb A414          MOV *SP(#10), T0 ; |926| 
    2356 0008bd B42F          AMAR *+AR1(#177) ; |926| 
         0008bf 00B1 
    2357              $C$DW$185       .dwtag  DW_TAG_TI_branch
    2358                      .dwattr $C$DW$185, DW_AT_low_pc(0x00)
    2359                      .dwattr $C$DW$185, DW_AT_name("_USB_postTransaction")
    2360                      .dwattr $C$DW$185, DW_AT_TI_call
    2361              
    2362 0008c1 6C00          CALL #_USB_postTransaction ; |926| 
         0008c3 0000!
    2363 0008c5 3D05  ||      MOV #0, T1
    2364              
    2365                                                      ; call occurs [#_USB_postTransaction] ; |926| 
    2366                      .dwpsn  file "../c5535_bsl_revc/ezdsp5535_v1/c55xx_csl/src/csl_audioClass.c",line 929,column 18,is_st
    2367 0008c7 0601          B $C$L74  ; |929| 
         0008c9 80   
    2368                                                      ; branch occurs ; |929| 
    2369 0008ca       $C$L55:    
    2370                      .dwpsn  file "../c5535_bsl_revc/ezdsp5535_v1/c55xx_csl/src/csl_audioClass.c",line 932,column 11,is_st
    2371 0008ca E618          MOV #12, *SP(#12) ; |932| 
         0008cc 0C   
    2372                      .dwpsn  file "../c5535_bsl_revc/ezdsp5535_v1/c55xx_csl/src/csl_audioClass.c",line 933,column 11,is_st
    2373 0008cd EDAC          MOV dbl(*SP(#86)), XAR3
         0008cf BF   
    2374 0008d0 A96D          MOV *AR3(#199), AR1 ; |933| 
         0008d2 00C7 
    2375 0008d4 C914          MOV AR1, *SP(#10) ; |933| 
    2376                      .dwpsn  file "../c5535_bsl_revc/ezdsp5535_v1/c55xx_csl/src/csl_audioClass.c",line 934,column 11,is_st
    2377 0008d6 ED04          MOV dbl(*SP(#2)), XAR3
         0008d8 BF   
    2378 0008d9 AA14          MOV *SP(#10), AR2 ; |934| 
    2379 0008db A97B          MOV *AR3(short(#5)), AR1 ; |934| 
    2380 0008dd 12AC          CMPU AR2 != AR1, TC1 ; |934| 
         0008df 94   
    2381 0008e0 6264          BCC $C$L56,TC1 ; |934| 
    2382                                                      ; branchcc occurs ; |934| 
    2383                      .dwpsn  file "../c5535_bsl_revc/ezdsp5535_v1/c55xx_csl/src/csl_audioClass.c",line 936,column 5,is_stm
TMS320C55x Assembler PC v4.4.1 Fri Sep 07 02:27:33 2018

Tools Copyright (c) 1996-2012 Texas Instruments Incorporated
csl_audioClass.asm                                                   PAGE   55

    2384 0008e2 F518          OR #0x0001, *SP(#12) ; |936| 
         0008e4 0001 
    2385 0008e6       $C$L56:    
    2386                      .dwpsn  file "../c5535_bsl_revc/ezdsp5535_v1/c55xx_csl/src/csl_audioClass.c",line 940,column 11,is_st
    2387 0008e6 ED04          MOV dbl(*SP(#2)), XAR3
         0008e8 BF   
    2388 0008e9 AA14          MOV *SP(#10), AR2 ; |940| 
    2389 0008eb A97B          MOV *AR3(short(#5)), AR1 ; |940| 
    2390 0008ed 12A8          CMPU AR2 >= AR1, TC1 ; |940| 
         0008ef 94   
    2391 0008f0 6264          BCC $C$L57,TC1 ; |940| 
    2392                                                      ; branchcc occurs ; |940| 
    2393              
    2394 0008f2 4A02          B $C$L58  ; |940| 
    2395 0008f4 23A9  ||      MOV AR2, AR1
    2396              
    2397                                                      ; branch occurs ; |940| 
    2398 0008f6       $C$L57:    
    2399 0008f6 A97B          MOV *AR3(short(#5)), AR1 ; |940| 
    2400 0008f8       $C$L58:    
    2401 0008f8 C914          MOV AR1, *SP(#10) ; |940| 
    2402                      .dwpsn  file "../c5535_bsl_revc/ezdsp5535_v1/c55xx_csl/src/csl_audioClass.c",line 943,column 4,is_stm
    2403 0008fa EDAC          MOV dbl(*SP(#86)), XAR1
         0008fc 9F   
    2404 0008fd ED08          MOV dbl(*SP(#4)), XAR0
         0008ff 8F   
    2405 000900 A414          MOV *SP(#10), T0 ; |943| 
    2406 000902 A518          MOV *SP(#12), T1 ; |943| 
    2407 000904 B42F          AMAR *+AR1(#197) ; |943| 
         000906 00C5 
    2408              $C$DW$186       .dwtag  DW_TAG_TI_branch
    2409                      .dwattr $C$DW$186, DW_AT_low_pc(0x00)
    2410                      .dwattr $C$DW$186, DW_AT_name("_USB_postTransaction")
    2411                      .dwattr $C$DW$186, DW_AT_TI_call
    2412 000908 6C00          CALL #_USB_postTransaction ; |943| 
         00090a 0000!
    2413                                                      ; call occurs [#_USB_postTransaction] ; |943| 
    2414                      .dwpsn  file "../c5535_bsl_revc/ezdsp5535_v1/c55xx_csl/src/csl_audioClass.c",line 945,column 16,is_st
    2415 00090c 0601          B $C$L74  ; |945| 
         00090e 3B   
    2416                                                      ; branch occurs ; |945| 
    2417 00090f       $C$L59:    
    2418                      .dwpsn  file "../c5535_bsl_revc/ezdsp5535_v1/c55xx_csl/src/csl_audioClass.c",line 948,column 11,is_st
    2419 00090f 3C00          MOV #0, AC0 ; |948| 
    2420 000911 900A          MOV AC0, XAR2
    2421              
    2422 000916 4D41          RPT #65   ; |948| 
    2423 000913 EC20  ||      AMAR *SP(#16), XAR3
         000915 BE   
    2424              
    2425                                                          ; loop starts ; |948| 
    2426 000918       $C$L60:    
    2427 000918       $C$DW$L$_AC_reqGetDescriptor$14$B:
    2428 000918 8045              MOV *AR2+, *AR3+ ; |948| 
         00091a 94   
TMS320C55x Assembler PC v4.4.1 Fri Sep 07 02:27:33 2018

Tools Copyright (c) 1996-2012 Texas Instruments Incorporated
csl_audioClass.asm                                                   PAGE   56

    2429                                                      ; loop ends ; |948| 
    2430 00091b       $C$DW$L$_AC_reqGetDescriptor$14$E:
    2431 00091b       $C$L61:    
    2432                      .dwpsn  file "../c5535_bsl_revc/ezdsp5535_v1/c55xx_csl/src/csl_audioClass.c",line 950,column 11,is_st
    2433 00091b ED04          MOV dbl(*SP(#2)), XAR3
         00091d BF   
    2434 00091e DF77          MOV uns(low_byte(*AR3(short(#3)))), AR1 ; |950| 
         000920 93   
    2435 000921 0419          BCC $C$L64,AR1 != #0 ; |950| 
         000923 33   
    2436                                                      ; branchcc occurs ; |950| 
    2437                      .dwpsn  file "../c5535_bsl_revc/ezdsp5535_v1/c55xx_csl/src/csl_audioClass.c",line 952,column 12,is_st
    2438 000924 EDAC          MOV dbl(*SP(#86)), XAR3
         000926 BF   
    2439 000927 DF6D          MOV uns(low_byte(*AR3(#357))), AR1 ; |952| 
         000929 9301 
         00092b 65   
    2440 00092c C914          MOV AR1, *SP(#10) ; |952| 
    2441                      .dwpsn  file "../c5535_bsl_revc/ezdsp5535_v1/c55xx_csl/src/csl_audioClass.c",line 954,column 14,is_st
    2442 00092e ED04          MOV dbl(*SP(#2)), XAR3
         000930 BF   
    2443 000931 AA14          MOV *SP(#10), AR2 ; |954| 
    2444 000933 A97B          MOV *AR3(short(#5)), AR1 ; |954| 
    2445 000935 12A8          CMPU AR2 >= AR1, TC1 ; |954| 
         000937 94   
    2446 000938 6264          BCC $C$L62,TC1 ; |954| 
    2447                                                      ; branchcc occurs ; |954| 
    2448              
    2449 00093a 4A02          B $C$L63  ; |954| 
    2450 00093c 23A9  ||      MOV AR2, AR1
    2451              
    2452                                                      ; branch occurs ; |954| 
    2453 00093e       $C$L62:    
    2454 00093e A97B          MOV *AR3(short(#5)), AR1 ; |954| 
    2455 000940       $C$L63:    
    2456 000940 C914          MOV AR1, *SP(#10) ; |954| 
    2457                      .dwpsn  file "../c5535_bsl_revc/ezdsp5535_v1/c55xx_csl/src/csl_audioClass.c",line 957,column 14,is_st
    2458 000942 EDAC          MOV dbl(*SP(#86)), XAR1
         000944 9F   
    2459 000945 ED08          MOV dbl(*SP(#4)), XAR0
         000947 8F   
    2460 000948 A414          MOV *SP(#10), T0 ; |957| 
    2461 00094a B42F          AMAR *+AR1(#356) ; |957| 
         00094c 0164 
    2462              $C$DW$187       .dwtag  DW_TAG_TI_branch
    2463                      .dwattr $C$DW$187, DW_AT_low_pc(0x00)
    2464                      .dwattr $C$DW$187, DW_AT_name("_USB_postTransaction")
    2465                      .dwattr $C$DW$187, DW_AT_TI_call
    2466              
    2467 00094e 6C00          CALL #_USB_postTransaction ; |957| 
         000950 0000!
    2468 000952 3D05  ||      MOV #0, T1
    2469              
    2470                                                      ; call occurs [#_USB_postTransaction] ; |957| 
    2471                      .dwpsn  file "../c5535_bsl_revc/ezdsp5535_v1/c55xx_csl/src/csl_audioClass.c",line 960,column 11,is_st
TMS320C55x Assembler PC v4.4.1 Fri Sep 07 02:27:33 2018

Tools Copyright (c) 1996-2012 Texas Instruments Incorporated
csl_audioClass.asm                                                   PAGE   57

    2472 000954 0600          B $C$L74  ; |960| 
         000956 F3   
    2473                                                      ; branch occurs ; |960| 
    2474 000957       $C$L64:    
    2475                      .dwpsn  file "../c5535_bsl_revc/ezdsp5535_v1/c55xx_csl/src/csl_audioClass.c",line 964,column 12,is_st
    2476 000957 DF77          MOV uns(low_byte(*AR3(short(#3)))), T0 ; |964| 
         000959 43   
    2477 00095a EDAC          MOV dbl(*SP(#86)), XAR3
         00095c BF   
    2478 00095d 5040          SFTL T0, #1 ; |964| 
    2479 00095f ED6D          MOV dbl(*AR3(#388)), XAR3
         000961 BF01 
         000963 84   
    2480 000964 ED6B          MOV dbl(*AR3(T0)), XAR0
         000966 8F   
    2481              $C$DW$188       .dwtag  DW_TAG_TI_branch
    2482                      .dwattr $C$DW$188, DW_AT_low_pc(0x00)
    2483                      .dwattr $C$DW$188, DW_AT_name("_strlen")
    2484                      .dwattr $C$DW$188, DW_AT_TI_call
    2485 000967 6C00          CALL #_strlen ; |964| 
         000969 0000!
    2486                                                      ; call occurs [#_strlen] ; |964| 
    2487 00096b C416          MOV T0, *SP(#11) ; |964| 
    2488                      .dwpsn  file "../c5535_bsl_revc/ezdsp5535_v1/c55xx_csl/src/csl_audioClass.c",line 969,column 5,is_stm
    2489 00096d 2249          MOV T0, AR1
    2490 00096f 5090          SFTL AR1, #1 ; |969| 
    2491 000971 4029          ADD #2, AR1 ; |969| 
    2492 000973 C9A4          MOV AR1, *SP(#82) ; |969| 
    2493                      .dwpsn  file "../c5535_bsl_revc/ezdsp5535_v1/c55xx_csl/src/csl_audioClass.c",line 972,column 14,is_st
    2494 000975 ED04          MOV dbl(*SP(#2)), XAR3
         000977 BF   
    2495 000978 AAA4          MOV *SP(#82), AR2 ; |972| 
    2496 00097a A97B          MOV *AR3(short(#5)), AR1 ; |972| 
    2497 00097c 12A8          CMPU AR2 >= AR1, TC1 ; |972| 
         00097e 94   
    2498 00097f 6264          BCC $C$L65,TC1 ; |972| 
    2499                                                      ; branchcc occurs ; |972| 
    2500              
    2501 000981 4A02          B $C$L66  ; |972| 
    2502 000983 23A9  ||      MOV AR2, AR1
    2503              
    2504                                                      ; branch occurs ; |972| 
    2505 000985       $C$L65:    
    2506 000985 A97B          MOV *AR3(short(#5)), AR1 ; |972| 
    2507 000987       $C$L66:    
    2508 000987 C914          MOV AR1, *SP(#10) ; |972| 
    2509                      .dwpsn  file "../c5535_bsl_revc/ezdsp5535_v1/c55xx_csl/src/csl_audioClass.c",line 976,column 18,is_st
    2510 000989 E61A          MOV #0, *SP(#13) ; |976| 
         00098b 00   
    2511                      .dwpsn  file "../c5535_bsl_revc/ezdsp5535_v1/c55xx_csl/src/csl_audioClass.c",line 976,column 29,is_st
    2512 00098c AA1A          MOV *SP(#13), AR2 ; |976| 
    2513 00098e A916          MOV *SP(#11), AR1 ; |976| 
    2514 000990 12A8          CMPU AR2 >= AR1, TC1 ; |976| 
         000992 94   
    2515 000993 0464          BCC $C$L68,TC1 ; |976| 
TMS320C55x Assembler PC v4.4.1 Fri Sep 07 02:27:33 2018

Tools Copyright (c) 1996-2012 Texas Instruments Incorporated
csl_audioClass.asm                                                   PAGE   58

         000995 3A   
    2516                                                      ; branchcc occurs ; |976| 
    2517 000996       $C$L67:    
    2518 000996       $C$DW$L$_AC_reqGetDescriptor$24$B:
    2519                      .dwpsn  file "../c5535_bsl_revc/ezdsp5535_v1/c55xx_csl/src/csl_audioClass.c",line 978,column 6,is_stm
    2520 000996 ED04          MOV dbl(*SP(#2)), XAR3
         000998 BF   
    2521 000999 DF77          MOV uns(low_byte(*AR3(short(#3)))), T0 ; |978| 
         00099b 43   
    2522 00099c EDAC          MOV dbl(*SP(#86)), XAR3
         00099e BF   
    2523 00099f 5040          SFTL T0, #1 ; |978| 
    2524 0009a1 ED6D          MOV dbl(*AR3(#388)), XAR3
         0009a3 BF01 
         0009a5 84   
    2525 0009a6 ED6B          MOV dbl(*AR3(T0)), XAR3
         0009a8 BF   
    2526 0009a9 A41A          MOV *SP(#13), T0 ; |978| 
    2527 0009ab A96B          MOV *AR3(T0), AR1 ; |978| 
    2528 0009ad C91C          MOV AR1, *SP(#14) ; |978| 
    2529                      .dwpsn  file "../c5535_bsl_revc/ezdsp5535_v1/c55xx_csl/src/csl_audioClass.c",line 980,column 6,is_stm
    2530 0009af E61E          MOV #0, *SP(#15) ; |980| 
         0009b1 00   
    2531                      .dwpsn  file "../c5535_bsl_revc/ezdsp5535_v1/c55xx_csl/src/csl_audioClass.c",line 981,column 6,is_stm
    2532 0009b2 A41A          MOV *SP(#13), T0 ; |981| 
    2533 0009b4 4024          ADD #2, T0 ; |981| 
    2534 0009b6 A01C          MOV *SP(#14), AC0 ; |981| 
    2535 0009b8 A11E          MOV *SP(#15), AC1 ; |981| 
    2536              
    2537 0009ba EC20          AMAR *SP(#16), XAR3
         0009bc BE   
    2538 0009bd 1111  ||      OR AC1 << #8, AC0 ; |981| 
         0009bf 08   
    2539              
    2540 0009c0 C06B          MOV AC0, *AR3(T0) ; |981| 
    2541                      .dwpsn  file "../c5535_bsl_revc/ezdsp5535_v1/c55xx_csl/src/csl_audioClass.c",line 976,column 45,is_st
    2542 0009c2 F71A          ADD #1, *SP(#13) ; |976| 
         0009c4 0001 
    2543                      .dwpsn  file "../c5535_bsl_revc/ezdsp5535_v1/c55xx_csl/src/csl_audioClass.c",line 976,column 29,is_st
    2544 0009c6 AA1A          MOV *SP(#13), AR2 ; |976| 
    2545 0009c8 A916          MOV *SP(#11), AR1 ; |976| 
    2546 0009ca 12A4          CMPU AR2 < AR1, TC1 ; |976| 
         0009cc 94   
    2547 0009cd 0464          BCC $C$L67,TC1 ; |976| 
         0009cf C6   
    2548                                                      ; branchcc occurs ; |976| 
    2549 0009d0       $C$DW$L$_AC_reqGetDescriptor$24$E:
    2550 0009d0       $C$L68:    
    2551                      .dwpsn  file "../c5535_bsl_revc/ezdsp5535_v1/c55xx_csl/src/csl_audioClass.c",line 984,column 14,is_st
    2552 0009d0 A914          MOV *SP(#10), AR1 ; |984| 
    2553 0009d2 7E03          OR #0x0300, AR1, AR1 ; |984| 
         0009d4 0099 
    2554 0009d6 C922          MOV AR1, *SP(#17) ; |984| 
    2555                      .dwpsn  file "../c5535_bsl_revc/ezdsp5535_v1/c55xx_csl/src/csl_audioClass.c",line 987,column 14,is_st
    2556 0009d8 ED08          MOV dbl(*SP(#4)), XAR0
TMS320C55x Assembler PC v4.4.1 Fri Sep 07 02:27:33 2018

Tools Copyright (c) 1996-2012 Texas Instruments Incorporated
csl_audioClass.asm                                                   PAGE   59

         0009da 8F   
    2557 0009db A414          MOV *SP(#10), T0 ; |987| 
    2558 0009dd EC20          AMAR *SP(#16), XAR1
         0009df 9E   
    2559              $C$DW$189       .dwtag  DW_TAG_TI_branch
    2560                      .dwattr $C$DW$189, DW_AT_low_pc(0x00)
    2561                      .dwattr $C$DW$189, DW_AT_name("_USB_postTransaction")
    2562                      .dwattr $C$DW$189, DW_AT_TI_call
    2563              
    2564 0009e0 6C00          CALL #_USB_postTransaction ; |987| 
         0009e2 0000!
    2565 0009e4 3D05  ||      MOV #0, T1
    2566              
    2567                                                      ; call occurs [#_USB_postTransaction] ; |987| 
    2568                      .dwpsn  file "../c5535_bsl_revc/ezdsp5535_v1/c55xx_csl/src/csl_audioClass.c",line 990,column 15,is_st
    2569 0009e6 0600          B $C$L74  ; |990| 
         0009e8 61   
    2570                                                      ; branch occurs ; |990| 
    2571 0009e9       $C$L69:    
    2572                      .dwpsn  file "../c5535_bsl_revc/ezdsp5535_v1/c55xx_csl/src/csl_audioClass.c",line 993,column 4,is_stm
    2573 0009e9 EDAC          MOV dbl(*SP(#86)), XAR3
         0009eb BF   
    2574 0009ec DF6D          MOV uns(low_byte(*AR3(#166))), AR1 ; |993| 
         0009ee 9300 
         0009f0 A6   
    2575 0009f1 C914          MOV AR1, *SP(#10) ; |993| 
    2576                      .dwpsn  file "../c5535_bsl_revc/ezdsp5535_v1/c55xx_csl/src/csl_audioClass.c",line 995,column 13,is_st
    2577 0009f3 ED04          MOV dbl(*SP(#2)), XAR3
         0009f5 BF   
    2578 0009f6 AA14          MOV *SP(#10), AR2 ; |995| 
    2579 0009f8 A97B          MOV *AR3(short(#5)), AR1 ; |995| 
    2580 0009fa 12A8          CMPU AR2 >= AR1, TC1 ; |995| 
         0009fc 94   
    2581 0009fd 6264          BCC $C$L70,TC1 ; |995| 
    2582                                                      ; branchcc occurs ; |995| 
    2583              
    2584 0009ff 4A02          B $C$L71  ; |995| 
    2585 000a01 23A9  ||      MOV AR2, AR1
    2586              
    2587                                                      ; branch occurs ; |995| 
    2588 000a03       $C$L70:    
    2589 000a03 A97B          MOV *AR3(short(#5)), AR1 ; |995| 
    2590 000a05       $C$L71:    
    2591 000a05 C914          MOV AR1, *SP(#10) ; |995| 
    2592                      .dwpsn  file "../c5535_bsl_revc/ezdsp5535_v1/c55xx_csl/src/csl_audioClass.c",line 997,column 13,is_st
    2593 000a07 EDAC          MOV dbl(*SP(#86)), XAR1
         000a09 9F   
    2594 000a0a ED08          MOV dbl(*SP(#4)), XAR0
         000a0c 8F   
    2595 000a0d A414          MOV *SP(#10), T0 ; |997| 
    2596 000a0f B42F          AMAR *+AR1(#165) ; |997| 
         000a11 00A5 
    2597              $C$DW$190       .dwtag  DW_TAG_TI_branch
    2598                      .dwattr $C$DW$190, DW_AT_low_pc(0x00)
    2599                      .dwattr $C$DW$190, DW_AT_name("_USB_postTransaction")
TMS320C55x Assembler PC v4.4.1 Fri Sep 07 02:27:33 2018

Tools Copyright (c) 1996-2012 Texas Instruments Incorporated
csl_audioClass.asm                                                   PAGE   60

    2600                      .dwattr $C$DW$190, DW_AT_TI_call
    2601              
    2602 000a13 6C00          CALL #_USB_postTransaction ; |997| 
         000a15 0000!
    2603 000a17 3D05  ||      MOV #0, T1
    2604              
    2605                                                      ; call occurs [#_USB_postTransaction] ; |997| 
    2606                      .dwpsn  file "../c5535_bsl_revc/ezdsp5535_v1/c55xx_csl/src/csl_audioClass.c",line 999,column 9,is_stm
    2607 000a19 4A2F          B $C$L74  ; |999| 
    2608                                                      ; branch occurs ; |999| 
    2609 000a1b       $C$L72:    
    2610                      .dwpsn  file "../c5535_bsl_revc/ezdsp5535_v1/c55xx_csl/src/csl_audioClass.c",line 1002,column 7,is_st
    2611 000a1b 3C14          MOV #1, T0
    2612 000a1d 4A2D          B $C$L75  ; |1002| 
    2613                                                      ; branch occurs ; |1002| 
    2614 000a1f       $C$L73:    
    2615                      .dwpsn  file "../c5535_bsl_revc/ezdsp5535_v1/c55xx_csl/src/csl_audioClass.c",line 918,column 5,is_stm
    2616 000a1f ED04          MOV dbl(*SP(#2)), XAR3
         000a21 BF   
    2617              
    2618 000a22 DF77          MOV uns(high_byte(*AR3(short(#3)))), AR1 ; |918| 
         000a24 91   
    2619 000a25 3D1A  ||      MOV #1, AR2
    2620              
    2621 000a27 1290          CMPU AR1 == AR2, TC1 ; |918| 
         000a29 A4   
    2622 000a2a 6D64          BCC $C$L52,TC1 ; |918| 
         000a2c FE69 
    2623                                                      ; branchcc occurs ; |918| 
    2624 000a2e 3C2A          MOV #2, AR2
    2625 000a30 1290          CMPU AR1 == AR2, TC1 ; |918| 
         000a32 A4   
    2626 000a33 6D64          BCC $C$L55,TC1 ; |918| 
         000a35 FE93 
    2627                                                      ; branchcc occurs ; |918| 
    2628 000a37 3C3A          MOV #3, AR2
    2629 000a39 1290          CMPU AR1 == AR2, TC1 ; |918| 
         000a3b A4   
    2630 000a3c 6D64          BCC $C$L59,TC1 ; |918| 
         000a3e FECF 
    2631                                                      ; branchcc occurs ; |918| 
    2632 000a40 3C6A          MOV #6, AR2
    2633 000a42 1290          CMPU AR1 == AR2, TC1 ; |918| 
         000a44 A4   
    2634 000a45 0464          BCC $C$L69,TC1 ; |918| 
         000a47 A1   
    2635                                                      ; branchcc occurs ; |918| 
    2636 000a48 4A51          B $C$L72  ; |918| 
    2637                                                      ; branch occurs ; |918| 
    2638 000a4a       $C$L74:    
    2639                      .dwpsn  file "../c5535_bsl_revc/ezdsp5535_v1/c55xx_csl/src/csl_audioClass.c",line 1005,column 2,is_st
    2640 000a4a 3C34          MOV #3, T0
    2641 000a4c       $C$L75:    
    2642                      .dwpsn  file "../c5535_bsl_revc/ezdsp5535_v1/c55xx_csl/src/csl_audioClass.c",line 1006,column 1,is_st
    2643 000a4c 4E59          AADD #89, SP
TMS320C55x Assembler PC v4.4.1 Fri Sep 07 02:27:33 2018

Tools Copyright (c) 1996-2012 Texas Instruments Incorporated
csl_audioClass.asm                                                   PAGE   61

    2644                      .dwcfi  cfa_offset, 1
    2645              $C$DW$191       .dwtag  DW_TAG_TI_branch
    2646                      .dwattr $C$DW$191, DW_AT_low_pc(0x00)
    2647                      .dwattr $C$DW$191, DW_AT_TI_return
    2648 000a4e 4804          RET
    2649                                                      ; return occurs
    2650              
    2651              $C$DW$192       .dwtag  DW_TAG_TI_loop
    2652                      .dwattr $C$DW$192, DW_AT_name("F:\eZDSP_5535_Files\ccsws2\test\Debug\csl_audioClass.asm:$C$L67:1:1536
    2653                      .dwattr $C$DW$192, DW_AT_TI_begin_file("../c5535_bsl_revc/ezdsp5535_v1/c55xx_csl/src/csl_audioClass.c
    2654                      .dwattr $C$DW$192, DW_AT_TI_begin_line(0x3d0)
    2655                      .dwattr $C$DW$192, DW_AT_TI_end_line(0x3d6)
    2656              $C$DW$193       .dwtag  DW_TAG_TI_loop_range
    2657                      .dwattr $C$DW$193, DW_AT_low_pc($C$DW$L$_AC_reqGetDescriptor$24$B)
    2658                      .dwattr $C$DW$193, DW_AT_high_pc($C$DW$L$_AC_reqGetDescriptor$24$E)
    2659                      .dwendtag $C$DW$192
    2660              
    2661              
    2662              $C$DW$194       .dwtag  DW_TAG_TI_loop
    2663                      .dwattr $C$DW$194, DW_AT_name("F:\eZDSP_5535_Files\ccsws2\test\Debug\csl_audioClass.asm:$C$L60:1:1536
    2664                      .dwattr $C$DW$194, DW_AT_TI_begin_file("../c5535_bsl_revc/ezdsp5535_v1/c55xx_csl/src/csl_audioClass.c
    2665                      .dwattr $C$DW$194, DW_AT_TI_begin_line(0x3b4)
    2666                      .dwattr $C$DW$194, DW_AT_TI_end_line(0x3b4)
    2667              $C$DW$195       .dwtag  DW_TAG_TI_loop_range
    2668                      .dwattr $C$DW$195, DW_AT_low_pc($C$DW$L$_AC_reqGetDescriptor$14$B)
    2669                      .dwattr $C$DW$195, DW_AT_high_pc($C$DW$L$_AC_reqGetDescriptor$14$E)
    2670                      .dwendtag $C$DW$194
    2671              
    2672                      .dwattr $C$DW$164, DW_AT_TI_end_file("../c5535_bsl_revc/ezdsp5535_v1/c55xx_csl/src/csl_audioClass.c")
    2673                      .dwattr $C$DW$164, DW_AT_TI_end_line(0x3ee)
    2674                      .dwattr $C$DW$164, DW_AT_TI_end_column(0x01)
    2675                      .dwendentry
    2676                      .dwendtag $C$DW$164
    2677              
    2678 000a50               .sect   ".text"
    2679                      .align 4
    2680                      .global _AC_reqSetCurrent
    2681              
    2682              $C$DW$196       .dwtag  DW_TAG_subprogram, DW_AT_name("AC_reqSetCurrent")
    2683                      .dwattr $C$DW$196, DW_AT_low_pc(_AC_reqSetCurrent)
    2684                      .dwattr $C$DW$196, DW_AT_high_pc(0x00)
    2685                      .dwattr $C$DW$196, DW_AT_TI_symbol_name("_AC_reqSetCurrent")
    2686                      .dwattr $C$DW$196, DW_AT_external
    2687                      .dwattr $C$DW$196, DW_AT_type(*$C$DW$T$44)
    2688                      .dwattr $C$DW$196, DW_AT_TI_begin_file("../c5535_bsl_revc/ezdsp5535_v1/c55xx_csl/src/csl_audioClass.c
    2689                      .dwattr $C$DW$196, DW_AT_TI_begin_line(0x426)
    2690                      .dwattr $C$DW$196, DW_AT_TI_begin_column(0x12)
    2691                      .dwattr $C$DW$196, DW_AT_TI_max_frame_size(0x12)
    2692                      .dwpsn  file "../c5535_bsl_revc/ezdsp5535_v1/c55xx_csl/src/csl_audioClass.c",line 1067,column 1,is_st
    2693              
    2694                      .dwfde $C$DW$CIE, _AC_reqSetCurrent
    2695              $C$DW$197       .dwtag  DW_TAG_formal_parameter, DW_AT_name("devNum")
    2696                      .dwattr $C$DW$197, DW_AT_TI_symbol_name("_devNum")
    2697                      .dwattr $C$DW$197, DW_AT_type(*$C$DW$T$24)
    2698                      .dwattr $C$DW$197, DW_AT_location[DW_OP_reg12]
TMS320C55x Assembler PC v4.4.1 Fri Sep 07 02:27:33 2018

Tools Copyright (c) 1996-2012 Texas Instruments Incorporated
csl_audioClass.asm                                                   PAGE   62

    2699              $C$DW$198       .dwtag  DW_TAG_formal_parameter, DW_AT_name("usbSetup")
    2700                      .dwattr $C$DW$198, DW_AT_TI_symbol_name("_usbSetup")
    2701                      .dwattr $C$DW$198, DW_AT_type(*$C$DW$T$45)
    2702                      .dwattr $C$DW$198, DW_AT_location[DW_OP_reg17]
    2703              $C$DW$199       .dwtag  DW_TAG_formal_parameter, DW_AT_name("hInEp")
    2704                      .dwattr $C$DW$199, DW_AT_TI_symbol_name("_hInEp")
    2705                      .dwattr $C$DW$199, DW_AT_type(*$C$DW$T$27)
    2706                      .dwattr $C$DW$199, DW_AT_location[DW_OP_reg19]
    2707              $C$DW$200       .dwtag  DW_TAG_formal_parameter, DW_AT_name("hOutEp")
    2708                      .dwattr $C$DW$200, DW_AT_TI_symbol_name("_hOutEp")
    2709                      .dwattr $C$DW$200, DW_AT_type(*$C$DW$T$27)
    2710                      .dwattr $C$DW$200, DW_AT_location[DW_OP_reg21]
    2711              $C$DW$201       .dwtag  DW_TAG_formal_parameter, DW_AT_name("pAcObj")
    2712                      .dwattr $C$DW$201, DW_AT_TI_symbol_name("_pAcObj")
    2713                      .dwattr $C$DW$201, DW_AT_type(*$C$DW$T$3)
    2714                      .dwattr $C$DW$201, DW_AT_location[DW_OP_reg23]
    2715              ;*******************************************************************************
    2716              ;* FUNCTION NAME: AC_reqSetCurrent                                             *
    2717              ;*                                                                             *
    2718              ;*   Function Uses Regs : T0,T1,AR0,XAR0,AR1,XAR1,AR2,XAR2,AR3,XAR3,SP,TC1,M40,*
    2719              ;*                        SATA,SATD,RDM,FRCT,SMUL                              *
    2720              ;*   Stack Frame        : Compact (No Frame Pointer, w/ debug)                 *
    2721              ;*   Total Frame Size   : 18 words                                             *
    2722              ;*                        (2 return address/alignment)                         *
    2723              ;*                        (16 local values)                                    *
    2724              ;*   Min System Stack   : 1 word                                               *
    2725              ;*******************************************************************************
    2726 000a50       _AC_reqSetCurrent:
    2727                      .dwcfi  cfa_offset, 1
    2728                      .dwcfi  save_reg_to_mem, 91, -1
    2729 000a50 4EEF          AADD #-17, SP
    2730                      .dwcfi  cfa_offset, 18
    2731              $C$DW$202       .dwtag  DW_TAG_variable, DW_AT_name("devNum")
    2732                      .dwattr $C$DW$202, DW_AT_TI_symbol_name("_devNum")
    2733                      .dwattr $C$DW$202, DW_AT_type(*$C$DW$T$24)
    2734                      .dwattr $C$DW$202, DW_AT_location[DW_OP_bregx 0x24 0]
    2735              $C$DW$203       .dwtag  DW_TAG_variable, DW_AT_name("usbSetup")
    2736                      .dwattr $C$DW$203, DW_AT_TI_symbol_name("_usbSetup")
    2737                      .dwattr $C$DW$203, DW_AT_type(*$C$DW$T$45)
    2738                      .dwattr $C$DW$203, DW_AT_location[DW_OP_bregx 0x24 2]
    2739              $C$DW$204       .dwtag  DW_TAG_variable, DW_AT_name("hInEp")
    2740                      .dwattr $C$DW$204, DW_AT_TI_symbol_name("_hInEp")
    2741                      .dwattr $C$DW$204, DW_AT_type(*$C$DW$T$27)
    2742                      .dwattr $C$DW$204, DW_AT_location[DW_OP_bregx 0x24 4]
    2743              $C$DW$205       .dwtag  DW_TAG_variable, DW_AT_name("hOutEp")
    2744                      .dwattr $C$DW$205, DW_AT_TI_symbol_name("_hOutEp")
    2745                      .dwattr $C$DW$205, DW_AT_type(*$C$DW$T$27)
    2746                      .dwattr $C$DW$205, DW_AT_location[DW_OP_bregx 0x24 6]
    2747              $C$DW$206       .dwtag  DW_TAG_variable, DW_AT_name("pAcObj")
    2748                      .dwattr $C$DW$206, DW_AT_TI_symbol_name("_pAcObj")
    2749                      .dwattr $C$DW$206, DW_AT_type(*$C$DW$T$3)
    2750                      .dwattr $C$DW$206, DW_AT_location[DW_OP_bregx 0x24 8]
    2751              $C$DW$207       .dwtag  DW_TAG_variable, DW_AT_name("pAcClassHdl")
    2752                      .dwattr $C$DW$207, DW_AT_TI_symbol_name("_pAcClassHdl")
    2753                      .dwattr $C$DW$207, DW_AT_type(*$C$DW$T$95)
TMS320C55x Assembler PC v4.4.1 Fri Sep 07 02:27:33 2018

Tools Copyright (c) 1996-2012 Texas Instruments Incorporated
csl_audioClass.asm                                                   PAGE   63

    2754                      .dwattr $C$DW$207, DW_AT_location[DW_OP_bregx 0x24 10]
    2755              $C$DW$208       .dwtag  DW_TAG_variable, DW_AT_name("pCtrlHandle")
    2756                      .dwattr $C$DW$208, DW_AT_TI_symbol_name("_pCtrlHandle")
    2757                      .dwattr $C$DW$208, DW_AT_type(*$C$DW$T$96)
    2758                      .dwattr $C$DW$208, DW_AT_location[DW_OP_bregx 0x24 12]
    2759              $C$DW$209       .dwtag  DW_TAG_variable, DW_AT_name("tempLen")
    2760                      .dwattr $C$DW$209, DW_AT_TI_symbol_name("_tempLen")
    2761                      .dwattr $C$DW$209, DW_AT_type(*$C$DW$T$25)
    2762                      .dwattr $C$DW$209, DW_AT_location[DW_OP_bregx 0x24 14]
    2763              $C$DW$210       .dwtag  DW_TAG_variable, DW_AT_name("requestRet")
    2764                      .dwattr $C$DW$210, DW_AT_TI_symbol_name("_requestRet")
    2765                      .dwattr $C$DW$210, DW_AT_type(*$C$DW$T$44)
    2766                      .dwattr $C$DW$210, DW_AT_location[DW_OP_bregx 0x24 15]
    2767 000a52 EB10          MOV XAR3, dbl(*SP(#8))
         000a54 B5   
    2768 000a55 EB0C          MOV XAR2, dbl(*SP(#6))
         000a57 A5   
    2769 000a58 EB08          MOV XAR1, dbl(*SP(#4))
         000a5a 95   
    2770 000a5b EB04          MOV XAR0, dbl(*SP(#2))
         000a5d 85   
    2771 000a5e C400          MOV T0, *SP(#0) ; |1067| 
    2772                      .dwpsn  file "../c5535_bsl_revc/ezdsp5535_v1/c55xx_csl/src/csl_audioClass.c",line 1073,column 2,is_st
    2773 000a60 E61E          MOV #2, *SP(#15) ; |1073| 
         000a62 02   
    2774                      .dwpsn  file "../c5535_bsl_revc/ezdsp5535_v1/c55xx_csl/src/csl_audioClass.c",line 1074,column 5,is_st
    2775 000a63 ED10          MOV dbl(*SP(#8)), XAR3
         000a65 BF   
    2776 000a66 EB14          MOV XAR3, dbl(*SP(#10))
         000a68 B5   
    2777                      .dwpsn  file "../c5535_bsl_revc/ezdsp5535_v1/c55xx_csl/src/csl_audioClass.c",line 1075,column 5,is_st
    2778 000a69 EB18          MOV XAR3, dbl(*SP(#12))
         000a6b B5   
    2779                      .dwpsn  file "../c5535_bsl_revc/ezdsp5535_v1/c55xx_csl/src/csl_audioClass.c",line 1077,column 2,is_st
    2780 000a6c ED04          MOV dbl(*SP(#2)), XAR3
         000a6e BF   
    2781 000a6f A97B          MOV *AR3(short(#5)), AR1 ; |1077| 
    2782 000a71 C91C          MOV AR1, *SP(#14) ; |1077| 
    2783                      .dwpsn  file "../c5535_bsl_revc/ezdsp5535_v1/c55xx_csl/src/csl_audioClass.c",line 1079,column 2,is_st
    2784 000a73 0600          B $C$L82  ; |1079| 
         000a75 94   
    2785                                                      ; branch occurs ; |1079| 
    2786 000a76       $C$L76:    
    2787                      .dwpsn  file "../c5535_bsl_revc/ezdsp5535_v1/c55xx_csl/src/csl_audioClass.c",line 1083,column 4,is_st
    2788 000a76 DF77          MOV uns(low_byte(*AR3(short(#3)))), AR1 ; |1083| 
         000a78 93   
    2789 000a79 6D19          BCC $C$L83,AR1 != #0 ; |1083| 
         000a7b 00A6 
    2790                                                      ; branchcc occurs ; |1083| 
    2791                      .dwpsn  file "../c5535_bsl_revc/ezdsp5535_v1/c55xx_csl/src/csl_audioClass.c",line 1085,column 5,is_st
    2792 000a7d ED18          MOV dbl(*SP(#12)), XAR3
         000a7f BF   
    2793 000a80 E66D          MOV #0, *AR3(#84) ; |1085| 
         000a82 0000 
         000a84 54   
TMS320C55x Assembler PC v4.4.1 Fri Sep 07 02:27:33 2018

Tools Copyright (c) 1996-2012 Texas Instruments Incorporated
csl_audioClass.asm                                                   PAGE   64

    2794                      .dwpsn  file "../c5535_bsl_revc/ezdsp5535_v1/c55xx_csl/src/csl_audioClass.c",line 1086,column 5,is_st
    2795 000a85 ED18          MOV dbl(*SP(#12)), XAR3
         000a87 BF   
    2796 000a88 E66D          MOV #0, *AR3(#85) ; |1086| 
         000a8a 0000 
         000a8c 55   
    2797                      .dwpsn  file "../c5535_bsl_revc/ezdsp5535_v1/c55xx_csl/src/csl_audioClass.c",line 1087,column 5,is_st
    2798 000a8d ED18          MOV dbl(*SP(#12)), XAR3
         000a8f BF   
    2799 000a90 E66D          MOV #0, *AR3(#86) ; |1087| 
         000a92 0000 
         000a94 56   
    2800                      .dwpsn  file "../c5535_bsl_revc/ezdsp5535_v1/c55xx_csl/src/csl_audioClass.c",line 1088,column 5,is_st
    2801 000a95 ED18          MOV dbl(*SP(#12)), XAR1
         000a97 9F   
    2802 000a98 ED0C          MOV dbl(*SP(#6)), XAR0
         000a9a 8F   
    2803              
    2804                      AADD #84, AR1 ; |1088| 
    2805 000a9b 8A1C  ||      MOV *SP(#14), T0 ; |1088| 
         000a9d 941C 
         000a9f 54   
    2806              
    2807              $C$DW$211       .dwtag  DW_TAG_TI_branch
    2808                      .dwattr $C$DW$211, DW_AT_low_pc(0x00)
    2809                      .dwattr $C$DW$211, DW_AT_name("_USB_postTransaction")
    2810                      .dwattr $C$DW$211, DW_AT_TI_call
    2811              
    2812 000aa0 6C00          CALL #_USB_postTransaction ; |1088| 
         000aa2 0000!
    2813 000aa4 3D05  ||      MOV #0, T1
    2814              
    2815                                                      ; call occurs [#_USB_postTransaction] ; |1088| 
    2816                      .dwpsn  file "../c5535_bsl_revc/ezdsp5535_v1/c55xx_csl/src/csl_audioClass.c",line 1092,column 9,is_st
    2817 000aa6 0600          B $C$L83  ; |1092| 
         000aa8 7A   
    2818                                                      ; branch occurs ; |1092| 
    2819 000aa9       $C$L77:    
    2820                      .dwpsn  file "../c5535_bsl_revc/ezdsp5535_v1/c55xx_csl/src/csl_audioClass.c",line 1095,column 4,is_st
    2821 000aa9 DF77          MOV uns(low_byte(*AR3(short(#3)))), AR1 ; |1095| 
         000aab 93   
    2822 000aac 0419          BCC $C$L78,AR1 != #0 ; |1095| 
         000aae 14   
    2823                                                      ; branchcc occurs ; |1095| 
    2824                      .dwpsn  file "../c5535_bsl_revc/ezdsp5535_v1/c55xx_csl/src/csl_audioClass.c",line 1098,column 5,is_st
    2825 000aaf ED18          MOV dbl(*SP(#12)), XAR1
         000ab1 9F   
    2826 000ab2 ED0C          MOV dbl(*SP(#6)), XAR0
         000ab4 8F   
    2827              
    2828                      AADD #72, AR1 ; |1098| 
    2829 000ab5 8A1C  ||      MOV *SP(#14), T0 ; |1098| 
         000ab7 941C 
         000ab9 48   
    2830              
TMS320C55x Assembler PC v4.4.1 Fri Sep 07 02:27:33 2018

Tools Copyright (c) 1996-2012 Texas Instruments Incorporated
csl_audioClass.asm                                                   PAGE   65

    2831              $C$DW$212       .dwtag  DW_TAG_TI_branch
    2832                      .dwattr $C$DW$212, DW_AT_low_pc(0x00)
    2833                      .dwattr $C$DW$212, DW_AT_name("_USB_postTransaction")
    2834                      .dwattr $C$DW$212, DW_AT_TI_call
    2835              
    2836 000aba 6C00          CALL #_USB_postTransaction ; |1098| 
         000abc 0000!
    2837 000abe 3D05  ||      MOV #0, T1
    2838              
    2839                                                      ; call occurs [#_USB_postTransaction] ; |1098| 
    2840                      .dwpsn  file "../c5535_bsl_revc/ezdsp5535_v1/c55xx_csl/src/csl_audioClass.c",line 1101,column 4,is_st
    2841 000ac0 0600          B $C$L83  ; |1101| 
         000ac2 60   
    2842                                                      ; branch occurs ; |1101| 
    2843 000ac3       $C$L78:    
    2844                      .dwpsn  file "../c5535_bsl_revc/ezdsp5535_v1/c55xx_csl/src/csl_audioClass.c",line 1102,column 9,is_st
    2845              
    2846 000ac3 DF77          MOV uns(low_byte(*AR3(short(#3)))), AR1 ; |1102| 
         000ac5 93   
    2847 000ac6 3D1A  ||      MOV #1, AR2
    2848              
    2849 000ac8 129C          CMPU AR1 != AR2, TC1 ; |1102| 
         000aca A4   
    2850 000acb 0464          BCC $C$L79,TC1 ; |1102| 
         000acd 14   
    2851                                                      ; branchcc occurs ; |1102| 
    2852                      .dwpsn  file "../c5535_bsl_revc/ezdsp5535_v1/c55xx_csl/src/csl_audioClass.c",line 1105,column 5,is_st
    2853 000ace ED18          MOV dbl(*SP(#12)), XAR1
         000ad0 9F   
    2854 000ad1 ED0C          MOV dbl(*SP(#6)), XAR0
         000ad3 8F   
    2855              
    2856                      AADD #60, AR1 ; |1105| 
    2857 000ad4 8A1C  ||      MOV *SP(#14), T0 ; |1105| 
         000ad6 941C 
         000ad8 3C   
    2858              
    2859              $C$DW$213       .dwtag  DW_TAG_TI_branch
    2860                      .dwattr $C$DW$213, DW_AT_low_pc(0x00)
    2861                      .dwattr $C$DW$213, DW_AT_name("_USB_postTransaction")
    2862                      .dwattr $C$DW$213, DW_AT_TI_call
    2863              
    2864 000ad9 6C00          CALL #_USB_postTransaction ; |1105| 
         000adb 0000!
    2865 000add 3D05  ||      MOV #0, T1
    2866              
    2867                                                      ; call occurs [#_USB_postTransaction] ; |1105| 
    2868                      .dwpsn  file "../c5535_bsl_revc/ezdsp5535_v1/c55xx_csl/src/csl_audioClass.c",line 1108,column 4,is_st
    2869 000adf 0600          B $C$L83  ; |1108| 
         000ae1 41   
    2870                                                      ; branch occurs ; |1108| 
    2871 000ae2       $C$L79:    
    2872                      .dwpsn  file "../c5535_bsl_revc/ezdsp5535_v1/c55xx_csl/src/csl_audioClass.c",line 1109,column 9,is_st
    2873              
    2874 000ae2 DF77          MOV uns(low_byte(*AR3(short(#3)))), AR1 ; |1109| 
TMS320C55x Assembler PC v4.4.1 Fri Sep 07 02:27:33 2018

Tools Copyright (c) 1996-2012 Texas Instruments Incorporated
csl_audioClass.asm                                                   PAGE   66

         000ae4 93   
    2875 000ae5 3D2A  ||      MOV #2, AR2
    2876              
    2877 000ae7 129C          CMPU AR1 != AR2, TC1 ; |1109| 
         000ae9 A4   
    2878 000aea 0464          BCC $C$L80,TC1 ; |1109| 
         000aec 13   
    2879                                                      ; branchcc occurs ; |1109| 
    2880                      .dwpsn  file "../c5535_bsl_revc/ezdsp5535_v1/c55xx_csl/src/csl_audioClass.c",line 1112,column 5,is_st
    2881 000aed ED18          MOV dbl(*SP(#12)), XAR1
         000aef 9F   
    2882 000af0 ED0C          MOV dbl(*SP(#6)), XAR0
         000af2 8F   
    2883              
    2884                      AADD #66, AR1 ; |1112| 
    2885 000af3 8A1C  ||      MOV *SP(#14), T0 ; |1112| 
         000af5 941C 
         000af7 42   
    2886              
    2887              $C$DW$214       .dwtag  DW_TAG_TI_branch
    2888                      .dwattr $C$DW$214, DW_AT_low_pc(0x00)
    2889                      .dwattr $C$DW$214, DW_AT_name("_USB_postTransaction")
    2890                      .dwattr $C$DW$214, DW_AT_TI_call
    2891              
    2892 000af8 6C00          CALL #_USB_postTransaction ; |1112| 
         000afa 0000!
    2893 000afc 3D05  ||      MOV #0, T1
    2894              
    2895                                                      ; call occurs [#_USB_postTransaction] ; |1112| 
    2896                      .dwpsn  file "../c5535_bsl_revc/ezdsp5535_v1/c55xx_csl/src/csl_audioClass.c",line 1115,column 4,is_st
    2897 000afe 4A23          B $C$L83  ; |1115| 
    2898                                                      ; branch occurs ; |1115| 
    2899 000b00       $C$L80:    
    2900                      .dwpsn  file "../c5535_bsl_revc/ezdsp5535_v1/c55xx_csl/src/csl_audioClass.c",line 1118,column 5,is_st
    2901 000b00 E61E          MOV #1, *SP(#15) ; |1118| 
         000b02 01   
    2902                      .dwpsn  file "../c5535_bsl_revc/ezdsp5535_v1/c55xx_csl/src/csl_audioClass.c",line 1120,column 9,is_st
    2903 000b03 4A1E          B $C$L83  ; |1120| 
    2904                                                      ; branch occurs ; |1120| 
    2905 000b05       $C$L81:    
    2906                      .dwpsn  file "../c5535_bsl_revc/ezdsp5535_v1/c55xx_csl/src/csl_audioClass.c",line 1123,column 4,is_st
    2907 000b05 E61E          MOV #1, *SP(#15) ; |1123| 
         000b07 01   
    2908                      .dwpsn  file "../c5535_bsl_revc/ezdsp5535_v1/c55xx_csl/src/csl_audioClass.c",line 1124,column 9,is_st
    2909 000b08 4A19          B $C$L83  ; |1124| 
    2910                                                      ; branch occurs ; |1124| 
    2911 000b0a       $C$L82:    
    2912                      .dwpsn  file "../c5535_bsl_revc/ezdsp5535_v1/c55xx_csl/src/csl_audioClass.c",line 1079,column 2,is_st
    2913 000b0a ED04          MOV dbl(*SP(#2)), XAR3
         000b0c BF   
    2914              
    2915 000b0d DF77          MOV uns(high_byte(*AR3(short(#3)))), AR1 ; |1079| 
         000b0f 91   
    2916 000b10 3D1A  ||      MOV #1, AR2
    2917              
TMS320C55x Assembler PC v4.4.1 Fri Sep 07 02:27:33 2018

Tools Copyright (c) 1996-2012 Texas Instruments Incorporated
csl_audioClass.asm                                                   PAGE   67

    2918 000b12 1290          CMPU AR1 == AR2, TC1 ; |1079| 
         000b14 A4   
    2919 000b15 6D64          BCC $C$L76,TC1 ; |1079| 
         000b17 FF5D 
    2920                                                      ; branchcc occurs ; |1079| 
    2921 000b19 3C2A          MOV #2, AR2
    2922 000b1b 1290          CMPU AR1 == AR2, TC1 ; |1079| 
         000b1d A4   
    2923 000b1e 0464          BCC $C$L77,TC1 ; |1079| 
         000b20 88   
    2924                                                      ; branchcc occurs ; |1079| 
    2925 000b21 4A62          B $C$L81  ; |1079| 
    2926                                                      ; branch occurs ; |1079| 
    2927 000b23       $C$L83:    
    2928                      .dwpsn  file "../c5535_bsl_revc/ezdsp5535_v1/c55xx_csl/src/csl_audioClass.c",line 1127,column 2,is_st
    2929 000b23 A41E          MOV *SP(#15), T0 ; |1127| 
    2930                      .dwpsn  file "../c5535_bsl_revc/ezdsp5535_v1/c55xx_csl/src/csl_audioClass.c",line 1128,column 1,is_st
    2931 000b25 4E11          AADD #17, SP
    2932                      .dwcfi  cfa_offset, 1
    2933              $C$DW$215       .dwtag  DW_TAG_TI_branch
    2934                      .dwattr $C$DW$215, DW_AT_low_pc(0x00)
    2935                      .dwattr $C$DW$215, DW_AT_TI_return
    2936 000b27 4804          RET
    2937                                                      ; return occurs
    2938                      .dwattr $C$DW$196, DW_AT_TI_end_file("../c5535_bsl_revc/ezdsp5535_v1/c55xx_csl/src/csl_audioClass.c")
    2939                      .dwattr $C$DW$196, DW_AT_TI_end_line(0x468)
    2940                      .dwattr $C$DW$196, DW_AT_TI_end_column(0x01)
    2941                      .dwendentry
    2942                      .dwendtag $C$DW$196
    2943              
    2944 000b29               .sect   ".text"
    2945                      .align 4
    2946                      .global _AC_reqGetCurrent
    2947              
    2948              $C$DW$216       .dwtag  DW_TAG_subprogram, DW_AT_name("AC_reqGetCurrent")
    2949                      .dwattr $C$DW$216, DW_AT_low_pc(_AC_reqGetCurrent)
    2950                      .dwattr $C$DW$216, DW_AT_high_pc(0x00)
    2951                      .dwattr $C$DW$216, DW_AT_TI_symbol_name("_AC_reqGetCurrent")
    2952                      .dwattr $C$DW$216, DW_AT_external
    2953                      .dwattr $C$DW$216, DW_AT_type(*$C$DW$T$44)
    2954                      .dwattr $C$DW$216, DW_AT_TI_begin_file("../c5535_bsl_revc/ezdsp5535_v1/c55xx_csl/src/csl_audioClass.c
    2955                      .dwattr $C$DW$216, DW_AT_TI_begin_line(0x4a0)
    2956                      .dwattr $C$DW$216, DW_AT_TI_begin_column(0x12)
    2957                      .dwattr $C$DW$216, DW_AT_TI_max_frame_size(0x12)
    2958                      .dwpsn  file "../c5535_bsl_revc/ezdsp5535_v1/c55xx_csl/src/csl_audioClass.c",line 1189,column 1,is_st
    2959              
    2960                      .dwfde $C$DW$CIE, _AC_reqGetCurrent
    2961              $C$DW$217       .dwtag  DW_TAG_formal_parameter, DW_AT_name("devNum")
    2962                      .dwattr $C$DW$217, DW_AT_TI_symbol_name("_devNum")
    2963                      .dwattr $C$DW$217, DW_AT_type(*$C$DW$T$24)
    2964                      .dwattr $C$DW$217, DW_AT_location[DW_OP_reg12]
    2965              $C$DW$218       .dwtag  DW_TAG_formal_parameter, DW_AT_name("usbSetup")
    2966                      .dwattr $C$DW$218, DW_AT_TI_symbol_name("_usbSetup")
    2967                      .dwattr $C$DW$218, DW_AT_type(*$C$DW$T$45)
    2968                      .dwattr $C$DW$218, DW_AT_location[DW_OP_reg17]
TMS320C55x Assembler PC v4.4.1 Fri Sep 07 02:27:33 2018

Tools Copyright (c) 1996-2012 Texas Instruments Incorporated
csl_audioClass.asm                                                   PAGE   68

    2969              $C$DW$219       .dwtag  DW_TAG_formal_parameter, DW_AT_name("hInEp")
    2970                      .dwattr $C$DW$219, DW_AT_TI_symbol_name("_hInEp")
    2971                      .dwattr $C$DW$219, DW_AT_type(*$C$DW$T$27)
    2972                      .dwattr $C$DW$219, DW_AT_location[DW_OP_reg19]
    2973              $C$DW$220       .dwtag  DW_TAG_formal_parameter, DW_AT_name("hOutEp")
    2974                      .dwattr $C$DW$220, DW_AT_TI_symbol_name("_hOutEp")
    2975                      .dwattr $C$DW$220, DW_AT_type(*$C$DW$T$27)
    2976                      .dwattr $C$DW$220, DW_AT_location[DW_OP_reg21]
    2977              $C$DW$221       .dwtag  DW_TAG_formal_parameter, DW_AT_name("pAcObj")
    2978                      .dwattr $C$DW$221, DW_AT_TI_symbol_name("_pAcObj")
    2979                      .dwattr $C$DW$221, DW_AT_type(*$C$DW$T$3)
    2980                      .dwattr $C$DW$221, DW_AT_location[DW_OP_reg23]
    2981              ;*******************************************************************************
    2982              ;* FUNCTION NAME: AC_reqGetCurrent                                             *
    2983              ;*                                                                             *
    2984              ;*   Function Uses Regs : T0,T1,AR0,XAR0,AR1,XAR1,AR2,XAR2,AR3,XAR3,SP,TC1,M40,*
    2985              ;*                        SATA,SATD,RDM,FRCT,SMUL                              *
    2986              ;*   Stack Frame        : Compact (No Frame Pointer, w/ debug)                 *
    2987              ;*   Total Frame Size   : 18 words                                             *
    2988              ;*                        (2 return address/alignment)                         *
    2989              ;*                        (16 local values)                                    *
    2990              ;*   Min System Stack   : 1 word                                               *
    2991              ;*******************************************************************************
    2992 000b2c       _AC_reqGetCurrent:
    2993                      .dwcfi  cfa_offset, 1
    2994                      .dwcfi  save_reg_to_mem, 91, -1
    2995 000b2c 4EEF          AADD #-17, SP
    2996                      .dwcfi  cfa_offset, 18
    2997              $C$DW$222       .dwtag  DW_TAG_variable, DW_AT_name("devNum")
    2998                      .dwattr $C$DW$222, DW_AT_TI_symbol_name("_devNum")
    2999                      .dwattr $C$DW$222, DW_AT_type(*$C$DW$T$24)
    3000                      .dwattr $C$DW$222, DW_AT_location[DW_OP_bregx 0x24 0]
    3001              $C$DW$223       .dwtag  DW_TAG_variable, DW_AT_name("usbSetup")
    3002                      .dwattr $C$DW$223, DW_AT_TI_symbol_name("_usbSetup")
    3003                      .dwattr $C$DW$223, DW_AT_type(*$C$DW$T$45)
    3004                      .dwattr $C$DW$223, DW_AT_location[DW_OP_bregx 0x24 2]
    3005              $C$DW$224       .dwtag  DW_TAG_variable, DW_AT_name("hInEp")
    3006                      .dwattr $C$DW$224, DW_AT_TI_symbol_name("_hInEp")
    3007                      .dwattr $C$DW$224, DW_AT_type(*$C$DW$T$27)
    3008                      .dwattr $C$DW$224, DW_AT_location[DW_OP_bregx 0x24 4]
    3009              $C$DW$225       .dwtag  DW_TAG_variable, DW_AT_name("hOutEp")
    3010                      .dwattr $C$DW$225, DW_AT_TI_symbol_name("_hOutEp")
    3011                      .dwattr $C$DW$225, DW_AT_type(*$C$DW$T$27)
    3012                      .dwattr $C$DW$225, DW_AT_location[DW_OP_bregx 0x24 6]
    3013              $C$DW$226       .dwtag  DW_TAG_variable, DW_AT_name("pAcObj")
    3014                      .dwattr $C$DW$226, DW_AT_TI_symbol_name("_pAcObj")
    3015                      .dwattr $C$DW$226, DW_AT_type(*$C$DW$T$3)
    3016                      .dwattr $C$DW$226, DW_AT_location[DW_OP_bregx 0x24 8]
    3017              $C$DW$227       .dwtag  DW_TAG_variable, DW_AT_name("pAcClassHdl")
    3018                      .dwattr $C$DW$227, DW_AT_TI_symbol_name("_pAcClassHdl")
    3019                      .dwattr $C$DW$227, DW_AT_type(*$C$DW$T$95)
    3020                      .dwattr $C$DW$227, DW_AT_location[DW_OP_bregx 0x24 10]
    3021              $C$DW$228       .dwtag  DW_TAG_variable, DW_AT_name("pCtrlHandle")
    3022                      .dwattr $C$DW$228, DW_AT_TI_symbol_name("_pCtrlHandle")
    3023                      .dwattr $C$DW$228, DW_AT_type(*$C$DW$T$96)
TMS320C55x Assembler PC v4.4.1 Fri Sep 07 02:27:33 2018

Tools Copyright (c) 1996-2012 Texas Instruments Incorporated
csl_audioClass.asm                                                   PAGE   69

    3024                      .dwattr $C$DW$228, DW_AT_location[DW_OP_bregx 0x24 12]
    3025              $C$DW$229       .dwtag  DW_TAG_variable, DW_AT_name("tempLen")
    3026                      .dwattr $C$DW$229, DW_AT_TI_symbol_name("_tempLen")
    3027                      .dwattr $C$DW$229, DW_AT_type(*$C$DW$T$25)
    3028                      .dwattr $C$DW$229, DW_AT_location[DW_OP_bregx 0x24 14]
    3029              $C$DW$230       .dwtag  DW_TAG_variable, DW_AT_name("requestRet")
    3030                      .dwattr $C$DW$230, DW_AT_TI_symbol_name("_requestRet")
    3031                      .dwattr $C$DW$230, DW_AT_type(*$C$DW$T$44)
    3032                      .dwattr $C$DW$230, DW_AT_location[DW_OP_bregx 0x24 15]
    3033 000b2e EB10          MOV XAR3, dbl(*SP(#8))
         000b30 B5   
    3034 000b31 EB0C          MOV XAR2, dbl(*SP(#6))
         000b33 A5   
    3035 000b34 EB08          MOV XAR1, dbl(*SP(#4))
         000b36 95   
    3036 000b37 EB04          MOV XAR0, dbl(*SP(#2))
         000b39 85   
    3037 000b3a C400          MOV T0, *SP(#0) ; |1189| 
    3038                      .dwpsn  file "../c5535_bsl_revc/ezdsp5535_v1/c55xx_csl/src/csl_audioClass.c",line 1196,column 2,is_st
    3039 000b3c E61E          MOV #3, *SP(#15) ; |1196| 
         000b3e 03   
    3040                      .dwpsn  file "../c5535_bsl_revc/ezdsp5535_v1/c55xx_csl/src/csl_audioClass.c",line 1197,column 5,is_st
    3041 000b3f ED10          MOV dbl(*SP(#8)), XAR3
         000b41 BF   
    3042 000b42 EB14          MOV XAR3, dbl(*SP(#10))
         000b44 B5   
    3043                      .dwpsn  file "../c5535_bsl_revc/ezdsp5535_v1/c55xx_csl/src/csl_audioClass.c",line 1198,column 5,is_st
    3044 000b45 EB18          MOV XAR3, dbl(*SP(#12))
         000b47 B5   
    3045                      .dwpsn  file "../c5535_bsl_revc/ezdsp5535_v1/c55xx_csl/src/csl_audioClass.c",line 1200,column 2,is_st
    3046 000b48 ED04          MOV dbl(*SP(#2)), XAR3
         000b4a BF   
    3047 000b4b A97B          MOV *AR3(short(#5)), AR1 ; |1200| 
    3048 000b4d C91C          MOV AR1, *SP(#14) ; |1200| 
    3049                      .dwpsn  file "../c5535_bsl_revc/ezdsp5535_v1/c55xx_csl/src/csl_audioClass.c",line 1202,column 2,is_st
    3050 000b4f 0600          B $C$L90  ; |1202| 
         000b51 7C   
    3051                                                      ; branch occurs ; |1202| 
    3052 000b52       $C$L84:    
    3053                      .dwpsn  file "../c5535_bsl_revc/ezdsp5535_v1/c55xx_csl/src/csl_audioClass.c",line 1206,column 4,is_st
    3054 000b52 DF77          MOV uns(low_byte(*AR3(short(#3)))), AR1 ; |1206| 
         000b54 93   
    3055 000b55 6D19          BCC $C$L91,AR1 != #0 ; |1206| 
         000b57 008E 
    3056                                                      ; branchcc occurs ; |1206| 
    3057                      .dwpsn  file "../c5535_bsl_revc/ezdsp5535_v1/c55xx_csl/src/csl_audioClass.c",line 1208,column 5,is_st
    3058 000b59 ED18          MOV dbl(*SP(#12)), XAR1
         000b5b 9F   
    3059 000b5c ED08          MOV dbl(*SP(#4)), XAR0
         000b5e 8F   
    3060              
    3061                      AADD #84, AR1 ; |1208| 
    3062 000b5f 8A1C  ||      MOV *SP(#14), T0 ; |1208| 
         000b61 941C 
         000b63 54   
TMS320C55x Assembler PC v4.4.1 Fri Sep 07 02:27:33 2018

Tools Copyright (c) 1996-2012 Texas Instruments Incorporated
csl_audioClass.asm                                                   PAGE   70

    3063              
    3064              $C$DW$231       .dwtag  DW_TAG_TI_branch
    3065                      .dwattr $C$DW$231, DW_AT_low_pc(0x00)
    3066                      .dwattr $C$DW$231, DW_AT_name("_USB_postTransaction")
    3067                      .dwattr $C$DW$231, DW_AT_TI_call
    3068              
    3069 000b64 6C00          CALL #_USB_postTransaction ; |1208| 
         000b66 0000!
    3070 000b68 3D05  ||      MOV #0, T1
    3071              
    3072                                                      ; call occurs [#_USB_postTransaction] ; |1208| 
    3073                      .dwpsn  file "../c5535_bsl_revc/ezdsp5535_v1/c55xx_csl/src/csl_audioClass.c",line 1212,column 9,is_st
    3074 000b6a 0600          B $C$L91  ; |1212| 
         000b6c 7A   
    3075                                                      ; branch occurs ; |1212| 
    3076 000b6d       $C$L85:    
    3077                      .dwpsn  file "../c5535_bsl_revc/ezdsp5535_v1/c55xx_csl/src/csl_audioClass.c",line 1215,column 4,is_st
    3078 000b6d DF77          MOV uns(low_byte(*AR3(short(#3)))), AR1 ; |1215| 
         000b6f 93   
    3079 000b70 0419          BCC $C$L86,AR1 != #0 ; |1215| 
         000b72 14   
    3080                                                      ; branchcc occurs ; |1215| 
    3081                      .dwpsn  file "../c5535_bsl_revc/ezdsp5535_v1/c55xx_csl/src/csl_audioClass.c",line 1218,column 5,is_st
    3082 000b73 ED18          MOV dbl(*SP(#12)), XAR1
         000b75 9F   
    3083 000b76 ED08          MOV dbl(*SP(#4)), XAR0
         000b78 8F   
    3084              
    3085                      AADD #72, AR1 ; |1218| 
    3086 000b79 8A1C  ||      MOV *SP(#14), T0 ; |1218| 
         000b7b 941C 
         000b7d 48   
    3087              
    3088              $C$DW$232       .dwtag  DW_TAG_TI_branch
    3089                      .dwattr $C$DW$232, DW_AT_low_pc(0x00)
    3090                      .dwattr $C$DW$232, DW_AT_name("_USB_postTransaction")
    3091                      .dwattr $C$DW$232, DW_AT_TI_call
    3092              
    3093 000b7e 6C00          CALL #_USB_postTransaction ; |1218| 
         000b80 0000!
    3094 000b82 3D05  ||      MOV #0, T1
    3095              
    3096                                                      ; call occurs [#_USB_postTransaction] ; |1218| 
    3097                      .dwpsn  file "../c5535_bsl_revc/ezdsp5535_v1/c55xx_csl/src/csl_audioClass.c",line 1221,column 4,is_st
    3098 000b84 0600          B $C$L91  ; |1221| 
         000b86 60   
    3099                                                      ; branch occurs ; |1221| 
    3100 000b87       $C$L86:    
    3101                      .dwpsn  file "../c5535_bsl_revc/ezdsp5535_v1/c55xx_csl/src/csl_audioClass.c",line 1222,column 9,is_st
    3102              
    3103 000b87 DF77          MOV uns(low_byte(*AR3(short(#3)))), AR1 ; |1222| 
         000b89 93   
    3104 000b8a 3D1A  ||      MOV #1, AR2
    3105              
    3106 000b8c 129C          CMPU AR1 != AR2, TC1 ; |1222| 
TMS320C55x Assembler PC v4.4.1 Fri Sep 07 02:27:33 2018

Tools Copyright (c) 1996-2012 Texas Instruments Incorporated
csl_audioClass.asm                                                   PAGE   71

         000b8e A4   
    3107 000b8f 0464          BCC $C$L87,TC1 ; |1222| 
         000b91 14   
    3108                                                      ; branchcc occurs ; |1222| 
    3109                      .dwpsn  file "../c5535_bsl_revc/ezdsp5535_v1/c55xx_csl/src/csl_audioClass.c",line 1225,column 5,is_st
    3110 000b92 ED18          MOV dbl(*SP(#12)), XAR1
         000b94 9F   
    3111 000b95 ED08          MOV dbl(*SP(#4)), XAR0
         000b97 8F   
    3112              
    3113                      AADD #60, AR1 ; |1225| 
    3114 000b98 8A1C  ||      MOV *SP(#14), T0 ; |1225| 
         000b9a 941C 
         000b9c 3C   
    3115              
    3116              $C$DW$233       .dwtag  DW_TAG_TI_branch
    3117                      .dwattr $C$DW$233, DW_AT_low_pc(0x00)
    3118                      .dwattr $C$DW$233, DW_AT_name("_USB_postTransaction")
    3119                      .dwattr $C$DW$233, DW_AT_TI_call
    3120              
    3121 000b9d 6C00          CALL #_USB_postTransaction ; |1225| 
         000b9f 0000!
    3122 000ba1 3D05  ||      MOV #0, T1
    3123              
    3124                                                      ; call occurs [#_USB_postTransaction] ; |1225| 
    3125                      .dwpsn  file "../c5535_bsl_revc/ezdsp5535_v1/c55xx_csl/src/csl_audioClass.c",line 1228,column 4,is_st
    3126 000ba3 0600          B $C$L91  ; |1228| 
         000ba5 41   
    3127                                                      ; branch occurs ; |1228| 
    3128 000ba6       $C$L87:    
    3129                      .dwpsn  file "../c5535_bsl_revc/ezdsp5535_v1/c55xx_csl/src/csl_audioClass.c",line 1229,column 9,is_st
    3130              
    3131 000ba6 DF77          MOV uns(low_byte(*AR3(short(#3)))), AR1 ; |1229| 
         000ba8 93   
    3132 000ba9 3D2A  ||      MOV #2, AR2
    3133              
    3134 000bab 129C          CMPU AR1 != AR2, TC1 ; |1229| 
         000bad A4   
    3135 000bae 0464          BCC $C$L88,TC1 ; |1229| 
         000bb0 13   
    3136                                                      ; branchcc occurs ; |1229| 
    3137                      .dwpsn  file "../c5535_bsl_revc/ezdsp5535_v1/c55xx_csl/src/csl_audioClass.c",line 1232,column 5,is_st
    3138 000bb1 ED18          MOV dbl(*SP(#12)), XAR1
         000bb3 9F   
    3139 000bb4 ED08          MOV dbl(*SP(#4)), XAR0
         000bb6 8F   
    3140              
    3141                      AADD #66, AR1 ; |1232| 
    3142 000bb7 8A1C  ||      MOV *SP(#14), T0 ; |1232| 
         000bb9 941C 
         000bbb 42   
    3143              
    3144              $C$DW$234       .dwtag  DW_TAG_TI_branch
    3145                      .dwattr $C$DW$234, DW_AT_low_pc(0x00)
    3146                      .dwattr $C$DW$234, DW_AT_name("_USB_postTransaction")
TMS320C55x Assembler PC v4.4.1 Fri Sep 07 02:27:33 2018

Tools Copyright (c) 1996-2012 Texas Instruments Incorporated
csl_audioClass.asm                                                   PAGE   72

    3147                      .dwattr $C$DW$234, DW_AT_TI_call
    3148              
    3149 000bbc 6C00          CALL #_USB_postTransaction ; |1232| 
         000bbe 0000!
    3150 000bc0 3D05  ||      MOV #0, T1
    3151              
    3152                                                      ; call occurs [#_USB_postTransaction] ; |1232| 
    3153                      .dwpsn  file "../c5535_bsl_revc/ezdsp5535_v1/c55xx_csl/src/csl_audioClass.c",line 1235,column 4,is_st
    3154 000bc2 4A23          B $C$L91  ; |1235| 
    3155                                                      ; branch occurs ; |1235| 
    3156 000bc4       $C$L88:    
    3157                      .dwpsn  file "../c5535_bsl_revc/ezdsp5535_v1/c55xx_csl/src/csl_audioClass.c",line 1238,column 5,is_st
    3158 000bc4 E61E          MOV #1, *SP(#15) ; |1238| 
         000bc6 01   
    3159                      .dwpsn  file "../c5535_bsl_revc/ezdsp5535_v1/c55xx_csl/src/csl_audioClass.c",line 1240,column 9,is_st
    3160 000bc7 4A1E          B $C$L91  ; |1240| 
    3161                                                      ; branch occurs ; |1240| 
    3162 000bc9       $C$L89:    
    3163                      .dwpsn  file "../c5535_bsl_revc/ezdsp5535_v1/c55xx_csl/src/csl_audioClass.c",line 1243,column 4,is_st
    3164 000bc9 E61E          MOV #1, *SP(#15) ; |1243| 
         000bcb 01   
    3165                      .dwpsn  file "../c5535_bsl_revc/ezdsp5535_v1/c55xx_csl/src/csl_audioClass.c",line 1244,column 9,is_st
    3166 000bcc 4A19          B $C$L91  ; |1244| 
    3167                                                      ; branch occurs ; |1244| 
    3168 000bce       $C$L90:    
    3169                      .dwpsn  file "../c5535_bsl_revc/ezdsp5535_v1/c55xx_csl/src/csl_audioClass.c",line 1202,column 2,is_st
    3170 000bce ED04          MOV dbl(*SP(#2)), XAR3
         000bd0 BF   
    3171              
    3172 000bd1 DF77          MOV uns(high_byte(*AR3(short(#3)))), AR1 ; |1202| 
         000bd3 91   
    3173 000bd4 3D1A  ||      MOV #1, AR2
    3174              
    3175 000bd6 1290          CMPU AR1 == AR2, TC1 ; |1202| 
         000bd8 A4   
    3176 000bd9 6D64          BCC $C$L84,TC1 ; |1202| 
         000bdb FF75 
    3177                                                      ; branchcc occurs ; |1202| 
    3178 000bdd 3C2A          MOV #2, AR2
    3179 000bdf 1290          CMPU AR1 == AR2, TC1 ; |1202| 
         000be1 A4   
    3180 000be2 0464          BCC $C$L85,TC1 ; |1202| 
         000be4 88   
    3181                                                      ; branchcc occurs ; |1202| 
    3182 000be5 4A62          B $C$L89  ; |1202| 
    3183                                                      ; branch occurs ; |1202| 
    3184 000be7       $C$L91:    
    3185                      .dwpsn  file "../c5535_bsl_revc/ezdsp5535_v1/c55xx_csl/src/csl_audioClass.c",line 1247,column 2,is_st
    3186 000be7 A41E          MOV *SP(#15), T0 ; |1247| 
    3187                      .dwpsn  file "../c5535_bsl_revc/ezdsp5535_v1/c55xx_csl/src/csl_audioClass.c",line 1248,column 1,is_st
    3188 000be9 4E11          AADD #17, SP
    3189                      .dwcfi  cfa_offset, 1
    3190              $C$DW$235       .dwtag  DW_TAG_TI_branch
    3191                      .dwattr $C$DW$235, DW_AT_low_pc(0x00)
    3192                      .dwattr $C$DW$235, DW_AT_TI_return
TMS320C55x Assembler PC v4.4.1 Fri Sep 07 02:27:33 2018

Tools Copyright (c) 1996-2012 Texas Instruments Incorporated
csl_audioClass.asm                                                   PAGE   73

    3193 000beb 4804          RET
    3194                                                      ; return occurs
    3195                      .dwattr $C$DW$216, DW_AT_TI_end_file("../c5535_bsl_revc/ezdsp5535_v1/c55xx_csl/src/csl_audioClass.c")
    3196                      .dwattr $C$DW$216, DW_AT_TI_end_line(0x4e0)
    3197                      .dwattr $C$DW$216, DW_AT_TI_end_column(0x01)
    3198                      .dwendentry
    3199                      .dwendtag $C$DW$216
    3200              
    3201 000bed               .sect   ".text"
    3202                      .align 4
    3203                      .global _AC_reqGetMinimum
    3204              
    3205              $C$DW$236       .dwtag  DW_TAG_subprogram, DW_AT_name("AC_reqGetMinimum")
    3206                      .dwattr $C$DW$236, DW_AT_low_pc(_AC_reqGetMinimum)
    3207                      .dwattr $C$DW$236, DW_AT_high_pc(0x00)
    3208                      .dwattr $C$DW$236, DW_AT_TI_symbol_name("_AC_reqGetMinimum")
    3209                      .dwattr $C$DW$236, DW_AT_external
    3210                      .dwattr $C$DW$236, DW_AT_type(*$C$DW$T$44)
    3211                      .dwattr $C$DW$236, DW_AT_TI_begin_file("../c5535_bsl_revc/ezdsp5535_v1/c55xx_csl/src/csl_audioClass.c
    3212                      .dwattr $C$DW$236, DW_AT_TI_begin_line(0x518)
    3213                      .dwattr $C$DW$236, DW_AT_TI_begin_column(0x12)
    3214                      .dwattr $C$DW$236, DW_AT_TI_max_frame_size(0x12)
    3215                      .dwpsn  file "../c5535_bsl_revc/ezdsp5535_v1/c55xx_csl/src/csl_audioClass.c",line 1309,column 1,is_st
    3216              
    3217                      .dwfde $C$DW$CIE, _AC_reqGetMinimum
    3218              $C$DW$237       .dwtag  DW_TAG_formal_parameter, DW_AT_name("devNum")
    3219                      .dwattr $C$DW$237, DW_AT_TI_symbol_name("_devNum")
    3220                      .dwattr $C$DW$237, DW_AT_type(*$C$DW$T$24)
    3221                      .dwattr $C$DW$237, DW_AT_location[DW_OP_reg12]
    3222              $C$DW$238       .dwtag  DW_TAG_formal_parameter, DW_AT_name("usbSetup")
    3223                      .dwattr $C$DW$238, DW_AT_TI_symbol_name("_usbSetup")
    3224                      .dwattr $C$DW$238, DW_AT_type(*$C$DW$T$45)
    3225                      .dwattr $C$DW$238, DW_AT_location[DW_OP_reg17]
    3226              $C$DW$239       .dwtag  DW_TAG_formal_parameter, DW_AT_name("hInEp")
    3227                      .dwattr $C$DW$239, DW_AT_TI_symbol_name("_hInEp")
    3228                      .dwattr $C$DW$239, DW_AT_type(*$C$DW$T$27)
    3229                      .dwattr $C$DW$239, DW_AT_location[DW_OP_reg19]
    3230              $C$DW$240       .dwtag  DW_TAG_formal_parameter, DW_AT_name("hOutEp")
    3231                      .dwattr $C$DW$240, DW_AT_TI_symbol_name("_hOutEp")
    3232                      .dwattr $C$DW$240, DW_AT_type(*$C$DW$T$27)
    3233                      .dwattr $C$DW$240, DW_AT_location[DW_OP_reg21]
    3234              $C$DW$241       .dwtag  DW_TAG_formal_parameter, DW_AT_name("pAcObj")
    3235                      .dwattr $C$DW$241, DW_AT_TI_symbol_name("_pAcObj")
    3236                      .dwattr $C$DW$241, DW_AT_type(*$C$DW$T$3)
    3237                      .dwattr $C$DW$241, DW_AT_location[DW_OP_reg23]
    3238              ;*******************************************************************************
    3239              ;* FUNCTION NAME: AC_reqGetMinimum                                             *
    3240              ;*                                                                             *
    3241              ;*   Function Uses Regs : T0,T1,AR0,XAR0,AR1,XAR1,AR2,XAR2,AR3,XAR3,SP,M40,    *
    3242              ;*                        SATA,SATD,RDM,FRCT,SMUL                              *
    3243              ;*   Stack Frame        : Compact (No Frame Pointer, w/ debug)                 *
    3244              ;*   Total Frame Size   : 18 words                                             *
    3245              ;*                        (2 return address/alignment)                         *
    3246              ;*                        (16 local values)                                    *
    3247              ;*   Min System Stack   : 1 word                                               *
TMS320C55x Assembler PC v4.4.1 Fri Sep 07 02:27:33 2018

Tools Copyright (c) 1996-2012 Texas Instruments Incorporated
csl_audioClass.asm                                                   PAGE   74

    3248              ;*******************************************************************************
    3249 000bf0       _AC_reqGetMinimum:
    3250                      .dwcfi  cfa_offset, 1
    3251                      .dwcfi  save_reg_to_mem, 91, -1
    3252 000bf0 4EEF          AADD #-17, SP
    3253                      .dwcfi  cfa_offset, 18
    3254              $C$DW$242       .dwtag  DW_TAG_variable, DW_AT_name("devNum")
    3255                      .dwattr $C$DW$242, DW_AT_TI_symbol_name("_devNum")
    3256                      .dwattr $C$DW$242, DW_AT_type(*$C$DW$T$24)
    3257                      .dwattr $C$DW$242, DW_AT_location[DW_OP_bregx 0x24 0]
    3258              $C$DW$243       .dwtag  DW_TAG_variable, DW_AT_name("usbSetup")
    3259                      .dwattr $C$DW$243, DW_AT_TI_symbol_name("_usbSetup")
    3260                      .dwattr $C$DW$243, DW_AT_type(*$C$DW$T$45)
    3261                      .dwattr $C$DW$243, DW_AT_location[DW_OP_bregx 0x24 2]
    3262              $C$DW$244       .dwtag  DW_TAG_variable, DW_AT_name("hInEp")
    3263                      .dwattr $C$DW$244, DW_AT_TI_symbol_name("_hInEp")
    3264                      .dwattr $C$DW$244, DW_AT_type(*$C$DW$T$27)
    3265                      .dwattr $C$DW$244, DW_AT_location[DW_OP_bregx 0x24 4]
    3266              $C$DW$245       .dwtag  DW_TAG_variable, DW_AT_name("hOutEp")
    3267                      .dwattr $C$DW$245, DW_AT_TI_symbol_name("_hOutEp")
    3268                      .dwattr $C$DW$245, DW_AT_type(*$C$DW$T$27)
    3269                      .dwattr $C$DW$245, DW_AT_location[DW_OP_bregx 0x24 6]
    3270              $C$DW$246       .dwtag  DW_TAG_variable, DW_AT_name("pAcObj")
    3271                      .dwattr $C$DW$246, DW_AT_TI_symbol_name("_pAcObj")
    3272                      .dwattr $C$DW$246, DW_AT_type(*$C$DW$T$3)
    3273                      .dwattr $C$DW$246, DW_AT_location[DW_OP_bregx 0x24 8]
    3274              $C$DW$247       .dwtag  DW_TAG_variable, DW_AT_name("pAcClassHdl")
    3275                      .dwattr $C$DW$247, DW_AT_TI_symbol_name("_pAcClassHdl")
    3276                      .dwattr $C$DW$247, DW_AT_type(*$C$DW$T$95)
    3277                      .dwattr $C$DW$247, DW_AT_location[DW_OP_bregx 0x24 10]
    3278              $C$DW$248       .dwtag  DW_TAG_variable, DW_AT_name("pCtrlHandle")
    3279                      .dwattr $C$DW$248, DW_AT_TI_symbol_name("_pCtrlHandle")
    3280                      .dwattr $C$DW$248, DW_AT_type(*$C$DW$T$96)
    3281                      .dwattr $C$DW$248, DW_AT_location[DW_OP_bregx 0x24 12]
    3282              $C$DW$249       .dwtag  DW_TAG_variable, DW_AT_name("tempLen")
    3283                      .dwattr $C$DW$249, DW_AT_TI_symbol_name("_tempLen")
    3284                      .dwattr $C$DW$249, DW_AT_type(*$C$DW$T$25)
    3285                      .dwattr $C$DW$249, DW_AT_location[DW_OP_bregx 0x24 14]
    3286              $C$DW$250       .dwtag  DW_TAG_variable, DW_AT_name("status")
    3287                      .dwattr $C$DW$250, DW_AT_TI_symbol_name("_status")
    3288                      .dwattr $C$DW$250, DW_AT_type(*$C$DW$T$108)
    3289                      .dwattr $C$DW$250, DW_AT_location[DW_OP_bregx 0x24 15]
    3290 000bf2 EB10          MOV XAR3, dbl(*SP(#8))
         000bf4 B5   
    3291 000bf5 EB0C          MOV XAR2, dbl(*SP(#6))
         000bf7 A5   
    3292 000bf8 EB08          MOV XAR1, dbl(*SP(#4))
         000bfa 95   
    3293 000bfb EB04          MOV XAR0, dbl(*SP(#2))
         000bfd 85   
    3294 000bfe C400          MOV T0, *SP(#0) ; |1309| 
    3295                      .dwpsn  file "../c5535_bsl_revc/ezdsp5535_v1/c55xx_csl/src/csl_audioClass.c",line 1315,column 5,is_st
    3296 000c00 ED10          MOV dbl(*SP(#8)), XAR3
         000c02 BF   
    3297 000c03 EB14          MOV XAR3, dbl(*SP(#10))
TMS320C55x Assembler PC v4.4.1 Fri Sep 07 02:27:33 2018

Tools Copyright (c) 1996-2012 Texas Instruments Incorporated
csl_audioClass.asm                                                   PAGE   75

         000c05 B5   
    3298                      .dwpsn  file "../c5535_bsl_revc/ezdsp5535_v1/c55xx_csl/src/csl_audioClass.c",line 1316,column 5,is_st
    3299 000c06 EB18          MOV XAR3, dbl(*SP(#12))
         000c08 B5   
    3300                      .dwpsn  file "../c5535_bsl_revc/ezdsp5535_v1/c55xx_csl/src/csl_audioClass.c",line 1317,column 2,is_st
    3301 000c09 E61E          MOV #0, *SP(#15) ; |1317| 
         000c0b 00   
    3302                      .dwpsn  file "../c5535_bsl_revc/ezdsp5535_v1/c55xx_csl/src/csl_audioClass.c",line 1319,column 5,is_st
    3303 000c0c ED04          MOV dbl(*SP(#2)), XAR3
         000c0e BF   
    3304 000c0f A97B          MOV *AR3(short(#5)), AR1 ; |1319| 
    3305 000c11 C91C          MOV AR1, *SP(#14) ; |1319| 
    3306                      .dwpsn  file "../c5535_bsl_revc/ezdsp5535_v1/c55xx_csl/src/csl_audioClass.c",line 1321,column 2,is_st
    3307 000c13 ED18          MOV dbl(*SP(#12)), XAR1
         000c15 9F   
    3308 000c16 ED08          MOV dbl(*SP(#4)), XAR0
         000c18 8F   
    3309              
    3310                      AADD #90, AR1 ; |1321| 
    3311 000c19 8A1C  ||      MOV *SP(#14), T0 ; |1321| 
         000c1b 941C 
         000c1d 5A   
    3312              
    3313              $C$DW$251       .dwtag  DW_TAG_TI_branch
    3314                      .dwattr $C$DW$251, DW_AT_low_pc(0x00)
    3315                      .dwattr $C$DW$251, DW_AT_name("_USB_postTransaction")
    3316                      .dwattr $C$DW$251, DW_AT_TI_call
    3317              
    3318 000c1e 6C00          CALL #_USB_postTransaction ; |1321| 
         000c20 0000!
    3319 000c22 3D05  ||      MOV #0, T1
    3320              
    3321                                                      ; call occurs [#_USB_postTransaction] ; |1321| 
    3322 000c24 C41E          MOV T0, *SP(#15) ; |1321| 
    3323                      .dwpsn  file "../c5535_bsl_revc/ezdsp5535_v1/c55xx_csl/src/csl_audioClass.c",line 1324,column 2,is_st
    3324 000c26 2249          MOV T0, AR1
    3325 000c28 6209          BCC $C$L92,AR1 == #0 ; |1324| 
    3326                                                      ; branchcc occurs ; |1324| 
    3327                      .dwpsn  file "../c5535_bsl_revc/ezdsp5535_v1/c55xx_csl/src/csl_audioClass.c",line 1326,column 3,is_st
    3328 000c2a 3C14          MOV #1, T0
    3329 000c2c 4A02          B $C$L93  ; |1326| 
    3330                                                      ; branch occurs ; |1326| 
    3331 000c2e       $C$L92:    
    3332                      .dwpsn  file "../c5535_bsl_revc/ezdsp5535_v1/c55xx_csl/src/csl_audioClass.c",line 1329,column 2,is_st
    3333 000c2e 3C34          MOV #3, T0
    3334 000c30       $C$L93:    
    3335                      .dwpsn  file "../c5535_bsl_revc/ezdsp5535_v1/c55xx_csl/src/csl_audioClass.c",line 1330,column 1,is_st
    3336 000c30 4E11          AADD #17, SP
    3337                      .dwcfi  cfa_offset, 1
    3338              $C$DW$252       .dwtag  DW_TAG_TI_branch
    3339                      .dwattr $C$DW$252, DW_AT_low_pc(0x00)
    3340                      .dwattr $C$DW$252, DW_AT_TI_return
    3341 000c32 4804          RET
    3342                                                      ; return occurs
    3343                      .dwattr $C$DW$236, DW_AT_TI_end_file("../c5535_bsl_revc/ezdsp5535_v1/c55xx_csl/src/csl_audioClass.c")
TMS320C55x Assembler PC v4.4.1 Fri Sep 07 02:27:33 2018

Tools Copyright (c) 1996-2012 Texas Instruments Incorporated
csl_audioClass.asm                                                   PAGE   76

    3344                      .dwattr $C$DW$236, DW_AT_TI_end_line(0x532)
    3345                      .dwattr $C$DW$236, DW_AT_TI_end_column(0x01)
    3346                      .dwendentry
    3347                      .dwendtag $C$DW$236
    3348              
    3349 000c34               .sect   ".text"
    3350                      .align 4
    3351                      .global _AC_reqGetMaximum
    3352              
    3353              $C$DW$253       .dwtag  DW_TAG_subprogram, DW_AT_name("AC_reqGetMaximum")
    3354                      .dwattr $C$DW$253, DW_AT_low_pc(_AC_reqGetMaximum)
    3355                      .dwattr $C$DW$253, DW_AT_high_pc(0x00)
    3356                      .dwattr $C$DW$253, DW_AT_TI_symbol_name("_AC_reqGetMaximum")
    3357                      .dwattr $C$DW$253, DW_AT_external
    3358                      .dwattr $C$DW$253, DW_AT_type(*$C$DW$T$44)
    3359                      .dwattr $C$DW$253, DW_AT_TI_begin_file("../c5535_bsl_revc/ezdsp5535_v1/c55xx_csl/src/csl_audioClass.c
    3360                      .dwattr $C$DW$253, DW_AT_TI_begin_line(0x56a)
    3361                      .dwattr $C$DW$253, DW_AT_TI_begin_column(0x12)
    3362                      .dwattr $C$DW$253, DW_AT_TI_max_frame_size(0x12)
    3363                      .dwpsn  file "../c5535_bsl_revc/ezdsp5535_v1/c55xx_csl/src/csl_audioClass.c",line 1391,column 1,is_st
    3364              
    3365                      .dwfde $C$DW$CIE, _AC_reqGetMaximum
    3366              $C$DW$254       .dwtag  DW_TAG_formal_parameter, DW_AT_name("devNum")
    3367                      .dwattr $C$DW$254, DW_AT_TI_symbol_name("_devNum")
    3368                      .dwattr $C$DW$254, DW_AT_type(*$C$DW$T$24)
    3369                      .dwattr $C$DW$254, DW_AT_location[DW_OP_reg12]
    3370              $C$DW$255       .dwtag  DW_TAG_formal_parameter, DW_AT_name("usbSetup")
    3371                      .dwattr $C$DW$255, DW_AT_TI_symbol_name("_usbSetup")
    3372                      .dwattr $C$DW$255, DW_AT_type(*$C$DW$T$45)
    3373                      .dwattr $C$DW$255, DW_AT_location[DW_OP_reg17]
    3374              $C$DW$256       .dwtag  DW_TAG_formal_parameter, DW_AT_name("hInEp")
    3375                      .dwattr $C$DW$256, DW_AT_TI_symbol_name("_hInEp")
    3376                      .dwattr $C$DW$256, DW_AT_type(*$C$DW$T$27)
    3377                      .dwattr $C$DW$256, DW_AT_location[DW_OP_reg19]
    3378              $C$DW$257       .dwtag  DW_TAG_formal_parameter, DW_AT_name("hOutEp")
    3379                      .dwattr $C$DW$257, DW_AT_TI_symbol_name("_hOutEp")
    3380                      .dwattr $C$DW$257, DW_AT_type(*$C$DW$T$27)
    3381                      .dwattr $C$DW$257, DW_AT_location[DW_OP_reg21]
    3382              $C$DW$258       .dwtag  DW_TAG_formal_parameter, DW_AT_name("pAcObj")
    3383                      .dwattr $C$DW$258, DW_AT_TI_symbol_name("_pAcObj")
    3384                      .dwattr $C$DW$258, DW_AT_type(*$C$DW$T$3)
    3385                      .dwattr $C$DW$258, DW_AT_location[DW_OP_reg23]
    3386              ;*******************************************************************************
    3387              ;* FUNCTION NAME: AC_reqGetMaximum                                             *
    3388              ;*                                                                             *
    3389              ;*   Function Uses Regs : T0,T1,AR0,XAR0,AR1,XAR1,AR2,XAR2,AR3,XAR3,SP,M40,    *
    3390              ;*                        SATA,SATD,RDM,FRCT,SMUL                              *
    3391              ;*   Stack Frame        : Compact (No Frame Pointer, w/ debug)                 *
    3392              ;*   Total Frame Size   : 18 words                                             *
    3393              ;*                        (2 return address/alignment)                         *
    3394              ;*                        (16 local values)                                    *
    3395              ;*   Min System Stack   : 1 word                                               *
    3396              ;*******************************************************************************
    3397 000c34       _AC_reqGetMaximum:
    3398                      .dwcfi  cfa_offset, 1
TMS320C55x Assembler PC v4.4.1 Fri Sep 07 02:27:33 2018

Tools Copyright (c) 1996-2012 Texas Instruments Incorporated
csl_audioClass.asm                                                   PAGE   77

    3399                      .dwcfi  save_reg_to_mem, 91, -1
    3400 000c34 4EEF          AADD #-17, SP
    3401                      .dwcfi  cfa_offset, 18
    3402              $C$DW$259       .dwtag  DW_TAG_variable, DW_AT_name("devNum")
    3403                      .dwattr $C$DW$259, DW_AT_TI_symbol_name("_devNum")
    3404                      .dwattr $C$DW$259, DW_AT_type(*$C$DW$T$24)
    3405                      .dwattr $C$DW$259, DW_AT_location[DW_OP_bregx 0x24 0]
    3406              $C$DW$260       .dwtag  DW_TAG_variable, DW_AT_name("usbSetup")
    3407                      .dwattr $C$DW$260, DW_AT_TI_symbol_name("_usbSetup")
    3408                      .dwattr $C$DW$260, DW_AT_type(*$C$DW$T$45)
    3409                      .dwattr $C$DW$260, DW_AT_location[DW_OP_bregx 0x24 2]
    3410              $C$DW$261       .dwtag  DW_TAG_variable, DW_AT_name("hInEp")
    3411                      .dwattr $C$DW$261, DW_AT_TI_symbol_name("_hInEp")
    3412                      .dwattr $C$DW$261, DW_AT_type(*$C$DW$T$27)
    3413                      .dwattr $C$DW$261, DW_AT_location[DW_OP_bregx 0x24 4]
    3414              $C$DW$262       .dwtag  DW_TAG_variable, DW_AT_name("hOutEp")
    3415                      .dwattr $C$DW$262, DW_AT_TI_symbol_name("_hOutEp")
    3416                      .dwattr $C$DW$262, DW_AT_type(*$C$DW$T$27)
    3417                      .dwattr $C$DW$262, DW_AT_location[DW_OP_bregx 0x24 6]
    3418              $C$DW$263       .dwtag  DW_TAG_variable, DW_AT_name("pAcObj")
    3419                      .dwattr $C$DW$263, DW_AT_TI_symbol_name("_pAcObj")
    3420                      .dwattr $C$DW$263, DW_AT_type(*$C$DW$T$3)
    3421                      .dwattr $C$DW$263, DW_AT_location[DW_OP_bregx 0x24 8]
    3422              $C$DW$264       .dwtag  DW_TAG_variable, DW_AT_name("pAcClassHdl")
    3423                      .dwattr $C$DW$264, DW_AT_TI_symbol_name("_pAcClassHdl")
    3424                      .dwattr $C$DW$264, DW_AT_type(*$C$DW$T$95)
    3425                      .dwattr $C$DW$264, DW_AT_location[DW_OP_bregx 0x24 10]
    3426              $C$DW$265       .dwtag  DW_TAG_variable, DW_AT_name("pCtrlHandle")
    3427                      .dwattr $C$DW$265, DW_AT_TI_symbol_name("_pCtrlHandle")
    3428                      .dwattr $C$DW$265, DW_AT_type(*$C$DW$T$96)
    3429                      .dwattr $C$DW$265, DW_AT_location[DW_OP_bregx 0x24 12]
    3430              $C$DW$266       .dwtag  DW_TAG_variable, DW_AT_name("tempLen")
    3431                      .dwattr $C$DW$266, DW_AT_TI_symbol_name("_tempLen")
    3432                      .dwattr $C$DW$266, DW_AT_type(*$C$DW$T$25)
    3433                      .dwattr $C$DW$266, DW_AT_location[DW_OP_bregx 0x24 14]
    3434              $C$DW$267       .dwtag  DW_TAG_variable, DW_AT_name("status")
    3435                      .dwattr $C$DW$267, DW_AT_TI_symbol_name("_status")
    3436                      .dwattr $C$DW$267, DW_AT_type(*$C$DW$T$108)
    3437                      .dwattr $C$DW$267, DW_AT_location[DW_OP_bregx 0x24 15]
    3438 000c36 EB10          MOV XAR3, dbl(*SP(#8))
         000c38 B5   
    3439 000c39 EB0C          MOV XAR2, dbl(*SP(#6))
         000c3b A5   
    3440 000c3c EB08          MOV XAR1, dbl(*SP(#4))
         000c3e 95   
    3441 000c3f EB04          MOV XAR0, dbl(*SP(#2))
         000c41 85   
    3442 000c42 C400          MOV T0, *SP(#0) ; |1391| 
    3443                      .dwpsn  file "../c5535_bsl_revc/ezdsp5535_v1/c55xx_csl/src/csl_audioClass.c",line 1397,column 5,is_st
    3444 000c44 ED10          MOV dbl(*SP(#8)), XAR3
         000c46 BF   
    3445 000c47 EB14          MOV XAR3, dbl(*SP(#10))
         000c49 B5   
    3446                      .dwpsn  file "../c5535_bsl_revc/ezdsp5535_v1/c55xx_csl/src/csl_audioClass.c",line 1398,column 5,is_st
    3447 000c4a EB18          MOV XAR3, dbl(*SP(#12))
TMS320C55x Assembler PC v4.4.1 Fri Sep 07 02:27:33 2018

Tools Copyright (c) 1996-2012 Texas Instruments Incorporated
csl_audioClass.asm                                                   PAGE   78

         000c4c B5   
    3448                      .dwpsn  file "../c5535_bsl_revc/ezdsp5535_v1/c55xx_csl/src/csl_audioClass.c",line 1399,column 2,is_st
    3449 000c4d E61E          MOV #0, *SP(#15) ; |1399| 
         000c4f 00   
    3450                      .dwpsn  file "../c5535_bsl_revc/ezdsp5535_v1/c55xx_csl/src/csl_audioClass.c",line 1401,column 5,is_st
    3451 000c50 ED04          MOV dbl(*SP(#2)), XAR3
         000c52 BF   
    3452 000c53 A97B          MOV *AR3(short(#5)), AR1 ; |1401| 
    3453 000c55 C91C          MOV AR1, *SP(#14) ; |1401| 
    3454                      .dwpsn  file "../c5535_bsl_revc/ezdsp5535_v1/c55xx_csl/src/csl_audioClass.c",line 1403,column 2,is_st
    3455 000c57 ED18          MOV dbl(*SP(#12)), XAR1
         000c59 9F   
    3456 000c5a ED08          MOV dbl(*SP(#4)), XAR0
         000c5c 8F   
    3457              
    3458                      AADD #94, AR1 ; |1403| 
    3459 000c5d 8A1C  ||      MOV *SP(#14), T0 ; |1403| 
         000c5f 941C 
         000c61 5E   
    3460              
    3461              $C$DW$268       .dwtag  DW_TAG_TI_branch
    3462                      .dwattr $C$DW$268, DW_AT_low_pc(0x00)
    3463                      .dwattr $C$DW$268, DW_AT_name("_USB_postTransaction")
    3464                      .dwattr $C$DW$268, DW_AT_TI_call
    3465              
    3466 000c62 6C00          CALL #_USB_postTransaction ; |1403| 
         000c64 0000!
    3467 000c66 3D05  ||      MOV #0, T1
    3468              
    3469                                                      ; call occurs [#_USB_postTransaction] ; |1403| 
    3470 000c68 C41E          MOV T0, *SP(#15) ; |1403| 
    3471                      .dwpsn  file "../c5535_bsl_revc/ezdsp5535_v1/c55xx_csl/src/csl_audioClass.c",line 1406,column 2,is_st
    3472 000c6a 2249          MOV T0, AR1
    3473 000c6c 6209          BCC $C$L94,AR1 == #0 ; |1406| 
    3474                                                      ; branchcc occurs ; |1406| 
    3475                      .dwpsn  file "../c5535_bsl_revc/ezdsp5535_v1/c55xx_csl/src/csl_audioClass.c",line 1408,column 3,is_st
    3476 000c6e 3C14          MOV #1, T0
    3477 000c70 4A02          B $C$L95  ; |1408| 
    3478                                                      ; branch occurs ; |1408| 
    3479 000c72       $C$L94:    
    3480                      .dwpsn  file "../c5535_bsl_revc/ezdsp5535_v1/c55xx_csl/src/csl_audioClass.c",line 1411,column 2,is_st
    3481 000c72 3C34          MOV #3, T0
    3482 000c74       $C$L95:    
    3483                      .dwpsn  file "../c5535_bsl_revc/ezdsp5535_v1/c55xx_csl/src/csl_audioClass.c",line 1412,column 1,is_st
    3484 000c74 4E11          AADD #17, SP
    3485                      .dwcfi  cfa_offset, 1
    3486              $C$DW$269       .dwtag  DW_TAG_TI_branch
    3487                      .dwattr $C$DW$269, DW_AT_low_pc(0x00)
    3488                      .dwattr $C$DW$269, DW_AT_TI_return
    3489 000c76 4804          RET
    3490                                                      ; return occurs
    3491                      .dwattr $C$DW$253, DW_AT_TI_end_file("../c5535_bsl_revc/ezdsp5535_v1/c55xx_csl/src/csl_audioClass.c")
    3492                      .dwattr $C$DW$253, DW_AT_TI_end_line(0x584)
    3493                      .dwattr $C$DW$253, DW_AT_TI_end_column(0x01)
    3494                      .dwendentry
TMS320C55x Assembler PC v4.4.1 Fri Sep 07 02:27:33 2018

Tools Copyright (c) 1996-2012 Texas Instruments Incorporated
csl_audioClass.asm                                                   PAGE   79

    3495                      .dwendtag $C$DW$253
    3496              
    3497 000c78               .sect   ".text"
    3498                      .align 4
    3499                      .global _AC_reqGetResolution
    3500              
    3501              $C$DW$270       .dwtag  DW_TAG_subprogram, DW_AT_name("AC_reqGetResolution")
    3502                      .dwattr $C$DW$270, DW_AT_low_pc(_AC_reqGetResolution)
    3503                      .dwattr $C$DW$270, DW_AT_high_pc(0x00)
    3504                      .dwattr $C$DW$270, DW_AT_TI_symbol_name("_AC_reqGetResolution")
    3505                      .dwattr $C$DW$270, DW_AT_external
    3506                      .dwattr $C$DW$270, DW_AT_type(*$C$DW$T$44)
    3507                      .dwattr $C$DW$270, DW_AT_TI_begin_file("../c5535_bsl_revc/ezdsp5535_v1/c55xx_csl/src/csl_audioClass.c
    3508                      .dwattr $C$DW$270, DW_AT_TI_begin_line(0x5bc)
    3509                      .dwattr $C$DW$270, DW_AT_TI_begin_column(0x12)
    3510                      .dwattr $C$DW$270, DW_AT_TI_max_frame_size(0x12)
    3511                      .dwpsn  file "../c5535_bsl_revc/ezdsp5535_v1/c55xx_csl/src/csl_audioClass.c",line 1473,column 1,is_st
    3512              
    3513                      .dwfde $C$DW$CIE, _AC_reqGetResolution
    3514              $C$DW$271       .dwtag  DW_TAG_formal_parameter, DW_AT_name("devNum")
    3515                      .dwattr $C$DW$271, DW_AT_TI_symbol_name("_devNum")
    3516                      .dwattr $C$DW$271, DW_AT_type(*$C$DW$T$24)
    3517                      .dwattr $C$DW$271, DW_AT_location[DW_OP_reg12]
    3518              $C$DW$272       .dwtag  DW_TAG_formal_parameter, DW_AT_name("usbSetup")
    3519                      .dwattr $C$DW$272, DW_AT_TI_symbol_name("_usbSetup")
    3520                      .dwattr $C$DW$272, DW_AT_type(*$C$DW$T$45)
    3521                      .dwattr $C$DW$272, DW_AT_location[DW_OP_reg17]
    3522              $C$DW$273       .dwtag  DW_TAG_formal_parameter, DW_AT_name("hInEp")
    3523                      .dwattr $C$DW$273, DW_AT_TI_symbol_name("_hInEp")
    3524                      .dwattr $C$DW$273, DW_AT_type(*$C$DW$T$27)
    3525                      .dwattr $C$DW$273, DW_AT_location[DW_OP_reg19]
    3526              $C$DW$274       .dwtag  DW_TAG_formal_parameter, DW_AT_name("hOutEp")
    3527                      .dwattr $C$DW$274, DW_AT_TI_symbol_name("_hOutEp")
    3528                      .dwattr $C$DW$274, DW_AT_type(*$C$DW$T$27)
    3529                      .dwattr $C$DW$274, DW_AT_location[DW_OP_reg21]
    3530              $C$DW$275       .dwtag  DW_TAG_formal_parameter, DW_AT_name("pAcObj")
    3531                      .dwattr $C$DW$275, DW_AT_TI_symbol_name("_pAcObj")
    3532                      .dwattr $C$DW$275, DW_AT_type(*$C$DW$T$3)
    3533                      .dwattr $C$DW$275, DW_AT_location[DW_OP_reg23]
    3534              ;*******************************************************************************
    3535              ;* FUNCTION NAME: AC_reqGetResolution                                          *
    3536              ;*                                                                             *
    3537              ;*   Function Uses Regs : T0,T1,AR0,XAR0,AR1,XAR1,AR2,XAR2,AR3,XAR3,SP,M40,    *
    3538              ;*                        SATA,SATD,RDM,FRCT,SMUL                              *
    3539              ;*   Stack Frame        : Compact (No Frame Pointer, w/ debug)                 *
    3540              ;*   Total Frame Size   : 18 words                                             *
    3541              ;*                        (2 return address/alignment)                         *
    3542              ;*                        (16 local values)                                    *
    3543              ;*   Min System Stack   : 1 word                                               *
    3544              ;*******************************************************************************
    3545 000c78       _AC_reqGetResolution:
    3546                      .dwcfi  cfa_offset, 1
    3547                      .dwcfi  save_reg_to_mem, 91, -1
    3548 000c78 4EEF          AADD #-17, SP
    3549                      .dwcfi  cfa_offset, 18
TMS320C55x Assembler PC v4.4.1 Fri Sep 07 02:27:33 2018

Tools Copyright (c) 1996-2012 Texas Instruments Incorporated
csl_audioClass.asm                                                   PAGE   80

    3550              $C$DW$276       .dwtag  DW_TAG_variable, DW_AT_name("devNum")
    3551                      .dwattr $C$DW$276, DW_AT_TI_symbol_name("_devNum")
    3552                      .dwattr $C$DW$276, DW_AT_type(*$C$DW$T$24)
    3553                      .dwattr $C$DW$276, DW_AT_location[DW_OP_bregx 0x24 0]
    3554              $C$DW$277       .dwtag  DW_TAG_variable, DW_AT_name("usbSetup")
    3555                      .dwattr $C$DW$277, DW_AT_TI_symbol_name("_usbSetup")
    3556                      .dwattr $C$DW$277, DW_AT_type(*$C$DW$T$45)
    3557                      .dwattr $C$DW$277, DW_AT_location[DW_OP_bregx 0x24 2]
    3558              $C$DW$278       .dwtag  DW_TAG_variable, DW_AT_name("hInEp")
    3559                      .dwattr $C$DW$278, DW_AT_TI_symbol_name("_hInEp")
    3560                      .dwattr $C$DW$278, DW_AT_type(*$C$DW$T$27)
    3561                      .dwattr $C$DW$278, DW_AT_location[DW_OP_bregx 0x24 4]
    3562              $C$DW$279       .dwtag  DW_TAG_variable, DW_AT_name("hOutEp")
    3563                      .dwattr $C$DW$279, DW_AT_TI_symbol_name("_hOutEp")
    3564                      .dwattr $C$DW$279, DW_AT_type(*$C$DW$T$27)
    3565                      .dwattr $C$DW$279, DW_AT_location[DW_OP_bregx 0x24 6]
    3566              $C$DW$280       .dwtag  DW_TAG_variable, DW_AT_name("pAcObj")
    3567                      .dwattr $C$DW$280, DW_AT_TI_symbol_name("_pAcObj")
    3568                      .dwattr $C$DW$280, DW_AT_type(*$C$DW$T$3)
    3569                      .dwattr $C$DW$280, DW_AT_location[DW_OP_bregx 0x24 8]
    3570              $C$DW$281       .dwtag  DW_TAG_variable, DW_AT_name("pAcClassHdl")
    3571                      .dwattr $C$DW$281, DW_AT_TI_symbol_name("_pAcClassHdl")
    3572                      .dwattr $C$DW$281, DW_AT_type(*$C$DW$T$95)
    3573                      .dwattr $C$DW$281, DW_AT_location[DW_OP_bregx 0x24 10]
    3574              $C$DW$282       .dwtag  DW_TAG_variable, DW_AT_name("pCtrlHandle")
    3575                      .dwattr $C$DW$282, DW_AT_TI_symbol_name("_pCtrlHandle")
    3576                      .dwattr $C$DW$282, DW_AT_type(*$C$DW$T$96)
    3577                      .dwattr $C$DW$282, DW_AT_location[DW_OP_bregx 0x24 12]
    3578              $C$DW$283       .dwtag  DW_TAG_variable, DW_AT_name("tempLen")
    3579                      .dwattr $C$DW$283, DW_AT_TI_symbol_name("_tempLen")
    3580                      .dwattr $C$DW$283, DW_AT_type(*$C$DW$T$25)
    3581                      .dwattr $C$DW$283, DW_AT_location[DW_OP_bregx 0x24 14]
    3582              $C$DW$284       .dwtag  DW_TAG_variable, DW_AT_name("status")
    3583                      .dwattr $C$DW$284, DW_AT_TI_symbol_name("_status")
    3584                      .dwattr $C$DW$284, DW_AT_type(*$C$DW$T$108)
    3585                      .dwattr $C$DW$284, DW_AT_location[DW_OP_bregx 0x24 15]
    3586 000c7a EB10          MOV XAR3, dbl(*SP(#8))
         000c7c B5   
    3587 000c7d EB0C          MOV XAR2, dbl(*SP(#6))
         000c7f A5   
    3588 000c80 EB08          MOV XAR1, dbl(*SP(#4))
         000c82 95   
    3589 000c83 EB04          MOV XAR0, dbl(*SP(#2))
         000c85 85   
    3590 000c86 C400          MOV T0, *SP(#0) ; |1473| 
    3591                      .dwpsn  file "../c5535_bsl_revc/ezdsp5535_v1/c55xx_csl/src/csl_audioClass.c",line 1479,column 5,is_st
    3592 000c88 ED10          MOV dbl(*SP(#8)), XAR3
         000c8a BF   
    3593 000c8b EB14          MOV XAR3, dbl(*SP(#10))
         000c8d B5   
    3594                      .dwpsn  file "../c5535_bsl_revc/ezdsp5535_v1/c55xx_csl/src/csl_audioClass.c",line 1480,column 5,is_st
    3595 000c8e EB18          MOV XAR3, dbl(*SP(#12))
         000c90 B5   
    3596                      .dwpsn  file "../c5535_bsl_revc/ezdsp5535_v1/c55xx_csl/src/csl_audioClass.c",line 1481,column 2,is_st
    3597 000c91 E61E          MOV #0, *SP(#15) ; |1481| 
TMS320C55x Assembler PC v4.4.1 Fri Sep 07 02:27:33 2018

Tools Copyright (c) 1996-2012 Texas Instruments Incorporated
csl_audioClass.asm                                                   PAGE   81

         000c93 00   
    3598                      .dwpsn  file "../c5535_bsl_revc/ezdsp5535_v1/c55xx_csl/src/csl_audioClass.c",line 1483,column 5,is_st
    3599 000c94 ED04          MOV dbl(*SP(#2)), XAR3
         000c96 BF   
    3600 000c97 A97B          MOV *AR3(short(#5)), AR1 ; |1483| 
    3601 000c99 C91C          MOV AR1, *SP(#14) ; |1483| 
    3602                      .dwpsn  file "../c5535_bsl_revc/ezdsp5535_v1/c55xx_csl/src/csl_audioClass.c",line 1485,column 2,is_st
    3603 000c9b ED18          MOV dbl(*SP(#12)), XAR1
         000c9d 9F   
    3604 000c9e ED08          MOV dbl(*SP(#4)), XAR0
         000ca0 8F   
    3605              
    3606                      AADD #98, AR1 ; |1485| 
    3607 000ca1 8A1C  ||      MOV *SP(#14), T0 ; |1485| 
         000ca3 941C 
         000ca5 62   
    3608              
    3609              $C$DW$285       .dwtag  DW_TAG_TI_branch
    3610                      .dwattr $C$DW$285, DW_AT_low_pc(0x00)
    3611                      .dwattr $C$DW$285, DW_AT_name("_USB_postTransaction")
    3612                      .dwattr $C$DW$285, DW_AT_TI_call
    3613              
    3614 000ca6 6C00          CALL #_USB_postTransaction ; |1485| 
         000ca8 0000!
    3615 000caa 3D05  ||      MOV #0, T1
    3616              
    3617                                                      ; call occurs [#_USB_postTransaction] ; |1485| 
    3618 000cac C41E          MOV T0, *SP(#15) ; |1485| 
    3619                      .dwpsn  file "../c5535_bsl_revc/ezdsp5535_v1/c55xx_csl/src/csl_audioClass.c",line 1488,column 2,is_st
    3620 000cae 2249          MOV T0, AR1
    3621 000cb0 6209          BCC $C$L96,AR1 == #0 ; |1488| 
    3622                                                      ; branchcc occurs ; |1488| 
    3623                      .dwpsn  file "../c5535_bsl_revc/ezdsp5535_v1/c55xx_csl/src/csl_audioClass.c",line 1490,column 3,is_st
    3624 000cb2 3C14          MOV #1, T0
    3625 000cb4 4A02          B $C$L97  ; |1490| 
    3626                                                      ; branch occurs ; |1490| 
    3627 000cb6       $C$L96:    
    3628                      .dwpsn  file "../c5535_bsl_revc/ezdsp5535_v1/c55xx_csl/src/csl_audioClass.c",line 1493,column 2,is_st
    3629 000cb6 3C34          MOV #3, T0
    3630 000cb8       $C$L97:    
    3631                      .dwpsn  file "../c5535_bsl_revc/ezdsp5535_v1/c55xx_csl/src/csl_audioClass.c",line 1494,column 1,is_st
    3632 000cb8 4E11          AADD #17, SP
    3633                      .dwcfi  cfa_offset, 1
    3634              $C$DW$286       .dwtag  DW_TAG_TI_branch
    3635                      .dwattr $C$DW$286, DW_AT_low_pc(0x00)
    3636                      .dwattr $C$DW$286, DW_AT_TI_return
    3637 000cba 4804          RET
    3638                                                      ; return occurs
    3639                      .dwattr $C$DW$270, DW_AT_TI_end_file("../c5535_bsl_revc/ezdsp5535_v1/c55xx_csl/src/csl_audioClass.c")
    3640                      .dwattr $C$DW$270, DW_AT_TI_end_line(0x5d6)
    3641                      .dwattr $C$DW$270, DW_AT_TI_end_column(0x01)
    3642                      .dwendentry
    3643                      .dwendtag $C$DW$270
    3644              
    3645 000cbc               .sect   ".text"
TMS320C55x Assembler PC v4.4.1 Fri Sep 07 02:27:33 2018

Tools Copyright (c) 1996-2012 Texas Instruments Incorporated
csl_audioClass.asm                                                   PAGE   82

    3646                      .align 4
    3647                      .global _AC_reqSetInterface
    3648              
    3649              $C$DW$287       .dwtag  DW_TAG_subprogram, DW_AT_name("AC_reqSetInterface")
    3650                      .dwattr $C$DW$287, DW_AT_low_pc(_AC_reqSetInterface)
    3651                      .dwattr $C$DW$287, DW_AT_high_pc(0x00)
    3652                      .dwattr $C$DW$287, DW_AT_TI_symbol_name("_AC_reqSetInterface")
    3653                      .dwattr $C$DW$287, DW_AT_external
    3654                      .dwattr $C$DW$287, DW_AT_type(*$C$DW$T$44)
    3655                      .dwattr $C$DW$287, DW_AT_TI_begin_file("../c5535_bsl_revc/ezdsp5535_v1/c55xx_csl/src/csl_audioClass.c
    3656                      .dwattr $C$DW$287, DW_AT_TI_begin_line(0x60f)
    3657                      .dwattr $C$DW$287, DW_AT_TI_begin_column(0x12)
    3658                      .dwattr $C$DW$287, DW_AT_TI_max_frame_size(0x12)
    3659                      .dwpsn  file "../c5535_bsl_revc/ezdsp5535_v1/c55xx_csl/src/csl_audioClass.c",line 1556,column 1,is_st
    3660              
    3661                      .dwfde $C$DW$CIE, _AC_reqSetInterface
    3662              $C$DW$288       .dwtag  DW_TAG_formal_parameter, DW_AT_name("devNum")
    3663                      .dwattr $C$DW$288, DW_AT_TI_symbol_name("_devNum")
    3664                      .dwattr $C$DW$288, DW_AT_type(*$C$DW$T$24)
    3665                      .dwattr $C$DW$288, DW_AT_location[DW_OP_reg12]
    3666              $C$DW$289       .dwtag  DW_TAG_formal_parameter, DW_AT_name("usbSetup")
    3667                      .dwattr $C$DW$289, DW_AT_TI_symbol_name("_usbSetup")
    3668                      .dwattr $C$DW$289, DW_AT_type(*$C$DW$T$45)
    3669                      .dwattr $C$DW$289, DW_AT_location[DW_OP_reg17]
    3670              $C$DW$290       .dwtag  DW_TAG_formal_parameter, DW_AT_name("hInEp")
    3671                      .dwattr $C$DW$290, DW_AT_TI_symbol_name("_hInEp")
    3672                      .dwattr $C$DW$290, DW_AT_type(*$C$DW$T$27)
    3673                      .dwattr $C$DW$290, DW_AT_location[DW_OP_reg19]
    3674              $C$DW$291       .dwtag  DW_TAG_formal_parameter, DW_AT_name("hOutEp")
    3675                      .dwattr $C$DW$291, DW_AT_TI_symbol_name("_hOutEp")
    3676                      .dwattr $C$DW$291, DW_AT_type(*$C$DW$T$27)
    3677                      .dwattr $C$DW$291, DW_AT_location[DW_OP_reg21]
    3678              $C$DW$292       .dwtag  DW_TAG_formal_parameter, DW_AT_name("pAcObj")
    3679                      .dwattr $C$DW$292, DW_AT_TI_symbol_name("_pAcObj")
    3680                      .dwattr $C$DW$292, DW_AT_type(*$C$DW$T$3)
    3681                      .dwattr $C$DW$292, DW_AT_location[DW_OP_reg23]
    3682              ;*******************************************************************************
    3683              ;* FUNCTION NAME: AC_reqSetInterface                                           *
    3684              ;*                                                                             *
    3685              ;*   Function Uses Regs : AC0,AC0,T0,AR0,XAR0,AR1,XAR1,AR2,XAR2,AR3,XAR3,SP,   *
    3686              ;*                        TC1,M40,SATA,SATD,RDM,FRCT,SMUL                      *
    3687              ;*   Stack Frame        : Compact (No Frame Pointer, w/ debug)                 *
    3688              ;*   Total Frame Size   : 18 words                                             *
    3689              ;*                        (1 return address/alignment)                         *
    3690              ;*                        (17 local values)                                    *
    3691              ;*   Min System Stack   : 1 word                                               *
    3692              ;*******************************************************************************
    3693 000cbc       _AC_reqSetInterface:
    3694                      .dwcfi  cfa_offset, 1
    3695                      .dwcfi  save_reg_to_mem, 91, -1
    3696 000cbc 4EEF          AADD #-17, SP
    3697                      .dwcfi  cfa_offset, 18
    3698              $C$DW$293       .dwtag  DW_TAG_variable, DW_AT_name("devNum")
    3699                      .dwattr $C$DW$293, DW_AT_TI_symbol_name("_devNum")
    3700                      .dwattr $C$DW$293, DW_AT_type(*$C$DW$T$24)
TMS320C55x Assembler PC v4.4.1 Fri Sep 07 02:27:33 2018

Tools Copyright (c) 1996-2012 Texas Instruments Incorporated
csl_audioClass.asm                                                   PAGE   83

    3701                      .dwattr $C$DW$293, DW_AT_location[DW_OP_bregx 0x24 0]
    3702              $C$DW$294       .dwtag  DW_TAG_variable, DW_AT_name("usbSetup")
    3703                      .dwattr $C$DW$294, DW_AT_TI_symbol_name("_usbSetup")
    3704                      .dwattr $C$DW$294, DW_AT_type(*$C$DW$T$45)
    3705                      .dwattr $C$DW$294, DW_AT_location[DW_OP_bregx 0x24 2]
    3706              $C$DW$295       .dwtag  DW_TAG_variable, DW_AT_name("hInEp")
    3707                      .dwattr $C$DW$295, DW_AT_TI_symbol_name("_hInEp")
    3708                      .dwattr $C$DW$295, DW_AT_type(*$C$DW$T$27)
    3709                      .dwattr $C$DW$295, DW_AT_location[DW_OP_bregx 0x24 4]
    3710              $C$DW$296       .dwtag  DW_TAG_variable, DW_AT_name("hOutEp")
    3711                      .dwattr $C$DW$296, DW_AT_TI_symbol_name("_hOutEp")
    3712                      .dwattr $C$DW$296, DW_AT_type(*$C$DW$T$27)
    3713                      .dwattr $C$DW$296, DW_AT_location[DW_OP_bregx 0x24 6]
    3714              $C$DW$297       .dwtag  DW_TAG_variable, DW_AT_name("pAcObj")
    3715                      .dwattr $C$DW$297, DW_AT_TI_symbol_name("_pAcObj")
    3716                      .dwattr $C$DW$297, DW_AT_type(*$C$DW$T$3)
    3717                      .dwattr $C$DW$297, DW_AT_location[DW_OP_bregx 0x24 8]
    3718              $C$DW$298       .dwtag  DW_TAG_variable, DW_AT_name("retStat")
    3719                      .dwattr $C$DW$298, DW_AT_TI_symbol_name("_retStat")
    3720                      .dwattr $C$DW$298, DW_AT_type(*$C$DW$T$44)
    3721                      .dwattr $C$DW$298, DW_AT_location[DW_OP_bregx 0x24 10]
    3722              $C$DW$299       .dwtag  DW_TAG_variable, DW_AT_name("mediaStatus")
    3723                      .dwattr $C$DW$299, DW_AT_TI_symbol_name("_mediaStatus")
    3724                      .dwattr $C$DW$299, DW_AT_type(*$C$DW$T$53)
    3725                      .dwattr $C$DW$299, DW_AT_location[DW_OP_bregx 0x24 11]
    3726              $C$DW$300       .dwtag  DW_TAG_variable, DW_AT_name("pAcClassHdl")
    3727                      .dwattr $C$DW$300, DW_AT_TI_symbol_name("_pAcClassHdl")
    3728                      .dwattr $C$DW$300, DW_AT_type(*$C$DW$T$95)
    3729                      .dwattr $C$DW$300, DW_AT_location[DW_OP_bregx 0x24 12]
    3730              $C$DW$301       .dwtag  DW_TAG_variable, DW_AT_name("pAcHandle")
    3731                      .dwattr $C$DW$301, DW_AT_TI_symbol_name("_pAcHandle")
    3732                      .dwattr $C$DW$301, DW_AT_type(*$C$DW$T$100)
    3733                      .dwattr $C$DW$301, DW_AT_location[DW_OP_bregx 0x24 14]
    3734              $C$DW$302       .dwtag  DW_TAG_variable, DW_AT_name("dummy")
    3735                      .dwattr $C$DW$302, DW_AT_TI_symbol_name("_dummy")
    3736                      .dwattr $C$DW$302, DW_AT_type(*$C$DW$T$25)
    3737                      .dwattr $C$DW$302, DW_AT_location[DW_OP_bregx 0x24 16]
    3738 000cbe EB10          MOV XAR3, dbl(*SP(#8))
         000cc0 B5   
    3739 000cc1 EB0C          MOV XAR2, dbl(*SP(#6))
         000cc3 A5   
    3740 000cc4 EB08          MOV XAR1, dbl(*SP(#4))
         000cc6 95   
    3741 000cc7 EB04          MOV XAR0, dbl(*SP(#2))
         000cc9 85   
    3742 000cca C400          MOV T0, *SP(#0) ; |1556| 
    3743                      .dwpsn  file "../c5535_bsl_revc/ezdsp5535_v1/c55xx_csl/src/csl_audioClass.c",line 1563,column 5,is_st
    3744 000ccc ED10          MOV dbl(*SP(#8)), XAR3
         000cce BF   
    3745 000ccf EB18          MOV XAR3, dbl(*SP(#12))
         000cd1 B5   
    3746                      .dwpsn  file "../c5535_bsl_revc/ezdsp5535_v1/c55xx_csl/src/csl_audioClass.c",line 1564,column 2,is_st
    3747 000cd2 B46F          AMAR *+AR3(#394) ; |1564| 
         000cd4 018A 
    3748 000cd6 EB1C          MOV XAR3, dbl(*SP(#14))
TMS320C55x Assembler PC v4.4.1 Fri Sep 07 02:27:33 2018

Tools Copyright (c) 1996-2012 Texas Instruments Incorporated
csl_audioClass.asm                                                   PAGE   84

         000cd8 B5   
    3749                      .dwpsn  file "../c5535_bsl_revc/ezdsp5535_v1/c55xx_csl/src/csl_audioClass.c",line 1565,column 2,is_st
    3750 000cd9 E614          MOV #2, *SP(#10) ; |1565| 
         000cdb 02   
    3751                      .dwpsn  file "../c5535_bsl_revc/ezdsp5535_v1/c55xx_csl/src/csl_audioClass.c",line 1566,column 2,is_st
    3752 000cdc E620          MOV #0, *SP(#16) ; |1566| 
         000cde 00   
    3753                      .dwpsn  file "../c5535_bsl_revc/ezdsp5535_v1/c55xx_csl/src/csl_audioClass.c",line 1568,column 2,is_st
    3754 000cdf ED04          MOV dbl(*SP(#2)), XAR3
         000ce1 BF   
    3755 000ce2 A979          MOV *AR3(short(#4)), AR1 ; |1568| 
    3756 000ce4 6619          BCC $C$L98,AR1 != #0 ; |1568| 
    3757                                                      ; branchcc occurs ; |1568| 
    3758                      .dwpsn  file "../c5535_bsl_revc/ezdsp5535_v1/c55xx_csl/src/csl_audioClass.c",line 1570,column 3,is_st
    3759 000ce6 A977          MOV *AR3(short(#3)), AR1 ; |1570| 
    3760 000ce8 6D19          BCC $C$L104,AR1 != #0 ; |1570| 
         000cea 0082 
    3761                                                      ; branchcc occurs ; |1570| 
    3762                      .dwpsn  file "../c5535_bsl_revc/ezdsp5535_v1/c55xx_csl/src/csl_audioClass.c",line 1572,column 4,is_st
    3763 000cec E614          MOV #2, *SP(#10) ; |1572| 
         000cee 02   
    3764                      .dwpsn  file "../c5535_bsl_revc/ezdsp5535_v1/c55xx_csl/src/csl_audioClass.c",line 1574,column 2,is_st
    3765 000cef 0600          B $C$L104 ; |1574| 
         000cf1 7C   
    3766                                                      ; branch occurs ; |1574| 
    3767 000cf2       $C$L98:    
    3768                      .dwpsn  file "../c5535_bsl_revc/ezdsp5535_v1/c55xx_csl/src/csl_audioClass.c",line 1575,column 7,is_st
    3769 000cf2 F079          CMP *AR3(short(#4)) == #1, TC1 ; |1575| 
         000cf4 0001 
    3770 000cf6 0474          BCC $C$L103,!TC1 ; |1575| 
         000cf8 72   
    3771                                                      ; branchcc occurs ; |1575| 
    3772                      .dwpsn  file "../c5535_bsl_revc/ezdsp5535_v1/c55xx_csl/src/csl_audioClass.c",line 1577,column 3,is_st
    3773 000cf9 A977          MOV *AR3(short(#3)), AR1 ; |1577| 
    3774 000cfb 0419          BCC $C$L100,AR1 != #0 ; |1577| 
         000cfd 39   
    3775                                                      ; branchcc occurs ; |1577| 
    3776                      .dwpsn  file "../c5535_bsl_revc/ezdsp5535_v1/c55xx_csl/src/csl_audioClass.c",line 1579,column 4,is_st
    3777 000cfe ED1C          MOV dbl(*SP(#14)), XAR3
         000d00 BF   
    3778 000d01 F06D          CMP *AR3(#358) == #1, TC1 ; |1579| 
         000d03 0001 
         000d05 0166 
    3779 000d07 0474          BCC $C$L99,!TC1 ; |1579| 
         000d09 28   
    3780                                                      ; branchcc occurs ; |1579| 
    3781                      .dwpsn  file "../c5535_bsl_revc/ezdsp5535_v1/c55xx_csl/src/csl_audioClass.c",line 1581,column 5,is_st
    3782 000d0a ED79          MOV dbl(*AR3(short(#4))), AC0 ; |1581| 
         000d0c 08   
    3783 000d0d A420          MOV *SP(#16), T0 ; |1581| 
    3784 000d0f EC20          AMAR *SP(#16), XAR0
         000d11 8E   
    3785              $C$DW$303       .dwtag  DW_TAG_TI_branch
    3786                      .dwattr $C$DW$303, DW_AT_low_pc(0x00)
    3787                      .dwattr $C$DW$303, DW_AT_TI_call
TMS320C55x Assembler PC v4.4.1 Fri Sep 07 02:27:33 2018

Tools Copyright (c) 1996-2012 Texas Instruments Incorporated
csl_audioClass.asm                                                   PAGE   85

    3788                      .dwattr $C$DW$303, DW_AT_TI_indirect
    3789 000d12 9200          CALL AC0  ; |1581| 
    3790                                                      ; call occurs [AC0] ; |1581| 
    3791 000d14 C416          MOV T0, *SP(#11) ; |1581| 
    3792                      .dwpsn  file "../c5535_bsl_revc/ezdsp5535_v1/c55xx_csl/src/csl_audioClass.c",line 1582,column 5,is_st
    3793 000d16 ED1C          MOV dbl(*SP(#14)), XAR3
         000d18 BF   
    3794 000d19 A420          MOV *SP(#16), T0 ; |1582| 
    3795 000d1b ED6D          MOV dbl(*AR3(#8)), AC0 ; |1582| 
         000d1d 0800 
         000d1f 08   
    3796              $C$DW$304       .dwtag  DW_TAG_TI_branch
    3797                      .dwattr $C$DW$304, DW_AT_low_pc(0x00)
    3798                      .dwattr $C$DW$304, DW_AT_TI_call
    3799                      .dwattr $C$DW$304, DW_AT_TI_indirect
    3800 000d20 9200          CALL AC0  ; |1582| 
    3801                                                      ; call occurs [AC0] ; |1582| 
    3802 000d22 C416          MOV T0, *SP(#11) ; |1582| 
    3803                      .dwpsn  file "../c5535_bsl_revc/ezdsp5535_v1/c55xx_csl/src/csl_audioClass.c",line 1583,column 5,is_st
    3804 000d24 F016          CMP *SP(#11) == #1, TC1 ; |1583| 
         000d26 0001 
    3805 000d28 6474          BCC $C$L99,!TC1 ; |1583| 
    3806                                                      ; branchcc occurs ; |1583| 
    3807                      .dwpsn  file "../c5535_bsl_revc/ezdsp5535_v1/c55xx_csl/src/csl_audioClass.c",line 1585,column 6,is_st
    3808 000d2a ED1C          MOV dbl(*SP(#14)), XAR3
         000d2c BF   
    3809 000d2d E66D          MOV #0, *AR3(#358) ; |1585| 
         000d2f 0001 
         000d31 66   
    3810 000d32       $C$L99:    
    3811                      .dwpsn  file "../c5535_bsl_revc/ezdsp5535_v1/c55xx_csl/src/csl_audioClass.c",line 1589,column 4,is_st
    3812 000d32 E614          MOV #2, *SP(#10) ; |1589| 
         000d34 02   
    3813                      .dwpsn  file "../c5535_bsl_revc/ezdsp5535_v1/c55xx_csl/src/csl_audioClass.c",line 1590,column 3,is_st
    3814 000d35 4A37          B $C$L104 ; |1590| 
    3815                                                      ; branch occurs ; |1590| 
    3816 000d37       $C$L100:    
    3817                      .dwpsn  file "../c5535_bsl_revc/ezdsp5535_v1/c55xx_csl/src/csl_audioClass.c",line 1591,column 8,is_st
    3818 000d37 F077          CMP *AR3(short(#3)) == #1, TC1 ; |1591| 
         000d39 0001 
    3819 000d3b 0474          BCC $C$L102,!TC1 ; |1591| 
         000d3d 28   
    3820                                                      ; branchcc occurs ; |1591| 
    3821                      .dwpsn  file "../c5535_bsl_revc/ezdsp5535_v1/c55xx_csl/src/csl_audioClass.c",line 1594,column 4,is_st
    3822 000d3e ED1C          MOV dbl(*SP(#14)), XAR3
         000d40 BF   
    3823 000d41 A96D          MOV *AR3(#359), AR1 ; |1594| 
         000d43 0167 
    3824 000d45 0419          BCC $C$L101,AR1 != #0 ; |1594| 
         000d47 19   
    3825                                                      ; branchcc occurs ; |1594| 
    3826                      .dwpsn  file "../c5535_bsl_revc/ezdsp5535_v1/c55xx_csl/src/csl_audioClass.c",line 1596,column 5,is_st
    3827 000d48 ED6D          MOV dbl(*AR3(#8)), AC0 ; |1596| 
         000d4a 0800 
         000d4c 08   
TMS320C55x Assembler PC v4.4.1 Fri Sep 07 02:27:33 2018

Tools Copyright (c) 1996-2012 Texas Instruments Incorporated
csl_audioClass.asm                                                   PAGE   86

    3828 000d4d A420          MOV *SP(#16), T0 ; |1596| 
    3829              $C$DW$305       .dwtag  DW_TAG_TI_branch
    3830                      .dwattr $C$DW$305, DW_AT_low_pc(0x00)
    3831                      .dwattr $C$DW$305, DW_AT_TI_call
    3832                      .dwattr $C$DW$305, DW_AT_TI_indirect
    3833 000d4f 9200          CALL AC0  ; |1596| 
    3834                                                      ; call occurs [AC0] ; |1596| 
    3835 000d51 C416          MOV T0, *SP(#11) ; |1596| 
    3836                      .dwpsn  file "../c5535_bsl_revc/ezdsp5535_v1/c55xx_csl/src/csl_audioClass.c",line 1597,column 5,is_st
    3837 000d53 F016          CMP *SP(#11) == #1, TC1 ; |1597| 
         000d55 0001 
    3838 000d57 6474          BCC $C$L101,!TC1 ; |1597| 
    3839                                                      ; branchcc occurs ; |1597| 
    3840                      .dwpsn  file "../c5535_bsl_revc/ezdsp5535_v1/c55xx_csl/src/csl_audioClass.c",line 1599,column 6,is_st
    3841 000d59 ED1C          MOV dbl(*SP(#14)), XAR3
         000d5b BF   
    3842 000d5c E66D          MOV #1, *AR3(#359) ; |1599| 
         000d5e 0101 
         000d60 67   
    3843 000d61       $C$L101:    
    3844                      .dwpsn  file "../c5535_bsl_revc/ezdsp5535_v1/c55xx_csl/src/csl_audioClass.c",line 1602,column 4,is_st
    3845 000d61 E614          MOV #2, *SP(#10) ; |1602| 
         000d63 02   
    3846                      .dwpsn  file "../c5535_bsl_revc/ezdsp5535_v1/c55xx_csl/src/csl_audioClass.c",line 1603,column 3,is_st
    3847 000d64 4A08          B $C$L104 ; |1603| 
    3848                                                      ; branch occurs ; |1603| 
    3849 000d66       $C$L102:    
    3850                      .dwpsn  file "../c5535_bsl_revc/ezdsp5535_v1/c55xx_csl/src/csl_audioClass.c",line 1606,column 4,is_st
    3851 000d66 E614          MOV #1, *SP(#10) ; |1606| 
         000d68 01   
    3852                      .dwpsn  file "../c5535_bsl_revc/ezdsp5535_v1/c55xx_csl/src/csl_audioClass.c",line 1608,column 2,is_st
    3853 000d69 4A03          B $C$L104 ; |1608| 
    3854                                                      ; branch occurs ; |1608| 
    3855 000d6b       $C$L103:    
    3856                      .dwpsn  file "../c5535_bsl_revc/ezdsp5535_v1/c55xx_csl/src/csl_audioClass.c",line 1612,column 3,is_st
    3857 000d6b E614          MOV #1, *SP(#10) ; |1612| 
         000d6d 01   
    3858 000d6e       $C$L104:    
    3859                      .dwpsn  file "../c5535_bsl_revc/ezdsp5535_v1/c55xx_csl/src/csl_audioClass.c",line 1615,column 2,is_st
    3860 000d6e A414          MOV *SP(#10), T0 ; |1615| 
    3861                      .dwpsn  file "../c5535_bsl_revc/ezdsp5535_v1/c55xx_csl/src/csl_audioClass.c",line 1616,column 1,is_st
    3862 000d70 4E11          AADD #17, SP
    3863                      .dwcfi  cfa_offset, 1
    3864              $C$DW$306       .dwtag  DW_TAG_TI_branch
    3865                      .dwattr $C$DW$306, DW_AT_low_pc(0x00)
    3866                      .dwattr $C$DW$306, DW_AT_TI_return
    3867 000d72 4804          RET
    3868                                                      ; return occurs
    3869                      .dwattr $C$DW$287, DW_AT_TI_end_file("../c5535_bsl_revc/ezdsp5535_v1/c55xx_csl/src/csl_audioClass.c")
    3870                      .dwattr $C$DW$287, DW_AT_TI_end_line(0x650)
    3871                      .dwattr $C$DW$287, DW_AT_TI_end_column(0x01)
    3872                      .dwendentry
    3873                      .dwendtag $C$DW$287
    3874              
    3875              ;******************************************************************************
TMS320C55x Assembler PC v4.4.1 Fri Sep 07 02:27:33 2018

Tools Copyright (c) 1996-2012 Texas Instruments Incorporated
csl_audioClass.asm                                                   PAGE   87

    3876              ;* UNDEFINED EXTERNAL REFERENCES                                              *
    3877              ;******************************************************************************
    3878                      .global _strlen
    3879                      .global _USB_initEndptObj
    3880                      .global _USB_getEvents
    3881                      .global _USB_getSetupPacket
    3882                      .global _USB_postTransaction
    3883                      .global _USB_stallEndpt
    3884                      .global _USB_abortAllTransaction
    3885                      .global _USB_connectDev
    3886                      .global _USB_disconnectDev
    3887                      .global _USB_setParams
    3888              
    3889              ;*******************************************************************************
    3890              ;* TYPE INFORMATION                                                            *
    3891              ;*******************************************************************************
    3892              
    3893              $C$DW$T$23      .dwtag  DW_TAG_enumeration_type
    3894                      .dwattr $C$DW$T$23, DW_AT_byte_size(0x01)
    3895              $C$DW$307       .dwtag  DW_TAG_enumerator, DW_AT_name("CSL_USB0"), DW_AT_const_value(0x00)
    3896              $C$DW$308       .dwtag  DW_TAG_enumerator, DW_AT_name("CSL_USB1"), DW_AT_const_value(0x01)
    3897              $C$DW$309       .dwtag  DW_TAG_enumerator, DW_AT_name("CSL_USB2"), DW_AT_const_value(0x02)
    3898                      .dwendtag $C$DW$T$23
    3899              
    3900              $C$DW$T$24      .dwtag  DW_TAG_typedef, DW_AT_name("CSL_UsbDevNum")
    3901                      .dwattr $C$DW$T$24, DW_AT_type(*$C$DW$T$23)
    3902                      .dwattr $C$DW$T$24, DW_AT_language(DW_LANG_C)
    3903              
    3904              $C$DW$T$43      .dwtag  DW_TAG_enumeration_type
    3905                      .dwattr $C$DW$T$43, DW_AT_byte_size(0x01)
    3906              $C$DW$310       .dwtag  DW_TAG_enumerator, DW_AT_name("CSL_AC_REQUEST_DONE"), DW_AT_const_value(0x00)
    3907              $C$DW$311       .dwtag  DW_TAG_enumerator, DW_AT_name("CSL_AC_REQUEST_STALL"), DW_AT_const_value(0x01)
    3908              $C$DW$312       .dwtag  DW_TAG_enumerator, DW_AT_name("CSL_AC_REQUEST_SEND_ACK"), DW_AT_const_value(0x02)
    3909              $C$DW$313       .dwtag  DW_TAG_enumerator, DW_AT_name("CSL_AC_REQUEST_GET_ACK"), DW_AT_const_value(0x03)
    3910              $C$DW$314       .dwtag  DW_TAG_enumerator, DW_AT_name("CSL_AC_REQUEST_DATA_IN"), DW_AT_const_value(0x04)
    3911              $C$DW$315       .dwtag  DW_TAG_enumerator, DW_AT_name("CSL_AC_REQUEST_DATA_OUT"), DW_AT_const_value(0x05)
    3912                      .dwendtag $C$DW$T$43
    3913              
    3914              $C$DW$T$44      .dwtag  DW_TAG_typedef, DW_AT_name("CSL_AcRequestRet")
    3915                      .dwattr $C$DW$T$44, DW_AT_type(*$C$DW$T$43)
    3916                      .dwattr $C$DW$T$44, DW_AT_language(DW_LANG_C)
    3917              
    3918              $C$DW$T$46      .dwtag  DW_TAG_subroutine_type
    3919                      .dwattr $C$DW$T$46, DW_AT_type(*$C$DW$T$44)
    3920                      .dwattr $C$DW$T$46, DW_AT_language(DW_LANG_C)
    3921              $C$DW$316       .dwtag  DW_TAG_formal_parameter
    3922                      .dwattr $C$DW$316, DW_AT_type(*$C$DW$T$24)
    3923              $C$DW$317       .dwtag  DW_TAG_formal_parameter
    3924                      .dwattr $C$DW$317, DW_AT_type(*$C$DW$T$45)
    3925              $C$DW$318       .dwtag  DW_TAG_formal_parameter
    3926                      .dwattr $C$DW$318, DW_AT_type(*$C$DW$T$27)
    3927              $C$DW$319       .dwtag  DW_TAG_formal_parameter
    3928                      .dwattr $C$DW$319, DW_AT_type(*$C$DW$T$27)
    3929              $C$DW$320       .dwtag  DW_TAG_formal_parameter
    3930                      .dwattr $C$DW$320, DW_AT_type(*$C$DW$T$3)
TMS320C55x Assembler PC v4.4.1 Fri Sep 07 02:27:33 2018

Tools Copyright (c) 1996-2012 Texas Instruments Incorporated
csl_audioClass.asm                                                   PAGE   88

    3931                      .dwendtag $C$DW$T$46
    3932              
    3933              $C$DW$T$47      .dwtag  DW_TAG_pointer_type
    3934                      .dwattr $C$DW$T$47, DW_AT_type(*$C$DW$T$46)
    3935                      .dwattr $C$DW$T$47, DW_AT_address_class(0x20)
    3936              $C$DW$T$88      .dwtag  DW_TAG_typedef, DW_AT_name("fpAC_REQ_HANDLER")
    3937                      .dwattr $C$DW$T$88, DW_AT_type(*$C$DW$T$47)
    3938                      .dwattr $C$DW$T$88, DW_AT_language(DW_LANG_C)
    3939              
    3940              $C$DW$T$52      .dwtag  DW_TAG_enumeration_type
    3941                      .dwattr $C$DW$T$52, DW_AT_byte_size(0x01)
    3942              $C$DW$321       .dwtag  DW_TAG_enumerator, DW_AT_name("CSL_AC_MEDIACCESS_OVERFLOW"), DW_AT_const_value(0x00)
    3943              $C$DW$322       .dwtag  DW_TAG_enumerator, DW_AT_name("CSL_AC_MEDIACCESS_SUCCESS"), DW_AT_const_value(0x01)
    3944              $C$DW$323       .dwtag  DW_TAG_enumerator, DW_AT_name("CSL_AC_MEDIACCESS_NOTPRESENT"), DW_AT_const_value(0x02
    3945              $C$DW$324       .dwtag  DW_TAG_enumerator, DW_AT_name("CSL_AC_MEDIACCESS_WRITEPROTECT"), DW_AT_const_value(0x
    3946              $C$DW$325       .dwtag  DW_TAG_enumerator, DW_AT_name("CSL_AC_MEDIACCESS_BADMEDIA"), DW_AT_const_value(0x04)
    3947                      .dwendtag $C$DW$T$52
    3948              
    3949              $C$DW$T$53      .dwtag  DW_TAG_typedef, DW_AT_name("CSL_AcMediaStatus")
    3950                      .dwattr $C$DW$T$53, DW_AT_type(*$C$DW$T$52)
    3951                      .dwattr $C$DW$T$53, DW_AT_language(DW_LANG_C)
    3952              
    3953              $C$DW$T$54      .dwtag  DW_TAG_subroutine_type
    3954                      .dwattr $C$DW$T$54, DW_AT_type(*$C$DW$T$53)
    3955                      .dwattr $C$DW$T$54, DW_AT_language(DW_LANG_C)
    3956              $C$DW$326       .dwtag  DW_TAG_formal_parameter
    3957                      .dwattr $C$DW$326, DW_AT_type(*$C$DW$T$25)
    3958              $C$DW$327       .dwtag  DW_TAG_formal_parameter
    3959                      .dwattr $C$DW$327, DW_AT_type(*$C$DW$T$49)
    3960              $C$DW$328       .dwtag  DW_TAG_formal_parameter
    3961                      .dwattr $C$DW$328, DW_AT_type(*$C$DW$T$49)
    3962              $C$DW$329       .dwtag  DW_TAG_formal_parameter
    3963                      .dwattr $C$DW$329, DW_AT_type(*$C$DW$T$3)
    3964                      .dwendtag $C$DW$T$54
    3965              
    3966              $C$DW$T$55      .dwtag  DW_TAG_pointer_type
    3967                      .dwattr $C$DW$T$55, DW_AT_type(*$C$DW$T$54)
    3968                      .dwattr $C$DW$T$55, DW_AT_address_class(0x20)
    3969              
    3970              $C$DW$T$56      .dwtag  DW_TAG_subroutine_type
    3971                      .dwattr $C$DW$T$56, DW_AT_type(*$C$DW$T$53)
    3972                      .dwattr $C$DW$T$56, DW_AT_language(DW_LANG_C)
    3973              $C$DW$330       .dwtag  DW_TAG_formal_parameter
    3974                      .dwattr $C$DW$330, DW_AT_type(*$C$DW$T$25)
    3975              $C$DW$331       .dwtag  DW_TAG_formal_parameter
    3976                      .dwattr $C$DW$331, DW_AT_type(*$C$DW$T$3)
    3977                      .dwendtag $C$DW$T$56
    3978              
    3979              $C$DW$T$57      .dwtag  DW_TAG_pointer_type
    3980                      .dwattr $C$DW$T$57, DW_AT_type(*$C$DW$T$56)
    3981                      .dwattr $C$DW$T$57, DW_AT_address_class(0x20)
    3982              
    3983              $C$DW$T$58      .dwtag  DW_TAG_subroutine_type
    3984                      .dwattr $C$DW$T$58, DW_AT_type(*$C$DW$T$53)
    3985                      .dwattr $C$DW$T$58, DW_AT_language(DW_LANG_C)
TMS320C55x Assembler PC v4.4.1 Fri Sep 07 02:27:33 2018

Tools Copyright (c) 1996-2012 Texas Instruments Incorporated
csl_audioClass.asm                                                   PAGE   89

    3986              $C$DW$332       .dwtag  DW_TAG_formal_parameter
    3987                      .dwattr $C$DW$332, DW_AT_type(*$C$DW$T$25)
    3988                      .dwendtag $C$DW$T$58
    3989              
    3990              $C$DW$T$59      .dwtag  DW_TAG_pointer_type
    3991                      .dwattr $C$DW$T$59, DW_AT_type(*$C$DW$T$58)
    3992                      .dwattr $C$DW$T$59, DW_AT_address_class(0x20)
    3993              
    3994              $C$DW$T$62      .dwtag  DW_TAG_subroutine_type
    3995                      .dwattr $C$DW$T$62, DW_AT_type(*$C$DW$T$53)
    3996                      .dwattr $C$DW$T$62, DW_AT_language(DW_LANG_C)
    3997              $C$DW$333       .dwtag  DW_TAG_formal_parameter
    3998                      .dwattr $C$DW$333, DW_AT_type(*$C$DW$T$25)
    3999              $C$DW$334       .dwtag  DW_TAG_formal_parameter
    4000                      .dwattr $C$DW$334, DW_AT_type(*$C$DW$T$61)
    4001                      .dwendtag $C$DW$T$62
    4002              
    4003              $C$DW$T$63      .dwtag  DW_TAG_pointer_type
    4004                      .dwattr $C$DW$T$63, DW_AT_type(*$C$DW$T$62)
    4005                      .dwattr $C$DW$T$63, DW_AT_address_class(0x20)
    4006              
    4007              $C$DW$T$60      .dwtag  DW_TAG_enumeration_type
    4008                      .dwattr $C$DW$T$60, DW_AT_byte_size(0x01)
    4009              $C$DW$335       .dwtag  DW_TAG_enumerator, DW_AT_name("CSL_AC_UNLOCK"), DW_AT_const_value(0x00)
    4010              $C$DW$336       .dwtag  DW_TAG_enumerator, DW_AT_name("CSL_AC_LOCK"), DW_AT_const_value(0x01)
    4011                      .dwendtag $C$DW$T$60
    4012              
    4013              $C$DW$T$61      .dwtag  DW_TAG_typedef, DW_AT_name("CSL_AcMediaLockStatus")
    4014                      .dwattr $C$DW$T$61, DW_AT_type(*$C$DW$T$60)
    4015                      .dwattr $C$DW$T$61, DW_AT_language(DW_LANG_C)
    4016              
    4017              $C$DW$T$80      .dwtag  DW_TAG_enumeration_type
    4018                      .dwattr $C$DW$T$80, DW_AT_byte_size(0x01)
    4019              $C$DW$337       .dwtag  DW_TAG_enumerator, DW_AT_name("CSL_USB_OUT_EP0"), DW_AT_const_value(0x00)
    4020              $C$DW$338       .dwtag  DW_TAG_enumerator, DW_AT_name("CSL_USB_OUT_EP1"), DW_AT_const_value(0x01)
    4021              $C$DW$339       .dwtag  DW_TAG_enumerator, DW_AT_name("CSL_USB_OUT_EP2"), DW_AT_const_value(0x02)
    4022              $C$DW$340       .dwtag  DW_TAG_enumerator, DW_AT_name("CSL_USB_OUT_EP3"), DW_AT_const_value(0x03)
    4023              $C$DW$341       .dwtag  DW_TAG_enumerator, DW_AT_name("CSL_USB_OUT_EP4"), DW_AT_const_value(0x04)
    4024              $C$DW$342       .dwtag  DW_TAG_enumerator, DW_AT_name("CSL_USB_OUT_EP5"), DW_AT_const_value(0x05)
    4025              $C$DW$343       .dwtag  DW_TAG_enumerator, DW_AT_name("CSL_USB_OUT_EP6"), DW_AT_const_value(0x06)
    4026              $C$DW$344       .dwtag  DW_TAG_enumerator, DW_AT_name("CSL_USB_OUT_EP7"), DW_AT_const_value(0x07)
    4027              $C$DW$345       .dwtag  DW_TAG_enumerator, DW_AT_name("CSL_USB_IN_EP0"), DW_AT_const_value(0x08)
    4028              $C$DW$346       .dwtag  DW_TAG_enumerator, DW_AT_name("CSL_USB_IN_EP1"), DW_AT_const_value(0x09)
    4029              $C$DW$347       .dwtag  DW_TAG_enumerator, DW_AT_name("CSL_USB_IN_EP2"), DW_AT_const_value(0x0a)
    4030              $C$DW$348       .dwtag  DW_TAG_enumerator, DW_AT_name("CSL_USB_IN_EP3"), DW_AT_const_value(0x0b)
    4031              $C$DW$349       .dwtag  DW_TAG_enumerator, DW_AT_name("CSL_USB_IN_EP4"), DW_AT_const_value(0x0c)
    4032              $C$DW$350       .dwtag  DW_TAG_enumerator, DW_AT_name("CSL_USB_IN_EP5"), DW_AT_const_value(0x0d)
    4033              $C$DW$351       .dwtag  DW_TAG_enumerator, DW_AT_name("CSL_USB_IN_EP6"), DW_AT_const_value(0x0e)
    4034              $C$DW$352       .dwtag  DW_TAG_enumerator, DW_AT_name("CSL_USB_IN_EP7"), DW_AT_const_value(0x0f)
    4035                      .dwendtag $C$DW$T$80
    4036              
    4037              $C$DW$T$81      .dwtag  DW_TAG_typedef, DW_AT_name("CSL_UsbEpNum")
    4038                      .dwattr $C$DW$T$81, DW_AT_type(*$C$DW$T$80)
    4039                      .dwattr $C$DW$T$81, DW_AT_language(DW_LANG_C)
    4040              
TMS320C55x Assembler PC v4.4.1 Fri Sep 07 02:27:33 2018

Tools Copyright (c) 1996-2012 Texas Instruments Incorporated
csl_audioClass.asm                                                   PAGE   90

    4041              $C$DW$T$82      .dwtag  DW_TAG_enumeration_type
    4042                      .dwattr $C$DW$T$82, DW_AT_byte_size(0x01)
    4043              $C$DW$353       .dwtag  DW_TAG_enumerator, DW_AT_name("CSL_USB_CTRL"), DW_AT_const_value(0x00)
    4044              $C$DW$354       .dwtag  DW_TAG_enumerator, DW_AT_name("CSL_USB_BULK"), DW_AT_const_value(0x01)
    4045              $C$DW$355       .dwtag  DW_TAG_enumerator, DW_AT_name("CSL_USB_INTR"), DW_AT_const_value(0x02)
    4046              $C$DW$356       .dwtag  DW_TAG_enumerator, DW_AT_name("CSL_USB_ISO"), DW_AT_const_value(0x03)
    4047              $C$DW$357       .dwtag  DW_TAG_enumerator, DW_AT_name("CSL_USB_HPORT"), DW_AT_const_value(0x04)
    4048                      .dwendtag $C$DW$T$82
    4049              
    4050              $C$DW$T$83      .dwtag  DW_TAG_typedef, DW_AT_name("CSL_UsbXferType")
    4051                      .dwattr $C$DW$T$83, DW_AT_type(*$C$DW$T$82)
    4052                      .dwattr $C$DW$T$83, DW_AT_language(DW_LANG_C)
    4053              
    4054              $C$DW$T$91      .dwtag  DW_TAG_enumeration_type
    4055                      .dwattr $C$DW$T$91, DW_AT_byte_size(0x01)
    4056              $C$DW$358       .dwtag  DW_TAG_enumerator, DW_AT_name("CSL_AC_DEVICE_DESCR"), DW_AT_const_value(0x00)
    4057              $C$DW$359       .dwtag  DW_TAG_enumerator, DW_AT_name("CSL_AC_DEVICE_QUAL_DESCR"), DW_AT_const_value(0x01)
    4058              $C$DW$360       .dwtag  DW_TAG_enumerator, DW_AT_name("CSL_AC_CONFIG_DESCR"), DW_AT_const_value(0x02)
    4059              $C$DW$361       .dwtag  DW_TAG_enumerator, DW_AT_name("CSL_AC_INTERFACE_DESCR"), DW_AT_const_value(0x03)
    4060              $C$DW$362       .dwtag  DW_TAG_enumerator, DW_AT_name("CSL_AC_STRING_LANGID_DESC"), DW_AT_const_value(0x04)
    4061                      .dwendtag $C$DW$T$91
    4062              
    4063              $C$DW$T$92      .dwtag  DW_TAG_typedef, DW_AT_name("CSL_AcDescrId")
    4064                      .dwattr $C$DW$T$92, DW_AT_type(*$C$DW$T$91)
    4065                      .dwattr $C$DW$T$92, DW_AT_language(DW_LANG_C)
    4066              
    4067              $C$DW$T$21      .dwtag  DW_TAG_structure_type
    4068                      .dwattr $C$DW$T$21, DW_AT_name("CSL_AcClassStruct")
    4069                      .dwattr $C$DW$T$21, DW_AT_byte_size(0x2f6)
    4070              $C$DW$363       .dwtag  DW_TAG_member
    4071                      .dwattr $C$DW$363, DW_AT_type(*$C$DW$T$19)
    4072                      .dwattr $C$DW$363, DW_AT_name("ctrlHandle")
    4073                      .dwattr $C$DW$363, DW_AT_TI_symbol_name("_ctrlHandle")
    4074                      .dwattr $C$DW$363, DW_AT_data_member_location[DW_OP_plus_uconst 0x0]
    4075                      .dwattr $C$DW$363, DW_AT_accessibility(DW_ACCESS_public)
    4076              $C$DW$364       .dwtag  DW_TAG_member
    4077                      .dwattr $C$DW$364, DW_AT_type(*$C$DW$T$20)
    4078                      .dwattr $C$DW$364, DW_AT_name("acHandle")
    4079                      .dwattr $C$DW$364, DW_AT_TI_symbol_name("_acHandle")
    4080                      .dwattr $C$DW$364, DW_AT_data_member_location[DW_OP_plus_uconst 0x18a]
    4081                      .dwattr $C$DW$364, DW_AT_accessibility(DW_ACCESS_public)
    4082                      .dwendtag $C$DW$T$21
    4083              
    4084              $C$DW$T$93      .dwtag  DW_TAG_typedef, DW_AT_name("CSL_AcClassStruct")
    4085                      .dwattr $C$DW$T$93, DW_AT_type(*$C$DW$T$21)
    4086                      .dwattr $C$DW$T$93, DW_AT_language(DW_LANG_C)
    4087              $C$DW$T$94      .dwtag  DW_TAG_pointer_type
    4088                      .dwattr $C$DW$T$94, DW_AT_type(*$C$DW$T$93)
    4089                      .dwattr $C$DW$T$94, DW_AT_address_class(0x17)
    4090              $C$DW$T$95      .dwtag  DW_TAG_typedef, DW_AT_name("pAcClassHandle")
    4091                      .dwattr $C$DW$T$95, DW_AT_type(*$C$DW$T$94)
    4092                      .dwattr $C$DW$T$95, DW_AT_language(DW_LANG_C)
    4093              
    4094              $C$DW$T$48      .dwtag  DW_TAG_structure_type
    4095                      .dwattr $C$DW$T$48, DW_AT_name("CSL_AcCtrlObject")
TMS320C55x Assembler PC v4.4.1 Fri Sep 07 02:27:33 2018

Tools Copyright (c) 1996-2012 Texas Instruments Incorporated
csl_audioClass.asm                                                   PAGE   91

    4096                      .dwattr $C$DW$T$48, DW_AT_byte_size(0x18a)
    4097              $C$DW$365       .dwtag  DW_TAG_member
    4098                      .dwattr $C$DW$365, DW_AT_type(*$C$DW$T$22)
    4099                      .dwattr $C$DW$365, DW_AT_name("ctrlInEpObj")
    4100                      .dwattr $C$DW$365, DW_AT_TI_symbol_name("_ctrlInEpObj")
    4101                      .dwattr $C$DW$365, DW_AT_data_member_location[DW_OP_plus_uconst 0x0]
    4102                      .dwattr $C$DW$365, DW_AT_accessibility(DW_ACCESS_public)
    4103              $C$DW$366       .dwtag  DW_TAG_member
    4104                      .dwattr $C$DW$366, DW_AT_type(*$C$DW$T$24)
    4105                      .dwattr $C$DW$366, DW_AT_name("devNum")
    4106                      .dwattr $C$DW$366, DW_AT_TI_symbol_name("_devNum")
    4107                      .dwattr $C$DW$366, DW_AT_data_member_location[DW_OP_plus_uconst 0x14]
    4108                      .dwattr $C$DW$366, DW_AT_accessibility(DW_ACCESS_public)
    4109              $C$DW$367       .dwtag  DW_TAG_member
    4110                      .dwattr $C$DW$367, DW_AT_type(*$C$DW$T$22)
    4111                      .dwattr $C$DW$367, DW_AT_name("ctrlOutEpObj")
    4112                      .dwattr $C$DW$367, DW_AT_TI_symbol_name("_ctrlOutEpObj")
    4113                      .dwattr $C$DW$367, DW_AT_data_member_location[DW_OP_plus_uconst 0x16]
    4114                      .dwattr $C$DW$367, DW_AT_accessibility(DW_ACCESS_public)
    4115              $C$DW$368       .dwtag  DW_TAG_member
    4116                      .dwattr $C$DW$368, DW_AT_type(*$C$DW$T$25)
    4117                      .dwattr $C$DW$368, DW_AT_name("suspendFlag")
    4118                      .dwattr $C$DW$368, DW_AT_TI_symbol_name("_suspendFlag")
    4119                      .dwattr $C$DW$368, DW_AT_data_member_location[DW_OP_plus_uconst 0x2a]
    4120                      .dwattr $C$DW$368, DW_AT_accessibility(DW_ACCESS_public)
    4121              $C$DW$369       .dwtag  DW_TAG_member
    4122                      .dwattr $C$DW$369, DW_AT_type(*$C$DW$T$28)
    4123                      .dwattr $C$DW$369, DW_AT_name("hEpObjArray")
    4124                      .dwattr $C$DW$369, DW_AT_TI_symbol_name("_hEpObjArray")
    4125                      .dwattr $C$DW$369, DW_AT_data_member_location[DW_OP_plus_uconst 0x2c]
    4126                      .dwattr $C$DW$369, DW_AT_accessibility(DW_ACCESS_public)
    4127              $C$DW$370       .dwtag  DW_TAG_member
    4128                      .dwattr $C$DW$370, DW_AT_type(*$C$DW$T$29)
    4129                      .dwattr $C$DW$370, DW_AT_name("usbSetup")
    4130                      .dwattr $C$DW$370, DW_AT_TI_symbol_name("_usbSetup")
    4131                      .dwattr $C$DW$370, DW_AT_data_member_location[DW_OP_plus_uconst 0x36]
    4132                      .dwattr $C$DW$370, DW_AT_accessibility(DW_ACCESS_public)
    4133              $C$DW$371       .dwtag  DW_TAG_member
    4134                      .dwattr $C$DW$371, DW_AT_type(*$C$DW$T$30)
    4135                      .dwattr $C$DW$371, DW_AT_name("leftVolBuf")
    4136                      .dwattr $C$DW$371, DW_AT_TI_symbol_name("_leftVolBuf")
    4137                      .dwattr $C$DW$371, DW_AT_data_member_location[DW_OP_plus_uconst 0x3c]
    4138                      .dwattr $C$DW$371, DW_AT_accessibility(DW_ACCESS_public)
    4139              $C$DW$372       .dwtag  DW_TAG_member
    4140                      .dwattr $C$DW$372, DW_AT_type(*$C$DW$T$30)
    4141                      .dwattr $C$DW$372, DW_AT_name("rightVolBuf")
    4142                      .dwattr $C$DW$372, DW_AT_TI_symbol_name("_rightVolBuf")
    4143                      .dwattr $C$DW$372, DW_AT_data_member_location[DW_OP_plus_uconst 0x42]
    4144                      .dwattr $C$DW$372, DW_AT_accessibility(DW_ACCESS_public)
    4145              $C$DW$373       .dwtag  DW_TAG_member
    4146                      .dwattr $C$DW$373, DW_AT_type(*$C$DW$T$31)
    4147                      .dwattr $C$DW$373, DW_AT_name("leftRightVolBuf")
    4148                      .dwattr $C$DW$373, DW_AT_TI_symbol_name("_leftRightVolBuf")
    4149                      .dwattr $C$DW$373, DW_AT_data_member_location[DW_OP_plus_uconst 0x48]
    4150                      .dwattr $C$DW$373, DW_AT_accessibility(DW_ACCESS_public)
TMS320C55x Assembler PC v4.4.1 Fri Sep 07 02:27:33 2018

Tools Copyright (c) 1996-2012 Texas Instruments Incorporated
csl_audioClass.asm                                                   PAGE   92

    4151              $C$DW$374       .dwtag  DW_TAG_member
    4152                      .dwattr $C$DW$374, DW_AT_type(*$C$DW$T$30)
    4153                      .dwattr $C$DW$374, DW_AT_name("muteCtrlBuf")
    4154                      .dwattr $C$DW$374, DW_AT_TI_symbol_name("_muteCtrlBuf")
    4155                      .dwattr $C$DW$374, DW_AT_data_member_location[DW_OP_plus_uconst 0x54]
    4156                      .dwattr $C$DW$374, DW_AT_accessibility(DW_ACCESS_public)
    4157              $C$DW$375       .dwtag  DW_TAG_member
    4158                      .dwattr $C$DW$375, DW_AT_type(*$C$DW$T$32)
    4159                      .dwattr $C$DW$375, DW_AT_name("getMinBuffer")
    4160                      .dwattr $C$DW$375, DW_AT_TI_symbol_name("_getMinBuffer")
    4161                      .dwattr $C$DW$375, DW_AT_data_member_location[DW_OP_plus_uconst 0x5a]
    4162                      .dwattr $C$DW$375, DW_AT_accessibility(DW_ACCESS_public)
    4163              $C$DW$376       .dwtag  DW_TAG_member
    4164                      .dwattr $C$DW$376, DW_AT_type(*$C$DW$T$32)
    4165                      .dwattr $C$DW$376, DW_AT_name("getMaxBuffer")
    4166                      .dwattr $C$DW$376, DW_AT_TI_symbol_name("_getMaxBuffer")
    4167                      .dwattr $C$DW$376, DW_AT_data_member_location[DW_OP_plus_uconst 0x5e]
    4168                      .dwattr $C$DW$376, DW_AT_accessibility(DW_ACCESS_public)
    4169              $C$DW$377       .dwtag  DW_TAG_member
    4170                      .dwattr $C$DW$377, DW_AT_type(*$C$DW$T$32)
    4171                      .dwattr $C$DW$377, DW_AT_name("getResBuffer")
    4172                      .dwattr $C$DW$377, DW_AT_TI_symbol_name("_getResBuffer")
    4173                      .dwattr $C$DW$377, DW_AT_data_member_location[DW_OP_plus_uconst 0x62]
    4174                      .dwattr $C$DW$377, DW_AT_accessibility(DW_ACCESS_public)
    4175              $C$DW$378       .dwtag  DW_TAG_member
    4176                      .dwattr $C$DW$378, DW_AT_type(*$C$DW$T$33)
    4177                      .dwattr $C$DW$378, DW_AT_name("dummydesc")
    4178                      .dwattr $C$DW$378, DW_AT_TI_symbol_name("_dummydesc")
    4179                      .dwattr $C$DW$378, DW_AT_data_member_location[DW_OP_plus_uconst 0x66]
    4180                      .dwattr $C$DW$378, DW_AT_accessibility(DW_ACCESS_public)
    4181              $C$DW$379       .dwtag  DW_TAG_member
    4182                      .dwattr $C$DW$379, DW_AT_type(*$C$DW$T$31)
    4183                      .dwattr $C$DW$379, DW_AT_name("deviceQualifierDescr")
    4184                      .dwattr $C$DW$379, DW_AT_TI_symbol_name("_deviceQualifierDescr")
    4185                      .dwattr $C$DW$379, DW_AT_data_member_location[DW_OP_plus_uconst 0xa5]
    4186                      .dwattr $C$DW$379, DW_AT_accessibility(DW_ACCESS_public)
    4187              $C$DW$380       .dwtag  DW_TAG_member
    4188                      .dwattr $C$DW$380, DW_AT_type(*$C$DW$T$34)
    4189                      .dwattr $C$DW$380, DW_AT_name("deviceDescr")
    4190                      .dwattr $C$DW$380, DW_AT_TI_symbol_name("_deviceDescr")
    4191                      .dwattr $C$DW$380, DW_AT_data_member_location[DW_OP_plus_uconst 0xb1]
    4192                      .dwattr $C$DW$380, DW_AT_accessibility(DW_ACCESS_public)
    4193              $C$DW$381       .dwtag  DW_TAG_member
    4194                      .dwattr $C$DW$381, DW_AT_type(*$C$DW$T$35)
    4195                      .dwattr $C$DW$381, DW_AT_name("confDescr")
    4196                      .dwattr $C$DW$381, DW_AT_TI_symbol_name("_confDescr")
    4197                      .dwattr $C$DW$381, DW_AT_data_member_location[DW_OP_plus_uconst 0xc5]
    4198                      .dwattr $C$DW$381, DW_AT_accessibility(DW_ACCESS_public)
    4199              $C$DW$382       .dwtag  DW_TAG_member
    4200                      .dwattr $C$DW$382, DW_AT_type(*$C$DW$T$31)
    4201                      .dwattr $C$DW$382, DW_AT_name("audioClassIntDescr")
    4202                      .dwattr $C$DW$382, DW_AT_TI_symbol_name("_audioClassIntDescr")
    4203                      .dwattr $C$DW$382, DW_AT_data_member_location[DW_OP_plus_uconst 0x141]
    4204                      .dwattr $C$DW$382, DW_AT_accessibility(DW_ACCESS_public)
    4205              $C$DW$383       .dwtag  DW_TAG_member
TMS320C55x Assembler PC v4.4.1 Fri Sep 07 02:27:33 2018

Tools Copyright (c) 1996-2012 Texas Instruments Incorporated
csl_audioClass.asm                                                   PAGE   93

    4206                      .dwattr $C$DW$383, DW_AT_type(*$C$DW$T$36)
    4207                      .dwattr $C$DW$383, DW_AT_name("audioClassIsoOutEndptDescr")
    4208                      .dwattr $C$DW$383, DW_AT_TI_symbol_name("_audioClassIsoOutEndptDescr")
    4209                      .dwattr $C$DW$383, DW_AT_data_member_location[DW_OP_plus_uconst 0x14d]
    4210                      .dwattr $C$DW$383, DW_AT_accessibility(DW_ACCESS_public)
    4211              $C$DW$384       .dwtag  DW_TAG_member
    4212                      .dwattr $C$DW$384, DW_AT_type(*$C$DW$T$37)
    4213                      .dwattr $C$DW$384, DW_AT_name("audioClassInterfcLnk")
    4214                      .dwattr $C$DW$384, DW_AT_TI_symbol_name("_audioClassInterfcLnk")
    4215                      .dwattr $C$DW$384, DW_AT_data_member_location[DW_OP_plus_uconst 0x152]
    4216                      .dwattr $C$DW$384, DW_AT_accessibility(DW_ACCESS_public)
    4217              $C$DW$385       .dwtag  DW_TAG_member
    4218                      .dwattr $C$DW$385, DW_AT_type(*$C$DW$T$36)
    4219                      .dwattr $C$DW$385, DW_AT_name("audioClassIsoInEndptDescr")
    4220                      .dwattr $C$DW$385, DW_AT_TI_symbol_name("_audioClassIsoInEndptDescr")
    4221                      .dwattr $C$DW$385, DW_AT_data_member_location[DW_OP_plus_uconst 0x158]
    4222                      .dwattr $C$DW$385, DW_AT_accessibility(DW_ACCESS_public)
    4223              $C$DW$386       .dwtag  DW_TAG_member
    4224                      .dwattr $C$DW$386, DW_AT_type(*$C$DW$T$37)
    4225                      .dwattr $C$DW$386, DW_AT_name("audioClassIsoOutEndptLnk")
    4226                      .dwattr $C$DW$386, DW_AT_TI_symbol_name("_audioClassIsoOutEndptLnk")
    4227                      .dwattr $C$DW$386, DW_AT_data_member_location[DW_OP_plus_uconst 0x15e]
    4228                      .dwattr $C$DW$386, DW_AT_accessibility(DW_ACCESS_public)
    4229              $C$DW$387       .dwtag  DW_TAG_member
    4230                      .dwattr $C$DW$387, DW_AT_type(*$C$DW$T$31)
    4231                      .dwattr $C$DW$387, DW_AT_name("stringDescrLangid")
    4232                      .dwattr $C$DW$387, DW_AT_TI_symbol_name("_stringDescrLangid")
    4233                      .dwattr $C$DW$387, DW_AT_data_member_location[DW_OP_plus_uconst 0x164]
    4234                      .dwattr $C$DW$387, DW_AT_accessibility(DW_ACCESS_public)
    4235              $C$DW$388       .dwtag  DW_TAG_member
    4236                      .dwattr $C$DW$388, DW_AT_type(*$C$DW$T$25)
    4237                      .dwattr $C$DW$388, DW_AT_name("curConfigStat")
    4238                      .dwattr $C$DW$388, DW_AT_TI_symbol_name("_curConfigStat")
    4239                      .dwattr $C$DW$388, DW_AT_data_member_location[DW_OP_plus_uconst 0x170]
    4240                      .dwattr $C$DW$388, DW_AT_accessibility(DW_ACCESS_public)
    4241              $C$DW$389       .dwtag  DW_TAG_member
    4242                      .dwattr $C$DW$389, DW_AT_type(*$C$DW$T$37)
    4243                      .dwattr $C$DW$389, DW_AT_name("audioClassIsoInEndptLnk")
    4244                      .dwattr $C$DW$389, DW_AT_TI_symbol_name("_audioClassIsoInEndptLnk")
    4245                      .dwattr $C$DW$389, DW_AT_data_member_location[DW_OP_plus_uconst 0x172]
    4246                      .dwattr $C$DW$389, DW_AT_accessibility(DW_ACCESS_public)
    4247              $C$DW$390       .dwtag  DW_TAG_member
    4248                      .dwattr $C$DW$390, DW_AT_type(*$C$DW$T$36)
    4249                      .dwattr $C$DW$390, DW_AT_name("ctrlBuffer")
    4250                      .dwattr $C$DW$390, DW_AT_TI_symbol_name("_ctrlBuffer")
    4251                      .dwattr $C$DW$390, DW_AT_data_member_location[DW_OP_plus_uconst 0x178]
    4252                      .dwattr $C$DW$390, DW_AT_accessibility(DW_ACCESS_public)
    4253              $C$DW$391       .dwtag  DW_TAG_member
    4254                      .dwattr $C$DW$391, DW_AT_type(*$C$DW$T$37)
    4255                      .dwattr $C$DW$391, DW_AT_name("configDescrLnk")
    4256                      .dwattr $C$DW$391, DW_AT_TI_symbol_name("_configDescrLnk")
    4257                      .dwattr $C$DW$391, DW_AT_data_member_location[DW_OP_plus_uconst 0x17e]
    4258                      .dwattr $C$DW$391, DW_AT_accessibility(DW_ACCESS_public)
    4259              $C$DW$392       .dwtag  DW_TAG_member
    4260                      .dwattr $C$DW$392, DW_AT_type(*$C$DW$T$40)
TMS320C55x Assembler PC v4.4.1 Fri Sep 07 02:27:33 2018

Tools Copyright (c) 1996-2012 Texas Instruments Incorporated
csl_audioClass.asm                                                   PAGE   94

    4261                      .dwattr $C$DW$392, DW_AT_name("strDescr")
    4262                      .dwattr $C$DW$392, DW_AT_TI_symbol_name("_strDescr")
    4263                      .dwattr $C$DW$392, DW_AT_data_member_location[DW_OP_plus_uconst 0x184]
    4264                      .dwattr $C$DW$392, DW_AT_accessibility(DW_ACCESS_public)
    4265              $C$DW$393       .dwtag  DW_TAG_member
    4266                      .dwattr $C$DW$393, DW_AT_type(*$C$DW$T$42)
    4267                      .dwattr $C$DW$393, DW_AT_name("acReqTable")
    4268                      .dwattr $C$DW$393, DW_AT_TI_symbol_name("_acReqTable")
    4269                      .dwattr $C$DW$393, DW_AT_data_member_location[DW_OP_plus_uconst 0x186]
    4270                      .dwattr $C$DW$393, DW_AT_accessibility(DW_ACCESS_public)
    4271              $C$DW$394       .dwtag  DW_TAG_member
    4272                      .dwattr $C$DW$394, DW_AT_type(*$C$DW$T$47)
    4273                      .dwattr $C$DW$394, DW_AT_name("fpRequestHandler")
    4274                      .dwattr $C$DW$394, DW_AT_TI_symbol_name("_fpRequestHandler")
    4275                      .dwattr $C$DW$394, DW_AT_data_member_location[DW_OP_plus_uconst 0x188]
    4276                      .dwattr $C$DW$394, DW_AT_accessibility(DW_ACCESS_public)
    4277                      .dwendtag $C$DW$T$48
    4278              
    4279              $C$DW$T$19      .dwtag  DW_TAG_typedef, DW_AT_name("CSL_AcCtrlObject")
    4280                      .dwattr $C$DW$T$19, DW_AT_type(*$C$DW$T$48)
    4281                      .dwattr $C$DW$T$19, DW_AT_language(DW_LANG_C)
    4282              $C$DW$T$96      .dwtag  DW_TAG_pointer_type
    4283                      .dwattr $C$DW$T$96, DW_AT_type(*$C$DW$T$19)
    4284                      .dwattr $C$DW$T$96, DW_AT_address_class(0x17)
    4285              
    4286              $C$DW$T$67      .dwtag  DW_TAG_structure_type
    4287                      .dwattr $C$DW$T$67, DW_AT_name("CSL_AcInitStructApp")
    4288                      .dwattr $C$DW$T$67, DW_AT_byte_size(0x22)
    4289              $C$DW$395       .dwtag  DW_TAG_member
    4290                      .dwattr $C$DW$395, DW_AT_type(*$C$DW$T$3)
    4291                      .dwattr $C$DW$395, DW_AT_name("pAcObj")
    4292                      .dwattr $C$DW$395, DW_AT_TI_symbol_name("_pAcObj")
    4293                      .dwattr $C$DW$395, DW_AT_data_member_location[DW_OP_plus_uconst 0x0]
    4294                      .dwattr $C$DW$395, DW_AT_accessibility(DW_ACCESS_public)
    4295              $C$DW$396       .dwtag  DW_TAG_member
    4296                      .dwattr $C$DW$396, DW_AT_type(*$C$DW$T$25)
    4297                      .dwattr $C$DW$396, DW_AT_name("pId")
    4298                      .dwattr $C$DW$396, DW_AT_TI_symbol_name("_pId")
    4299                      .dwattr $C$DW$396, DW_AT_data_member_location[DW_OP_plus_uconst 0x2]
    4300                      .dwattr $C$DW$396, DW_AT_accessibility(DW_ACCESS_public)
    4301              $C$DW$397       .dwtag  DW_TAG_member
    4302                      .dwattr $C$DW$397, DW_AT_type(*$C$DW$T$25)
    4303                      .dwattr $C$DW$397, DW_AT_name("vId")
    4304                      .dwattr $C$DW$397, DW_AT_TI_symbol_name("_vId")
    4305                      .dwattr $C$DW$397, DW_AT_data_member_location[DW_OP_plus_uconst 0x3]
    4306                      .dwattr $C$DW$397, DW_AT_accessibility(DW_ACCESS_public)
    4307              $C$DW$398       .dwtag  DW_TAG_member
    4308                      .dwattr $C$DW$398, DW_AT_type(*$C$DW$T$25)
    4309                      .dwattr $C$DW$398, DW_AT_name("numLun")
    4310                      .dwattr $C$DW$398, DW_AT_TI_symbol_name("_numLun")
    4311                      .dwattr $C$DW$398, DW_AT_data_member_location[DW_OP_plus_uconst 0x4]
    4312                      .dwattr $C$DW$398, DW_AT_accessibility(DW_ACCESS_public)
    4313              $C$DW$399       .dwtag  DW_TAG_member
    4314                      .dwattr $C$DW$399, DW_AT_type(*$C$DW$T$25)
    4315                      .dwattr $C$DW$399, DW_AT_name("txPktSize")
TMS320C55x Assembler PC v4.4.1 Fri Sep 07 02:27:33 2018

Tools Copyright (c) 1996-2012 Texas Instruments Incorporated
csl_audioClass.asm                                                   PAGE   95

    4316                      .dwattr $C$DW$399, DW_AT_TI_symbol_name("_txPktSize")
    4317                      .dwattr $C$DW$399, DW_AT_data_member_location[DW_OP_plus_uconst 0x5]
    4318                      .dwattr $C$DW$399, DW_AT_accessibility(DW_ACCESS_public)
    4319              $C$DW$400       .dwtag  DW_TAG_member
    4320                      .dwattr $C$DW$400, DW_AT_type(*$C$DW$T$25)
    4321                      .dwattr $C$DW$400, DW_AT_name("rxPktSize")
    4322                      .dwattr $C$DW$400, DW_AT_TI_symbol_name("_rxPktSize")
    4323                      .dwattr $C$DW$400, DW_AT_data_member_location[DW_OP_plus_uconst 0x6]
    4324                      .dwattr $C$DW$400, DW_AT_accessibility(DW_ACCESS_public)
    4325              $C$DW$401       .dwtag  DW_TAG_member
    4326                      .dwattr $C$DW$401, DW_AT_type(*$C$DW$T$40)
    4327                      .dwattr $C$DW$401, DW_AT_name("strDescrApp")
    4328                      .dwattr $C$DW$401, DW_AT_TI_symbol_name("_strDescrApp")
    4329                      .dwattr $C$DW$401, DW_AT_data_member_location[DW_OP_plus_uconst 0x8]
    4330                      .dwattr $C$DW$401, DW_AT_accessibility(DW_ACCESS_public)
    4331              $C$DW$402       .dwtag  DW_TAG_member
    4332                      .dwattr $C$DW$402, DW_AT_type(*$C$DW$T$49)
    4333                      .dwattr $C$DW$402, DW_AT_name("lbaBufferApp")
    4334                      .dwattr $C$DW$402, DW_AT_TI_symbol_name("_lbaBufferApp")
    4335                      .dwattr $C$DW$402, DW_AT_data_member_location[DW_OP_plus_uconst 0xa]
    4336                      .dwattr $C$DW$402, DW_AT_accessibility(DW_ACCESS_public)
    4337              $C$DW$403       .dwtag  DW_TAG_member
    4338                      .dwattr $C$DW$403, DW_AT_type(*$C$DW$T$42)
    4339                      .dwattr $C$DW$403, DW_AT_name("acReqTableApp")
    4340                      .dwattr $C$DW$403, DW_AT_TI_symbol_name("_acReqTableApp")
    4341                      .dwattr $C$DW$403, DW_AT_data_member_location[DW_OP_plus_uconst 0xc]
    4342                      .dwattr $C$DW$403, DW_AT_accessibility(DW_ACCESS_public)
    4343              $C$DW$404       .dwtag  DW_TAG_member
    4344                      .dwattr $C$DW$404, DW_AT_type(*$C$DW$T$51)
    4345                      .dwattr $C$DW$404, DW_AT_name("isoHandler")
    4346                      .dwattr $C$DW$404, DW_AT_TI_symbol_name("_isoHandler")
    4347                      .dwattr $C$DW$404, DW_AT_data_member_location[DW_OP_plus_uconst 0xe]
    4348                      .dwattr $C$DW$404, DW_AT_accessibility(DW_ACCESS_public)
    4349              $C$DW$405       .dwtag  DW_TAG_member
    4350                      .dwattr $C$DW$405, DW_AT_type(*$C$DW$T$51)
    4351                      .dwattr $C$DW$405, DW_AT_name("ctrlHandler")
    4352                      .dwattr $C$DW$405, DW_AT_TI_symbol_name("_ctrlHandler")
    4353                      .dwattr $C$DW$405, DW_AT_data_member_location[DW_OP_plus_uconst 0x10]
    4354                      .dwattr $C$DW$405, DW_AT_accessibility(DW_ACCESS_public)
    4355              $C$DW$406       .dwtag  DW_TAG_member
    4356                      .dwattr $C$DW$406, DW_AT_type(*$C$DW$T$55)
    4357                      .dwattr $C$DW$406, DW_AT_name("playAudioApp")
    4358                      .dwattr $C$DW$406, DW_AT_TI_symbol_name("_playAudioApp")
    4359                      .dwattr $C$DW$406, DW_AT_data_member_location[DW_OP_plus_uconst 0x12]
    4360                      .dwattr $C$DW$406, DW_AT_accessibility(DW_ACCESS_public)
    4361              $C$DW$407       .dwtag  DW_TAG_member
    4362                      .dwattr $C$DW$407, DW_AT_type(*$C$DW$T$57)
    4363                      .dwattr $C$DW$407, DW_AT_name("stopAudioApp")
    4364                      .dwattr $C$DW$407, DW_AT_TI_symbol_name("_stopAudioApp")
    4365                      .dwattr $C$DW$407, DW_AT_data_member_location[DW_OP_plus_uconst 0x14]
    4366                      .dwattr $C$DW$407, DW_AT_accessibility(DW_ACCESS_public)
    4367              $C$DW$408       .dwtag  DW_TAG_member
    4368                      .dwattr $C$DW$408, DW_AT_type(*$C$DW$T$55)
    4369                      .dwattr $C$DW$408, DW_AT_name("recordAudioApp")
    4370                      .dwattr $C$DW$408, DW_AT_TI_symbol_name("_recordAudioApp")
TMS320C55x Assembler PC v4.4.1 Fri Sep 07 02:27:33 2018

Tools Copyright (c) 1996-2012 Texas Instruments Incorporated
csl_audioClass.asm                                                   PAGE   96

    4371                      .dwattr $C$DW$408, DW_AT_data_member_location[DW_OP_plus_uconst 0x16]
    4372                      .dwattr $C$DW$408, DW_AT_accessibility(DW_ACCESS_public)
    4373              $C$DW$409       .dwtag  DW_TAG_member
    4374                      .dwattr $C$DW$409, DW_AT_type(*$C$DW$T$59)
    4375                      .dwattr $C$DW$409, DW_AT_name("mediaGetPresentStateApp")
    4376                      .dwattr $C$DW$409, DW_AT_TI_symbol_name("_mediaGetPresentStateApp")
    4377                      .dwattr $C$DW$409, DW_AT_data_member_location[DW_OP_plus_uconst 0x18]
    4378                      .dwattr $C$DW$409, DW_AT_accessibility(DW_ACCESS_public)
    4379              $C$DW$410       .dwtag  DW_TAG_member
    4380                      .dwattr $C$DW$410, DW_AT_type(*$C$DW$T$59)
    4381                      .dwattr $C$DW$410, DW_AT_name("mediaInitApp")
    4382                      .dwattr $C$DW$410, DW_AT_TI_symbol_name("_mediaInitApp")
    4383                      .dwattr $C$DW$410, DW_AT_data_member_location[DW_OP_plus_uconst 0x1a]
    4384                      .dwattr $C$DW$410, DW_AT_accessibility(DW_ACCESS_public)
    4385              $C$DW$411       .dwtag  DW_TAG_member
    4386                      .dwattr $C$DW$411, DW_AT_type(*$C$DW$T$59)
    4387                      .dwattr $C$DW$411, DW_AT_name("mediaEjectApp")
    4388                      .dwattr $C$DW$411, DW_AT_TI_symbol_name("_mediaEjectApp")
    4389                      .dwattr $C$DW$411, DW_AT_data_member_location[DW_OP_plus_uconst 0x1c]
    4390                      .dwattr $C$DW$411, DW_AT_accessibility(DW_ACCESS_public)
    4391              $C$DW$412       .dwtag  DW_TAG_member
    4392                      .dwattr $C$DW$412, DW_AT_type(*$C$DW$T$63)
    4393                      .dwattr $C$DW$412, DW_AT_name("mediaLockUnitApp")
    4394                      .dwattr $C$DW$412, DW_AT_TI_symbol_name("_mediaLockUnitApp")
    4395                      .dwattr $C$DW$412, DW_AT_data_member_location[DW_OP_plus_uconst 0x1e]
    4396                      .dwattr $C$DW$412, DW_AT_accessibility(DW_ACCESS_public)
    4397              $C$DW$413       .dwtag  DW_TAG_member
    4398                      .dwattr $C$DW$413, DW_AT_type(*$C$DW$T$66)
    4399                      .dwattr $C$DW$413, DW_AT_name("getMediaSizeApp")
    4400                      .dwattr $C$DW$413, DW_AT_TI_symbol_name("_getMediaSizeApp")
    4401                      .dwattr $C$DW$413, DW_AT_data_member_location[DW_OP_plus_uconst 0x20]
    4402                      .dwattr $C$DW$413, DW_AT_accessibility(DW_ACCESS_public)
    4403                      .dwendtag $C$DW$T$67
    4404              
    4405              $C$DW$T$97      .dwtag  DW_TAG_typedef, DW_AT_name("CSL_AcInitStructApp")
    4406                      .dwattr $C$DW$T$97, DW_AT_type(*$C$DW$T$67)
    4407                      .dwattr $C$DW$T$97, DW_AT_language(DW_LANG_C)
    4408              $C$DW$T$98      .dwtag  DW_TAG_pointer_type
    4409                      .dwattr $C$DW$T$98, DW_AT_type(*$C$DW$T$97)
    4410                      .dwattr $C$DW$T$98, DW_AT_address_class(0x17)
    4411              $C$DW$T$99      .dwtag  DW_TAG_typedef, DW_AT_name("pAcAppClassHandle")
    4412                      .dwattr $C$DW$T$99, DW_AT_type(*$C$DW$T$98)
    4413                      .dwattr $C$DW$T$99, DW_AT_language(DW_LANG_C)
    4414              
    4415              $C$DW$T$69      .dwtag  DW_TAG_structure_type
    4416                      .dwattr $C$DW$T$69, DW_AT_name("CSL_AcLogicalUnit")
    4417                      .dwattr $C$DW$T$69, DW_AT_byte_size(0x3e)
    4418              $C$DW$414       .dwtag  DW_TAG_member
    4419                      .dwattr $C$DW$414, DW_AT_type(*$C$DW$T$68)
    4420                      .dwattr $C$DW$414, DW_AT_name("scsiInquiryData")
    4421                      .dwattr $C$DW$414, DW_AT_TI_symbol_name("_scsiInquiryData")
    4422                      .dwattr $C$DW$414, DW_AT_data_member_location[DW_OP_plus_uconst 0x0]
    4423                      .dwattr $C$DW$414, DW_AT_accessibility(DW_ACCESS_public)
    4424              $C$DW$415       .dwtag  DW_TAG_member
    4425                      .dwattr $C$DW$415, DW_AT_type(*$C$DW$T$64)
TMS320C55x Assembler PC v4.4.1 Fri Sep 07 02:27:33 2018

Tools Copyright (c) 1996-2012 Texas Instruments Incorporated
csl_audioClass.asm                                                   PAGE   97

    4426                      .dwattr $C$DW$415, DW_AT_name("mediaSize")
    4427                      .dwattr $C$DW$415, DW_AT_TI_symbol_name("_mediaSize")
    4428                      .dwattr $C$DW$415, DW_AT_data_member_location[DW_OP_plus_uconst 0x32]
    4429                      .dwattr $C$DW$415, DW_AT_accessibility(DW_ACCESS_public)
    4430              $C$DW$416       .dwtag  DW_TAG_member
    4431                      .dwattr $C$DW$416, DW_AT_type(*$C$DW$T$64)
    4432                      .dwattr $C$DW$416, DW_AT_name("currLba")
    4433                      .dwattr $C$DW$416, DW_AT_TI_symbol_name("_currLba")
    4434                      .dwattr $C$DW$416, DW_AT_data_member_location[DW_OP_plus_uconst 0x34]
    4435                      .dwattr $C$DW$416, DW_AT_accessibility(DW_ACCESS_public)
    4436              $C$DW$417       .dwtag  DW_TAG_member
    4437                      .dwattr $C$DW$417, DW_AT_type(*$C$DW$T$64)
    4438                      .dwattr $C$DW$417, DW_AT_name("lbaSize")
    4439                      .dwattr $C$DW$417, DW_AT_TI_symbol_name("_lbaSize")
    4440                      .dwattr $C$DW$417, DW_AT_data_member_location[DW_OP_plus_uconst 0x36]
    4441                      .dwattr $C$DW$417, DW_AT_accessibility(DW_ACCESS_public)
    4442              $C$DW$418       .dwtag  DW_TAG_member
    4443                      .dwattr $C$DW$418, DW_AT_type(*$C$DW$T$25)
    4444                      .dwattr $C$DW$418, DW_AT_name("removeable")
    4445                      .dwattr $C$DW$418, DW_AT_TI_symbol_name("_removeable")
    4446                      .dwattr $C$DW$418, DW_AT_data_member_location[DW_OP_plus_uconst 0x38]
    4447                      .dwattr $C$DW$418, DW_AT_accessibility(DW_ACCESS_public)
    4448              $C$DW$419       .dwtag  DW_TAG_member
    4449                      .dwattr $C$DW$419, DW_AT_type(*$C$DW$T$25)
    4450                      .dwattr $C$DW$419, DW_AT_name("mediaState")
    4451                      .dwattr $C$DW$419, DW_AT_TI_symbol_name("_mediaState")
    4452                      .dwattr $C$DW$419, DW_AT_data_member_location[DW_OP_plus_uconst 0x39]
    4453                      .dwattr $C$DW$419, DW_AT_accessibility(DW_ACCESS_public)
    4454              $C$DW$420       .dwtag  DW_TAG_member
    4455                      .dwattr $C$DW$420, DW_AT_type(*$C$DW$T$25)
    4456                      .dwattr $C$DW$420, DW_AT_name("readwrite")
    4457                      .dwattr $C$DW$420, DW_AT_TI_symbol_name("_readwrite")
    4458                      .dwattr $C$DW$420, DW_AT_data_member_location[DW_OP_plus_uconst 0x3a]
    4459                      .dwattr $C$DW$420, DW_AT_accessibility(DW_ACCESS_public)
    4460              $C$DW$421       .dwtag  DW_TAG_member
    4461                      .dwattr $C$DW$421, DW_AT_type(*$C$DW$T$25)
    4462                      .dwattr $C$DW$421, DW_AT_name("lbaCnt")
    4463                      .dwattr $C$DW$421, DW_AT_TI_symbol_name("_lbaCnt")
    4464                      .dwattr $C$DW$421, DW_AT_data_member_location[DW_OP_plus_uconst 0x3b]
    4465                      .dwattr $C$DW$421, DW_AT_accessibility(DW_ACCESS_public)
    4466              $C$DW$422       .dwtag  DW_TAG_member
    4467                      .dwattr $C$DW$422, DW_AT_type(*$C$DW$T$25)
    4468                      .dwattr $C$DW$422, DW_AT_name("verifyFlag")
    4469                      .dwattr $C$DW$422, DW_AT_TI_symbol_name("_verifyFlag")
    4470                      .dwattr $C$DW$422, DW_AT_data_member_location[DW_OP_plus_uconst 0x3c]
    4471                      .dwattr $C$DW$422, DW_AT_accessibility(DW_ACCESS_public)
    4472                      .dwendtag $C$DW$T$69
    4473              
    4474              $C$DW$T$70      .dwtag  DW_TAG_typedef, DW_AT_name("CSL_AcLogicalUnit")
    4475                      .dwattr $C$DW$T$70, DW_AT_type(*$C$DW$T$69)
    4476                      .dwattr $C$DW$T$70, DW_AT_language(DW_LANG_C)
    4477              
    4478              $C$DW$T$71      .dwtag  DW_TAG_array_type
    4479                      .dwattr $C$DW$T$71, DW_AT_type(*$C$DW$T$70)
    4480                      .dwattr $C$DW$T$71, DW_AT_language(DW_LANG_C)
TMS320C55x Assembler PC v4.4.1 Fri Sep 07 02:27:33 2018

Tools Copyright (c) 1996-2012 Texas Instruments Incorporated
csl_audioClass.asm                                                   PAGE   98

    4481                      .dwattr $C$DW$T$71, DW_AT_byte_size(0xf8)
    4482              $C$DW$423       .dwtag  DW_TAG_subrange_type
    4483                      .dwattr $C$DW$423, DW_AT_upper_bound(0x03)
    4484                      .dwendtag $C$DW$T$71
    4485              
    4486              
    4487              $C$DW$T$75      .dwtag  DW_TAG_structure_type
    4488                      .dwattr $C$DW$T$75, DW_AT_name("CSL_AcObject")
    4489                      .dwattr $C$DW$T$75, DW_AT_byte_size(0x16c)
    4490              $C$DW$424       .dwtag  DW_TAG_member
    4491                      .dwattr $C$DW$424, DW_AT_type(*$C$DW$T$55)
    4492                      .dwattr $C$DW$424, DW_AT_name("recordAudio")
    4493                      .dwattr $C$DW$424, DW_AT_TI_symbol_name("_recordAudio")
    4494                      .dwattr $C$DW$424, DW_AT_data_member_location[DW_OP_plus_uconst 0x0]
    4495                      .dwattr $C$DW$424, DW_AT_accessibility(DW_ACCESS_public)
    4496              $C$DW$425       .dwtag  DW_TAG_member
    4497                      .dwattr $C$DW$425, DW_AT_type(*$C$DW$T$55)
    4498                      .dwattr $C$DW$425, DW_AT_name("playAudio")
    4499                      .dwattr $C$DW$425, DW_AT_TI_symbol_name("_playAudio")
    4500                      .dwattr $C$DW$425, DW_AT_data_member_location[DW_OP_plus_uconst 0x2]
    4501                      .dwattr $C$DW$425, DW_AT_accessibility(DW_ACCESS_public)
    4502              $C$DW$426       .dwtag  DW_TAG_member
    4503                      .dwattr $C$DW$426, DW_AT_type(*$C$DW$T$57)
    4504                      .dwattr $C$DW$426, DW_AT_name("stopAudio")
    4505                      .dwattr $C$DW$426, DW_AT_TI_symbol_name("_stopAudio")
    4506                      .dwattr $C$DW$426, DW_AT_data_member_location[DW_OP_plus_uconst 0x4]
    4507                      .dwattr $C$DW$426, DW_AT_accessibility(DW_ACCESS_public)
    4508              $C$DW$427       .dwtag  DW_TAG_member
    4509                      .dwattr $C$DW$427, DW_AT_type(*$C$DW$T$59)
    4510                      .dwattr $C$DW$427, DW_AT_name("mediaGetPresentState")
    4511                      .dwattr $C$DW$427, DW_AT_TI_symbol_name("_mediaGetPresentState")
    4512                      .dwattr $C$DW$427, DW_AT_data_member_location[DW_OP_plus_uconst 0x6]
    4513                      .dwattr $C$DW$427, DW_AT_accessibility(DW_ACCESS_public)
    4514              $C$DW$428       .dwtag  DW_TAG_member
    4515                      .dwattr $C$DW$428, DW_AT_type(*$C$DW$T$59)
    4516                      .dwattr $C$DW$428, DW_AT_name("mediaInit")
    4517                      .dwattr $C$DW$428, DW_AT_TI_symbol_name("_mediaInit")
    4518                      .dwattr $C$DW$428, DW_AT_data_member_location[DW_OP_plus_uconst 0x8]
    4519                      .dwattr $C$DW$428, DW_AT_accessibility(DW_ACCESS_public)
    4520              $C$DW$429       .dwtag  DW_TAG_member
    4521                      .dwattr $C$DW$429, DW_AT_type(*$C$DW$T$59)
    4522                      .dwattr $C$DW$429, DW_AT_name("mediaEject")
    4523                      .dwattr $C$DW$429, DW_AT_TI_symbol_name("_mediaEject")
    4524                      .dwattr $C$DW$429, DW_AT_data_member_location[DW_OP_plus_uconst 0xa]
    4525                      .dwattr $C$DW$429, DW_AT_accessibility(DW_ACCESS_public)
    4526              $C$DW$430       .dwtag  DW_TAG_member
    4527                      .dwattr $C$DW$430, DW_AT_type(*$C$DW$T$63)
    4528                      .dwattr $C$DW$430, DW_AT_name("mediaLockUnit")
    4529                      .dwattr $C$DW$430, DW_AT_TI_symbol_name("_mediaLockUnit")
    4530                      .dwattr $C$DW$430, DW_AT_data_member_location[DW_OP_plus_uconst 0xc]
    4531                      .dwattr $C$DW$430, DW_AT_accessibility(DW_ACCESS_public)
    4532              $C$DW$431       .dwtag  DW_TAG_member
    4533                      .dwattr $C$DW$431, DW_AT_type(*$C$DW$T$66)
    4534                      .dwattr $C$DW$431, DW_AT_name("getMediaSize")
    4535                      .dwattr $C$DW$431, DW_AT_TI_symbol_name("_getMediaSize")
TMS320C55x Assembler PC v4.4.1 Fri Sep 07 02:27:33 2018

Tools Copyright (c) 1996-2012 Texas Instruments Incorporated
csl_audioClass.asm                                                   PAGE   99

    4536                      .dwattr $C$DW$431, DW_AT_data_member_location[DW_OP_plus_uconst 0xe]
    4537                      .dwattr $C$DW$431, DW_AT_accessibility(DW_ACCESS_public)
    4538              $C$DW$432       .dwtag  DW_TAG_member
    4539                      .dwattr $C$DW$432, DW_AT_type(*$C$DW$T$49)
    4540                      .dwattr $C$DW$432, DW_AT_name("lbaBuffer")
    4541                      .dwattr $C$DW$432, DW_AT_TI_symbol_name("_lbaBuffer")
    4542                      .dwattr $C$DW$432, DW_AT_data_member_location[DW_OP_plus_uconst 0x10]
    4543                      .dwattr $C$DW$432, DW_AT_accessibility(DW_ACCESS_public)
    4544              $C$DW$433       .dwtag  DW_TAG_member
    4545                      .dwattr $C$DW$433, DW_AT_type(*$C$DW$T$64)
    4546                      .dwattr $C$DW$433, DW_AT_name("cbwDataTransferLength")
    4547                      .dwattr $C$DW$433, DW_AT_TI_symbol_name("_cbwDataTransferLength")
    4548                      .dwattr $C$DW$433, DW_AT_data_member_location[DW_OP_plus_uconst 0x12]
    4549                      .dwattr $C$DW$433, DW_AT_accessibility(DW_ACCESS_public)
    4550              $C$DW$434       .dwtag  DW_TAG_member
    4551                      .dwattr $C$DW$434, DW_AT_type(*$C$DW$T$71)
    4552                      .dwattr $C$DW$434, DW_AT_name("lun")
    4553                      .dwattr $C$DW$434, DW_AT_TI_symbol_name("_lun")
    4554                      .dwattr $C$DW$434, DW_AT_data_member_location[DW_OP_plus_uconst 0x14]
    4555                      .dwattr $C$DW$434, DW_AT_accessibility(DW_ACCESS_public)
    4556              $C$DW$435       .dwtag  DW_TAG_member
    4557                      .dwattr $C$DW$435, DW_AT_type(*$C$DW$T$72)
    4558                      .dwattr $C$DW$435, DW_AT_name("senseData")
    4559                      .dwattr $C$DW$435, DW_AT_TI_symbol_name("_senseData")
    4560                      .dwattr $C$DW$435, DW_AT_data_member_location[DW_OP_plus_uconst 0x10c]
    4561                      .dwattr $C$DW$435, DW_AT_accessibility(DW_ACCESS_public)
    4562              $C$DW$436       .dwtag  DW_TAG_member
    4563                      .dwattr $C$DW$436, DW_AT_type(*$C$DW$T$25)
    4564                      .dwattr $C$DW$436, DW_AT_name("activityPresentFlag")
    4565                      .dwattr $C$DW$436, DW_AT_TI_symbol_name("_activityPresentFlag")
    4566                      .dwattr $C$DW$436, DW_AT_data_member_location[DW_OP_plus_uconst 0x11b]
    4567                      .dwattr $C$DW$436, DW_AT_accessibility(DW_ACCESS_public)
    4568              $C$DW$437       .dwtag  DW_TAG_member
    4569                      .dwattr $C$DW$437, DW_AT_type(*$C$DW$T$73)
    4570                      .dwattr $C$DW$437, DW_AT_name("csw")
    4571                      .dwattr $C$DW$437, DW_AT_TI_symbol_name("_csw")
    4572                      .dwattr $C$DW$437, DW_AT_data_member_location[DW_OP_plus_uconst 0x11c]
    4573                      .dwattr $C$DW$437, DW_AT_accessibility(DW_ACCESS_public)
    4574              $C$DW$438       .dwtag  DW_TAG_member
    4575                      .dwattr $C$DW$438, DW_AT_type(*$C$DW$T$30)
    4576                      .dwattr $C$DW$438, DW_AT_name("readCapacity")
    4577                      .dwattr $C$DW$438, DW_AT_TI_symbol_name("_readCapacity")
    4578                      .dwattr $C$DW$438, DW_AT_data_member_location[DW_OP_plus_uconst 0x124]
    4579                      .dwattr $C$DW$438, DW_AT_accessibility(DW_ACCESS_public)
    4580              $C$DW$439       .dwtag  DW_TAG_member
    4581                      .dwattr $C$DW$439, DW_AT_type(*$C$DW$T$74)
    4582                      .dwattr $C$DW$439, DW_AT_name("cbw")
    4583                      .dwattr $C$DW$439, DW_AT_TI_symbol_name("_cbw")
    4584                      .dwattr $C$DW$439, DW_AT_data_member_location[DW_OP_plus_uconst 0x12a]
    4585                      .dwattr $C$DW$439, DW_AT_accessibility(DW_ACCESS_public)
    4586              $C$DW$440       .dwtag  DW_TAG_member
    4587                      .dwattr $C$DW$440, DW_AT_type(*$C$DW$T$22)
    4588                      .dwattr $C$DW$440, DW_AT_name("isoInEpObj")
    4589                      .dwattr $C$DW$440, DW_AT_TI_symbol_name("_isoInEpObj")
    4590                      .dwattr $C$DW$440, DW_AT_data_member_location[DW_OP_plus_uconst 0x13c]
TMS320C55x Assembler PC v4.4.1 Fri Sep 07 02:27:33 2018

Tools Copyright (c) 1996-2012 Texas Instruments Incorporated
csl_audioClass.asm                                                   PAGE  100

    4591                      .dwattr $C$DW$440, DW_AT_accessibility(DW_ACCESS_public)
    4592              $C$DW$441       .dwtag  DW_TAG_member
    4593                      .dwattr $C$DW$441, DW_AT_type(*$C$DW$T$22)
    4594                      .dwattr $C$DW$441, DW_AT_name("isoOutEpObj")
    4595                      .dwattr $C$DW$441, DW_AT_TI_symbol_name("_isoOutEpObj")
    4596                      .dwattr $C$DW$441, DW_AT_data_member_location[DW_OP_plus_uconst 0x150]
    4597                      .dwattr $C$DW$441, DW_AT_accessibility(DW_ACCESS_public)
    4598              $C$DW$442       .dwtag  DW_TAG_member
    4599                      .dwattr $C$DW$442, DW_AT_type(*$C$DW$T$25)
    4600                      .dwattr $C$DW$442, DW_AT_name("noOfLun")
    4601                      .dwattr $C$DW$442, DW_AT_TI_symbol_name("_noOfLun")
    4602                      .dwattr $C$DW$442, DW_AT_data_member_location[DW_OP_plus_uconst 0x164]
    4603                      .dwattr $C$DW$442, DW_AT_accessibility(DW_ACCESS_public)
    4604              $C$DW$443       .dwtag  DW_TAG_member
    4605                      .dwattr $C$DW$443, DW_AT_type(*$C$DW$T$25)
    4606                      .dwattr $C$DW$443, DW_AT_name("mediaState")
    4607                      .dwattr $C$DW$443, DW_AT_TI_symbol_name("_mediaState")
    4608                      .dwattr $C$DW$443, DW_AT_data_member_location[DW_OP_plus_uconst 0x165]
    4609                      .dwattr $C$DW$443, DW_AT_accessibility(DW_ACCESS_public)
    4610              $C$DW$444       .dwtag  DW_TAG_member
    4611                      .dwattr $C$DW$444, DW_AT_type(*$C$DW$T$25)
    4612                      .dwattr $C$DW$444, DW_AT_name("playBackActive")
    4613                      .dwattr $C$DW$444, DW_AT_TI_symbol_name("_playBackActive")
    4614                      .dwattr $C$DW$444, DW_AT_data_member_location[DW_OP_plus_uconst 0x166]
    4615                      .dwattr $C$DW$444, DW_AT_accessibility(DW_ACCESS_public)
    4616              $C$DW$445       .dwtag  DW_TAG_member
    4617                      .dwattr $C$DW$445, DW_AT_type(*$C$DW$T$25)
    4618                      .dwattr $C$DW$445, DW_AT_name("mediaInitDone")
    4619                      .dwattr $C$DW$445, DW_AT_TI_symbol_name("_mediaInitDone")
    4620                      .dwattr $C$DW$445, DW_AT_data_member_location[DW_OP_plus_uconst 0x167]
    4621                      .dwattr $C$DW$445, DW_AT_accessibility(DW_ACCESS_public)
    4622              $C$DW$446       .dwtag  DW_TAG_member
    4623                      .dwattr $C$DW$446, DW_AT_type(*$C$DW$T$32)
    4624                      .dwattr $C$DW$446, DW_AT_name("tempBuffer")
    4625                      .dwattr $C$DW$446, DW_AT_TI_symbol_name("_tempBuffer")
    4626                      .dwattr $C$DW$446, DW_AT_data_member_location[DW_OP_plus_uconst 0x168]
    4627                      .dwattr $C$DW$446, DW_AT_accessibility(DW_ACCESS_public)
    4628                      .dwendtag $C$DW$T$75
    4629              
    4630              $C$DW$T$20      .dwtag  DW_TAG_typedef, DW_AT_name("CSL_AcObject")
    4631                      .dwattr $C$DW$T$20, DW_AT_type(*$C$DW$T$75)
    4632                      .dwattr $C$DW$T$20, DW_AT_language(DW_LANG_C)
    4633              $C$DW$T$100     .dwtag  DW_TAG_pointer_type
    4634                      .dwattr $C$DW$T$100, DW_AT_type(*$C$DW$T$20)
    4635                      .dwattr $C$DW$T$100, DW_AT_address_class(0x17)
    4636              
    4637              $C$DW$T$77      .dwtag  DW_TAG_structure_type
    4638                      .dwattr $C$DW$T$77, DW_AT_name("CSL_AcRequestStruct")
    4639                      .dwattr $C$DW$T$77, DW_AT_byte_size(0x04)
    4640              $C$DW$447       .dwtag  DW_TAG_member
    4641                      .dwattr $C$DW$447, DW_AT_type(*$C$DW$T$76)
    4642                      .dwattr $C$DW$447, DW_AT_name("request")
    4643                      .dwattr $C$DW$447, DW_AT_TI_symbol_name("_request")
    4644                      .dwattr $C$DW$447, DW_AT_data_member_location[DW_OP_plus_uconst 0x0]
    4645                      .dwattr $C$DW$447, DW_AT_accessibility(DW_ACCESS_public)
TMS320C55x Assembler PC v4.4.1 Fri Sep 07 02:27:33 2018

Tools Copyright (c) 1996-2012 Texas Instruments Incorporated
csl_audioClass.asm                                                   PAGE  101

    4646              $C$DW$448       .dwtag  DW_TAG_member
    4647                      .dwattr $C$DW$448, DW_AT_type(*$C$DW$T$47)
    4648                      .dwattr $C$DW$448, DW_AT_name("fpRequestHandler")
    4649                      .dwattr $C$DW$448, DW_AT_TI_symbol_name("_fpRequestHandler")
    4650                      .dwattr $C$DW$448, DW_AT_data_member_location[DW_OP_plus_uconst 0x2]
    4651                      .dwattr $C$DW$448, DW_AT_accessibility(DW_ACCESS_public)
    4652                      .dwendtag $C$DW$T$77
    4653              
    4654              $C$DW$T$41      .dwtag  DW_TAG_typedef, DW_AT_name("CSL_AcRequestStruct")
    4655                      .dwattr $C$DW$T$41, DW_AT_type(*$C$DW$T$77)
    4656                      .dwattr $C$DW$T$41, DW_AT_language(DW_LANG_C)
    4657              $C$DW$T$42      .dwtag  DW_TAG_pointer_type
    4658                      .dwattr $C$DW$T$42, DW_AT_type(*$C$DW$T$41)
    4659                      .dwattr $C$DW$T$42, DW_AT_address_class(0x17)
    4660              
    4661              $C$DW$T$79      .dwtag  DW_TAG_structure_type
    4662                      .dwattr $C$DW$T$79, DW_AT_name("CSL_UsbDataStruct")
    4663                      .dwattr $C$DW$T$79, DW_AT_byte_size(0x06)
    4664              $C$DW$449       .dwtag  DW_TAG_member
    4665                      .dwattr $C$DW$449, DW_AT_type(*$C$DW$T$25)
    4666                      .dwattr $C$DW$449, DW_AT_name("bytes")
    4667                      .dwattr $C$DW$449, DW_AT_TI_symbol_name("_bytes")
    4668                      .dwattr $C$DW$449, DW_AT_data_member_location[DW_OP_plus_uconst 0x0]
    4669                      .dwattr $C$DW$449, DW_AT_accessibility(DW_ACCESS_public)
    4670              $C$DW$450       .dwtag  DW_TAG_member
    4671                      .dwattr $C$DW$450, DW_AT_type(*$C$DW$T$49)
    4672                      .dwattr $C$DW$450, DW_AT_name("pBuffer")
    4673                      .dwattr $C$DW$450, DW_AT_TI_symbol_name("_pBuffer")
    4674                      .dwattr $C$DW$450, DW_AT_data_member_location[DW_OP_plus_uconst 0x2]
    4675                      .dwattr $C$DW$450, DW_AT_accessibility(DW_ACCESS_public)
    4676              $C$DW$451       .dwtag  DW_TAG_member
    4677                      .dwattr $C$DW$451, DW_AT_type(*$C$DW$T$78)
    4678                      .dwattr $C$DW$451, DW_AT_name("pNextBuffer")
    4679                      .dwattr $C$DW$451, DW_AT_TI_symbol_name("_pNextBuffer")
    4680                      .dwattr $C$DW$451, DW_AT_data_member_location[DW_OP_plus_uconst 0x4]
    4681                      .dwattr $C$DW$451, DW_AT_accessibility(DW_ACCESS_public)
    4682                      .dwendtag $C$DW$T$79
    4683              
    4684              $C$DW$T$37      .dwtag  DW_TAG_typedef, DW_AT_name("CSL_UsbDataStruct")
    4685                      .dwattr $C$DW$T$37, DW_AT_type(*$C$DW$T$79)
    4686                      .dwattr $C$DW$T$37, DW_AT_language(DW_LANG_C)
    4687              $C$DW$T$85      .dwtag  DW_TAG_pointer_type
    4688                      .dwattr $C$DW$T$85, DW_AT_type(*$C$DW$T$37)
    4689                      .dwattr $C$DW$T$85, DW_AT_address_class(0x17)
    4690              $C$DW$T$78      .dwtag  DW_TAG_pointer_type
    4691                      .dwattr $C$DW$T$78, DW_AT_type(*$C$DW$T$79)
    4692                      .dwattr $C$DW$T$78, DW_AT_address_class(0x17)
    4693              
    4694              $C$DW$T$86      .dwtag  DW_TAG_structure_type
    4695                      .dwattr $C$DW$T$86, DW_AT_name("CSL_UsbEpObj")
    4696                      .dwattr $C$DW$T$86, DW_AT_byte_size(0x14)
    4697              $C$DW$452       .dwtag  DW_TAG_member
    4698                      .dwattr $C$DW$452, DW_AT_type(*$C$DW$T$81)
    4699                      .dwattr $C$DW$452, DW_AT_name("epNum")
    4700                      .dwattr $C$DW$452, DW_AT_TI_symbol_name("_epNum")
TMS320C55x Assembler PC v4.4.1 Fri Sep 07 02:27:33 2018

Tools Copyright (c) 1996-2012 Texas Instruments Incorporated
csl_audioClass.asm                                                   PAGE  102

    4701                      .dwattr $C$DW$452, DW_AT_data_member_location[DW_OP_plus_uconst 0x0]
    4702                      .dwattr $C$DW$452, DW_AT_accessibility(DW_ACCESS_public)
    4703              $C$DW$453       .dwtag  DW_TAG_member
    4704                      .dwattr $C$DW$453, DW_AT_type(*$C$DW$T$83)
    4705                      .dwattr $C$DW$453, DW_AT_name("xferType")
    4706                      .dwattr $C$DW$453, DW_AT_TI_symbol_name("_xferType")
    4707                      .dwattr $C$DW$453, DW_AT_data_member_location[DW_OP_plus_uconst 0x1]
    4708                      .dwattr $C$DW$453, DW_AT_accessibility(DW_ACCESS_public)
    4709              $C$DW$454       .dwtag  DW_TAG_member
    4710                      .dwattr $C$DW$454, DW_AT_type(*$C$DW$T$25)
    4711                      .dwattr $C$DW$454, DW_AT_name("maxPktSiz")
    4712                      .dwattr $C$DW$454, DW_AT_TI_symbol_name("_maxPktSiz")
    4713                      .dwattr $C$DW$454, DW_AT_data_member_location[DW_OP_plus_uconst 0x2]
    4714                      .dwattr $C$DW$454, DW_AT_accessibility(DW_ACCESS_public)
    4715              $C$DW$455       .dwtag  DW_TAG_member
    4716                      .dwattr $C$DW$455, DW_AT_type(*$C$DW$T$25)
    4717                      .dwattr $C$DW$455, DW_AT_name("eventMask")
    4718                      .dwattr $C$DW$455, DW_AT_TI_symbol_name("_eventMask")
    4719                      .dwattr $C$DW$455, DW_AT_data_member_location[DW_OP_plus_uconst 0x3]
    4720                      .dwattr $C$DW$455, DW_AT_accessibility(DW_ACCESS_public)
    4721              $C$DW$456       .dwtag  DW_TAG_member
    4722                      .dwattr $C$DW$456, DW_AT_type(*$C$DW$T$84)
    4723                      .dwattr $C$DW$456, DW_AT_name("fxn")
    4724                      .dwattr $C$DW$456, DW_AT_TI_symbol_name("_fxn")
    4725                      .dwattr $C$DW$456, DW_AT_data_member_location[DW_OP_plus_uconst 0x4]
    4726                      .dwattr $C$DW$456, DW_AT_accessibility(DW_ACCESS_public)
    4727              $C$DW$457       .dwtag  DW_TAG_member
    4728                      .dwattr $C$DW$457, DW_AT_type(*$C$DW$T$25)
    4729                      .dwattr $C$DW$457, DW_AT_name("dataFlags")
    4730                      .dwattr $C$DW$457, DW_AT_TI_symbol_name("_dataFlags")
    4731                      .dwattr $C$DW$457, DW_AT_data_member_location[DW_OP_plus_uconst 0x6]
    4732                      .dwattr $C$DW$457, DW_AT_accessibility(DW_ACCESS_public)
    4733              $C$DW$458       .dwtag  DW_TAG_member
    4734                      .dwattr $C$DW$458, DW_AT_type(*$C$DW$T$25)
    4735                      .dwattr $C$DW$458, DW_AT_name("status")
    4736                      .dwattr $C$DW$458, DW_AT_TI_symbol_name("_status")
    4737                      .dwattr $C$DW$458, DW_AT_data_member_location[DW_OP_plus_uconst 0x7]
    4738                      .dwattr $C$DW$458, DW_AT_accessibility(DW_ACCESS_public)
    4739              $C$DW$459       .dwtag  DW_TAG_member
    4740                      .dwattr $C$DW$459, DW_AT_type(*$C$DW$T$25)
    4741                      .dwattr $C$DW$459, DW_AT_name("epDescRegSAddr")
    4742                      .dwattr $C$DW$459, DW_AT_TI_symbol_name("_epDescRegSAddr")
    4743                      .dwattr $C$DW$459, DW_AT_data_member_location[DW_OP_plus_uconst 0x8]
    4744                      .dwattr $C$DW$459, DW_AT_accessibility(DW_ACCESS_public)
    4745              $C$DW$460       .dwtag  DW_TAG_member
    4746                      .dwattr $C$DW$460, DW_AT_type(*$C$DW$T$25)
    4747                      .dwattr $C$DW$460, DW_AT_name("dmaRegSAddr")
    4748                      .dwattr $C$DW$460, DW_AT_TI_symbol_name("_dmaRegSAddr")
    4749                      .dwattr $C$DW$460, DW_AT_data_member_location[DW_OP_plus_uconst 0x9]
    4750                      .dwattr $C$DW$460, DW_AT_accessibility(DW_ACCESS_public)
    4751              $C$DW$461       .dwtag  DW_TAG_member
    4752                      .dwattr $C$DW$461, DW_AT_type(*$C$DW$T$25)
    4753                      .dwattr $C$DW$461, DW_AT_name("totByteCnt")
    4754                      .dwattr $C$DW$461, DW_AT_TI_symbol_name("_totByteCnt")
    4755                      .dwattr $C$DW$461, DW_AT_data_member_location[DW_OP_plus_uconst 0xa]
TMS320C55x Assembler PC v4.4.1 Fri Sep 07 02:27:33 2018

Tools Copyright (c) 1996-2012 Texas Instruments Incorporated
csl_audioClass.asm                                                   PAGE  103

    4756                      .dwattr $C$DW$461, DW_AT_accessibility(DW_ACCESS_public)
    4757              $C$DW$462       .dwtag  DW_TAG_member
    4758                      .dwattr $C$DW$462, DW_AT_type(*$C$DW$T$25)
    4759                      .dwattr $C$DW$462, DW_AT_name("byteInThisSeg")
    4760                      .dwattr $C$DW$462, DW_AT_TI_symbol_name("_byteInThisSeg")
    4761                      .dwattr $C$DW$462, DW_AT_data_member_location[DW_OP_plus_uconst 0xb]
    4762                      .dwattr $C$DW$462, DW_AT_accessibility(DW_ACCESS_public)
    4763              $C$DW$463       .dwtag  DW_TAG_member
    4764                      .dwattr $C$DW$463, DW_AT_type(*$C$DW$T$49)
    4765                      .dwattr $C$DW$463, DW_AT_name("xferBytCnt")
    4766                      .dwattr $C$DW$463, DW_AT_TI_symbol_name("_xferBytCnt")
    4767                      .dwattr $C$DW$463, DW_AT_data_member_location[DW_OP_plus_uconst 0xc]
    4768                      .dwattr $C$DW$463, DW_AT_accessibility(DW_ACCESS_public)
    4769              $C$DW$464       .dwtag  DW_TAG_member
    4770                      .dwattr $C$DW$464, DW_AT_type(*$C$DW$T$49)
    4771                      .dwattr $C$DW$464, DW_AT_name("pBuffer")
    4772                      .dwattr $C$DW$464, DW_AT_TI_symbol_name("_pBuffer")
    4773                      .dwattr $C$DW$464, DW_AT_data_member_location[DW_OP_plus_uconst 0xe]
    4774                      .dwattr $C$DW$464, DW_AT_accessibility(DW_ACCESS_public)
    4775              $C$DW$465       .dwtag  DW_TAG_member
    4776                      .dwattr $C$DW$465, DW_AT_type(*$C$DW$T$85)
    4777                      .dwattr $C$DW$465, DW_AT_name("pNextBuffer")
    4778                      .dwattr $C$DW$465, DW_AT_TI_symbol_name("_pNextBuffer")
    4779                      .dwattr $C$DW$465, DW_AT_data_member_location[DW_OP_plus_uconst 0x10]
    4780                      .dwattr $C$DW$465, DW_AT_accessibility(DW_ACCESS_public)
    4781              $C$DW$466       .dwtag  DW_TAG_member
    4782                      .dwattr $C$DW$466, DW_AT_type(*$C$DW$T$25)
    4783                      .dwattr $C$DW$466, DW_AT_name("eventFlag")
    4784                      .dwattr $C$DW$466, DW_AT_TI_symbol_name("_eventFlag")
    4785                      .dwattr $C$DW$466, DW_AT_data_member_location[DW_OP_plus_uconst 0x12]
    4786                      .dwattr $C$DW$466, DW_AT_accessibility(DW_ACCESS_public)
    4787                      .dwendtag $C$DW$T$86
    4788              
    4789              $C$DW$T$22      .dwtag  DW_TAG_typedef, DW_AT_name("CSL_UsbEpObj")
    4790                      .dwattr $C$DW$T$22, DW_AT_type(*$C$DW$T$86)
    4791                      .dwattr $C$DW$T$22, DW_AT_language(DW_LANG_C)
    4792              $C$DW$T$26      .dwtag  DW_TAG_pointer_type
    4793                      .dwattr $C$DW$T$26, DW_AT_type(*$C$DW$T$22)
    4794                      .dwattr $C$DW$T$26, DW_AT_address_class(0x17)
    4795              $C$DW$T$27      .dwtag  DW_TAG_typedef, DW_AT_name("pUsbEpHandle")
    4796                      .dwattr $C$DW$T$27, DW_AT_type(*$C$DW$T$26)
    4797                      .dwattr $C$DW$T$27, DW_AT_language(DW_LANG_C)
    4798              
    4799              $C$DW$T$28      .dwtag  DW_TAG_array_type
    4800                      .dwattr $C$DW$T$28, DW_AT_type(*$C$DW$T$27)
    4801                      .dwattr $C$DW$T$28, DW_AT_language(DW_LANG_C)
    4802                      .dwattr $C$DW$T$28, DW_AT_byte_size(0x0a)
    4803              $C$DW$467       .dwtag  DW_TAG_subrange_type
    4804                      .dwattr $C$DW$467, DW_AT_upper_bound(0x04)
    4805                      .dwendtag $C$DW$T$28
    4806              
    4807              $C$DW$T$101     .dwtag  DW_TAG_pointer_type
    4808                      .dwattr $C$DW$T$101, DW_AT_type(*$C$DW$T$27)
    4809                      .dwattr $C$DW$T$101, DW_AT_address_class(0x17)
    4810              
TMS320C55x Assembler PC v4.4.1 Fri Sep 07 02:27:33 2018

Tools Copyright (c) 1996-2012 Texas Instruments Incorporated
csl_audioClass.asm                                                   PAGE  104

    4811              $C$DW$T$87      .dwtag  DW_TAG_structure_type
    4812                      .dwattr $C$DW$T$87, DW_AT_name("CSL_UsbSetupStruct")
    4813                      .dwattr $C$DW$T$87, DW_AT_byte_size(0x06)
    4814              $C$DW$468       .dwtag  DW_TAG_member
    4815                      .dwattr $C$DW$468, DW_AT_type(*$C$DW$T$10)
    4816                      .dwattr $C$DW$468, DW_AT_name("newPacket")
    4817                      .dwattr $C$DW$468, DW_AT_TI_symbol_name("_newPacket")
    4818                      .dwattr $C$DW$468, DW_AT_data_member_location[DW_OP_plus_uconst 0x0]
    4819                      .dwattr $C$DW$468, DW_AT_accessibility(DW_ACCESS_public)
    4820              $C$DW$469       .dwtag  DW_TAG_member
    4821                      .dwattr $C$DW$469, DW_AT_type(*$C$DW$T$25)
    4822                      .dwattr $C$DW$469, DW_AT_name("bmRequestType")
    4823                      .dwattr $C$DW$469, DW_AT_TI_symbol_name("_bmRequestType")
    4824                      .dwattr $C$DW$469, DW_AT_data_member_location[DW_OP_plus_uconst 0x1]
    4825                      .dwattr $C$DW$469, DW_AT_accessibility(DW_ACCESS_public)
    4826              $C$DW$470       .dwtag  DW_TAG_member
    4827                      .dwattr $C$DW$470, DW_AT_type(*$C$DW$T$25)
    4828                      .dwattr $C$DW$470, DW_AT_name("bRequest")
    4829                      .dwattr $C$DW$470, DW_AT_TI_symbol_name("_bRequest")
    4830                      .dwattr $C$DW$470, DW_AT_data_member_location[DW_OP_plus_uconst 0x2]
    4831                      .dwattr $C$DW$470, DW_AT_accessibility(DW_ACCESS_public)
    4832              $C$DW$471       .dwtag  DW_TAG_member
    4833                      .dwattr $C$DW$471, DW_AT_type(*$C$DW$T$25)
    4834                      .dwattr $C$DW$471, DW_AT_name("wValue")
    4835                      .dwattr $C$DW$471, DW_AT_TI_symbol_name("_wValue")
    4836                      .dwattr $C$DW$471, DW_AT_data_member_location[DW_OP_plus_uconst 0x3]
    4837                      .dwattr $C$DW$471, DW_AT_accessibility(DW_ACCESS_public)
    4838              $C$DW$472       .dwtag  DW_TAG_member
    4839                      .dwattr $C$DW$472, DW_AT_type(*$C$DW$T$25)
    4840                      .dwattr $C$DW$472, DW_AT_name("wIndex")
    4841                      .dwattr $C$DW$472, DW_AT_TI_symbol_name("_wIndex")
    4842                      .dwattr $C$DW$472, DW_AT_data_member_location[DW_OP_plus_uconst 0x4]
    4843                      .dwattr $C$DW$472, DW_AT_accessibility(DW_ACCESS_public)
    4844              $C$DW$473       .dwtag  DW_TAG_member
    4845                      .dwattr $C$DW$473, DW_AT_type(*$C$DW$T$25)
    4846                      .dwattr $C$DW$473, DW_AT_name("wLength")
    4847                      .dwattr $C$DW$473, DW_AT_TI_symbol_name("_wLength")
    4848                      .dwattr $C$DW$473, DW_AT_data_member_location[DW_OP_plus_uconst 0x5]
    4849                      .dwattr $C$DW$473, DW_AT_accessibility(DW_ACCESS_public)
    4850                      .dwendtag $C$DW$T$87
    4851              
    4852              $C$DW$T$29      .dwtag  DW_TAG_typedef, DW_AT_name("CSL_UsbSetupStruct")
    4853                      .dwattr $C$DW$T$29, DW_AT_type(*$C$DW$T$87)
    4854                      .dwattr $C$DW$T$29, DW_AT_language(DW_LANG_C)
    4855              $C$DW$T$45      .dwtag  DW_TAG_pointer_type
    4856                      .dwattr $C$DW$T$45, DW_AT_type(*$C$DW$T$29)
    4857                      .dwattr $C$DW$T$45, DW_AT_address_class(0x17)
    4858              $C$DW$T$3       .dwtag  DW_TAG_pointer_type
    4859                      .dwattr $C$DW$T$3, DW_AT_address_class(0x17)
    4860              
    4861              $C$DW$T$50      .dwtag  DW_TAG_subroutine_type
    4862                      .dwattr $C$DW$T$50, DW_AT_language(DW_LANG_C)
    4863              $C$DW$T$51      .dwtag  DW_TAG_pointer_type
    4864                      .dwattr $C$DW$T$51, DW_AT_type(*$C$DW$T$50)
    4865                      .dwattr $C$DW$T$51, DW_AT_address_class(0x20)
TMS320C55x Assembler PC v4.4.1 Fri Sep 07 02:27:33 2018

Tools Copyright (c) 1996-2012 Texas Instruments Incorporated
csl_audioClass.asm                                                   PAGE  105

    4866              $C$DW$T$84      .dwtag  DW_TAG_typedef, DW_AT_name("CSL_USB_EVENT_ISR")
    4867                      .dwattr $C$DW$T$84, DW_AT_type(*$C$DW$T$51)
    4868                      .dwattr $C$DW$T$84, DW_AT_language(DW_LANG_C)
    4869              $C$DW$474       .dwtag  DW_TAG_TI_far_type
    4870              $C$DW$T$103     .dwtag  DW_TAG_const_type
    4871                      .dwattr $C$DW$T$103, DW_AT_type(*$C$DW$474)
    4872              $C$DW$T$104     .dwtag  DW_TAG_pointer_type
    4873                      .dwattr $C$DW$T$104, DW_AT_type(*$C$DW$T$103)
    4874                      .dwattr $C$DW$T$104, DW_AT_address_class(0x17)
    4875              $C$DW$T$4       .dwtag  DW_TAG_base_type
    4876                      .dwattr $C$DW$T$4, DW_AT_encoding(DW_ATE_boolean)
    4877                      .dwattr $C$DW$T$4, DW_AT_name("bool")
    4878                      .dwattr $C$DW$T$4, DW_AT_byte_size(0x01)
    4879              $C$DW$T$5       .dwtag  DW_TAG_base_type
    4880                      .dwattr $C$DW$T$5, DW_AT_encoding(DW_ATE_signed_char)
    4881                      .dwattr $C$DW$T$5, DW_AT_name("signed char")
    4882                      .dwattr $C$DW$T$5, DW_AT_byte_size(0x01)
    4883              $C$DW$T$6       .dwtag  DW_TAG_base_type
    4884                      .dwattr $C$DW$T$6, DW_AT_encoding(DW_ATE_unsigned_char)
    4885                      .dwattr $C$DW$T$6, DW_AT_name("unsigned char")
    4886                      .dwattr $C$DW$T$6, DW_AT_byte_size(0x01)
    4887              $C$DW$T$7       .dwtag  DW_TAG_base_type
    4888                      .dwattr $C$DW$T$7, DW_AT_encoding(DW_ATE_signed_char)
    4889                      .dwattr $C$DW$T$7, DW_AT_name("wchar_t")
    4890                      .dwattr $C$DW$T$7, DW_AT_byte_size(0x01)
    4891              $C$DW$T$8       .dwtag  DW_TAG_base_type
    4892                      .dwattr $C$DW$T$8, DW_AT_encoding(DW_ATE_signed)
    4893                      .dwattr $C$DW$T$8, DW_AT_name("short")
    4894                      .dwattr $C$DW$T$8, DW_AT_byte_size(0x01)
    4895              $C$DW$T$107     .dwtag  DW_TAG_typedef, DW_AT_name("Int16")
    4896                      .dwattr $C$DW$T$107, DW_AT_type(*$C$DW$T$8)
    4897                      .dwattr $C$DW$T$107, DW_AT_language(DW_LANG_C)
    4898              $C$DW$T$108     .dwtag  DW_TAG_typedef, DW_AT_name("CSL_Status")
    4899                      .dwattr $C$DW$T$108, DW_AT_type(*$C$DW$T$107)
    4900                      .dwattr $C$DW$T$108, DW_AT_language(DW_LANG_C)
    4901              $C$DW$T$111     .dwtag  DW_TAG_pointer_type
    4902                      .dwattr $C$DW$T$111, DW_AT_type(*$C$DW$T$108)
    4903                      .dwattr $C$DW$T$111, DW_AT_address_class(0x17)
    4904              $C$DW$T$9       .dwtag  DW_TAG_base_type
    4905                      .dwattr $C$DW$T$9, DW_AT_encoding(DW_ATE_unsigned)
    4906                      .dwattr $C$DW$T$9, DW_AT_name("unsigned short")
    4907                      .dwattr $C$DW$T$9, DW_AT_byte_size(0x01)
    4908              $C$DW$T$25      .dwtag  DW_TAG_typedef, DW_AT_name("Uint16")
    4909                      .dwattr $C$DW$T$25, DW_AT_type(*$C$DW$T$9)
    4910                      .dwattr $C$DW$T$25, DW_AT_language(DW_LANG_C)
    4911              $C$DW$T$129     .dwtag  DW_TAG_typedef, DW_AT_name("CSL_UsbEventMask")
    4912                      .dwattr $C$DW$T$129, DW_AT_type(*$C$DW$T$25)
    4913                      .dwattr $C$DW$T$129, DW_AT_language(DW_LANG_C)
    4914              $C$DW$T$115     .dwtag  DW_TAG_typedef, DW_AT_name("CSL_UsbIoFlags")
    4915                      .dwattr $C$DW$T$115, DW_AT_type(*$C$DW$T$25)
    4916                      .dwattr $C$DW$T$115, DW_AT_language(DW_LANG_C)
    4917              $C$DW$T$76      .dwtag  DW_TAG_typedef, DW_AT_name("WORD")
    4918                      .dwattr $C$DW$T$76, DW_AT_type(*$C$DW$T$25)
    4919                      .dwattr $C$DW$T$76, DW_AT_language(DW_LANG_C)
    4920              
TMS320C55x Assembler PC v4.4.1 Fri Sep 07 02:27:33 2018

Tools Copyright (c) 1996-2012 Texas Instruments Incorporated
csl_audioClass.asm                                                   PAGE  106

    4921              $C$DW$T$30      .dwtag  DW_TAG_array_type
    4922                      .dwattr $C$DW$T$30, DW_AT_type(*$C$DW$T$25)
    4923                      .dwattr $C$DW$T$30, DW_AT_language(DW_LANG_C)
    4924                      .dwattr $C$DW$T$30, DW_AT_byte_size(0x06)
    4925              $C$DW$475       .dwtag  DW_TAG_subrange_type
    4926                      .dwattr $C$DW$475, DW_AT_upper_bound(0x05)
    4927                      .dwendtag $C$DW$T$30
    4928              
    4929              
    4930              $C$DW$T$31      .dwtag  DW_TAG_array_type
    4931                      .dwattr $C$DW$T$31, DW_AT_type(*$C$DW$T$25)
    4932                      .dwattr $C$DW$T$31, DW_AT_language(DW_LANG_C)
    4933                      .dwattr $C$DW$T$31, DW_AT_byte_size(0x0c)
    4934              $C$DW$476       .dwtag  DW_TAG_subrange_type
    4935                      .dwattr $C$DW$476, DW_AT_upper_bound(0x0b)
    4936                      .dwendtag $C$DW$T$31
    4937              
    4938              
    4939              $C$DW$T$32      .dwtag  DW_TAG_array_type
    4940                      .dwattr $C$DW$T$32, DW_AT_type(*$C$DW$T$25)
    4941                      .dwattr $C$DW$T$32, DW_AT_language(DW_LANG_C)
    4942                      .dwattr $C$DW$T$32, DW_AT_byte_size(0x04)
    4943              $C$DW$477       .dwtag  DW_TAG_subrange_type
    4944                      .dwattr $C$DW$477, DW_AT_upper_bound(0x03)
    4945                      .dwendtag $C$DW$T$32
    4946              
    4947              
    4948              $C$DW$T$33      .dwtag  DW_TAG_array_type
    4949                      .dwattr $C$DW$T$33, DW_AT_type(*$C$DW$T$25)
    4950                      .dwattr $C$DW$T$33, DW_AT_language(DW_LANG_C)
    4951                      .dwattr $C$DW$T$33, DW_AT_byte_size(0x3f)
    4952              $C$DW$478       .dwtag  DW_TAG_subrange_type
    4953                      .dwattr $C$DW$478, DW_AT_upper_bound(0x3e)
    4954                      .dwendtag $C$DW$T$33
    4955              
    4956              
    4957              $C$DW$T$34      .dwtag  DW_TAG_array_type
    4958                      .dwattr $C$DW$T$34, DW_AT_type(*$C$DW$T$25)
    4959                      .dwattr $C$DW$T$34, DW_AT_language(DW_LANG_C)
    4960                      .dwattr $C$DW$T$34, DW_AT_byte_size(0x14)
    4961              $C$DW$479       .dwtag  DW_TAG_subrange_type
    4962                      .dwattr $C$DW$479, DW_AT_upper_bound(0x13)
    4963                      .dwendtag $C$DW$T$34
    4964              
    4965              
    4966              $C$DW$T$35      .dwtag  DW_TAG_array_type
    4967                      .dwattr $C$DW$T$35, DW_AT_type(*$C$DW$T$25)
    4968                      .dwattr $C$DW$T$35, DW_AT_language(DW_LANG_C)
    4969                      .dwattr $C$DW$T$35, DW_AT_byte_size(0x7c)
    4970              $C$DW$480       .dwtag  DW_TAG_subrange_type
    4971                      .dwattr $C$DW$480, DW_AT_upper_bound(0x7b)
    4972                      .dwendtag $C$DW$T$35
    4973              
    4974              
    4975              $C$DW$T$36      .dwtag  DW_TAG_array_type
TMS320C55x Assembler PC v4.4.1 Fri Sep 07 02:27:33 2018

Tools Copyright (c) 1996-2012 Texas Instruments Incorporated
csl_audioClass.asm                                                   PAGE  107

    4976                      .dwattr $C$DW$T$36, DW_AT_type(*$C$DW$T$25)
    4977                      .dwattr $C$DW$T$36, DW_AT_language(DW_LANG_C)
    4978                      .dwattr $C$DW$T$36, DW_AT_byte_size(0x05)
    4979              $C$DW$481       .dwtag  DW_TAG_subrange_type
    4980                      .dwattr $C$DW$481, DW_AT_upper_bound(0x04)
    4981                      .dwendtag $C$DW$T$36
    4982              
    4983              $C$DW$T$49      .dwtag  DW_TAG_pointer_type
    4984                      .dwattr $C$DW$T$49, DW_AT_type(*$C$DW$T$25)
    4985                      .dwattr $C$DW$T$49, DW_AT_address_class(0x17)
    4986              
    4987              $C$DW$T$68      .dwtag  DW_TAG_array_type
    4988                      .dwattr $C$DW$T$68, DW_AT_type(*$C$DW$T$25)
    4989                      .dwattr $C$DW$T$68, DW_AT_language(DW_LANG_C)
    4990                      .dwattr $C$DW$T$68, DW_AT_byte_size(0x32)
    4991              $C$DW$482       .dwtag  DW_TAG_subrange_type
    4992                      .dwattr $C$DW$482, DW_AT_upper_bound(0x31)
    4993                      .dwendtag $C$DW$T$68
    4994              
    4995              
    4996              $C$DW$T$72      .dwtag  DW_TAG_array_type
    4997                      .dwattr $C$DW$T$72, DW_AT_type(*$C$DW$T$25)
    4998                      .dwattr $C$DW$T$72, DW_AT_language(DW_LANG_C)
    4999                      .dwattr $C$DW$T$72, DW_AT_byte_size(0x0f)
    5000              $C$DW$483       .dwtag  DW_TAG_subrange_type
    5001                      .dwattr $C$DW$483, DW_AT_upper_bound(0x0e)
    5002                      .dwendtag $C$DW$T$72
    5003              
    5004              
    5005              $C$DW$T$73      .dwtag  DW_TAG_array_type
    5006                      .dwattr $C$DW$T$73, DW_AT_type(*$C$DW$T$25)
    5007                      .dwattr $C$DW$T$73, DW_AT_language(DW_LANG_C)
    5008                      .dwattr $C$DW$T$73, DW_AT_byte_size(0x08)
    5009              $C$DW$484       .dwtag  DW_TAG_subrange_type
    5010                      .dwattr $C$DW$484, DW_AT_upper_bound(0x07)
    5011                      .dwendtag $C$DW$T$73
    5012              
    5013              
    5014              $C$DW$T$74      .dwtag  DW_TAG_array_type
    5015                      .dwattr $C$DW$T$74, DW_AT_type(*$C$DW$T$25)
    5016                      .dwattr $C$DW$T$74, DW_AT_language(DW_LANG_C)
    5017                      .dwattr $C$DW$T$74, DW_AT_byte_size(0x11)
    5018              $C$DW$485       .dwtag  DW_TAG_subrange_type
    5019                      .dwattr $C$DW$485, DW_AT_upper_bound(0x10)
    5020                      .dwendtag $C$DW$T$74
    5021              
    5022              
    5023              $C$DW$T$140     .dwtag  DW_TAG_array_type
    5024                      .dwattr $C$DW$T$140, DW_AT_type(*$C$DW$T$25)
    5025                      .dwattr $C$DW$T$140, DW_AT_language(DW_LANG_C)
    5026                      .dwattr $C$DW$T$140, DW_AT_byte_size(0x42)
    5027              $C$DW$486       .dwtag  DW_TAG_subrange_type
    5028                      .dwattr $C$DW$486, DW_AT_upper_bound(0x41)
    5029                      .dwendtag $C$DW$T$140
    5030              
TMS320C55x Assembler PC v4.4.1 Fri Sep 07 02:27:33 2018

Tools Copyright (c) 1996-2012 Texas Instruments Incorporated
csl_audioClass.asm                                                   PAGE  108

    5031              $C$DW$T$10      .dwtag  DW_TAG_base_type
    5032                      .dwattr $C$DW$T$10, DW_AT_encoding(DW_ATE_signed)
    5033                      .dwattr $C$DW$T$10, DW_AT_name("int")
    5034                      .dwattr $C$DW$T$10, DW_AT_byte_size(0x01)
    5035              $C$DW$T$112     .dwtag  DW_TAG_typedef, DW_AT_name("Bool")
    5036                      .dwattr $C$DW$T$112, DW_AT_type(*$C$DW$T$10)
    5037                      .dwattr $C$DW$T$112, DW_AT_language(DW_LANG_C)
    5038              $C$DW$T$11      .dwtag  DW_TAG_base_type
    5039                      .dwattr $C$DW$T$11, DW_AT_encoding(DW_ATE_unsigned)
    5040                      .dwattr $C$DW$T$11, DW_AT_name("unsigned int")
    5041                      .dwattr $C$DW$T$11, DW_AT_byte_size(0x01)
    5042              $C$DW$T$105     .dwtag  DW_TAG_typedef, DW_AT_name("size_t")
    5043                      .dwattr $C$DW$T$105, DW_AT_type(*$C$DW$T$11)
    5044                      .dwattr $C$DW$T$105, DW_AT_language(DW_LANG_C)
    5045              $C$DW$T$12      .dwtag  DW_TAG_base_type
    5046                      .dwattr $C$DW$T$12, DW_AT_encoding(DW_ATE_signed)
    5047                      .dwattr $C$DW$T$12, DW_AT_name("long")
    5048                      .dwattr $C$DW$T$12, DW_AT_byte_size(0x02)
    5049              $C$DW$T$13      .dwtag  DW_TAG_base_type
    5050                      .dwattr $C$DW$T$13, DW_AT_encoding(DW_ATE_unsigned)
    5051                      .dwattr $C$DW$T$13, DW_AT_name("unsigned long")
    5052                      .dwattr $C$DW$T$13, DW_AT_byte_size(0x02)
    5053              $C$DW$T$64      .dwtag  DW_TAG_typedef, DW_AT_name("Uint32")
    5054                      .dwattr $C$DW$T$64, DW_AT_type(*$C$DW$T$13)
    5055                      .dwattr $C$DW$T$64, DW_AT_language(DW_LANG_C)
    5056              
    5057              $C$DW$T$65      .dwtag  DW_TAG_subroutine_type
    5058                      .dwattr $C$DW$T$65, DW_AT_type(*$C$DW$T$64)
    5059                      .dwattr $C$DW$T$65, DW_AT_language(DW_LANG_C)
    5060              $C$DW$487       .dwtag  DW_TAG_formal_parameter
    5061                      .dwattr $C$DW$487, DW_AT_type(*$C$DW$T$25)
    5062                      .dwendtag $C$DW$T$65
    5063              
    5064              $C$DW$T$66      .dwtag  DW_TAG_pointer_type
    5065                      .dwattr $C$DW$T$66, DW_AT_type(*$C$DW$T$65)
    5066                      .dwattr $C$DW$T$66, DW_AT_address_class(0x20)
    5067              $C$DW$T$14      .dwtag  DW_TAG_base_type
    5068                      .dwattr $C$DW$T$14, DW_AT_encoding(DW_ATE_signed)
    5069                      .dwattr $C$DW$T$14, DW_AT_name("long long")
    5070                      .dwattr $C$DW$T$14, DW_AT_byte_size(0x04)
    5071                      .dwattr $C$DW$T$14, DW_AT_bit_size(0x28)
    5072                      .dwattr $C$DW$T$14, DW_AT_bit_offset(0x18)
    5073              $C$DW$T$15      .dwtag  DW_TAG_base_type
    5074                      .dwattr $C$DW$T$15, DW_AT_encoding(DW_ATE_unsigned)
    5075                      .dwattr $C$DW$T$15, DW_AT_name("unsigned long long")
    5076                      .dwattr $C$DW$T$15, DW_AT_byte_size(0x04)
    5077                      .dwattr $C$DW$T$15, DW_AT_bit_size(0x28)
    5078                      .dwattr $C$DW$T$15, DW_AT_bit_offset(0x18)
    5079              $C$DW$T$16      .dwtag  DW_TAG_base_type
    5080                      .dwattr $C$DW$T$16, DW_AT_encoding(DW_ATE_float)
    5081                      .dwattr $C$DW$T$16, DW_AT_name("float")
    5082                      .dwattr $C$DW$T$16, DW_AT_byte_size(0x02)
    5083              $C$DW$T$17      .dwtag  DW_TAG_base_type
    5084                      .dwattr $C$DW$T$17, DW_AT_encoding(DW_ATE_float)
    5085                      .dwattr $C$DW$T$17, DW_AT_name("double")
TMS320C55x Assembler PC v4.4.1 Fri Sep 07 02:27:33 2018

Tools Copyright (c) 1996-2012 Texas Instruments Incorporated
csl_audioClass.asm                                                   PAGE  109

    5086                      .dwattr $C$DW$T$17, DW_AT_byte_size(0x02)
    5087              $C$DW$T$18      .dwtag  DW_TAG_base_type
    5088                      .dwattr $C$DW$T$18, DW_AT_encoding(DW_ATE_float)
    5089                      .dwattr $C$DW$T$18, DW_AT_name("long double")
    5090                      .dwattr $C$DW$T$18, DW_AT_byte_size(0x02)
    5091              $C$DW$T$38      .dwtag  DW_TAG_base_type
    5092                      .dwattr $C$DW$T$38, DW_AT_encoding(DW_ATE_signed_char)
    5093                      .dwattr $C$DW$T$38, DW_AT_name("signed char")
    5094                      .dwattr $C$DW$T$38, DW_AT_byte_size(0x01)
    5095              $C$DW$T$39      .dwtag  DW_TAG_pointer_type
    5096                      .dwattr $C$DW$T$39, DW_AT_type(*$C$DW$T$38)
    5097                      .dwattr $C$DW$T$39, DW_AT_address_class(0x17)
    5098              $C$DW$T$40      .dwtag  DW_TAG_pointer_type
    5099                      .dwattr $C$DW$T$40, DW_AT_type(*$C$DW$T$39)
    5100                      .dwattr $C$DW$T$40, DW_AT_address_class(0x17)
    5101              $C$DW$488       .dwtag  DW_TAG_TI_far_type
    5102                      .dwattr $C$DW$488, DW_AT_type(*$C$DW$T$38)
    5103              $C$DW$T$142     .dwtag  DW_TAG_const_type
    5104                      .dwattr $C$DW$T$142, DW_AT_type(*$C$DW$488)
    5105              $C$DW$T$143     .dwtag  DW_TAG_pointer_type
    5106                      .dwattr $C$DW$T$143, DW_AT_type(*$C$DW$T$142)
    5107                      .dwattr $C$DW$T$143, DW_AT_address_class(0x17)
    5108                      .dwattr $C$DW$CU, DW_AT_language(DW_LANG_C)
    5109              
    5110              ;***************************************************************
    5111              ;* DWARF CIE ENTRIES                                           *
    5112              ;***************************************************************
    5113              
    5114              $C$DW$CIE       .dwcie 91
    5115                      .dwcfi  cfa_register, 36
    5116                      .dwcfi  cfa_offset, 0
    5117                      .dwcfi  undefined, 0
    5118                      .dwcfi  undefined, 1
    5119                      .dwcfi  undefined, 2
    5120                      .dwcfi  undefined, 3
    5121                      .dwcfi  undefined, 4
    5122                      .dwcfi  undefined, 5
    5123                      .dwcfi  undefined, 6
    5124                      .dwcfi  undefined, 7
    5125                      .dwcfi  undefined, 8
    5126                      .dwcfi  undefined, 9
    5127                      .dwcfi  undefined, 10
    5128                      .dwcfi  undefined, 11
    5129                      .dwcfi  undefined, 12
    5130                      .dwcfi  undefined, 13
    5131                      .dwcfi  same_value, 14
    5132                      .dwcfi  same_value, 15
    5133                      .dwcfi  undefined, 16
    5134                      .dwcfi  undefined, 17
    5135                      .dwcfi  undefined, 18
    5136                      .dwcfi  undefined, 19
    5137                      .dwcfi  undefined, 20
    5138                      .dwcfi  undefined, 21
    5139                      .dwcfi  undefined, 22
    5140                      .dwcfi  undefined, 23
TMS320C55x Assembler PC v4.4.1 Fri Sep 07 02:27:33 2018

Tools Copyright (c) 1996-2012 Texas Instruments Incorporated
csl_audioClass.asm                                                   PAGE  110

    5141                      .dwcfi  undefined, 24
    5142                      .dwcfi  undefined, 25
    5143                      .dwcfi  same_value, 26
    5144                      .dwcfi  same_value, 27
    5145                      .dwcfi  same_value, 28
    5146                      .dwcfi  same_value, 29
    5147                      .dwcfi  same_value, 30
    5148                      .dwcfi  same_value, 31
    5149                      .dwcfi  undefined, 32
    5150                      .dwcfi  undefined, 33
    5151                      .dwcfi  undefined, 34
    5152                      .dwcfi  undefined, 35
    5153                      .dwcfi  undefined, 36
    5154                      .dwcfi  undefined, 37
    5155                      .dwcfi  undefined, 38
    5156                      .dwcfi  undefined, 39
    5157                      .dwcfi  undefined, 40
    5158                      .dwcfi  undefined, 41
    5159                      .dwcfi  undefined, 42
    5160                      .dwcfi  undefined, 43
    5161                      .dwcfi  undefined, 44
    5162                      .dwcfi  undefined, 45
    5163                      .dwcfi  undefined, 46
    5164                      .dwcfi  undefined, 47
    5165                      .dwcfi  undefined, 48
    5166                      .dwcfi  undefined, 49
    5167                      .dwcfi  undefined, 50
    5168                      .dwcfi  undefined, 51
    5169                      .dwcfi  undefined, 52
    5170                      .dwcfi  undefined, 53
    5171                      .dwcfi  undefined, 54
    5172                      .dwcfi  undefined, 55
    5173                      .dwcfi  undefined, 56
    5174                      .dwcfi  undefined, 57
    5175                      .dwcfi  undefined, 58
    5176                      .dwcfi  undefined, 59
    5177                      .dwcfi  undefined, 60
    5178                      .dwcfi  undefined, 61
    5179                      .dwcfi  undefined, 62
    5180                      .dwcfi  undefined, 63
    5181                      .dwcfi  undefined, 64
    5182                      .dwcfi  undefined, 65
    5183                      .dwcfi  undefined, 66
    5184                      .dwcfi  undefined, 67
    5185                      .dwcfi  undefined, 68
    5186                      .dwcfi  undefined, 69
    5187                      .dwcfi  undefined, 70
    5188                      .dwcfi  undefined, 71
    5189                      .dwcfi  undefined, 72
    5190                      .dwcfi  undefined, 73
    5191                      .dwcfi  undefined, 74
    5192                      .dwcfi  undefined, 75
    5193                      .dwcfi  undefined, 76
    5194                      .dwcfi  undefined, 77
    5195                      .dwcfi  undefined, 78
TMS320C55x Assembler PC v4.4.1 Fri Sep 07 02:27:33 2018

Tools Copyright (c) 1996-2012 Texas Instruments Incorporated
csl_audioClass.asm                                                   PAGE  111

    5196                      .dwcfi  undefined, 79
    5197                      .dwcfi  undefined, 80
    5198                      .dwcfi  undefined, 81
    5199                      .dwcfi  undefined, 82
    5200                      .dwcfi  undefined, 83
    5201                      .dwcfi  undefined, 84
    5202                      .dwcfi  undefined, 85
    5203                      .dwcfi  undefined, 86
    5204                      .dwcfi  undefined, 87
    5205                      .dwcfi  undefined, 88
    5206                      .dwcfi  undefined, 89
    5207                      .dwcfi  undefined, 90
    5208                      .dwcfi  undefined, 91
    5209                      .dwendentry
    5210              
    5211              ;***************************************************************
    5212              ;* DWARF REGISTER MAP                                          *
    5213              ;***************************************************************
    5214              
    5215              $C$DW$489       .dwtag  DW_TAG_TI_assign_register, DW_AT_name("AC0")
    5216                      .dwattr $C$DW$489, DW_AT_location[DW_OP_reg0]
    5217              $C$DW$490       .dwtag  DW_TAG_TI_assign_register, DW_AT_name("AC0")
    5218                      .dwattr $C$DW$490, DW_AT_location[DW_OP_reg1]
    5219              $C$DW$491       .dwtag  DW_TAG_TI_assign_register, DW_AT_name("AC0_G")
    5220                      .dwattr $C$DW$491, DW_AT_location[DW_OP_reg2]
    5221              $C$DW$492       .dwtag  DW_TAG_TI_assign_register, DW_AT_name("AC1")
    5222                      .dwattr $C$DW$492, DW_AT_location[DW_OP_reg3]
    5223              $C$DW$493       .dwtag  DW_TAG_TI_assign_register, DW_AT_name("AC1")
    5224                      .dwattr $C$DW$493, DW_AT_location[DW_OP_reg4]
    5225              $C$DW$494       .dwtag  DW_TAG_TI_assign_register, DW_AT_name("AC1_G")
    5226                      .dwattr $C$DW$494, DW_AT_location[DW_OP_reg5]
    5227              $C$DW$495       .dwtag  DW_TAG_TI_assign_register, DW_AT_name("AC2")
    5228                      .dwattr $C$DW$495, DW_AT_location[DW_OP_reg6]
    5229              $C$DW$496       .dwtag  DW_TAG_TI_assign_register, DW_AT_name("AC2")
    5230                      .dwattr $C$DW$496, DW_AT_location[DW_OP_reg7]
    5231              $C$DW$497       .dwtag  DW_TAG_TI_assign_register, DW_AT_name("AC2_G")
    5232                      .dwattr $C$DW$497, DW_AT_location[DW_OP_reg8]
    5233              $C$DW$498       .dwtag  DW_TAG_TI_assign_register, DW_AT_name("AC3")
    5234                      .dwattr $C$DW$498, DW_AT_location[DW_OP_reg9]
    5235              $C$DW$499       .dwtag  DW_TAG_TI_assign_register, DW_AT_name("AC3")
    5236                      .dwattr $C$DW$499, DW_AT_location[DW_OP_reg10]
    5237              $C$DW$500       .dwtag  DW_TAG_TI_assign_register, DW_AT_name("AC3_G")
    5238                      .dwattr $C$DW$500, DW_AT_location[DW_OP_reg11]
    5239              $C$DW$501       .dwtag  DW_TAG_TI_assign_register, DW_AT_name("T0")
    5240                      .dwattr $C$DW$501, DW_AT_location[DW_OP_reg12]
    5241              $C$DW$502       .dwtag  DW_TAG_TI_assign_register, DW_AT_name("T1")
    5242                      .dwattr $C$DW$502, DW_AT_location[DW_OP_reg13]
    5243              $C$DW$503       .dwtag  DW_TAG_TI_assign_register, DW_AT_name("T2")
    5244                      .dwattr $C$DW$503, DW_AT_location[DW_OP_reg14]
    5245              $C$DW$504       .dwtag  DW_TAG_TI_assign_register, DW_AT_name("T3")
    5246                      .dwattr $C$DW$504, DW_AT_location[DW_OP_reg15]
    5247              $C$DW$505       .dwtag  DW_TAG_TI_assign_register, DW_AT_name("AR0")
    5248                      .dwattr $C$DW$505, DW_AT_location[DW_OP_reg16]
    5249              $C$DW$506       .dwtag  DW_TAG_TI_assign_register, DW_AT_name("XAR0")
    5250                      .dwattr $C$DW$506, DW_AT_location[DW_OP_reg17]
TMS320C55x Assembler PC v4.4.1 Fri Sep 07 02:27:33 2018

Tools Copyright (c) 1996-2012 Texas Instruments Incorporated
csl_audioClass.asm                                                   PAGE  112

    5251              $C$DW$507       .dwtag  DW_TAG_TI_assign_register, DW_AT_name("AR1")
    5252                      .dwattr $C$DW$507, DW_AT_location[DW_OP_reg18]
    5253              $C$DW$508       .dwtag  DW_TAG_TI_assign_register, DW_AT_name("XAR1")
    5254                      .dwattr $C$DW$508, DW_AT_location[DW_OP_reg19]
    5255              $C$DW$509       .dwtag  DW_TAG_TI_assign_register, DW_AT_name("AR2")
    5256                      .dwattr $C$DW$509, DW_AT_location[DW_OP_reg20]
    5257              $C$DW$510       .dwtag  DW_TAG_TI_assign_register, DW_AT_name("XAR2")
    5258                      .dwattr $C$DW$510, DW_AT_location[DW_OP_reg21]
    5259              $C$DW$511       .dwtag  DW_TAG_TI_assign_register, DW_AT_name("AR3")
    5260                      .dwattr $C$DW$511, DW_AT_location[DW_OP_reg22]
    5261              $C$DW$512       .dwtag  DW_TAG_TI_assign_register, DW_AT_name("XAR3")
    5262                      .dwattr $C$DW$512, DW_AT_location[DW_OP_reg23]
    5263              $C$DW$513       .dwtag  DW_TAG_TI_assign_register, DW_AT_name("AR4")
    5264                      .dwattr $C$DW$513, DW_AT_location[DW_OP_reg24]
    5265              $C$DW$514       .dwtag  DW_TAG_TI_assign_register, DW_AT_name("XAR4")
    5266                      .dwattr $C$DW$514, DW_AT_location[DW_OP_reg25]
    5267              $C$DW$515       .dwtag  DW_TAG_TI_assign_register, DW_AT_name("AR5")
    5268                      .dwattr $C$DW$515, DW_AT_location[DW_OP_reg26]
    5269              $C$DW$516       .dwtag  DW_TAG_TI_assign_register, DW_AT_name("XAR5")
    5270                      .dwattr $C$DW$516, DW_AT_location[DW_OP_reg27]
    5271              $C$DW$517       .dwtag  DW_TAG_TI_assign_register, DW_AT_name("AR6")
    5272                      .dwattr $C$DW$517, DW_AT_location[DW_OP_reg28]
    5273              $C$DW$518       .dwtag  DW_TAG_TI_assign_register, DW_AT_name("XAR6")
    5274                      .dwattr $C$DW$518, DW_AT_location[DW_OP_reg29]
    5275              $C$DW$519       .dwtag  DW_TAG_TI_assign_register, DW_AT_name("AR7")
    5276                      .dwattr $C$DW$519, DW_AT_location[DW_OP_reg30]
    5277              $C$DW$520       .dwtag  DW_TAG_TI_assign_register, DW_AT_name("XAR7")
    5278                      .dwattr $C$DW$520, DW_AT_location[DW_OP_reg31]
    5279              $C$DW$521       .dwtag  DW_TAG_TI_assign_register, DW_AT_name("FP")
    5280                      .dwattr $C$DW$521, DW_AT_location[DW_OP_regx 0x20]
    5281              $C$DW$522       .dwtag  DW_TAG_TI_assign_register, DW_AT_name("XFP")
    5282                      .dwattr $C$DW$522, DW_AT_location[DW_OP_regx 0x21]
    5283              $C$DW$523       .dwtag  DW_TAG_TI_assign_register, DW_AT_name("PC")
    5284                      .dwattr $C$DW$523, DW_AT_location[DW_OP_regx 0x22]
    5285              $C$DW$524       .dwtag  DW_TAG_TI_assign_register, DW_AT_name("SP")
    5286                      .dwattr $C$DW$524, DW_AT_location[DW_OP_regx 0x23]
    5287              $C$DW$525       .dwtag  DW_TAG_TI_assign_register, DW_AT_name("XSP")
    5288                      .dwattr $C$DW$525, DW_AT_location[DW_OP_regx 0x24]
    5289              $C$DW$526       .dwtag  DW_TAG_TI_assign_register, DW_AT_name("BKC")
    5290                      .dwattr $C$DW$526, DW_AT_location[DW_OP_regx 0x25]
    5291              $C$DW$527       .dwtag  DW_TAG_TI_assign_register, DW_AT_name("BK03")
    5292                      .dwattr $C$DW$527, DW_AT_location[DW_OP_regx 0x26]
    5293              $C$DW$528       .dwtag  DW_TAG_TI_assign_register, DW_AT_name("BK47")
    5294                      .dwattr $C$DW$528, DW_AT_location[DW_OP_regx 0x27]
    5295              $C$DW$529       .dwtag  DW_TAG_TI_assign_register, DW_AT_name("ST0")
    5296                      .dwattr $C$DW$529, DW_AT_location[DW_OP_regx 0x28]
    5297              $C$DW$530       .dwtag  DW_TAG_TI_assign_register, DW_AT_name("ST1")
    5298                      .dwattr $C$DW$530, DW_AT_location[DW_OP_regx 0x29]
    5299              $C$DW$531       .dwtag  DW_TAG_TI_assign_register, DW_AT_name("ST2")
    5300                      .dwattr $C$DW$531, DW_AT_location[DW_OP_regx 0x2a]
    5301              $C$DW$532       .dwtag  DW_TAG_TI_assign_register, DW_AT_name("ST3")
    5302                      .dwattr $C$DW$532, DW_AT_location[DW_OP_regx 0x2b]
    5303              $C$DW$533       .dwtag  DW_TAG_TI_assign_register, DW_AT_name("MDP")
    5304                      .dwattr $C$DW$533, DW_AT_location[DW_OP_regx 0x2c]
    5305              $C$DW$534       .dwtag  DW_TAG_TI_assign_register, DW_AT_name("MDP05")
TMS320C55x Assembler PC v4.4.1 Fri Sep 07 02:27:33 2018

Tools Copyright (c) 1996-2012 Texas Instruments Incorporated
csl_audioClass.asm                                                   PAGE  113

    5306                      .dwattr $C$DW$534, DW_AT_location[DW_OP_regx 0x2d]
    5307              $C$DW$535       .dwtag  DW_TAG_TI_assign_register, DW_AT_name("MDP67")
    5308                      .dwattr $C$DW$535, DW_AT_location[DW_OP_regx 0x2e]
    5309              $C$DW$536       .dwtag  DW_TAG_TI_assign_register, DW_AT_name("BRC0")
    5310                      .dwattr $C$DW$536, DW_AT_location[DW_OP_regx 0x2f]
    5311              $C$DW$537       .dwtag  DW_TAG_TI_assign_register, DW_AT_name("RSA0")
    5312                      .dwattr $C$DW$537, DW_AT_location[DW_OP_regx 0x30]
    5313              $C$DW$538       .dwtag  DW_TAG_TI_assign_register, DW_AT_name("RSA0_H")
    5314                      .dwattr $C$DW$538, DW_AT_location[DW_OP_regx 0x31]
    5315              $C$DW$539       .dwtag  DW_TAG_TI_assign_register, DW_AT_name("REA0")
    5316                      .dwattr $C$DW$539, DW_AT_location[DW_OP_regx 0x32]
    5317              $C$DW$540       .dwtag  DW_TAG_TI_assign_register, DW_AT_name("REA0_H")
    5318                      .dwattr $C$DW$540, DW_AT_location[DW_OP_regx 0x33]
    5319              $C$DW$541       .dwtag  DW_TAG_TI_assign_register, DW_AT_name("BRS1")
    5320                      .dwattr $C$DW$541, DW_AT_location[DW_OP_regx 0x34]
    5321              $C$DW$542       .dwtag  DW_TAG_TI_assign_register, DW_AT_name("BRC1")
    5322                      .dwattr $C$DW$542, DW_AT_location[DW_OP_regx 0x35]
    5323              $C$DW$543       .dwtag  DW_TAG_TI_assign_register, DW_AT_name("RSA1")
    5324                      .dwattr $C$DW$543, DW_AT_location[DW_OP_regx 0x36]
    5325              $C$DW$544       .dwtag  DW_TAG_TI_assign_register, DW_AT_name("RSA1_H")
    5326                      .dwattr $C$DW$544, DW_AT_location[DW_OP_regx 0x37]
    5327              $C$DW$545       .dwtag  DW_TAG_TI_assign_register, DW_AT_name("REA1")
    5328                      .dwattr $C$DW$545, DW_AT_location[DW_OP_regx 0x38]
    5329              $C$DW$546       .dwtag  DW_TAG_TI_assign_register, DW_AT_name("REA1_H")
    5330                      .dwattr $C$DW$546, DW_AT_location[DW_OP_regx 0x39]
    5331              $C$DW$547       .dwtag  DW_TAG_TI_assign_register, DW_AT_name("CSR")
    5332                      .dwattr $C$DW$547, DW_AT_location[DW_OP_regx 0x3a]
    5333              $C$DW$548       .dwtag  DW_TAG_TI_assign_register, DW_AT_name("RPTC")
    5334                      .dwattr $C$DW$548, DW_AT_location[DW_OP_regx 0x3b]
    5335              $C$DW$549       .dwtag  DW_TAG_TI_assign_register, DW_AT_name("CDP")
    5336                      .dwattr $C$DW$549, DW_AT_location[DW_OP_regx 0x3c]
    5337              $C$DW$550       .dwtag  DW_TAG_TI_assign_register, DW_AT_name("XCDP")
    5338                      .dwattr $C$DW$550, DW_AT_location[DW_OP_regx 0x3d]
    5339              $C$DW$551       .dwtag  DW_TAG_TI_assign_register, DW_AT_name("TRN0")
    5340                      .dwattr $C$DW$551, DW_AT_location[DW_OP_regx 0x3e]
    5341              $C$DW$552       .dwtag  DW_TAG_TI_assign_register, DW_AT_name("TRN1")
    5342                      .dwattr $C$DW$552, DW_AT_location[DW_OP_regx 0x3f]
    5343              $C$DW$553       .dwtag  DW_TAG_TI_assign_register, DW_AT_name("BSA01")
    5344                      .dwattr $C$DW$553, DW_AT_location[DW_OP_regx 0x40]
    5345              $C$DW$554       .dwtag  DW_TAG_TI_assign_register, DW_AT_name("BSA23")
    5346                      .dwattr $C$DW$554, DW_AT_location[DW_OP_regx 0x41]
    5347              $C$DW$555       .dwtag  DW_TAG_TI_assign_register, DW_AT_name("BSA45")
    5348                      .dwattr $C$DW$555, DW_AT_location[DW_OP_regx 0x42]
    5349              $C$DW$556       .dwtag  DW_TAG_TI_assign_register, DW_AT_name("BSA67")
    5350                      .dwattr $C$DW$556, DW_AT_location[DW_OP_regx 0x43]
    5351              $C$DW$557       .dwtag  DW_TAG_TI_assign_register, DW_AT_name("BSAC")
    5352                      .dwattr $C$DW$557, DW_AT_location[DW_OP_regx 0x44]
    5353              $C$DW$558       .dwtag  DW_TAG_TI_assign_register, DW_AT_name("CARRY")
    5354                      .dwattr $C$DW$558, DW_AT_location[DW_OP_regx 0x45]
    5355              $C$DW$559       .dwtag  DW_TAG_TI_assign_register, DW_AT_name("TC1")
    5356                      .dwattr $C$DW$559, DW_AT_location[DW_OP_regx 0x46]
    5357              $C$DW$560       .dwtag  DW_TAG_TI_assign_register, DW_AT_name("TC2")
    5358                      .dwattr $C$DW$560, DW_AT_location[DW_OP_regx 0x47]
    5359              $C$DW$561       .dwtag  DW_TAG_TI_assign_register, DW_AT_name("M40")
    5360                      .dwattr $C$DW$561, DW_AT_location[DW_OP_regx 0x48]
TMS320C55x Assembler PC v4.4.1 Fri Sep 07 02:27:33 2018

Tools Copyright (c) 1996-2012 Texas Instruments Incorporated
csl_audioClass.asm                                                   PAGE  114

    5361              $C$DW$562       .dwtag  DW_TAG_TI_assign_register, DW_AT_name("SXMD")
    5362                      .dwattr $C$DW$562, DW_AT_location[DW_OP_regx 0x49]
    5363              $C$DW$563       .dwtag  DW_TAG_TI_assign_register, DW_AT_name("ARMS")
    5364                      .dwattr $C$DW$563, DW_AT_location[DW_OP_regx 0x4a]
    5365              $C$DW$564       .dwtag  DW_TAG_TI_assign_register, DW_AT_name("C54CM")
    5366                      .dwattr $C$DW$564, DW_AT_location[DW_OP_regx 0x4b]
    5367              $C$DW$565       .dwtag  DW_TAG_TI_assign_register, DW_AT_name("SATA")
    5368                      .dwattr $C$DW$565, DW_AT_location[DW_OP_regx 0x4c]
    5369              $C$DW$566       .dwtag  DW_TAG_TI_assign_register, DW_AT_name("SATD")
    5370                      .dwattr $C$DW$566, DW_AT_location[DW_OP_regx 0x4d]
    5371              $C$DW$567       .dwtag  DW_TAG_TI_assign_register, DW_AT_name("RDM")
    5372                      .dwattr $C$DW$567, DW_AT_location[DW_OP_regx 0x4e]
    5373              $C$DW$568       .dwtag  DW_TAG_TI_assign_register, DW_AT_name("FRCT")
    5374                      .dwattr $C$DW$568, DW_AT_location[DW_OP_regx 0x4f]
    5375              $C$DW$569       .dwtag  DW_TAG_TI_assign_register, DW_AT_name("SMUL")
    5376                      .dwattr $C$DW$569, DW_AT_location[DW_OP_regx 0x50]
    5377              $C$DW$570       .dwtag  DW_TAG_TI_assign_register, DW_AT_name("INTM")
    5378                      .dwattr $C$DW$570, DW_AT_location[DW_OP_regx 0x51]
    5379              $C$DW$571       .dwtag  DW_TAG_TI_assign_register, DW_AT_name("AR0LC")
    5380                      .dwattr $C$DW$571, DW_AT_location[DW_OP_regx 0x52]
    5381              $C$DW$572       .dwtag  DW_TAG_TI_assign_register, DW_AT_name("AR1LC")
    5382                      .dwattr $C$DW$572, DW_AT_location[DW_OP_regx 0x53]
    5383              $C$DW$573       .dwtag  DW_TAG_TI_assign_register, DW_AT_name("AR2LC")
    5384                      .dwattr $C$DW$573, DW_AT_location[DW_OP_regx 0x54]
    5385              $C$DW$574       .dwtag  DW_TAG_TI_assign_register, DW_AT_name("AR3LC")
    5386                      .dwattr $C$DW$574, DW_AT_location[DW_OP_regx 0x55]
    5387              $C$DW$575       .dwtag  DW_TAG_TI_assign_register, DW_AT_name("AR4LC")
    5388                      .dwattr $C$DW$575, DW_AT_location[DW_OP_regx 0x56]
    5389              $C$DW$576       .dwtag  DW_TAG_TI_assign_register, DW_AT_name("AR5LC")
    5390                      .dwattr $C$DW$576, DW_AT_location[DW_OP_regx 0x57]
    5391              $C$DW$577       .dwtag  DW_TAG_TI_assign_register, DW_AT_name("AR6LC")
    5392                      .dwattr $C$DW$577, DW_AT_location[DW_OP_regx 0x58]
    5393              $C$DW$578       .dwtag  DW_TAG_TI_assign_register, DW_AT_name("AR7LC")
    5394                      .dwattr $C$DW$578, DW_AT_location[DW_OP_regx 0x59]
    5395              $C$DW$579       .dwtag  DW_TAG_TI_assign_register, DW_AT_name("CDPLC")
    5396                      .dwattr $C$DW$579, DW_AT_location[DW_OP_regx 0x5a]
    5397              $C$DW$580       .dwtag  DW_TAG_TI_assign_register, DW_AT_name("CIE_RETA")
    5398                      .dwattr $C$DW$580, DW_AT_location[DW_OP_regx 0x5b]
    5399                      .dwendtag $C$DW$CU
    5400              
    5400              
    5400              

No Assembly Errors, No Assembly Warnings
