TMS320C55x Assembler PC v4.4.1 Sun Sep 09 00:03:45 2018

Tools Copyright (c) 1996-2012 Texas Instruments Incorporated
csl_dat.asm                                                          PAGE    1

    2896              ; Temporary Registers Used: None
       1              ;*******************************************************************************
       2              ;* TMS320C55x C/C++ Codegen                                          PC v4.4.1 *
       3              ;* Date/Time created: Sun Sep 09 00:03:42 2018                                 *
       4              ;*******************************************************************************
       5                      .compiler_opts --hll_source=on --mem_model:code=flat --mem_model:data=large --object_format=coff --si
       6                      .mmregs
       7                      .cpl_on
       8                      .arms_on
       9                      .c54cm_off
      10                      .asg AR6, FP
      11                      .asg XAR6, XFP
      12                      .asg DPH, MDP
      13                      .model call=c55_std
      14                      .model mem=large
      15                      .noremark 5002  ; code respects overwrite rules
      16              ;*******************************************************************************
      17              ;* GLOBAL FILE PARAMETERS                                                      *
      18              ;*                                                                             *
      19              ;*   Architecture       : TMS320C55x                                           *
      20              ;*   Optimizing for     : Speed                                                *
      21              ;*   Memory             : Large Model (23-Bit Data Pointers)                   *
      22              ;*   Calls              : Normal Library ASM calls                             *
      23              ;*   Debug Info         : Standard TI Debug Information                        *
      24              ;*******************************************************************************
      25              
      26              $C$DW$CU        .dwtag  DW_TAG_compile_unit
      27                      .dwattr $C$DW$CU, DW_AT_name("../c5535_bsl_revc/ezdsp5535_v1/c55xx_csl/src/csl_dat.c")
      28                      .dwattr $C$DW$CU, DW_AT_producer("TMS320C55x C/C++ Codegen PC v4.4.1 Copyright (c) 1996-2012 Texas In
      29                      .dwattr $C$DW$CU, DW_AT_TI_version(0x01)
      30                      .dwattr $C$DW$CU, DW_AT_comp_dir("F:\eZdsp_C55x_FreeRTOS_Port\VerifiedOKInDbg\eZDSP_5535_Files\ccsws2
      31              ;       F:\TI_CCS_7P4\ccsv7\tools\compiler\c5500_4.4.1\bin\acp55.exe -@f:\\AppData\\Local\\Temp\\0116412 
      32 000000               .sect   ".text"
      33                      .align 4
      34                      .global _DAT_open
      35              
      36              $C$DW$1 .dwtag  DW_TAG_subprogram, DW_AT_name("DAT_open")
      37                      .dwattr $C$DW$1, DW_AT_low_pc(_DAT_open)
      38                      .dwattr $C$DW$1, DW_AT_high_pc(0x00)
      39                      .dwattr $C$DW$1, DW_AT_TI_symbol_name("_DAT_open")
      40                      .dwattr $C$DW$1, DW_AT_external
      41                      .dwattr $C$DW$1, DW_AT_type(*$C$DW$T$35)
      42                      .dwattr $C$DW$1, DW_AT_TI_begin_file("../c5535_bsl_revc/ezdsp5535_v1/c55xx_csl/src/csl_dat.c")
      43                      .dwattr $C$DW$1, DW_AT_TI_begin_line(0x4a)
      44                      .dwattr $C$DW$1, DW_AT_TI_begin_column(0x10)
      45                      .dwattr $C$DW$1, DW_AT_TI_max_frame_size(0x0a)
      46                      .dwpsn  file "../c5535_bsl_revc/ezdsp5535_v1/c55xx_csl/src/csl_dat.c",line 80,column 1,is_stmt,addres
      47              
      48                      .dwfde $C$DW$CIE, _DAT_open
      49              $C$DW$2 .dwtag  DW_TAG_formal_parameter, DW_AT_name("chanNum")
      50                      .dwattr $C$DW$2, DW_AT_TI_symbol_name("_chanNum")
      51                      .dwattr $C$DW$2, DW_AT_type(*$C$DW$T$28)
      52                      .dwattr $C$DW$2, DW_AT_location[DW_OP_reg12]
      53              $C$DW$3 .dwtag  DW_TAG_formal_parameter, DW_AT_name("chanPriority")
      54                      .dwattr $C$DW$3, DW_AT_TI_symbol_name("_chanPriority")
TMS320C55x Assembler PC v4.4.1 Sun Sep 09 00:03:45 2018

Tools Copyright (c) 1996-2012 Texas Instruments Incorporated
csl_dat.asm                                                          PAGE    2

      55                      .dwattr $C$DW$3, DW_AT_type(*$C$DW$T$19)
      56                      .dwattr $C$DW$3, DW_AT_location[DW_OP_reg13]
      57              $C$DW$4 .dwtag  DW_TAG_formal_parameter, DW_AT_name("pDatChanObj")
      58                      .dwattr $C$DW$4, DW_AT_TI_symbol_name("_pDatChanObj")
      59                      .dwattr $C$DW$4, DW_AT_type(*$C$DW$T$34)
      60                      .dwattr $C$DW$4, DW_AT_location[DW_OP_reg17]
      61              $C$DW$5 .dwtag  DW_TAG_formal_parameter, DW_AT_name("status")
      62                      .dwattr $C$DW$5, DW_AT_TI_symbol_name("_status")
      63                      .dwattr $C$DW$5, DW_AT_type(*$C$DW$T$38)
      64                      .dwattr $C$DW$5, DW_AT_location[DW_OP_reg19]
      65              ;*******************************************************************************
      66              ;* FUNCTION NAME: DAT_open                                                     *
      67              ;*                                                                             *
      68              ;*   Function Uses Regs : AC0,AC0,T0,T1,AR0,XAR0,AR1,XAR1,AR2,AR3,XAR3,SP,     *
      69              ;*                        CARRY,TC1,M40,SATA,SATD,RDM,FRCT,SMUL                *
      70              ;*   Stack Frame        : Compact (No Frame Pointer, w/ debug)                 *
      71              ;*   Total Frame Size   : 10 words                                             *
      72              ;*                        (2 return address/alignment)                         *
      73              ;*                        (8 local values)                                     *
      74              ;*   Min System Stack   : 1 word                                               *
      75              ;*******************************************************************************
      76 000000       _DAT_open:
      77                      .dwcfi  cfa_offset, 1
      78                      .dwcfi  save_reg_to_mem, 91, -1
      79 000000 4EF7          AADD #-9, SP
      80                      .dwcfi  cfa_offset, 10
      81              $C$DW$6 .dwtag  DW_TAG_variable, DW_AT_name("chanNum")
      82                      .dwattr $C$DW$6, DW_AT_TI_symbol_name("_chanNum")
      83                      .dwattr $C$DW$6, DW_AT_type(*$C$DW$T$28)
      84                      .dwattr $C$DW$6, DW_AT_location[DW_OP_bregx 0x24 0]
      85              $C$DW$7 .dwtag  DW_TAG_variable, DW_AT_name("chanPriority")
      86                      .dwattr $C$DW$7, DW_AT_TI_symbol_name("_chanPriority")
      87                      .dwattr $C$DW$7, DW_AT_type(*$C$DW$T$19)
      88                      .dwattr $C$DW$7, DW_AT_location[DW_OP_bregx 0x24 1]
      89              $C$DW$8 .dwtag  DW_TAG_variable, DW_AT_name("pDatChanObj")
      90                      .dwattr $C$DW$8, DW_AT_TI_symbol_name("_pDatChanObj")
      91                      .dwattr $C$DW$8, DW_AT_type(*$C$DW$T$34)
      92                      .dwattr $C$DW$8, DW_AT_location[DW_OP_bregx 0x24 2]
      93              $C$DW$9 .dwtag  DW_TAG_variable, DW_AT_name("status")
      94                      .dwattr $C$DW$9, DW_AT_TI_symbol_name("_status")
      95                      .dwattr $C$DW$9, DW_AT_type(*$C$DW$T$38)
      96                      .dwattr $C$DW$9, DW_AT_location[DW_OP_bregx 0x24 4]
      97              $C$DW$10        .dwtag  DW_TAG_variable, DW_AT_name("hDAT")
      98                      .dwattr $C$DW$10, DW_AT_TI_symbol_name("_hDAT")
      99                      .dwattr $C$DW$10, DW_AT_type(*$C$DW$T$35)
     100                      .dwattr $C$DW$10, DW_AT_location[DW_OP_bregx 0x24 6]
     101 000002 EB08          MOV XAR1, dbl(*SP(#4))
         000004 95   
     102 000005 EB04          MOV XAR0, dbl(*SP(#2))
         000007 85   
     103 000008 C502          MOV T1, *SP(#1) ; |80| 
     104 00000a C400          MOV T0, *SP(#0) ; |80| 
     105                      .dwpsn  file "../c5535_bsl_revc/ezdsp5535_v1/c55xx_csl/src/csl_dat.c",line 83,column 5,is_stmt
     106              
     107 000010 2349          MOV T0, AR1 ; |83| 
TMS320C55x Assembler PC v4.4.1 Sun Sep 09 00:03:45 2018

Tools Copyright (c) 1996-2012 Texas Instruments Incorporated
csl_dat.asm                                                          PAGE    3

     108 00000c 7600  ||      MOV #16, AR2 ; |83| 
         00000e 10A8 
     109              
     110 000012 1298          CMP AR1 >= AR2, TC1 ; |83| 
         000014 A0   
     111 000015 63E4          BCC $C$L1,TC1 ; |83| 
     112                                                      ; branchcc occurs ; |83| 
     113 000017 ED04          MOV dbl(*SP(#2)), XAR3
         000019 BF   
     114 00001a 90B0          MOV XAR3, AC0
     115 00001c 6710          BCC $C$L2,AC0 != #0 ; |83| 
     116                                                      ; branchcc occurs ; |83| 
     117 00001e       $C$L1:    
     118                      .dwpsn  file "../c5535_bsl_revc/ezdsp5535_v1/c55xx_csl/src/csl_dat.c",line 85,column 5,is_stmt
     119 00001e 3C00          MOV #0, AC0 ; |85| 
     120 000020 EB0C          MOV AC0, dbl(*SP(#6))
         000022 08   
     121                      .dwpsn  file "../c5535_bsl_revc/ezdsp5535_v1/c55xx_csl/src/csl_dat.c",line 86,column 9,is_stmt
     122 000023 ED08          MOV dbl(*SP(#4)), XAR3
         000025 BF   
     123 000026 E661          MOV #-6, *AR3 ; |86| 
         000028 FA   
     124                      .dwpsn  file "../c5535_bsl_revc/ezdsp5535_v1/c55xx_csl/src/csl_dat.c",line 87,column 5,is_stmt
     125 000029 0600          B $C$L8   ; |87| 
         00002b A4   
     126                                                      ; branch occurs ; |87| 
     127 00002c       $C$L2:    
     128                      .dwpsn  file "../c5535_bsl_revc/ezdsp5535_v1/c55xx_csl/src/csl_dat.c",line 91,column 9,is_stmt
     129 00002c ED08          MOV dbl(*SP(#4)), XAR3
         00002e BF   
     130 00002f E661          MOV #0, *AR3 ; |91| 
         000031 00   
     131                      .dwpsn  file "../c5535_bsl_revc/ezdsp5535_v1/c55xx_csl/src/csl_dat.c",line 92,column 9,is_stmt
     132 000032 ED04          MOV dbl(*SP(#2)), XAR3
         000034 BF   
     133 000035 A900          MOV *SP(#0), AR1 ; |92| 
     134 000037 C973          MOV AR1, *AR3(short(#1)) ; |92| 
     135                      .dwpsn  file "../c5535_bsl_revc/ezdsp5535_v1/c55xx_csl/src/csl_dat.c",line 93,column 9,is_stmt
     136 000039 ED04          MOV dbl(*SP(#2)), XAR3
         00003b BF   
     137 00003c A902          MOV *SP(#1), AR1 ; |93| 
     138 00003e C977          MOV AR1, *AR3(short(#3)) ; |93| 
     139                      .dwpsn  file "../c5535_bsl_revc/ezdsp5535_v1/c55xx_csl/src/csl_dat.c",line 94,column 9,is_stmt
     140 000040 ED04          MOV dbl(*SP(#2)), XAR3
         000042 BF   
     141 000043 E679          MOV #1, *AR3(short(#4)) ; |94| 
         000045 01   
     142                      .dwpsn  file "../c5535_bsl_revc/ezdsp5535_v1/c55xx_csl/src/csl_dat.c",line 96,column 9,is_stmt
     143 000046 ED04          MOV dbl(*SP(#2)), XAR3
         000048 BF   
     144 000049 A902          MOV *SP(#1), AR1 ; |96| 
     145 00004b C977          MOV AR1, *AR3(short(#3)) ; |96| 
     146                      .dwpsn  file "../c5535_bsl_revc/ezdsp5535_v1/c55xx_csl/src/csl_dat.c",line 98,column 9,is_stmt
     147 00004d 0600          B $C$L7   ; |98| 
         00004f 56   
TMS320C55x Assembler PC v4.4.1 Sun Sep 09 00:03:45 2018

Tools Copyright (c) 1996-2012 Texas Instruments Incorporated
csl_dat.asm                                                          PAGE    4

     148                                                      ; branch occurs ; |98| 
     149 000050       $C$L3:    
     150                      .dwpsn  file "../c5535_bsl_revc/ezdsp5535_v1/c55xx_csl/src/csl_dat.c",line 104,column 13,is_stmt
     151 000050 ED04          MOV dbl(*SP(#2)), XAR3
         000052 BF   
     152 000053 FB61          MOV #3072, *AR3 ; |104| 
         000055 0C00 
     153                      .dwpsn  file "../c5535_bsl_revc/ezdsp5535_v1/c55xx_csl/src/csl_dat.c",line 105,column 13,is_stmt
     154 000057 ED04          MOV dbl(*SP(#2)), XAR3
         000059 BF   
     155 00005a E675          MOV #0, *AR3(short(#2)) ; |105| 
         00005c 00   
     156                      .dwpsn  file "../c5535_bsl_revc/ezdsp5535_v1/c55xx_csl/src/csl_dat.c",line 106,column 13,is_stmt
     157 00005d ED04          MOV dbl(*SP(#2)), XAR3
         00005f BF   
     158 000060 EB0C          MOV XAR3, dbl(*SP(#6))
         000062 B5   
     159                      .dwpsn  file "../c5535_bsl_revc/ezdsp5535_v1/c55xx_csl/src/csl_dat.c",line 107,column 18,is_stmt
     160 000063 0600          B $C$L8   ; |107| 
         000065 6A   
     161                                                      ; branch occurs ; |107| 
     162 000066       $C$L4:    
     163                      .dwpsn  file "../c5535_bsl_revc/ezdsp5535_v1/c55xx_csl/src/csl_dat.c",line 113,column 13,is_stmt
     164 000066 ED04          MOV dbl(*SP(#2)), XAR3
         000068 BF   
     165 000069 FB61          MOV #3328, *AR3 ; |113| 
         00006b 0D00 
     166                      .dwpsn  file "../c5535_bsl_revc/ezdsp5535_v1/c55xx_csl/src/csl_dat.c",line 114,column 13,is_stmt
     167 00006d ED04          MOV dbl(*SP(#2)), XAR3
         00006f BF   
     168 000070 E675          MOV #1, *AR3(short(#2)) ; |114| 
         000072 01   
     169                      .dwpsn  file "../c5535_bsl_revc/ezdsp5535_v1/c55xx_csl/src/csl_dat.c",line 115,column 13,is_stmt
     170 000073 ED04          MOV dbl(*SP(#2)), XAR3
         000075 BF   
     171 000076 EB0C          MOV XAR3, dbl(*SP(#6))
         000078 B5   
     172                      .dwpsn  file "../c5535_bsl_revc/ezdsp5535_v1/c55xx_csl/src/csl_dat.c",line 116,column 18,is_stmt
     173 000079 0600          B $C$L8   ; |116| 
         00007b 54   
     174                                                      ; branch occurs ; |116| 
     175 00007c       $C$L5:    
     176                      .dwpsn  file "../c5535_bsl_revc/ezdsp5535_v1/c55xx_csl/src/csl_dat.c",line 122,column 13,is_stmt
     177 00007c ED04          MOV dbl(*SP(#2)), XAR3
         00007e BF   
     178 00007f FB61          MOV #3584, *AR3 ; |122| 
         000081 0E00 
     179                      .dwpsn  file "../c5535_bsl_revc/ezdsp5535_v1/c55xx_csl/src/csl_dat.c",line 123,column 13,is_stmt
     180 000083 ED04          MOV dbl(*SP(#2)), XAR3
         000085 BF   
     181 000086 E675          MOV #2, *AR3(short(#2)) ; |123| 
         000088 02   
     182                      .dwpsn  file "../c5535_bsl_revc/ezdsp5535_v1/c55xx_csl/src/csl_dat.c",line 124,column 13,is_stmt
     183 000089 ED04          MOV dbl(*SP(#2)), XAR3
         00008b BF   
TMS320C55x Assembler PC v4.4.1 Sun Sep 09 00:03:45 2018

Tools Copyright (c) 1996-2012 Texas Instruments Incorporated
csl_dat.asm                                                          PAGE    5

     184 00008c EB0C          MOV XAR3, dbl(*SP(#6))
         00008e B5   
     185                      .dwpsn  file "../c5535_bsl_revc/ezdsp5535_v1/c55xx_csl/src/csl_dat.c",line 125,column 18,is_stmt
     186 00008f 4A3F          B $C$L8   ; |125| 
     187                                                      ; branch occurs ; |125| 
     188 000091       $C$L6:    
     189                      .dwpsn  file "../c5535_bsl_revc/ezdsp5535_v1/c55xx_csl/src/csl_dat.c",line 131,column 13,is_stmt
     190 000091 ED04          MOV dbl(*SP(#2)), XAR3
         000093 BF   
     191 000094 FB61          MOV #3840, *AR3 ; |131| 
         000096 0F00 
     192                      .dwpsn  file "../c5535_bsl_revc/ezdsp5535_v1/c55xx_csl/src/csl_dat.c",line 132,column 13,is_stmt
     193 000098 ED04          MOV dbl(*SP(#2)), XAR3
         00009a BF   
     194 00009b E675          MOV #3, *AR3(short(#2)) ; |132| 
         00009d 03   
     195                      .dwpsn  file "../c5535_bsl_revc/ezdsp5535_v1/c55xx_csl/src/csl_dat.c",line 133,column 13,is_stmt
     196 00009e ED04          MOV dbl(*SP(#2)), XAR3
         0000a0 BF   
     197 0000a1 EB0C          MOV XAR3, dbl(*SP(#6))
         0000a3 B5   
     198                      .dwpsn  file "../c5535_bsl_revc/ezdsp5535_v1/c55xx_csl/src/csl_dat.c",line 134,column 18,is_stmt
     199 0000a4 4A2A          B $C$L8   ; |134| 
     200                                                      ; branch occurs ; |134| 
     201 0000a6       $C$L7:    
     202                      .dwpsn  file "../c5535_bsl_revc/ezdsp5535_v1/c55xx_csl/src/csl_dat.c",line 98,column 9,is_stmt
     203              
     204 0000a6 A900          MOV *SP(#0), AR1 ; |98| 
     205 0000a8 3D3A  ||      MOV #3, AR2
     206              
     207 0000aa 12A8          CMPU AR1 <= AR2, TC1 ; |98| 
         0000ac 94   
     208 0000ad 0464          BCC $C$L3,TC1 ; |98| 
         0000af A0   
     209                                                      ; branchcc occurs ; |98| 
     210              
     211 0000b0 7C00          SUB #4, AR1, AR2 ; |98| 
         0000b2 04A9 
     212 0000b4 3D3B  ||      MOV #3, AR3
     213              
     214 0000b6 12B8          CMPU AR2 <= AR3, TC1 ; |98| 
         0000b8 A4   
     215 0000b9 0464          BCC $C$L4,TC1 ; |98| 
         0000bb AA   
     216                                                      ; branchcc occurs ; |98| 
     217 0000bc 7C00          SUB #8, AR1, AR2 ; |98| 
         0000be 08A9 
     218 0000c0 12B8          CMPU AR2 <= AR3, TC1 ; |98| 
         0000c2 A4   
     219 0000c3 0464          BCC $C$L5,TC1 ; |98| 
         0000c5 B6   
     220                                                      ; branchcc occurs ; |98| 
     221              
     222 0000c6 42C9          SUB #12, AR1, AR1 ; |98| 
     223 0000c8 3D3A  ||      MOV #3, AR2
TMS320C55x Assembler PC v4.4.1 Sun Sep 09 00:03:45 2018

Tools Copyright (c) 1996-2012 Texas Instruments Incorporated
csl_dat.asm                                                          PAGE    6

     224              
     225 0000ca 12A8          CMPU AR1 <= AR2, TC1 ; |98| 
         0000cc 94   
     226 0000cd 0464          BCC $C$L6,TC1 ; |98| 
         0000cf C1   
     227                                                      ; branchcc occurs ; |98| 
     228 0000d0       $C$L8:    
     229                      .dwpsn  file "../c5535_bsl_revc/ezdsp5535_v1/c55xx_csl/src/csl_dat.c",line 138,column 5,is_stmt
     230 0000d0 ED0C          MOV dbl(*SP(#6)), XAR0
         0000d2 8F   
     231                      .dwpsn  file "../c5535_bsl_revc/ezdsp5535_v1/c55xx_csl/src/csl_dat.c",line 139,column 1,is_stmt
     232 0000d3 4E09          AADD #9, SP
     233                      .dwcfi  cfa_offset, 1
     234              $C$DW$11        .dwtag  DW_TAG_TI_branch
     235                      .dwattr $C$DW$11, DW_AT_low_pc(0x00)
     236                      .dwattr $C$DW$11, DW_AT_TI_return
     237 0000d5 4804          RET
     238                                                      ; return occurs
     239                      .dwattr $C$DW$1, DW_AT_TI_end_file("../c5535_bsl_revc/ezdsp5535_v1/c55xx_csl/src/csl_dat.c")
     240                      .dwattr $C$DW$1, DW_AT_TI_end_line(0x8b)
     241                      .dwattr $C$DW$1, DW_AT_TI_end_column(0x01)
     242                      .dwendentry
     243                      .dwendtag $C$DW$1
     244              
     245 0000d7               .sect   ".text"
     246                      .align 4
     247                      .global _DAT_close
     248              
     249              $C$DW$12        .dwtag  DW_TAG_subprogram, DW_AT_name("DAT_close")
     250                      .dwattr $C$DW$12, DW_AT_low_pc(_DAT_close)
     251                      .dwattr $C$DW$12, DW_AT_high_pc(0x00)
     252                      .dwattr $C$DW$12, DW_AT_TI_symbol_name("_DAT_close")
     253                      .dwattr $C$DW$12, DW_AT_external
     254                      .dwattr $C$DW$12, DW_AT_type(*$C$DW$T$37)
     255                      .dwattr $C$DW$12, DW_AT_TI_begin_file("../c5535_bsl_revc/ezdsp5535_v1/c55xx_csl/src/csl_dat.c")
     256                      .dwattr $C$DW$12, DW_AT_TI_begin_line(0xb3)
     257                      .dwattr $C$DW$12, DW_AT_TI_begin_column(0x0c)
     258                      .dwattr $C$DW$12, DW_AT_TI_max_frame_size(0x04)
     259                      .dwpsn  file "../c5535_bsl_revc/ezdsp5535_v1/c55xx_csl/src/csl_dat.c",line 182,column 1,is_stmt,addre
     260              
     261                      .dwfde $C$DW$CIE, _DAT_close
     262              $C$DW$13        .dwtag  DW_TAG_formal_parameter, DW_AT_name("hDAT")
     263                      .dwattr $C$DW$13, DW_AT_TI_symbol_name("_hDAT")
     264                      .dwattr $C$DW$13, DW_AT_type(*$C$DW$T$35)
     265                      .dwattr $C$DW$13, DW_AT_location[DW_OP_reg17]
     266              ;*******************************************************************************
     267              ;* FUNCTION NAME: DAT_close                                                    *
     268              ;*                                                                             *
     269              ;*   Function Uses Regs : AC0,AC0,T0,AR0,XAR0,AR1,AR2,AR3,XAR3,SP,CARRY,TC1,   *
     270              ;*                        M40,SATA,SATD,RDM,FRCT,SMUL                          *
     271              ;*   Stack Frame        : Compact (No Frame Pointer, w/ debug)                 *
     272              ;*   Total Frame Size   : 4 words                                              *
     273              ;*                        (1 return address/alignment)                         *
     274              ;*                        (3 local values)                                     *
     275              ;*   Min System Stack   : 1 word                                               *
TMS320C55x Assembler PC v4.4.1 Sun Sep 09 00:03:45 2018

Tools Copyright (c) 1996-2012 Texas Instruments Incorporated
csl_dat.asm                                                          PAGE    7

     276              ;*******************************************************************************
     277 0000d8       _DAT_close:
     278                      .dwcfi  cfa_offset, 1
     279                      .dwcfi  save_reg_to_mem, 91, -1
     280 0000d8 4EFD          AADD #-3, SP
     281                      .dwcfi  cfa_offset, 4
     282              $C$DW$14        .dwtag  DW_TAG_variable, DW_AT_name("hDAT")
     283                      .dwattr $C$DW$14, DW_AT_TI_symbol_name("_hDAT")
     284                      .dwattr $C$DW$14, DW_AT_type(*$C$DW$T$35)
     285                      .dwattr $C$DW$14, DW_AT_location[DW_OP_bregx 0x24 0]
     286              $C$DW$15        .dwtag  DW_TAG_variable, DW_AT_name("chanNum")
     287                      .dwattr $C$DW$15, DW_AT_TI_symbol_name("_chanNum")
     288                      .dwattr $C$DW$15, DW_AT_type(*$C$DW$T$19)
     289                      .dwattr $C$DW$15, DW_AT_location[DW_OP_bregx 0x24 2]
     290 0000da EB00          MOV XAR0, dbl(*SP(#0))
         0000dc 85   
     291                      .dwpsn  file "../c5535_bsl_revc/ezdsp5535_v1/c55xx_csl/src/csl_dat.c",line 185,column 5,is_stmt
     292 0000dd ED00          MOV dbl(*SP(#0)), XAR3
         0000df BF   
     293 0000e0 90B0          MOV XAR3, AC0
     294 0000e2 6290          BCC $C$L9,AC0 != #0 ; |185| 
     295                                                      ; branchcc occurs ; |185| 
     296                      .dwpsn  file "../c5535_bsl_revc/ezdsp5535_v1/c55xx_csl/src/csl_dat.c",line 187,column 3,is_stmt
     297 0000e4 3E54          MOV #-5, T0
     298 0000e6 0601          B $C$L17  ; |187| 
         0000e8 7F   
     299                                                      ; branch occurs ; |187| 
     300 0000e9       $C$L9:    
     301                      .dwpsn  file "../c5535_bsl_revc/ezdsp5535_v1/c55xx_csl/src/csl_dat.c",line 191,column 9,is_stmt
     302 0000e9 A973          MOV *AR3(short(#1)), AR1 ; |191| 
     303 0000eb C904          MOV AR1, *SP(#2) ; |191| 
     304                      .dwpsn  file "../c5535_bsl_revc/ezdsp5535_v1/c55xx_csl/src/csl_dat.c",line 193,column 15,is_stmt
     305 0000ed 3C4A          MOV #4, AR2
     306 0000ef 1294          CMPU AR1 < AR2, TC1 ; |193| 
         0000f1 A4   
     307 0000f2 6D64          BCC $C$L15,TC1 ; |193| 
         0000f4 013A 
     308                                                      ; branchcc occurs ; |193| 
     309 0000f6       $C$L10:    
     310 0000f6       $C$DW$L$_DAT_close$5$B:
     311                      .dwpsn  file "../c5535_bsl_revc/ezdsp5535_v1/c55xx_csl/src/csl_dat.c",line 195,column 13,is_stmt
     312 0000f6 F704          SUB #4, *SP(#2) ; |195| 
         0000f8 FFFC 
     313                      .dwpsn  file "../c5535_bsl_revc/ezdsp5535_v1/c55xx_csl/src/csl_dat.c",line 193,column 15,is_stmt
     314 0000fa A904          MOV *SP(#2), AR1 ; |193| 
     315 0000fc 1298          CMPU AR1 >= AR2, TC1 ; |193| 
         0000fe A4   
     316 0000ff 0464          BCC $C$L10,TC1 ; |193| 
         000101 F4   
     317                                                      ; branchcc occurs ; |193| 
     318 000102       $C$DW$L$_DAT_close$5$E:
     319                      .dwpsn  file "../c5535_bsl_revc/ezdsp5535_v1/c55xx_csl/src/csl_dat.c",line 198,column 9,is_stmt
     320 000102 0601          B $C$L15  ; |198| 
         000104 2B   
     321                                                      ; branch occurs ; |198| 
TMS320C55x Assembler PC v4.4.1 Sun Sep 09 00:03:45 2018

Tools Copyright (c) 1996-2012 Texas Instruments Incorporated
csl_dat.asm                                                          PAGE    8

     322 000105       $C$L11:    
     323                      .dwpsn  file "../c5535_bsl_revc/ezdsp5535_v1/c55xx_csl/src/csl_dat.c",line 201,column 4,is_stmt
     324 000105 ED00          MOV dbl(*SP(#0)), XAR3
         000107 BF   
     325 000108 AB61          MOV *AR3, AR3 ; |201| 
     326 00010a E661          MOV #0, port(*AR3) ; |201| 
         00010c 00   
         00010d 9A   
     327                      .dwpsn  file "../c5535_bsl_revc/ezdsp5535_v1/c55xx_csl/src/csl_dat.c",line 202,column 4,is_stmt
     328 00010e ED00          MOV dbl(*SP(#0)), XAR3
         000110 BF   
     329 000111 AB61          MOV *AR3, AR3 ; |202| 
     330 000113 E673          MOV #0, port(*AR3(short(#1))) ; |202| 
         000115 00   
         000116 9A   
     331                      .dwpsn  file "../c5535_bsl_revc/ezdsp5535_v1/c55xx_csl/src/csl_dat.c",line 203,column 4,is_stmt
     332 000117 ED00          MOV dbl(*SP(#0)), XAR3
         000119 BF   
     333 00011a AB61          MOV *AR3, AR3 ; |203| 
     334 00011c E675          MOV #0, port(*AR3(short(#2))) ; |203| 
         00011e 00   
         00011f 9A   
     335                      .dwpsn  file "../c5535_bsl_revc/ezdsp5535_v1/c55xx_csl/src/csl_dat.c",line 204,column 4,is_stmt
     336 000120 ED00          MOV dbl(*SP(#0)), XAR3
         000122 BF   
     337 000123 AB61          MOV *AR3, AR3 ; |204| 
     338 000125 E677          MOV #0, port(*AR3(short(#3))) ; |204| 
         000127 00   
         000128 9A   
     339                      .dwpsn  file "../c5535_bsl_revc/ezdsp5535_v1/c55xx_csl/src/csl_dat.c",line 205,column 4,is_stmt
     340 000129 ED00          MOV dbl(*SP(#0)), XAR3
         00012b BF   
     341 00012c AB61          MOV *AR3, AR3 ; |205| 
     342 00012e E679          MOV #0, port(*AR3(short(#4))) ; |205| 
         000130 00   
         000131 9A   
     343                      .dwpsn  file "../c5535_bsl_revc/ezdsp5535_v1/c55xx_csl/src/csl_dat.c",line 206,column 4,is_stmt
     344 000132 ED00          MOV dbl(*SP(#0)), XAR3
         000134 BF   
     345 000135 AB61          MOV *AR3, AR3 ; |206| 
     346 000137 E67B          MOV #0, port(*AR3(short(#5))) ; |206| 
         000139 00   
         00013a 9A   
     347                      .dwpsn  file "../c5535_bsl_revc/ezdsp5535_v1/c55xx_csl/src/csl_dat.c",line 207,column 18,is_stmt
     348 00013b 0601          B $C$L16  ; |207| 
         00013d 10   
     349                                                      ; branch occurs ; |207| 
     350 00013e       $C$L12:    
     351                      .dwpsn  file "../c5535_bsl_revc/ezdsp5535_v1/c55xx_csl/src/csl_dat.c",line 209,column 4,is_stmt
     352 00013e ED00          MOV dbl(*SP(#0)), XAR3
         000140 BF   
     353 000141 7600          MOV #32, T0 ; |209| 
         000143 2048 
     354 000145 AB61          MOV *AR3, AR3 ; |209| 
     355 000147 E66B          MOV #0, port(*AR3(T0)) ; |209| 
TMS320C55x Assembler PC v4.4.1 Sun Sep 09 00:03:45 2018

Tools Copyright (c) 1996-2012 Texas Instruments Incorporated
csl_dat.asm                                                          PAGE    9

         000149 00   
         00014a 9A   
     356                      .dwpsn  file "../c5535_bsl_revc/ezdsp5535_v1/c55xx_csl/src/csl_dat.c",line 210,column 4,is_stmt
     357 00014b ED00          MOV dbl(*SP(#0)), XAR3
         00014d BF   
     358 00014e 7600          MOV #33, T0 ; |210| 
         000150 2148 
     359 000152 AB61          MOV *AR3, AR3 ; |210| 
     360 000154 E66B          MOV #0, port(*AR3(T0)) ; |210| 
         000156 00   
         000157 9A   
     361                      .dwpsn  file "../c5535_bsl_revc/ezdsp5535_v1/c55xx_csl/src/csl_dat.c",line 211,column 4,is_stmt
     362 000158 ED00          MOV dbl(*SP(#0)), XAR3
         00015a BF   
     363 00015b 7600          MOV #34, T0 ; |211| 
         00015d 2248 
     364 00015f AB61          MOV *AR3, AR3 ; |211| 
     365 000161 E66B          MOV #0, port(*AR3(T0)) ; |211| 
         000163 00   
         000164 9A   
     366                      .dwpsn  file "../c5535_bsl_revc/ezdsp5535_v1/c55xx_csl/src/csl_dat.c",line 212,column 4,is_stmt
     367 000165 ED00          MOV dbl(*SP(#0)), XAR3
         000167 BF   
     368 000168 7600          MOV #35, T0 ; |212| 
         00016a 2348 
     369 00016c AB61          MOV *AR3, AR3 ; |212| 
     370 00016e E66B          MOV #0, port(*AR3(T0)) ; |212| 
         000170 00   
         000171 9A   
     371                      .dwpsn  file "../c5535_bsl_revc/ezdsp5535_v1/c55xx_csl/src/csl_dat.c",line 213,column 4,is_stmt
     372 000172 ED00          MOV dbl(*SP(#0)), XAR3
         000174 BF   
     373 000175 7600          MOV #36, T0 ; |213| 
         000177 2448 
     374 000179 AB61          MOV *AR3, AR3 ; |213| 
     375 00017b E66B          MOV #0, port(*AR3(T0)) ; |213| 
         00017d 00   
         00017e 9A   
     376                      .dwpsn  file "../c5535_bsl_revc/ezdsp5535_v1/c55xx_csl/src/csl_dat.c",line 214,column 4,is_stmt
     377 00017f ED00          MOV dbl(*SP(#0)), XAR3
         000181 BF   
     378 000182 7600          MOV #37, T0 ; |214| 
         000184 2548 
     379 000186 AB61          MOV *AR3, AR3 ; |214| 
     380 000188 E66B          MOV #0, port(*AR3(T0)) ; |214| 
         00018a 00   
         00018b 9A   
     381                      .dwpsn  file "../c5535_bsl_revc/ezdsp5535_v1/c55xx_csl/src/csl_dat.c",line 215,column 18,is_stmt
     382 00018c 0600          B $C$L16  ; |215| 
         00018e BF   
     383                                                      ; branch occurs ; |215| 
     384 00018f       $C$L13:    
     385                      .dwpsn  file "../c5535_bsl_revc/ezdsp5535_v1/c55xx_csl/src/csl_dat.c",line 217,column 4,is_stmt
     386 00018f ED00          MOV dbl(*SP(#0)), XAR3
         000191 BF   
TMS320C55x Assembler PC v4.4.1 Sun Sep 09 00:03:45 2018

Tools Copyright (c) 1996-2012 Texas Instruments Incorporated
csl_dat.asm                                                          PAGE   10

     387 000192 7600          MOV #64, T0 ; |217| 
         000194 4048 
     388 000196 AB61          MOV *AR3, AR3 ; |217| 
     389 000198 E66B          MOV #0, port(*AR3(T0)) ; |217| 
         00019a 00   
         00019b 9A   
     390                      .dwpsn  file "../c5535_bsl_revc/ezdsp5535_v1/c55xx_csl/src/csl_dat.c",line 218,column 4,is_stmt
     391 00019c ED00          MOV dbl(*SP(#0)), XAR3
         00019e BF   
     392 00019f 7600          MOV #65, T0 ; |218| 
         0001a1 4148 
     393 0001a3 AB61          MOV *AR3, AR3 ; |218| 
     394 0001a5 E66B          MOV #0, port(*AR3(T0)) ; |218| 
         0001a7 00   
         0001a8 9A   
     395                      .dwpsn  file "../c5535_bsl_revc/ezdsp5535_v1/c55xx_csl/src/csl_dat.c",line 219,column 4,is_stmt
     396 0001a9 ED00          MOV dbl(*SP(#0)), XAR3
         0001ab BF   
     397 0001ac 7600          MOV #66, T0 ; |219| 
         0001ae 4248 
     398 0001b0 AB61          MOV *AR3, AR3 ; |219| 
     399 0001b2 E66B          MOV #0, port(*AR3(T0)) ; |219| 
         0001b4 00   
         0001b5 9A   
     400                      .dwpsn  file "../c5535_bsl_revc/ezdsp5535_v1/c55xx_csl/src/csl_dat.c",line 220,column 4,is_stmt
     401 0001b6 ED00          MOV dbl(*SP(#0)), XAR3
         0001b8 BF   
     402 0001b9 7600          MOV #67, T0 ; |220| 
         0001bb 4348 
     403 0001bd AB61          MOV *AR3, AR3 ; |220| 
     404 0001bf E66B          MOV #0, port(*AR3(T0)) ; |220| 
         0001c1 00   
         0001c2 9A   
     405                      .dwpsn  file "../c5535_bsl_revc/ezdsp5535_v1/c55xx_csl/src/csl_dat.c",line 221,column 4,is_stmt
     406 0001c3 ED00          MOV dbl(*SP(#0)), XAR3
         0001c5 BF   
     407 0001c6 7600          MOV #68, T0 ; |221| 
         0001c8 4448 
     408 0001ca AB61          MOV *AR3, AR3 ; |221| 
     409 0001cc E66B          MOV #0, port(*AR3(T0)) ; |221| 
         0001ce 00   
         0001cf 9A   
     410                      .dwpsn  file "../c5535_bsl_revc/ezdsp5535_v1/c55xx_csl/src/csl_dat.c",line 222,column 4,is_stmt
     411 0001d0 ED00          MOV dbl(*SP(#0)), XAR3
         0001d2 BF   
     412 0001d3 7600          MOV #69, T0 ; |222| 
         0001d5 4548 
     413 0001d7 AB61          MOV *AR3, AR3 ; |222| 
     414 0001d9 E66B          MOV #0, port(*AR3(T0)) ; |222| 
         0001db 00   
         0001dc 9A   
     415                      .dwpsn  file "../c5535_bsl_revc/ezdsp5535_v1/c55xx_csl/src/csl_dat.c",line 223,column 18,is_stmt
     416 0001dd 0600          B $C$L16  ; |223| 
         0001df 6E   
     417                                                      ; branch occurs ; |223| 
TMS320C55x Assembler PC v4.4.1 Sun Sep 09 00:03:45 2018

Tools Copyright (c) 1996-2012 Texas Instruments Incorporated
csl_dat.asm                                                          PAGE   11

     418 0001e0       $C$L14:    
     419                      .dwpsn  file "../c5535_bsl_revc/ezdsp5535_v1/c55xx_csl/src/csl_dat.c",line 225,column 4,is_stmt
     420 0001e0 ED00          MOV dbl(*SP(#0)), XAR3
         0001e2 BF   
     421 0001e3 7600          MOV #96, T0 ; |225| 
         0001e5 6048 
     422 0001e7 AB61          MOV *AR3, AR3 ; |225| 
     423 0001e9 E66B          MOV #0, port(*AR3(T0)) ; |225| 
         0001eb 00   
         0001ec 9A   
     424                      .dwpsn  file "../c5535_bsl_revc/ezdsp5535_v1/c55xx_csl/src/csl_dat.c",line 226,column 4,is_stmt
     425 0001ed ED00          MOV dbl(*SP(#0)), XAR3
         0001ef BF   
     426 0001f0 7600          MOV #97, T0 ; |226| 
         0001f2 6148 
     427 0001f4 AB61          MOV *AR3, AR3 ; |226| 
     428 0001f6 E66B          MOV #0, port(*AR3(T0)) ; |226| 
         0001f8 00   
         0001f9 9A   
     429                      .dwpsn  file "../c5535_bsl_revc/ezdsp5535_v1/c55xx_csl/src/csl_dat.c",line 227,column 4,is_stmt
     430 0001fa ED00          MOV dbl(*SP(#0)), XAR3
         0001fc BF   
     431 0001fd 7600          MOV #98, T0 ; |227| 
         0001ff 6248 
     432 000201 AB61          MOV *AR3, AR3 ; |227| 
     433 000203 E66B          MOV #0, port(*AR3(T0)) ; |227| 
         000205 00   
         000206 9A   
     434                      .dwpsn  file "../c5535_bsl_revc/ezdsp5535_v1/c55xx_csl/src/csl_dat.c",line 228,column 4,is_stmt
     435 000207 ED00          MOV dbl(*SP(#0)), XAR3
         000209 BF   
     436 00020a 7600          MOV #99, T0 ; |228| 
         00020c 6348 
     437 00020e AB61          MOV *AR3, AR3 ; |228| 
     438 000210 E66B          MOV #0, port(*AR3(T0)) ; |228| 
         000212 00   
         000213 9A   
     439                      .dwpsn  file "../c5535_bsl_revc/ezdsp5535_v1/c55xx_csl/src/csl_dat.c",line 229,column 4,is_stmt
     440 000214 ED00          MOV dbl(*SP(#0)), XAR3
         000216 BF   
     441 000217 7600          MOV #100, T0 ; |229| 
         000219 6448 
     442 00021b AB61          MOV *AR3, AR3 ; |229| 
     443 00021d E66B          MOV #0, port(*AR3(T0)) ; |229| 
         00021f 00   
         000220 9A   
     444                      .dwpsn  file "../c5535_bsl_revc/ezdsp5535_v1/c55xx_csl/src/csl_dat.c",line 230,column 4,is_stmt
     445 000221 ED00          MOV dbl(*SP(#0)), XAR3
         000223 BF   
     446 000224 7600          MOV #101, T0 ; |230| 
         000226 6548 
     447 000228 AB61          MOV *AR3, AR3 ; |230| 
     448 00022a E66B          MOV #0, port(*AR3(T0)) ; |230| 
         00022c 00   
         00022d 9A   
TMS320C55x Assembler PC v4.4.1 Sun Sep 09 00:03:45 2018

Tools Copyright (c) 1996-2012 Texas Instruments Incorporated
csl_dat.asm                                                          PAGE   12

     449                      .dwpsn  file "../c5535_bsl_revc/ezdsp5535_v1/c55xx_csl/src/csl_dat.c",line 231,column 18,is_stmt
     450 00022e 4A1E          B $C$L16  ; |231| 
     451                                                      ; branch occurs ; |231| 
     452 000230       $C$L15:    
     453                      .dwpsn  file "../c5535_bsl_revc/ezdsp5535_v1/c55xx_csl/src/csl_dat.c",line 198,column 9,is_stmt
     454 000230 6D09          BCC $C$L11,AR1 == #0 ; |198| 
         000232 FED1 
     455                                                      ; branchcc occurs ; |198| 
     456 000234 3C1A          MOV #1, AR2
     457 000236 1290          CMPU AR1 == AR2, TC1 ; |198| 
         000238 A4   
     458 000239 6D64          BCC $C$L12,TC1 ; |198| 
         00023b FF01 
     459                                                      ; branchcc occurs ; |198| 
     460 00023d 3C2A          MOV #2, AR2
     461 00023f 1290          CMPU AR1 == AR2, TC1 ; |198| 
         000241 A4   
     462 000242 6D64          BCC $C$L13,TC1 ; |198| 
         000244 FF49 
     463                                                      ; branchcc occurs ; |198| 
     464 000246 3C3A          MOV #3, AR2
     465 000248 1290          CMPU AR1 == AR2, TC1 ; |198| 
         00024a A4   
     466 00024b 0464          BCC $C$L14,TC1 ; |198| 
         00024d 92   
     467                                                      ; branchcc occurs ; |198| 
     468 00024e       $C$L16:    
     469                      .dwpsn  file "../c5535_bsl_revc/ezdsp5535_v1/c55xx_csl/src/csl_dat.c",line 234,column 9,is_stmt
     470 00024e ED00          MOV dbl(*SP(#0)), XAR3
         000250 BF   
     471 000251 E673          MOV #16, *AR3(short(#1)) ; |234| 
         000253 10   
     472                      .dwpsn  file "../c5535_bsl_revc/ezdsp5535_v1/c55xx_csl/src/csl_dat.c",line 235,column 9,is_stmt
     473 000254 ED00          MOV dbl(*SP(#0)), XAR3
         000256 BF   
     474 000257 E677          MOV #0, *AR3(short(#3)) ; |235| 
         000259 00   
     475                      .dwpsn  file "../c5535_bsl_revc/ezdsp5535_v1/c55xx_csl/src/csl_dat.c",line 236,column 9,is_stmt
     476 00025a ED00          MOV dbl(*SP(#0)), XAR3
         00025c BF   
     477 00025d E679          MOV #0, *AR3(short(#4)) ; |236| 
         00025f 00   
     478                      .dwpsn  file "../c5535_bsl_revc/ezdsp5535_v1/c55xx_csl/src/csl_dat.c",line 237,column 9,is_stmt
     479 000260 ED00          MOV dbl(*SP(#0)), XAR3
         000262 BF   
     480 000263 E661          MOV #0, *AR3 ; |237| 
         000265 00   
     481                      .dwpsn  file "../c5535_bsl_revc/ezdsp5535_v1/c55xx_csl/src/csl_dat.c",line 239,column 2,is_stmt
     482 000266 3C04          MOV #0, T0
     483 000268       $C$L17:    
     484                      .dwpsn  file "../c5535_bsl_revc/ezdsp5535_v1/c55xx_csl/src/csl_dat.c",line 240,column 1,is_stmt
     485 000268 4E03          AADD #3, SP
     486                      .dwcfi  cfa_offset, 1
     487              $C$DW$16        .dwtag  DW_TAG_TI_branch
     488                      .dwattr $C$DW$16, DW_AT_low_pc(0x00)
TMS320C55x Assembler PC v4.4.1 Sun Sep 09 00:03:45 2018

Tools Copyright (c) 1996-2012 Texas Instruments Incorporated
csl_dat.asm                                                          PAGE   13

     489                      .dwattr $C$DW$16, DW_AT_TI_return
     490 00026a 4804          RET
     491                                                      ; return occurs
     492              
     493              $C$DW$17        .dwtag  DW_TAG_TI_loop
     494                      .dwattr $C$DW$17, DW_AT_name("F:\eZdsp_C55x_FreeRTOS_Port\VerifiedOKInDbg\eZDSP_5535_Files\ccsws2\tes
     495                      .dwattr $C$DW$17, DW_AT_TI_begin_file("../c5535_bsl_revc/ezdsp5535_v1/c55xx_csl/src/csl_dat.c")
     496                      .dwattr $C$DW$17, DW_AT_TI_begin_line(0xc1)
     497                      .dwattr $C$DW$17, DW_AT_TI_end_line(0xc4)
     498              $C$DW$18        .dwtag  DW_TAG_TI_loop_range
     499                      .dwattr $C$DW$18, DW_AT_low_pc($C$DW$L$_DAT_close$5$B)
     500                      .dwattr $C$DW$18, DW_AT_high_pc($C$DW$L$_DAT_close$5$E)
     501                      .dwendtag $C$DW$17
     502              
     503                      .dwattr $C$DW$12, DW_AT_TI_end_file("../c5535_bsl_revc/ezdsp5535_v1/c55xx_csl/src/csl_dat.c")
     504                      .dwattr $C$DW$12, DW_AT_TI_end_line(0xf0)
     505                      .dwattr $C$DW$12, DW_AT_TI_end_column(0x01)
     506                      .dwendentry
     507                      .dwendtag $C$DW$12
     508              
     509 00026c               .sect   ".text"
     510                      .align 4
     511                      .global _DAT_copy
     512              
     513              $C$DW$19        .dwtag  DW_TAG_subprogram, DW_AT_name("DAT_copy")
     514                      .dwattr $C$DW$19, DW_AT_low_pc(_DAT_copy)
     515                      .dwattr $C$DW$19, DW_AT_high_pc(0x00)
     516                      .dwattr $C$DW$19, DW_AT_TI_symbol_name("_DAT_copy")
     517                      .dwattr $C$DW$19, DW_AT_external
     518                      .dwattr $C$DW$19, DW_AT_type(*$C$DW$T$37)
     519                      .dwattr $C$DW$19, DW_AT_TI_begin_file("../c5535_bsl_revc/ezdsp5535_v1/c55xx_csl/src/csl_dat.c")
     520                      .dwattr $C$DW$19, DW_AT_TI_begin_line(0x12d)
     521                      .dwattr $C$DW$19, DW_AT_TI_begin_column(0x0c)
     522                      .dwattr $C$DW$19, DW_AT_TI_max_frame_size(0x0e)
     523                      .dwpsn  file "../c5535_bsl_revc/ezdsp5535_v1/c55xx_csl/src/csl_dat.c",line 307,column 1,is_stmt,addre
     524              
     525                      .dwfde $C$DW$CIE, _DAT_copy
     526              $C$DW$20        .dwtag  DW_TAG_formal_parameter, DW_AT_name("hDAT")
     527                      .dwattr $C$DW$20, DW_AT_TI_symbol_name("_hDAT")
     528                      .dwattr $C$DW$20, DW_AT_type(*$C$DW$T$35)
     529                      .dwattr $C$DW$20, DW_AT_location[DW_OP_reg17]
     530              $C$DW$21        .dwtag  DW_TAG_formal_parameter, DW_AT_name("srcAddr")
     531                      .dwattr $C$DW$21, DW_AT_TI_symbol_name("_srcAddr")
     532                      .dwattr $C$DW$21, DW_AT_type(*$C$DW$T$41)
     533                      .dwattr $C$DW$21, DW_AT_location[DW_OP_reg0]
     534              $C$DW$22        .dwtag  DW_TAG_formal_parameter, DW_AT_name("destAddr")
     535                      .dwattr $C$DW$22, DW_AT_TI_symbol_name("_destAddr")
     536                      .dwattr $C$DW$22, DW_AT_type(*$C$DW$T$41)
     537                      .dwattr $C$DW$22, DW_AT_location[DW_OP_reg3]
     538              $C$DW$23        .dwtag  DW_TAG_formal_parameter, DW_AT_name("dataLength")
     539                      .dwattr $C$DW$23, DW_AT_TI_symbol_name("_dataLength")
     540                      .dwattr $C$DW$23, DW_AT_type(*$C$DW$T$19)
     541                      .dwattr $C$DW$23, DW_AT_location[DW_OP_reg12]
     542              ;*******************************************************************************
     543              ;* FUNCTION NAME: DAT_copy                                                     *
TMS320C55x Assembler PC v4.4.1 Sun Sep 09 00:03:45 2018

Tools Copyright (c) 1996-2012 Texas Instruments Incorporated
csl_dat.asm                                                          PAGE   14

     544              ;*                                                                             *
     545              ;*   Function Uses Regs : AC0,AC0,AC1,AC1,T0,AR0,XAR0,AR1,AR2,AR3,XAR3,SP,     *
     546              ;*                        CARRY,TC1,M40,SATA,SATD,RDM,FRCT,SMUL                *
     547              ;*   Stack Frame        : Compact (No Frame Pointer, w/ debug)                 *
     548              ;*   Total Frame Size   : 14 words                                             *
     549              ;*                        (2 return address/alignment)                         *
     550              ;*                        (12 local values)                                    *
     551              ;*   Min System Stack   : 1 word                                               *
     552              ;*******************************************************************************
     553 00026c       _DAT_copy:
     554                      .dwcfi  cfa_offset, 1
     555                      .dwcfi  save_reg_to_mem, 91, -1
     556 00026c 4EF3          AADD #-13, SP
     557                      .dwcfi  cfa_offset, 14
     558              $C$DW$24        .dwtag  DW_TAG_variable, DW_AT_name("hDAT")
     559                      .dwattr $C$DW$24, DW_AT_TI_symbol_name("_hDAT")
     560                      .dwattr $C$DW$24, DW_AT_type(*$C$DW$T$35)
     561                      .dwattr $C$DW$24, DW_AT_location[DW_OP_bregx 0x24 0]
     562              $C$DW$25        .dwtag  DW_TAG_variable, DW_AT_name("srcAddr")
     563                      .dwattr $C$DW$25, DW_AT_TI_symbol_name("_srcAddr")
     564                      .dwattr $C$DW$25, DW_AT_type(*$C$DW$T$41)
     565                      .dwattr $C$DW$25, DW_AT_location[DW_OP_bregx 0x24 2]
     566              $C$DW$26        .dwtag  DW_TAG_variable, DW_AT_name("destAddr")
     567                      .dwattr $C$DW$26, DW_AT_TI_symbol_name("_destAddr")
     568                      .dwattr $C$DW$26, DW_AT_type(*$C$DW$T$41)
     569                      .dwattr $C$DW$26, DW_AT_location[DW_OP_bregx 0x24 4]
     570              $C$DW$27        .dwtag  DW_TAG_variable, DW_AT_name("dataLength")
     571                      .dwattr $C$DW$27, DW_AT_TI_symbol_name("_dataLength")
     572                      .dwattr $C$DW$27, DW_AT_type(*$C$DW$T$19)
     573                      .dwattr $C$DW$27, DW_AT_location[DW_OP_bregx 0x24 6]
     574              $C$DW$28        .dwtag  DW_TAG_variable, DW_AT_name("chanNum")
     575                      .dwattr $C$DW$28, DW_AT_TI_symbol_name("_chanNum")
     576                      .dwattr $C$DW$28, DW_AT_type(*$C$DW$T$19)
     577                      .dwattr $C$DW$28, DW_AT_location[DW_OP_bregx 0x24 7]
     578              $C$DW$29        .dwtag  DW_TAG_variable, DW_AT_name("srcAddrLSB")
     579                      .dwattr $C$DW$29, DW_AT_TI_symbol_name("_srcAddrLSB")
     580                      .dwattr $C$DW$29, DW_AT_type(*$C$DW$T$19)
     581                      .dwattr $C$DW$29, DW_AT_location[DW_OP_bregx 0x24 8]
     582              $C$DW$30        .dwtag  DW_TAG_variable, DW_AT_name("srcAddrMSB")
     583                      .dwattr $C$DW$30, DW_AT_TI_symbol_name("_srcAddrMSB")
     584                      .dwattr $C$DW$30, DW_AT_type(*$C$DW$T$19)
     585                      .dwattr $C$DW$30, DW_AT_location[DW_OP_bregx 0x24 9]
     586              $C$DW$31        .dwtag  DW_TAG_variable, DW_AT_name("destAddrLSB")
     587                      .dwattr $C$DW$31, DW_AT_TI_symbol_name("_destAddrLSB")
     588                      .dwattr $C$DW$31, DW_AT_type(*$C$DW$T$19)
     589                      .dwattr $C$DW$31, DW_AT_location[DW_OP_bregx 0x24 10]
     590              $C$DW$32        .dwtag  DW_TAG_variable, DW_AT_name("destAddrMSB")
     591                      .dwattr $C$DW$32, DW_AT_TI_symbol_name("_destAddrMSB")
     592                      .dwattr $C$DW$32, DW_AT_type(*$C$DW$T$19)
     593                      .dwattr $C$DW$32, DW_AT_location[DW_OP_bregx 0x24 11]
     594 00026e C40C          MOV T0, *SP(#6) ; |307| 
     595 000270 EB08          MOV AC1, dbl(*SP(#4)) ; |307| 
         000272 18   
     596 000273 EB04          MOV AC0, dbl(*SP(#2)) ; |307| 
         000275 08   
TMS320C55x Assembler PC v4.4.1 Sun Sep 09 00:03:45 2018

Tools Copyright (c) 1996-2012 Texas Instruments Incorporated
csl_dat.asm                                                          PAGE   15

     597 000276 EB00          MOV XAR0, dbl(*SP(#0))
         000278 85   
     598                      .dwpsn  file "../c5535_bsl_revc/ezdsp5535_v1/c55xx_csl/src/csl_dat.c",line 314,column 5,is_stmt
     599 000279 ED00          MOV dbl(*SP(#0)), XAR3
         00027b BF   
     600 00027c 90B0          MOV XAR3, AC0
     601 00027e 6290          BCC $C$L18,AC0 != #0 ; |314| 
     602                                                      ; branchcc occurs ; |314| 
     603                      .dwpsn  file "../c5535_bsl_revc/ezdsp5535_v1/c55xx_csl/src/csl_dat.c",line 316,column 9,is_stmt
     604 000280 3E54          MOV #-5, T0
     605 000282 0604          B $C$L33  ; |316| 
         000284 DD   
     606                                                      ; branch occurs ; |316| 
     607 000285       $C$L18:    
     608                      .dwpsn  file "../c5535_bsl_revc/ezdsp5535_v1/c55xx_csl/src/csl_dat.c",line 319,column 5,is_stmt
     609              
     610 000285 A90C          MOV *SP(#6), AR1 ; |319| 
     611 000287 3D4A  ||      MOV #4, AR2
     612              
     613 000289 1298          CMPU AR1 >= AR2, TC1 ; |319| 
         00028b A4   
     614 00028c 62E4          BCC $C$L19,TC1 ; |319| 
     615                                                      ; branchcc occurs ; |319| 
     616                      .dwpsn  file "../c5535_bsl_revc/ezdsp5535_v1/c55xx_csl/src/csl_dat.c",line 321,column 9,is_stmt
     617 00028e 3E64          MOV #-6, T0
     618 000290 0604          B $C$L33  ; |321| 
         000292 CF   
     619                                                      ; branch occurs ; |321| 
     620 000293       $C$L19:    
     621                      .dwpsn  file "../c5535_bsl_revc/ezdsp5535_v1/c55xx_csl/src/csl_dat.c",line 324,column 5,is_stmt
     622 000293 7600          MOV #96, AC0 ; |324| 
         000295 6008 
     623 000297 ED04          MOV dbl(*SP(#2)), AC1 ; |324| 
         000299 18   
     624 00029a 1214          CMPU AC1 < AC0, TC1 ; |324| 
         00029c 04   
     625 00029d 0464          BCC $C$L20,TC1 ; |324| 
         00029f 21   
     626                                                      ; branchcc occurs ; |324| 
     627 0002a0 767F          MOV #32767, AC0 ; |324| 
         0002a2 FF08 
     628 0002a4 ED04          MOV dbl(*SP(#2)), AC1 ; |324| 
         0002a6 18   
     629 0002a7 1204          CMPU AC1 > AC0, TC1 ; |324| 
         0002a9 14   
     630 0002aa 0464          BCC $C$L20,TC1 ; |324| 
         0002ac 14   
     631                                                      ; branchcc occurs ; |324| 
     632                      .dwpsn  file "../c5535_bsl_revc/ezdsp5535_v1/c55xx_csl/src/csl_dat.c",line 327,column 9,is_stmt
     633 0002ad EC31          AMOV #65536, XAR3 ; |327| 
         0002af BE01 
         0002b1 0000 
     634 0002b3 ED04          MOV dbl(*SP(#2)), AC1 ; |327| 
         0002b5 18   
     635              
TMS320C55x Assembler PC v4.4.1 Sun Sep 09 00:03:45 2018

Tools Copyright (c) 1996-2012 Texas Instruments Incorporated
csl_dat.asm                                                          PAGE   16

     636 0002b8 5110          SFTL AC1, #1 ; |327| 
     637 0002b6 90B0  ||      MOV XAR3, AC0
     638              
     639 0002ba 2410          ADD AC1, AC0 ; |327| 
     640 0002bc EB04          MOV AC0, dbl(*SP(#2)) ; |327| 
         0002be 08   
     641                      .dwpsn  file "../c5535_bsl_revc/ezdsp5535_v1/c55xx_csl/src/csl_dat.c",line 329,column 5,is_stmt
     642 0002bf 4A3A          B $C$L22  ; |329| 
     643                                                      ; branch occurs ; |329| 
     644 0002c1       $C$L20:    
     645                      .dwpsn  file "../c5535_bsl_revc/ezdsp5535_v1/c55xx_csl/src/csl_dat.c",line 330,column 10,is_stmt
     646              
     647 0002c1 ED04          MOV dbl(*SP(#2)), AC1 ; |330| 
         0002c3 18   
     648 0002c4 3D00  ||      MOV #0, AC0 ; |330| 
     649              
     650 0002c6 7E80          OR #0x8000, AC0, AC0 ; |330| 
         0002c8 0000 
     651 0002ca 1214          CMPU AC1 < AC0, TC1 ; |330| 
         0002cc 04   
     652 0002cd 0464          BCC $C$L21,TC1 ; |330| 
         0002cf 25   
     653                                                      ; branchcc occurs ; |330| 
     654 0002d0 EC31          AMOV #163839, XAR3 ; |330| 
         0002d2 BE02 
         0002d4 7FFF 
     655 0002d6 ED04          MOV dbl(*SP(#2)), AC1 ; |330| 
         0002d8 18   
     656 0002d9 90B0          MOV XAR3, AC0
     657 0002db 1204          CMPU AC1 > AC0, TC1 ; |330| 
         0002dd 14   
     658 0002de 0464          BCC $C$L21,TC1 ; |330| 
         0002e0 14   
     659                                                      ; branchcc occurs ; |330| 
     660                      .dwpsn  file "../c5535_bsl_revc/ezdsp5535_v1/c55xx_csl/src/csl_dat.c",line 333,column 9,is_stmt
     661 0002e1 EC31          AMOV #524288, XAR3 ; |333| 
         0002e3 BE08 
         0002e5 0000 
     662 0002e7 ED04          MOV dbl(*SP(#2)), AC1 ; |333| 
         0002e9 18   
     663              
     664 0002ec 5110          SFTL AC1, #1 ; |333| 
     665 0002ea 90B0  ||      MOV XAR3, AC0
     666              
     667 0002ee 2410          ADD AC1, AC0 ; |333| 
     668 0002f0 EB04          MOV AC0, dbl(*SP(#2)) ; |333| 
         0002f2 08   
     669                      .dwpsn  file "../c5535_bsl_revc/ezdsp5535_v1/c55xx_csl/src/csl_dat.c",line 335,column 5,is_stmt
     670 0002f3 4A06          B $C$L22  ; |335| 
     671                                                      ; branch occurs ; |335| 
     672 0002f5       $C$L21:    
     673                      .dwpsn  file "../c5535_bsl_revc/ezdsp5535_v1/c55xx_csl/src/csl_dat.c",line 338,column 9,is_stmt
     674 0002f5 ED04          MOV dbl(*SP(#2)), AC0 ; |338| 
         0002f7 08   
     675 0002f8 EB04          MOV AC0, dbl(*SP(#2)) ; |338| 
TMS320C55x Assembler PC v4.4.1 Sun Sep 09 00:03:45 2018

Tools Copyright (c) 1996-2012 Texas Instruments Incorporated
csl_dat.asm                                                          PAGE   17

         0002fa 08   
     676 0002fb       $C$L22:    
     677                      .dwpsn  file "../c5535_bsl_revc/ezdsp5535_v1/c55xx_csl/src/csl_dat.c",line 341,column 5,is_stmt
     678 0002fb 7600          MOV #96, AC0 ; |341| 
         0002fd 6008 
     679 0002ff ED08          MOV dbl(*SP(#4)), AC1 ; |341| 
         000301 18   
     680 000302 1214          CMPU AC1 < AC0, TC1 ; |341| 
         000304 04   
     681 000305 0464          BCC $C$L23,TC1 ; |341| 
         000307 21   
     682                                                      ; branchcc occurs ; |341| 
     683 000308 767F          MOV #32767, AC0 ; |341| 
         00030a FF08 
     684 00030c ED08          MOV dbl(*SP(#4)), AC1 ; |341| 
         00030e 18   
     685 00030f 1204          CMPU AC1 > AC0, TC1 ; |341| 
         000311 14   
     686 000312 0464          BCC $C$L23,TC1 ; |341| 
         000314 14   
     687                                                      ; branchcc occurs ; |341| 
     688                      .dwpsn  file "../c5535_bsl_revc/ezdsp5535_v1/c55xx_csl/src/csl_dat.c",line 344,column 9,is_stmt
     689 000315 EC31          AMOV #65536, XAR3 ; |344| 
         000317 BE01 
         000319 0000 
     690 00031b ED08          MOV dbl(*SP(#4)), AC1 ; |344| 
         00031d 18   
     691              
     692 000320 5110          SFTL AC1, #1 ; |344| 
     693 00031e 90B0  ||      MOV XAR3, AC0
     694              
     695 000322 2410          ADD AC1, AC0 ; |344| 
     696 000324 EB08          MOV AC0, dbl(*SP(#4)) ; |344| 
         000326 08   
     697                      .dwpsn  file "../c5535_bsl_revc/ezdsp5535_v1/c55xx_csl/src/csl_dat.c",line 346,column 5,is_stmt
     698 000327 4A3A          B $C$L25  ; |346| 
     699                                                      ; branch occurs ; |346| 
     700 000329       $C$L23:    
     701                      .dwpsn  file "../c5535_bsl_revc/ezdsp5535_v1/c55xx_csl/src/csl_dat.c",line 347,column 10,is_stmt
     702              
     703 000329 ED08          MOV dbl(*SP(#4)), AC1 ; |347| 
         00032b 18   
     704 00032c 3D00  ||      MOV #0, AC0 ; |347| 
     705              
     706 00032e 7E80          OR #0x8000, AC0, AC0 ; |347| 
         000330 0000 
     707 000332 1214          CMPU AC1 < AC0, TC1 ; |347| 
         000334 04   
     708 000335 0464          BCC $C$L24,TC1 ; |347| 
         000337 25   
     709                                                      ; branchcc occurs ; |347| 
     710 000338 EC31          AMOV #163839, XAR3 ; |347| 
         00033a BE02 
         00033c 7FFF 
     711 00033e ED08          MOV dbl(*SP(#4)), AC1 ; |347| 
TMS320C55x Assembler PC v4.4.1 Sun Sep 09 00:03:45 2018

Tools Copyright (c) 1996-2012 Texas Instruments Incorporated
csl_dat.asm                                                          PAGE   18

         000340 18   
     712 000341 90B0          MOV XAR3, AC0
     713 000343 1204          CMPU AC1 > AC0, TC1 ; |347| 
         000345 14   
     714 000346 0464          BCC $C$L24,TC1 ; |347| 
         000348 14   
     715                                                      ; branchcc occurs ; |347| 
     716                      .dwpsn  file "../c5535_bsl_revc/ezdsp5535_v1/c55xx_csl/src/csl_dat.c",line 350,column 9,is_stmt
     717 000349 EC31          AMOV #524288, XAR3 ; |350| 
         00034b BE08 
         00034d 0000 
     718 00034f ED08          MOV dbl(*SP(#4)), AC1 ; |350| 
         000351 18   
     719              
     720 000354 5110          SFTL AC1, #1 ; |350| 
     721 000352 90B0  ||      MOV XAR3, AC0
     722              
     723 000356 2410          ADD AC1, AC0 ; |350| 
     724 000358 EB08          MOV AC0, dbl(*SP(#4)) ; |350| 
         00035a 08   
     725                      .dwpsn  file "../c5535_bsl_revc/ezdsp5535_v1/c55xx_csl/src/csl_dat.c",line 352,column 5,is_stmt
     726 00035b 4A06          B $C$L25  ; |352| 
     727                                                      ; branch occurs ; |352| 
     728 00035d       $C$L24:    
     729                      .dwpsn  file "../c5535_bsl_revc/ezdsp5535_v1/c55xx_csl/src/csl_dat.c",line 355,column 9,is_stmt
     730 00035d ED08          MOV dbl(*SP(#4)), AC0 ; |355| 
         00035f 08   
     731 000360 EB08          MOV AC0, dbl(*SP(#4)) ; |355| 
         000362 08   
     732 000363       $C$L25:    
     733                      .dwpsn  file "../c5535_bsl_revc/ezdsp5535_v1/c55xx_csl/src/csl_dat.c",line 357,column 5,is_stmt
     734 000363 ED04          MOV dbl(*SP(#2)), AC0 ; |357| 
         000365 08   
     735 000366 7DFF          AND #0xffff, AC0, AC0 ; |357| 
         000368 FF00 
     736 00036a C010          MOV AC0, *SP(#8) ; |357| 
     737                      .dwpsn  file "../c5535_bsl_revc/ezdsp5535_v1/c55xx_csl/src/csl_dat.c",line 358,column 5,is_stmt
     738 00036c ED04          MOV dbl(*SP(#2)), AC0 ; |358| 
         00036e 08   
     739 00036f BC12          MOV HI(AC0), *SP(#9) ; |358| 
     740                      .dwpsn  file "../c5535_bsl_revc/ezdsp5535_v1/c55xx_csl/src/csl_dat.c",line 359,column 5,is_stmt
     741 000371 ED08          MOV dbl(*SP(#4)), AC0 ; |359| 
         000373 08   
     742 000374 7DFF          AND #0xffff, AC0, AC0 ; |359| 
         000376 FF00 
     743 000378 C014          MOV AC0, *SP(#10) ; |359| 
     744                      .dwpsn  file "../c5535_bsl_revc/ezdsp5535_v1/c55xx_csl/src/csl_dat.c",line 360,column 5,is_stmt
     745 00037a ED08          MOV dbl(*SP(#4)), AC0 ; |360| 
         00037c 08   
     746 00037d BC16          MOV HI(AC0), *SP(#11) ; |360| 
     747                      .dwpsn  file "../c5535_bsl_revc/ezdsp5535_v1/c55xx_csl/src/csl_dat.c",line 362,column 5,is_stmt
     748 00037f ED00          MOV dbl(*SP(#0)), XAR3
         000381 BF   
     749 000382 A973          MOV *AR3(short(#1)), AR1 ; |362| 
     750 000384 C90E          MOV AR1, *SP(#7) ; |362| 
TMS320C55x Assembler PC v4.4.1 Sun Sep 09 00:03:45 2018

Tools Copyright (c) 1996-2012 Texas Instruments Incorporated
csl_dat.asm                                                          PAGE   19

     751                      .dwpsn  file "../c5535_bsl_revc/ezdsp5535_v1/c55xx_csl/src/csl_dat.c",line 363,column 11,is_stmt
     752 000386 1294          CMPU AR1 < AR2, TC1 ; |363| 
         000388 A4   
     753 000389 6D64          BCC $C$L31,TC1 ; |363| 
         00038b 03B2 
     754                                                      ; branchcc occurs ; |363| 
     755 00038d       $C$L26:    
     756 00038d       $C$DW$L$_DAT_copy$20$B:
     757                      .dwpsn  file "../c5535_bsl_revc/ezdsp5535_v1/c55xx_csl/src/csl_dat.c",line 365,column 9,is_stmt
     758 00038d F70E          SUB #4, *SP(#7) ; |365| 
         00038f FFFC 
     759                      .dwpsn  file "../c5535_bsl_revc/ezdsp5535_v1/c55xx_csl/src/csl_dat.c",line 363,column 11,is_stmt
     760 000391 A90E          MOV *SP(#7), AR1 ; |363| 
     761 000393 1298          CMPU AR1 >= AR2, TC1 ; |363| 
         000395 A4   
     762 000396 0464          BCC $C$L26,TC1 ; |363| 
         000398 F4   
     763                                                      ; branchcc occurs ; |363| 
     764 000399       $C$DW$L$_DAT_copy$20$E:
     765                      .dwpsn  file "../c5535_bsl_revc/ezdsp5535_v1/c55xx_csl/src/csl_dat.c",line 368,column 5,is_stmt
     766 000399 0603          B $C$L31  ; |368| 
         00039b A3   
     767                                                      ; branch occurs ; |368| 
     768 00039c       $C$L27:    
     769                      .dwpsn  file "../c5535_bsl_revc/ezdsp5535_v1/c55xx_csl/src/csl_dat.c",line 372,column 3,is_stmt
     770 00039c ED00          MOV dbl(*SP(#0)), XAR3
         00039e BF   
     771 00039f AB61          MOV *AR3, AR3 ; |372| 
     772 0003a1 A97B          MOV port(*AR3(short(#5))), AR1 ; |372| 
         0003a3 99   
     773 0003a4 ED00          MOV dbl(*SP(#0)), XAR3
         0003a6 BF   
     774 0003a7 AB61          MOV *AR3, AR3 ; |372| 
     775 0003a9 EC1E          BCLR @#15, AR1 ; |372| 
         0003ab 92   
     776 0003ac C97B          MOV AR1, port(*AR3(short(#5))) ; |372| 
         0003ae 9A   
     777                      .dwpsn  file "../c5535_bsl_revc/ezdsp5535_v1/c55xx_csl/src/csl_dat.c",line 375,column 3,is_stmt
     778 0003af ED00          MOV dbl(*SP(#0)), XAR3
         0003b1 BF   
     779 0003b2 AB61          MOV *AR3, AR3 ; |375| 
     780 0003b4 A961          MOV port(*AR3), AR1 ; |375| 
         0003b6 99   
     781 0003b7 ED00          MOV dbl(*SP(#0)), XAR3
         0003b9 BF   
     782 0003ba AB61          MOV *AR3, AR3 ; |375| 
     783 0003bc A910          MOV *SP(#8), AR1 ; |375| 
     784 0003be 1A00          OR #0x0000, AR1, AR1 ; |375| 
         0003c0 99   
     785 0003c1 C961          MOV AR1, port(*AR3) ; |375| 
         0003c3 9A   
     786                      .dwpsn  file "../c5535_bsl_revc/ezdsp5535_v1/c55xx_csl/src/csl_dat.c",line 377,column 3,is_stmt
     787 0003c4 ED00          MOV dbl(*SP(#0)), XAR3
         0003c6 BF   
     788 0003c7 AB61          MOV *AR3, AR3 ; |377| 
TMS320C55x Assembler PC v4.4.1 Sun Sep 09 00:03:45 2018

Tools Copyright (c) 1996-2012 Texas Instruments Incorporated
csl_dat.asm                                                          PAGE   20

     789 0003c9 A973          MOV port(*AR3(short(#1))), AR1 ; |377| 
         0003cb 99   
     790 0003cc ED00          MOV dbl(*SP(#0)), XAR3
         0003ce BF   
     791 0003cf AB61          MOV *AR3, AR3 ; |377| 
     792 0003d1 A912          MOV *SP(#9), AR1 ; |377| 
     793 0003d3 1A00          OR #0x0000, AR1, AR1 ; |377| 
         0003d5 99   
     794 0003d6 C973          MOV AR1, port(*AR3(short(#1))) ; |377| 
         0003d8 9A   
     795                      .dwpsn  file "../c5535_bsl_revc/ezdsp5535_v1/c55xx_csl/src/csl_dat.c",line 379,column 3,is_stmt
     796 0003d9 ED00          MOV dbl(*SP(#0)), XAR3
         0003db BF   
     797 0003dc AB61          MOV *AR3, AR3 ; |379| 
     798 0003de A975          MOV port(*AR3(short(#2))), AR1 ; |379| 
         0003e0 99   
     799 0003e1 ED00          MOV dbl(*SP(#0)), XAR3
         0003e3 BF   
     800 0003e4 AB61          MOV *AR3, AR3 ; |379| 
     801 0003e6 A914          MOV *SP(#10), AR1 ; |379| 
     802 0003e8 1A00          OR #0x0000, AR1, AR1 ; |379| 
         0003ea 99   
     803 0003eb C975          MOV AR1, port(*AR3(short(#2))) ; |379| 
         0003ed 9A   
     804                      .dwpsn  file "../c5535_bsl_revc/ezdsp5535_v1/c55xx_csl/src/csl_dat.c",line 381,column 3,is_stmt
     805 0003ee ED00          MOV dbl(*SP(#0)), XAR3
         0003f0 BF   
     806 0003f1 AB61          MOV *AR3, AR3 ; |381| 
     807 0003f3 A977          MOV port(*AR3(short(#3))), AR1 ; |381| 
         0003f5 99   
     808 0003f6 ED00          MOV dbl(*SP(#0)), XAR3
         0003f8 BF   
     809 0003f9 AB61          MOV *AR3, AR3 ; |381| 
     810 0003fb A916          MOV *SP(#11), AR1 ; |381| 
     811 0003fd 1A00          OR #0x0000, AR1, AR1 ; |381| 
         0003ff 99   
     812 000400 C977          MOV AR1, port(*AR3(short(#3))) ; |381| 
         000402 9A   
     813                      .dwpsn  file "../c5535_bsl_revc/ezdsp5535_v1/c55xx_csl/src/csl_dat.c",line 383,column 3,is_stmt
     814 000403 ED00          MOV dbl(*SP(#0)), XAR3
         000405 BF   
     815 000406 AB61          MOV *AR3, AR3 ; |383| 
     816 000408 A97B          MOV port(*AR3(short(#5))), AR1 ; |383| 
         00040a 99   
     817 00040b ED00          MOV dbl(*SP(#0)), XAR3
         00040d BF   
     818 00040e AB61          MOV *AR3, AR3 ; |383| 
     819 000410 7DFF          AND #0xffc7, AR1, AC0 ; |383| 
         000412 C709 
     820 000414 C07B          MOV AC0, port(*AR3(short(#5))) ; |383| 
         000416 9A   
     821                      .dwpsn  file "../c5535_bsl_revc/ezdsp5535_v1/c55xx_csl/src/csl_dat.c",line 386,column 3,is_stmt
     822 000417 ED00          MOV dbl(*SP(#0)), XAR3
         000419 BF   
     823 00041a AB61          MOV *AR3, AR3 ; |386| 
TMS320C55x Assembler PC v4.4.1 Sun Sep 09 00:03:45 2018

Tools Copyright (c) 1996-2012 Texas Instruments Incorporated
csl_dat.asm                                                          PAGE   21

     824 00041c A97B          MOV port(*AR3(short(#5))), AR1 ; |386| 
         00041e 99   
     825 00041f ED00          MOV dbl(*SP(#0)), XAR3
         000421 BF   
     826 000422 AB61          MOV *AR3, AR3 ; |386| 
     827 000424 7DFF          AND #0xff3f, AR1, AC0 ; |386| 
         000426 3F09 
     828 000428 C07B          MOV AC0, port(*AR3(short(#5))) ; |386| 
         00042a 9A   
     829                      .dwpsn  file "../c5535_bsl_revc/ezdsp5535_v1/c55xx_csl/src/csl_dat.c",line 389,column 3,is_stmt
     830 00042b ED00          MOV dbl(*SP(#0)), XAR3
         00042d BF   
     831 00042e AB61          MOV *AR3, AR3 ; |389| 
     832 000430 A97B          MOV port(*AR3(short(#5))), AR1 ; |389| 
         000432 99   
     833 000433 ED00          MOV dbl(*SP(#0)), XAR3
         000435 BF   
     834 000436 AB61          MOV *AR3, AR3 ; |389| 
     835 000438 7DFC          AND #0xfcff, AR1, AC0 ; |389| 
         00043a FF09 
     836 00043c C07B          MOV AC0, port(*AR3(short(#5))) ; |389| 
         00043e 9A   
     837                      .dwpsn  file "../c5535_bsl_revc/ezdsp5535_v1/c55xx_csl/src/csl_dat.c",line 392,column 3,is_stmt
     838 00043f ED00          MOV dbl(*SP(#0)), XAR3
         000441 BF   
     839 000442 AB61          MOV *AR3, AR3 ; |392| 
     840 000444 A979          MOV port(*AR3(short(#4))), AR1 ; |392| 
         000446 99   
     841 000447 ED00          MOV dbl(*SP(#0)), XAR3
         000449 BF   
     842 00044a AB61          MOV *AR3, AR3 ; |392| 
     843 00044c A90C          MOV *SP(#6), AR1 ; |392| 
     844 00044e 1A00          OR #0x0000, AR1, AR1 ; |392| 
         000450 99   
     845 000451 C979          MOV AR1, port(*AR3(short(#4))) ; |392| 
         000453 9A   
     846                      .dwpsn  file "../c5535_bsl_revc/ezdsp5535_v1/c55xx_csl/src/csl_dat.c",line 395,column 9,is_stmt
     847 000454 ED00          MOV dbl(*SP(#0)), XAR3
         000456 BF   
     848 000457 AB61          MOV *AR3, AR3 ; |395| 
     849 000459 A97B          MOV port(*AR3(short(#5))), AR1 ; |395| 
         00045b 99   
     850 00045c ED00          MOV dbl(*SP(#0)), XAR3
         00045e BF   
     851 00045f AB61          MOV *AR3, AR3 ; |395| 
     852 000461 EC1E          BCLR @#15, AR1 ; |395| 
         000463 92   
     853 000464 EC1E          BSET @#15, AR1 ; |395| 
         000466 90   
     854 000467 C97B          MOV AR1, port(*AR3(short(#5))) ; |395| 
         000469 9A   
     855                      .dwpsn  file "../c5535_bsl_revc/ezdsp5535_v1/c55xx_csl/src/csl_dat.c",line 397,column 14,is_stmt
     856 00046a 0602          B $C$L32  ; |397| 
         00046c F3   
     857                                                      ; branch occurs ; |397| 
TMS320C55x Assembler PC v4.4.1 Sun Sep 09 00:03:45 2018

Tools Copyright (c) 1996-2012 Texas Instruments Incorporated
csl_dat.asm                                                          PAGE   22

     858 00046d       $C$L28:    
     859                      .dwpsn  file "../c5535_bsl_revc/ezdsp5535_v1/c55xx_csl/src/csl_dat.c",line 401,column 3,is_stmt
     860 00046d ED00          MOV dbl(*SP(#0)), XAR3
         00046f BF   
     861 000470 7600          MOV #37, T0 ; |401| 
         000472 2548 
     862 000474 AB61          MOV *AR3, AR3 ; |401| 
     863 000476 A96B          MOV port(*AR3(T0)), AR1 ; |401| 
         000478 99   
     864 000479 ED00          MOV dbl(*SP(#0)), XAR3
         00047b BF   
     865 00047c AB61          MOV *AR3, AR3 ; |401| 
     866 00047e EC1E          BCLR @#15, AR1 ; |401| 
         000480 92   
     867 000481 C96B          MOV AR1, port(*AR3(T0)) ; |401| 
         000483 9A   
     868                      .dwpsn  file "../c5535_bsl_revc/ezdsp5535_v1/c55xx_csl/src/csl_dat.c",line 404,column 3,is_stmt
     869 000484 ED00          MOV dbl(*SP(#0)), XAR3
         000486 BF   
     870 000487 7600          MOV #32, T0 ; |404| 
         000489 2048 
     871 00048b AB61          MOV *AR3, AR3 ; |404| 
     872 00048d A96B          MOV port(*AR3(T0)), AR1 ; |404| 
         00048f 99   
     873 000490 ED00          MOV dbl(*SP(#0)), XAR3
         000492 BF   
     874 000493 AB61          MOV *AR3, AR3 ; |404| 
     875 000495 A910          MOV *SP(#8), AR1 ; |404| 
     876 000497 1A00          OR #0x0000, AR1, AR1 ; |404| 
         000499 99   
     877 00049a C96B          MOV AR1, port(*AR3(T0)) ; |404| 
         00049c 9A   
     878                      .dwpsn  file "../c5535_bsl_revc/ezdsp5535_v1/c55xx_csl/src/csl_dat.c",line 406,column 3,is_stmt
     879 00049d ED00          MOV dbl(*SP(#0)), XAR3
         00049f BF   
     880 0004a0 7600          MOV #33, T0 ; |406| 
         0004a2 2148 
     881 0004a4 AB61          MOV *AR3, AR3 ; |406| 
     882 0004a6 A96B          MOV port(*AR3(T0)), AR1 ; |406| 
         0004a8 99   
     883 0004a9 ED00          MOV dbl(*SP(#0)), XAR3
         0004ab BF   
     884 0004ac AB61          MOV *AR3, AR3 ; |406| 
     885 0004ae A912          MOV *SP(#9), AR1 ; |406| 
     886 0004b0 1A00          OR #0x0000, AR1, AR1 ; |406| 
         0004b2 99   
     887 0004b3 C96B          MOV AR1, port(*AR3(T0)) ; |406| 
         0004b5 9A   
     888                      .dwpsn  file "../c5535_bsl_revc/ezdsp5535_v1/c55xx_csl/src/csl_dat.c",line 408,column 3,is_stmt
     889 0004b6 ED00          MOV dbl(*SP(#0)), XAR3
         0004b8 BF   
     890 0004b9 7600          MOV #34, T0 ; |408| 
         0004bb 2248 
     891 0004bd AB61          MOV *AR3, AR3 ; |408| 
     892 0004bf A96B          MOV port(*AR3(T0)), AR1 ; |408| 
TMS320C55x Assembler PC v4.4.1 Sun Sep 09 00:03:45 2018

Tools Copyright (c) 1996-2012 Texas Instruments Incorporated
csl_dat.asm                                                          PAGE   23

         0004c1 99   
     893 0004c2 ED00          MOV dbl(*SP(#0)), XAR3
         0004c4 BF   
     894 0004c5 AB61          MOV *AR3, AR3 ; |408| 
     895 0004c7 A914          MOV *SP(#10), AR1 ; |408| 
     896 0004c9 1A00          OR #0x0000, AR1, AR1 ; |408| 
         0004cb 99   
     897 0004cc C96B          MOV AR1, port(*AR3(T0)) ; |408| 
         0004ce 9A   
     898                      .dwpsn  file "../c5535_bsl_revc/ezdsp5535_v1/c55xx_csl/src/csl_dat.c",line 410,column 3,is_stmt
     899 0004cf ED00          MOV dbl(*SP(#0)), XAR3
         0004d1 BF   
     900 0004d2 7600          MOV #35, T0 ; |410| 
         0004d4 2348 
     901 0004d6 AB61          MOV *AR3, AR3 ; |410| 
     902 0004d8 A96B          MOV port(*AR3(T0)), AR1 ; |410| 
         0004da 99   
     903 0004db ED00          MOV dbl(*SP(#0)), XAR3
         0004dd BF   
     904 0004de AB61          MOV *AR3, AR3 ; |410| 
     905 0004e0 A916          MOV *SP(#11), AR1 ; |410| 
     906 0004e2 1A00          OR #0x0000, AR1, AR1 ; |410| 
         0004e4 99   
     907 0004e5 C96B          MOV AR1, port(*AR3(T0)) ; |410| 
         0004e7 9A   
     908                      .dwpsn  file "../c5535_bsl_revc/ezdsp5535_v1/c55xx_csl/src/csl_dat.c",line 412,column 3,is_stmt
     909 0004e8 ED00          MOV dbl(*SP(#0)), XAR3
         0004ea BF   
     910 0004eb 7600          MOV #37, T0 ; |412| 
         0004ed 2548 
     911 0004ef AB61          MOV *AR3, AR3 ; |412| 
     912 0004f1 A96B          MOV port(*AR3(T0)), AR1 ; |412| 
         0004f3 99   
     913 0004f4 ED00          MOV dbl(*SP(#0)), XAR3
         0004f6 BF   
     914 0004f7 AB61          MOV *AR3, AR3 ; |412| 
     915 0004f9 7DFF          AND #0xffc7, AR1, AC0 ; |412| 
         0004fb C709 
     916 0004fd C06B          MOV AC0, port(*AR3(T0)) ; |412| 
         0004ff 9A   
     917                      .dwpsn  file "../c5535_bsl_revc/ezdsp5535_v1/c55xx_csl/src/csl_dat.c",line 415,column 3,is_stmt
     918 000500 ED00          MOV dbl(*SP(#0)), XAR3
         000502 BF   
     919 000503 AB61          MOV *AR3, AR3 ; |415| 
     920 000505 A96B          MOV port(*AR3(T0)), AR1 ; |415| 
         000507 99   
     921 000508 ED00          MOV dbl(*SP(#0)), XAR3
         00050a BF   
     922 00050b AB61          MOV *AR3, AR3 ; |415| 
     923 00050d 7DFF          AND #0xff3f, AR1, AC0 ; |415| 
         00050f 3F09 
     924 000511 C06B          MOV AC0, port(*AR3(T0)) ; |415| 
         000513 9A   
     925                      .dwpsn  file "../c5535_bsl_revc/ezdsp5535_v1/c55xx_csl/src/csl_dat.c",line 418,column 3,is_stmt
     926 000514 ED00          MOV dbl(*SP(#0)), XAR3
TMS320C55x Assembler PC v4.4.1 Sun Sep 09 00:03:45 2018

Tools Copyright (c) 1996-2012 Texas Instruments Incorporated
csl_dat.asm                                                          PAGE   24

         000516 BF   
     927 000517 AB61          MOV *AR3, AR3 ; |418| 
     928 000519 A96B          MOV port(*AR3(T0)), AR1 ; |418| 
         00051b 99   
     929 00051c ED00          MOV dbl(*SP(#0)), XAR3
         00051e BF   
     930 00051f AB61          MOV *AR3, AR3 ; |418| 
     931 000521 7DFC          AND #0xfcff, AR1, AC0 ; |418| 
         000523 FF09 
     932 000525 C06B          MOV AC0, port(*AR3(T0)) ; |418| 
         000527 9A   
     933                      .dwpsn  file "../c5535_bsl_revc/ezdsp5535_v1/c55xx_csl/src/csl_dat.c",line 421,column 3,is_stmt
     934 000528 ED00          MOV dbl(*SP(#0)), XAR3
         00052a BF   
     935 00052b 7600          MOV #36, T0 ; |421| 
         00052d 2448 
     936 00052f AB61          MOV *AR3, AR3 ; |421| 
     937 000531 A96B          MOV port(*AR3(T0)), AR1 ; |421| 
         000533 99   
     938 000534 ED00          MOV dbl(*SP(#0)), XAR3
         000536 BF   
     939 000537 AB61          MOV *AR3, AR3 ; |421| 
     940 000539 A90C          MOV *SP(#6), AR1 ; |421| 
     941 00053b 1A00          OR #0x0000, AR1, AR1 ; |421| 
         00053d 99   
     942 00053e C96B          MOV AR1, port(*AR3(T0)) ; |421| 
         000540 9A   
     943                      .dwpsn  file "../c5535_bsl_revc/ezdsp5535_v1/c55xx_csl/src/csl_dat.c",line 424,column 9,is_stmt
     944 000541 ED00          MOV dbl(*SP(#0)), XAR3
         000543 BF   
     945 000544 7600          MOV #37, T0 ; |424| 
         000546 2548 
     946 000548 AB61          MOV *AR3, AR3 ; |424| 
     947 00054a A96B          MOV port(*AR3(T0)), AR1 ; |424| 
         00054c 99   
     948 00054d ED00          MOV dbl(*SP(#0)), XAR3
         00054f BF   
     949 000550 AB61          MOV *AR3, AR3 ; |424| 
     950 000552 EC1E          BCLR @#15, AR1 ; |424| 
         000554 92   
     951 000555 EC1E          BSET @#15, AR1 ; |424| 
         000557 90   
     952 000558 C96B          MOV AR1, port(*AR3(T0)) ; |424| 
         00055a 9A   
     953                      .dwpsn  file "../c5535_bsl_revc/ezdsp5535_v1/c55xx_csl/src/csl_dat.c",line 426,column 14,is_stmt
     954 00055b 0602          B $C$L32  ; |426| 
         00055d 02   
     955                                                      ; branch occurs ; |426| 
     956 00055e       $C$L29:    
     957                      .dwpsn  file "../c5535_bsl_revc/ezdsp5535_v1/c55xx_csl/src/csl_dat.c",line 430,column 3,is_stmt
     958 00055e ED00          MOV dbl(*SP(#0)), XAR3
         000560 BF   
     959 000561 7600          MOV #69, T0 ; |430| 
         000563 4548 
     960 000565 AB61          MOV *AR3, AR3 ; |430| 
TMS320C55x Assembler PC v4.4.1 Sun Sep 09 00:03:45 2018

Tools Copyright (c) 1996-2012 Texas Instruments Incorporated
csl_dat.asm                                                          PAGE   25

     961 000567 A96B          MOV port(*AR3(T0)), AR1 ; |430| 
         000569 99   
     962 00056a ED00          MOV dbl(*SP(#0)), XAR3
         00056c BF   
     963 00056d AB61          MOV *AR3, AR3 ; |430| 
     964 00056f EC1E          BCLR @#15, AR1 ; |430| 
         000571 92   
     965 000572 C96B          MOV AR1, port(*AR3(T0)) ; |430| 
         000574 9A   
     966                      .dwpsn  file "../c5535_bsl_revc/ezdsp5535_v1/c55xx_csl/src/csl_dat.c",line 433,column 3,is_stmt
     967 000575 ED00          MOV dbl(*SP(#0)), XAR3
         000577 BF   
     968 000578 7600          MOV #64, T0 ; |433| 
         00057a 4048 
     969 00057c AB61          MOV *AR3, AR3 ; |433| 
     970 00057e A96B          MOV port(*AR3(T0)), AR1 ; |433| 
         000580 99   
     971 000581 ED00          MOV dbl(*SP(#0)), XAR3
         000583 BF   
     972 000584 AB61          MOV *AR3, AR3 ; |433| 
     973 000586 A910          MOV *SP(#8), AR1 ; |433| 
     974 000588 1A00          OR #0x0000, AR1, AR1 ; |433| 
         00058a 99   
     975 00058b C96B          MOV AR1, port(*AR3(T0)) ; |433| 
         00058d 9A   
     976                      .dwpsn  file "../c5535_bsl_revc/ezdsp5535_v1/c55xx_csl/src/csl_dat.c",line 435,column 3,is_stmt
     977 00058e ED00          MOV dbl(*SP(#0)), XAR3
         000590 BF   
     978 000591 7600          MOV #65, T0 ; |435| 
         000593 4148 
     979 000595 AB61          MOV *AR3, AR3 ; |435| 
     980 000597 A96B          MOV port(*AR3(T0)), AR1 ; |435| 
         000599 99   
     981 00059a ED00          MOV dbl(*SP(#0)), XAR3
         00059c BF   
     982 00059d AB61          MOV *AR3, AR3 ; |435| 
     983 00059f A912          MOV *SP(#9), AR1 ; |435| 
     984 0005a1 1A00          OR #0x0000, AR1, AR1 ; |435| 
         0005a3 99   
     985 0005a4 C96B          MOV AR1, port(*AR3(T0)) ; |435| 
         0005a6 9A   
     986                      .dwpsn  file "../c5535_bsl_revc/ezdsp5535_v1/c55xx_csl/src/csl_dat.c",line 437,column 3,is_stmt
     987 0005a7 ED00          MOV dbl(*SP(#0)), XAR3
         0005a9 BF   
     988 0005aa 7600          MOV #66, T0 ; |437| 
         0005ac 4248 
     989 0005ae AB61          MOV *AR3, AR3 ; |437| 
     990 0005b0 A96B          MOV port(*AR3(T0)), AR1 ; |437| 
         0005b2 99   
     991 0005b3 ED00          MOV dbl(*SP(#0)), XAR3
         0005b5 BF   
     992 0005b6 AB61          MOV *AR3, AR3 ; |437| 
     993 0005b8 A914          MOV *SP(#10), AR1 ; |437| 
     994 0005ba 1A00          OR #0x0000, AR1, AR1 ; |437| 
         0005bc 99   
TMS320C55x Assembler PC v4.4.1 Sun Sep 09 00:03:45 2018

Tools Copyright (c) 1996-2012 Texas Instruments Incorporated
csl_dat.asm                                                          PAGE   26

     995 0005bd C96B          MOV AR1, port(*AR3(T0)) ; |437| 
         0005bf 9A   
     996                      .dwpsn  file "../c5535_bsl_revc/ezdsp5535_v1/c55xx_csl/src/csl_dat.c",line 439,column 3,is_stmt
     997 0005c0 ED00          MOV dbl(*SP(#0)), XAR3
         0005c2 BF   
     998 0005c3 7600          MOV #67, T0 ; |439| 
         0005c5 4348 
     999 0005c7 AB61          MOV *AR3, AR3 ; |439| 
    1000 0005c9 A96B          MOV port(*AR3(T0)), AR1 ; |439| 
         0005cb 99   
    1001 0005cc ED00          MOV dbl(*SP(#0)), XAR3
         0005ce BF   
    1002 0005cf AB61          MOV *AR3, AR3 ; |439| 
    1003 0005d1 A916          MOV *SP(#11), AR1 ; |439| 
    1004 0005d3 1A00          OR #0x0000, AR1, AR1 ; |439| 
         0005d5 99   
    1005 0005d6 C96B          MOV AR1, port(*AR3(T0)) ; |439| 
         0005d8 9A   
    1006                      .dwpsn  file "../c5535_bsl_revc/ezdsp5535_v1/c55xx_csl/src/csl_dat.c",line 441,column 3,is_stmt
    1007 0005d9 ED00          MOV dbl(*SP(#0)), XAR3
         0005db BF   
    1008 0005dc 7600          MOV #69, T0 ; |441| 
         0005de 4548 
    1009 0005e0 AB61          MOV *AR3, AR3 ; |441| 
    1010 0005e2 A96B          MOV port(*AR3(T0)), AR1 ; |441| 
         0005e4 99   
    1011 0005e5 ED00          MOV dbl(*SP(#0)), XAR3
         0005e7 BF   
    1012 0005e8 AB61          MOV *AR3, AR3 ; |441| 
    1013 0005ea 7DFF          AND #0xffc7, AR1, AC0 ; |441| 
         0005ec C709 
    1014 0005ee C06B          MOV AC0, port(*AR3(T0)) ; |441| 
         0005f0 9A   
    1015                      .dwpsn  file "../c5535_bsl_revc/ezdsp5535_v1/c55xx_csl/src/csl_dat.c",line 444,column 3,is_stmt
    1016 0005f1 ED00          MOV dbl(*SP(#0)), XAR3
         0005f3 BF   
    1017 0005f4 AB61          MOV *AR3, AR3 ; |444| 
    1018 0005f6 A96B          MOV port(*AR3(T0)), AR1 ; |444| 
         0005f8 99   
    1019 0005f9 ED00          MOV dbl(*SP(#0)), XAR3
         0005fb BF   
    1020 0005fc AB61          MOV *AR3, AR3 ; |444| 
    1021 0005fe 7DFF          AND #0xff3f, AR1, AC0 ; |444| 
         000600 3F09 
    1022 000602 C06B          MOV AC0, port(*AR3(T0)) ; |444| 
         000604 9A   
    1023                      .dwpsn  file "../c5535_bsl_revc/ezdsp5535_v1/c55xx_csl/src/csl_dat.c",line 447,column 3,is_stmt
    1024 000605 ED00          MOV dbl(*SP(#0)), XAR3
         000607 BF   
    1025 000608 AB61          MOV *AR3, AR3 ; |447| 
    1026 00060a A96B          MOV port(*AR3(T0)), AR1 ; |447| 
         00060c 99   
    1027 00060d ED00          MOV dbl(*SP(#0)), XAR3
         00060f BF   
    1028 000610 AB61          MOV *AR3, AR3 ; |447| 
TMS320C55x Assembler PC v4.4.1 Sun Sep 09 00:03:45 2018

Tools Copyright (c) 1996-2012 Texas Instruments Incorporated
csl_dat.asm                                                          PAGE   27

    1029 000612 7DFC          AND #0xfcff, AR1, AC0 ; |447| 
         000614 FF09 
    1030 000616 C06B          MOV AC0, port(*AR3(T0)) ; |447| 
         000618 9A   
    1031                      .dwpsn  file "../c5535_bsl_revc/ezdsp5535_v1/c55xx_csl/src/csl_dat.c",line 450,column 3,is_stmt
    1032 000619 ED00          MOV dbl(*SP(#0)), XAR3
         00061b BF   
    1033 00061c 7600          MOV #68, T0 ; |450| 
         00061e 4448 
    1034 000620 AB61          MOV *AR3, AR3 ; |450| 
    1035 000622 A96B          MOV port(*AR3(T0)), AR1 ; |450| 
         000624 99   
    1036 000625 ED00          MOV dbl(*SP(#0)), XAR3
         000627 BF   
    1037 000628 AB61          MOV *AR3, AR3 ; |450| 
    1038 00062a A90C          MOV *SP(#6), AR1 ; |450| 
    1039 00062c 1A00          OR #0x0000, AR1, AR1 ; |450| 
         00062e 99   
    1040 00062f C96B          MOV AR1, port(*AR3(T0)) ; |450| 
         000631 9A   
    1041                      .dwpsn  file "../c5535_bsl_revc/ezdsp5535_v1/c55xx_csl/src/csl_dat.c",line 453,column 9,is_stmt
    1042 000632 ED00          MOV dbl(*SP(#0)), XAR3
         000634 BF   
    1043 000635 7600          MOV #69, T0 ; |453| 
         000637 4548 
    1044 000639 AB61          MOV *AR3, AR3 ; |453| 
    1045 00063b A96B          MOV port(*AR3(T0)), AR1 ; |453| 
         00063d 99   
    1046 00063e ED00          MOV dbl(*SP(#0)), XAR3
         000640 BF   
    1047 000641 AB61          MOV *AR3, AR3 ; |453| 
    1048 000643 EC1E          BCLR @#15, AR1 ; |453| 
         000645 92   
    1049 000646 EC1E          BSET @#15, AR1 ; |453| 
         000648 90   
    1050 000649 C96B          MOV AR1, port(*AR3(T0)) ; |453| 
         00064b 9A   
    1051                      .dwpsn  file "../c5535_bsl_revc/ezdsp5535_v1/c55xx_csl/src/csl_dat.c",line 455,column 14,is_stmt
    1052 00064c 0601          B $C$L32  ; |455| 
         00064e 11   
    1053                                                      ; branch occurs ; |455| 
    1054 00064f       $C$L30:    
    1055                      .dwpsn  file "../c5535_bsl_revc/ezdsp5535_v1/c55xx_csl/src/csl_dat.c",line 459,column 3,is_stmt
    1056 00064f ED00          MOV dbl(*SP(#0)), XAR3
         000651 BF   
    1057 000652 7600          MOV #101, T0 ; |459| 
         000654 6548 
    1058 000656 AB61          MOV *AR3, AR3 ; |459| 
    1059 000658 A96B          MOV port(*AR3(T0)), AR1 ; |459| 
         00065a 99   
    1060 00065b ED00          MOV dbl(*SP(#0)), XAR3
         00065d BF   
    1061 00065e AB61          MOV *AR3, AR3 ; |459| 
    1062 000660 EC1E          BCLR @#15, AR1 ; |459| 
         000662 92   
TMS320C55x Assembler PC v4.4.1 Sun Sep 09 00:03:45 2018

Tools Copyright (c) 1996-2012 Texas Instruments Incorporated
csl_dat.asm                                                          PAGE   28

    1063 000663 C96B          MOV AR1, port(*AR3(T0)) ; |459| 
         000665 9A   
    1064                      .dwpsn  file "../c5535_bsl_revc/ezdsp5535_v1/c55xx_csl/src/csl_dat.c",line 462,column 3,is_stmt
    1065 000666 ED00          MOV dbl(*SP(#0)), XAR3
         000668 BF   
    1066 000669 7600          MOV #96, T0 ; |462| 
         00066b 6048 
    1067 00066d AB61          MOV *AR3, AR3 ; |462| 
    1068 00066f A96B          MOV port(*AR3(T0)), AR1 ; |462| 
         000671 99   
    1069 000672 ED00          MOV dbl(*SP(#0)), XAR3
         000674 BF   
    1070 000675 AB61          MOV *AR3, AR3 ; |462| 
    1071 000677 A910          MOV *SP(#8), AR1 ; |462| 
    1072 000679 1A00          OR #0x0000, AR1, AR1 ; |462| 
         00067b 99   
    1073 00067c C96B          MOV AR1, port(*AR3(T0)) ; |462| 
         00067e 9A   
    1074                      .dwpsn  file "../c5535_bsl_revc/ezdsp5535_v1/c55xx_csl/src/csl_dat.c",line 464,column 3,is_stmt
    1075 00067f ED00          MOV dbl(*SP(#0)), XAR3
         000681 BF   
    1076 000682 7600          MOV #97, T0 ; |464| 
         000684 6148 
    1077 000686 AB61          MOV *AR3, AR3 ; |464| 
    1078 000688 A96B          MOV port(*AR3(T0)), AR1 ; |464| 
         00068a 99   
    1079 00068b ED00          MOV dbl(*SP(#0)), XAR3
         00068d BF   
    1080 00068e AB61          MOV *AR3, AR3 ; |464| 
    1081 000690 A912          MOV *SP(#9), AR1 ; |464| 
    1082 000692 1A00          OR #0x0000, AR1, AR1 ; |464| 
         000694 99   
    1083 000695 C96B          MOV AR1, port(*AR3(T0)) ; |464| 
         000697 9A   
    1084                      .dwpsn  file "../c5535_bsl_revc/ezdsp5535_v1/c55xx_csl/src/csl_dat.c",line 466,column 3,is_stmt
    1085 000698 ED00          MOV dbl(*SP(#0)), XAR3
         00069a BF   
    1086 00069b 7600          MOV #98, T0 ; |466| 
         00069d 6248 
    1087 00069f AB61          MOV *AR3, AR3 ; |466| 
    1088 0006a1 A96B          MOV port(*AR3(T0)), AR1 ; |466| 
         0006a3 99   
    1089 0006a4 ED00          MOV dbl(*SP(#0)), XAR3
         0006a6 BF   
    1090 0006a7 AB61          MOV *AR3, AR3 ; |466| 
    1091 0006a9 A914          MOV *SP(#10), AR1 ; |466| 
    1092 0006ab 1A00          OR #0x0000, AR1, AR1 ; |466| 
         0006ad 99   
    1093 0006ae C96B          MOV AR1, port(*AR3(T0)) ; |466| 
         0006b0 9A   
    1094                      .dwpsn  file "../c5535_bsl_revc/ezdsp5535_v1/c55xx_csl/src/csl_dat.c",line 468,column 3,is_stmt
    1095 0006b1 ED00          MOV dbl(*SP(#0)), XAR3
         0006b3 BF   
    1096 0006b4 7600          MOV #99, T0 ; |468| 
         0006b6 6348 
TMS320C55x Assembler PC v4.4.1 Sun Sep 09 00:03:45 2018

Tools Copyright (c) 1996-2012 Texas Instruments Incorporated
csl_dat.asm                                                          PAGE   29

    1097 0006b8 AB61          MOV *AR3, AR3 ; |468| 
    1098 0006ba A96B          MOV port(*AR3(T0)), AR1 ; |468| 
         0006bc 99   
    1099 0006bd ED00          MOV dbl(*SP(#0)), XAR3
         0006bf BF   
    1100 0006c0 AB61          MOV *AR3, AR3 ; |468| 
    1101 0006c2 A916          MOV *SP(#11), AR1 ; |468| 
    1102 0006c4 1A00          OR #0x0000, AR1, AR1 ; |468| 
         0006c6 99   
    1103 0006c7 C96B          MOV AR1, port(*AR3(T0)) ; |468| 
         0006c9 9A   
    1104                      .dwpsn  file "../c5535_bsl_revc/ezdsp5535_v1/c55xx_csl/src/csl_dat.c",line 470,column 3,is_stmt
    1105 0006ca ED00          MOV dbl(*SP(#0)), XAR3
         0006cc BF   
    1106 0006cd 7600          MOV #101, T0 ; |470| 
         0006cf 6548 
    1107 0006d1 AB61          MOV *AR3, AR3 ; |470| 
    1108 0006d3 A96B          MOV port(*AR3(T0)), AR1 ; |470| 
         0006d5 99   
    1109 0006d6 ED00          MOV dbl(*SP(#0)), XAR3
         0006d8 BF   
    1110 0006d9 AB61          MOV *AR3, AR3 ; |470| 
    1111 0006db 7DFF          AND #0xffc7, AR1, AC0 ; |470| 
         0006dd C709 
    1112 0006df C06B          MOV AC0, port(*AR3(T0)) ; |470| 
         0006e1 9A   
    1113                      .dwpsn  file "../c5535_bsl_revc/ezdsp5535_v1/c55xx_csl/src/csl_dat.c",line 473,column 3,is_stmt
    1114 0006e2 ED00          MOV dbl(*SP(#0)), XAR3
         0006e4 BF   
    1115 0006e5 AB61          MOV *AR3, AR3 ; |473| 
    1116 0006e7 A96B          MOV port(*AR3(T0)), AR1 ; |473| 
         0006e9 99   
    1117 0006ea ED00          MOV dbl(*SP(#0)), XAR3
         0006ec BF   
    1118 0006ed AB61          MOV *AR3, AR3 ; |473| 
    1119 0006ef 7DFF          AND #0xff3f, AR1, AC0 ; |473| 
         0006f1 3F09 
    1120 0006f3 C06B          MOV AC0, port(*AR3(T0)) ; |473| 
         0006f5 9A   
    1121                      .dwpsn  file "../c5535_bsl_revc/ezdsp5535_v1/c55xx_csl/src/csl_dat.c",line 476,column 3,is_stmt
    1122 0006f6 ED00          MOV dbl(*SP(#0)), XAR3
         0006f8 BF   
    1123 0006f9 AB61          MOV *AR3, AR3 ; |476| 
    1124 0006fb A96B          MOV port(*AR3(T0)), AR1 ; |476| 
         0006fd 99   
    1125 0006fe ED00          MOV dbl(*SP(#0)), XAR3
         000700 BF   
    1126 000701 AB61          MOV *AR3, AR3 ; |476| 
    1127 000703 7DFC          AND #0xfcff, AR1, AC0 ; |476| 
         000705 FF09 
    1128 000707 C06B          MOV AC0, port(*AR3(T0)) ; |476| 
         000709 9A   
    1129                      .dwpsn  file "../c5535_bsl_revc/ezdsp5535_v1/c55xx_csl/src/csl_dat.c",line 479,column 3,is_stmt
    1130 00070a ED00          MOV dbl(*SP(#0)), XAR3
         00070c BF   
TMS320C55x Assembler PC v4.4.1 Sun Sep 09 00:03:45 2018

Tools Copyright (c) 1996-2012 Texas Instruments Incorporated
csl_dat.asm                                                          PAGE   30

    1131 00070d 7600          MOV #100, T0 ; |479| 
         00070f 6448 
    1132 000711 AB61          MOV *AR3, AR3 ; |479| 
    1133 000713 A96B          MOV port(*AR3(T0)), AR1 ; |479| 
         000715 99   
    1134 000716 ED00          MOV dbl(*SP(#0)), XAR3
         000718 BF   
    1135 000719 AB61          MOV *AR3, AR3 ; |479| 
    1136 00071b A90C          MOV *SP(#6), AR1 ; |479| 
    1137 00071d 1A00          OR #0x0000, AR1, AR1 ; |479| 
         00071f 99   
    1138 000720 C96B          MOV AR1, port(*AR3(T0)) ; |479| 
         000722 9A   
    1139                      .dwpsn  file "../c5535_bsl_revc/ezdsp5535_v1/c55xx_csl/src/csl_dat.c",line 482,column 9,is_stmt
    1140 000723 ED00          MOV dbl(*SP(#0)), XAR3
         000725 BF   
    1141 000726 7600          MOV #101, T0 ; |482| 
         000728 6548 
    1142 00072a AB61          MOV *AR3, AR3 ; |482| 
    1143 00072c A96B          MOV port(*AR3(T0)), AR1 ; |482| 
         00072e 99   
    1144 00072f ED00          MOV dbl(*SP(#0)), XAR3
         000731 BF   
    1145 000732 AB61          MOV *AR3, AR3 ; |482| 
    1146 000734 EC1E          BCLR @#15, AR1 ; |482| 
         000736 92   
    1147 000737 EC1E          BSET @#15, AR1 ; |482| 
         000739 90   
    1148 00073a C96B          MOV AR1, port(*AR3(T0)) ; |482| 
         00073c 9A   
    1149                      .dwpsn  file "../c5535_bsl_revc/ezdsp5535_v1/c55xx_csl/src/csl_dat.c",line 484,column 14,is_stmt
    1150 00073d 4A21          B $C$L32  ; |484| 
    1151                                                      ; branch occurs ; |484| 
    1152 00073f       $C$L31:    
    1153                      .dwpsn  file "../c5535_bsl_revc/ezdsp5535_v1/c55xx_csl/src/csl_dat.c",line 368,column 5,is_stmt
    1154 00073f A90E          MOV *SP(#7), AR1 ; |368| 
    1155 000741 6D09          BCC $C$L27,AR1 == #0 ; |368| 
         000743 FC57 
    1156                                                      ; branchcc occurs ; |368| 
    1157 000745 3C1A          MOV #1, AR2
    1158 000747 1290          CMP AR1 == AR2, TC1 ; |368| 
         000749 A0   
    1159 00074a 6D64          BCC $C$L28,TC1 ; |368| 
         00074c FD1F 
    1160                                                      ; branchcc occurs ; |368| 
    1161 00074e 3C2A          MOV #2, AR2
    1162 000750 1290          CMP AR1 == AR2, TC1 ; |368| 
         000752 A0   
    1163 000753 6D64          BCC $C$L29,TC1 ; |368| 
         000755 FE07 
    1164                                                      ; branchcc occurs ; |368| 
    1165 000757 3C3A          MOV #3, AR2
    1166 000759 1290          CMP AR1 == AR2, TC1 ; |368| 
         00075b A0   
    1167 00075c 6D64          BCC $C$L30,TC1 ; |368| 
TMS320C55x Assembler PC v4.4.1 Sun Sep 09 00:03:45 2018

Tools Copyright (c) 1996-2012 Texas Instruments Incorporated
csl_dat.asm                                                          PAGE   31

         00075e FEEF 
    1168                                                      ; branchcc occurs ; |368| 
    1169 000760       $C$L32:    
    1170                      .dwpsn  file "../c5535_bsl_revc/ezdsp5535_v1/c55xx_csl/src/csl_dat.c",line 487,column 5,is_stmt
    1171 000760 3C04          MOV #0, T0
    1172 000762       $C$L33:    
    1173                      .dwpsn  file "../c5535_bsl_revc/ezdsp5535_v1/c55xx_csl/src/csl_dat.c",line 488,column 1,is_stmt
    1174 000762 4E0D          AADD #13, SP
    1175                      .dwcfi  cfa_offset, 1
    1176              $C$DW$33        .dwtag  DW_TAG_TI_branch
    1177                      .dwattr $C$DW$33, DW_AT_low_pc(0x00)
    1178                      .dwattr $C$DW$33, DW_AT_TI_return
    1179 000764 4804          RET
    1180                                                      ; return occurs
    1181              
    1182              $C$DW$34        .dwtag  DW_TAG_TI_loop
    1183                      .dwattr $C$DW$34, DW_AT_name("F:\eZdsp_C55x_FreeRTOS_Port\VerifiedOKInDbg\eZDSP_5535_Files\ccsws2\tes
    1184                      .dwattr $C$DW$34, DW_AT_TI_begin_file("../c5535_bsl_revc/ezdsp5535_v1/c55xx_csl/src/csl_dat.c")
    1185                      .dwattr $C$DW$34, DW_AT_TI_begin_line(0x16b)
    1186                      .dwattr $C$DW$34, DW_AT_TI_end_line(0x16e)
    1187              $C$DW$35        .dwtag  DW_TAG_TI_loop_range
    1188                      .dwattr $C$DW$35, DW_AT_low_pc($C$DW$L$_DAT_copy$20$B)
    1189                      .dwattr $C$DW$35, DW_AT_high_pc($C$DW$L$_DAT_copy$20$E)
    1190                      .dwendtag $C$DW$34
    1191              
    1192                      .dwattr $C$DW$19, DW_AT_TI_end_file("../c5535_bsl_revc/ezdsp5535_v1/c55xx_csl/src/csl_dat.c")
    1193                      .dwattr $C$DW$19, DW_AT_TI_end_line(0x1e8)
    1194                      .dwattr $C$DW$19, DW_AT_TI_end_column(0x01)
    1195                      .dwendentry
    1196                      .dwendtag $C$DW$19
    1197              
    1198 000766               .sect   ".text"
    1199                      .align 4
    1200                      .global _DAT_fill
    1201              
    1202              $C$DW$36        .dwtag  DW_TAG_subprogram, DW_AT_name("DAT_fill")
    1203                      .dwattr $C$DW$36, DW_AT_low_pc(_DAT_fill)
    1204                      .dwattr $C$DW$36, DW_AT_high_pc(0x00)
    1205                      .dwattr $C$DW$36, DW_AT_TI_symbol_name("_DAT_fill")
    1206                      .dwattr $C$DW$36, DW_AT_external
    1207                      .dwattr $C$DW$36, DW_AT_type(*$C$DW$T$37)
    1208                      .dwattr $C$DW$36, DW_AT_TI_begin_file("../c5535_bsl_revc/ezdsp5535_v1/c55xx_csl/src/csl_dat.c")
    1209                      .dwattr $C$DW$36, DW_AT_TI_begin_line(0x227)
    1210                      .dwattr $C$DW$36, DW_AT_TI_begin_column(0x0c)
    1211                      .dwattr $C$DW$36, DW_AT_TI_max_frame_size(0x12)
    1212                      .dwpsn  file "../c5535_bsl_revc/ezdsp5535_v1/c55xx_csl/src/csl_dat.c",line 557,column 1,is_stmt,addre
    1213              
    1214                      .dwfde $C$DW$CIE, _DAT_fill
    1215              $C$DW$37        .dwtag  DW_TAG_formal_parameter, DW_AT_name("hDAT")
    1216                      .dwattr $C$DW$37, DW_AT_TI_symbol_name("_hDAT")
    1217                      .dwattr $C$DW$37, DW_AT_type(*$C$DW$T$35)
    1218                      .dwattr $C$DW$37, DW_AT_location[DW_OP_reg17]
    1219              $C$DW$38        .dwtag  DW_TAG_formal_parameter, DW_AT_name("destAddr")
    1220                      .dwattr $C$DW$38, DW_AT_TI_symbol_name("_destAddr")
    1221                      .dwattr $C$DW$38, DW_AT_type(*$C$DW$T$41)
TMS320C55x Assembler PC v4.4.1 Sun Sep 09 00:03:45 2018

Tools Copyright (c) 1996-2012 Texas Instruments Incorporated
csl_dat.asm                                                          PAGE   32

    1222                      .dwattr $C$DW$38, DW_AT_location[DW_OP_reg0]
    1223              $C$DW$39        .dwtag  DW_TAG_formal_parameter, DW_AT_name("dataLength")
    1224                      .dwattr $C$DW$39, DW_AT_TI_symbol_name("_dataLength")
    1225                      .dwattr $C$DW$39, DW_AT_type(*$C$DW$T$19)
    1226                      .dwattr $C$DW$39, DW_AT_location[DW_OP_reg12]
    1227              $C$DW$40        .dwtag  DW_TAG_formal_parameter, DW_AT_name("pdataValue")
    1228                      .dwattr $C$DW$40, DW_AT_TI_symbol_name("_pdataValue")
    1229                      .dwattr $C$DW$40, DW_AT_type(*$C$DW$T$43)
    1230                      .dwattr $C$DW$40, DW_AT_location[DW_OP_reg19]
    1231              ;*******************************************************************************
    1232              ;* FUNCTION NAME: DAT_fill                                                     *
    1233              ;*                                                                             *
    1234              ;*   Function Uses Regs : AC0,AC0,AC1,AC1,T0,AR0,XAR0,AR1,XAR1,AR2,AR3,XAR3,SP,*
    1235              ;*                        CARRY,TC1,M40,SATA,SATD,RDM,FRCT,SMUL                *
    1236              ;*   Stack Frame        : Compact (No Frame Pointer, w/ debug)                 *
    1237              ;*   Total Frame Size   : 18 words                                             *
    1238              ;*                        (2 return address/alignment)                         *
    1239              ;*                        (16 local values)                                    *
    1240              ;*   Min System Stack   : 1 word                                               *
    1241              ;*******************************************************************************
    1242 000768       _DAT_fill:
    1243                      .dwcfi  cfa_offset, 1
    1244                      .dwcfi  save_reg_to_mem, 91, -1
    1245 000768 4EEF          AADD #-17, SP
    1246                      .dwcfi  cfa_offset, 18
    1247              $C$DW$41        .dwtag  DW_TAG_variable, DW_AT_name("hDAT")
    1248                      .dwattr $C$DW$41, DW_AT_TI_symbol_name("_hDAT")
    1249                      .dwattr $C$DW$41, DW_AT_type(*$C$DW$T$35)
    1250                      .dwattr $C$DW$41, DW_AT_location[DW_OP_bregx 0x24 0]
    1251              $C$DW$42        .dwtag  DW_TAG_variable, DW_AT_name("destAddr")
    1252                      .dwattr $C$DW$42, DW_AT_TI_symbol_name("_destAddr")
    1253                      .dwattr $C$DW$42, DW_AT_type(*$C$DW$T$41)
    1254                      .dwattr $C$DW$42, DW_AT_location[DW_OP_bregx 0x24 2]
    1255              $C$DW$43        .dwtag  DW_TAG_variable, DW_AT_name("dataLength")
    1256                      .dwattr $C$DW$43, DW_AT_TI_symbol_name("_dataLength")
    1257                      .dwattr $C$DW$43, DW_AT_type(*$C$DW$T$19)
    1258                      .dwattr $C$DW$43, DW_AT_location[DW_OP_bregx 0x24 4]
    1259              $C$DW$44        .dwtag  DW_TAG_variable, DW_AT_name("pdataValue")
    1260                      .dwattr $C$DW$44, DW_AT_TI_symbol_name("_pdataValue")
    1261                      .dwattr $C$DW$44, DW_AT_type(*$C$DW$T$43)
    1262                      .dwattr $C$DW$44, DW_AT_location[DW_OP_bregx 0x24 6]
    1263              $C$DW$45        .dwtag  DW_TAG_variable, DW_AT_name("chanNum")
    1264                      .dwattr $C$DW$45, DW_AT_TI_symbol_name("_chanNum")
    1265                      .dwattr $C$DW$45, DW_AT_type(*$C$DW$T$19)
    1266                      .dwattr $C$DW$45, DW_AT_location[DW_OP_bregx 0x24 8]
    1267              $C$DW$46        .dwtag  DW_TAG_variable, DW_AT_name("srcAddrLSB")
    1268                      .dwattr $C$DW$46, DW_AT_TI_symbol_name("_srcAddrLSB")
    1269                      .dwattr $C$DW$46, DW_AT_type(*$C$DW$T$19)
    1270                      .dwattr $C$DW$46, DW_AT_location[DW_OP_bregx 0x24 9]
    1271              $C$DW$47        .dwtag  DW_TAG_variable, DW_AT_name("srcAddrMSB")
    1272                      .dwattr $C$DW$47, DW_AT_TI_symbol_name("_srcAddrMSB")
    1273                      .dwattr $C$DW$47, DW_AT_type(*$C$DW$T$19)
    1274                      .dwattr $C$DW$47, DW_AT_location[DW_OP_bregx 0x24 10]
    1275              $C$DW$48        .dwtag  DW_TAG_variable, DW_AT_name("destAddrLSB")
    1276                      .dwattr $C$DW$48, DW_AT_TI_symbol_name("_destAddrLSB")
TMS320C55x Assembler PC v4.4.1 Sun Sep 09 00:03:45 2018

Tools Copyright (c) 1996-2012 Texas Instruments Incorporated
csl_dat.asm                                                          PAGE   33

    1277                      .dwattr $C$DW$48, DW_AT_type(*$C$DW$T$19)
    1278                      .dwattr $C$DW$48, DW_AT_location[DW_OP_bregx 0x24 11]
    1279              $C$DW$49        .dwtag  DW_TAG_variable, DW_AT_name("destAddrMSB")
    1280                      .dwattr $C$DW$49, DW_AT_TI_symbol_name("_destAddrMSB")
    1281                      .dwattr $C$DW$49, DW_AT_type(*$C$DW$T$19)
    1282                      .dwattr $C$DW$49, DW_AT_location[DW_OP_bregx 0x24 12]
    1283              $C$DW$50        .dwtag  DW_TAG_variable, DW_AT_name("srcAddr")
    1284                      .dwattr $C$DW$50, DW_AT_TI_symbol_name("_srcAddr")
    1285                      .dwattr $C$DW$50, DW_AT_type(*$C$DW$T$41)
    1286                      .dwattr $C$DW$50, DW_AT_location[DW_OP_bregx 0x24 14]
    1287 00076a EB0C          MOV XAR1, dbl(*SP(#6))
         00076c 95   
    1288 00076d C408          MOV T0, *SP(#4) ; |557| 
    1289 00076f EB04          MOV AC0, dbl(*SP(#2)) ; |557| 
         000771 08   
    1290 000772 EB00          MOV XAR0, dbl(*SP(#0))
         000774 85   
    1291                      .dwpsn  file "../c5535_bsl_revc/ezdsp5535_v1/c55xx_csl/src/csl_dat.c",line 565,column 5,is_stmt
    1292 000775 ED00          MOV dbl(*SP(#0)), XAR3
         000777 BF   
    1293 000778 90B0          MOV XAR3, AC0
    1294 00077a 6290          BCC $C$L34,AC0 != #0 ; |565| 
    1295                                                      ; branchcc occurs ; |565| 
    1296                      .dwpsn  file "../c5535_bsl_revc/ezdsp5535_v1/c55xx_csl/src/csl_dat.c",line 567,column 9,is_stmt
    1297 00077c 3E54          MOV #-5, T0
    1298 00077e 0604          B $C$L50  ; |567| 
         000780 F3   
    1299                                                      ; branch occurs ; |567| 
    1300 000781       $C$L34:    
    1301                      .dwpsn  file "../c5535_bsl_revc/ezdsp5535_v1/c55xx_csl/src/csl_dat.c",line 570,column 5,is_stmt
    1302 000781 ED0C          MOV dbl(*SP(#6)), XAR3
         000783 BF   
    1303 000784 90B0          MOV XAR3, AC0
    1304 000786 6480          BCC $C$L35,AC0 == #0 ; |570| 
    1305                                                      ; branchcc occurs ; |570| 
    1306              
    1307 000788 A908          MOV *SP(#4), AR1 ; |570| 
    1308 00078a 3D4A  ||      MOV #4, AR2
    1309              
    1310 00078c 1298          CMPU AR1 >= AR2, TC1 ; |570| 
         00078e A4   
    1311 00078f 62E4          BCC $C$L36,TC1 ; |570| 
    1312                                                      ; branchcc occurs ; |570| 
    1313 000791       $C$L35:    
    1314                      .dwpsn  file "../c5535_bsl_revc/ezdsp5535_v1/c55xx_csl/src/csl_dat.c",line 572,column 9,is_stmt
    1315 000791 3E64          MOV #-6, T0
    1316 000793 0604          B $C$L50  ; |572| 
         000795 DE   
    1317                                                      ; branch occurs ; |572| 
    1318 000796       $C$L36:    
    1319                      .dwpsn  file "../c5535_bsl_revc/ezdsp5535_v1/c55xx_csl/src/csl_dat.c",line 575,column 5,is_stmt
    1320 000796 EB1C          MOV AC0, dbl(*SP(#14)) ; |575| 
         000798 08   
    1321                      .dwpsn  file "../c5535_bsl_revc/ezdsp5535_v1/c55xx_csl/src/csl_dat.c",line 576,column 5,is_stmt
    1322 000799 7600          MOV #96, AC0 ; |576| 
TMS320C55x Assembler PC v4.4.1 Sun Sep 09 00:03:45 2018

Tools Copyright (c) 1996-2012 Texas Instruments Incorporated
csl_dat.asm                                                          PAGE   34

         00079b 6008 
    1323 00079d ED1C          MOV dbl(*SP(#14)), AC1 ; |576| 
         00079f 18   
    1324 0007a0 1214          CMPU AC1 < AC0, TC1 ; |576| 
         0007a2 04   
    1325 0007a3 0464          BCC $C$L37,TC1 ; |576| 
         0007a5 21   
    1326                                                      ; branchcc occurs ; |576| 
    1327 0007a6 767F          MOV #32767, AC0 ; |576| 
         0007a8 FF08 
    1328 0007aa ED1C          MOV dbl(*SP(#14)), AC1 ; |576| 
         0007ac 18   
    1329 0007ad 1204          CMPU AC1 > AC0, TC1 ; |576| 
         0007af 14   
    1330 0007b0 0464          BCC $C$L37,TC1 ; |576| 
         0007b2 14   
    1331                                                      ; branchcc occurs ; |576| 
    1332                      .dwpsn  file "../c5535_bsl_revc/ezdsp5535_v1/c55xx_csl/src/csl_dat.c",line 579,column 9,is_stmt
    1333 0007b3 EC31          AMOV #65536, XAR3 ; |579| 
         0007b5 BE01 
         0007b7 0000 
    1334 0007b9 ED1C          MOV dbl(*SP(#14)), AC1 ; |579| 
         0007bb 18   
    1335              
    1336 0007be 5110          SFTL AC1, #1 ; |579| 
    1337 0007bc 90B0  ||      MOV XAR3, AC0
    1338              
    1339 0007c0 2410          ADD AC1, AC0 ; |579| 
    1340 0007c2 EB1C          MOV AC0, dbl(*SP(#14)) ; |579| 
         0007c4 08   
    1341                      .dwpsn  file "../c5535_bsl_revc/ezdsp5535_v1/c55xx_csl/src/csl_dat.c",line 581,column 5,is_stmt
    1342 0007c5 4A3A          B $C$L39  ; |581| 
    1343                                                      ; branch occurs ; |581| 
    1344 0007c7       $C$L37:    
    1345                      .dwpsn  file "../c5535_bsl_revc/ezdsp5535_v1/c55xx_csl/src/csl_dat.c",line 582,column 10,is_stmt
    1346              
    1347 0007c7 ED1C          MOV dbl(*SP(#14)), AC1 ; |582| 
         0007c9 18   
    1348 0007ca 3D00  ||      MOV #0, AC0 ; |582| 
    1349              
    1350 0007cc 7E80          OR #0x8000, AC0, AC0 ; |582| 
         0007ce 0000 
    1351 0007d0 1214          CMPU AC1 < AC0, TC1 ; |582| 
         0007d2 04   
    1352 0007d3 0464          BCC $C$L38,TC1 ; |582| 
         0007d5 25   
    1353                                                      ; branchcc occurs ; |582| 
    1354 0007d6 EC31          AMOV #163839, XAR3 ; |582| 
         0007d8 BE02 
         0007da 7FFF 
    1355 0007dc ED1C          MOV dbl(*SP(#14)), AC1 ; |582| 
         0007de 18   
    1356 0007df 90B0          MOV XAR3, AC0
    1357 0007e1 1204          CMPU AC1 > AC0, TC1 ; |582| 
         0007e3 14   
TMS320C55x Assembler PC v4.4.1 Sun Sep 09 00:03:45 2018

Tools Copyright (c) 1996-2012 Texas Instruments Incorporated
csl_dat.asm                                                          PAGE   35

    1358 0007e4 0464          BCC $C$L38,TC1 ; |582| 
         0007e6 14   
    1359                                                      ; branchcc occurs ; |582| 
    1360                      .dwpsn  file "../c5535_bsl_revc/ezdsp5535_v1/c55xx_csl/src/csl_dat.c",line 585,column 9,is_stmt
    1361 0007e7 EC31          AMOV #524288, XAR3 ; |585| 
         0007e9 BE08 
         0007eb 0000 
    1362 0007ed ED1C          MOV dbl(*SP(#14)), AC1 ; |585| 
         0007ef 18   
    1363              
    1364 0007f2 5110          SFTL AC1, #1 ; |585| 
    1365 0007f0 90B0  ||      MOV XAR3, AC0
    1366              
    1367 0007f4 2410          ADD AC1, AC0 ; |585| 
    1368 0007f6 EB1C          MOV AC0, dbl(*SP(#14)) ; |585| 
         0007f8 08   
    1369                      .dwpsn  file "../c5535_bsl_revc/ezdsp5535_v1/c55xx_csl/src/csl_dat.c",line 587,column 5,is_stmt
    1370 0007f9 4A06          B $C$L39  ; |587| 
    1371                                                      ; branch occurs ; |587| 
    1372 0007fb       $C$L38:    
    1373                      .dwpsn  file "../c5535_bsl_revc/ezdsp5535_v1/c55xx_csl/src/csl_dat.c",line 590,column 9,is_stmt
    1374 0007fb ED1C          MOV dbl(*SP(#14)), AC0 ; |590| 
         0007fd 08   
    1375 0007fe EB1C          MOV AC0, dbl(*SP(#14)) ; |590| 
         000800 08   
    1376 000801       $C$L39:    
    1377                      .dwpsn  file "../c5535_bsl_revc/ezdsp5535_v1/c55xx_csl/src/csl_dat.c",line 593,column 5,is_stmt
    1378 000801 7600          MOV #96, AC0 ; |593| 
         000803 6008 
    1379 000805 ED04          MOV dbl(*SP(#2)), AC1 ; |593| 
         000807 18   
    1380 000808 1214          CMPU AC1 < AC0, TC1 ; |593| 
         00080a 04   
    1381 00080b 0464          BCC $C$L40,TC1 ; |593| 
         00080d 21   
    1382                                                      ; branchcc occurs ; |593| 
    1383 00080e 767F          MOV #32767, AC0 ; |593| 
         000810 FF08 
    1384 000812 ED04          MOV dbl(*SP(#2)), AC1 ; |593| 
         000814 18   
    1385 000815 1204          CMPU AC1 > AC0, TC1 ; |593| 
         000817 14   
    1386 000818 0464          BCC $C$L40,TC1 ; |593| 
         00081a 14   
    1387                                                      ; branchcc occurs ; |593| 
    1388                      .dwpsn  file "../c5535_bsl_revc/ezdsp5535_v1/c55xx_csl/src/csl_dat.c",line 596,column 9,is_stmt
    1389 00081b EC31          AMOV #65536, XAR3 ; |596| 
         00081d BE01 
         00081f 0000 
    1390 000821 ED04          MOV dbl(*SP(#2)), AC1 ; |596| 
         000823 18   
    1391              
    1392 000826 5110          SFTL AC1, #1 ; |596| 
    1393 000824 90B0  ||      MOV XAR3, AC0
    1394              
TMS320C55x Assembler PC v4.4.1 Sun Sep 09 00:03:45 2018

Tools Copyright (c) 1996-2012 Texas Instruments Incorporated
csl_dat.asm                                                          PAGE   36

    1395 000828 2410          ADD AC1, AC0 ; |596| 
    1396 00082a EB04          MOV AC0, dbl(*SP(#2)) ; |596| 
         00082c 08   
    1397                      .dwpsn  file "../c5535_bsl_revc/ezdsp5535_v1/c55xx_csl/src/csl_dat.c",line 598,column 5,is_stmt
    1398 00082d 4A3A          B $C$L42  ; |598| 
    1399                                                      ; branch occurs ; |598| 
    1400 00082f       $C$L40:    
    1401                      .dwpsn  file "../c5535_bsl_revc/ezdsp5535_v1/c55xx_csl/src/csl_dat.c",line 599,column 10,is_stmt
    1402              
    1403 00082f ED04          MOV dbl(*SP(#2)), AC1 ; |599| 
         000831 18   
    1404 000832 3D00  ||      MOV #0, AC0 ; |599| 
    1405              
    1406 000834 7E80          OR #0x8000, AC0, AC0 ; |599| 
         000836 0000 
    1407 000838 1214          CMPU AC1 < AC0, TC1 ; |599| 
         00083a 04   
    1408 00083b 0464          BCC $C$L41,TC1 ; |599| 
         00083d 25   
    1409                                                      ; branchcc occurs ; |599| 
    1410 00083e EC31          AMOV #163839, XAR3 ; |599| 
         000840 BE02 
         000842 7FFF 
    1411 000844 ED04          MOV dbl(*SP(#2)), AC1 ; |599| 
         000846 18   
    1412 000847 90B0          MOV XAR3, AC0
    1413 000849 1204          CMPU AC1 > AC0, TC1 ; |599| 
         00084b 14   
    1414 00084c 0464          BCC $C$L41,TC1 ; |599| 
         00084e 14   
    1415                                                      ; branchcc occurs ; |599| 
    1416                      .dwpsn  file "../c5535_bsl_revc/ezdsp5535_v1/c55xx_csl/src/csl_dat.c",line 602,column 9,is_stmt
    1417 00084f EC31          AMOV #524288, XAR3 ; |602| 
         000851 BE08 
         000853 0000 
    1418 000855 ED04          MOV dbl(*SP(#2)), AC1 ; |602| 
         000857 18   
    1419              
    1420 00085a 5110          SFTL AC1, #1 ; |602| 
    1421 000858 90B0  ||      MOV XAR3, AC0
    1422              
    1423 00085c 2410          ADD AC1, AC0 ; |602| 
    1424 00085e EB04          MOV AC0, dbl(*SP(#2)) ; |602| 
         000860 08   
    1425                      .dwpsn  file "../c5535_bsl_revc/ezdsp5535_v1/c55xx_csl/src/csl_dat.c",line 604,column 5,is_stmt
    1426 000861 4A06          B $C$L42  ; |604| 
    1427                                                      ; branch occurs ; |604| 
    1428 000863       $C$L41:    
    1429                      .dwpsn  file "../c5535_bsl_revc/ezdsp5535_v1/c55xx_csl/src/csl_dat.c",line 607,column 9,is_stmt
    1430 000863 ED04          MOV dbl(*SP(#2)), AC0 ; |607| 
         000865 08   
    1431 000866 EB04          MOV AC0, dbl(*SP(#2)) ; |607| 
         000868 08   
    1432 000869       $C$L42:    
    1433                      .dwpsn  file "../c5535_bsl_revc/ezdsp5535_v1/c55xx_csl/src/csl_dat.c",line 609,column 5,is_stmt
TMS320C55x Assembler PC v4.4.1 Sun Sep 09 00:03:45 2018

Tools Copyright (c) 1996-2012 Texas Instruments Incorporated
csl_dat.asm                                                          PAGE   37

    1434 000869 ED1C          MOV dbl(*SP(#14)), AC0 ; |609| 
         00086b 08   
    1435 00086c 7DFF          AND #0xffff, AC0, AC0 ; |609| 
         00086e FF00 
    1436 000870 C012          MOV AC0, *SP(#9) ; |609| 
    1437                      .dwpsn  file "../c5535_bsl_revc/ezdsp5535_v1/c55xx_csl/src/csl_dat.c",line 610,column 5,is_stmt
    1438 000872 ED1C          MOV dbl(*SP(#14)), AC0 ; |610| 
         000874 08   
    1439 000875 BC14          MOV HI(AC0), *SP(#10) ; |610| 
    1440                      .dwpsn  file "../c5535_bsl_revc/ezdsp5535_v1/c55xx_csl/src/csl_dat.c",line 612,column 5,is_stmt
    1441 000877 ED04          MOV dbl(*SP(#2)), AC0 ; |612| 
         000879 08   
    1442 00087a 7DFF          AND #0xffff, AC0, AC0 ; |612| 
         00087c FF00 
    1443 00087e C016          MOV AC0, *SP(#11) ; |612| 
    1444                      .dwpsn  file "../c5535_bsl_revc/ezdsp5535_v1/c55xx_csl/src/csl_dat.c",line 613,column 5,is_stmt
    1445 000880 ED04          MOV dbl(*SP(#2)), AC0 ; |613| 
         000882 08   
    1446 000883 BC18          MOV HI(AC0), *SP(#12) ; |613| 
    1447                      .dwpsn  file "../c5535_bsl_revc/ezdsp5535_v1/c55xx_csl/src/csl_dat.c",line 615,column 5,is_stmt
    1448 000885 ED00          MOV dbl(*SP(#0)), XAR3
         000887 BF   
    1449 000888 A973          MOV *AR3(short(#1)), AR1 ; |615| 
    1450 00088a C910          MOV AR1, *SP(#8) ; |615| 
    1451                      .dwpsn  file "../c5535_bsl_revc/ezdsp5535_v1/c55xx_csl/src/csl_dat.c",line 616,column 11,is_stmt
    1452 00088c 1294          CMPU AR1 < AR2, TC1 ; |616| 
         00088e A4   
    1453 00088f 6D64          BCC $C$L48,TC1 ; |616| 
         000891 03BE 
    1454                                                      ; branchcc occurs ; |616| 
    1455 000893       $C$L43:    
    1456 000893       $C$DW$L$_DAT_fill$21$B:
    1457                      .dwpsn  file "../c5535_bsl_revc/ezdsp5535_v1/c55xx_csl/src/csl_dat.c",line 618,column 9,is_stmt
    1458 000893 F710          SUB #4, *SP(#8) ; |618| 
         000895 FFFC 
    1459                      .dwpsn  file "../c5535_bsl_revc/ezdsp5535_v1/c55xx_csl/src/csl_dat.c",line 616,column 11,is_stmt
    1460 000897 A910          MOV *SP(#8), AR1 ; |616| 
    1461 000899 1298          CMPU AR1 >= AR2, TC1 ; |616| 
         00089b A4   
    1462 00089c 0464          BCC $C$L43,TC1 ; |616| 
         00089e F4   
    1463                                                      ; branchcc occurs ; |616| 
    1464 00089f       $C$DW$L$_DAT_fill$21$E:
    1465                      .dwpsn  file "../c5535_bsl_revc/ezdsp5535_v1/c55xx_csl/src/csl_dat.c",line 621,column 5,is_stmt
    1466 00089f 0603          B $C$L48  ; |621| 
         0008a1 AF   
    1467                                                      ; branch occurs ; |621| 
    1468 0008a2       $C$L44:    
    1469                      .dwpsn  file "../c5535_bsl_revc/ezdsp5535_v1/c55xx_csl/src/csl_dat.c",line 625,column 3,is_stmt
    1470 0008a2 ED00          MOV dbl(*SP(#0)), XAR3
         0008a4 BF   
    1471 0008a5 AB61          MOV *AR3, AR3 ; |625| 
    1472 0008a7 A97B          MOV port(*AR3(short(#5))), AR1 ; |625| 
         0008a9 99   
    1473 0008aa ED00          MOV dbl(*SP(#0)), XAR3
TMS320C55x Assembler PC v4.4.1 Sun Sep 09 00:03:45 2018

Tools Copyright (c) 1996-2012 Texas Instruments Incorporated
csl_dat.asm                                                          PAGE   38

         0008ac BF   
    1474 0008ad AB61          MOV *AR3, AR3 ; |625| 
    1475 0008af EC1E          BCLR @#15, AR1 ; |625| 
         0008b1 92   
    1476 0008b2 C97B          MOV AR1, port(*AR3(short(#5))) ; |625| 
         0008b4 9A   
    1477                      .dwpsn  file "../c5535_bsl_revc/ezdsp5535_v1/c55xx_csl/src/csl_dat.c",line 628,column 3,is_stmt
    1478 0008b5 ED00          MOV dbl(*SP(#0)), XAR3
         0008b7 BF   
    1479 0008b8 AB61          MOV *AR3, AR3 ; |628| 
    1480 0008ba A961          MOV port(*AR3), AR1 ; |628| 
         0008bc 99   
    1481 0008bd ED00          MOV dbl(*SP(#0)), XAR3
         0008bf BF   
    1482 0008c0 AB61          MOV *AR3, AR3 ; |628| 
    1483 0008c2 A912          MOV *SP(#9), AR1 ; |628| 
    1484 0008c4 1A00          OR #0x0000, AR1, AR1 ; |628| 
         0008c6 99   
    1485 0008c7 C961          MOV AR1, port(*AR3) ; |628| 
         0008c9 9A   
    1486                      .dwpsn  file "../c5535_bsl_revc/ezdsp5535_v1/c55xx_csl/src/csl_dat.c",line 630,column 3,is_stmt
    1487 0008ca ED00          MOV dbl(*SP(#0)), XAR3
         0008cc BF   
    1488 0008cd AB61          MOV *AR3, AR3 ; |630| 
    1489 0008cf A973          MOV port(*AR3(short(#1))), AR1 ; |630| 
         0008d1 99   
    1490 0008d2 ED00          MOV dbl(*SP(#0)), XAR3
         0008d4 BF   
    1491 0008d5 AB61          MOV *AR3, AR3 ; |630| 
    1492 0008d7 A914          MOV *SP(#10), AR1 ; |630| 
    1493 0008d9 1A00          OR #0x0000, AR1, AR1 ; |630| 
         0008db 99   
    1494 0008dc C973          MOV AR1, port(*AR3(short(#1))) ; |630| 
         0008de 9A   
    1495                      .dwpsn  file "../c5535_bsl_revc/ezdsp5535_v1/c55xx_csl/src/csl_dat.c",line 632,column 3,is_stmt
    1496 0008df ED00          MOV dbl(*SP(#0)), XAR3
         0008e1 BF   
    1497 0008e2 AB61          MOV *AR3, AR3 ; |632| 
    1498 0008e4 A975          MOV port(*AR3(short(#2))), AR1 ; |632| 
         0008e6 99   
    1499 0008e7 ED00          MOV dbl(*SP(#0)), XAR3
         0008e9 BF   
    1500 0008ea AB61          MOV *AR3, AR3 ; |632| 
    1501 0008ec A916          MOV *SP(#11), AR1 ; |632| 
    1502 0008ee 1A00          OR #0x0000, AR1, AR1 ; |632| 
         0008f0 99   
    1503 0008f1 C975          MOV AR1, port(*AR3(short(#2))) ; |632| 
         0008f3 9A   
    1504                      .dwpsn  file "../c5535_bsl_revc/ezdsp5535_v1/c55xx_csl/src/csl_dat.c",line 634,column 3,is_stmt
    1505 0008f4 ED00          MOV dbl(*SP(#0)), XAR3
         0008f6 BF   
    1506 0008f7 AB61          MOV *AR3, AR3 ; |634| 
    1507 0008f9 A977          MOV port(*AR3(short(#3))), AR1 ; |634| 
         0008fb 99   
    1508 0008fc ED00          MOV dbl(*SP(#0)), XAR3
TMS320C55x Assembler PC v4.4.1 Sun Sep 09 00:03:45 2018

Tools Copyright (c) 1996-2012 Texas Instruments Incorporated
csl_dat.asm                                                          PAGE   39

         0008fe BF   
    1509 0008ff AB61          MOV *AR3, AR3 ; |634| 
    1510 000901 A918          MOV *SP(#12), AR1 ; |634| 
    1511 000903 1A00          OR #0x0000, AR1, AR1 ; |634| 
         000905 99   
    1512 000906 C977          MOV AR1, port(*AR3(short(#3))) ; |634| 
         000908 9A   
    1513                      .dwpsn  file "../c5535_bsl_revc/ezdsp5535_v1/c55xx_csl/src/csl_dat.c",line 636,column 3,is_stmt
    1514 000909 ED00          MOV dbl(*SP(#0)), XAR3
         00090b BF   
    1515 00090c AB61          MOV *AR3, AR3 ; |636| 
    1516 00090e A97B          MOV port(*AR3(short(#5))), AR1 ; |636| 
         000910 99   
    1517 000911 ED00          MOV dbl(*SP(#0)), XAR3
         000913 BF   
    1518 000914 AB61          MOV *AR3, AR3 ; |636| 
    1519 000916 7DFF          AND #0xffc7, AR1, AC0 ; |636| 
         000918 C709 
    1520 00091a C07B          MOV AC0, port(*AR3(short(#5))) ; |636| 
         00091c 9A   
    1521                      .dwpsn  file "../c5535_bsl_revc/ezdsp5535_v1/c55xx_csl/src/csl_dat.c",line 639,column 3,is_stmt
    1522 00091d ED00          MOV dbl(*SP(#0)), XAR3
         00091f BF   
    1523 000920 AB61          MOV *AR3, AR3 ; |639| 
    1524 000922 A97B          MOV port(*AR3(short(#5))), AR1 ; |639| 
         000924 99   
    1525 000925 ED00          MOV dbl(*SP(#0)), XAR3
         000927 BF   
    1526 000928 AB61          MOV *AR3, AR3 ; |639| 
    1527 00092a 7DFF          AND #0xff3f, AR1, AC0 ; |639| 
         00092c 3F09 
    1528 00092e EC0E          BSET @#7, AC0 ; |639| 
         000930 00   
    1529 000931 C07B          MOV AC0, port(*AR3(short(#5))) ; |639| 
         000933 9A   
    1530                      .dwpsn  file "../c5535_bsl_revc/ezdsp5535_v1/c55xx_csl/src/csl_dat.c",line 642,column 3,is_stmt
    1531 000934 ED00          MOV dbl(*SP(#0)), XAR3
         000936 BF   
    1532 000937 AB61          MOV *AR3, AR3 ; |642| 
    1533 000939 A97B          MOV port(*AR3(short(#5))), AR1 ; |642| 
         00093b 99   
    1534 00093c ED00          MOV dbl(*SP(#0)), XAR3
         00093e BF   
    1535 00093f AB61          MOV *AR3, AR3 ; |642| 
    1536 000941 7DFC          AND #0xfcff, AR1, AC0 ; |642| 
         000943 FF09 
    1537 000945 C07B          MOV AC0, port(*AR3(short(#5))) ; |642| 
         000947 9A   
    1538                      .dwpsn  file "../c5535_bsl_revc/ezdsp5535_v1/c55xx_csl/src/csl_dat.c",line 645,column 3,is_stmt
    1539 000948 ED00          MOV dbl(*SP(#0)), XAR3
         00094a BF   
    1540 00094b AB61          MOV *AR3, AR3 ; |645| 
    1541 00094d A979          MOV port(*AR3(short(#4))), AR1 ; |645| 
         00094f 99   
    1542 000950 ED00          MOV dbl(*SP(#0)), XAR3
TMS320C55x Assembler PC v4.4.1 Sun Sep 09 00:03:45 2018

Tools Copyright (c) 1996-2012 Texas Instruments Incorporated
csl_dat.asm                                                          PAGE   40

         000952 BF   
    1543 000953 AB61          MOV *AR3, AR3 ; |645| 
    1544 000955 A908          MOV *SP(#4), AR1 ; |645| 
    1545 000957 1A00          OR #0x0000, AR1, AR1 ; |645| 
         000959 99   
    1546 00095a C979          MOV AR1, port(*AR3(short(#4))) ; |645| 
         00095c 9A   
    1547                      .dwpsn  file "../c5535_bsl_revc/ezdsp5535_v1/c55xx_csl/src/csl_dat.c",line 648,column 9,is_stmt
    1548 00095d ED00          MOV dbl(*SP(#0)), XAR3
         00095f BF   
    1549 000960 AB61          MOV *AR3, AR3 ; |648| 
    1550 000962 A97B          MOV port(*AR3(short(#5))), AR1 ; |648| 
         000964 99   
    1551 000965 ED00          MOV dbl(*SP(#0)), XAR3
         000967 BF   
    1552 000968 AB61          MOV *AR3, AR3 ; |648| 
    1553 00096a EC1E          BCLR @#15, AR1 ; |648| 
         00096c 92   
    1554 00096d EC1E          BSET @#15, AR1 ; |648| 
         00096f 90   
    1555 000970 C97B          MOV AR1, port(*AR3(short(#5))) ; |648| 
         000972 9A   
    1556                      .dwpsn  file "../c5535_bsl_revc/ezdsp5535_v1/c55xx_csl/src/csl_dat.c",line 650,column 14,is_stmt
    1557 000973 0602          B $C$L49  ; |650| 
         000975 FC   
    1558                                                      ; branch occurs ; |650| 
    1559 000976       $C$L45:    
    1560                      .dwpsn  file "../c5535_bsl_revc/ezdsp5535_v1/c55xx_csl/src/csl_dat.c",line 654,column 3,is_stmt
    1561 000976 ED00          MOV dbl(*SP(#0)), XAR3
         000978 BF   
    1562 000979 7600          MOV #37, T0 ; |654| 
         00097b 2548 
    1563 00097d AB61          MOV *AR3, AR3 ; |654| 
    1564 00097f A96B          MOV port(*AR3(T0)), AR1 ; |654| 
         000981 99   
    1565 000982 ED00          MOV dbl(*SP(#0)), XAR3
         000984 BF   
    1566 000985 AB61          MOV *AR3, AR3 ; |654| 
    1567 000987 EC1E          BCLR @#15, AR1 ; |654| 
         000989 92   
    1568 00098a C96B          MOV AR1, port(*AR3(T0)) ; |654| 
         00098c 9A   
    1569                      .dwpsn  file "../c5535_bsl_revc/ezdsp5535_v1/c55xx_csl/src/csl_dat.c",line 657,column 3,is_stmt
    1570 00098d ED00          MOV dbl(*SP(#0)), XAR3
         00098f BF   
    1571 000990 7600          MOV #32, T0 ; |657| 
         000992 2048 
    1572 000994 AB61          MOV *AR3, AR3 ; |657| 
    1573 000996 A96B          MOV port(*AR3(T0)), AR1 ; |657| 
         000998 99   
    1574 000999 ED00          MOV dbl(*SP(#0)), XAR3
         00099b BF   
    1575 00099c AB61          MOV *AR3, AR3 ; |657| 
    1576 00099e A912          MOV *SP(#9), AR1 ; |657| 
    1577 0009a0 1A00          OR #0x0000, AR1, AR1 ; |657| 
TMS320C55x Assembler PC v4.4.1 Sun Sep 09 00:03:45 2018

Tools Copyright (c) 1996-2012 Texas Instruments Incorporated
csl_dat.asm                                                          PAGE   41

         0009a2 99   
    1578 0009a3 C96B          MOV AR1, port(*AR3(T0)) ; |657| 
         0009a5 9A   
    1579                      .dwpsn  file "../c5535_bsl_revc/ezdsp5535_v1/c55xx_csl/src/csl_dat.c",line 659,column 3,is_stmt
    1580 0009a6 ED00          MOV dbl(*SP(#0)), XAR3
         0009a8 BF   
    1581 0009a9 7600          MOV #33, T0 ; |659| 
         0009ab 2148 
    1582 0009ad AB61          MOV *AR3, AR3 ; |659| 
    1583 0009af A96B          MOV port(*AR3(T0)), AR1 ; |659| 
         0009b1 99   
    1584 0009b2 ED00          MOV dbl(*SP(#0)), XAR3
         0009b4 BF   
    1585 0009b5 AB61          MOV *AR3, AR3 ; |659| 
    1586 0009b7 A914          MOV *SP(#10), AR1 ; |659| 
    1587 0009b9 1A00          OR #0x0000, AR1, AR1 ; |659| 
         0009bb 99   
    1588 0009bc C96B          MOV AR1, port(*AR3(T0)) ; |659| 
         0009be 9A   
    1589                      .dwpsn  file "../c5535_bsl_revc/ezdsp5535_v1/c55xx_csl/src/csl_dat.c",line 661,column 3,is_stmt
    1590 0009bf ED00          MOV dbl(*SP(#0)), XAR3
         0009c1 BF   
    1591 0009c2 7600          MOV #34, T0 ; |661| 
         0009c4 2248 
    1592 0009c6 AB61          MOV *AR3, AR3 ; |661| 
    1593 0009c8 A96B          MOV port(*AR3(T0)), AR1 ; |661| 
         0009ca 99   
    1594 0009cb ED00          MOV dbl(*SP(#0)), XAR3
         0009cd BF   
    1595 0009ce AB61          MOV *AR3, AR3 ; |661| 
    1596 0009d0 A916          MOV *SP(#11), AR1 ; |661| 
    1597 0009d2 1A00          OR #0x0000, AR1, AR1 ; |661| 
         0009d4 99   
    1598 0009d5 C96B          MOV AR1, port(*AR3(T0)) ; |661| 
         0009d7 9A   
    1599                      .dwpsn  file "../c5535_bsl_revc/ezdsp5535_v1/c55xx_csl/src/csl_dat.c",line 663,column 3,is_stmt
    1600 0009d8 ED00          MOV dbl(*SP(#0)), XAR3
         0009da BF   
    1601 0009db 7600          MOV #35, T0 ; |663| 
         0009dd 2348 
    1602 0009df AB61          MOV *AR3, AR3 ; |663| 
    1603 0009e1 A96B          MOV port(*AR3(T0)), AR1 ; |663| 
         0009e3 99   
    1604 0009e4 ED00          MOV dbl(*SP(#0)), XAR3
         0009e6 BF   
    1605 0009e7 AB61          MOV *AR3, AR3 ; |663| 
    1606 0009e9 A918          MOV *SP(#12), AR1 ; |663| 
    1607 0009eb 1A00          OR #0x0000, AR1, AR1 ; |663| 
         0009ed 99   
    1608 0009ee C96B          MOV AR1, port(*AR3(T0)) ; |663| 
         0009f0 9A   
    1609                      .dwpsn  file "../c5535_bsl_revc/ezdsp5535_v1/c55xx_csl/src/csl_dat.c",line 665,column 3,is_stmt
    1610 0009f1 ED00          MOV dbl(*SP(#0)), XAR3
         0009f3 BF   
    1611 0009f4 7600          MOV #37, T0 ; |665| 
TMS320C55x Assembler PC v4.4.1 Sun Sep 09 00:03:45 2018

Tools Copyright (c) 1996-2012 Texas Instruments Incorporated
csl_dat.asm                                                          PAGE   42

         0009f6 2548 
    1612 0009f8 AB61          MOV *AR3, AR3 ; |665| 
    1613 0009fa A96B          MOV port(*AR3(T0)), AR1 ; |665| 
         0009fc 99   
    1614 0009fd ED00          MOV dbl(*SP(#0)), XAR3
         0009ff BF   
    1615 000a00 AB61          MOV *AR3, AR3 ; |665| 
    1616 000a02 7DFF          AND #0xffc7, AR1, AC0 ; |665| 
         000a04 C709 
    1617 000a06 C06B          MOV AC0, port(*AR3(T0)) ; |665| 
         000a08 9A   
    1618                      .dwpsn  file "../c5535_bsl_revc/ezdsp5535_v1/c55xx_csl/src/csl_dat.c",line 668,column 3,is_stmt
    1619 000a09 ED00          MOV dbl(*SP(#0)), XAR3
         000a0b BF   
    1620 000a0c AB61          MOV *AR3, AR3 ; |668| 
    1621 000a0e A96B          MOV port(*AR3(T0)), AR1 ; |668| 
         000a10 99   
    1622 000a11 ED00          MOV dbl(*SP(#0)), XAR3
         000a13 BF   
    1623 000a14 AB61          MOV *AR3, AR3 ; |668| 
    1624 000a16 7DFF          AND #0xff3f, AR1, AC0 ; |668| 
         000a18 3F09 
    1625 000a1a EC0E          BSET @#7, AC0 ; |668| 
         000a1c 00   
    1626 000a1d C06B          MOV AC0, port(*AR3(T0)) ; |668| 
         000a1f 9A   
    1627                      .dwpsn  file "../c5535_bsl_revc/ezdsp5535_v1/c55xx_csl/src/csl_dat.c",line 671,column 3,is_stmt
    1628 000a20 ED00          MOV dbl(*SP(#0)), XAR3
         000a22 BF   
    1629 000a23 AB61          MOV *AR3, AR3 ; |671| 
    1630 000a25 A96B          MOV port(*AR3(T0)), AR1 ; |671| 
         000a27 99   
    1631 000a28 ED00          MOV dbl(*SP(#0)), XAR3
         000a2a BF   
    1632 000a2b AB61          MOV *AR3, AR3 ; |671| 
    1633 000a2d 7DFC          AND #0xfcff, AR1, AC0 ; |671| 
         000a2f FF09 
    1634 000a31 C06B          MOV AC0, port(*AR3(T0)) ; |671| 
         000a33 9A   
    1635                      .dwpsn  file "../c5535_bsl_revc/ezdsp5535_v1/c55xx_csl/src/csl_dat.c",line 674,column 3,is_stmt
    1636 000a34 ED00          MOV dbl(*SP(#0)), XAR3
         000a36 BF   
    1637 000a37 7600          MOV #36, T0 ; |674| 
         000a39 2448 
    1638 000a3b AB61          MOV *AR3, AR3 ; |674| 
    1639 000a3d A96B          MOV port(*AR3(T0)), AR1 ; |674| 
         000a3f 99   
    1640 000a40 ED00          MOV dbl(*SP(#0)), XAR3
         000a42 BF   
    1641 000a43 AB61          MOV *AR3, AR3 ; |674| 
    1642 000a45 A908          MOV *SP(#4), AR1 ; |674| 
    1643 000a47 1A00          OR #0x0000, AR1, AR1 ; |674| 
         000a49 99   
    1644 000a4a C96B          MOV AR1, port(*AR3(T0)) ; |674| 
         000a4c 9A   
TMS320C55x Assembler PC v4.4.1 Sun Sep 09 00:03:45 2018

Tools Copyright (c) 1996-2012 Texas Instruments Incorporated
csl_dat.asm                                                          PAGE   43

    1645                      .dwpsn  file "../c5535_bsl_revc/ezdsp5535_v1/c55xx_csl/src/csl_dat.c",line 677,column 9,is_stmt
    1646 000a4d ED00          MOV dbl(*SP(#0)), XAR3
         000a4f BF   
    1647 000a50 7600          MOV #37, T0 ; |677| 
         000a52 2548 
    1648 000a54 AB61          MOV *AR3, AR3 ; |677| 
    1649 000a56 A96B          MOV port(*AR3(T0)), AR1 ; |677| 
         000a58 99   
    1650 000a59 ED00          MOV dbl(*SP(#0)), XAR3
         000a5b BF   
    1651 000a5c AB61          MOV *AR3, AR3 ; |677| 
    1652 000a5e EC1E          BCLR @#15, AR1 ; |677| 
         000a60 92   
    1653 000a61 EC1E          BSET @#15, AR1 ; |677| 
         000a63 90   
    1654 000a64 C96B          MOV AR1, port(*AR3(T0)) ; |677| 
         000a66 9A   
    1655                      .dwpsn  file "../c5535_bsl_revc/ezdsp5535_v1/c55xx_csl/src/csl_dat.c",line 679,column 14,is_stmt
    1656 000a67 0602          B $C$L49  ; |679| 
         000a69 08   
    1657                                                      ; branch occurs ; |679| 
    1658 000a6a       $C$L46:    
    1659                      .dwpsn  file "../c5535_bsl_revc/ezdsp5535_v1/c55xx_csl/src/csl_dat.c",line 683,column 3,is_stmt
    1660 000a6a ED00          MOV dbl(*SP(#0)), XAR3
         000a6c BF   
    1661 000a6d 7600          MOV #69, T0 ; |683| 
         000a6f 4548 
    1662 000a71 AB61          MOV *AR3, AR3 ; |683| 
    1663 000a73 A96B          MOV port(*AR3(T0)), AR1 ; |683| 
         000a75 99   
    1664 000a76 ED00          MOV dbl(*SP(#0)), XAR3
         000a78 BF   
    1665 000a79 AB61          MOV *AR3, AR3 ; |683| 
    1666 000a7b EC1E          BCLR @#15, AR1 ; |683| 
         000a7d 92   
    1667 000a7e C96B          MOV AR1, port(*AR3(T0)) ; |683| 
         000a80 9A   
    1668                      .dwpsn  file "../c5535_bsl_revc/ezdsp5535_v1/c55xx_csl/src/csl_dat.c",line 686,column 3,is_stmt
    1669 000a81 ED00          MOV dbl(*SP(#0)), XAR3
         000a83 BF   
    1670 000a84 7600          MOV #64, T0 ; |686| 
         000a86 4048 
    1671 000a88 AB61          MOV *AR3, AR3 ; |686| 
    1672 000a8a A96B          MOV port(*AR3(T0)), AR1 ; |686| 
         000a8c 99   
    1673 000a8d ED00          MOV dbl(*SP(#0)), XAR3
         000a8f BF   
    1674 000a90 AB61          MOV *AR3, AR3 ; |686| 
    1675 000a92 A912          MOV *SP(#9), AR1 ; |686| 
    1676 000a94 1A00          OR #0x0000, AR1, AR1 ; |686| 
         000a96 99   
    1677 000a97 C96B          MOV AR1, port(*AR3(T0)) ; |686| 
         000a99 9A   
    1678                      .dwpsn  file "../c5535_bsl_revc/ezdsp5535_v1/c55xx_csl/src/csl_dat.c",line 688,column 3,is_stmt
    1679 000a9a ED00          MOV dbl(*SP(#0)), XAR3
TMS320C55x Assembler PC v4.4.1 Sun Sep 09 00:03:45 2018

Tools Copyright (c) 1996-2012 Texas Instruments Incorporated
csl_dat.asm                                                          PAGE   44

         000a9c BF   
    1680 000a9d 7600          MOV #65, T0 ; |688| 
         000a9f 4148 
    1681 000aa1 AB61          MOV *AR3, AR3 ; |688| 
    1682 000aa3 A96B          MOV port(*AR3(T0)), AR1 ; |688| 
         000aa5 99   
    1683 000aa6 ED00          MOV dbl(*SP(#0)), XAR3
         000aa8 BF   
    1684 000aa9 AB61          MOV *AR3, AR3 ; |688| 
    1685 000aab A914          MOV *SP(#10), AR1 ; |688| 
    1686 000aad 1A00          OR #0x0000, AR1, AR1 ; |688| 
         000aaf 99   
    1687 000ab0 C96B          MOV AR1, port(*AR3(T0)) ; |688| 
         000ab2 9A   
    1688                      .dwpsn  file "../c5535_bsl_revc/ezdsp5535_v1/c55xx_csl/src/csl_dat.c",line 690,column 3,is_stmt
    1689 000ab3 ED00          MOV dbl(*SP(#0)), XAR3
         000ab5 BF   
    1690 000ab6 7600          MOV #66, T0 ; |690| 
         000ab8 4248 
    1691 000aba AB61          MOV *AR3, AR3 ; |690| 
    1692 000abc A96B          MOV port(*AR3(T0)), AR1 ; |690| 
         000abe 99   
    1693 000abf ED00          MOV dbl(*SP(#0)), XAR3
         000ac1 BF   
    1694 000ac2 AB61          MOV *AR3, AR3 ; |690| 
    1695 000ac4 A916          MOV *SP(#11), AR1 ; |690| 
    1696 000ac6 1A00          OR #0x0000, AR1, AR1 ; |690| 
         000ac8 99   
    1697 000ac9 C96B          MOV AR1, port(*AR3(T0)) ; |690| 
         000acb 9A   
    1698                      .dwpsn  file "../c5535_bsl_revc/ezdsp5535_v1/c55xx_csl/src/csl_dat.c",line 692,column 3,is_stmt
    1699 000acc ED00          MOV dbl(*SP(#0)), XAR3
         000ace BF   
    1700 000acf 7600          MOV #67, T0 ; |692| 
         000ad1 4348 
    1701 000ad3 AB61          MOV *AR3, AR3 ; |692| 
    1702 000ad5 A96B          MOV port(*AR3(T0)), AR1 ; |692| 
         000ad7 99   
    1703 000ad8 ED00          MOV dbl(*SP(#0)), XAR3
         000ada BF   
    1704 000adb AB61          MOV *AR3, AR3 ; |692| 
    1705 000add A918          MOV *SP(#12), AR1 ; |692| 
    1706 000adf 1A00          OR #0x0000, AR1, AR1 ; |692| 
         000ae1 99   
    1707 000ae2 C96B          MOV AR1, port(*AR3(T0)) ; |692| 
         000ae4 9A   
    1708                      .dwpsn  file "../c5535_bsl_revc/ezdsp5535_v1/c55xx_csl/src/csl_dat.c",line 694,column 3,is_stmt
    1709 000ae5 ED00          MOV dbl(*SP(#0)), XAR3
         000ae7 BF   
    1710 000ae8 7600          MOV #69, T0 ; |694| 
         000aea 4548 
    1711 000aec AB61          MOV *AR3, AR3 ; |694| 
    1712 000aee A96B          MOV port(*AR3(T0)), AR1 ; |694| 
         000af0 99   
    1713 000af1 ED00          MOV dbl(*SP(#0)), XAR3
TMS320C55x Assembler PC v4.4.1 Sun Sep 09 00:03:45 2018

Tools Copyright (c) 1996-2012 Texas Instruments Incorporated
csl_dat.asm                                                          PAGE   45

         000af3 BF   
    1714 000af4 AB61          MOV *AR3, AR3 ; |694| 
    1715 000af6 7DFF          AND #0xffc7, AR1, AC0 ; |694| 
         000af8 C709 
    1716 000afa C06B          MOV AC0, port(*AR3(T0)) ; |694| 
         000afc 9A   
    1717                      .dwpsn  file "../c5535_bsl_revc/ezdsp5535_v1/c55xx_csl/src/csl_dat.c",line 697,column 3,is_stmt
    1718 000afd ED00          MOV dbl(*SP(#0)), XAR3
         000aff BF   
    1719 000b00 AB61          MOV *AR3, AR3 ; |697| 
    1720 000b02 A96B          MOV port(*AR3(T0)), AR1 ; |697| 
         000b04 99   
    1721 000b05 ED00          MOV dbl(*SP(#0)), XAR3
         000b07 BF   
    1722 000b08 AB61          MOV *AR3, AR3 ; |697| 
    1723 000b0a 7DFF          AND #0xff3f, AR1, AC0 ; |697| 
         000b0c 3F09 
    1724 000b0e EC0E          BSET @#7, AC0 ; |697| 
         000b10 00   
    1725 000b11 C06B          MOV AC0, port(*AR3(T0)) ; |697| 
         000b13 9A   
    1726                      .dwpsn  file "../c5535_bsl_revc/ezdsp5535_v1/c55xx_csl/src/csl_dat.c",line 700,column 3,is_stmt
    1727 000b14 ED00          MOV dbl(*SP(#0)), XAR3
         000b16 BF   
    1728 000b17 AB61          MOV *AR3, AR3 ; |700| 
    1729 000b19 A96B          MOV port(*AR3(T0)), AR1 ; |700| 
         000b1b 99   
    1730 000b1c ED00          MOV dbl(*SP(#0)), XAR3
         000b1e BF   
    1731 000b1f AB61          MOV *AR3, AR3 ; |700| 
    1732 000b21 7DFC          AND #0xfcff, AR1, AC0 ; |700| 
         000b23 FF09 
    1733 000b25 C06B          MOV AC0, port(*AR3(T0)) ; |700| 
         000b27 9A   
    1734                      .dwpsn  file "../c5535_bsl_revc/ezdsp5535_v1/c55xx_csl/src/csl_dat.c",line 703,column 3,is_stmt
    1735 000b28 ED00          MOV dbl(*SP(#0)), XAR3
         000b2a BF   
    1736 000b2b 7600          MOV #68, T0 ; |703| 
         000b2d 4448 
    1737 000b2f AB61          MOV *AR3, AR3 ; |703| 
    1738 000b31 A96B          MOV port(*AR3(T0)), AR1 ; |703| 
         000b33 99   
    1739 000b34 ED00          MOV dbl(*SP(#0)), XAR3
         000b36 BF   
    1740 000b37 AB61          MOV *AR3, AR3 ; |703| 
    1741 000b39 A908          MOV *SP(#4), AR1 ; |703| 
    1742 000b3b 1A00          OR #0x0000, AR1, AR1 ; |703| 
         000b3d 99   
    1743 000b3e C96B          MOV AR1, port(*AR3(T0)) ; |703| 
         000b40 9A   
    1744                      .dwpsn  file "../c5535_bsl_revc/ezdsp5535_v1/c55xx_csl/src/csl_dat.c",line 706,column 9,is_stmt
    1745 000b41 ED00          MOV dbl(*SP(#0)), XAR3
         000b43 BF   
    1746 000b44 7600          MOV #69, T0 ; |706| 
         000b46 4548 
TMS320C55x Assembler PC v4.4.1 Sun Sep 09 00:03:45 2018

Tools Copyright (c) 1996-2012 Texas Instruments Incorporated
csl_dat.asm                                                          PAGE   46

    1747 000b48 AB61          MOV *AR3, AR3 ; |706| 
    1748 000b4a A96B          MOV port(*AR3(T0)), AR1 ; |706| 
         000b4c 99   
    1749 000b4d ED00          MOV dbl(*SP(#0)), XAR3
         000b4f BF   
    1750 000b50 AB61          MOV *AR3, AR3 ; |706| 
    1751 000b52 EC1E          BCLR @#15, AR1 ; |706| 
         000b54 92   
    1752 000b55 EC1E          BSET @#15, AR1 ; |706| 
         000b57 90   
    1753 000b58 C96B          MOV AR1, port(*AR3(T0)) ; |706| 
         000b5a 9A   
    1754                      .dwpsn  file "../c5535_bsl_revc/ezdsp5535_v1/c55xx_csl/src/csl_dat.c",line 708,column 14,is_stmt
    1755 000b5b 0601          B $C$L49  ; |708| 
         000b5d 14   
    1756                                                      ; branch occurs ; |708| 
    1757 000b5e       $C$L47:    
    1758                      .dwpsn  file "../c5535_bsl_revc/ezdsp5535_v1/c55xx_csl/src/csl_dat.c",line 712,column 3,is_stmt
    1759 000b5e ED00          MOV dbl(*SP(#0)), XAR3
         000b60 BF   
    1760 000b61 7600          MOV #101, T0 ; |712| 
         000b63 6548 
    1761 000b65 AB61          MOV *AR3, AR3 ; |712| 
    1762 000b67 A96B          MOV port(*AR3(T0)), AR1 ; |712| 
         000b69 99   
    1763 000b6a ED00          MOV dbl(*SP(#0)), XAR3
         000b6c BF   
    1764 000b6d AB61          MOV *AR3, AR3 ; |712| 
    1765 000b6f EC1E          BCLR @#15, AR1 ; |712| 
         000b71 92   
    1766 000b72 C96B          MOV AR1, port(*AR3(T0)) ; |712| 
         000b74 9A   
    1767                      .dwpsn  file "../c5535_bsl_revc/ezdsp5535_v1/c55xx_csl/src/csl_dat.c",line 715,column 3,is_stmt
    1768 000b75 ED00          MOV dbl(*SP(#0)), XAR3
         000b77 BF   
    1769 000b78 7600          MOV #96, T0 ; |715| 
         000b7a 6048 
    1770 000b7c AB61          MOV *AR3, AR3 ; |715| 
    1771 000b7e A96B          MOV port(*AR3(T0)), AR1 ; |715| 
         000b80 99   
    1772 000b81 ED00          MOV dbl(*SP(#0)), XAR3
         000b83 BF   
    1773 000b84 AB61          MOV *AR3, AR3 ; |715| 
    1774 000b86 A912          MOV *SP(#9), AR1 ; |715| 
    1775 000b88 1A00          OR #0x0000, AR1, AR1 ; |715| 
         000b8a 99   
    1776 000b8b C96B          MOV AR1, port(*AR3(T0)) ; |715| 
         000b8d 9A   
    1777                      .dwpsn  file "../c5535_bsl_revc/ezdsp5535_v1/c55xx_csl/src/csl_dat.c",line 717,column 3,is_stmt
    1778 000b8e ED00          MOV dbl(*SP(#0)), XAR3
         000b90 BF   
    1779 000b91 7600          MOV #97, T0 ; |717| 
         000b93 6148 
    1780 000b95 AB61          MOV *AR3, AR3 ; |717| 
    1781 000b97 A96B          MOV port(*AR3(T0)), AR1 ; |717| 
TMS320C55x Assembler PC v4.4.1 Sun Sep 09 00:03:45 2018

Tools Copyright (c) 1996-2012 Texas Instruments Incorporated
csl_dat.asm                                                          PAGE   47

         000b99 99   
    1782 000b9a ED00          MOV dbl(*SP(#0)), XAR3
         000b9c BF   
    1783 000b9d AB61          MOV *AR3, AR3 ; |717| 
    1784 000b9f A914          MOV *SP(#10), AR1 ; |717| 
    1785 000ba1 1A00          OR #0x0000, AR1, AR1 ; |717| 
         000ba3 99   
    1786 000ba4 C96B          MOV AR1, port(*AR3(T0)) ; |717| 
         000ba6 9A   
    1787                      .dwpsn  file "../c5535_bsl_revc/ezdsp5535_v1/c55xx_csl/src/csl_dat.c",line 719,column 3,is_stmt
    1788 000ba7 ED00          MOV dbl(*SP(#0)), XAR3
         000ba9 BF   
    1789 000baa 7600          MOV #98, T0 ; |719| 
         000bac 6248 
    1790 000bae AB61          MOV *AR3, AR3 ; |719| 
    1791 000bb0 A96B          MOV port(*AR3(T0)), AR1 ; |719| 
         000bb2 99   
    1792 000bb3 ED00          MOV dbl(*SP(#0)), XAR3
         000bb5 BF   
    1793 000bb6 AB61          MOV *AR3, AR3 ; |719| 
    1794 000bb8 A916          MOV *SP(#11), AR1 ; |719| 
    1795 000bba 1A00          OR #0x0000, AR1, AR1 ; |719| 
         000bbc 99   
    1796 000bbd C96B          MOV AR1, port(*AR3(T0)) ; |719| 
         000bbf 9A   
    1797                      .dwpsn  file "../c5535_bsl_revc/ezdsp5535_v1/c55xx_csl/src/csl_dat.c",line 721,column 3,is_stmt
    1798 000bc0 ED00          MOV dbl(*SP(#0)), XAR3
         000bc2 BF   
    1799 000bc3 7600          MOV #99, T0 ; |721| 
         000bc5 6348 
    1800 000bc7 AB61          MOV *AR3, AR3 ; |721| 
    1801 000bc9 A96B          MOV port(*AR3(T0)), AR1 ; |721| 
         000bcb 99   
    1802 000bcc ED00          MOV dbl(*SP(#0)), XAR3
         000bce BF   
    1803 000bcf AB61          MOV *AR3, AR3 ; |721| 
    1804 000bd1 A918          MOV *SP(#12), AR1 ; |721| 
    1805 000bd3 1A00          OR #0x0000, AR1, AR1 ; |721| 
         000bd5 99   
    1806 000bd6 C96B          MOV AR1, port(*AR3(T0)) ; |721| 
         000bd8 9A   
    1807                      .dwpsn  file "../c5535_bsl_revc/ezdsp5535_v1/c55xx_csl/src/csl_dat.c",line 723,column 3,is_stmt
    1808 000bd9 ED00          MOV dbl(*SP(#0)), XAR3
         000bdb BF   
    1809 000bdc 7600          MOV #101, T0 ; |723| 
         000bde 6548 
    1810 000be0 AB61          MOV *AR3, AR3 ; |723| 
    1811 000be2 A96B          MOV port(*AR3(T0)), AR1 ; |723| 
         000be4 99   
    1812 000be5 ED00          MOV dbl(*SP(#0)), XAR3
         000be7 BF   
    1813 000be8 AB61          MOV *AR3, AR3 ; |723| 
    1814 000bea 7DFF          AND #0xffc7, AR1, AC0 ; |723| 
         000bec C709 
    1815 000bee C06B          MOV AC0, port(*AR3(T0)) ; |723| 
TMS320C55x Assembler PC v4.4.1 Sun Sep 09 00:03:45 2018

Tools Copyright (c) 1996-2012 Texas Instruments Incorporated
csl_dat.asm                                                          PAGE   48

         000bf0 9A   
    1816                      .dwpsn  file "../c5535_bsl_revc/ezdsp5535_v1/c55xx_csl/src/csl_dat.c",line 726,column 3,is_stmt
    1817 000bf1 ED00          MOV dbl(*SP(#0)), XAR3
         000bf3 BF   
    1818 000bf4 AB61          MOV *AR3, AR3 ; |726| 
    1819 000bf6 A96B          MOV port(*AR3(T0)), AR1 ; |726| 
         000bf8 99   
    1820 000bf9 ED00          MOV dbl(*SP(#0)), XAR3
         000bfb BF   
    1821 000bfc AB61          MOV *AR3, AR3 ; |726| 
    1822 000bfe 7DFF          AND #0xff3f, AR1, AC0 ; |726| 
         000c00 3F09 
    1823 000c02 EC0E          BSET @#7, AC0 ; |726| 
         000c04 00   
    1824 000c05 C06B          MOV AC0, port(*AR3(T0)) ; |726| 
         000c07 9A   
    1825                      .dwpsn  file "../c5535_bsl_revc/ezdsp5535_v1/c55xx_csl/src/csl_dat.c",line 729,column 3,is_stmt
    1826 000c08 ED00          MOV dbl(*SP(#0)), XAR3
         000c0a BF   
    1827 000c0b AB61          MOV *AR3, AR3 ; |729| 
    1828 000c0d A96B          MOV port(*AR3(T0)), AR1 ; |729| 
         000c0f 99   
    1829 000c10 ED00          MOV dbl(*SP(#0)), XAR3
         000c12 BF   
    1830 000c13 AB61          MOV *AR3, AR3 ; |729| 
    1831 000c15 7DFC          AND #0xfcff, AR1, AC0 ; |729| 
         000c17 FF09 
    1832 000c19 C06B          MOV AC0, port(*AR3(T0)) ; |729| 
         000c1b 9A   
    1833                      .dwpsn  file "../c5535_bsl_revc/ezdsp5535_v1/c55xx_csl/src/csl_dat.c",line 732,column 3,is_stmt
    1834 000c1c ED00          MOV dbl(*SP(#0)), XAR3
         000c1e BF   
    1835 000c1f 7600          MOV #100, T0 ; |732| 
         000c21 6448 
    1836 000c23 AB61          MOV *AR3, AR3 ; |732| 
    1837 000c25 A96B          MOV port(*AR3(T0)), AR1 ; |732| 
         000c27 99   
    1838 000c28 ED00          MOV dbl(*SP(#0)), XAR3
         000c2a BF   
    1839 000c2b AB61          MOV *AR3, AR3 ; |732| 
    1840 000c2d A908          MOV *SP(#4), AR1 ; |732| 
    1841 000c2f 1A00          OR #0x0000, AR1, AR1 ; |732| 
         000c31 99   
    1842 000c32 C96B          MOV AR1, port(*AR3(T0)) ; |732| 
         000c34 9A   
    1843                      .dwpsn  file "../c5535_bsl_revc/ezdsp5535_v1/c55xx_csl/src/csl_dat.c",line 735,column 9,is_stmt
    1844 000c35 ED00          MOV dbl(*SP(#0)), XAR3
         000c37 BF   
    1845 000c38 7600          MOV #101, T0 ; |735| 
         000c3a 6548 
    1846 000c3c AB61          MOV *AR3, AR3 ; |735| 
    1847 000c3e A96B          MOV port(*AR3(T0)), AR1 ; |735| 
         000c40 99   
    1848 000c41 ED00          MOV dbl(*SP(#0)), XAR3
         000c43 BF   
TMS320C55x Assembler PC v4.4.1 Sun Sep 09 00:03:45 2018

Tools Copyright (c) 1996-2012 Texas Instruments Incorporated
csl_dat.asm                                                          PAGE   49

    1849 000c44 AB61          MOV *AR3, AR3 ; |735| 
    1850 000c46 EC1E          BCLR @#15, AR1 ; |735| 
         000c48 92   
    1851 000c49 EC1E          BSET @#15, AR1 ; |735| 
         000c4b 90   
    1852 000c4c C96B          MOV AR1, port(*AR3(T0)) ; |735| 
         000c4e 9A   
    1853                      .dwpsn  file "../c5535_bsl_revc/ezdsp5535_v1/c55xx_csl/src/csl_dat.c",line 737,column 14,is_stmt
    1854 000c4f 4A21          B $C$L49  ; |737| 
    1855                                                      ; branch occurs ; |737| 
    1856 000c51       $C$L48:    
    1857                      .dwpsn  file "../c5535_bsl_revc/ezdsp5535_v1/c55xx_csl/src/csl_dat.c",line 621,column 5,is_stmt
    1858 000c51 A910          MOV *SP(#8), AR1 ; |621| 
    1859 000c53 6D09          BCC $C$L44,AR1 == #0 ; |621| 
         000c55 FC4B 
    1860                                                      ; branchcc occurs ; |621| 
    1861 000c57 3C1A          MOV #1, AR2
    1862 000c59 1290          CMP AR1 == AR2, TC1 ; |621| 
         000c5b A0   
    1863 000c5c 6D64          BCC $C$L45,TC1 ; |621| 
         000c5e FD16 
    1864                                                      ; branchcc occurs ; |621| 
    1865 000c60 3C2A          MOV #2, AR2
    1866 000c62 1290          CMP AR1 == AR2, TC1 ; |621| 
         000c64 A0   
    1867 000c65 6D64          BCC $C$L46,TC1 ; |621| 
         000c67 FE01 
    1868                                                      ; branchcc occurs ; |621| 
    1869 000c69 3C3A          MOV #3, AR2
    1870 000c6b 1290          CMP AR1 == AR2, TC1 ; |621| 
         000c6d A0   
    1871 000c6e 6D64          BCC $C$L47,TC1 ; |621| 
         000c70 FEEC 
    1872                                                      ; branchcc occurs ; |621| 
    1873 000c72       $C$L49:    
    1874                      .dwpsn  file "../c5535_bsl_revc/ezdsp5535_v1/c55xx_csl/src/csl_dat.c",line 740,column 5,is_stmt
    1875 000c72 3C04          MOV #0, T0
    1876 000c74       $C$L50:    
    1877                      .dwpsn  file "../c5535_bsl_revc/ezdsp5535_v1/c55xx_csl/src/csl_dat.c",line 741,column 1,is_stmt
    1878 000c74 4E11          AADD #17, SP
    1879                      .dwcfi  cfa_offset, 1
    1880              $C$DW$51        .dwtag  DW_TAG_TI_branch
    1881                      .dwattr $C$DW$51, DW_AT_low_pc(0x00)
    1882                      .dwattr $C$DW$51, DW_AT_TI_return
    1883 000c76 4804          RET
    1884                                                      ; return occurs
    1885              
    1886              $C$DW$52        .dwtag  DW_TAG_TI_loop
    1887                      .dwattr $C$DW$52, DW_AT_name("F:\eZdsp_C55x_FreeRTOS_Port\VerifiedOKInDbg\eZDSP_5535_Files\ccsws2\tes
    1888                      .dwattr $C$DW$52, DW_AT_TI_begin_file("../c5535_bsl_revc/ezdsp5535_v1/c55xx_csl/src/csl_dat.c")
    1889                      .dwattr $C$DW$52, DW_AT_TI_begin_line(0x268)
    1890                      .dwattr $C$DW$52, DW_AT_TI_end_line(0x26b)
    1891              $C$DW$53        .dwtag  DW_TAG_TI_loop_range
    1892                      .dwattr $C$DW$53, DW_AT_low_pc($C$DW$L$_DAT_fill$21$B)
    1893                      .dwattr $C$DW$53, DW_AT_high_pc($C$DW$L$_DAT_fill$21$E)
TMS320C55x Assembler PC v4.4.1 Sun Sep 09 00:03:45 2018

Tools Copyright (c) 1996-2012 Texas Instruments Incorporated
csl_dat.asm                                                          PAGE   50

    1894                      .dwendtag $C$DW$52
    1895              
    1896                      .dwattr $C$DW$36, DW_AT_TI_end_file("../c5535_bsl_revc/ezdsp5535_v1/c55xx_csl/src/csl_dat.c")
    1897                      .dwattr $C$DW$36, DW_AT_TI_end_line(0x2e5)
    1898                      .dwattr $C$DW$36, DW_AT_TI_end_column(0x01)
    1899                      .dwendentry
    1900                      .dwendtag $C$DW$36
    1901              
    1902 000c78               .sect   ".text"
    1903                      .align 4
    1904                      .global _DAT_wait
    1905              
    1906              $C$DW$54        .dwtag  DW_TAG_subprogram, DW_AT_name("DAT_wait")
    1907                      .dwattr $C$DW$54, DW_AT_low_pc(_DAT_wait)
    1908                      .dwattr $C$DW$54, DW_AT_high_pc(0x00)
    1909                      .dwattr $C$DW$54, DW_AT_TI_symbol_name("_DAT_wait")
    1910                      .dwattr $C$DW$54, DW_AT_external
    1911                      .dwattr $C$DW$54, DW_AT_type(*$C$DW$T$37)
    1912                      .dwattr $C$DW$54, DW_AT_TI_begin_file("../c5535_bsl_revc/ezdsp5535_v1/c55xx_csl/src/csl_dat.c")
    1913                      .dwattr $C$DW$54, DW_AT_TI_begin_line(0x31d)
    1914                      .dwattr $C$DW$54, DW_AT_TI_begin_column(0x0c)
    1915                      .dwattr $C$DW$54, DW_AT_TI_max_frame_size(0x06)
    1916                      .dwpsn  file "../c5535_bsl_revc/ezdsp5535_v1/c55xx_csl/src/csl_dat.c",line 800,column 1,is_stmt,addre
    1917              
    1918                      .dwfde $C$DW$CIE, _DAT_wait
    1919              $C$DW$55        .dwtag  DW_TAG_formal_parameter, DW_AT_name("hDAT")
    1920                      .dwattr $C$DW$55, DW_AT_TI_symbol_name("_hDAT")
    1921                      .dwattr $C$DW$55, DW_AT_type(*$C$DW$T$35)
    1922                      .dwattr $C$DW$55, DW_AT_location[DW_OP_reg17]
    1923              ;*******************************************************************************
    1924              ;* FUNCTION NAME: DAT_wait                                                     *
    1925              ;*                                                                             *
    1926              ;*   Function Uses Regs : AC0,AC0,T0,AR0,XAR0,AR1,AR2,AR3,XAR3,SP,CARRY,TC1,   *
    1927              ;*                        M40,SATA,SATD,RDM,FRCT,SMUL                          *
    1928              ;*   Stack Frame        : Compact (No Frame Pointer, w/ debug)                 *
    1929              ;*   Total Frame Size   : 6 words                                              *
    1930              ;*                        (1 return address/alignment)                         *
    1931              ;*                        (5 local values)                                     *
    1932              ;*   Min System Stack   : 1 word                                               *
    1933              ;*******************************************************************************
    1934 000c78       _DAT_wait:
    1935                      .dwcfi  cfa_offset, 1
    1936                      .dwcfi  save_reg_to_mem, 91, -1
    1937 000c78 4EFB          AADD #-5, SP
    1938                      .dwcfi  cfa_offset, 6
    1939              $C$DW$56        .dwtag  DW_TAG_variable, DW_AT_name("hDAT")
    1940                      .dwattr $C$DW$56, DW_AT_TI_symbol_name("_hDAT")
    1941                      .dwattr $C$DW$56, DW_AT_type(*$C$DW$T$35)
    1942                      .dwattr $C$DW$56, DW_AT_location[DW_OP_bregx 0x24 0]
    1943              $C$DW$57        .dwtag  DW_TAG_variable, DW_AT_name("status")
    1944                      .dwattr $C$DW$57, DW_AT_TI_symbol_name("_status")
    1945                      .dwattr $C$DW$57, DW_AT_type(*$C$DW$T$31)
    1946                      .dwattr $C$DW$57, DW_AT_location[DW_OP_bregx 0x24 2]
    1947              $C$DW$58        .dwtag  DW_TAG_variable, DW_AT_name("chanNum")
    1948                      .dwattr $C$DW$58, DW_AT_TI_symbol_name("_chanNum")
TMS320C55x Assembler PC v4.4.1 Sun Sep 09 00:03:45 2018

Tools Copyright (c) 1996-2012 Texas Instruments Incorporated
csl_dat.asm                                                          PAGE   51

    1949                      .dwattr $C$DW$58, DW_AT_type(*$C$DW$T$19)
    1950                      .dwattr $C$DW$58, DW_AT_location[DW_OP_bregx 0x24 3]
    1951              $C$DW$59        .dwtag  DW_TAG_variable, DW_AT_name("timeOut")
    1952                      .dwattr $C$DW$59, DW_AT_TI_symbol_name("_timeOut")
    1953                      .dwattr $C$DW$59, DW_AT_type(*$C$DW$T$19)
    1954                      .dwattr $C$DW$59, DW_AT_location[DW_OP_bregx 0x24 4]
    1955 000c7a EB00          MOV XAR0, dbl(*SP(#0))
         000c7c 85   
    1956                      .dwpsn  file "../c5535_bsl_revc/ezdsp5535_v1/c55xx_csl/src/csl_dat.c",line 805,column 5,is_stmt
    1957 000c7d E604          MOV #1, *SP(#2) ; |805| 
         000c7f 01   
    1958                      .dwpsn  file "../c5535_bsl_revc/ezdsp5535_v1/c55xx_csl/src/csl_dat.c",line 806,column 5,is_stmt
    1959 000c80 ED00          MOV dbl(*SP(#0)), XAR3
         000c82 BF   
    1960 000c83 90B0          MOV XAR3, AC0
    1961 000c85 6290          BCC $C$L51,AC0 != #0 ; |806| 
    1962                                                      ; branchcc occurs ; |806| 
    1963                      .dwpsn  file "../c5535_bsl_revc/ezdsp5535_v1/c55xx_csl/src/csl_dat.c",line 808,column 3,is_stmt
    1964 000c87 3E54          MOV #-5, T0
    1965 000c89 0601          B $C$L63  ; |808| 
         000c8b 31   
    1966                                                      ; branch occurs ; |808| 
    1967 000c8c       $C$L51:    
    1968                      .dwpsn  file "../c5535_bsl_revc/ezdsp5535_v1/c55xx_csl/src/csl_dat.c",line 810,column 5,is_stmt
    1969 000c8c A973          MOV *AR3(short(#1)), AR1 ; |810| 
    1970 000c8e C906          MOV AR1, *SP(#3) ; |810| 
    1971                      .dwpsn  file "../c5535_bsl_revc/ezdsp5535_v1/c55xx_csl/src/csl_dat.c",line 812,column 11,is_stmt
    1972 000c90 3C4A          MOV #4, AR2
    1973 000c92 1294          CMPU AR1 < AR2, TC1 ; |812| 
         000c94 A4   
    1974 000c95 6D64          BCC $C$L61,TC1 ; |812| 
         000c97 0102 
    1975                                                      ; branchcc occurs ; |812| 
    1976 000c99       $C$L52:    
    1977 000c99       $C$DW$L$_DAT_wait$4$B:
    1978                      .dwpsn  file "../c5535_bsl_revc/ezdsp5535_v1/c55xx_csl/src/csl_dat.c",line 814,column 9,is_stmt
    1979 000c99 F706          SUB #4, *SP(#3) ; |814| 
         000c9b FFFC 
    1980                      .dwpsn  file "../c5535_bsl_revc/ezdsp5535_v1/c55xx_csl/src/csl_dat.c",line 812,column 11,is_stmt
    1981 000c9d A906          MOV *SP(#3), AR1 ; |812| 
    1982 000c9f 1298          CMPU AR1 >= AR2, TC1 ; |812| 
         000ca1 A4   
    1983 000ca2 0464          BCC $C$L52,TC1 ; |812| 
         000ca4 F4   
    1984                                                      ; branchcc occurs ; |812| 
    1985 000ca5       $C$DW$L$_DAT_wait$4$E:
    1986                      .dwpsn  file "../c5535_bsl_revc/ezdsp5535_v1/c55xx_csl/src/csl_dat.c",line 817,column 5,is_stmt
    1987 000ca5 0600          B $C$L61  ; |817| 
         000ca7 F3   
    1988                                                      ; branch occurs ; |817| 
    1989 000ca8       $C$L53:    
    1990                      .dwpsn  file "../c5535_bsl_revc/ezdsp5535_v1/c55xx_csl/src/csl_dat.c",line 820,column 9,is_stmt
    1991 000ca8 FB08          MOV #4095, *SP(#4) ; |820| 
         000caa 0FFF 
    1992                      .dwpsn  file "../c5535_bsl_revc/ezdsp5535_v1/c55xx_csl/src/csl_dat.c",line 821,column 16,is_stmt
TMS320C55x Assembler PC v4.4.1 Sun Sep 09 00:03:45 2018

Tools Copyright (c) 1996-2012 Texas Instruments Incorporated
csl_dat.asm                                                          PAGE   52

    1993 000cac A904          MOV *SP(#2), AR1 ; |821| 
    1994 000cae 6D09          BCC $C$L62,AR1 == #0 ; |821| 
         000cb0 0109 
    1995                                                      ; branchcc occurs ; |821| 
    1996 000cb2 A908          MOV *SP(#4), AR1 ; |821| 
    1997 000cb4 7C00          SUB #1, AR1, AR2 ; |821| 
         000cb6 01A9 
    1998 000cb8 CA08          MOV AR2, *SP(#4) ; |821| 
    1999 000cba 6D09          BCC $C$L62,AR1 == #0 ; |821| 
         000cbc 00FD 
    2000                                                      ; branchcc occurs ; |821| 
    2001 000cbe       $C$L54:    
    2002 000cbe       $C$DW$L$_DAT_wait$9$B:
    2003                      .dwpsn  file "../c5535_bsl_revc/ezdsp5535_v1/c55xx_csl/src/csl_dat.c",line 823,column 13,is_stmt
    2004 000cbe ED00          MOV dbl(*SP(#0)), XAR3
         000cc0 BF   
    2005 000cc1 AB61          MOV *AR3, AR3 ; |823| 
    2006 000cc3 A97B          MOV port(*AR3(short(#5))), AR1 ; |823| 
         000cc5 99   
    2007 000cc6 7D80          AND #0x8000, AR1, AC0 ; |823| 
         000cc8 0009 
    2008 000cca 1005          SFTS AC0, #-15, AC0 ; |823| 
         000ccc 31   
    2009 000ccd C004          MOV AC0, *SP(#2) ; |823| 
    2010                      .dwpsn  file "../c5535_bsl_revc/ezdsp5535_v1/c55xx_csl/src/csl_dat.c",line 821,column 16,is_stmt
    2011 000ccf 2209          MOV AC0, AR1
    2012 000cd1 6D09          BCC $C$L62,AR1 == #0 ; |821| 
         000cd3 00E6 
    2013                                                      ; branchcc occurs ; |821| 
    2014 000cd5       $C$DW$L$_DAT_wait$9$E:
    2015 000cd5       $C$DW$L$_DAT_wait$10$B:
    2016 000cd5 A908          MOV *SP(#4), AR1 ; |821| 
    2017 000cd7 7C00          SUB #1, AR1, AR2 ; |821| 
         000cd9 01A9 
    2018 000cdb CA08          MOV AR2, *SP(#4) ; |821| 
    2019 000cdd 0419          BCC $C$L54,AR1 != #0 ; |821| 
         000cdf DE   
    2020                                                      ; branchcc occurs ; |821| 
    2021 000ce0       $C$DW$L$_DAT_wait$10$E:
    2022                      .dwpsn  file "../c5535_bsl_revc/ezdsp5535_v1/c55xx_csl/src/csl_dat.c",line 825,column 8,is_stmt
    2023 000ce0 0600          B $C$L62  ; |825| 
         000ce2 D8   
    2024                                                      ; branch occurs ; |825| 
    2025 000ce3       $C$L55:    
    2026                      .dwpsn  file "../c5535_bsl_revc/ezdsp5535_v1/c55xx_csl/src/csl_dat.c",line 828,column 9,is_stmt
    2027 000ce3 FB08          MOV #4095, *SP(#4) ; |828| 
         000ce5 0FFF 
    2028                      .dwpsn  file "../c5535_bsl_revc/ezdsp5535_v1/c55xx_csl/src/csl_dat.c",line 829,column 16,is_stmt
    2029 000ce7 A904          MOV *SP(#2), AR1 ; |829| 
    2030 000ce9 6D09          BCC $C$L62,AR1 == #0 ; |829| 
         000ceb 00CE 
    2031                                                      ; branchcc occurs ; |829| 
    2032 000ced A908          MOV *SP(#4), AR1 ; |829| 
    2033 000cef 7C00          SUB #1, AR1, AR2 ; |829| 
         000cf1 01A9 
TMS320C55x Assembler PC v4.4.1 Sun Sep 09 00:03:45 2018

Tools Copyright (c) 1996-2012 Texas Instruments Incorporated
csl_dat.asm                                                          PAGE   53

    2034 000cf3 CA08          MOV AR2, *SP(#4) ; |829| 
    2035 000cf5 6D09          BCC $C$L62,AR1 == #0 ; |829| 
         000cf7 00C2 
    2036                                                      ; branchcc occurs ; |829| 
    2037 000cf9       $C$L56:    
    2038 000cf9       $C$DW$L$_DAT_wait$14$B:
    2039                      .dwpsn  file "../c5535_bsl_revc/ezdsp5535_v1/c55xx_csl/src/csl_dat.c",line 831,column 13,is_stmt
    2040 000cf9 ED00          MOV dbl(*SP(#0)), XAR3
         000cfb BF   
    2041 000cfc 7600          MOV #37, T0 ; |831| 
         000cfe 2548 
    2042 000d00 AB61          MOV *AR3, AR3 ; |831| 
    2043 000d02 A96B          MOV port(*AR3(T0)), AR1 ; |831| 
         000d04 99   
    2044 000d05 7D80          AND #0x8000, AR1, AC0 ; |831| 
         000d07 0009 
    2045 000d09 1005          SFTS AC0, #-15, AC0 ; |831| 
         000d0b 31   
    2046 000d0c C004          MOV AC0, *SP(#2) ; |831| 
    2047                      .dwpsn  file "../c5535_bsl_revc/ezdsp5535_v1/c55xx_csl/src/csl_dat.c",line 829,column 16,is_stmt
    2048 000d0e 2209          MOV AC0, AR1
    2049 000d10 6D09          BCC $C$L62,AR1 == #0 ; |829| 
         000d12 00A7 
    2050                                                      ; branchcc occurs ; |829| 
    2051 000d14       $C$DW$L$_DAT_wait$14$E:
    2052 000d14       $C$DW$L$_DAT_wait$15$B:
    2053 000d14 A908          MOV *SP(#4), AR1 ; |829| 
    2054 000d16 7C00          SUB #1, AR1, AR2 ; |829| 
         000d18 01A9 
    2055 000d1a CA08          MOV AR2, *SP(#4) ; |829| 
    2056 000d1c 0419          BCC $C$L56,AR1 != #0 ; |829| 
         000d1e DA   
    2057                                                      ; branchcc occurs ; |829| 
    2058 000d1f       $C$DW$L$_DAT_wait$15$E:
    2059                      .dwpsn  file "../c5535_bsl_revc/ezdsp5535_v1/c55xx_csl/src/csl_dat.c",line 833,column 8,is_stmt
    2060 000d1f 0600          B $C$L62  ; |833| 
         000d21 99   
    2061                                                      ; branch occurs ; |833| 
    2062 000d22       $C$L57:    
    2063                      .dwpsn  file "../c5535_bsl_revc/ezdsp5535_v1/c55xx_csl/src/csl_dat.c",line 836,column 9,is_stmt
    2064 000d22 FB08          MOV #4095, *SP(#4) ; |836| 
         000d24 0FFF 
    2065                      .dwpsn  file "../c5535_bsl_revc/ezdsp5535_v1/c55xx_csl/src/csl_dat.c",line 837,column 16,is_stmt
    2066 000d26 A904          MOV *SP(#2), AR1 ; |837| 
    2067 000d28 6D09          BCC $C$L62,AR1 == #0 ; |837| 
         000d2a 008F 
    2068                                                      ; branchcc occurs ; |837| 
    2069 000d2c A908          MOV *SP(#4), AR1 ; |837| 
    2070 000d2e 7C00          SUB #1, AR1, AR2 ; |837| 
         000d30 01A9 
    2071 000d32 CA08          MOV AR2, *SP(#4) ; |837| 
    2072 000d34 6D09          BCC $C$L62,AR1 == #0 ; |837| 
         000d36 0083 
    2073                                                      ; branchcc occurs ; |837| 
    2074 000d38       $C$L58:    
TMS320C55x Assembler PC v4.4.1 Sun Sep 09 00:03:45 2018

Tools Copyright (c) 1996-2012 Texas Instruments Incorporated
csl_dat.asm                                                          PAGE   54

    2075 000d38       $C$DW$L$_DAT_wait$19$B:
    2076                      .dwpsn  file "../c5535_bsl_revc/ezdsp5535_v1/c55xx_csl/src/csl_dat.c",line 839,column 13,is_stmt
    2077 000d38 ED00          MOV dbl(*SP(#0)), XAR3
         000d3a BF   
    2078 000d3b 7600          MOV #69, T0 ; |839| 
         000d3d 4548 
    2079 000d3f AB61          MOV *AR3, AR3 ; |839| 
    2080 000d41 A96B          MOV port(*AR3(T0)), AR1 ; |839| 
         000d43 99   
    2081 000d44 7D80          AND #0x8000, AR1, AC0 ; |839| 
         000d46 0009 
    2082 000d48 1005          SFTS AC0, #-15, AC0 ; |839| 
         000d4a 31   
    2083 000d4b C004          MOV AC0, *SP(#2) ; |839| 
    2084                      .dwpsn  file "../c5535_bsl_revc/ezdsp5535_v1/c55xx_csl/src/csl_dat.c",line 837,column 16,is_stmt
    2085 000d4d 2209          MOV AC0, AR1
    2086 000d4f 0409          BCC $C$L62,AR1 == #0 ; |837| 
         000d51 69   
    2087                                                      ; branchcc occurs ; |837| 
    2088 000d52       $C$DW$L$_DAT_wait$19$E:
    2089 000d52       $C$DW$L$_DAT_wait$20$B:
    2090 000d52 A908          MOV *SP(#4), AR1 ; |837| 
    2091 000d54 7C00          SUB #1, AR1, AR2 ; |837| 
         000d56 01A9 
    2092 000d58 CA08          MOV AR2, *SP(#4) ; |837| 
    2093 000d5a 0419          BCC $C$L58,AR1 != #0 ; |837| 
         000d5c DB   
    2094                                                      ; branchcc occurs ; |837| 
    2095 000d5d       $C$DW$L$_DAT_wait$20$E:
    2096                      .dwpsn  file "../c5535_bsl_revc/ezdsp5535_v1/c55xx_csl/src/csl_dat.c",line 841,column 8,is_stmt
    2097 000d5d 0600          B $C$L62  ; |841| 
         000d5f 5B   
    2098                                                      ; branch occurs ; |841| 
    2099 000d60       $C$L59:    
    2100                      .dwpsn  file "../c5535_bsl_revc/ezdsp5535_v1/c55xx_csl/src/csl_dat.c",line 844,column 9,is_stmt
    2101 000d60 FB08          MOV #4095, *SP(#4) ; |844| 
         000d62 0FFF 
    2102                      .dwpsn  file "../c5535_bsl_revc/ezdsp5535_v1/c55xx_csl/src/csl_dat.c",line 845,column 16,is_stmt
    2103 000d64 A904          MOV *SP(#2), AR1 ; |845| 
    2104 000d66 0409          BCC $C$L62,AR1 == #0 ; |845| 
         000d68 52   
    2105                                                      ; branchcc occurs ; |845| 
    2106 000d69 A908          MOV *SP(#4), AR1 ; |845| 
    2107 000d6b 7C00          SUB #1, AR1, AR2 ; |845| 
         000d6d 01A9 
    2108 000d6f CA08          MOV AR2, *SP(#4) ; |845| 
    2109 000d71 0409          BCC $C$L62,AR1 == #0 ; |845| 
         000d73 47   
    2110                                                      ; branchcc occurs ; |845| 
    2111 000d74       $C$L60:    
    2112 000d74       $C$DW$L$_DAT_wait$24$B:
    2113                      .dwpsn  file "../c5535_bsl_revc/ezdsp5535_v1/c55xx_csl/src/csl_dat.c",line 847,column 13,is_stmt
    2114 000d74 ED00          MOV dbl(*SP(#0)), XAR3
         000d76 BF   
    2115 000d77 7600          MOV #101, T0 ; |847| 
TMS320C55x Assembler PC v4.4.1 Sun Sep 09 00:03:45 2018

Tools Copyright (c) 1996-2012 Texas Instruments Incorporated
csl_dat.asm                                                          PAGE   55

         000d79 6548 
    2116 000d7b AB61          MOV *AR3, AR3 ; |847| 
    2117 000d7d A96B          MOV port(*AR3(T0)), AR1 ; |847| 
         000d7f 99   
    2118 000d80 7D80          AND #0x8000, AR1, AC0 ; |847| 
         000d82 0009 
    2119 000d84 1005          SFTS AC0, #-15, AC0 ; |847| 
         000d86 31   
    2120 000d87 C004          MOV AC0, *SP(#2) ; |847| 
    2121                      .dwpsn  file "../c5535_bsl_revc/ezdsp5535_v1/c55xx_csl/src/csl_dat.c",line 845,column 16,is_stmt
    2122 000d89 2209          MOV AC0, AR1
    2123 000d8b 0409          BCC $C$L62,AR1 == #0 ; |845| 
         000d8d 2D   
    2124                                                      ; branchcc occurs ; |845| 
    2125 000d8e       $C$DW$L$_DAT_wait$24$E:
    2126 000d8e       $C$DW$L$_DAT_wait$25$B:
    2127 000d8e A908          MOV *SP(#4), AR1 ; |845| 
    2128 000d90 7C00          SUB #1, AR1, AR2 ; |845| 
         000d92 01A9 
    2129 000d94 CA08          MOV AR2, *SP(#4) ; |845| 
    2130 000d96 0419          BCC $C$L60,AR1 != #0 ; |845| 
         000d98 DB   
    2131                                                      ; branchcc occurs ; |845| 
    2132 000d99       $C$DW$L$_DAT_wait$25$E:
    2133                      .dwpsn  file "../c5535_bsl_revc/ezdsp5535_v1/c55xx_csl/src/csl_dat.c",line 849,column 8,is_stmt
    2134 000d99 4A20          B $C$L62  ; |849| 
    2135                                                      ; branch occurs ; |849| 
    2136 000d9b       $C$L61:    
    2137                      .dwpsn  file "../c5535_bsl_revc/ezdsp5535_v1/c55xx_csl/src/csl_dat.c",line 817,column 5,is_stmt
    2138 000d9b A906          MOV *SP(#3), AR1 ; |817| 
    2139 000d9d 6D09          BCC $C$L53,AR1 == #0 ; |817| 
         000d9f FF07 
    2140                                                      ; branchcc occurs ; |817| 
    2141 000da1 3C1A          MOV #1, AR2
    2142 000da3 1290          CMP AR1 == AR2, TC1 ; |817| 
         000da5 A0   
    2143 000da6 6D64          BCC $C$L55,TC1 ; |817| 
         000da8 FF39 
    2144                                                      ; branchcc occurs ; |817| 
    2145 000daa 3C2A          MOV #2, AR2
    2146 000dac 1290          CMP AR1 == AR2, TC1 ; |817| 
         000dae A0   
    2147 000daf 6D64          BCC $C$L57,TC1 ; |817| 
         000db1 FF6F 
    2148                                                      ; branchcc occurs ; |817| 
    2149 000db3 3C3A          MOV #3, AR2
    2150 000db5 1290          CMP AR1 == AR2, TC1 ; |817| 
         000db7 A0   
    2151 000db8 0464          BCC $C$L59,TC1 ; |817| 
         000dba A5   
    2152                                                      ; branchcc occurs ; |817| 
    2153 000dbb       $C$L62:    
    2154                      .dwpsn  file "../c5535_bsl_revc/ezdsp5535_v1/c55xx_csl/src/csl_dat.c",line 852,column 5,is_stmt
    2155 000dbb 3C04          MOV #0, T0
    2156 000dbd       $C$L63:    
TMS320C55x Assembler PC v4.4.1 Sun Sep 09 00:03:45 2018

Tools Copyright (c) 1996-2012 Texas Instruments Incorporated
csl_dat.asm                                                          PAGE   56

    2157                      .dwpsn  file "../c5535_bsl_revc/ezdsp5535_v1/c55xx_csl/src/csl_dat.c",line 853,column 1,is_stmt
    2158 000dbd 4E05          AADD #5, SP
    2159                      .dwcfi  cfa_offset, 1
    2160              $C$DW$60        .dwtag  DW_TAG_TI_branch
    2161                      .dwattr $C$DW$60, DW_AT_low_pc(0x00)
    2162                      .dwattr $C$DW$60, DW_AT_TI_return
    2163 000dbf 4804          RET
    2164                                                      ; return occurs
    2165              
    2166              $C$DW$61        .dwtag  DW_TAG_TI_loop
    2167                      .dwattr $C$DW$61, DW_AT_name("F:\eZdsp_C55x_FreeRTOS_Port\VerifiedOKInDbg\eZDSP_5535_Files\ccsws2\tes
    2168                      .dwattr $C$DW$61, DW_AT_TI_begin_file("../c5535_bsl_revc/ezdsp5535_v1/c55xx_csl/src/csl_dat.c")
    2169                      .dwattr $C$DW$61, DW_AT_TI_begin_line(0x34d)
    2170                      .dwattr $C$DW$61, DW_AT_TI_end_line(0x350)
    2171              $C$DW$62        .dwtag  DW_TAG_TI_loop_range
    2172                      .dwattr $C$DW$62, DW_AT_low_pc($C$DW$L$_DAT_wait$24$B)
    2173                      .dwattr $C$DW$62, DW_AT_high_pc($C$DW$L$_DAT_wait$24$E)
    2174              $C$DW$63        .dwtag  DW_TAG_TI_loop_range
    2175                      .dwattr $C$DW$63, DW_AT_low_pc($C$DW$L$_DAT_wait$25$B)
    2176                      .dwattr $C$DW$63, DW_AT_high_pc($C$DW$L$_DAT_wait$25$E)
    2177                      .dwendtag $C$DW$61
    2178              
    2179              
    2180              $C$DW$64        .dwtag  DW_TAG_TI_loop
    2181                      .dwattr $C$DW$64, DW_AT_name("F:\eZdsp_C55x_FreeRTOS_Port\VerifiedOKInDbg\eZDSP_5535_Files\ccsws2\tes
    2182                      .dwattr $C$DW$64, DW_AT_TI_begin_file("../c5535_bsl_revc/ezdsp5535_v1/c55xx_csl/src/csl_dat.c")
    2183                      .dwattr $C$DW$64, DW_AT_TI_begin_line(0x345)
    2184                      .dwattr $C$DW$64, DW_AT_TI_end_line(0x348)
    2185              $C$DW$65        .dwtag  DW_TAG_TI_loop_range
    2186                      .dwattr $C$DW$65, DW_AT_low_pc($C$DW$L$_DAT_wait$19$B)
    2187                      .dwattr $C$DW$65, DW_AT_high_pc($C$DW$L$_DAT_wait$19$E)
    2188              $C$DW$66        .dwtag  DW_TAG_TI_loop_range
    2189                      .dwattr $C$DW$66, DW_AT_low_pc($C$DW$L$_DAT_wait$20$B)
    2190                      .dwattr $C$DW$66, DW_AT_high_pc($C$DW$L$_DAT_wait$20$E)
    2191                      .dwendtag $C$DW$64
    2192              
    2193              
    2194              $C$DW$67        .dwtag  DW_TAG_TI_loop
    2195                      .dwattr $C$DW$67, DW_AT_name("F:\eZdsp_C55x_FreeRTOS_Port\VerifiedOKInDbg\eZDSP_5535_Files\ccsws2\tes
    2196                      .dwattr $C$DW$67, DW_AT_TI_begin_file("../c5535_bsl_revc/ezdsp5535_v1/c55xx_csl/src/csl_dat.c")
    2197                      .dwattr $C$DW$67, DW_AT_TI_begin_line(0x33d)
    2198                      .dwattr $C$DW$67, DW_AT_TI_end_line(0x340)
    2199              $C$DW$68        .dwtag  DW_TAG_TI_loop_range
    2200                      .dwattr $C$DW$68, DW_AT_low_pc($C$DW$L$_DAT_wait$14$B)
    2201                      .dwattr $C$DW$68, DW_AT_high_pc($C$DW$L$_DAT_wait$14$E)
    2202              $C$DW$69        .dwtag  DW_TAG_TI_loop_range
    2203                      .dwattr $C$DW$69, DW_AT_low_pc($C$DW$L$_DAT_wait$15$B)
    2204                      .dwattr $C$DW$69, DW_AT_high_pc($C$DW$L$_DAT_wait$15$E)
    2205                      .dwendtag $C$DW$67
    2206              
    2207              
    2208              $C$DW$70        .dwtag  DW_TAG_TI_loop
    2209                      .dwattr $C$DW$70, DW_AT_name("F:\eZdsp_C55x_FreeRTOS_Port\VerifiedOKInDbg\eZDSP_5535_Files\ccsws2\tes
    2210                      .dwattr $C$DW$70, DW_AT_TI_begin_file("../c5535_bsl_revc/ezdsp5535_v1/c55xx_csl/src/csl_dat.c")
    2211                      .dwattr $C$DW$70, DW_AT_TI_begin_line(0x335)
TMS320C55x Assembler PC v4.4.1 Sun Sep 09 00:03:45 2018

Tools Copyright (c) 1996-2012 Texas Instruments Incorporated
csl_dat.asm                                                          PAGE   57

    2212                      .dwattr $C$DW$70, DW_AT_TI_end_line(0x338)
    2213              $C$DW$71        .dwtag  DW_TAG_TI_loop_range
    2214                      .dwattr $C$DW$71, DW_AT_low_pc($C$DW$L$_DAT_wait$9$B)
    2215                      .dwattr $C$DW$71, DW_AT_high_pc($C$DW$L$_DAT_wait$9$E)
    2216              $C$DW$72        .dwtag  DW_TAG_TI_loop_range
    2217                      .dwattr $C$DW$72, DW_AT_low_pc($C$DW$L$_DAT_wait$10$B)
    2218                      .dwattr $C$DW$72, DW_AT_high_pc($C$DW$L$_DAT_wait$10$E)
    2219                      .dwendtag $C$DW$70
    2220              
    2221              
    2222              $C$DW$73        .dwtag  DW_TAG_TI_loop
    2223                      .dwattr $C$DW$73, DW_AT_name("F:\eZdsp_C55x_FreeRTOS_Port\VerifiedOKInDbg\eZDSP_5535_Files\ccsws2\tes
    2224                      .dwattr $C$DW$73, DW_AT_TI_begin_file("../c5535_bsl_revc/ezdsp5535_v1/c55xx_csl/src/csl_dat.c")
    2225                      .dwattr $C$DW$73, DW_AT_TI_begin_line(0x32c)
    2226                      .dwattr $C$DW$73, DW_AT_TI_end_line(0x32f)
    2227              $C$DW$74        .dwtag  DW_TAG_TI_loop_range
    2228                      .dwattr $C$DW$74, DW_AT_low_pc($C$DW$L$_DAT_wait$4$B)
    2229                      .dwattr $C$DW$74, DW_AT_high_pc($C$DW$L$_DAT_wait$4$E)
    2230                      .dwendtag $C$DW$73
    2231              
    2232                      .dwattr $C$DW$54, DW_AT_TI_end_file("../c5535_bsl_revc/ezdsp5535_v1/c55xx_csl/src/csl_dat.c")
    2233                      .dwattr $C$DW$54, DW_AT_TI_end_line(0x355)
    2234                      .dwattr $C$DW$54, DW_AT_TI_end_column(0x01)
    2235                      .dwendentry
    2236                      .dwendtag $C$DW$54
    2237              
    2238              
    2239              ;*******************************************************************************
    2240              ;* TYPE INFORMATION                                                            *
    2241              ;*******************************************************************************
    2242              
    2243              $C$DW$T$27      .dwtag  DW_TAG_enumeration_type
    2244                      .dwattr $C$DW$T$27, DW_AT_byte_size(0x01)
    2245              $C$DW$75        .dwtag  DW_TAG_enumerator, DW_AT_name("CSL_DAT_CHAN0"), DW_AT_const_value(0x00)
    2246              $C$DW$76        .dwtag  DW_TAG_enumerator, DW_AT_name("CSL_DAT_CHAN1"), DW_AT_const_value(0x01)
    2247              $C$DW$77        .dwtag  DW_TAG_enumerator, DW_AT_name("CSL_DAT_CHAN2"), DW_AT_const_value(0x02)
    2248              $C$DW$78        .dwtag  DW_TAG_enumerator, DW_AT_name("CSL_DAT_CHAN3"), DW_AT_const_value(0x03)
    2249              $C$DW$79        .dwtag  DW_TAG_enumerator, DW_AT_name("CSL_DAT_CHAN4"), DW_AT_const_value(0x04)
    2250              $C$DW$80        .dwtag  DW_TAG_enumerator, DW_AT_name("CSL_DAT_CHAN5"), DW_AT_const_value(0x05)
    2251              $C$DW$81        .dwtag  DW_TAG_enumerator, DW_AT_name("CSL_DAT_CHAN6"), DW_AT_const_value(0x06)
    2252              $C$DW$82        .dwtag  DW_TAG_enumerator, DW_AT_name("CSL_DAT_CHAN7"), DW_AT_const_value(0x07)
    2253              $C$DW$83        .dwtag  DW_TAG_enumerator, DW_AT_name("CSL_DAT_CHAN8"), DW_AT_const_value(0x08)
    2254              $C$DW$84        .dwtag  DW_TAG_enumerator, DW_AT_name("CSL_DAT_CHAN9"), DW_AT_const_value(0x09)
    2255              $C$DW$85        .dwtag  DW_TAG_enumerator, DW_AT_name("CSL_DAT_CHAN10"), DW_AT_const_value(0x0a)
    2256              $C$DW$86        .dwtag  DW_TAG_enumerator, DW_AT_name("CSL_DAT_CHAN11"), DW_AT_const_value(0x0b)
    2257              $C$DW$87        .dwtag  DW_TAG_enumerator, DW_AT_name("CSL_DAT_CHAN12"), DW_AT_const_value(0x0c)
    2258              $C$DW$88        .dwtag  DW_TAG_enumerator, DW_AT_name("CSL_DAT_CHAN13"), DW_AT_const_value(0x0d)
    2259              $C$DW$89        .dwtag  DW_TAG_enumerator, DW_AT_name("CSL_DAT_CHAN14"), DW_AT_const_value(0x0e)
    2260              $C$DW$90        .dwtag  DW_TAG_enumerator, DW_AT_name("CSL_DAT_CHAN15"), DW_AT_const_value(0x0f)
    2261              $C$DW$91        .dwtag  DW_TAG_enumerator, DW_AT_name("CSL_DAT_CHAN_INV"), DW_AT_const_value(0x10)
    2262                      .dwendtag $C$DW$T$27
    2263              
    2264              $C$DW$T$28      .dwtag  DW_TAG_typedef, DW_AT_name("CSL_DATChanNum")
    2265                      .dwattr $C$DW$T$28, DW_AT_type(*$C$DW$T$27)
    2266                      .dwattr $C$DW$T$28, DW_AT_language(DW_LANG_C)
TMS320C55x Assembler PC v4.4.1 Sun Sep 09 00:03:45 2018

Tools Copyright (c) 1996-2012 Texas Instruments Incorporated
csl_dat.asm                                                          PAGE   58

    2267              
    2268              $C$DW$T$29      .dwtag  DW_TAG_enumeration_type
    2269                      .dwattr $C$DW$T$29, DW_AT_byte_size(0x01)
    2270              $C$DW$92        .dwtag  DW_TAG_enumerator, DW_AT_name("CSL_DAT_ENGINE0"), DW_AT_const_value(0x00)
    2271              $C$DW$93        .dwtag  DW_TAG_enumerator, DW_AT_name("CSL_DAT_ENGINE1"), DW_AT_const_value(0x01)
    2272              $C$DW$94        .dwtag  DW_TAG_enumerator, DW_AT_name("CSL_DAT_ENGINE2"), DW_AT_const_value(0x02)
    2273              $C$DW$95        .dwtag  DW_TAG_enumerator, DW_AT_name("CSL_DAT_ENGINE3"), DW_AT_const_value(0x03)
    2274              $C$DW$96        .dwtag  DW_TAG_enumerator, DW_AT_name("CSL_DAT_ENGINE_INV"), DW_AT_const_value(0x04)
    2275                      .dwendtag $C$DW$T$29
    2276              
    2277              $C$DW$T$30      .dwtag  DW_TAG_typedef, DW_AT_name("CSL_DATEngineId")
    2278                      .dwattr $C$DW$T$30, DW_AT_type(*$C$DW$T$29)
    2279                      .dwattr $C$DW$T$30, DW_AT_language(DW_LANG_C)
    2280              
    2281              $C$DW$T$22      .dwtag  DW_TAG_structure_type
    2282                      .dwattr $C$DW$T$22, DW_AT_byte_size(0x66)
    2283              $C$DW$97        .dwtag  DW_TAG_member
    2284                      .dwattr $C$DW$97, DW_AT_type(*$C$DW$T$20)
    2285                      .dwattr $C$DW$97, DW_AT_name("DMACH0SSAL")
    2286                      .dwattr $C$DW$97, DW_AT_TI_symbol_name("_DMACH0SSAL")
    2287                      .dwattr $C$DW$97, DW_AT_data_member_location[DW_OP_plus_uconst 0x0]
    2288                      .dwattr $C$DW$97, DW_AT_accessibility(DW_ACCESS_public)
    2289              $C$DW$98        .dwtag  DW_TAG_member
    2290                      .dwattr $C$DW$98, DW_AT_type(*$C$DW$T$20)
    2291                      .dwattr $C$DW$98, DW_AT_name("DMACH0SSAU")
    2292                      .dwattr $C$DW$98, DW_AT_TI_symbol_name("_DMACH0SSAU")
    2293                      .dwattr $C$DW$98, DW_AT_data_member_location[DW_OP_plus_uconst 0x1]
    2294                      .dwattr $C$DW$98, DW_AT_accessibility(DW_ACCESS_public)
    2295              $C$DW$99        .dwtag  DW_TAG_member
    2296                      .dwattr $C$DW$99, DW_AT_type(*$C$DW$T$20)
    2297                      .dwattr $C$DW$99, DW_AT_name("DMACH0DSAL")
    2298                      .dwattr $C$DW$99, DW_AT_TI_symbol_name("_DMACH0DSAL")
    2299                      .dwattr $C$DW$99, DW_AT_data_member_location[DW_OP_plus_uconst 0x2]
    2300                      .dwattr $C$DW$99, DW_AT_accessibility(DW_ACCESS_public)
    2301              $C$DW$100       .dwtag  DW_TAG_member
    2302                      .dwattr $C$DW$100, DW_AT_type(*$C$DW$T$20)
    2303                      .dwattr $C$DW$100, DW_AT_name("DMACH0DSAU")
    2304                      .dwattr $C$DW$100, DW_AT_TI_symbol_name("_DMACH0DSAU")
    2305                      .dwattr $C$DW$100, DW_AT_data_member_location[DW_OP_plus_uconst 0x3]
    2306                      .dwattr $C$DW$100, DW_AT_accessibility(DW_ACCESS_public)
    2307              $C$DW$101       .dwtag  DW_TAG_member
    2308                      .dwattr $C$DW$101, DW_AT_type(*$C$DW$T$20)
    2309                      .dwattr $C$DW$101, DW_AT_name("DMACH0TCR1")
    2310                      .dwattr $C$DW$101, DW_AT_TI_symbol_name("_DMACH0TCR1")
    2311                      .dwattr $C$DW$101, DW_AT_data_member_location[DW_OP_plus_uconst 0x4]
    2312                      .dwattr $C$DW$101, DW_AT_accessibility(DW_ACCESS_public)
    2313              $C$DW$102       .dwtag  DW_TAG_member
    2314                      .dwattr $C$DW$102, DW_AT_type(*$C$DW$T$20)
    2315                      .dwattr $C$DW$102, DW_AT_name("DMACH0TCR2")
    2316                      .dwattr $C$DW$102, DW_AT_TI_symbol_name("_DMACH0TCR2")
    2317                      .dwattr $C$DW$102, DW_AT_data_member_location[DW_OP_plus_uconst 0x5]
    2318                      .dwattr $C$DW$102, DW_AT_accessibility(DW_ACCESS_public)
    2319              $C$DW$103       .dwtag  DW_TAG_member
    2320                      .dwattr $C$DW$103, DW_AT_type(*$C$DW$T$21)
    2321                      .dwattr $C$DW$103, DW_AT_name("RSVD0")
TMS320C55x Assembler PC v4.4.1 Sun Sep 09 00:03:45 2018

Tools Copyright (c) 1996-2012 Texas Instruments Incorporated
csl_dat.asm                                                          PAGE   59

    2322                      .dwattr $C$DW$103, DW_AT_TI_symbol_name("_RSVD0")
    2323                      .dwattr $C$DW$103, DW_AT_data_member_location[DW_OP_plus_uconst 0x6]
    2324                      .dwattr $C$DW$103, DW_AT_accessibility(DW_ACCESS_public)
    2325              $C$DW$104       .dwtag  DW_TAG_member
    2326                      .dwattr $C$DW$104, DW_AT_type(*$C$DW$T$20)
    2327                      .dwattr $C$DW$104, DW_AT_name("DMACH1SSAL")
    2328                      .dwattr $C$DW$104, DW_AT_TI_symbol_name("_DMACH1SSAL")
    2329                      .dwattr $C$DW$104, DW_AT_data_member_location[DW_OP_plus_uconst 0x20]
    2330                      .dwattr $C$DW$104, DW_AT_accessibility(DW_ACCESS_public)
    2331              $C$DW$105       .dwtag  DW_TAG_member
    2332                      .dwattr $C$DW$105, DW_AT_type(*$C$DW$T$20)
    2333                      .dwattr $C$DW$105, DW_AT_name("DMACH1SSAU")
    2334                      .dwattr $C$DW$105, DW_AT_TI_symbol_name("_DMACH1SSAU")
    2335                      .dwattr $C$DW$105, DW_AT_data_member_location[DW_OP_plus_uconst 0x21]
    2336                      .dwattr $C$DW$105, DW_AT_accessibility(DW_ACCESS_public)
    2337              $C$DW$106       .dwtag  DW_TAG_member
    2338                      .dwattr $C$DW$106, DW_AT_type(*$C$DW$T$20)
    2339                      .dwattr $C$DW$106, DW_AT_name("DMACH1DSAL")
    2340                      .dwattr $C$DW$106, DW_AT_TI_symbol_name("_DMACH1DSAL")
    2341                      .dwattr $C$DW$106, DW_AT_data_member_location[DW_OP_plus_uconst 0x22]
    2342                      .dwattr $C$DW$106, DW_AT_accessibility(DW_ACCESS_public)
    2343              $C$DW$107       .dwtag  DW_TAG_member
    2344                      .dwattr $C$DW$107, DW_AT_type(*$C$DW$T$20)
    2345                      .dwattr $C$DW$107, DW_AT_name("DMACH1DSAU")
    2346                      .dwattr $C$DW$107, DW_AT_TI_symbol_name("_DMACH1DSAU")
    2347                      .dwattr $C$DW$107, DW_AT_data_member_location[DW_OP_plus_uconst 0x23]
    2348                      .dwattr $C$DW$107, DW_AT_accessibility(DW_ACCESS_public)
    2349              $C$DW$108       .dwtag  DW_TAG_member
    2350                      .dwattr $C$DW$108, DW_AT_type(*$C$DW$T$20)
    2351                      .dwattr $C$DW$108, DW_AT_name("DMACH1TCR1")
    2352                      .dwattr $C$DW$108, DW_AT_TI_symbol_name("_DMACH1TCR1")
    2353                      .dwattr $C$DW$108, DW_AT_data_member_location[DW_OP_plus_uconst 0x24]
    2354                      .dwattr $C$DW$108, DW_AT_accessibility(DW_ACCESS_public)
    2355              $C$DW$109       .dwtag  DW_TAG_member
    2356                      .dwattr $C$DW$109, DW_AT_type(*$C$DW$T$20)
    2357                      .dwattr $C$DW$109, DW_AT_name("DMACH1TCR2")
    2358                      .dwattr $C$DW$109, DW_AT_TI_symbol_name("_DMACH1TCR2")
    2359                      .dwattr $C$DW$109, DW_AT_data_member_location[DW_OP_plus_uconst 0x25]
    2360                      .dwattr $C$DW$109, DW_AT_accessibility(DW_ACCESS_public)
    2361              $C$DW$110       .dwtag  DW_TAG_member
    2362                      .dwattr $C$DW$110, DW_AT_type(*$C$DW$T$21)
    2363                      .dwattr $C$DW$110, DW_AT_name("RSVD1")
    2364                      .dwattr $C$DW$110, DW_AT_TI_symbol_name("_RSVD1")
    2365                      .dwattr $C$DW$110, DW_AT_data_member_location[DW_OP_plus_uconst 0x26]
    2366                      .dwattr $C$DW$110, DW_AT_accessibility(DW_ACCESS_public)
    2367              $C$DW$111       .dwtag  DW_TAG_member
    2368                      .dwattr $C$DW$111, DW_AT_type(*$C$DW$T$20)
    2369                      .dwattr $C$DW$111, DW_AT_name("DMACH2SSAL")
    2370                      .dwattr $C$DW$111, DW_AT_TI_symbol_name("_DMACH2SSAL")
    2371                      .dwattr $C$DW$111, DW_AT_data_member_location[DW_OP_plus_uconst 0x40]
    2372                      .dwattr $C$DW$111, DW_AT_accessibility(DW_ACCESS_public)
    2373              $C$DW$112       .dwtag  DW_TAG_member
    2374                      .dwattr $C$DW$112, DW_AT_type(*$C$DW$T$20)
    2375                      .dwattr $C$DW$112, DW_AT_name("DMACH2SSAU")
    2376                      .dwattr $C$DW$112, DW_AT_TI_symbol_name("_DMACH2SSAU")
TMS320C55x Assembler PC v4.4.1 Sun Sep 09 00:03:45 2018

Tools Copyright (c) 1996-2012 Texas Instruments Incorporated
csl_dat.asm                                                          PAGE   60

    2377                      .dwattr $C$DW$112, DW_AT_data_member_location[DW_OP_plus_uconst 0x41]
    2378                      .dwattr $C$DW$112, DW_AT_accessibility(DW_ACCESS_public)
    2379              $C$DW$113       .dwtag  DW_TAG_member
    2380                      .dwattr $C$DW$113, DW_AT_type(*$C$DW$T$20)
    2381                      .dwattr $C$DW$113, DW_AT_name("DMACH2DSAL")
    2382                      .dwattr $C$DW$113, DW_AT_TI_symbol_name("_DMACH2DSAL")
    2383                      .dwattr $C$DW$113, DW_AT_data_member_location[DW_OP_plus_uconst 0x42]
    2384                      .dwattr $C$DW$113, DW_AT_accessibility(DW_ACCESS_public)
    2385              $C$DW$114       .dwtag  DW_TAG_member
    2386                      .dwattr $C$DW$114, DW_AT_type(*$C$DW$T$20)
    2387                      .dwattr $C$DW$114, DW_AT_name("DMACH2DSAU")
    2388                      .dwattr $C$DW$114, DW_AT_TI_symbol_name("_DMACH2DSAU")
    2389                      .dwattr $C$DW$114, DW_AT_data_member_location[DW_OP_plus_uconst 0x43]
    2390                      .dwattr $C$DW$114, DW_AT_accessibility(DW_ACCESS_public)
    2391              $C$DW$115       .dwtag  DW_TAG_member
    2392                      .dwattr $C$DW$115, DW_AT_type(*$C$DW$T$20)
    2393                      .dwattr $C$DW$115, DW_AT_name("DMACH2TCR1")
    2394                      .dwattr $C$DW$115, DW_AT_TI_symbol_name("_DMACH2TCR1")
    2395                      .dwattr $C$DW$115, DW_AT_data_member_location[DW_OP_plus_uconst 0x44]
    2396                      .dwattr $C$DW$115, DW_AT_accessibility(DW_ACCESS_public)
    2397              $C$DW$116       .dwtag  DW_TAG_member
    2398                      .dwattr $C$DW$116, DW_AT_type(*$C$DW$T$20)
    2399                      .dwattr $C$DW$116, DW_AT_name("DMACH2TCR2")
    2400                      .dwattr $C$DW$116, DW_AT_TI_symbol_name("_DMACH2TCR2")
    2401                      .dwattr $C$DW$116, DW_AT_data_member_location[DW_OP_plus_uconst 0x45]
    2402                      .dwattr $C$DW$116, DW_AT_accessibility(DW_ACCESS_public)
    2403              $C$DW$117       .dwtag  DW_TAG_member
    2404                      .dwattr $C$DW$117, DW_AT_type(*$C$DW$T$21)
    2405                      .dwattr $C$DW$117, DW_AT_name("RSVD2")
    2406                      .dwattr $C$DW$117, DW_AT_TI_symbol_name("_RSVD2")
    2407                      .dwattr $C$DW$117, DW_AT_data_member_location[DW_OP_plus_uconst 0x46]
    2408                      .dwattr $C$DW$117, DW_AT_accessibility(DW_ACCESS_public)
    2409              $C$DW$118       .dwtag  DW_TAG_member
    2410                      .dwattr $C$DW$118, DW_AT_type(*$C$DW$T$20)
    2411                      .dwattr $C$DW$118, DW_AT_name("DMACH3SSAL")
    2412                      .dwattr $C$DW$118, DW_AT_TI_symbol_name("_DMACH3SSAL")
    2413                      .dwattr $C$DW$118, DW_AT_data_member_location[DW_OP_plus_uconst 0x60]
    2414                      .dwattr $C$DW$118, DW_AT_accessibility(DW_ACCESS_public)
    2415              $C$DW$119       .dwtag  DW_TAG_member
    2416                      .dwattr $C$DW$119, DW_AT_type(*$C$DW$T$20)
    2417                      .dwattr $C$DW$119, DW_AT_name("DMACH3SSAU")
    2418                      .dwattr $C$DW$119, DW_AT_TI_symbol_name("_DMACH3SSAU")
    2419                      .dwattr $C$DW$119, DW_AT_data_member_location[DW_OP_plus_uconst 0x61]
    2420                      .dwattr $C$DW$119, DW_AT_accessibility(DW_ACCESS_public)
    2421              $C$DW$120       .dwtag  DW_TAG_member
    2422                      .dwattr $C$DW$120, DW_AT_type(*$C$DW$T$20)
    2423                      .dwattr $C$DW$120, DW_AT_name("DMACH3DSAL")
    2424                      .dwattr $C$DW$120, DW_AT_TI_symbol_name("_DMACH3DSAL")
    2425                      .dwattr $C$DW$120, DW_AT_data_member_location[DW_OP_plus_uconst 0x62]
    2426                      .dwattr $C$DW$120, DW_AT_accessibility(DW_ACCESS_public)
    2427              $C$DW$121       .dwtag  DW_TAG_member
    2428                      .dwattr $C$DW$121, DW_AT_type(*$C$DW$T$20)
    2429                      .dwattr $C$DW$121, DW_AT_name("DMACH3DSAU")
    2430                      .dwattr $C$DW$121, DW_AT_TI_symbol_name("_DMACH3DSAU")
    2431                      .dwattr $C$DW$121, DW_AT_data_member_location[DW_OP_plus_uconst 0x63]
TMS320C55x Assembler PC v4.4.1 Sun Sep 09 00:03:45 2018

Tools Copyright (c) 1996-2012 Texas Instruments Incorporated
csl_dat.asm                                                          PAGE   61

    2432                      .dwattr $C$DW$121, DW_AT_accessibility(DW_ACCESS_public)
    2433              $C$DW$122       .dwtag  DW_TAG_member
    2434                      .dwattr $C$DW$122, DW_AT_type(*$C$DW$T$20)
    2435                      .dwattr $C$DW$122, DW_AT_name("DMACH3TCR1")
    2436                      .dwattr $C$DW$122, DW_AT_TI_symbol_name("_DMACH3TCR1")
    2437                      .dwattr $C$DW$122, DW_AT_data_member_location[DW_OP_plus_uconst 0x64]
    2438                      .dwattr $C$DW$122, DW_AT_accessibility(DW_ACCESS_public)
    2439              $C$DW$123       .dwtag  DW_TAG_member
    2440                      .dwattr $C$DW$123, DW_AT_type(*$C$DW$T$20)
    2441                      .dwattr $C$DW$123, DW_AT_name("DMACH3TCR2")
    2442                      .dwattr $C$DW$123, DW_AT_TI_symbol_name("_DMACH3TCR2")
    2443                      .dwattr $C$DW$123, DW_AT_data_member_location[DW_OP_plus_uconst 0x65]
    2444                      .dwattr $C$DW$123, DW_AT_accessibility(DW_ACCESS_public)
    2445                      .dwendtag $C$DW$T$22
    2446              
    2447              $C$DW$T$23      .dwtag  DW_TAG_typedef, DW_AT_name("CSL_DmaRegs")
    2448                      .dwattr $C$DW$T$23, DW_AT_type(*$C$DW$T$22)
    2449                      .dwattr $C$DW$T$23, DW_AT_language(DW_LANG_C)
    2450              $C$DW$124       .dwtag  DW_TAG_TI_far_type
    2451                      .dwattr $C$DW$124, DW_AT_type(*$C$DW$T$23)
    2452              $C$DW$125       .dwtag  DW_TAG_TI_ioport_type
    2453                      .dwattr $C$DW$125, DW_AT_type(*$C$DW$124)
    2454              $C$DW$T$24      .dwtag  DW_TAG_volatile_type
    2455                      .dwattr $C$DW$T$24, DW_AT_type(*$C$DW$125)
    2456              $C$DW$T$25      .dwtag  DW_TAG_pointer_type
    2457                      .dwattr $C$DW$T$25, DW_AT_type(*$C$DW$T$24)
    2458                      .dwattr $C$DW$T$25, DW_AT_address_class(0x10)
    2459              $C$DW$T$26      .dwtag  DW_TAG_typedef, DW_AT_name("CSL_DmaRegsOvly")
    2460                      .dwattr $C$DW$T$26, DW_AT_type(*$C$DW$T$25)
    2461                      .dwattr $C$DW$T$26, DW_AT_language(DW_LANG_C)
    2462              
    2463              $C$DW$T$32      .dwtag  DW_TAG_structure_type
    2464                      .dwattr $C$DW$T$32, DW_AT_byte_size(0x05)
    2465              $C$DW$126       .dwtag  DW_TAG_member
    2466                      .dwattr $C$DW$126, DW_AT_type(*$C$DW$T$26)
    2467                      .dwattr $C$DW$126, DW_AT_name("dmaRegs")
    2468                      .dwattr $C$DW$126, DW_AT_TI_symbol_name("_dmaRegs")
    2469                      .dwattr $C$DW$126, DW_AT_data_member_location[DW_OP_plus_uconst 0x0]
    2470                      .dwattr $C$DW$126, DW_AT_accessibility(DW_ACCESS_public)
    2471              $C$DW$127       .dwtag  DW_TAG_member
    2472                      .dwattr $C$DW$127, DW_AT_type(*$C$DW$T$28)
    2473                      .dwattr $C$DW$127, DW_AT_name("chanNum")
    2474                      .dwattr $C$DW$127, DW_AT_TI_symbol_name("_chanNum")
    2475                      .dwattr $C$DW$127, DW_AT_data_member_location[DW_OP_plus_uconst 0x1]
    2476                      .dwattr $C$DW$127, DW_AT_accessibility(DW_ACCESS_public)
    2477              $C$DW$128       .dwtag  DW_TAG_member
    2478                      .dwattr $C$DW$128, DW_AT_type(*$C$DW$T$30)
    2479                      .dwattr $C$DW$128, DW_AT_name("datInstNum")
    2480                      .dwattr $C$DW$128, DW_AT_TI_symbol_name("_datInstNum")
    2481                      .dwattr $C$DW$128, DW_AT_data_member_location[DW_OP_plus_uconst 0x2]
    2482                      .dwattr $C$DW$128, DW_AT_accessibility(DW_ACCESS_public)
    2483              $C$DW$129       .dwtag  DW_TAG_member
    2484                      .dwattr $C$DW$129, DW_AT_type(*$C$DW$T$19)
    2485                      .dwattr $C$DW$129, DW_AT_name("chanPrio")
    2486                      .dwattr $C$DW$129, DW_AT_TI_symbol_name("_chanPrio")
TMS320C55x Assembler PC v4.4.1 Sun Sep 09 00:03:45 2018

Tools Copyright (c) 1996-2012 Texas Instruments Incorporated
csl_dat.asm                                                          PAGE   62

    2487                      .dwattr $C$DW$129, DW_AT_data_member_location[DW_OP_plus_uconst 0x3]
    2488                      .dwattr $C$DW$129, DW_AT_accessibility(DW_ACCESS_public)
    2489              $C$DW$130       .dwtag  DW_TAG_member
    2490                      .dwattr $C$DW$130, DW_AT_type(*$C$DW$T$31)
    2491                      .dwattr $C$DW$130, DW_AT_name("isChanFree")
    2492                      .dwattr $C$DW$130, DW_AT_TI_symbol_name("_isChanFree")
    2493                      .dwattr $C$DW$130, DW_AT_data_member_location[DW_OP_plus_uconst 0x4]
    2494                      .dwattr $C$DW$130, DW_AT_accessibility(DW_ACCESS_public)
    2495                      .dwendtag $C$DW$T$32
    2496              
    2497              $C$DW$T$33      .dwtag  DW_TAG_typedef, DW_AT_name("CSL_DAT_ChannelObj")
    2498                      .dwattr $C$DW$T$33, DW_AT_type(*$C$DW$T$32)
    2499                      .dwattr $C$DW$T$33, DW_AT_language(DW_LANG_C)
    2500              $C$DW$T$34      .dwtag  DW_TAG_pointer_type
    2501                      .dwattr $C$DW$T$34, DW_AT_type(*$C$DW$T$33)
    2502                      .dwattr $C$DW$T$34, DW_AT_address_class(0x17)
    2503              $C$DW$T$35      .dwtag  DW_TAG_typedef, DW_AT_name("CSL_DAT_Handle")
    2504                      .dwattr $C$DW$T$35, DW_AT_type(*$C$DW$T$34)
    2505                      .dwattr $C$DW$T$35, DW_AT_language(DW_LANG_C)
    2506              $C$DW$T$4       .dwtag  DW_TAG_base_type
    2507                      .dwattr $C$DW$T$4, DW_AT_encoding(DW_ATE_boolean)
    2508                      .dwattr $C$DW$T$4, DW_AT_name("bool")
    2509                      .dwattr $C$DW$T$4, DW_AT_byte_size(0x01)
    2510              $C$DW$T$5       .dwtag  DW_TAG_base_type
    2511                      .dwattr $C$DW$T$5, DW_AT_encoding(DW_ATE_signed_char)
    2512                      .dwattr $C$DW$T$5, DW_AT_name("signed char")
    2513                      .dwattr $C$DW$T$5, DW_AT_byte_size(0x01)
    2514              $C$DW$T$6       .dwtag  DW_TAG_base_type
    2515                      .dwattr $C$DW$T$6, DW_AT_encoding(DW_ATE_unsigned_char)
    2516                      .dwattr $C$DW$T$6, DW_AT_name("unsigned char")
    2517                      .dwattr $C$DW$T$6, DW_AT_byte_size(0x01)
    2518              $C$DW$T$7       .dwtag  DW_TAG_base_type
    2519                      .dwattr $C$DW$T$7, DW_AT_encoding(DW_ATE_signed_char)
    2520                      .dwattr $C$DW$T$7, DW_AT_name("wchar_t")
    2521                      .dwattr $C$DW$T$7, DW_AT_byte_size(0x01)
    2522              $C$DW$T$8       .dwtag  DW_TAG_base_type
    2523                      .dwattr $C$DW$T$8, DW_AT_encoding(DW_ATE_signed)
    2524                      .dwattr $C$DW$T$8, DW_AT_name("short")
    2525                      .dwattr $C$DW$T$8, DW_AT_byte_size(0x01)
    2526              $C$DW$T$36      .dwtag  DW_TAG_typedef, DW_AT_name("Int16")
    2527                      .dwattr $C$DW$T$36, DW_AT_type(*$C$DW$T$8)
    2528                      .dwattr $C$DW$T$36, DW_AT_language(DW_LANG_C)
    2529              $C$DW$T$37      .dwtag  DW_TAG_typedef, DW_AT_name("CSL_Status")
    2530                      .dwattr $C$DW$T$37, DW_AT_type(*$C$DW$T$36)
    2531                      .dwattr $C$DW$T$37, DW_AT_language(DW_LANG_C)
    2532              $C$DW$T$38      .dwtag  DW_TAG_pointer_type
    2533                      .dwattr $C$DW$T$38, DW_AT_type(*$C$DW$T$37)
    2534                      .dwattr $C$DW$T$38, DW_AT_address_class(0x17)
    2535              $C$DW$T$9       .dwtag  DW_TAG_base_type
    2536                      .dwattr $C$DW$T$9, DW_AT_encoding(DW_ATE_unsigned)
    2537                      .dwattr $C$DW$T$9, DW_AT_name("unsigned short")
    2538                      .dwattr $C$DW$T$9, DW_AT_byte_size(0x01)
    2539              $C$DW$T$19      .dwtag  DW_TAG_typedef, DW_AT_name("Uint16")
    2540                      .dwattr $C$DW$T$19, DW_AT_type(*$C$DW$T$9)
    2541                      .dwattr $C$DW$T$19, DW_AT_language(DW_LANG_C)
TMS320C55x Assembler PC v4.4.1 Sun Sep 09 00:03:45 2018

Tools Copyright (c) 1996-2012 Texas Instruments Incorporated
csl_dat.asm                                                          PAGE   63

    2542              $C$DW$131       .dwtag  DW_TAG_TI_far_type
    2543                      .dwattr $C$DW$131, DW_AT_type(*$C$DW$T$19)
    2544              $C$DW$T$20      .dwtag  DW_TAG_volatile_type
    2545                      .dwattr $C$DW$T$20, DW_AT_type(*$C$DW$131)
    2546              
    2547              $C$DW$T$21      .dwtag  DW_TAG_array_type
    2548                      .dwattr $C$DW$T$21, DW_AT_type(*$C$DW$T$20)
    2549                      .dwattr $C$DW$T$21, DW_AT_language(DW_LANG_C)
    2550                      .dwattr $C$DW$T$21, DW_AT_byte_size(0x1a)
    2551              $C$DW$132       .dwtag  DW_TAG_subrange_type
    2552                      .dwattr $C$DW$132, DW_AT_upper_bound(0x19)
    2553                      .dwendtag $C$DW$T$21
    2554              
    2555              $C$DW$T$10      .dwtag  DW_TAG_base_type
    2556                      .dwattr $C$DW$T$10, DW_AT_encoding(DW_ATE_signed)
    2557                      .dwattr $C$DW$T$10, DW_AT_name("int")
    2558                      .dwattr $C$DW$T$10, DW_AT_byte_size(0x01)
    2559              $C$DW$T$31      .dwtag  DW_TAG_typedef, DW_AT_name("Bool")
    2560                      .dwattr $C$DW$T$31, DW_AT_type(*$C$DW$T$10)
    2561                      .dwattr $C$DW$T$31, DW_AT_language(DW_LANG_C)
    2562              $C$DW$T$11      .dwtag  DW_TAG_base_type
    2563                      .dwattr $C$DW$T$11, DW_AT_encoding(DW_ATE_unsigned)
    2564                      .dwattr $C$DW$T$11, DW_AT_name("unsigned int")
    2565                      .dwattr $C$DW$T$11, DW_AT_byte_size(0x01)
    2566              $C$DW$T$12      .dwtag  DW_TAG_base_type
    2567                      .dwattr $C$DW$T$12, DW_AT_encoding(DW_ATE_signed)
    2568                      .dwattr $C$DW$T$12, DW_AT_name("long")
    2569                      .dwattr $C$DW$T$12, DW_AT_byte_size(0x02)
    2570              $C$DW$T$13      .dwtag  DW_TAG_base_type
    2571                      .dwattr $C$DW$T$13, DW_AT_encoding(DW_ATE_unsigned)
    2572                      .dwattr $C$DW$T$13, DW_AT_name("unsigned long")
    2573                      .dwattr $C$DW$T$13, DW_AT_byte_size(0x02)
    2574              $C$DW$T$41      .dwtag  DW_TAG_typedef, DW_AT_name("Uint32")
    2575                      .dwattr $C$DW$T$41, DW_AT_type(*$C$DW$T$13)
    2576                      .dwattr $C$DW$T$41, DW_AT_language(DW_LANG_C)
    2577              $C$DW$T$43      .dwtag  DW_TAG_pointer_type
    2578                      .dwattr $C$DW$T$43, DW_AT_type(*$C$DW$T$41)
    2579                      .dwattr $C$DW$T$43, DW_AT_address_class(0x17)
    2580              $C$DW$T$14      .dwtag  DW_TAG_base_type
    2581                      .dwattr $C$DW$T$14, DW_AT_encoding(DW_ATE_signed)
    2582                      .dwattr $C$DW$T$14, DW_AT_name("long long")
    2583                      .dwattr $C$DW$T$14, DW_AT_byte_size(0x04)
    2584                      .dwattr $C$DW$T$14, DW_AT_bit_size(0x28)
    2585                      .dwattr $C$DW$T$14, DW_AT_bit_offset(0x18)
    2586              $C$DW$T$15      .dwtag  DW_TAG_base_type
    2587                      .dwattr $C$DW$T$15, DW_AT_encoding(DW_ATE_unsigned)
    2588                      .dwattr $C$DW$T$15, DW_AT_name("unsigned long long")
    2589                      .dwattr $C$DW$T$15, DW_AT_byte_size(0x04)
    2590                      .dwattr $C$DW$T$15, DW_AT_bit_size(0x28)
    2591                      .dwattr $C$DW$T$15, DW_AT_bit_offset(0x18)
    2592              $C$DW$T$16      .dwtag  DW_TAG_base_type
    2593                      .dwattr $C$DW$T$16, DW_AT_encoding(DW_ATE_float)
    2594                      .dwattr $C$DW$T$16, DW_AT_name("float")
    2595                      .dwattr $C$DW$T$16, DW_AT_byte_size(0x02)
    2596              $C$DW$T$17      .dwtag  DW_TAG_base_type
TMS320C55x Assembler PC v4.4.1 Sun Sep 09 00:03:45 2018

Tools Copyright (c) 1996-2012 Texas Instruments Incorporated
csl_dat.asm                                                          PAGE   64

    2597                      .dwattr $C$DW$T$17, DW_AT_encoding(DW_ATE_float)
    2598                      .dwattr $C$DW$T$17, DW_AT_name("double")
    2599                      .dwattr $C$DW$T$17, DW_AT_byte_size(0x02)
    2600              $C$DW$T$18      .dwtag  DW_TAG_base_type
    2601                      .dwattr $C$DW$T$18, DW_AT_encoding(DW_ATE_float)
    2602                      .dwattr $C$DW$T$18, DW_AT_name("long double")
    2603                      .dwattr $C$DW$T$18, DW_AT_byte_size(0x02)
    2604                      .dwattr $C$DW$CU, DW_AT_language(DW_LANG_C)
    2605              
    2606              ;***************************************************************
    2607              ;* DWARF CIE ENTRIES                                           *
    2608              ;***************************************************************
    2609              
    2610              $C$DW$CIE       .dwcie 91
    2611                      .dwcfi  cfa_register, 36
    2612                      .dwcfi  cfa_offset, 0
    2613                      .dwcfi  undefined, 0
    2614                      .dwcfi  undefined, 1
    2615                      .dwcfi  undefined, 2
    2616                      .dwcfi  undefined, 3
    2617                      .dwcfi  undefined, 4
    2618                      .dwcfi  undefined, 5
    2619                      .dwcfi  undefined, 6
    2620                      .dwcfi  undefined, 7
    2621                      .dwcfi  undefined, 8
    2622                      .dwcfi  undefined, 9
    2623                      .dwcfi  undefined, 10
    2624                      .dwcfi  undefined, 11
    2625                      .dwcfi  undefined, 12
    2626                      .dwcfi  undefined, 13
    2627                      .dwcfi  same_value, 14
    2628                      .dwcfi  same_value, 15
    2629                      .dwcfi  undefined, 16
    2630                      .dwcfi  undefined, 17
    2631                      .dwcfi  undefined, 18
    2632                      .dwcfi  undefined, 19
    2633                      .dwcfi  undefined, 20
    2634                      .dwcfi  undefined, 21
    2635                      .dwcfi  undefined, 22
    2636                      .dwcfi  undefined, 23
    2637                      .dwcfi  undefined, 24
    2638                      .dwcfi  undefined, 25
    2639                      .dwcfi  same_value, 26
    2640                      .dwcfi  same_value, 27
    2641                      .dwcfi  same_value, 28
    2642                      .dwcfi  same_value, 29
    2643                      .dwcfi  same_value, 30
    2644                      .dwcfi  same_value, 31
    2645                      .dwcfi  undefined, 32
    2646                      .dwcfi  undefined, 33
    2647                      .dwcfi  undefined, 34
    2648                      .dwcfi  undefined, 35
    2649                      .dwcfi  undefined, 36
    2650                      .dwcfi  undefined, 37
    2651                      .dwcfi  undefined, 38
TMS320C55x Assembler PC v4.4.1 Sun Sep 09 00:03:45 2018

Tools Copyright (c) 1996-2012 Texas Instruments Incorporated
csl_dat.asm                                                          PAGE   65

    2652                      .dwcfi  undefined, 39
    2653                      .dwcfi  undefined, 40
    2654                      .dwcfi  undefined, 41
    2655                      .dwcfi  undefined, 42
    2656                      .dwcfi  undefined, 43
    2657                      .dwcfi  undefined, 44
    2658                      .dwcfi  undefined, 45
    2659                      .dwcfi  undefined, 46
    2660                      .dwcfi  undefined, 47
    2661                      .dwcfi  undefined, 48
    2662                      .dwcfi  undefined, 49
    2663                      .dwcfi  undefined, 50
    2664                      .dwcfi  undefined, 51
    2665                      .dwcfi  undefined, 52
    2666                      .dwcfi  undefined, 53
    2667                      .dwcfi  undefined, 54
    2668                      .dwcfi  undefined, 55
    2669                      .dwcfi  undefined, 56
    2670                      .dwcfi  undefined, 57
    2671                      .dwcfi  undefined, 58
    2672                      .dwcfi  undefined, 59
    2673                      .dwcfi  undefined, 60
    2674                      .dwcfi  undefined, 61
    2675                      .dwcfi  undefined, 62
    2676                      .dwcfi  undefined, 63
    2677                      .dwcfi  undefined, 64
    2678                      .dwcfi  undefined, 65
    2679                      .dwcfi  undefined, 66
    2680                      .dwcfi  undefined, 67
    2681                      .dwcfi  undefined, 68
    2682                      .dwcfi  undefined, 69
    2683                      .dwcfi  undefined, 70
    2684                      .dwcfi  undefined, 71
    2685                      .dwcfi  undefined, 72
    2686                      .dwcfi  undefined, 73
    2687                      .dwcfi  undefined, 74
    2688                      .dwcfi  undefined, 75
    2689                      .dwcfi  undefined, 76
    2690                      .dwcfi  undefined, 77
    2691                      .dwcfi  undefined, 78
    2692                      .dwcfi  undefined, 79
    2693                      .dwcfi  undefined, 80
    2694                      .dwcfi  undefined, 81
    2695                      .dwcfi  undefined, 82
    2696                      .dwcfi  undefined, 83
    2697                      .dwcfi  undefined, 84
    2698                      .dwcfi  undefined, 85
    2699                      .dwcfi  undefined, 86
    2700                      .dwcfi  undefined, 87
    2701                      .dwcfi  undefined, 88
    2702                      .dwcfi  undefined, 89
    2703                      .dwcfi  undefined, 90
    2704                      .dwcfi  undefined, 91
    2705                      .dwendentry
    2706              
TMS320C55x Assembler PC v4.4.1 Sun Sep 09 00:03:45 2018

Tools Copyright (c) 1996-2012 Texas Instruments Incorporated
csl_dat.asm                                                          PAGE   66

    2707              ;***************************************************************
    2708              ;* DWARF REGISTER MAP                                          *
    2709              ;***************************************************************
    2710              
    2711              $C$DW$133       .dwtag  DW_TAG_TI_assign_register, DW_AT_name("AC0")
    2712                      .dwattr $C$DW$133, DW_AT_location[DW_OP_reg0]
    2713              $C$DW$134       .dwtag  DW_TAG_TI_assign_register, DW_AT_name("AC0")
    2714                      .dwattr $C$DW$134, DW_AT_location[DW_OP_reg1]
    2715              $C$DW$135       .dwtag  DW_TAG_TI_assign_register, DW_AT_name("AC0_G")
    2716                      .dwattr $C$DW$135, DW_AT_location[DW_OP_reg2]
    2717              $C$DW$136       .dwtag  DW_TAG_TI_assign_register, DW_AT_name("AC1")
    2718                      .dwattr $C$DW$136, DW_AT_location[DW_OP_reg3]
    2719              $C$DW$137       .dwtag  DW_TAG_TI_assign_register, DW_AT_name("AC1")
    2720                      .dwattr $C$DW$137, DW_AT_location[DW_OP_reg4]
    2721              $C$DW$138       .dwtag  DW_TAG_TI_assign_register, DW_AT_name("AC1_G")
    2722                      .dwattr $C$DW$138, DW_AT_location[DW_OP_reg5]
    2723              $C$DW$139       .dwtag  DW_TAG_TI_assign_register, DW_AT_name("AC2")
    2724                      .dwattr $C$DW$139, DW_AT_location[DW_OP_reg6]
    2725              $C$DW$140       .dwtag  DW_TAG_TI_assign_register, DW_AT_name("AC2")
    2726                      .dwattr $C$DW$140, DW_AT_location[DW_OP_reg7]
    2727              $C$DW$141       .dwtag  DW_TAG_TI_assign_register, DW_AT_name("AC2_G")
    2728                      .dwattr $C$DW$141, DW_AT_location[DW_OP_reg8]
    2729              $C$DW$142       .dwtag  DW_TAG_TI_assign_register, DW_AT_name("AC3")
    2730                      .dwattr $C$DW$142, DW_AT_location[DW_OP_reg9]
    2731              $C$DW$143       .dwtag  DW_TAG_TI_assign_register, DW_AT_name("AC3")
    2732                      .dwattr $C$DW$143, DW_AT_location[DW_OP_reg10]
    2733              $C$DW$144       .dwtag  DW_TAG_TI_assign_register, DW_AT_name("AC3_G")
    2734                      .dwattr $C$DW$144, DW_AT_location[DW_OP_reg11]
    2735              $C$DW$145       .dwtag  DW_TAG_TI_assign_register, DW_AT_name("T0")
    2736                      .dwattr $C$DW$145, DW_AT_location[DW_OP_reg12]
    2737              $C$DW$146       .dwtag  DW_TAG_TI_assign_register, DW_AT_name("T1")
    2738                      .dwattr $C$DW$146, DW_AT_location[DW_OP_reg13]
    2739              $C$DW$147       .dwtag  DW_TAG_TI_assign_register, DW_AT_name("T2")
    2740                      .dwattr $C$DW$147, DW_AT_location[DW_OP_reg14]
    2741              $C$DW$148       .dwtag  DW_TAG_TI_assign_register, DW_AT_name("T3")
    2742                      .dwattr $C$DW$148, DW_AT_location[DW_OP_reg15]
    2743              $C$DW$149       .dwtag  DW_TAG_TI_assign_register, DW_AT_name("AR0")
    2744                      .dwattr $C$DW$149, DW_AT_location[DW_OP_reg16]
    2745              $C$DW$150       .dwtag  DW_TAG_TI_assign_register, DW_AT_name("XAR0")
    2746                      .dwattr $C$DW$150, DW_AT_location[DW_OP_reg17]
    2747              $C$DW$151       .dwtag  DW_TAG_TI_assign_register, DW_AT_name("AR1")
    2748                      .dwattr $C$DW$151, DW_AT_location[DW_OP_reg18]
    2749              $C$DW$152       .dwtag  DW_TAG_TI_assign_register, DW_AT_name("XAR1")
    2750                      .dwattr $C$DW$152, DW_AT_location[DW_OP_reg19]
    2751              $C$DW$153       .dwtag  DW_TAG_TI_assign_register, DW_AT_name("AR2")
    2752                      .dwattr $C$DW$153, DW_AT_location[DW_OP_reg20]
    2753              $C$DW$154       .dwtag  DW_TAG_TI_assign_register, DW_AT_name("XAR2")
    2754                      .dwattr $C$DW$154, DW_AT_location[DW_OP_reg21]
    2755              $C$DW$155       .dwtag  DW_TAG_TI_assign_register, DW_AT_name("AR3")
    2756                      .dwattr $C$DW$155, DW_AT_location[DW_OP_reg22]
    2757              $C$DW$156       .dwtag  DW_TAG_TI_assign_register, DW_AT_name("XAR3")
    2758                      .dwattr $C$DW$156, DW_AT_location[DW_OP_reg23]
    2759              $C$DW$157       .dwtag  DW_TAG_TI_assign_register, DW_AT_name("AR4")
    2760                      .dwattr $C$DW$157, DW_AT_location[DW_OP_reg24]
    2761              $C$DW$158       .dwtag  DW_TAG_TI_assign_register, DW_AT_name("XAR4")
TMS320C55x Assembler PC v4.4.1 Sun Sep 09 00:03:45 2018

Tools Copyright (c) 1996-2012 Texas Instruments Incorporated
csl_dat.asm                                                          PAGE   67

    2762                      .dwattr $C$DW$158, DW_AT_location[DW_OP_reg25]
    2763              $C$DW$159       .dwtag  DW_TAG_TI_assign_register, DW_AT_name("AR5")
    2764                      .dwattr $C$DW$159, DW_AT_location[DW_OP_reg26]
    2765              $C$DW$160       .dwtag  DW_TAG_TI_assign_register, DW_AT_name("XAR5")
    2766                      .dwattr $C$DW$160, DW_AT_location[DW_OP_reg27]
    2767              $C$DW$161       .dwtag  DW_TAG_TI_assign_register, DW_AT_name("AR6")
    2768                      .dwattr $C$DW$161, DW_AT_location[DW_OP_reg28]
    2769              $C$DW$162       .dwtag  DW_TAG_TI_assign_register, DW_AT_name("XAR6")
    2770                      .dwattr $C$DW$162, DW_AT_location[DW_OP_reg29]
    2771              $C$DW$163       .dwtag  DW_TAG_TI_assign_register, DW_AT_name("AR7")
    2772                      .dwattr $C$DW$163, DW_AT_location[DW_OP_reg30]
    2773              $C$DW$164       .dwtag  DW_TAG_TI_assign_register, DW_AT_name("XAR7")
    2774                      .dwattr $C$DW$164, DW_AT_location[DW_OP_reg31]
    2775              $C$DW$165       .dwtag  DW_TAG_TI_assign_register, DW_AT_name("FP")
    2776                      .dwattr $C$DW$165, DW_AT_location[DW_OP_regx 0x20]
    2777              $C$DW$166       .dwtag  DW_TAG_TI_assign_register, DW_AT_name("XFP")
    2778                      .dwattr $C$DW$166, DW_AT_location[DW_OP_regx 0x21]
    2779              $C$DW$167       .dwtag  DW_TAG_TI_assign_register, DW_AT_name("PC")
    2780                      .dwattr $C$DW$167, DW_AT_location[DW_OP_regx 0x22]
    2781              $C$DW$168       .dwtag  DW_TAG_TI_assign_register, DW_AT_name("SP")
    2782                      .dwattr $C$DW$168, DW_AT_location[DW_OP_regx 0x23]
    2783              $C$DW$169       .dwtag  DW_TAG_TI_assign_register, DW_AT_name("XSP")
    2784                      .dwattr $C$DW$169, DW_AT_location[DW_OP_regx 0x24]
    2785              $C$DW$170       .dwtag  DW_TAG_TI_assign_register, DW_AT_name("BKC")
    2786                      .dwattr $C$DW$170, DW_AT_location[DW_OP_regx 0x25]
    2787              $C$DW$171       .dwtag  DW_TAG_TI_assign_register, DW_AT_name("BK03")
    2788                      .dwattr $C$DW$171, DW_AT_location[DW_OP_regx 0x26]
    2789              $C$DW$172       .dwtag  DW_TAG_TI_assign_register, DW_AT_name("BK47")
    2790                      .dwattr $C$DW$172, DW_AT_location[DW_OP_regx 0x27]
    2791              $C$DW$173       .dwtag  DW_TAG_TI_assign_register, DW_AT_name("ST0")
    2792                      .dwattr $C$DW$173, DW_AT_location[DW_OP_regx 0x28]
    2793              $C$DW$174       .dwtag  DW_TAG_TI_assign_register, DW_AT_name("ST1")
    2794                      .dwattr $C$DW$174, DW_AT_location[DW_OP_regx 0x29]
    2795              $C$DW$175       .dwtag  DW_TAG_TI_assign_register, DW_AT_name("ST2")
    2796                      .dwattr $C$DW$175, DW_AT_location[DW_OP_regx 0x2a]
    2797              $C$DW$176       .dwtag  DW_TAG_TI_assign_register, DW_AT_name("ST3")
    2798                      .dwattr $C$DW$176, DW_AT_location[DW_OP_regx 0x2b]
    2799              $C$DW$177       .dwtag  DW_TAG_TI_assign_register, DW_AT_name("MDP")
    2800                      .dwattr $C$DW$177, DW_AT_location[DW_OP_regx 0x2c]
    2801              $C$DW$178       .dwtag  DW_TAG_TI_assign_register, DW_AT_name("MDP05")
    2802                      .dwattr $C$DW$178, DW_AT_location[DW_OP_regx 0x2d]
    2803              $C$DW$179       .dwtag  DW_TAG_TI_assign_register, DW_AT_name("MDP67")
    2804                      .dwattr $C$DW$179, DW_AT_location[DW_OP_regx 0x2e]
    2805              $C$DW$180       .dwtag  DW_TAG_TI_assign_register, DW_AT_name("BRC0")
    2806                      .dwattr $C$DW$180, DW_AT_location[DW_OP_regx 0x2f]
    2807              $C$DW$181       .dwtag  DW_TAG_TI_assign_register, DW_AT_name("RSA0")
    2808                      .dwattr $C$DW$181, DW_AT_location[DW_OP_regx 0x30]
    2809              $C$DW$182       .dwtag  DW_TAG_TI_assign_register, DW_AT_name("RSA0_H")
    2810                      .dwattr $C$DW$182, DW_AT_location[DW_OP_regx 0x31]
    2811              $C$DW$183       .dwtag  DW_TAG_TI_assign_register, DW_AT_name("REA0")
    2812                      .dwattr $C$DW$183, DW_AT_location[DW_OP_regx 0x32]
    2813              $C$DW$184       .dwtag  DW_TAG_TI_assign_register, DW_AT_name("REA0_H")
    2814                      .dwattr $C$DW$184, DW_AT_location[DW_OP_regx 0x33]
    2815              $C$DW$185       .dwtag  DW_TAG_TI_assign_register, DW_AT_name("BRS1")
    2816                      .dwattr $C$DW$185, DW_AT_location[DW_OP_regx 0x34]
TMS320C55x Assembler PC v4.4.1 Sun Sep 09 00:03:45 2018

Tools Copyright (c) 1996-2012 Texas Instruments Incorporated
csl_dat.asm                                                          PAGE   68

    2817              $C$DW$186       .dwtag  DW_TAG_TI_assign_register, DW_AT_name("BRC1")
    2818                      .dwattr $C$DW$186, DW_AT_location[DW_OP_regx 0x35]
    2819              $C$DW$187       .dwtag  DW_TAG_TI_assign_register, DW_AT_name("RSA1")
    2820                      .dwattr $C$DW$187, DW_AT_location[DW_OP_regx 0x36]
    2821              $C$DW$188       .dwtag  DW_TAG_TI_assign_register, DW_AT_name("RSA1_H")
    2822                      .dwattr $C$DW$188, DW_AT_location[DW_OP_regx 0x37]
    2823              $C$DW$189       .dwtag  DW_TAG_TI_assign_register, DW_AT_name("REA1")
    2824                      .dwattr $C$DW$189, DW_AT_location[DW_OP_regx 0x38]
    2825              $C$DW$190       .dwtag  DW_TAG_TI_assign_register, DW_AT_name("REA1_H")
    2826                      .dwattr $C$DW$190, DW_AT_location[DW_OP_regx 0x39]
    2827              $C$DW$191       .dwtag  DW_TAG_TI_assign_register, DW_AT_name("CSR")
    2828                      .dwattr $C$DW$191, DW_AT_location[DW_OP_regx 0x3a]
    2829              $C$DW$192       .dwtag  DW_TAG_TI_assign_register, DW_AT_name("RPTC")
    2830                      .dwattr $C$DW$192, DW_AT_location[DW_OP_regx 0x3b]
    2831              $C$DW$193       .dwtag  DW_TAG_TI_assign_register, DW_AT_name("CDP")
    2832                      .dwattr $C$DW$193, DW_AT_location[DW_OP_regx 0x3c]
    2833              $C$DW$194       .dwtag  DW_TAG_TI_assign_register, DW_AT_name("XCDP")
    2834                      .dwattr $C$DW$194, DW_AT_location[DW_OP_regx 0x3d]
    2835              $C$DW$195       .dwtag  DW_TAG_TI_assign_register, DW_AT_name("TRN0")
    2836                      .dwattr $C$DW$195, DW_AT_location[DW_OP_regx 0x3e]
    2837              $C$DW$196       .dwtag  DW_TAG_TI_assign_register, DW_AT_name("TRN1")
    2838                      .dwattr $C$DW$196, DW_AT_location[DW_OP_regx 0x3f]
    2839              $C$DW$197       .dwtag  DW_TAG_TI_assign_register, DW_AT_name("BSA01")
    2840                      .dwattr $C$DW$197, DW_AT_location[DW_OP_regx 0x40]
    2841              $C$DW$198       .dwtag  DW_TAG_TI_assign_register, DW_AT_name("BSA23")
    2842                      .dwattr $C$DW$198, DW_AT_location[DW_OP_regx 0x41]
    2843              $C$DW$199       .dwtag  DW_TAG_TI_assign_register, DW_AT_name("BSA45")
    2844                      .dwattr $C$DW$199, DW_AT_location[DW_OP_regx 0x42]
    2845              $C$DW$200       .dwtag  DW_TAG_TI_assign_register, DW_AT_name("BSA67")
    2846                      .dwattr $C$DW$200, DW_AT_location[DW_OP_regx 0x43]
    2847              $C$DW$201       .dwtag  DW_TAG_TI_assign_register, DW_AT_name("BSAC")
    2848                      .dwattr $C$DW$201, DW_AT_location[DW_OP_regx 0x44]
    2849              $C$DW$202       .dwtag  DW_TAG_TI_assign_register, DW_AT_name("CARRY")
    2850                      .dwattr $C$DW$202, DW_AT_location[DW_OP_regx 0x45]
    2851              $C$DW$203       .dwtag  DW_TAG_TI_assign_register, DW_AT_name("TC1")
    2852                      .dwattr $C$DW$203, DW_AT_location[DW_OP_regx 0x46]
    2853              $C$DW$204       .dwtag  DW_TAG_TI_assign_register, DW_AT_name("TC2")
    2854                      .dwattr $C$DW$204, DW_AT_location[DW_OP_regx 0x47]
    2855              $C$DW$205       .dwtag  DW_TAG_TI_assign_register, DW_AT_name("M40")
    2856                      .dwattr $C$DW$205, DW_AT_location[DW_OP_regx 0x48]
    2857              $C$DW$206       .dwtag  DW_TAG_TI_assign_register, DW_AT_name("SXMD")
    2858                      .dwattr $C$DW$206, DW_AT_location[DW_OP_regx 0x49]
    2859              $C$DW$207       .dwtag  DW_TAG_TI_assign_register, DW_AT_name("ARMS")
    2860                      .dwattr $C$DW$207, DW_AT_location[DW_OP_regx 0x4a]
    2861              $C$DW$208       .dwtag  DW_TAG_TI_assign_register, DW_AT_name("C54CM")
    2862                      .dwattr $C$DW$208, DW_AT_location[DW_OP_regx 0x4b]
    2863              $C$DW$209       .dwtag  DW_TAG_TI_assign_register, DW_AT_name("SATA")
    2864                      .dwattr $C$DW$209, DW_AT_location[DW_OP_regx 0x4c]
    2865              $C$DW$210       .dwtag  DW_TAG_TI_assign_register, DW_AT_name("SATD")
    2866                      .dwattr $C$DW$210, DW_AT_location[DW_OP_regx 0x4d]
    2867              $C$DW$211       .dwtag  DW_TAG_TI_assign_register, DW_AT_name("RDM")
    2868                      .dwattr $C$DW$211, DW_AT_location[DW_OP_regx 0x4e]
    2869              $C$DW$212       .dwtag  DW_TAG_TI_assign_register, DW_AT_name("FRCT")
    2870                      .dwattr $C$DW$212, DW_AT_location[DW_OP_regx 0x4f]
    2871              $C$DW$213       .dwtag  DW_TAG_TI_assign_register, DW_AT_name("SMUL")
TMS320C55x Assembler PC v4.4.1 Sun Sep 09 00:03:45 2018

Tools Copyright (c) 1996-2012 Texas Instruments Incorporated
csl_dat.asm                                                          PAGE   69

    2872                      .dwattr $C$DW$213, DW_AT_location[DW_OP_regx 0x50]
    2873              $C$DW$214       .dwtag  DW_TAG_TI_assign_register, DW_AT_name("INTM")
    2874                      .dwattr $C$DW$214, DW_AT_location[DW_OP_regx 0x51]
    2875              $C$DW$215       .dwtag  DW_TAG_TI_assign_register, DW_AT_name("AR0LC")
    2876                      .dwattr $C$DW$215, DW_AT_location[DW_OP_regx 0x52]
    2877              $C$DW$216       .dwtag  DW_TAG_TI_assign_register, DW_AT_name("AR1LC")
    2878                      .dwattr $C$DW$216, DW_AT_location[DW_OP_regx 0x53]
    2879              $C$DW$217       .dwtag  DW_TAG_TI_assign_register, DW_AT_name("AR2LC")
    2880                      .dwattr $C$DW$217, DW_AT_location[DW_OP_regx 0x54]
    2881              $C$DW$218       .dwtag  DW_TAG_TI_assign_register, DW_AT_name("AR3LC")
    2882                      .dwattr $C$DW$218, DW_AT_location[DW_OP_regx 0x55]
    2883              $C$DW$219       .dwtag  DW_TAG_TI_assign_register, DW_AT_name("AR4LC")
    2884                      .dwattr $C$DW$219, DW_AT_location[DW_OP_regx 0x56]
    2885              $C$DW$220       .dwtag  DW_TAG_TI_assign_register, DW_AT_name("AR5LC")
    2886                      .dwattr $C$DW$220, DW_AT_location[DW_OP_regx 0x57]
    2887              $C$DW$221       .dwtag  DW_TAG_TI_assign_register, DW_AT_name("AR6LC")
    2888                      .dwattr $C$DW$221, DW_AT_location[DW_OP_regx 0x58]
    2889              $C$DW$222       .dwtag  DW_TAG_TI_assign_register, DW_AT_name("AR7LC")
    2890                      .dwattr $C$DW$222, DW_AT_location[DW_OP_regx 0x59]
    2891              $C$DW$223       .dwtag  DW_TAG_TI_assign_register, DW_AT_name("CDPLC")
    2892                      .dwattr $C$DW$223, DW_AT_location[DW_OP_regx 0x5a]
    2893              $C$DW$224       .dwtag  DW_TAG_TI_assign_register, DW_AT_name("CIE_RETA")
    2894                      .dwattr $C$DW$224, DW_AT_location[DW_OP_regx 0x5b]
    2895                      .dwendtag $C$DW$CU
    2896              
    2896              
    2896              

No Assembly Errors, No Assembly Warnings
