TMS320C55x Assembler PC v4.4.1 Fri Sep 07 01:41:46 2018

Tools Copyright (c) 1996-2012 Texas Instruments Incorporated
dynamic.asm                                                          PAGE    1

    1771              ; Temporary Registers Used: None
       1              ;*******************************************************************************
       2              ;* TMS320C55x C/C++ Codegen                                          PC v4.4.1 *
       3              ;* Date/Time created: Fri Sep 07 01:41:46 2018                                 *
       4              ;*******************************************************************************
       5                      .compiler_opts --hll_source=on --mem_model:code=flat --mem_model:data=large --object_format=coff --si
       6                      .mmregs
       7                      .cpl_on
       8                      .arms_on
       9                      .c54cm_off
      10                      .asg AR6, FP
      11                      .asg XAR6, XFP
      12                      .asg DPH, MDP
      13                      .model call=c55_std
      14                      .model mem=large
      15                      .noremark 5002  ; code respects overwrite rules
      16              ;*******************************************************************************
      17              ;* GLOBAL FILE PARAMETERS                                                      *
      18              ;*                                                                             *
      19              ;*   Architecture       : TMS320C55x                                           *
      20              ;*   Optimizing for     : Speed                                                *
      21              ;*   Memory             : Large Model (23-Bit Data Pointers)                   *
      22              ;*   Calls              : Normal Library ASM calls                             *
      23              ;*   Debug Info         : Standard TI Debug Information                        *
      24              ;*******************************************************************************
      25              
      26              $C$DW$CU        .dwtag  DW_TAG_compile_unit
      27                      .dwattr $C$DW$CU, DW_AT_name("../FreeRTOS/Demo/Common/Minimal/dynamic.c")
      28                      .dwattr $C$DW$CU, DW_AT_producer("TMS320C55x C/C++ Codegen PC v4.4.1 Copyright (c) 1996-2012 Texas In
      29                      .dwattr $C$DW$CU, DW_AT_TI_version(0x01)
      30                      .dwattr $C$DW$CU, DW_AT_comp_dir("F:\site\eZDSP\eZDSP_5535_Files\ccsws2\test\Debug")
      31              ;******************************************************************************
      32              ;* CINIT RECORDS                                                              *
      33              ;******************************************************************************
      34 000000               .sect   ".cinit"
      35                      .align  1
      36 000000 0001          .field          1,16
      37 000001 0000-         .field          _usCheckVariable+0,24
         000002 0600 
      38 000002 0600          .field          0,8
      39 000003 0000          .field  0,16                    ; _usCheckVariable @ 0
      40              
      41 000004               .sect   ".cinit"
      42                      .align  1
      43 000004 0001          .field          1,16
      44 000005 0000-         .field          _xSuspendedQueueSendError+0,24
         000006 0700 
      45 000006 0700          .field          0,8
      46 000007 0000          .field  0,16                    ; _xSuspendedQueueSendError @ 0
      47              
      48 000008               .sect   ".cinit"
      49                      .align  1
      50 000008 0001          .field          1,16
      51 000009 0000-         .field          _xSuspendedQueueReceiveError+0,24
         00000a 0800 
TMS320C55x Assembler PC v4.4.1 Fri Sep 07 01:41:46 2018

Tools Copyright (c) 1996-2012 Texas Instruments Incorporated
dynamic.asm                                                          PAGE    2

      52 00000a 0800          .field          0,8
      53 00000b 0000          .field  0,16                    ; _xSuspendedQueueReceiveError @ 0
      54              
      55 00000c               .sect   ".cinit"
      56                      .align  1
      57 00000c 0002          .field          2,16
      58 00000d 0000-         .field          _ulValueToSend$1+0,24
         00000e 0C00 
      59 00000e 0C00          .field          0,8
      60 00000f 0000          .field  0,32                    ; _ulValueToSend$1 @ 0
         000010 0000 
      61              
      62 000011               .sect   ".cinit"
      63                      .align  1
      64 000011 0002          .field          2,16
      65 000012 0000-         .field          _ulExpectedValue$2+0,24
         000013 0E00 
      66 000013 0E00          .field          0,8
      67 000014 0000          .field  0,32                    ; _ulExpectedValue$2 @ 0
         000015 0000 
      68              
      69 000016               .sect   ".cinit"
      70                      .align  1
      71 000016 0001          .field          1,16
      72 000017 0000-         .field          _usLastTaskCheck$4+0,24
         000018 0900 
      73 000018 0900          .field          0,8
      74 000019 0000          .field  0,16                    ; _usLastTaskCheck$4 @ 0
      75              
      76              
      77              $C$DW$1 .dwtag  DW_TAG_subprogram, DW_AT_name("vTaskDelay")
      78                      .dwattr $C$DW$1, DW_AT_TI_symbol_name("_vTaskDelay")
      79                      .dwattr $C$DW$1, DW_AT_declaration
      80                      .dwattr $C$DW$1, DW_AT_external
      81              $C$DW$2 .dwtag  DW_TAG_formal_parameter
      82                      .dwattr $C$DW$2, DW_AT_type(*$C$DW$T$26)
      83                      .dwendtag $C$DW$1
      84              
      85              
      86              $C$DW$3 .dwtag  DW_TAG_subprogram, DW_AT_name("uxTaskPriorityGet")
      87                      .dwattr $C$DW$3, DW_AT_TI_symbol_name("_uxTaskPriorityGet")
      88                      .dwattr $C$DW$3, DW_AT_type(*$C$DW$T$11)
      89                      .dwattr $C$DW$3, DW_AT_declaration
      90                      .dwattr $C$DW$3, DW_AT_external
      91              $C$DW$4 .dwtag  DW_TAG_formal_parameter
      92                      .dwattr $C$DW$4, DW_AT_type(*$C$DW$T$24)
      93                      .dwendtag $C$DW$3
      94              
      95              
      96              $C$DW$5 .dwtag  DW_TAG_subprogram, DW_AT_name("vTaskPrioritySet")
      97                      .dwattr $C$DW$5, DW_AT_TI_symbol_name("_vTaskPrioritySet")
      98                      .dwattr $C$DW$5, DW_AT_declaration
      99                      .dwattr $C$DW$5, DW_AT_external
     100              $C$DW$6 .dwtag  DW_TAG_formal_parameter
     101                      .dwattr $C$DW$6, DW_AT_type(*$C$DW$T$24)
TMS320C55x Assembler PC v4.4.1 Fri Sep 07 01:41:46 2018

Tools Copyright (c) 1996-2012 Texas Instruments Incorporated
dynamic.asm                                                          PAGE    3

     102              $C$DW$7 .dwtag  DW_TAG_formal_parameter
     103                      .dwattr $C$DW$7, DW_AT_type(*$C$DW$T$11)
     104                      .dwendtag $C$DW$5
     105              
     106              
     107              $C$DW$8 .dwtag  DW_TAG_subprogram, DW_AT_name("vTaskSuspend")
     108                      .dwattr $C$DW$8, DW_AT_TI_symbol_name("_vTaskSuspend")
     109                      .dwattr $C$DW$8, DW_AT_declaration
     110                      .dwattr $C$DW$8, DW_AT_external
     111              $C$DW$9 .dwtag  DW_TAG_formal_parameter
     112                      .dwattr $C$DW$9, DW_AT_type(*$C$DW$T$24)
     113                      .dwendtag $C$DW$8
     114              
     115              
     116              $C$DW$10        .dwtag  DW_TAG_subprogram, DW_AT_name("vTaskResume")
     117                      .dwattr $C$DW$10, DW_AT_TI_symbol_name("_vTaskResume")
     118                      .dwattr $C$DW$10, DW_AT_declaration
     119                      .dwattr $C$DW$10, DW_AT_external
     120              $C$DW$11        .dwtag  DW_TAG_formal_parameter
     121                      .dwattr $C$DW$11, DW_AT_type(*$C$DW$T$24)
     122                      .dwendtag $C$DW$10
     123              
     124              
     125              $C$DW$12        .dwtag  DW_TAG_subprogram, DW_AT_name("vTaskSuspendAll")
     126                      .dwattr $C$DW$12, DW_AT_TI_symbol_name("_vTaskSuspendAll")
     127                      .dwattr $C$DW$12, DW_AT_declaration
     128                      .dwattr $C$DW$12, DW_AT_external
     129              
     130              $C$DW$13        .dwtag  DW_TAG_subprogram, DW_AT_name("xTaskResumeAll")
     131                      .dwattr $C$DW$13, DW_AT_TI_symbol_name("_xTaskResumeAll")
     132                      .dwattr $C$DW$13, DW_AT_type(*$C$DW$T$10)
     133                      .dwattr $C$DW$13, DW_AT_declaration
     134                      .dwattr $C$DW$13, DW_AT_external
     135              
     136              $C$DW$14        .dwtag  DW_TAG_subprogram, DW_AT_name("xTaskGenericCreate")
     137                      .dwattr $C$DW$14, DW_AT_TI_symbol_name("_xTaskGenericCreate")
     138                      .dwattr $C$DW$14, DW_AT_type(*$C$DW$T$10)
     139                      .dwattr $C$DW$14, DW_AT_declaration
     140                      .dwattr $C$DW$14, DW_AT_external
     141              $C$DW$15        .dwtag  DW_TAG_formal_parameter
     142                      .dwattr $C$DW$15, DW_AT_type(*$C$DW$T$37)
     143              $C$DW$16        .dwtag  DW_TAG_formal_parameter
     144                      .dwattr $C$DW$16, DW_AT_type(*$C$DW$T$43)
     145              $C$DW$17        .dwtag  DW_TAG_formal_parameter
     146                      .dwattr $C$DW$17, DW_AT_type(*$C$DW$T$9)
     147              $C$DW$18        .dwtag  DW_TAG_formal_parameter
     148                      .dwattr $C$DW$18, DW_AT_type(*$C$DW$T$3)
     149              $C$DW$19        .dwtag  DW_TAG_formal_parameter
     150                      .dwattr $C$DW$19, DW_AT_type(*$C$DW$T$11)
     151              $C$DW$20        .dwtag  DW_TAG_formal_parameter
     152                      .dwattr $C$DW$20, DW_AT_type(*$C$DW$T$25)
     153              $C$DW$21        .dwtag  DW_TAG_formal_parameter
     154                      .dwattr $C$DW$21, DW_AT_type(*$C$DW$T$48)
     155              $C$DW$22        .dwtag  DW_TAG_formal_parameter
     156                      .dwattr $C$DW$22, DW_AT_type(*$C$DW$T$52)
TMS320C55x Assembler PC v4.4.1 Fri Sep 07 01:41:46 2018

Tools Copyright (c) 1996-2012 Texas Instruments Incorporated
dynamic.asm                                                          PAGE    4

     157                      .dwendtag $C$DW$14
     158              
     159              
     160              $C$DW$23        .dwtag  DW_TAG_subprogram, DW_AT_name("xQueueCreate")
     161                      .dwattr $C$DW$23, DW_AT_TI_symbol_name("_xQueueCreate")
     162                      .dwattr $C$DW$23, DW_AT_type(*$C$DW$T$21)
     163                      .dwattr $C$DW$23, DW_AT_declaration
     164                      .dwattr $C$DW$23, DW_AT_external
     165              $C$DW$24        .dwtag  DW_TAG_formal_parameter
     166                      .dwattr $C$DW$24, DW_AT_type(*$C$DW$T$11)
     167              $C$DW$25        .dwtag  DW_TAG_formal_parameter
     168                      .dwattr $C$DW$25, DW_AT_type(*$C$DW$T$11)
     169                      .dwendtag $C$DW$23
     170              
     171              
     172              $C$DW$26        .dwtag  DW_TAG_subprogram, DW_AT_name("xQueueGenericSend")
     173                      .dwattr $C$DW$26, DW_AT_TI_symbol_name("_xQueueGenericSend")
     174                      .dwattr $C$DW$26, DW_AT_type(*$C$DW$T$10)
     175                      .dwattr $C$DW$26, DW_AT_declaration
     176                      .dwattr $C$DW$26, DW_AT_external
     177              $C$DW$27        .dwtag  DW_TAG_formal_parameter
     178                      .dwattr $C$DW$27, DW_AT_type(*$C$DW$T$21)
     179              $C$DW$28        .dwtag  DW_TAG_formal_parameter
     180                      .dwattr $C$DW$28, DW_AT_type(*$C$DW$T$40)
     181              $C$DW$29        .dwtag  DW_TAG_formal_parameter
     182                      .dwattr $C$DW$29, DW_AT_type(*$C$DW$T$26)
     183              $C$DW$30        .dwtag  DW_TAG_formal_parameter
     184                      .dwattr $C$DW$30, DW_AT_type(*$C$DW$T$10)
     185                      .dwendtag $C$DW$26
     186              
     187              
     188              $C$DW$31        .dwtag  DW_TAG_subprogram, DW_AT_name("xQueueGenericReceive")
     189                      .dwattr $C$DW$31, DW_AT_TI_symbol_name("_xQueueGenericReceive")
     190                      .dwattr $C$DW$31, DW_AT_type(*$C$DW$T$10)
     191                      .dwattr $C$DW$31, DW_AT_declaration
     192                      .dwattr $C$DW$31, DW_AT_external
     193              $C$DW$32        .dwtag  DW_TAG_formal_parameter
     194                      .dwattr $C$DW$32, DW_AT_type(*$C$DW$T$21)
     195              $C$DW$33        .dwtag  DW_TAG_formal_parameter
     196                      .dwattr $C$DW$33, DW_AT_type(*$C$DW$T$20)
     197              $C$DW$34        .dwtag  DW_TAG_formal_parameter
     198                      .dwattr $C$DW$34, DW_AT_type(*$C$DW$T$26)
     199              $C$DW$35        .dwtag  DW_TAG_formal_parameter
     200                      .dwattr $C$DW$35, DW_AT_type(*$C$DW$T$10)
     201                      .dwendtag $C$DW$31
     202              
     203 000000               .bss    _xContinousIncrementHandle,2,0,2
     204              $C$DW$36        .dwtag  DW_TAG_variable, DW_AT_name("xContinousIncrementHandle")
     205                      .dwattr $C$DW$36, DW_AT_TI_symbol_name("_xContinousIncrementHandle")
     206                      .dwattr $C$DW$36, DW_AT_type(*$C$DW$T$24)
     207                      .dwattr $C$DW$36, DW_AT_location[DW_OP_addr _xContinousIncrementHandle]
     208 000002               .bss    _xLimitedIncrementHandle,2,0,2
     209              $C$DW$37        .dwtag  DW_TAG_variable, DW_AT_name("xLimitedIncrementHandle")
     210                      .dwattr $C$DW$37, DW_AT_TI_symbol_name("_xLimitedIncrementHandle")
     211                      .dwattr $C$DW$37, DW_AT_type(*$C$DW$T$24)
TMS320C55x Assembler PC v4.4.1 Fri Sep 07 01:41:46 2018

Tools Copyright (c) 1996-2012 Texas Instruments Incorporated
dynamic.asm                                                          PAGE    5

     212                      .dwattr $C$DW$37, DW_AT_location[DW_OP_addr _xLimitedIncrementHandle]
     213 000004               .bss    _ulCounter,2,0,2
     214              $C$DW$38        .dwtag  DW_TAG_variable, DW_AT_name("ulCounter")
     215                      .dwattr $C$DW$38, DW_AT_TI_symbol_name("_ulCounter")
     216                      .dwattr $C$DW$38, DW_AT_type(*$C$DW$T$13)
     217                      .dwattr $C$DW$38, DW_AT_location[DW_OP_addr _ulCounter]
     218 000006               .bss    _usCheckVariable,1,0,0
     219              $C$DW$39        .dwtag  DW_TAG_variable, DW_AT_name("usCheckVariable")
     220                      .dwattr $C$DW$39, DW_AT_TI_symbol_name("_usCheckVariable")
     221                      .dwattr $C$DW$39, DW_AT_type(*$C$DW$T$45)
     222                      .dwattr $C$DW$39, DW_AT_location[DW_OP_addr _usCheckVariable]
     223 000007               .bss    _xSuspendedQueueSendError,1,0,0
     224              $C$DW$40        .dwtag  DW_TAG_variable, DW_AT_name("xSuspendedQueueSendError")
     225                      .dwattr $C$DW$40, DW_AT_TI_symbol_name("_xSuspendedQueueSendError")
     226                      .dwattr $C$DW$40, DW_AT_type(*$C$DW$T$59)
     227                      .dwattr $C$DW$40, DW_AT_location[DW_OP_addr _xSuspendedQueueSendError]
     228 000008               .bss    _xSuspendedQueueReceiveError,1,0,0
     229              $C$DW$41        .dwtag  DW_TAG_variable, DW_AT_name("xSuspendedQueueReceiveError")
     230                      .dwattr $C$DW$41, DW_AT_TI_symbol_name("_xSuspendedQueueReceiveError")
     231                      .dwattr $C$DW$41, DW_AT_type(*$C$DW$T$59)
     232                      .dwattr $C$DW$41, DW_AT_location[DW_OP_addr _xSuspendedQueueReceiveError]
     233                      .global _xSuspendedTestQueue
     234 00000a               .bss    _xSuspendedTestQueue,2,0,2
     235              $C$DW$42        .dwtag  DW_TAG_variable, DW_AT_name("xSuspendedTestQueue")
     236                      .dwattr $C$DW$42, DW_AT_TI_symbol_name("_xSuspendedTestQueue")
     237                      .dwattr $C$DW$42, DW_AT_location[DW_OP_addr _xSuspendedTestQueue]
     238                      .dwattr $C$DW$42, DW_AT_type(*$C$DW$T$21)
     239                      .dwattr $C$DW$42, DW_AT_external
     240              $C$DW$43        .dwtag  DW_TAG_variable, DW_AT_name("usCriticalNesting")
     241                      .dwattr $C$DW$43, DW_AT_TI_symbol_name("_usCriticalNesting")
     242                      .dwattr $C$DW$43, DW_AT_type(*$C$DW$T$62)
     243                      .dwattr $C$DW$43, DW_AT_declaration
     244                      .dwattr $C$DW$43, DW_AT_external
     245 00000c               .bss    _ulValueToSend$1,2,0,2
     246 00000e               .bss    _ulExpectedValue$2,2,0,2
     247 000010               .bss    _ulReceivedValue$3,2,0,2
     248 000009               .bss    _usLastTaskCheck$4,1,0,0
     249              ;       F:\TI_CCS_7P4\ccsv7\tools\compiler\c5500_4.4.1\bin\acp55.exe -@f:\\AppData\\Local\\Temp\\1687612 
     250 000000               .sect   ".text"
     251                      .align 4
     252                      .global _vStartDynamicPriorityTasks
     253              
     254              $C$DW$44        .dwtag  DW_TAG_subprogram, DW_AT_name("vStartDynamicPriorityTasks")
     255                      .dwattr $C$DW$44, DW_AT_low_pc(_vStartDynamicPriorityTasks)
     256                      .dwattr $C$DW$44, DW_AT_high_pc(0x00)
     257                      .dwattr $C$DW$44, DW_AT_TI_symbol_name("_vStartDynamicPriorityTasks")
     258                      .dwattr $C$DW$44, DW_AT_external
     259                      .dwattr $C$DW$44, DW_AT_TI_begin_file("../FreeRTOS/Demo/Common/Minimal/dynamic.c")
     260                      .dwattr $C$DW$44, DW_AT_TI_begin_line(0xa7)
     261                      .dwattr $C$DW$44, DW_AT_TI_begin_column(0x06)
     262                      .dwattr $C$DW$44, DW_AT_TI_max_frame_size(0x02)
     263                      .dwpsn  file "../FreeRTOS/Demo/Common/Minimal/dynamic.c",line 168,column 1,is_stmt,address _vStartDyn
     264              
     265                      .dwfde $C$DW$CIE, _vStartDynamicPriorityTasks
     266              ;*******************************************************************************
TMS320C55x Assembler PC v4.4.1 Fri Sep 07 01:41:46 2018

Tools Copyright (c) 1996-2012 Texas Instruments Incorporated
dynamic.asm                                                          PAGE    6

     267              ;* FUNCTION NAME: vStartDynamicPriorityTasks                                   *
     268              ;*                                                                             *
     269              ;*   Function Uses Regs : AC0,AC0,T0,T1,AR0,XAR0,AR1,XAR1,AR2,XAR2,AR3,XAR3,   *
     270              ;*                        AR4,XAR4,SP,M40,SATA,SATD,RDM,FRCT,SMUL              *
     271              ;*   Stack Frame        : Compact (No Frame Pointer, w/ debug)                 *
     272              ;*   Total Frame Size   : 2 words                                              *
     273              ;*                        (2 return address/alignment)                         *
     274              ;*   Min System Stack   : 1 word                                               *
     275              ;*******************************************************************************
     276 000000       _vStartDynamicPriorityTasks:
     277                      .dwcfi  cfa_offset, 1
     278                      .dwcfi  save_reg_to_mem, 91, -1
     279 000000 4EFF          AADD #-1, SP
     280                      .dwcfi  cfa_offset, 2
     281                      .dwpsn  file "../FreeRTOS/Demo/Common/Minimal/dynamic.c",line 169,column 2,is_stmt
     282 000002 3C14          MOV #1, T0
     283              $C$DW$45        .dwtag  DW_TAG_TI_branch
     284                      .dwattr $C$DW$45, DW_AT_low_pc(0x00)
     285                      .dwattr $C$DW$45, DW_AT_name("_xQueueCreate")
     286                      .dwattr $C$DW$45, DW_AT_TI_call
     287              
     288 000004 6C00          CALL #_xQueueCreate ; |169| 
         000006 0000!
     289 000008 3D25  ||      MOV #2, T1
     290              
     291                                                      ; call occurs [#_xQueueCreate] ; |169| 
     292 00000a EB31          MOV XAR0, dbl(*(#_xSuspendedTestQueue))
         00000c 8500 
         00000e 000A-
     293                      .dwpsn  file "../FreeRTOS/Demo/Common/Minimal/dynamic.c",line 179,column 2,is_stmt
     294 000010 7A00          MOV #(_vContinuousIncrementTask >> 16) << #16, AC0 ; |179| 
         000012 000A%
     295 000014 EC31          AMOV #0, XAR4 ; |179| 
         000016 CE00 
         000018 0000 
     296 00001a EC31          AMOV #0, XAR3 ; |179| 
         00001c BE00 
         00001e 0000 
     297 000020 EC31          AMOV #_xContinousIncrementHandle, XAR2 ; |179| 
         000022 AE00 
         000024 0000-
     298 000026 EC31          AMOV #_ulCounter, XAR1 ; |179| 
         000028 9E00 
         00002a 0004-
     299 00002c 7600          MOV #128, T0 ; |179| 
         00002e 8048 
     300 000030 7E00          OR #(_vContinuousIncrementTask & 0xffff), AC0, AC0 ; |179| 
         000032 0000%
     301 000034 EC31          AMOV #$C$FSL1, XAR0 ; |179| 
         000036 8E00 
         000038 0000+
     302              $C$DW$46        .dwtag  DW_TAG_TI_branch
     303                      .dwattr $C$DW$46, DW_AT_low_pc(0x00)
     304                      .dwattr $C$DW$46, DW_AT_name("_xTaskGenericCreate")
     305                      .dwattr $C$DW$46, DW_AT_TI_call
TMS320C55x Assembler PC v4.4.1 Fri Sep 07 01:41:46 2018

Tools Copyright (c) 1996-2012 Texas Instruments Incorporated
dynamic.asm                                                          PAGE    7

     306              
     307 00003a 6C00          CALL #_xTaskGenericCreate ; |179| 
         00003c 0000!
     308 00003e 3D05  ||      MOV #0, T1
     309              
     310                                                      ; call occurs [#_xTaskGenericCreate] ; |179| 
     311                      .dwpsn  file "../FreeRTOS/Demo/Common/Minimal/dynamic.c",line 180,column 2,is_stmt
     312 000040 7600          MOV #128, T0 ; |180| 
         000042 8048 
     313 000044 EC31          AMOV #0, XAR4 ; |180| 
         000046 CE00 
         000048 0000 
     314 00004a EC31          AMOV #0, XAR3 ; |180| 
         00004c BE00 
         00004e 0000 
     315 000050 EC31          AMOV #_xLimitedIncrementHandle, XAR2 ; |180| 
         000052 AE00 
         000054 0002-
     316 000056 EC31          AMOV #_ulCounter, XAR1 ; |180| 
         000058 9E00 
         00005a 0004-
     317 00005c EC31          AMOV #$C$FSL2, XAR0 ; |180| 
         00005e 8E00 
         000060 0008+
     318 000062 7A00          MOV #(_vLimitedIncrementTask >> 16) << #16, AC0 ; |180| 
         000064 000A%
     319 000066 7E00          OR #(_vLimitedIncrementTask & 0xffff), AC0, AC0 ; |180| 
         000068 0000%
     320              $C$DW$47        .dwtag  DW_TAG_TI_branch
     321                      .dwattr $C$DW$47, DW_AT_low_pc(0x00)
     322                      .dwattr $C$DW$47, DW_AT_name("_xTaskGenericCreate")
     323                      .dwattr $C$DW$47, DW_AT_TI_call
     324              
     325 00006a 6C00          CALL #_xTaskGenericCreate ; |180| 
         00006c 0000!
     326 00006e 3D15  ||      MOV #1, T1
     327              
     328                                                      ; call occurs [#_xTaskGenericCreate] ; |180| 
     329                      .dwpsn  file "../FreeRTOS/Demo/Common/Minimal/dynamic.c",line 181,column 2,is_stmt
     330 000070 7600          MOV #128, T0 ; |181| 
         000072 8048 
     331 000074 EC31          AMOV #0, XAR4 ; |181| 
         000076 CE00 
         000078 0000 
     332 00007a EC31          AMOV #0, XAR3 ; |181| 
         00007c BE00 
         00007e 0000 
     333 000080 EC31          AMOV #0, XAR2 ; |181| 
         000082 AE00 
         000084 0000 
     334 000086 EC31          AMOV #0, XAR1 ; |181| 
         000088 9E00 
         00008a 0000 
     335 00008c EC31          AMOV #$C$FSL3, XAR0 ; |181| 
         00008e 8E00 
TMS320C55x Assembler PC v4.4.1 Fri Sep 07 01:41:46 2018

Tools Copyright (c) 1996-2012 Texas Instruments Incorporated
dynamic.asm                                                          PAGE    8

         000090 0010+
     336 000092 7A00          MOV #(_vCounterControlTask >> 16) << #16, AC0 ; |181| 
         000094 000A%
     337 000096 7E00          OR #(_vCounterControlTask & 0xffff), AC0, AC0 ; |181| 
         000098 0000%
     338              $C$DW$48        .dwtag  DW_TAG_TI_branch
     339                      .dwattr $C$DW$48, DW_AT_low_pc(0x00)
     340                      .dwattr $C$DW$48, DW_AT_name("_xTaskGenericCreate")
     341                      .dwattr $C$DW$48, DW_AT_TI_call
     342              
     343 00009a 6C00          CALL #_xTaskGenericCreate ; |181| 
         00009c 0000!
     344 00009e 3D05  ||      MOV #0, T1
     345              
     346                                                      ; call occurs [#_xTaskGenericCreate] ; |181| 
     347                      .dwpsn  file "../FreeRTOS/Demo/Common/Minimal/dynamic.c",line 182,column 2,is_stmt
     348 0000a0 7600          MOV #128, T0 ; |182| 
         0000a2 8048 
     349 0000a4 EC31          AMOV #0, XAR4 ; |182| 
         0000a6 CE00 
         0000a8 0000 
     350 0000aa EC31          AMOV #0, XAR3 ; |182| 
         0000ac BE00 
         0000ae 0000 
     351 0000b0 EC31          AMOV #0, XAR2 ; |182| 
         0000b2 AE00 
         0000b4 0000 
     352 0000b6 EC31          AMOV #0, XAR1 ; |182| 
         0000b8 9E00 
         0000ba 0000 
     353 0000bc EC31          AMOV #$C$FSL4, XAR0 ; |182| 
         0000be 8E00 
         0000c0 0018+
     354 0000c2 7A00          MOV #(_vQueueSendWhenSuspendedTask >> 16) << #16, AC0 ; |182| 
         0000c4 000A%
     355 0000c6 7E00          OR #(_vQueueSendWhenSuspendedTask & 0xffff), AC0, AC0 ; |182| 
         0000c8 0000%
     356              $C$DW$49        .dwtag  DW_TAG_TI_branch
     357                      .dwattr $C$DW$49, DW_AT_low_pc(0x00)
     358                      .dwattr $C$DW$49, DW_AT_name("_xTaskGenericCreate")
     359                      .dwattr $C$DW$49, DW_AT_TI_call
     360              
     361 0000ca 6C00          CALL #_xTaskGenericCreate ; |182| 
         0000cc 0000!
     362 0000ce 3D05  ||      MOV #0, T1
     363              
     364                                                      ; call occurs [#_xTaskGenericCreate] ; |182| 
     365                      .dwpsn  file "../FreeRTOS/Demo/Common/Minimal/dynamic.c",line 183,column 2,is_stmt
     366 0000d0 7600          MOV #128, T0 ; |183| 
         0000d2 8048 
     367 0000d4 EC31          AMOV #0, XAR4 ; |183| 
         0000d6 CE00 
         0000d8 0000 
     368 0000da EC31          AMOV #0, XAR3 ; |183| 
         0000dc BE00 
TMS320C55x Assembler PC v4.4.1 Fri Sep 07 01:41:46 2018

Tools Copyright (c) 1996-2012 Texas Instruments Incorporated
dynamic.asm                                                          PAGE    9

         0000de 0000 
     369 0000e0 EC31          AMOV #0, XAR2 ; |183| 
         0000e2 AE00 
         0000e4 0000 
     370 0000e6 EC31          AMOV #0, XAR1 ; |183| 
         0000e8 9E00 
         0000ea 0000 
     371 0000ec EC31          AMOV #$C$FSL5, XAR0 ; |183| 
         0000ee 8E00 
         0000f0 0020+
     372 0000f2 7A00          MOV #(_vQueueReceiveWhenSuspendedTask >> 16) << #16, AC0 ; |183| 
         0000f4 000A%
     373              
     374 0000f6 7E00          OR #(_vQueueReceiveWhenSuspendedTask & 0xffff), AC0, AC0 ; |183| 
         0000f8 0000%
     375 0000fa 3D05  ||      MOV #0, T1
     376              
     377              $C$DW$50        .dwtag  DW_TAG_TI_branch
     378                      .dwattr $C$DW$50, DW_AT_low_pc(0x00)
     379                      .dwattr $C$DW$50, DW_AT_name("_xTaskGenericCreate")
     380                      .dwattr $C$DW$50, DW_AT_TI_call
     381 0000fc 6C00          CALL #_xTaskGenericCreate ; |183| 
         0000fe 0000!
     382                                                      ; call occurs [#_xTaskGenericCreate] ; |183| 
     383                      .dwpsn  file "../FreeRTOS/Demo/Common/Minimal/dynamic.c",line 184,column 1,is_stmt
     384 000100 4E01          AADD #1, SP
     385                      .dwcfi  cfa_offset, 1
     386              $C$DW$51        .dwtag  DW_TAG_TI_branch
     387                      .dwattr $C$DW$51, DW_AT_low_pc(0x00)
     388                      .dwattr $C$DW$51, DW_AT_TI_return
     389 000102 4804          RET
     390                                                      ; return occurs
     391                      .dwattr $C$DW$44, DW_AT_TI_end_file("../FreeRTOS/Demo/Common/Minimal/dynamic.c")
     392                      .dwattr $C$DW$44, DW_AT_TI_end_line(0xb8)
     393                      .dwattr $C$DW$44, DW_AT_TI_end_column(0x01)
     394                      .dwendentry
     395                      .dwendtag $C$DW$44
     396              
     397 000104               .sect   ".text"
     398                      .align 4
     399              
     400              $C$DW$52        .dwtag  DW_TAG_subprogram, DW_AT_name("vLimitedIncrementTask")
     401                      .dwattr $C$DW$52, DW_AT_low_pc(_vLimitedIncrementTask)
     402                      .dwattr $C$DW$52, DW_AT_high_pc(0x00)
     403                      .dwattr $C$DW$52, DW_AT_TI_symbol_name("_vLimitedIncrementTask")
     404                      .dwattr $C$DW$52, DW_AT_TI_begin_file("../FreeRTOS/Demo/Common/Minimal/dynamic.c")
     405                      .dwattr $C$DW$52, DW_AT_TI_begin_line(0xbf)
     406                      .dwattr $C$DW$52, DW_AT_TI_begin_column(0x08)
     407                      .dwattr $C$DW$52, DW_AT_TI_max_frame_size(0x06)
     408                      .dwpsn  file "../FreeRTOS/Demo/Common/Minimal/dynamic.c",line 192,column 1,is_stmt,address _vLimitedI
     409              
     410                      .dwfde $C$DW$CIE, _vLimitedIncrementTask
     411              $C$DW$53        .dwtag  DW_TAG_formal_parameter, DW_AT_name("pvParameters")
     412                      .dwattr $C$DW$53, DW_AT_TI_symbol_name("_pvParameters")
     413                      .dwattr $C$DW$53, DW_AT_type(*$C$DW$T$3)
TMS320C55x Assembler PC v4.4.1 Fri Sep 07 01:41:46 2018

Tools Copyright (c) 1996-2012 Texas Instruments Incorporated
dynamic.asm                                                          PAGE   10

     414                      .dwattr $C$DW$53, DW_AT_location[DW_OP_reg17]
     415              ;*******************************************************************************
     416              ;* FUNCTION NAME: vLimitedIncrementTask                                        *
     417              ;*                                                                             *
     418              ;*   Function Uses Regs : AC0,AC0,AC1,AC1,AR0,XAR0,AR3,XAR3,SP,CARRY,TC1,M40,  *
     419              ;*                        SATA,SATD,RDM,FRCT,SMUL                              *
     420              ;*   Stack Frame        : Compact (No Frame Pointer, w/ debug)                 *
     421              ;*   Total Frame Size   : 6 words                                              *
     422              ;*                        (2 return address/alignment)                         *
     423              ;*                        (4 local values)                                     *
     424              ;*   Min System Stack   : 1 word                                               *
     425              ;*******************************************************************************
     426 000104       _vLimitedIncrementTask:
     427                      .dwcfi  cfa_offset, 1
     428                      .dwcfi  save_reg_to_mem, 91, -1
     429 000104 4EFB          AADD #-5, SP
     430                      .dwcfi  cfa_offset, 6
     431              $C$DW$54        .dwtag  DW_TAG_variable, DW_AT_name("pvParameters")
     432                      .dwattr $C$DW$54, DW_AT_TI_symbol_name("_pvParameters")
     433                      .dwattr $C$DW$54, DW_AT_type(*$C$DW$T$3)
     434                      .dwattr $C$DW$54, DW_AT_location[DW_OP_bregx 0x24 0]
     435              $C$DW$55        .dwtag  DW_TAG_variable, DW_AT_name("pulCounter")
     436                      .dwattr $C$DW$55, DW_AT_TI_symbol_name("_pulCounter")
     437                      .dwattr $C$DW$55, DW_AT_type(*$C$DW$T$63)
     438                      .dwattr $C$DW$55, DW_AT_location[DW_OP_bregx 0x24 2]
     439 000106 EB00          MOV XAR0, dbl(*SP(#0))
         000108 85   
     440                      .dwpsn  file "../FreeRTOS/Demo/Common/Minimal/dynamic.c",line 197,column 2,is_stmt
     441 000109 ED00          MOV dbl(*SP(#0)), XAR3
         00010b BF   
     442 00010c EB04          MOV XAR3, dbl(*SP(#2))
         00010e B5   
     443                      .dwpsn  file "../FreeRTOS/Demo/Common/Minimal/dynamic.c",line 201,column 2,is_stmt
     444 00010f EC31          AMOV #0, XAR0 ; |201| 
         000111 8E00 
         000113 0000 
     445              $C$DW$56        .dwtag  DW_TAG_TI_branch
     446                      .dwattr $C$DW$56, DW_AT_low_pc(0x00)
     447                      .dwattr $C$DW$56, DW_AT_name("_vTaskSuspend")
     448                      .dwattr $C$DW$56, DW_AT_TI_call
     449 000115 6C00          CALL #_vTaskSuspend ; |201| 
         000117 0000!
     450                                                      ; call occurs [#_vTaskSuspend] ; |201| 
     451 000119       $C$L1:    
     452 000119       $C$DW$L$_vLimitedIncrementTask$2$B:
     453                      .dwpsn  file "../FreeRTOS/Demo/Common/Minimal/dynamic.c",line 206,column 3,is_stmt
     454 000119 ED04          MOV dbl(*SP(#2)), XAR3
         00011b BF   
     455 00011c ED61          MOV dbl(*AR3), AC0 ; |206| 
         00011e 08   
     456 00011f 4010          ADD #1, AC0 ; |206| 
     457 000121 EB61          MOV AC0, dbl(*AR3) ; |206| 
         000123 08   
     458                      .dwpsn  file "../FreeRTOS/Demo/Common/Minimal/dynamic.c",line 208,column 3,is_stmt
     459 000124 ED04          MOV dbl(*SP(#2)), XAR3
TMS320C55x Assembler PC v4.4.1 Fri Sep 07 01:41:46 2018

Tools Copyright (c) 1996-2012 Texas Instruments Incorporated
dynamic.asm                                                          PAGE   11

         000126 BF   
     460 000127 7600          MOV #255, AC0 ; |208| 
         000129 FF08 
     461 00012b ED61          MOV dbl(*AR3), AC1 ; |208| 
         00012d 18   
     462 00012e 1214          CMPU AC1 < AC0, TC1 ; |208| 
         000130 04   
     463 000131 0464          BCC $C$L1,TC1 ; |208| 
         000133 E5   
     464                                                      ; branchcc occurs ; |208| 
     465 000134       $C$DW$L$_vLimitedIncrementTask$2$E:
     466 000134       $C$DW$L$_vLimitedIncrementTask$3$B:
     467                      .dwpsn  file "../FreeRTOS/Demo/Common/Minimal/dynamic.c",line 210,column 4,is_stmt
     468 000134 EC31          AMOV #0, XAR0 ; |210| 
         000136 8E00 
         000138 0000 
     469              $C$DW$57        .dwtag  DW_TAG_TI_branch
     470                      .dwattr $C$DW$57, DW_AT_low_pc(0x00)
     471                      .dwattr $C$DW$57, DW_AT_name("_vTaskSuspend")
     472                      .dwattr $C$DW$57, DW_AT_TI_call
     473 00013a 6C00          CALL #_vTaskSuspend ; |210| 
         00013c 0000!
     474                                                      ; call occurs [#_vTaskSuspend] ; |210| 
     475                      .dwpsn  file "../FreeRTOS/Demo/Common/Minimal/dynamic.c",line 212,column 2,is_stmt
     476 00013e 4A59          B $C$L1   ; |212| 
     477                                                      ; branch occurs ; |212| 
     478 000140       $C$DW$L$_vLimitedIncrementTask$3$E:
     479                      .dwcfi  cfa_offset, 1
     480              
     481              $C$DW$58        .dwtag  DW_TAG_TI_loop
     482                      .dwattr $C$DW$58, DW_AT_name("F:\site\eZDSP\eZDSP_5535_Files\ccsws2\test\Debug\dynamic.asm:$C$L1:1:15
     483                      .dwattr $C$DW$58, DW_AT_TI_begin_file("../FreeRTOS/Demo/Common/Minimal/dynamic.c")
     484                      .dwattr $C$DW$58, DW_AT_TI_begin_line(0xcb)
     485                      .dwattr $C$DW$58, DW_AT_TI_end_line(0xd4)
     486              $C$DW$59        .dwtag  DW_TAG_TI_loop_range
     487                      .dwattr $C$DW$59, DW_AT_low_pc($C$DW$L$_vLimitedIncrementTask$2$B)
     488                      .dwattr $C$DW$59, DW_AT_high_pc($C$DW$L$_vLimitedIncrementTask$2$E)
     489              $C$DW$60        .dwtag  DW_TAG_TI_loop_range
     490                      .dwattr $C$DW$60, DW_AT_low_pc($C$DW$L$_vLimitedIncrementTask$3$B)
     491                      .dwattr $C$DW$60, DW_AT_high_pc($C$DW$L$_vLimitedIncrementTask$3$E)
     492                      .dwendtag $C$DW$58
     493              
     494                      .dwattr $C$DW$52, DW_AT_TI_end_file("../FreeRTOS/Demo/Common/Minimal/dynamic.c")
     495                      .dwattr $C$DW$52, DW_AT_TI_end_line(0xd5)
     496                      .dwattr $C$DW$52, DW_AT_TI_end_column(0x01)
     497                      .dwendentry
     498                      .dwendtag $C$DW$52
     499              
     500 000140               .sect   ".text"
     501                      .align 4
     502              
     503              $C$DW$61        .dwtag  DW_TAG_subprogram, DW_AT_name("vContinuousIncrementTask")
     504                      .dwattr $C$DW$61, DW_AT_low_pc(_vContinuousIncrementTask)
     505                      .dwattr $C$DW$61, DW_AT_high_pc(0x00)
     506                      .dwattr $C$DW$61, DW_AT_TI_symbol_name("_vContinuousIncrementTask")
TMS320C55x Assembler PC v4.4.1 Fri Sep 07 01:41:46 2018

Tools Copyright (c) 1996-2012 Texas Instruments Incorporated
dynamic.asm                                                          PAGE   12

     507                      .dwattr $C$DW$61, DW_AT_TI_begin_file("../FreeRTOS/Demo/Common/Minimal/dynamic.c")
     508                      .dwattr $C$DW$61, DW_AT_TI_begin_line(0xdc)
     509                      .dwattr $C$DW$61, DW_AT_TI_begin_column(0x08)
     510                      .dwattr $C$DW$61, DW_AT_TI_max_frame_size(0x06)
     511                      .dwpsn  file "../FreeRTOS/Demo/Common/Minimal/dynamic.c",line 221,column 1,is_stmt,address _vContinuo
     512              
     513                      .dwfde $C$DW$CIE, _vContinuousIncrementTask
     514              $C$DW$62        .dwtag  DW_TAG_formal_parameter, DW_AT_name("pvParameters")
     515                      .dwattr $C$DW$62, DW_AT_TI_symbol_name("_pvParameters")
     516                      .dwattr $C$DW$62, DW_AT_type(*$C$DW$T$3)
     517                      .dwattr $C$DW$62, DW_AT_location[DW_OP_reg17]
     518              ;*******************************************************************************
     519              ;* FUNCTION NAME: vContinuousIncrementTask                                     *
     520              ;*                                                                             *
     521              ;*   Function Uses Regs : AC0,AC0,T0,AR0,XAR0,AR1,AR3,XAR3,SP,CARRY,M40,SATA,  *
     522              ;*                        SATD,RDM,FRCT,SMUL                                   *
     523              ;*   Stack Frame        : Compact (No Frame Pointer, w/ debug)                 *
     524              ;*   Total Frame Size   : 6 words                                              *
     525              ;*                        (1 return address/alignment)                         *
     526              ;*                        (5 local values)                                     *
     527              ;*   Min System Stack   : 1 word                                               *
     528              ;*******************************************************************************
     529 000140       _vContinuousIncrementTask:
     530                      .dwcfi  cfa_offset, 1
     531                      .dwcfi  save_reg_to_mem, 91, -1
     532 000140 4EFB          AADD #-5, SP
     533                      .dwcfi  cfa_offset, 6
     534              $C$DW$63        .dwtag  DW_TAG_variable, DW_AT_name("pvParameters")
     535                      .dwattr $C$DW$63, DW_AT_TI_symbol_name("_pvParameters")
     536                      .dwattr $C$DW$63, DW_AT_type(*$C$DW$T$3)
     537                      .dwattr $C$DW$63, DW_AT_location[DW_OP_bregx 0x24 0]
     538              $C$DW$64        .dwtag  DW_TAG_variable, DW_AT_name("pulCounter")
     539                      .dwattr $C$DW$64, DW_AT_TI_symbol_name("_pulCounter")
     540                      .dwattr $C$DW$64, DW_AT_type(*$C$DW$T$63)
     541                      .dwattr $C$DW$64, DW_AT_location[DW_OP_bregx 0x24 2]
     542              $C$DW$65        .dwtag  DW_TAG_variable, DW_AT_name("uxOurPriority")
     543                      .dwattr $C$DW$65, DW_AT_TI_symbol_name("_uxOurPriority")
     544                      .dwattr $C$DW$65, DW_AT_type(*$C$DW$T$11)
     545                      .dwattr $C$DW$65, DW_AT_location[DW_OP_bregx 0x24 4]
     546 000142 EB00          MOV XAR0, dbl(*SP(#0))
         000144 85   
     547                      .dwpsn  file "../FreeRTOS/Demo/Common/Minimal/dynamic.c",line 227,column 2,is_stmt
     548 000145 ED00          MOV dbl(*SP(#0)), XAR3
         000147 BF   
     549 000148 EB04          MOV XAR3, dbl(*SP(#2))
         00014a B5   
     550                      .dwpsn  file "../FreeRTOS/Demo/Common/Minimal/dynamic.c",line 231,column 2,is_stmt
     551 00014b EC31          AMOV #0, XAR0 ; |231| 
         00014d 8E00 
         00014f 0000 
     552              $C$DW$66        .dwtag  DW_TAG_TI_branch
     553                      .dwattr $C$DW$66, DW_AT_low_pc(0x00)
     554                      .dwattr $C$DW$66, DW_AT_name("_uxTaskPriorityGet")
     555                      .dwattr $C$DW$66, DW_AT_TI_call
     556 000151 6C00          CALL #_uxTaskPriorityGet ; |231| 
TMS320C55x Assembler PC v4.4.1 Fri Sep 07 01:41:46 2018

Tools Copyright (c) 1996-2012 Texas Instruments Incorporated
dynamic.asm                                                          PAGE   13

         000153 0000!
     557                                                      ; call occurs [#_uxTaskPriorityGet] ; |231| 
     558 000155 C408          MOV T0, *SP(#4) ; |231| 
     559 000157       $C$L2:    
     560 000157       $C$DW$L$_vContinuousIncrementTask$2$B:
     561                      .dwpsn  file "../FreeRTOS/Demo/Common/Minimal/dynamic.c",line 237,column 3,is_stmt
     562 000157 A908          MOV *SP(#4), AR1 ; |237| 
     563 000159 EC31          AMOV #0, XAR0 ; |237| 
         00015b 8E00 
         00015d 0000 
     564 00015f 7B00          ADD #1, AR1, T0 ; |237| 
         000161 0149 
     565              $C$DW$67        .dwtag  DW_TAG_TI_branch
     566                      .dwattr $C$DW$67, DW_AT_low_pc(0x00)
     567                      .dwattr $C$DW$67, DW_AT_name("_vTaskPrioritySet")
     568                      .dwattr $C$DW$67, DW_AT_TI_call
     569 000163 6C00          CALL #_vTaskPrioritySet ; |237| 
         000165 0000!
     570                                                      ; call occurs [#_vTaskPrioritySet] ; |237| 
     571                      .dwpsn  file "../FreeRTOS/Demo/Common/Minimal/dynamic.c",line 238,column 4,is_stmt
     572 000167 ED04          MOV dbl(*SP(#2)), XAR3
         000169 BF   
     573 00016a ED61          MOV dbl(*AR3), AC0 ; |238| 
         00016c 08   
     574 00016d 4010          ADD #1, AC0 ; |238| 
     575 00016f EB61          MOV AC0, dbl(*AR3) ; |238| 
         000171 08   
     576                      .dwpsn  file "../FreeRTOS/Demo/Common/Minimal/dynamic.c",line 239,column 3,is_stmt
     577 000172 EC31          AMOV #0, XAR0 ; |239| 
         000174 8E00 
         000176 0000 
     578 000178 A408          MOV *SP(#4), T0 ; |239| 
     579              $C$DW$68        .dwtag  DW_TAG_TI_branch
     580                      .dwattr $C$DW$68, DW_AT_low_pc(0x00)
     581                      .dwattr $C$DW$68, DW_AT_name("_vTaskPrioritySet")
     582                      .dwattr $C$DW$68, DW_AT_TI_call
     583 00017a 6C00          CALL #_vTaskPrioritySet ; |239| 
         00017c 0000!
     584                                                      ; call occurs [#_vTaskPrioritySet] ; |239| 
     585                      .dwpsn  file "../FreeRTOS/Demo/Common/Minimal/dynamic.c",line 240,column 2,is_stmt
     586 00017e 4A57          B $C$L2   ; |240| 
     587                                                      ; branch occurs ; |240| 
     588 000180       $C$DW$L$_vContinuousIncrementTask$2$E:
     589                      .dwcfi  cfa_offset, 1
     590              
     591              $C$DW$69        .dwtag  DW_TAG_TI_loop
     592                      .dwattr $C$DW$69, DW_AT_name("F:\site\eZDSP\eZDSP_5535_Files\ccsws2\test\Debug\dynamic.asm:$C$L2:1:15
     593                      .dwattr $C$DW$69, DW_AT_TI_begin_file("../FreeRTOS/Demo/Common/Minimal/dynamic.c")
     594                      .dwattr $C$DW$69, DW_AT_TI_begin_line(0xe9)
     595                      .dwattr $C$DW$69, DW_AT_TI_end_line(0xf0)
     596              $C$DW$70        .dwtag  DW_TAG_TI_loop_range
     597                      .dwattr $C$DW$70, DW_AT_low_pc($C$DW$L$_vContinuousIncrementTask$2$B)
     598                      .dwattr $C$DW$70, DW_AT_high_pc($C$DW$L$_vContinuousIncrementTask$2$E)
     599                      .dwendtag $C$DW$69
     600              
TMS320C55x Assembler PC v4.4.1 Fri Sep 07 01:41:46 2018

Tools Copyright (c) 1996-2012 Texas Instruments Incorporated
dynamic.asm                                                          PAGE   14

     601                      .dwattr $C$DW$61, DW_AT_TI_end_file("../FreeRTOS/Demo/Common/Minimal/dynamic.c")
     602                      .dwattr $C$DW$61, DW_AT_TI_end_line(0xf1)
     603                      .dwattr $C$DW$61, DW_AT_TI_end_column(0x01)
     604                      .dwendentry
     605                      .dwendtag $C$DW$61
     606              
     607 000180               .sect   ".text"
     608                      .align 4
     609              
     610              $C$DW$71        .dwtag  DW_TAG_subprogram, DW_AT_name("vCounterControlTask")
     611                      .dwattr $C$DW$71, DW_AT_low_pc(_vCounterControlTask)
     612                      .dwattr $C$DW$71, DW_AT_high_pc(0x00)
     613                      .dwattr $C$DW$71, DW_AT_TI_symbol_name("_vCounterControlTask")
     614                      .dwattr $C$DW$71, DW_AT_TI_begin_file("../FreeRTOS/Demo/Common/Minimal/dynamic.c")
     615                      .dwattr $C$DW$71, DW_AT_TI_begin_line(0xf7)
     616                      .dwattr $C$DW$71, DW_AT_TI_begin_column(0x08)
     617                      .dwattr $C$DW$71, DW_AT_TI_max_frame_size(0x08)
     618                      .dwpsn  file "../FreeRTOS/Demo/Common/Minimal/dynamic.c",line 248,column 1,is_stmt,address _vCounterC
     619              
     620                      .dwfde $C$DW$CIE, _vCounterControlTask
     621              $C$DW$72        .dwtag  DW_TAG_formal_parameter, DW_AT_name("pvParameters")
     622                      .dwattr $C$DW$72, DW_AT_TI_symbol_name("_pvParameters")
     623                      .dwattr $C$DW$72, DW_AT_type(*$C$DW$T$3)
     624                      .dwattr $C$DW$72, DW_AT_location[DW_OP_reg17]
     625              ;*******************************************************************************
     626              ;* FUNCTION NAME: vCounterControlTask                                          *
     627              ;*                                                                             *
     628              ;*   Function Uses Regs : AC0,AC0,AC1,AC1,T0,T2,AR0,XAR0,AR1,AR2,SP,CARRY,TC1, *
     629              ;*                        M40,SATA,SATD,RDM,FRCT,SMUL                          *
     630              ;*   Save On Entry Regs : T2                                                   *
     631              ;*   Stack Frame        : Compact (No Frame Pointer, w/ debug)                 *
     632              ;*   Total Frame Size   : 8 words                                              *
     633              ;*                        (1 return address/alignment)                         *
     634              ;*                        (6 local values)                                     *
     635              ;*                        (1 register save area)                               *
     636              ;*   Min System Stack   : 1 word                                               *
     637              ;*******************************************************************************
     638 000180       _vCounterControlTask:
     639                      .dwcfi  cfa_offset, 1
     640                      .dwcfi  save_reg_to_mem, 91, -1
     641 000180 5066          PSH T2
     642                      .dwcfi  cfa_offset, 2
     643                      .dwcfi  save_reg_to_mem, 14, -2
     644 000182 4EFA          AADD #-6, SP
     645                      .dwcfi  cfa_offset, 8
     646              $C$DW$73        .dwtag  DW_TAG_variable, DW_AT_name("pvParameters")
     647                      .dwattr $C$DW$73, DW_AT_TI_symbol_name("_pvParameters")
     648                      .dwattr $C$DW$73, DW_AT_type(*$C$DW$T$3)
     649                      .dwattr $C$DW$73, DW_AT_location[DW_OP_bregx 0x24 0]
     650              $C$DW$74        .dwtag  DW_TAG_variable, DW_AT_name("ulLastCounter")
     651                      .dwattr $C$DW$74, DW_AT_TI_symbol_name("_ulLastCounter")
     652                      .dwattr $C$DW$74, DW_AT_type(*$C$DW$T$13)
     653                      .dwattr $C$DW$74, DW_AT_location[DW_OP_bregx 0x24 2]
     654              $C$DW$75        .dwtag  DW_TAG_variable, DW_AT_name("sLoops")
     655                      .dwattr $C$DW$75, DW_AT_TI_symbol_name("_sLoops")
TMS320C55x Assembler PC v4.4.1 Fri Sep 07 01:41:46 2018

Tools Copyright (c) 1996-2012 Texas Instruments Incorporated
dynamic.asm                                                          PAGE   15

     656                      .dwattr $C$DW$75, DW_AT_type(*$C$DW$T$8)
     657                      .dwattr $C$DW$75, DW_AT_location[DW_OP_bregx 0x24 4]
     658              $C$DW$76        .dwtag  DW_TAG_variable, DW_AT_name("sError")
     659                      .dwattr $C$DW$76, DW_AT_TI_symbol_name("_sError")
     660                      .dwattr $C$DW$76, DW_AT_type(*$C$DW$T$8)
     661                      .dwattr $C$DW$76, DW_AT_location[DW_OP_bregx 0x24 5]
     662 000184 EB00          MOV XAR0, dbl(*SP(#0))
         000186 85   
     663                      .dwpsn  file "../FreeRTOS/Demo/Common/Minimal/dynamic.c",line 251,column 7,is_stmt
     664              
     665 000187 E60A          MOV #0, *SP(#5) ; |251| 
         000189 00   
     666 00018a 3D56  ||      MOV #5, T2
     667              
     668                      .dwpsn  file "../FreeRTOS/Demo/Common/Minimal/dynamic.c",line 254,column 2,is_stmt
     669 00018c       $C$L3:    
     670 00018c       $C$DW$L$_vCounterControlTask$2$B:
     671                      .dwpsn  file "../FreeRTOS/Demo/Common/Minimal/dynamic.c",line 259,column 3,is_stmt
     672 00018c 3C00          MOV #0, AC0 ; |259| 
     673 00018e EB31          MOV AC0, dbl(*(#_ulCounter)) ; |259| 
         000190 0800 
         000192 0004-
     674                      .dwpsn  file "../FreeRTOS/Demo/Common/Minimal/dynamic.c",line 264,column 8,is_stmt
     675 000194 E608          MOV #0, *SP(#4) ; |264| 
         000196 00   
     676                      .dwpsn  file "../FreeRTOS/Demo/Common/Minimal/dynamic.c",line 264,column 20,is_stmt
     677 000197 A908          MOV *SP(#4), AR1 ; |264| 
     678 000199 1298          CMP AR1 >= T2, TC1 ; |264| 
         00019b 60   
     679 00019c 0464          BCC $C$L6,TC1 ; |264| 
         00019e 4C   
     680                                                      ; branchcc occurs ; |264| 
     681 00019f       $C$DW$L$_vCounterControlTask$2$E:
     682 00019f       $C$L4:    
     683 00019f       $C$DW$L$_vCounterControlTask$3$B:
     684                      .dwpsn  file "../FreeRTOS/Demo/Common/Minimal/dynamic.c",line 268,column 4,is_stmt
     685 00019f ED31          MOV dbl(*(#_xContinousIncrementHandle)), XAR0
         0001a1 8F00 
         0001a3 0000-
     686              $C$DW$77        .dwtag  DW_TAG_TI_branch
     687                      .dwattr $C$DW$77, DW_AT_low_pc(0x00)
     688                      .dwattr $C$DW$77, DW_AT_name("_vTaskSuspend")
     689                      .dwattr $C$DW$77, DW_AT_TI_call
     690 0001a5 6C00          CALL #_vTaskSuspend ; |268| 
         0001a7 0000!
     691                                                      ; call occurs [#_vTaskSuspend] ; |268| 
     692                      .dwpsn  file "../FreeRTOS/Demo/Common/Minimal/dynamic.c",line 269,column 5,is_stmt
     693 0001a9 ED31          MOV dbl(*(#_ulCounter)), AC0 ; |269| 
         0001ab 0800 
         0001ad 0004-
     694 0001af EB04          MOV AC0, dbl(*SP(#2)) ; |269| 
         0001b1 08   
     695                      .dwpsn  file "../FreeRTOS/Demo/Common/Minimal/dynamic.c",line 270,column 4,is_stmt
     696 0001b2 ED31          MOV dbl(*(#_xContinousIncrementHandle)), XAR0
         0001b4 8F00 
TMS320C55x Assembler PC v4.4.1 Fri Sep 07 01:41:46 2018

Tools Copyright (c) 1996-2012 Texas Instruments Incorporated
dynamic.asm                                                          PAGE   16

         0001b6 0000-
     697              $C$DW$78        .dwtag  DW_TAG_TI_branch
     698                      .dwattr $C$DW$78, DW_AT_low_pc(0x00)
     699                      .dwattr $C$DW$78, DW_AT_name("_vTaskResume")
     700                      .dwattr $C$DW$78, DW_AT_TI_call
     701 0001b8 6C00          CALL #_vTaskResume ; |270| 
         0001ba 0000!
     702                                                      ; call occurs [#_vTaskResume] ; |270| 
     703                      .dwpsn  file "../FreeRTOS/Demo/Common/Minimal/dynamic.c",line 273,column 4,is_stmt
     704 0001bc 7600          MOV #128, T0 ; |273| 
         0001be 8048 
     705              $C$DW$79        .dwtag  DW_TAG_TI_branch
     706                      .dwattr $C$DW$79, DW_AT_low_pc(0x00)
     707                      .dwattr $C$DW$79, DW_AT_name("_vTaskDelay")
     708                      .dwattr $C$DW$79, DW_AT_TI_call
     709 0001c0 6C00          CALL #_vTaskDelay ; |273| 
         0001c2 0000!
     710                                                      ; call occurs [#_vTaskDelay] ; |273| 
     711                      .dwpsn  file "../FreeRTOS/Demo/Common/Minimal/dynamic.c",line 278,column 4,is_stmt
     712              $C$DW$80        .dwtag  DW_TAG_TI_branch
     713                      .dwattr $C$DW$80, DW_AT_low_pc(0x00)
     714                      .dwattr $C$DW$80, DW_AT_name("_vTaskSuspendAll")
     715                      .dwattr $C$DW$80, DW_AT_TI_call
     716 0001c4 6C00          CALL #_vTaskSuspendAll ; |278| 
         0001c6 0000!
     717                                                      ; call occurs [#_vTaskSuspendAll] ; |278| 
     718                      .dwpsn  file "../FreeRTOS/Demo/Common/Minimal/dynamic.c",line 280,column 5,is_stmt
     719 0001c8 ED31          MOV dbl(*(#_ulCounter)), AC0 ; |280| 
         0001ca 0800 
         0001cc 0004-
     720 0001ce ED04          MOV dbl(*SP(#2)), AC1 ; |280| 
         0001d0 18   
     721 0001d1 121C          CMPU AC1 != AC0, TC1 ; |280| 
         0001d3 04   
     722 0001d4 61E4          BCC $C$L5,TC1 ; |280| 
     723                                                      ; branchcc occurs ; |280| 
     724 0001d6       $C$DW$L$_vCounterControlTask$3$E:
     725 0001d6       $C$DW$L$_vCounterControlTask$4$B:
     726                      .dwpsn  file "../FreeRTOS/Demo/Common/Minimal/dynamic.c",line 284,column 6,is_stmt
     727 0001d6 E60A          MOV #1, *SP(#5) ; |284| 
         0001d8 01   
     728 0001d9       $C$DW$L$_vCounterControlTask$4$E:
     729 0001d9       $C$L5:    
     730 0001d9       $C$DW$L$_vCounterControlTask$5$B:
     731                      .dwpsn  file "../FreeRTOS/Demo/Common/Minimal/dynamic.c",line 287,column 4,is_stmt
     732              $C$DW$81        .dwtag  DW_TAG_TI_branch
     733                      .dwattr $C$DW$81, DW_AT_low_pc(0x00)
     734                      .dwattr $C$DW$81, DW_AT_name("_xTaskResumeAll")
     735                      .dwattr $C$DW$81, DW_AT_TI_call
     736 0001d9 6C00          CALL #_xTaskResumeAll ; |287| 
         0001db 0000!
     737                                                      ; call occurs [#_xTaskResumeAll] ; |287| 
     738                      .dwpsn  file "../FreeRTOS/Demo/Common/Minimal/dynamic.c",line 264,column 39,is_stmt
     739 0001dd F708          ADD #1, *SP(#4) ; |264| 
         0001df 0001 
TMS320C55x Assembler PC v4.4.1 Fri Sep 07 01:41:46 2018

Tools Copyright (c) 1996-2012 Texas Instruments Incorporated
dynamic.asm                                                          PAGE   17

     740                      .dwpsn  file "../FreeRTOS/Demo/Common/Minimal/dynamic.c",line 264,column 20,is_stmt
     741              
     742 0001e1 A908          MOV *SP(#4), AR1 ; |264| 
     743 0001e3 3D5A  ||      MOV #5, AR2
     744              
     745 0001e5 1294          CMP AR1 < AR2, TC1 ; |264| 
         0001e7 A0   
     746 0001e8 0464          BCC $C$L4,TC1 ; |264| 
         0001ea B4   
     747                                                      ; branchcc occurs ; |264| 
     748 0001eb       $C$DW$L$_vCounterControlTask$5$E:
     749 0001eb       $C$L6:    
     750 0001eb       $C$DW$L$_vCounterControlTask$6$B:
     751                      .dwpsn  file "../FreeRTOS/Demo/Common/Minimal/dynamic.c",line 294,column 3,is_stmt
     752 0001eb ED31          MOV dbl(*(#_xContinousIncrementHandle)), XAR0
         0001ed 8F00 
         0001ef 0000-
     753              $C$DW$82        .dwtag  DW_TAG_TI_branch
     754                      .dwattr $C$DW$82, DW_AT_low_pc(0x00)
     755                      .dwattr $C$DW$82, DW_AT_name("_vTaskSuspend")
     756                      .dwattr $C$DW$82, DW_AT_TI_call
     757 0001f1 6C00          CALL #_vTaskSuspend ; |294| 
         0001f3 0000!
     758                                                      ; call occurs [#_vTaskSuspend] ; |294| 
     759                      .dwpsn  file "../FreeRTOS/Demo/Common/Minimal/dynamic.c",line 297,column 3,is_stmt
     760 0001f5 3C00          MOV #0, AC0 ; |297| 
     761 0001f7 EB31          MOV AC0, dbl(*(#_ulCounter)) ; |297| 
         0001f9 0800 
         0001fb 0004-
     762                      .dwpsn  file "../FreeRTOS/Demo/Common/Minimal/dynamic.c",line 302,column 3,is_stmt
     763 0001fd ED31          MOV dbl(*(#_xLimitedIncrementHandle)), XAR0
         0001ff 8F00 
         000201 0002-
     764              $C$DW$83        .dwtag  DW_TAG_TI_branch
     765                      .dwattr $C$DW$83, DW_AT_low_pc(0x00)
     766                      .dwattr $C$DW$83, DW_AT_name("_vTaskResume")
     767                      .dwattr $C$DW$83, DW_AT_TI_call
     768 000203 6C00          CALL #_vTaskResume ; |302| 
         000205 0000!
     769                                                      ; call occurs [#_vTaskResume] ; |302| 
     770                      .dwpsn  file "../FreeRTOS/Demo/Common/Minimal/dynamic.c",line 305,column 3,is_stmt
     771 000207 7600          MOV #255, AC0 ; |305| 
         000209 FF08 
     772 00020b ED31          MOV dbl(*(#_ulCounter)), AC1 ; |305| 
         00020d 1800 
         00020f 0004-
     773 000211 1210          CMPU AC1 == AC0, TC1 ; |305| 
         000213 04   
     774 000214 61E4          BCC $C$L7,TC1 ; |305| 
     775                                                      ; branchcc occurs ; |305| 
     776 000216       $C$DW$L$_vCounterControlTask$6$E:
     777 000216       $C$DW$L$_vCounterControlTask$7$B:
     778                      .dwpsn  file "../FreeRTOS/Demo/Common/Minimal/dynamic.c",line 307,column 4,is_stmt
     779 000216 E60A          MOV #1, *SP(#5) ; |307| 
         000218 01   
TMS320C55x Assembler PC v4.4.1 Fri Sep 07 01:41:46 2018

Tools Copyright (c) 1996-2012 Texas Instruments Incorporated
dynamic.asm                                                          PAGE   18

     780 000219       $C$DW$L$_vCounterControlTask$7$E:
     781 000219       $C$L7:    
     782 000219       $C$DW$L$_vCounterControlTask$8$B:
     783                      .dwpsn  file "../FreeRTOS/Demo/Common/Minimal/dynamic.c",line 310,column 3,is_stmt
     784 000219 A90A          MOV *SP(#5), AR1 ; |310| 
     785 00021b 0419          BCC $C$L8,AR1 != #0 ; |310| 
         00021d 30   
     786                                                      ; branchcc occurs ; |310| 
     787 00021e       $C$DW$L$_vCounterControlTask$8$E:
     788 00021e       $C$DW$L$_vCounterControlTask$9$B:
     789                      .dwpsn  file "../FreeRTOS/Demo/Common/Minimal/dynamic.c",line 313,column 4,is_stmt
     790 00021e 20     nop
     791 00021f 46B3   bset INTM
     792 000221 F731          ADD #1, *(#_usCriticalNesting) ; |313| 
         000223 0001 
         000225 0000 
         000227 00!  
     793                      .dwpsn  file "../FreeRTOS/Demo/Common/Minimal/dynamic.c",line 314,column 5,is_stmt
     794 000228 F731          ADD #1, *(#_usCheckVariable) ; |314| 
         00022a 0001 
         00022c 0000 
         00022e 06-  
     795 00022f 20            NOP
     796 000230 20            NOP
     797 000231 20            NOP
     798                      .dwpsn  file "../FreeRTOS/Demo/Common/Minimal/dynamic.c",line 315,column 4,is_stmt
     799 000232 A931          MOV *(#_usCriticalNesting), AR1 ; |315| 
         000234 0000 
         000236 00!  
     800 000237 0409          BCC $C$L8,AR1 == #0 ; |315| 
         000239 14   
     801                                                      ; branchcc occurs ; |315| 
     802 00023a       $C$DW$L$_vCounterControlTask$9$E:
     803 00023a       $C$DW$L$_vCounterControlTask$10$B:
     804 00023a F731          SUB #1, *(#_usCriticalNesting) ; |315| 
         00023c FFFF 
         00023e 0000 
         000240 00!  
     805 000241 20            NOP
     806 000242 20            NOP
     807 000243 20            NOP
     808 000244 A931          MOV *(#_usCriticalNesting), AR1 ; |315| 
         000246 0000 
         000248 00!  
     809 000249 6199          BCC $C$L8,AR1 != #0 ; |315| 
     810                                                      ; branchcc occurs ; |315| 
     811 00024b       $C$DW$L$_vCounterControlTask$10$E:
     812 00024b       $C$DW$L$_vCounterControlTask$11$B:
     813 00024b 20     nop
     814 00024c 46B2   bclr INTM
     815 00024e       $C$DW$L$_vCounterControlTask$11$E:
     816 00024e       $C$L8:    
     817 00024e       $C$DW$L$_vCounterControlTask$12$B:
     818                      .dwpsn  file "../FreeRTOS/Demo/Common/Minimal/dynamic.c",line 319,column 3,is_stmt
     819 00024e ED31          MOV dbl(*(#_xContinousIncrementHandle)), XAR0
TMS320C55x Assembler PC v4.4.1 Fri Sep 07 01:41:46 2018

Tools Copyright (c) 1996-2012 Texas Instruments Incorporated
dynamic.asm                                                          PAGE   19

         000250 8F00 
         000252 0000-
     820              $C$DW$84        .dwtag  DW_TAG_TI_branch
     821                      .dwattr $C$DW$84, DW_AT_low_pc(0x00)
     822                      .dwattr $C$DW$84, DW_AT_name("_vTaskResume")
     823                      .dwattr $C$DW$84, DW_AT_TI_call
     824 000254 6C00          CALL #_vTaskResume ; |319| 
         000256 0000!
     825                                                      ; call occurs [#_vTaskResume] ; |319| 
     826                      .dwpsn  file "../FreeRTOS/Demo/Common/Minimal/dynamic.c",line 320,column 2,is_stmt
     827 000258 06FF          B $C$L3   ; |320| 
         00025a 31   
     828                                                      ; branch occurs ; |320| 
     829 00025b       $C$DW$L$_vCounterControlTask$12$E:
     830                      .dwcfi  cfa_offset, 2
     831                      .dwcfi  restore_reg, 14
     832                      .dwcfi  cfa_offset, 1
     833              
     834              $C$DW$85        .dwtag  DW_TAG_TI_loop
     835                      .dwattr $C$DW$85, DW_AT_name("F:\site\eZDSP\eZDSP_5535_Files\ccsws2\test\Debug\dynamic.asm:$C$L3:1:15
     836                      .dwattr $C$DW$85, DW_AT_TI_begin_file("../FreeRTOS/Demo/Common/Minimal/dynamic.c")
     837                      .dwattr $C$DW$85, DW_AT_TI_begin_line(0x100)
     838                      .dwattr $C$DW$85, DW_AT_TI_end_line(0x140)
     839              $C$DW$86        .dwtag  DW_TAG_TI_loop_range
     840                      .dwattr $C$DW$86, DW_AT_low_pc($C$DW$L$_vCounterControlTask$2$B)
     841                      .dwattr $C$DW$86, DW_AT_high_pc($C$DW$L$_vCounterControlTask$2$E)
     842              $C$DW$87        .dwtag  DW_TAG_TI_loop_range
     843                      .dwattr $C$DW$87, DW_AT_low_pc($C$DW$L$_vCounterControlTask$6$B)
     844                      .dwattr $C$DW$87, DW_AT_high_pc($C$DW$L$_vCounterControlTask$6$E)
     845              $C$DW$88        .dwtag  DW_TAG_TI_loop_range
     846                      .dwattr $C$DW$88, DW_AT_low_pc($C$DW$L$_vCounterControlTask$7$B)
     847                      .dwattr $C$DW$88, DW_AT_high_pc($C$DW$L$_vCounterControlTask$7$E)
     848              $C$DW$89        .dwtag  DW_TAG_TI_loop_range
     849                      .dwattr $C$DW$89, DW_AT_low_pc($C$DW$L$_vCounterControlTask$8$B)
     850                      .dwattr $C$DW$89, DW_AT_high_pc($C$DW$L$_vCounterControlTask$8$E)
     851              $C$DW$90        .dwtag  DW_TAG_TI_loop_range
     852                      .dwattr $C$DW$90, DW_AT_low_pc($C$DW$L$_vCounterControlTask$9$B)
     853                      .dwattr $C$DW$90, DW_AT_high_pc($C$DW$L$_vCounterControlTask$9$E)
     854              $C$DW$91        .dwtag  DW_TAG_TI_loop_range
     855                      .dwattr $C$DW$91, DW_AT_low_pc($C$DW$L$_vCounterControlTask$10$B)
     856                      .dwattr $C$DW$91, DW_AT_high_pc($C$DW$L$_vCounterControlTask$10$E)
     857              $C$DW$92        .dwtag  DW_TAG_TI_loop_range
     858                      .dwattr $C$DW$92, DW_AT_low_pc($C$DW$L$_vCounterControlTask$11$B)
     859                      .dwattr $C$DW$92, DW_AT_high_pc($C$DW$L$_vCounterControlTask$11$E)
     860              $C$DW$93        .dwtag  DW_TAG_TI_loop_range
     861                      .dwattr $C$DW$93, DW_AT_low_pc($C$DW$L$_vCounterControlTask$12$B)
     862                      .dwattr $C$DW$93, DW_AT_high_pc($C$DW$L$_vCounterControlTask$12$E)
     863              
     864              $C$DW$94        .dwtag  DW_TAG_TI_loop
     865                      .dwattr $C$DW$94, DW_AT_name("F:\site\eZDSP\eZDSP_5535_Files\ccsws2\test\Debug\dynamic.asm:$C$L4:2:15
     866                      .dwattr $C$DW$94, DW_AT_TI_begin_file("../FreeRTOS/Demo/Common/Minimal/dynamic.c")
     867                      .dwattr $C$DW$94, DW_AT_TI_begin_line(0x108)
     868                      .dwattr $C$DW$94, DW_AT_TI_end_line(0x120)
     869              $C$DW$95        .dwtag  DW_TAG_TI_loop_range
     870                      .dwattr $C$DW$95, DW_AT_low_pc($C$DW$L$_vCounterControlTask$3$B)
TMS320C55x Assembler PC v4.4.1 Fri Sep 07 01:41:46 2018

Tools Copyright (c) 1996-2012 Texas Instruments Incorporated
dynamic.asm                                                          PAGE   20

     871                      .dwattr $C$DW$95, DW_AT_high_pc($C$DW$L$_vCounterControlTask$3$E)
     872              $C$DW$96        .dwtag  DW_TAG_TI_loop_range
     873                      .dwattr $C$DW$96, DW_AT_low_pc($C$DW$L$_vCounterControlTask$4$B)
     874                      .dwattr $C$DW$96, DW_AT_high_pc($C$DW$L$_vCounterControlTask$4$E)
     875              $C$DW$97        .dwtag  DW_TAG_TI_loop_range
     876                      .dwattr $C$DW$97, DW_AT_low_pc($C$DW$L$_vCounterControlTask$5$B)
     877                      .dwattr $C$DW$97, DW_AT_high_pc($C$DW$L$_vCounterControlTask$5$E)
     878                      .dwendtag $C$DW$94
     879              
     880                      .dwendtag $C$DW$85
     881              
     882                      .dwattr $C$DW$71, DW_AT_TI_end_file("../FreeRTOS/Demo/Common/Minimal/dynamic.c")
     883                      .dwattr $C$DW$71, DW_AT_TI_end_line(0x141)
     884                      .dwattr $C$DW$71, DW_AT_TI_end_column(0x01)
     885                      .dwendentry
     886                      .dwendtag $C$DW$71
     887              
     888 00025b               .sect   ".text"
     889                      .align 4
     890              
     891              $C$DW$98        .dwtag  DW_TAG_subprogram, DW_AT_name("vQueueSendWhenSuspendedTask")
     892                      .dwattr $C$DW$98, DW_AT_low_pc(_vQueueSendWhenSuspendedTask)
     893                      .dwattr $C$DW$98, DW_AT_high_pc(0x00)
     894                      .dwattr $C$DW$98, DW_AT_TI_symbol_name("_vQueueSendWhenSuspendedTask")
     895                      .dwattr $C$DW$98, DW_AT_TI_begin_file("../FreeRTOS/Demo/Common/Minimal/dynamic.c")
     896                      .dwattr $C$DW$98, DW_AT_TI_begin_line(0x144)
     897                      .dwattr $C$DW$98, DW_AT_TI_begin_column(0x08)
     898                      .dwattr $C$DW$98, DW_AT_TI_max_frame_size(0x04)
     899                      .dwpsn  file "../FreeRTOS/Demo/Common/Minimal/dynamic.c",line 325,column 1,is_stmt,address _vQueueSen
     900              
     901                      .dwfde $C$DW$CIE, _vQueueSendWhenSuspendedTask
     902              $C$DW$99        .dwtag  DW_TAG_variable, DW_AT_name("ulValueToSend")
     903                      .dwattr $C$DW$99, DW_AT_TI_symbol_name("_ulValueToSend$1")
     904                      .dwattr $C$DW$99, DW_AT_type(*$C$DW$T$13)
     905                      .dwattr $C$DW$99, DW_AT_location[DW_OP_addr _ulValueToSend$1]
     906              $C$DW$100       .dwtag  DW_TAG_formal_parameter, DW_AT_name("pvParameters")
     907                      .dwattr $C$DW$100, DW_AT_TI_symbol_name("_pvParameters")
     908                      .dwattr $C$DW$100, DW_AT_type(*$C$DW$T$3)
     909                      .dwattr $C$DW$100, DW_AT_location[DW_OP_reg17]
     910              ;*******************************************************************************
     911              ;* FUNCTION NAME: vQueueSendWhenSuspendedTask                                  *
     912              ;*                                                                             *
     913              ;*   Function Uses Regs : AC0,AC0,T0,T1,T2,AR0,XAR0,AR1,XAR1,SP,CARRY,TC1,M40, *
     914              ;*                        SATA,SATD,RDM,FRCT,SMUL                              *
     915              ;*   Save On Entry Regs : T2                                                   *
     916              ;*   Stack Frame        : Compact (No Frame Pointer, w/ debug)                 *
     917              ;*   Total Frame Size   : 4 words                                              *
     918              ;*                        (1 return address/alignment)                         *
     919              ;*                        (2 local values)                                     *
     920              ;*                        (1 register save area)                               *
     921              ;*   Min System Stack   : 1 word                                               *
     922              ;*******************************************************************************
     923 00025c       _vQueueSendWhenSuspendedTask:
     924                      .dwcfi  cfa_offset, 1
     925                      .dwcfi  save_reg_to_mem, 91, -1
TMS320C55x Assembler PC v4.4.1 Fri Sep 07 01:41:46 2018

Tools Copyright (c) 1996-2012 Texas Instruments Incorporated
dynamic.asm                                                          PAGE   21

     926 00025c 5066          PSH T2
     927                      .dwcfi  cfa_offset, 2
     928                      .dwcfi  save_reg_to_mem, 14, -2
     929 00025e 4EFE          AADD #-2, SP
     930                      .dwcfi  cfa_offset, 4
     931              $C$DW$101       .dwtag  DW_TAG_variable, DW_AT_name("pvParameters")
     932                      .dwattr $C$DW$101, DW_AT_TI_symbol_name("_pvParameters")
     933                      .dwattr $C$DW$101, DW_AT_type(*$C$DW$T$3)
     934                      .dwattr $C$DW$101, DW_AT_location[DW_OP_bregx 0x24 0]
     935              
     936 000260 EB00          MOV XAR0, dbl(*SP(#0))
         000262 85   
     937 000263 3D16  ||      MOV #1, T2
     938              
     939                      .dwpsn  file "../FreeRTOS/Demo/Common/Minimal/dynamic.c",line 329,column 2,is_stmt
     940 000265       $C$L9:    
     941 000265       $C$DW$L$_vQueueSendWhenSuspendedTask$2$B:
     942                      .dwpsn  file "../FreeRTOS/Demo/Common/Minimal/dynamic.c",line 333,column 3,is_stmt
     943              $C$DW$102       .dwtag  DW_TAG_TI_branch
     944                      .dwattr $C$DW$102, DW_AT_low_pc(0x00)
     945                      .dwattr $C$DW$102, DW_AT_name("_vTaskSuspendAll")
     946                      .dwattr $C$DW$102, DW_AT_TI_call
     947 000265 6C00          CALL #_vTaskSuspendAll ; |333| 
         000267 0000!
     948                                                      ; call occurs [#_vTaskSuspendAll] ; |333| 
     949                      .dwpsn  file "../FreeRTOS/Demo/Common/Minimal/dynamic.c",line 336,column 4,is_stmt
     950 000269 3C04          MOV #0, T0
     951 00026b EC31          AMOV #_ulValueToSend$1, XAR1 ; |336| 
         00026d 9E00 
         00026f 000C-
     952 000271 ED31          MOV dbl(*(#_xSuspendedTestQueue)), XAR0
         000273 8F00 
         000275 000A-
     953              $C$DW$103       .dwtag  DW_TAG_TI_branch
     954                      .dwattr $C$DW$103, DW_AT_low_pc(0x00)
     955                      .dwattr $C$DW$103, DW_AT_name("_xQueueGenericSend")
     956                      .dwattr $C$DW$103, DW_AT_TI_call
     957              
     958 000277 6C00          CALL #_xQueueGenericSend ; |336| 
         000279 0000!
     959 00027b 3D05  ||      MOV #0, T1
     960              
     961                                                      ; call occurs [#_xQueueGenericSend] ; |336| 
     962 00027d 1240          CMP T0 == T2, TC1 ; |336| 
         00027f 60   
     963 000280 6364          BCC $C$L10,TC1 ; |336| 
     964                                                      ; branchcc occurs ; |336| 
     965 000282       $C$DW$L$_vQueueSendWhenSuspendedTask$2$E:
     966 000282       $C$DW$L$_vQueueSendWhenSuspendedTask$3$B:
     967                      .dwpsn  file "../FreeRTOS/Demo/Common/Minimal/dynamic.c",line 338,column 5,is_stmt
     968 000282 E631          MOV #1, *(#_xSuspendedQueueSendError) ; |338| 
         000284 0100 
         000286 0007-
     969 000288       $C$DW$L$_vQueueSendWhenSuspendedTask$3$E:
     970 000288       $C$L10:    
TMS320C55x Assembler PC v4.4.1 Fri Sep 07 01:41:46 2018

Tools Copyright (c) 1996-2012 Texas Instruments Incorporated
dynamic.asm                                                          PAGE   22

     971 000288       $C$DW$L$_vQueueSendWhenSuspendedTask$4$B:
     972                      .dwpsn  file "../FreeRTOS/Demo/Common/Minimal/dynamic.c",line 341,column 3,is_stmt
     973              $C$DW$104       .dwtag  DW_TAG_TI_branch
     974                      .dwattr $C$DW$104, DW_AT_low_pc(0x00)
     975                      .dwattr $C$DW$104, DW_AT_name("_xTaskResumeAll")
     976                      .dwattr $C$DW$104, DW_AT_TI_call
     977 000288 6C00          CALL #_xTaskResumeAll ; |341| 
         00028a 0000!
     978                                                      ; call occurs [#_xTaskResumeAll] ; |341| 
     979                      .dwpsn  file "../FreeRTOS/Demo/Common/Minimal/dynamic.c",line 343,column 3,is_stmt
     980 00028c 7600          MOV #128, T0 ; |343| 
         00028e 8048 
     981              $C$DW$105       .dwtag  DW_TAG_TI_branch
     982                      .dwattr $C$DW$105, DW_AT_low_pc(0x00)
     983                      .dwattr $C$DW$105, DW_AT_name("_vTaskDelay")
     984                      .dwattr $C$DW$105, DW_AT_TI_call
     985 000290 6C00          CALL #_vTaskDelay ; |343| 
         000292 0000!
     986                                                      ; call occurs [#_vTaskDelay] ; |343| 
     987                      .dwpsn  file "../FreeRTOS/Demo/Common/Minimal/dynamic.c",line 345,column 3,is_stmt
     988 000294 ED31          MOV dbl(*(#_ulValueToSend$1)), AC0 ; |345| 
         000296 0800 
         000298 000C-
     989 00029a 4010          ADD #1, AC0 ; |345| 
     990 00029c EB31          MOV AC0, dbl(*(#_ulValueToSend$1)) ; |345| 
         00029e 0800 
         0002a0 000C-
     991                      .dwpsn  file "../FreeRTOS/Demo/Common/Minimal/dynamic.c",line 346,column 2,is_stmt
     992 0002a2 4A41          B $C$L9   ; |346| 
     993                                                      ; branch occurs ; |346| 
     994 0002a4       $C$DW$L$_vQueueSendWhenSuspendedTask$4$E:
     995                      .dwcfi  cfa_offset, 2
     996                      .dwcfi  restore_reg, 14
     997                      .dwcfi  cfa_offset, 1
     998              
     999              $C$DW$106       .dwtag  DW_TAG_TI_loop
    1000                      .dwattr $C$DW$106, DW_AT_name("F:\site\eZDSP\eZDSP_5535_Files\ccsws2\test\Debug\dynamic.asm:$C$L9:1:1
    1001                      .dwattr $C$DW$106, DW_AT_TI_begin_file("../FreeRTOS/Demo/Common/Minimal/dynamic.c")
    1002                      .dwattr $C$DW$106, DW_AT_TI_begin_line(0x14b)
    1003                      .dwattr $C$DW$106, DW_AT_TI_end_line(0x15a)
    1004              $C$DW$107       .dwtag  DW_TAG_TI_loop_range
    1005                      .dwattr $C$DW$107, DW_AT_low_pc($C$DW$L$_vQueueSendWhenSuspendedTask$2$B)
    1006                      .dwattr $C$DW$107, DW_AT_high_pc($C$DW$L$_vQueueSendWhenSuspendedTask$2$E)
    1007              $C$DW$108       .dwtag  DW_TAG_TI_loop_range
    1008                      .dwattr $C$DW$108, DW_AT_low_pc($C$DW$L$_vQueueSendWhenSuspendedTask$3$B)
    1009                      .dwattr $C$DW$108, DW_AT_high_pc($C$DW$L$_vQueueSendWhenSuspendedTask$3$E)
    1010              $C$DW$109       .dwtag  DW_TAG_TI_loop_range
    1011                      .dwattr $C$DW$109, DW_AT_low_pc($C$DW$L$_vQueueSendWhenSuspendedTask$4$B)
    1012                      .dwattr $C$DW$109, DW_AT_high_pc($C$DW$L$_vQueueSendWhenSuspendedTask$4$E)
    1013                      .dwendtag $C$DW$106
    1014              
    1015                      .dwattr $C$DW$98, DW_AT_TI_end_file("../FreeRTOS/Demo/Common/Minimal/dynamic.c")
    1016                      .dwattr $C$DW$98, DW_AT_TI_end_line(0x15b)
    1017                      .dwattr $C$DW$98, DW_AT_TI_end_column(0x01)
    1018                      .dwendentry
TMS320C55x Assembler PC v4.4.1 Fri Sep 07 01:41:46 2018

Tools Copyright (c) 1996-2012 Texas Instruments Incorporated
dynamic.asm                                                          PAGE   23

    1019                      .dwendtag $C$DW$98
    1020              
    1021 0002a4               .sect   ".text"
    1022                      .align 4
    1023              
    1024              $C$DW$110       .dwtag  DW_TAG_subprogram, DW_AT_name("vQueueReceiveWhenSuspendedTask")
    1025                      .dwattr $C$DW$110, DW_AT_low_pc(_vQueueReceiveWhenSuspendedTask)
    1026                      .dwattr $C$DW$110, DW_AT_high_pc(0x00)
    1027                      .dwattr $C$DW$110, DW_AT_TI_symbol_name("_vQueueReceiveWhenSuspendedTask")
    1028                      .dwattr $C$DW$110, DW_AT_TI_begin_file("../FreeRTOS/Demo/Common/Minimal/dynamic.c")
    1029                      .dwattr $C$DW$110, DW_AT_TI_begin_line(0x15e)
    1030                      .dwattr $C$DW$110, DW_AT_TI_begin_column(0x08)
    1031                      .dwattr $C$DW$110, DW_AT_TI_max_frame_size(0x04)
    1032                      .dwpsn  file "../FreeRTOS/Demo/Common/Minimal/dynamic.c",line 351,column 1,is_stmt,address _vQueueRec
    1033              
    1034                      .dwfde $C$DW$CIE, _vQueueReceiveWhenSuspendedTask
    1035              $C$DW$111       .dwtag  DW_TAG_variable, DW_AT_name("ulExpectedValue")
    1036                      .dwattr $C$DW$111, DW_AT_TI_symbol_name("_ulExpectedValue$2")
    1037                      .dwattr $C$DW$111, DW_AT_type(*$C$DW$T$13)
    1038                      .dwattr $C$DW$111, DW_AT_location[DW_OP_addr _ulExpectedValue$2]
    1039              $C$DW$112       .dwtag  DW_TAG_variable, DW_AT_name("ulReceivedValue")
    1040                      .dwattr $C$DW$112, DW_AT_TI_symbol_name("_ulReceivedValue$3")
    1041                      .dwattr $C$DW$112, DW_AT_type(*$C$DW$T$13)
    1042                      .dwattr $C$DW$112, DW_AT_location[DW_OP_addr _ulReceivedValue$3]
    1043              $C$DW$113       .dwtag  DW_TAG_formal_parameter, DW_AT_name("pvParameters")
    1044                      .dwattr $C$DW$113, DW_AT_TI_symbol_name("_pvParameters")
    1045                      .dwattr $C$DW$113, DW_AT_type(*$C$DW$T$3)
    1046                      .dwattr $C$DW$113, DW_AT_location[DW_OP_reg17]
    1047              ;*******************************************************************************
    1048              ;* FUNCTION NAME: vQueueReceiveWhenSuspendedTask                               *
    1049              ;*                                                                             *
    1050              ;*   Function Uses Regs : AC0,AC0,AC1,AC1,T0,T1,AR0,XAR0,AR1,XAR1,SP,CARRY,TC1,*
    1051              ;*                        M40,SATA,SATD,RDM,FRCT,SMUL                          *
    1052              ;*   Stack Frame        : Compact (No Frame Pointer, w/ debug)                 *
    1053              ;*   Total Frame Size   : 4 words                                              *
    1054              ;*                        (1 return address/alignment)                         *
    1055              ;*                        (3 local values)                                     *
    1056              ;*   Min System Stack   : 1 word                                               *
    1057              ;*******************************************************************************
    1058 0002a4       _vQueueReceiveWhenSuspendedTask:
    1059                      .dwcfi  cfa_offset, 1
    1060                      .dwcfi  save_reg_to_mem, 91, -1
    1061 0002a4 4EFD          AADD #-3, SP
    1062                      .dwcfi  cfa_offset, 4
    1063              $C$DW$114       .dwtag  DW_TAG_variable, DW_AT_name("pvParameters")
    1064                      .dwattr $C$DW$114, DW_AT_TI_symbol_name("_pvParameters")
    1065                      .dwattr $C$DW$114, DW_AT_type(*$C$DW$T$3)
    1066                      .dwattr $C$DW$114, DW_AT_location[DW_OP_bregx 0x24 0]
    1067              $C$DW$115       .dwtag  DW_TAG_variable, DW_AT_name("xGotValue")
    1068                      .dwattr $C$DW$115, DW_AT_TI_symbol_name("_xGotValue")
    1069                      .dwattr $C$DW$115, DW_AT_type(*$C$DW$T$10)
    1070                      .dwattr $C$DW$115, DW_AT_location[DW_OP_bregx 0x24 2]
    1071 0002a6 EB00          MOV XAR0, dbl(*SP(#0))
         0002a8 85   
    1072                      .dwpsn  file "../FreeRTOS/Demo/Common/Minimal/dynamic.c",line 356,column 2,is_stmt
TMS320C55x Assembler PC v4.4.1 Fri Sep 07 01:41:46 2018

Tools Copyright (c) 1996-2012 Texas Instruments Incorporated
dynamic.asm                                                          PAGE   24

    1073 0002a9       $C$L11:    
    1074 0002a9       $C$DW$L$_vQueueReceiveWhenSuspendedTask$2$B:
    1075                      .dwpsn  file "../FreeRTOS/Demo/Common/Minimal/dynamic.c",line 367,column 4,is_stmt
    1076              $C$DW$116       .dwtag  DW_TAG_TI_branch
    1077                      .dwattr $C$DW$116, DW_AT_low_pc(0x00)
    1078                      .dwattr $C$DW$116, DW_AT_name("_vTaskSuspendAll")
    1079                      .dwattr $C$DW$116, DW_AT_TI_call
    1080 0002a9 6C00          CALL #_vTaskSuspendAll ; |367| 
         0002ab 0000!
    1081                                                      ; call occurs [#_vTaskSuspendAll] ; |367| 
    1082                      .dwpsn  file "../FreeRTOS/Demo/Common/Minimal/dynamic.c",line 369,column 5,is_stmt
    1083              $C$DW$117       .dwtag  DW_TAG_TI_branch
    1084                      .dwattr $C$DW$117, DW_AT_low_pc(0x00)
    1085                      .dwattr $C$DW$117, DW_AT_name("_vTaskSuspendAll")
    1086                      .dwattr $C$DW$117, DW_AT_TI_call
    1087 0002ad 6C00          CALL #_vTaskSuspendAll ; |369| 
         0002af 0000!
    1088                                                      ; call occurs [#_vTaskSuspendAll] ; |369| 
    1089                      .dwpsn  file "../FreeRTOS/Demo/Common/Minimal/dynamic.c",line 371,column 6,is_stmt
    1090 0002b1 3C04          MOV #0, T0
    1091 0002b3 EC31          AMOV #_ulReceivedValue$3, XAR1 ; |371| 
         0002b5 9E00 
         0002b7 0010-
    1092 0002b9 ED31          MOV dbl(*(#_xSuspendedTestQueue)), XAR0
         0002bb 8F00 
         0002bd 000A-
    1093              $C$DW$118       .dwtag  DW_TAG_TI_branch
    1094                      .dwattr $C$DW$118, DW_AT_low_pc(0x00)
    1095                      .dwattr $C$DW$118, DW_AT_name("_xQueueGenericReceive")
    1096                      .dwattr $C$DW$118, DW_AT_TI_call
    1097              
    1098 0002bf 6C00          CALL #_xQueueGenericReceive ; |371| 
         0002c1 0000!
    1099 0002c3 3D05  ||      MOV #0, T1
    1100              
    1101                                                      ; call occurs [#_xQueueGenericReceive] ; |371| 
    1102 0002c5 C404          MOV T0, *SP(#2) ; |371| 
    1103                      .dwpsn  file "../FreeRTOS/Demo/Common/Minimal/dynamic.c",line 373,column 5,is_stmt
    1104              $C$DW$119       .dwtag  DW_TAG_TI_branch
    1105                      .dwattr $C$DW$119, DW_AT_low_pc(0x00)
    1106                      .dwattr $C$DW$119, DW_AT_name("_xTaskResumeAll")
    1107                      .dwattr $C$DW$119, DW_AT_TI_call
    1108 0002c7 6C00          CALL #_xTaskResumeAll ; |373| 
         0002c9 0000!
    1109                                                      ; call occurs [#_xTaskResumeAll] ; |373| 
    1110 0002cb 6304          BCC $C$L12,T0 == #0 ; |373| 
    1111                                                      ; branchcc occurs ; |373| 
    1112 0002cd       $C$DW$L$_vQueueReceiveWhenSuspendedTask$2$E:
    1113 0002cd       $C$DW$L$_vQueueReceiveWhenSuspendedTask$3$B:
    1114                      .dwpsn  file "../FreeRTOS/Demo/Common/Minimal/dynamic.c",line 375,column 6,is_stmt
    1115 0002cd E631          MOV #1, *(#_xSuspendedQueueReceiveError) ; |375| 
         0002cf 0100 
         0002d1 0008-
    1116 0002d3       $C$DW$L$_vQueueReceiveWhenSuspendedTask$3$E:
    1117 0002d3       $C$L12:    
TMS320C55x Assembler PC v4.4.1 Fri Sep 07 01:41:46 2018

Tools Copyright (c) 1996-2012 Texas Instruments Incorporated
dynamic.asm                                                          PAGE   25

    1118 0002d3       $C$DW$L$_vQueueReceiveWhenSuspendedTask$4$B:
    1119                      .dwpsn  file "../FreeRTOS/Demo/Common/Minimal/dynamic.c",line 378,column 4,is_stmt
    1120              $C$DW$120       .dwtag  DW_TAG_TI_branch
    1121                      .dwattr $C$DW$120, DW_AT_low_pc(0x00)
    1122                      .dwattr $C$DW$120, DW_AT_name("_xTaskResumeAll")
    1123                      .dwattr $C$DW$120, DW_AT_TI_call
    1124 0002d3 6C00          CALL #_xTaskResumeAll ; |378| 
         0002d5 0000!
    1125                                                      ; call occurs [#_xTaskResumeAll] ; |378| 
    1126                      .dwpsn  file "../FreeRTOS/Demo/Common/Minimal/dynamic.c",line 386,column 12,is_stmt
    1127 0002d7 A904          MOV *SP(#2), AR1 ; |386| 
    1128 0002d9 0409          BCC $C$L11,AR1 == #0 ; |386| 
         0002db CD   
    1129                                                      ; branchcc occurs ; |386| 
    1130 0002dc       $C$DW$L$_vQueueReceiveWhenSuspendedTask$4$E:
    1131 0002dc       $C$DW$L$_vQueueReceiveWhenSuspendedTask$5$B:
    1132                      .dwpsn  file "../FreeRTOS/Demo/Common/Minimal/dynamic.c",line 388,column 3,is_stmt
    1133 0002dc ED31          MOV dbl(*(#_ulExpectedValue$2)), AC0 ; |388| 
         0002de 0800 
         0002e0 000E-
    1134 0002e2 ED31          MOV dbl(*(#_ulReceivedValue$3)), AC1 ; |388| 
         0002e4 1800 
         0002e6 0010-
    1135 0002e8 1210          CMPU AC1 == AC0, TC1 ; |388| 
         0002ea 04   
    1136 0002eb 6364          BCC $C$L13,TC1 ; |388| 
    1137                                                      ; branchcc occurs ; |388| 
    1138 0002ed       $C$DW$L$_vQueueReceiveWhenSuspendedTask$5$E:
    1139 0002ed       $C$DW$L$_vQueueReceiveWhenSuspendedTask$6$B:
    1140                      .dwpsn  file "../FreeRTOS/Demo/Common/Minimal/dynamic.c",line 390,column 4,is_stmt
    1141 0002ed E631          MOV #1, *(#_xSuspendedQueueReceiveError) ; |390| 
         0002ef 0100 
         0002f1 0008-
    1142 0002f3       $C$DW$L$_vQueueReceiveWhenSuspendedTask$6$E:
    1143 0002f3       $C$L13:    
    1144 0002f3       $C$DW$L$_vQueueReceiveWhenSuspendedTask$7$B:
    1145                      .dwpsn  file "../FreeRTOS/Demo/Common/Minimal/dynamic.c",line 393,column 3,is_stmt
    1146 0002f3 ED31          MOV dbl(*(#_ulExpectedValue$2)), AC0 ; |393| 
         0002f5 0800 
         0002f7 000E-
    1147 0002f9 4010          ADD #1, AC0 ; |393| 
    1148 0002fb EB31          MOV AC0, dbl(*(#_ulExpectedValue$2)) ; |393| 
         0002fd 0800 
         0002ff 000E-
    1149                      .dwpsn  file "../FreeRTOS/Demo/Common/Minimal/dynamic.c",line 394,column 2,is_stmt
    1150 000301 06FF          B $C$L11  ; |394| 
         000303 A5   
    1151                                                      ; branch occurs ; |394| 
    1152 000304       $C$DW$L$_vQueueReceiveWhenSuspendedTask$7$E:
    1153                      .dwcfi  cfa_offset, 1
    1154              
    1155              $C$DW$121       .dwtag  DW_TAG_TI_loop
    1156                      .dwattr $C$DW$121, DW_AT_name("F:\site\eZDSP\eZDSP_5535_Files\ccsws2\test\Debug\dynamic.asm:$C$L11:1:
    1157                      .dwattr $C$DW$121, DW_AT_TI_begin_file("../FreeRTOS/Demo/Common/Minimal/dynamic.c")
    1158                      .dwattr $C$DW$121, DW_AT_TI_begin_line(0x168)
TMS320C55x Assembler PC v4.4.1 Fri Sep 07 01:41:46 2018

Tools Copyright (c) 1996-2012 Texas Instruments Incorporated
dynamic.asm                                                          PAGE   26

    1159                      .dwattr $C$DW$121, DW_AT_TI_end_line(0x18a)
    1160              $C$DW$122       .dwtag  DW_TAG_TI_loop_range
    1161                      .dwattr $C$DW$122, DW_AT_low_pc($C$DW$L$_vQueueReceiveWhenSuspendedTask$2$B)
    1162                      .dwattr $C$DW$122, DW_AT_high_pc($C$DW$L$_vQueueReceiveWhenSuspendedTask$2$E)
    1163              $C$DW$123       .dwtag  DW_TAG_TI_loop_range
    1164                      .dwattr $C$DW$123, DW_AT_low_pc($C$DW$L$_vQueueReceiveWhenSuspendedTask$5$B)
    1165                      .dwattr $C$DW$123, DW_AT_high_pc($C$DW$L$_vQueueReceiveWhenSuspendedTask$5$E)
    1166              $C$DW$124       .dwtag  DW_TAG_TI_loop_range
    1167                      .dwattr $C$DW$124, DW_AT_low_pc($C$DW$L$_vQueueReceiveWhenSuspendedTask$6$B)
    1168                      .dwattr $C$DW$124, DW_AT_high_pc($C$DW$L$_vQueueReceiveWhenSuspendedTask$6$E)
    1169              $C$DW$125       .dwtag  DW_TAG_TI_loop_range
    1170                      .dwattr $C$DW$125, DW_AT_low_pc($C$DW$L$_vQueueReceiveWhenSuspendedTask$3$B)
    1171                      .dwattr $C$DW$125, DW_AT_high_pc($C$DW$L$_vQueueReceiveWhenSuspendedTask$3$E)
    1172              $C$DW$126       .dwtag  DW_TAG_TI_loop_range
    1173                      .dwattr $C$DW$126, DW_AT_low_pc($C$DW$L$_vQueueReceiveWhenSuspendedTask$7$B)
    1174                      .dwattr $C$DW$126, DW_AT_high_pc($C$DW$L$_vQueueReceiveWhenSuspendedTask$7$E)
    1175              $C$DW$127       .dwtag  DW_TAG_TI_loop_range
    1176                      .dwattr $C$DW$127, DW_AT_low_pc($C$DW$L$_vQueueReceiveWhenSuspendedTask$4$B)
    1177                      .dwattr $C$DW$127, DW_AT_high_pc($C$DW$L$_vQueueReceiveWhenSuspendedTask$4$E)
    1178                      .dwendtag $C$DW$121
    1179              
    1180                      .dwattr $C$DW$110, DW_AT_TI_end_file("../FreeRTOS/Demo/Common/Minimal/dynamic.c")
    1181                      .dwattr $C$DW$110, DW_AT_TI_end_line(0x18b)
    1182                      .dwattr $C$DW$110, DW_AT_TI_end_column(0x01)
    1183                      .dwendentry
    1184                      .dwendtag $C$DW$110
    1185              
    1186 000304               .sect   ".text"
    1187                      .align 4
    1188                      .global _xAreDynamicPriorityTasksStillRunning
    1189              
    1190              $C$DW$128       .dwtag  DW_TAG_subprogram, DW_AT_name("xAreDynamicPriorityTasksStillRunning")
    1191                      .dwattr $C$DW$128, DW_AT_low_pc(_xAreDynamicPriorityTasksStillRunning)
    1192                      .dwattr $C$DW$128, DW_AT_high_pc(0x00)
    1193                      .dwattr $C$DW$128, DW_AT_TI_symbol_name("_xAreDynamicPriorityTasksStillRunning")
    1194                      .dwattr $C$DW$128, DW_AT_external
    1195                      .dwattr $C$DW$128, DW_AT_type(*$C$DW$T$10)
    1196                      .dwattr $C$DW$128, DW_AT_TI_begin_file("../FreeRTOS/Demo/Common/Minimal/dynamic.c")
    1197                      .dwattr $C$DW$128, DW_AT_TI_begin_line(0x18f)
    1198                      .dwattr $C$DW$128, DW_AT_TI_begin_column(0x0f)
    1199                      .dwattr $C$DW$128, DW_AT_TI_max_frame_size(0x02)
    1200                      .dwpsn  file "../FreeRTOS/Demo/Common/Minimal/dynamic.c",line 400,column 1,is_stmt,address _xAreDynam
    1201              
    1202                      .dwfde $C$DW$CIE, _xAreDynamicPriorityTasksStillRunning
    1203              $C$DW$129       .dwtag  DW_TAG_variable, DW_AT_name("usLastTaskCheck")
    1204                      .dwattr $C$DW$129, DW_AT_TI_symbol_name("_usLastTaskCheck$4")
    1205                      .dwattr $C$DW$129, DW_AT_type(*$C$DW$T$9)
    1206                      .dwattr $C$DW$129, DW_AT_location[DW_OP_addr _usLastTaskCheck$4]
    1207              ;*******************************************************************************
    1208              ;* FUNCTION NAME: xAreDynamicPriorityTasksStillRunning                         *
    1209              ;*                                                                             *
    1210              ;*   Function Uses Regs : T0,AR1,AR2,SP,TC1,M40,SATA,SATD,RDM,FRCT,SMUL        *
    1211              ;*   Stack Frame        : Compact (No Frame Pointer, w/ debug)                 *
    1212              ;*   Total Frame Size   : 2 words                                              *
    1213              ;*                        (1 return address/alignment)                         *
TMS320C55x Assembler PC v4.4.1 Fri Sep 07 01:41:46 2018

Tools Copyright (c) 1996-2012 Texas Instruments Incorporated
dynamic.asm                                                          PAGE   27

    1214              ;*                        (1 local values)                                     *
    1215              ;*   Min System Stack   : 1 word                                               *
    1216              ;*******************************************************************************
    1217 000304       _xAreDynamicPriorityTasksStillRunning:
    1218                      .dwcfi  cfa_offset, 1
    1219                      .dwcfi  save_reg_to_mem, 91, -1
    1220 000304 4EFF          AADD #-1, SP
    1221                      .dwcfi  cfa_offset, 2
    1222              $C$DW$130       .dwtag  DW_TAG_variable, DW_AT_name("xReturn")
    1223                      .dwattr $C$DW$130, DW_AT_TI_symbol_name("_xReturn")
    1224                      .dwattr $C$DW$130, DW_AT_type(*$C$DW$T$10)
    1225                      .dwattr $C$DW$130, DW_AT_location[DW_OP_bregx 0x24 0]
    1226                      .dwpsn  file "../FreeRTOS/Demo/Common/Minimal/dynamic.c",line 404,column 15,is_stmt
    1227 000306 E600          MOV #1, *SP(#0) ; |404| 
         000308 01   
    1228                      .dwpsn  file "../FreeRTOS/Demo/Common/Minimal/dynamic.c",line 409,column 2,is_stmt
    1229 000309 A931          MOV *(#_usLastTaskCheck$4), AR1 ; |409| 
         00030b 0000 
         00030d 09-  
    1230 00030e AA31          MOV *(#_usCheckVariable), AR2 ; |409| 
         000310 0000 
         000312 06-  
    1231 000313 12AC          CMPU AR2 != AR1, TC1 ; |409| 
         000315 94   
    1232 000316 61E4          BCC $C$L14,TC1 ; |409| 
    1233                                                      ; branchcc occurs ; |409| 
    1234                      .dwpsn  file "../FreeRTOS/Demo/Common/Minimal/dynamic.c",line 412,column 3,is_stmt
    1235 000318 E600          MOV #0, *SP(#0) ; |412| 
         00031a 00   
    1236 00031b       $C$L14:    
    1237                      .dwpsn  file "../FreeRTOS/Demo/Common/Minimal/dynamic.c",line 415,column 2,is_stmt
    1238 00031b F031          CMP *(#_xSuspendedQueueSendError) == #1, TC1 ; |415| 
         00031d 0001 
         00031f 0000 
         000321 07-  
    1239 000322 61F4          BCC $C$L15,!TC1 ; |415| 
    1240                                                      ; branchcc occurs ; |415| 
    1241                      .dwpsn  file "../FreeRTOS/Demo/Common/Minimal/dynamic.c",line 417,column 3,is_stmt
    1242 000324 E600          MOV #0, *SP(#0) ; |417| 
         000326 00   
    1243 000327       $C$L15:    
    1244                      .dwpsn  file "../FreeRTOS/Demo/Common/Minimal/dynamic.c",line 420,column 2,is_stmt
    1245 000327 F031          CMP *(#_xSuspendedQueueReceiveError) == #1, TC1 ; |420| 
         000329 0001 
         00032b 0000 
         00032d 08-  
    1246 00032e 61F4          BCC $C$L16,!TC1 ; |420| 
    1247                                                      ; branchcc occurs ; |420| 
    1248                      .dwpsn  file "../FreeRTOS/Demo/Common/Minimal/dynamic.c",line 422,column 3,is_stmt
    1249 000330 E600          MOV #0, *SP(#0) ; |422| 
         000332 00   
    1250 000333       $C$L16:    
    1251                      .dwpsn  file "../FreeRTOS/Demo/Common/Minimal/dynamic.c",line 425,column 2,is_stmt
    1252 000333 A931          MOV *(#_usCheckVariable), AR1 ; |425| 
         000335 0000 
TMS320C55x Assembler PC v4.4.1 Fri Sep 07 01:41:46 2018

Tools Copyright (c) 1996-2012 Texas Instruments Incorporated
dynamic.asm                                                          PAGE   28

         000337 06-  
    1253 000338 C931          MOV AR1, *(#_usLastTaskCheck$4) ; |425| 
         00033a 0000 
         00033c 09-  
    1254                      .dwpsn  file "../FreeRTOS/Demo/Common/Minimal/dynamic.c",line 426,column 2,is_stmt
    1255 00033d A400          MOV *SP(#0), T0 ; |426| 
    1256                      .dwpsn  file "../FreeRTOS/Demo/Common/Minimal/dynamic.c",line 427,column 1,is_stmt
    1257 00033f 4E01          AADD #1, SP
    1258                      .dwcfi  cfa_offset, 1
    1259              $C$DW$131       .dwtag  DW_TAG_TI_branch
    1260                      .dwattr $C$DW$131, DW_AT_low_pc(0x00)
    1261                      .dwattr $C$DW$131, DW_AT_TI_return
    1262 000341 4804          RET
    1263                                                      ; return occurs
    1264                      .dwattr $C$DW$128, DW_AT_TI_end_file("../FreeRTOS/Demo/Common/Minimal/dynamic.c")
    1265                      .dwattr $C$DW$128, DW_AT_TI_end_line(0x1ab)
    1266                      .dwattr $C$DW$128, DW_AT_TI_end_column(0x01)
    1267                      .dwendentry
    1268                      .dwendtag $C$DW$128
    1269              
    1270              ;*******************************************************************************
    1271              ;* FAR STRINGS                                                                 *
    1272              ;*******************************************************************************
    1273 000000               .sect   ".const:.string"
    1274                      .align  2
    1275 000000 0043  $C$FSL1:        .string "CNT_INC",0
         000001 004E 
         000002 0054 
         000003 005F 
         000004 0049 
         000005 004E 
         000006 0043 
         000007 0000 
    1276                      .align  2
    1277 000008 004C  $C$FSL2:        .string "LIM_INC",0
         000009 0049 
         00000a 004D 
         00000b 005F 
         00000c 0049 
         00000d 004E 
         00000e 0043 
         00000f 0000 
    1278                      .align  2
    1279 000010 0043  $C$FSL3:        .string "C_CTRL",0
         000011 005F 
         000012 0043 
         000013 0054 
         000014 0052 
         000015 004C 
         000016 0000 
    1280                      .align  2
    1281 000018 0053  $C$FSL4:        .string "SUSP_TX",0
         000019 0055 
         00001a 0053 
         00001b 0050 
TMS320C55x Assembler PC v4.4.1 Fri Sep 07 01:41:46 2018

Tools Copyright (c) 1996-2012 Texas Instruments Incorporated
dynamic.asm                                                          PAGE   29

         00001c 005F 
         00001d 0054 
         00001e 0058 
         00001f 0000 
    1282                      .align  2
    1283 000020 0053  $C$FSL5:        .string "SUSP_RX",0
         000021 0055 
         000022 0053 
         000023 0050 
         000024 005F 
         000025 0052 
         000026 0058 
         000027 0000 
    1284              ;******************************************************************************
    1285              ;* UNDEFINED EXTERNAL REFERENCES                                              *
    1286              ;******************************************************************************
    1287                      .global _vTaskDelay
    1288                      .global _uxTaskPriorityGet
    1289                      .global _vTaskPrioritySet
    1290                      .global _vTaskSuspend
    1291                      .global _vTaskResume
    1292                      .global _vTaskSuspendAll
    1293                      .global _xTaskResumeAll
    1294                      .global _xTaskGenericCreate
    1295                      .global _xQueueCreate
    1296                      .global _xQueueGenericSend
    1297                      .global _xQueueGenericReceive
    1298                      .global _usCriticalNesting
    1299              
    1300              ;*******************************************************************************
    1301              ;* TYPE INFORMATION                                                            *
    1302              ;*******************************************************************************
    1303              $C$DW$T$3       .dwtag  DW_TAG_pointer_type
    1304                      .dwattr $C$DW$T$3, DW_AT_address_class(0x17)
    1305              $C$DW$132       .dwtag  DW_TAG_TI_far_type
    1306                      .dwattr $C$DW$132, DW_AT_type(*$C$DW$T$3)
    1307              $C$DW$T$20      .dwtag  DW_TAG_const_type
    1308                      .dwattr $C$DW$T$20, DW_AT_type(*$C$DW$132)
    1309              $C$DW$T$21      .dwtag  DW_TAG_typedef, DW_AT_name("xQueueHandle")
    1310                      .dwattr $C$DW$T$21, DW_AT_type(*$C$DW$T$3)
    1311                      .dwattr $C$DW$T$21, DW_AT_language(DW_LANG_C)
    1312              $C$DW$T$24      .dwtag  DW_TAG_typedef, DW_AT_name("xTaskHandle")
    1313                      .dwattr $C$DW$T$24, DW_AT_type(*$C$DW$T$3)
    1314                      .dwattr $C$DW$T$24, DW_AT_language(DW_LANG_C)
    1315              $C$DW$T$25      .dwtag  DW_TAG_pointer_type
    1316                      .dwattr $C$DW$T$25, DW_AT_type(*$C$DW$T$24)
    1317                      .dwattr $C$DW$T$25, DW_AT_address_class(0x17)
    1318              
    1319              $C$DW$T$35      .dwtag  DW_TAG_subroutine_type
    1320                      .dwattr $C$DW$T$35, DW_AT_language(DW_LANG_C)
    1321              $C$DW$133       .dwtag  DW_TAG_formal_parameter
    1322                      .dwattr $C$DW$133, DW_AT_type(*$C$DW$T$3)
    1323                      .dwendtag $C$DW$T$35
    1324              
    1325              $C$DW$T$36      .dwtag  DW_TAG_pointer_type
TMS320C55x Assembler PC v4.4.1 Fri Sep 07 01:41:46 2018

Tools Copyright (c) 1996-2012 Texas Instruments Incorporated
dynamic.asm                                                          PAGE   30

    1326                      .dwattr $C$DW$T$36, DW_AT_type(*$C$DW$T$35)
    1327                      .dwattr $C$DW$T$36, DW_AT_address_class(0x20)
    1328              $C$DW$T$37      .dwtag  DW_TAG_typedef, DW_AT_name("pdTASK_CODE")
    1329                      .dwattr $C$DW$T$37, DW_AT_type(*$C$DW$T$36)
    1330                      .dwattr $C$DW$T$37, DW_AT_language(DW_LANG_C)
    1331              $C$DW$134       .dwtag  DW_TAG_TI_far_type
    1332              $C$DW$T$38      .dwtag  DW_TAG_const_type
    1333                      .dwattr $C$DW$T$38, DW_AT_type(*$C$DW$134)
    1334              $C$DW$T$39      .dwtag  DW_TAG_pointer_type
    1335                      .dwattr $C$DW$T$39, DW_AT_type(*$C$DW$T$38)
    1336                      .dwattr $C$DW$T$39, DW_AT_address_class(0x17)
    1337              $C$DW$135       .dwtag  DW_TAG_TI_far_type
    1338                      .dwattr $C$DW$135, DW_AT_type(*$C$DW$T$39)
    1339              $C$DW$T$40      .dwtag  DW_TAG_const_type
    1340                      .dwattr $C$DW$T$40, DW_AT_type(*$C$DW$135)
    1341              $C$DW$T$4       .dwtag  DW_TAG_base_type
    1342                      .dwattr $C$DW$T$4, DW_AT_encoding(DW_ATE_boolean)
    1343                      .dwattr $C$DW$T$4, DW_AT_name("bool")
    1344                      .dwattr $C$DW$T$4, DW_AT_byte_size(0x01)
    1345              $C$DW$T$5       .dwtag  DW_TAG_base_type
    1346                      .dwattr $C$DW$T$5, DW_AT_encoding(DW_ATE_signed_char)
    1347                      .dwattr $C$DW$T$5, DW_AT_name("signed char")
    1348                      .dwattr $C$DW$T$5, DW_AT_byte_size(0x01)
    1349              $C$DW$136       .dwtag  DW_TAG_TI_far_type
    1350                      .dwattr $C$DW$136, DW_AT_type(*$C$DW$T$5)
    1351              $C$DW$T$41      .dwtag  DW_TAG_const_type
    1352                      .dwattr $C$DW$T$41, DW_AT_type(*$C$DW$136)
    1353              $C$DW$T$42      .dwtag  DW_TAG_pointer_type
    1354                      .dwattr $C$DW$T$42, DW_AT_type(*$C$DW$T$41)
    1355                      .dwattr $C$DW$T$42, DW_AT_address_class(0x17)
    1356              $C$DW$137       .dwtag  DW_TAG_TI_far_type
    1357                      .dwattr $C$DW$137, DW_AT_type(*$C$DW$T$42)
    1358              $C$DW$T$43      .dwtag  DW_TAG_const_type
    1359                      .dwattr $C$DW$T$43, DW_AT_type(*$C$DW$137)
    1360              $C$DW$T$6       .dwtag  DW_TAG_base_type
    1361                      .dwattr $C$DW$T$6, DW_AT_encoding(DW_ATE_unsigned_char)
    1362                      .dwattr $C$DW$T$6, DW_AT_name("unsigned char")
    1363                      .dwattr $C$DW$T$6, DW_AT_byte_size(0x01)
    1364              $C$DW$T$7       .dwtag  DW_TAG_base_type
    1365                      .dwattr $C$DW$T$7, DW_AT_encoding(DW_ATE_signed_char)
    1366                      .dwattr $C$DW$T$7, DW_AT_name("wchar_t")
    1367                      .dwattr $C$DW$T$7, DW_AT_byte_size(0x01)
    1368              $C$DW$T$8       .dwtag  DW_TAG_base_type
    1369                      .dwattr $C$DW$T$8, DW_AT_encoding(DW_ATE_signed)
    1370                      .dwattr $C$DW$T$8, DW_AT_name("short")
    1371                      .dwattr $C$DW$T$8, DW_AT_byte_size(0x01)
    1372              $C$DW$T$9       .dwtag  DW_TAG_base_type
    1373                      .dwattr $C$DW$T$9, DW_AT_encoding(DW_ATE_unsigned)
    1374                      .dwattr $C$DW$T$9, DW_AT_name("unsigned short")
    1375                      .dwattr $C$DW$T$9, DW_AT_byte_size(0x01)
    1376              $C$DW$138       .dwtag  DW_TAG_TI_far_type
    1377                      .dwattr $C$DW$138, DW_AT_type(*$C$DW$T$9)
    1378              $C$DW$T$45      .dwtag  DW_TAG_volatile_type
    1379                      .dwattr $C$DW$T$45, DW_AT_type(*$C$DW$138)
    1380              $C$DW$T$10      .dwtag  DW_TAG_base_type
TMS320C55x Assembler PC v4.4.1 Fri Sep 07 01:41:46 2018

Tools Copyright (c) 1996-2012 Texas Instruments Incorporated
dynamic.asm                                                          PAGE   31

    1381                      .dwattr $C$DW$T$10, DW_AT_encoding(DW_ATE_signed)
    1382                      .dwattr $C$DW$T$10, DW_AT_name("int")
    1383                      .dwattr $C$DW$T$10, DW_AT_byte_size(0x01)
    1384              $C$DW$139       .dwtag  DW_TAG_TI_far_type
    1385                      .dwattr $C$DW$139, DW_AT_type(*$C$DW$T$10)
    1386              $C$DW$T$59      .dwtag  DW_TAG_volatile_type
    1387                      .dwattr $C$DW$T$59, DW_AT_type(*$C$DW$139)
    1388              $C$DW$T$11      .dwtag  DW_TAG_base_type
    1389                      .dwattr $C$DW$T$11, DW_AT_encoding(DW_ATE_unsigned)
    1390                      .dwattr $C$DW$T$11, DW_AT_name("unsigned int")
    1391                      .dwattr $C$DW$T$11, DW_AT_byte_size(0x01)
    1392              $C$DW$T$48      .dwtag  DW_TAG_pointer_type
    1393                      .dwattr $C$DW$T$48, DW_AT_type(*$C$DW$T$11)
    1394                      .dwattr $C$DW$T$48, DW_AT_address_class(0x17)
    1395              $C$DW$140       .dwtag  DW_TAG_TI_far_type
    1396                      .dwattr $C$DW$140, DW_AT_type(*$C$DW$T$11)
    1397              $C$DW$T$62      .dwtag  DW_TAG_volatile_type
    1398                      .dwattr $C$DW$T$62, DW_AT_type(*$C$DW$140)
    1399              $C$DW$T$26      .dwtag  DW_TAG_typedef, DW_AT_name("portTickType")
    1400                      .dwattr $C$DW$T$26, DW_AT_type(*$C$DW$T$11)
    1401                      .dwattr $C$DW$T$26, DW_AT_language(DW_LANG_C)
    1402              $C$DW$T$12      .dwtag  DW_TAG_base_type
    1403                      .dwattr $C$DW$T$12, DW_AT_encoding(DW_ATE_signed)
    1404                      .dwattr $C$DW$T$12, DW_AT_name("long")
    1405                      .dwattr $C$DW$T$12, DW_AT_byte_size(0x02)
    1406              $C$DW$T$13      .dwtag  DW_TAG_base_type
    1407                      .dwattr $C$DW$T$13, DW_AT_encoding(DW_ATE_unsigned)
    1408                      .dwattr $C$DW$T$13, DW_AT_name("unsigned long")
    1409                      .dwattr $C$DW$T$13, DW_AT_byte_size(0x02)
    1410              $C$DW$T$63      .dwtag  DW_TAG_pointer_type
    1411                      .dwattr $C$DW$T$63, DW_AT_type(*$C$DW$T$13)
    1412                      .dwattr $C$DW$T$63, DW_AT_address_class(0x17)
    1413              $C$DW$T$14      .dwtag  DW_TAG_base_type
    1414                      .dwattr $C$DW$T$14, DW_AT_encoding(DW_ATE_signed)
    1415                      .dwattr $C$DW$T$14, DW_AT_name("long long")
    1416                      .dwattr $C$DW$T$14, DW_AT_byte_size(0x04)
    1417                      .dwattr $C$DW$T$14, DW_AT_bit_size(0x28)
    1418                      .dwattr $C$DW$T$14, DW_AT_bit_offset(0x18)
    1419              $C$DW$T$15      .dwtag  DW_TAG_base_type
    1420                      .dwattr $C$DW$T$15, DW_AT_encoding(DW_ATE_unsigned)
    1421                      .dwattr $C$DW$T$15, DW_AT_name("unsigned long long")
    1422                      .dwattr $C$DW$T$15, DW_AT_byte_size(0x04)
    1423                      .dwattr $C$DW$T$15, DW_AT_bit_size(0x28)
    1424                      .dwattr $C$DW$T$15, DW_AT_bit_offset(0x18)
    1425              $C$DW$T$16      .dwtag  DW_TAG_base_type
    1426                      .dwattr $C$DW$T$16, DW_AT_encoding(DW_ATE_float)
    1427                      .dwattr $C$DW$T$16, DW_AT_name("float")
    1428                      .dwattr $C$DW$T$16, DW_AT_byte_size(0x02)
    1429              $C$DW$T$17      .dwtag  DW_TAG_base_type
    1430                      .dwattr $C$DW$T$17, DW_AT_encoding(DW_ATE_float)
    1431                      .dwattr $C$DW$T$17, DW_AT_name("double")
    1432                      .dwattr $C$DW$T$17, DW_AT_byte_size(0x02)
    1433              $C$DW$T$18      .dwtag  DW_TAG_base_type
    1434                      .dwattr $C$DW$T$18, DW_AT_encoding(DW_ATE_float)
    1435                      .dwattr $C$DW$T$18, DW_AT_name("long double")
TMS320C55x Assembler PC v4.4.1 Fri Sep 07 01:41:46 2018

Tools Copyright (c) 1996-2012 Texas Instruments Incorporated
dynamic.asm                                                          PAGE   32

    1436                      .dwattr $C$DW$T$18, DW_AT_byte_size(0x02)
    1437              $C$DW$T$64      .dwtag  DW_TAG_base_type
    1438                      .dwattr $C$DW$T$64, DW_AT_encoding(DW_ATE_signed_char)
    1439                      .dwattr $C$DW$T$64, DW_AT_name("signed char")
    1440                      .dwattr $C$DW$T$64, DW_AT_byte_size(0x01)
    1441              
    1442              $C$DW$T$19      .dwtag  DW_TAG_structure_type
    1443                      .dwattr $C$DW$T$19, DW_AT_name("xMEMORY_REGION")
    1444                      .dwattr $C$DW$T$19, DW_AT_byte_size(0x06)
    1445              $C$DW$141       .dwtag  DW_TAG_member
    1446                      .dwattr $C$DW$141, DW_AT_type(*$C$DW$T$3)
    1447                      .dwattr $C$DW$141, DW_AT_name("pvBaseAddress")
    1448                      .dwattr $C$DW$141, DW_AT_TI_symbol_name("_pvBaseAddress")
    1449                      .dwattr $C$DW$141, DW_AT_data_member_location[DW_OP_plus_uconst 0x0]
    1450                      .dwattr $C$DW$141, DW_AT_accessibility(DW_ACCESS_public)
    1451              $C$DW$142       .dwtag  DW_TAG_member
    1452                      .dwattr $C$DW$142, DW_AT_type(*$C$DW$T$13)
    1453                      .dwattr $C$DW$142, DW_AT_name("ulLengthInBytes")
    1454                      .dwattr $C$DW$142, DW_AT_TI_symbol_name("_ulLengthInBytes")
    1455                      .dwattr $C$DW$142, DW_AT_data_member_location[DW_OP_plus_uconst 0x2]
    1456                      .dwattr $C$DW$142, DW_AT_accessibility(DW_ACCESS_public)
    1457              $C$DW$143       .dwtag  DW_TAG_member
    1458                      .dwattr $C$DW$143, DW_AT_type(*$C$DW$T$13)
    1459                      .dwattr $C$DW$143, DW_AT_name("ulParameters")
    1460                      .dwattr $C$DW$143, DW_AT_TI_symbol_name("_ulParameters")
    1461                      .dwattr $C$DW$143, DW_AT_data_member_location[DW_OP_plus_uconst 0x4]
    1462                      .dwattr $C$DW$143, DW_AT_accessibility(DW_ACCESS_public)
    1463                      .dwendtag $C$DW$T$19
    1464              
    1465              $C$DW$T$49      .dwtag  DW_TAG_typedef, DW_AT_name("xMemoryRegion")
    1466                      .dwattr $C$DW$T$49, DW_AT_type(*$C$DW$T$19)
    1467                      .dwattr $C$DW$T$49, DW_AT_language(DW_LANG_C)
    1468              $C$DW$144       .dwtag  DW_TAG_TI_far_type
    1469                      .dwattr $C$DW$144, DW_AT_type(*$C$DW$T$49)
    1470              $C$DW$T$50      .dwtag  DW_TAG_const_type
    1471                      .dwattr $C$DW$T$50, DW_AT_type(*$C$DW$144)
    1472              $C$DW$T$51      .dwtag  DW_TAG_pointer_type
    1473                      .dwattr $C$DW$T$51, DW_AT_type(*$C$DW$T$50)
    1474                      .dwattr $C$DW$T$51, DW_AT_address_class(0x17)
    1475              $C$DW$145       .dwtag  DW_TAG_TI_far_type
    1476                      .dwattr $C$DW$145, DW_AT_type(*$C$DW$T$51)
    1477              $C$DW$T$52      .dwtag  DW_TAG_const_type
    1478                      .dwattr $C$DW$T$52, DW_AT_type(*$C$DW$145)
    1479                      .dwattr $C$DW$CU, DW_AT_language(DW_LANG_C)
    1480              
    1481              ;***************************************************************
    1482              ;* DWARF CIE ENTRIES                                           *
    1483              ;***************************************************************
    1484              
    1485              $C$DW$CIE       .dwcie 91
    1486                      .dwcfi  cfa_register, 36
    1487                      .dwcfi  cfa_offset, 0
    1488                      .dwcfi  undefined, 0
    1489                      .dwcfi  undefined, 1
    1490                      .dwcfi  undefined, 2
TMS320C55x Assembler PC v4.4.1 Fri Sep 07 01:41:46 2018

Tools Copyright (c) 1996-2012 Texas Instruments Incorporated
dynamic.asm                                                          PAGE   33

    1491                      .dwcfi  undefined, 3
    1492                      .dwcfi  undefined, 4
    1493                      .dwcfi  undefined, 5
    1494                      .dwcfi  undefined, 6
    1495                      .dwcfi  undefined, 7
    1496                      .dwcfi  undefined, 8
    1497                      .dwcfi  undefined, 9
    1498                      .dwcfi  undefined, 10
    1499                      .dwcfi  undefined, 11
    1500                      .dwcfi  undefined, 12
    1501                      .dwcfi  undefined, 13
    1502                      .dwcfi  same_value, 14
    1503                      .dwcfi  same_value, 15
    1504                      .dwcfi  undefined, 16
    1505                      .dwcfi  undefined, 17
    1506                      .dwcfi  undefined, 18
    1507                      .dwcfi  undefined, 19
    1508                      .dwcfi  undefined, 20
    1509                      .dwcfi  undefined, 21
    1510                      .dwcfi  undefined, 22
    1511                      .dwcfi  undefined, 23
    1512                      .dwcfi  undefined, 24
    1513                      .dwcfi  undefined, 25
    1514                      .dwcfi  same_value, 26
    1515                      .dwcfi  same_value, 27
    1516                      .dwcfi  same_value, 28
    1517                      .dwcfi  same_value, 29
    1518                      .dwcfi  same_value, 30
    1519                      .dwcfi  same_value, 31
    1520                      .dwcfi  undefined, 32
    1521                      .dwcfi  undefined, 33
    1522                      .dwcfi  undefined, 34
    1523                      .dwcfi  undefined, 35
    1524                      .dwcfi  undefined, 36
    1525                      .dwcfi  undefined, 37
    1526                      .dwcfi  undefined, 38
    1527                      .dwcfi  undefined, 39
    1528                      .dwcfi  undefined, 40
    1529                      .dwcfi  undefined, 41
    1530                      .dwcfi  undefined, 42
    1531                      .dwcfi  undefined, 43
    1532                      .dwcfi  undefined, 44
    1533                      .dwcfi  undefined, 45
    1534                      .dwcfi  undefined, 46
    1535                      .dwcfi  undefined, 47
    1536                      .dwcfi  undefined, 48
    1537                      .dwcfi  undefined, 49
    1538                      .dwcfi  undefined, 50
    1539                      .dwcfi  undefined, 51
    1540                      .dwcfi  undefined, 52
    1541                      .dwcfi  undefined, 53
    1542                      .dwcfi  undefined, 54
    1543                      .dwcfi  undefined, 55
    1544                      .dwcfi  undefined, 56
    1545                      .dwcfi  undefined, 57
TMS320C55x Assembler PC v4.4.1 Fri Sep 07 01:41:46 2018

Tools Copyright (c) 1996-2012 Texas Instruments Incorporated
dynamic.asm                                                          PAGE   34

    1546                      .dwcfi  undefined, 58
    1547                      .dwcfi  undefined, 59
    1548                      .dwcfi  undefined, 60
    1549                      .dwcfi  undefined, 61
    1550                      .dwcfi  undefined, 62
    1551                      .dwcfi  undefined, 63
    1552                      .dwcfi  undefined, 64
    1553                      .dwcfi  undefined, 65
    1554                      .dwcfi  undefined, 66
    1555                      .dwcfi  undefined, 67
    1556                      .dwcfi  undefined, 68
    1557                      .dwcfi  undefined, 69
    1558                      .dwcfi  undefined, 70
    1559                      .dwcfi  undefined, 71
    1560                      .dwcfi  undefined, 72
    1561                      .dwcfi  undefined, 73
    1562                      .dwcfi  undefined, 74
    1563                      .dwcfi  undefined, 75
    1564                      .dwcfi  undefined, 76
    1565                      .dwcfi  undefined, 77
    1566                      .dwcfi  undefined, 78
    1567                      .dwcfi  undefined, 79
    1568                      .dwcfi  undefined, 80
    1569                      .dwcfi  undefined, 81
    1570                      .dwcfi  undefined, 82
    1571                      .dwcfi  undefined, 83
    1572                      .dwcfi  undefined, 84
    1573                      .dwcfi  undefined, 85
    1574                      .dwcfi  undefined, 86
    1575                      .dwcfi  undefined, 87
    1576                      .dwcfi  undefined, 88
    1577                      .dwcfi  undefined, 89
    1578                      .dwcfi  undefined, 90
    1579                      .dwcfi  undefined, 91
    1580                      .dwendentry
    1581              
    1582              ;***************************************************************
    1583              ;* DWARF REGISTER MAP                                          *
    1584              ;***************************************************************
    1585              
    1586              $C$DW$146       .dwtag  DW_TAG_TI_assign_register, DW_AT_name("AC0")
    1587                      .dwattr $C$DW$146, DW_AT_location[DW_OP_reg0]
    1588              $C$DW$147       .dwtag  DW_TAG_TI_assign_register, DW_AT_name("AC0")
    1589                      .dwattr $C$DW$147, DW_AT_location[DW_OP_reg1]
    1590              $C$DW$148       .dwtag  DW_TAG_TI_assign_register, DW_AT_name("AC0_G")
    1591                      .dwattr $C$DW$148, DW_AT_location[DW_OP_reg2]
    1592              $C$DW$149       .dwtag  DW_TAG_TI_assign_register, DW_AT_name("AC1")
    1593                      .dwattr $C$DW$149, DW_AT_location[DW_OP_reg3]
    1594              $C$DW$150       .dwtag  DW_TAG_TI_assign_register, DW_AT_name("AC1")
    1595                      .dwattr $C$DW$150, DW_AT_location[DW_OP_reg4]
    1596              $C$DW$151       .dwtag  DW_TAG_TI_assign_register, DW_AT_name("AC1_G")
    1597                      .dwattr $C$DW$151, DW_AT_location[DW_OP_reg5]
    1598              $C$DW$152       .dwtag  DW_TAG_TI_assign_register, DW_AT_name("AC2")
    1599                      .dwattr $C$DW$152, DW_AT_location[DW_OP_reg6]
    1600              $C$DW$153       .dwtag  DW_TAG_TI_assign_register, DW_AT_name("AC2")
TMS320C55x Assembler PC v4.4.1 Fri Sep 07 01:41:46 2018

Tools Copyright (c) 1996-2012 Texas Instruments Incorporated
dynamic.asm                                                          PAGE   35

    1601                      .dwattr $C$DW$153, DW_AT_location[DW_OP_reg7]
    1602              $C$DW$154       .dwtag  DW_TAG_TI_assign_register, DW_AT_name("AC2_G")
    1603                      .dwattr $C$DW$154, DW_AT_location[DW_OP_reg8]
    1604              $C$DW$155       .dwtag  DW_TAG_TI_assign_register, DW_AT_name("AC3")
    1605                      .dwattr $C$DW$155, DW_AT_location[DW_OP_reg9]
    1606              $C$DW$156       .dwtag  DW_TAG_TI_assign_register, DW_AT_name("AC3")
    1607                      .dwattr $C$DW$156, DW_AT_location[DW_OP_reg10]
    1608              $C$DW$157       .dwtag  DW_TAG_TI_assign_register, DW_AT_name("AC3_G")
    1609                      .dwattr $C$DW$157, DW_AT_location[DW_OP_reg11]
    1610              $C$DW$158       .dwtag  DW_TAG_TI_assign_register, DW_AT_name("T0")
    1611                      .dwattr $C$DW$158, DW_AT_location[DW_OP_reg12]
    1612              $C$DW$159       .dwtag  DW_TAG_TI_assign_register, DW_AT_name("T1")
    1613                      .dwattr $C$DW$159, DW_AT_location[DW_OP_reg13]
    1614              $C$DW$160       .dwtag  DW_TAG_TI_assign_register, DW_AT_name("T2")
    1615                      .dwattr $C$DW$160, DW_AT_location[DW_OP_reg14]
    1616              $C$DW$161       .dwtag  DW_TAG_TI_assign_register, DW_AT_name("T3")
    1617                      .dwattr $C$DW$161, DW_AT_location[DW_OP_reg15]
    1618              $C$DW$162       .dwtag  DW_TAG_TI_assign_register, DW_AT_name("AR0")
    1619                      .dwattr $C$DW$162, DW_AT_location[DW_OP_reg16]
    1620              $C$DW$163       .dwtag  DW_TAG_TI_assign_register, DW_AT_name("XAR0")
    1621                      .dwattr $C$DW$163, DW_AT_location[DW_OP_reg17]
    1622              $C$DW$164       .dwtag  DW_TAG_TI_assign_register, DW_AT_name("AR1")
    1623                      .dwattr $C$DW$164, DW_AT_location[DW_OP_reg18]
    1624              $C$DW$165       .dwtag  DW_TAG_TI_assign_register, DW_AT_name("XAR1")
    1625                      .dwattr $C$DW$165, DW_AT_location[DW_OP_reg19]
    1626              $C$DW$166       .dwtag  DW_TAG_TI_assign_register, DW_AT_name("AR2")
    1627                      .dwattr $C$DW$166, DW_AT_location[DW_OP_reg20]
    1628              $C$DW$167       .dwtag  DW_TAG_TI_assign_register, DW_AT_name("XAR2")
    1629                      .dwattr $C$DW$167, DW_AT_location[DW_OP_reg21]
    1630              $C$DW$168       .dwtag  DW_TAG_TI_assign_register, DW_AT_name("AR3")
    1631                      .dwattr $C$DW$168, DW_AT_location[DW_OP_reg22]
    1632              $C$DW$169       .dwtag  DW_TAG_TI_assign_register, DW_AT_name("XAR3")
    1633                      .dwattr $C$DW$169, DW_AT_location[DW_OP_reg23]
    1634              $C$DW$170       .dwtag  DW_TAG_TI_assign_register, DW_AT_name("AR4")
    1635                      .dwattr $C$DW$170, DW_AT_location[DW_OP_reg24]
    1636              $C$DW$171       .dwtag  DW_TAG_TI_assign_register, DW_AT_name("XAR4")
    1637                      .dwattr $C$DW$171, DW_AT_location[DW_OP_reg25]
    1638              $C$DW$172       .dwtag  DW_TAG_TI_assign_register, DW_AT_name("AR5")
    1639                      .dwattr $C$DW$172, DW_AT_location[DW_OP_reg26]
    1640              $C$DW$173       .dwtag  DW_TAG_TI_assign_register, DW_AT_name("XAR5")
    1641                      .dwattr $C$DW$173, DW_AT_location[DW_OP_reg27]
    1642              $C$DW$174       .dwtag  DW_TAG_TI_assign_register, DW_AT_name("AR6")
    1643                      .dwattr $C$DW$174, DW_AT_location[DW_OP_reg28]
    1644              $C$DW$175       .dwtag  DW_TAG_TI_assign_register, DW_AT_name("XAR6")
    1645                      .dwattr $C$DW$175, DW_AT_location[DW_OP_reg29]
    1646              $C$DW$176       .dwtag  DW_TAG_TI_assign_register, DW_AT_name("AR7")
    1647                      .dwattr $C$DW$176, DW_AT_location[DW_OP_reg30]
    1648              $C$DW$177       .dwtag  DW_TAG_TI_assign_register, DW_AT_name("XAR7")
    1649                      .dwattr $C$DW$177, DW_AT_location[DW_OP_reg31]
    1650              $C$DW$178       .dwtag  DW_TAG_TI_assign_register, DW_AT_name("FP")
    1651                      .dwattr $C$DW$178, DW_AT_location[DW_OP_regx 0x20]
    1652              $C$DW$179       .dwtag  DW_TAG_TI_assign_register, DW_AT_name("XFP")
    1653                      .dwattr $C$DW$179, DW_AT_location[DW_OP_regx 0x21]
    1654              $C$DW$180       .dwtag  DW_TAG_TI_assign_register, DW_AT_name("PC")
    1655                      .dwattr $C$DW$180, DW_AT_location[DW_OP_regx 0x22]
TMS320C55x Assembler PC v4.4.1 Fri Sep 07 01:41:46 2018

Tools Copyright (c) 1996-2012 Texas Instruments Incorporated
dynamic.asm                                                          PAGE   36

    1656              $C$DW$181       .dwtag  DW_TAG_TI_assign_register, DW_AT_name("SP")
    1657                      .dwattr $C$DW$181, DW_AT_location[DW_OP_regx 0x23]
    1658              $C$DW$182       .dwtag  DW_TAG_TI_assign_register, DW_AT_name("XSP")
    1659                      .dwattr $C$DW$182, DW_AT_location[DW_OP_regx 0x24]
    1660              $C$DW$183       .dwtag  DW_TAG_TI_assign_register, DW_AT_name("BKC")
    1661                      .dwattr $C$DW$183, DW_AT_location[DW_OP_regx 0x25]
    1662              $C$DW$184       .dwtag  DW_TAG_TI_assign_register, DW_AT_name("BK03")
    1663                      .dwattr $C$DW$184, DW_AT_location[DW_OP_regx 0x26]
    1664              $C$DW$185       .dwtag  DW_TAG_TI_assign_register, DW_AT_name("BK47")
    1665                      .dwattr $C$DW$185, DW_AT_location[DW_OP_regx 0x27]
    1666              $C$DW$186       .dwtag  DW_TAG_TI_assign_register, DW_AT_name("ST0")
    1667                      .dwattr $C$DW$186, DW_AT_location[DW_OP_regx 0x28]
    1668              $C$DW$187       .dwtag  DW_TAG_TI_assign_register, DW_AT_name("ST1")
    1669                      .dwattr $C$DW$187, DW_AT_location[DW_OP_regx 0x29]
    1670              $C$DW$188       .dwtag  DW_TAG_TI_assign_register, DW_AT_name("ST2")
    1671                      .dwattr $C$DW$188, DW_AT_location[DW_OP_regx 0x2a]
    1672              $C$DW$189       .dwtag  DW_TAG_TI_assign_register, DW_AT_name("ST3")
    1673                      .dwattr $C$DW$189, DW_AT_location[DW_OP_regx 0x2b]
    1674              $C$DW$190       .dwtag  DW_TAG_TI_assign_register, DW_AT_name("MDP")
    1675                      .dwattr $C$DW$190, DW_AT_location[DW_OP_regx 0x2c]
    1676              $C$DW$191       .dwtag  DW_TAG_TI_assign_register, DW_AT_name("MDP05")
    1677                      .dwattr $C$DW$191, DW_AT_location[DW_OP_regx 0x2d]
    1678              $C$DW$192       .dwtag  DW_TAG_TI_assign_register, DW_AT_name("MDP67")
    1679                      .dwattr $C$DW$192, DW_AT_location[DW_OP_regx 0x2e]
    1680              $C$DW$193       .dwtag  DW_TAG_TI_assign_register, DW_AT_name("BRC0")
    1681                      .dwattr $C$DW$193, DW_AT_location[DW_OP_regx 0x2f]
    1682              $C$DW$194       .dwtag  DW_TAG_TI_assign_register, DW_AT_name("RSA0")
    1683                      .dwattr $C$DW$194, DW_AT_location[DW_OP_regx 0x30]
    1684              $C$DW$195       .dwtag  DW_TAG_TI_assign_register, DW_AT_name("RSA0_H")
    1685                      .dwattr $C$DW$195, DW_AT_location[DW_OP_regx 0x31]
    1686              $C$DW$196       .dwtag  DW_TAG_TI_assign_register, DW_AT_name("REA0")
    1687                      .dwattr $C$DW$196, DW_AT_location[DW_OP_regx 0x32]
    1688              $C$DW$197       .dwtag  DW_TAG_TI_assign_register, DW_AT_name("REA0_H")
    1689                      .dwattr $C$DW$197, DW_AT_location[DW_OP_regx 0x33]
    1690              $C$DW$198       .dwtag  DW_TAG_TI_assign_register, DW_AT_name("BRS1")
    1691                      .dwattr $C$DW$198, DW_AT_location[DW_OP_regx 0x34]
    1692              $C$DW$199       .dwtag  DW_TAG_TI_assign_register, DW_AT_name("BRC1")
    1693                      .dwattr $C$DW$199, DW_AT_location[DW_OP_regx 0x35]
    1694              $C$DW$200       .dwtag  DW_TAG_TI_assign_register, DW_AT_name("RSA1")
    1695                      .dwattr $C$DW$200, DW_AT_location[DW_OP_regx 0x36]
    1696              $C$DW$201       .dwtag  DW_TAG_TI_assign_register, DW_AT_name("RSA1_H")
    1697                      .dwattr $C$DW$201, DW_AT_location[DW_OP_regx 0x37]
    1698              $C$DW$202       .dwtag  DW_TAG_TI_assign_register, DW_AT_name("REA1")
    1699                      .dwattr $C$DW$202, DW_AT_location[DW_OP_regx 0x38]
    1700              $C$DW$203       .dwtag  DW_TAG_TI_assign_register, DW_AT_name("REA1_H")
    1701                      .dwattr $C$DW$203, DW_AT_location[DW_OP_regx 0x39]
    1702              $C$DW$204       .dwtag  DW_TAG_TI_assign_register, DW_AT_name("CSR")
    1703                      .dwattr $C$DW$204, DW_AT_location[DW_OP_regx 0x3a]
    1704              $C$DW$205       .dwtag  DW_TAG_TI_assign_register, DW_AT_name("RPTC")
    1705                      .dwattr $C$DW$205, DW_AT_location[DW_OP_regx 0x3b]
    1706              $C$DW$206       .dwtag  DW_TAG_TI_assign_register, DW_AT_name("CDP")
    1707                      .dwattr $C$DW$206, DW_AT_location[DW_OP_regx 0x3c]
    1708              $C$DW$207       .dwtag  DW_TAG_TI_assign_register, DW_AT_name("XCDP")
    1709                      .dwattr $C$DW$207, DW_AT_location[DW_OP_regx 0x3d]
    1710              $C$DW$208       .dwtag  DW_TAG_TI_assign_register, DW_AT_name("TRN0")
TMS320C55x Assembler PC v4.4.1 Fri Sep 07 01:41:46 2018

Tools Copyright (c) 1996-2012 Texas Instruments Incorporated
dynamic.asm                                                          PAGE   37

    1711                      .dwattr $C$DW$208, DW_AT_location[DW_OP_regx 0x3e]
    1712              $C$DW$209       .dwtag  DW_TAG_TI_assign_register, DW_AT_name("TRN1")
    1713                      .dwattr $C$DW$209, DW_AT_location[DW_OP_regx 0x3f]
    1714              $C$DW$210       .dwtag  DW_TAG_TI_assign_register, DW_AT_name("BSA01")
    1715                      .dwattr $C$DW$210, DW_AT_location[DW_OP_regx 0x40]
    1716              $C$DW$211       .dwtag  DW_TAG_TI_assign_register, DW_AT_name("BSA23")
    1717                      .dwattr $C$DW$211, DW_AT_location[DW_OP_regx 0x41]
    1718              $C$DW$212       .dwtag  DW_TAG_TI_assign_register, DW_AT_name("BSA45")
    1719                      .dwattr $C$DW$212, DW_AT_location[DW_OP_regx 0x42]
    1720              $C$DW$213       .dwtag  DW_TAG_TI_assign_register, DW_AT_name("BSA67")
    1721                      .dwattr $C$DW$213, DW_AT_location[DW_OP_regx 0x43]
    1722              $C$DW$214       .dwtag  DW_TAG_TI_assign_register, DW_AT_name("BSAC")
    1723                      .dwattr $C$DW$214, DW_AT_location[DW_OP_regx 0x44]
    1724              $C$DW$215       .dwtag  DW_TAG_TI_assign_register, DW_AT_name("CARRY")
    1725                      .dwattr $C$DW$215, DW_AT_location[DW_OP_regx 0x45]
    1726              $C$DW$216       .dwtag  DW_TAG_TI_assign_register, DW_AT_name("TC1")
    1727                      .dwattr $C$DW$216, DW_AT_location[DW_OP_regx 0x46]
    1728              $C$DW$217       .dwtag  DW_TAG_TI_assign_register, DW_AT_name("TC2")
    1729                      .dwattr $C$DW$217, DW_AT_location[DW_OP_regx 0x47]
    1730              $C$DW$218       .dwtag  DW_TAG_TI_assign_register, DW_AT_name("M40")
    1731                      .dwattr $C$DW$218, DW_AT_location[DW_OP_regx 0x48]
    1732              $C$DW$219       .dwtag  DW_TAG_TI_assign_register, DW_AT_name("SXMD")
    1733                      .dwattr $C$DW$219, DW_AT_location[DW_OP_regx 0x49]
    1734              $C$DW$220       .dwtag  DW_TAG_TI_assign_register, DW_AT_name("ARMS")
    1735                      .dwattr $C$DW$220, DW_AT_location[DW_OP_regx 0x4a]
    1736              $C$DW$221       .dwtag  DW_TAG_TI_assign_register, DW_AT_name("C54CM")
    1737                      .dwattr $C$DW$221, DW_AT_location[DW_OP_regx 0x4b]
    1738              $C$DW$222       .dwtag  DW_TAG_TI_assign_register, DW_AT_name("SATA")
    1739                      .dwattr $C$DW$222, DW_AT_location[DW_OP_regx 0x4c]
    1740              $C$DW$223       .dwtag  DW_TAG_TI_assign_register, DW_AT_name("SATD")
    1741                      .dwattr $C$DW$223, DW_AT_location[DW_OP_regx 0x4d]
    1742              $C$DW$224       .dwtag  DW_TAG_TI_assign_register, DW_AT_name("RDM")
    1743                      .dwattr $C$DW$224, DW_AT_location[DW_OP_regx 0x4e]
    1744              $C$DW$225       .dwtag  DW_TAG_TI_assign_register, DW_AT_name("FRCT")
    1745                      .dwattr $C$DW$225, DW_AT_location[DW_OP_regx 0x4f]
    1746              $C$DW$226       .dwtag  DW_TAG_TI_assign_register, DW_AT_name("SMUL")
    1747                      .dwattr $C$DW$226, DW_AT_location[DW_OP_regx 0x50]
    1748              $C$DW$227       .dwtag  DW_TAG_TI_assign_register, DW_AT_name("INTM")
    1749                      .dwattr $C$DW$227, DW_AT_location[DW_OP_regx 0x51]
    1750              $C$DW$228       .dwtag  DW_TAG_TI_assign_register, DW_AT_name("AR0LC")
    1751                      .dwattr $C$DW$228, DW_AT_location[DW_OP_regx 0x52]
    1752              $C$DW$229       .dwtag  DW_TAG_TI_assign_register, DW_AT_name("AR1LC")
    1753                      .dwattr $C$DW$229, DW_AT_location[DW_OP_regx 0x53]
    1754              $C$DW$230       .dwtag  DW_TAG_TI_assign_register, DW_AT_name("AR2LC")
    1755                      .dwattr $C$DW$230, DW_AT_location[DW_OP_regx 0x54]
    1756              $C$DW$231       .dwtag  DW_TAG_TI_assign_register, DW_AT_name("AR3LC")
    1757                      .dwattr $C$DW$231, DW_AT_location[DW_OP_regx 0x55]
    1758              $C$DW$232       .dwtag  DW_TAG_TI_assign_register, DW_AT_name("AR4LC")
    1759                      .dwattr $C$DW$232, DW_AT_location[DW_OP_regx 0x56]
    1760              $C$DW$233       .dwtag  DW_TAG_TI_assign_register, DW_AT_name("AR5LC")
    1761                      .dwattr $C$DW$233, DW_AT_location[DW_OP_regx 0x57]
    1762              $C$DW$234       .dwtag  DW_TAG_TI_assign_register, DW_AT_name("AR6LC")
    1763                      .dwattr $C$DW$234, DW_AT_location[DW_OP_regx 0x58]
    1764              $C$DW$235       .dwtag  DW_TAG_TI_assign_register, DW_AT_name("AR7LC")
    1765                      .dwattr $C$DW$235, DW_AT_location[DW_OP_regx 0x59]
TMS320C55x Assembler PC v4.4.1 Fri Sep 07 01:41:46 2018

Tools Copyright (c) 1996-2012 Texas Instruments Incorporated
dynamic.asm                                                          PAGE   38

    1766              $C$DW$236       .dwtag  DW_TAG_TI_assign_register, DW_AT_name("CDPLC")
    1767                      .dwattr $C$DW$236, DW_AT_location[DW_OP_regx 0x5a]
    1768              $C$DW$237       .dwtag  DW_TAG_TI_assign_register, DW_AT_name("CIE_RETA")
    1769                      .dwattr $C$DW$237, DW_AT_location[DW_OP_regx 0x5b]
    1770                      .dwendtag $C$DW$CU
    1771              
    1771              
    1771              

No Assembly Errors, No Assembly Warnings
